
usbhid:     file format elf32-i386


Disassembly of section .init:

00001094 <__entry>:
    1094:	66 8c d0             	mov    %ss,%ax
    1097:	8e d8                	mov    %eax,%ds
    1099:	8e c0                	mov    %eax,%es
    109b:	8e e0                	mov    %eax,%fs
    109d:	b8 01 00 00 00       	mov    $0x1,%eax
    10a2:	0f a2                	cpuid  
    10a4:	0f ba e2 0b          	bt     $0xb,%edx
    10a8:	73 0c                	jae    10b6 <__entry+0x22>
    10aa:	8d 05 90 9b 03 00    	lea    0x39b90,%eax
    10b0:	c7 00 67 d6 02 00    	movl   $0x2d667,(%eax)
    10b6:	6a 00                	push   $0x0
    10b8:	89 e5                	mov    %esp,%ebp
    10ba:	57                   	push   %edi
    10bb:	e8 20 22 01 00       	call   132e0 <__main>

Disassembly of section .text:

000010c0 <usb_hid_device_rem>:
    10c0:	55                   	push   %ebp
    10c1:	b8 f5 ff ff ff       	mov    $0xfffffff5,%eax
    10c6:	89 e5                	mov    %esp,%ebp
    10c8:	5d                   	pop    %ebp
    10c9:	c3                   	ret    
    10ca:	8d b6 00 00 00 00    	lea    0x0(%esi),%esi

000010d0 <usb_hid_device_add>:
    10d0:	55                   	push   %ebp
    10d1:	89 e5                	mov    %esp,%ebp
    10d3:	57                   	push   %edi
    10d4:	56                   	push   %esi
    10d5:	53                   	push   %ebx
    10d6:	83 ec 2c             	sub    $0x2c,%esp
    10d9:	8b 5d 08             	mov    0x8(%ebp),%ebx
    10dc:	c7 44 24 0c e4 1d 03 	movl   $0x31de4,0xc(%esp)
    10e3:	00 
    10e4:	c7 44 24 08 ad 1f 03 	movl   $0x31fad,0x8(%esp)
    10eb:	00 
    10ec:	c7 44 24 04 04 00 00 	movl   $0x4,0x4(%esp)
    10f3:	00 
    10f4:	c7 04 24 ff ff ff ff 	movl   $0xffffffff,(%esp)
    10fb:	e8 10 ca 01 00       	call   1db10 <log_msg>
    1100:	85 db                	test   %ebx,%ebx
    1102:	0f 84 8c 01 00 00    	je     1294 <usb_hid_device_add+0x1c4>
    1108:	8b 73 44             	mov    0x44(%ebx),%esi
    110b:	85 f6                	test   %esi,%esi
    110d:	0f 88 35 01 00 00    	js     1248 <usb_hid_device_add+0x178>
    1113:	c7 44 24 04 50 00 00 	movl   $0x50,0x4(%esp)
    111a:	00 
    111b:	89 1c 24             	mov    %ebx,(%esp)
    111e:	e8 7d 7c 00 00       	call   8da0 <usb_device_data_alloc>
    1123:	89 c6                	mov    %eax,%esi
    1125:	85 c0                	test   %eax,%eax
    1127:	0f 84 41 01 00 00    	je     126e <usb_hid_device_add+0x19e>
    112d:	89 5c 24 04          	mov    %ebx,0x4(%esp)
    1131:	89 04 24             	mov    %eax,(%esp)
    1134:	e8 a7 02 00 00       	call   13e0 <usb_hid_init>
    1139:	89 c7                	mov    %eax,%edi
    113b:	85 c0                	test   %eax,%eax
    113d:	0f 85 d5 00 00 00    	jne    1218 <usb_hid_device_add+0x148>
    1143:	c7 44 24 08 1c 1d 03 	movl   $0x31d1c,0x8(%esp)
    114a:	00 
    114b:	c7 44 24 04 04 00 00 	movl   $0x4,0x4(%esp)
    1152:	00 
    1153:	c7 04 24 ff ff ff ff 	movl   $0xffffffff,(%esp)
    115a:	e8 b1 c9 01 00       	call   1db10 <log_msg>
    115f:	8b 56 04             	mov    0x4(%esi),%edx
    1162:	89 74 24 14          	mov    %esi,0x14(%esp)
    1166:	c7 44 24 10 80 20 00 	movl   $0x2080,0x10(%esp)
    116d:	00 
    116e:	8d 04 52             	lea    (%edx,%edx,2),%eax
    1171:	8b 4b 3c             	mov    0x3c(%ebx),%ecx
    1174:	c1 e0 04             	shl    $0x4,%eax
    1177:	01 c8                	add    %ecx,%eax
    1179:	8b 40 10             	mov    0x10(%eax),%eax
    117c:	c7 44 24 08 f0 1e 00 	movl   $0x1ef0,0x8(%esp)
    1183:	00 
    1184:	89 44 24 0c          	mov    %eax,0xc(%esp)
    1188:	89 54 24 04          	mov    %edx,0x4(%esp)
    118c:	89 1c 24             	mov    %ebx,(%esp)
    118f:	e8 0c 81 00 00       	call   92a0 <usb_device_auto_poll>
    1194:	89 c7                	mov    %eax,%edi
    1196:	85 c0                	test   %eax,%eax
    1198:	75 3e                	jne    11d8 <usb_hid_device_add+0x108>
    119a:	8b 43 70             	mov    0x70(%ebx),%eax
    119d:	c6 46 4c 01          	movb   $0x1,0x4c(%esi)
    11a1:	89 04 24             	mov    %eax,(%esp)
    11a4:	e8 e7 cd 00 00       	call   df90 <ddf_dev_get_name>
    11a9:	c7 44 24 08 70 1d 03 	movl   $0x31d70,0x8(%esp)
    11b0:	00 
    11b1:	89 44 24 0c          	mov    %eax,0xc(%esp)
    11b5:	c7 44 24 04 03 00 00 	movl   $0x3,0x4(%esp)
    11bc:	00 
    11bd:	c7 04 24 ff ff ff ff 	movl   $0xffffffff,(%esp)
    11c4:	e8 47 c9 01 00       	call   1db10 <log_msg>
    11c9:	83 c4 2c             	add    $0x2c,%esp
    11cc:	89 f8                	mov    %edi,%eax
    11ce:	5b                   	pop    %ebx
    11cf:	5e                   	pop    %esi
    11d0:	5f                   	pop    %edi
    11d1:	5d                   	pop    %ebp
    11d2:	c3                   	ret    
    11d3:	90                   	nop
    11d4:	8d 74 26 00          	lea    0x0(%esi,%eiz,1),%esi
    11d8:	8b 43 70             	mov    0x70(%ebx),%eax
    11db:	89 04 24             	mov    %eax,(%esp)
    11de:	e8 ad cd 00 00       	call   df90 <ddf_dev_get_name>
    11e3:	c7 44 24 08 44 1d 03 	movl   $0x31d44,0x8(%esp)
    11ea:	00 
    11eb:	89 44 24 0c          	mov    %eax,0xc(%esp)
    11ef:	c7 44 24 04 01 00 00 	movl   $0x1,0x4(%esp)
    11f6:	00 
    11f7:	c7 04 24 ff ff ff ff 	movl   $0xffffffff,(%esp)
    11fe:	e8 0d c9 01 00       	call   1db10 <log_msg>
    1203:	89 34 24             	mov    %esi,(%esp)
    1206:	e8 35 0f 00 00       	call   2140 <usb_hid_deinit>
    120b:	83 c4 2c             	add    $0x2c,%esp
    120e:	89 f8                	mov    %edi,%eax
    1210:	5b                   	pop    %ebx
    1211:	5e                   	pop    %esi
    1212:	5f                   	pop    %edi
    1213:	5d                   	pop    %ebp
    1214:	c3                   	ret    
    1215:	8d 76 00             	lea    0x0(%esi),%esi
    1218:	c7 44 24 08 f4 1c 03 	movl   $0x31cf4,0x8(%esp)
    121f:	00 
    1220:	c7 44 24 04 01 00 00 	movl   $0x1,0x4(%esp)
    1227:	00 
    1228:	c7 04 24 ff ff ff ff 	movl   $0xffffffff,(%esp)
    122f:	e8 dc c8 01 00       	call   1db10 <log_msg>
    1234:	89 34 24             	mov    %esi,(%esp)
    1237:	e8 04 0f 00 00       	call   2140 <usb_hid_deinit>
    123c:	83 c4 2c             	add    $0x2c,%esp
    123f:	89 f8                	mov    %edi,%eax
    1241:	5b                   	pop    %ebx
    1242:	5e                   	pop    %esi
    1243:	5f                   	pop    %edi
    1244:	5d                   	pop    %ebp
    1245:	c3                   	ret    
    1246:	66 90                	xchg   %ax,%ax
    1248:	c7 44 24 08 98 1c 03 	movl   $0x31c98,0x8(%esp)
    124f:	00 
    1250:	c7 44 24 04 01 00 00 	movl   $0x1,0x4(%esp)
    1257:	00 
    1258:	c7 04 24 ff ff ff ff 	movl   $0xffffffff,(%esp)
    125f:	bf f5 ff ff ff       	mov    $0xfffffff5,%edi
    1264:	e8 a7 c8 01 00       	call   1db10 <log_msg>
    1269:	e9 5b ff ff ff       	jmp    11c9 <usb_hid_device_add+0xf9>
    126e:	c7 44 24 08 c8 1c 03 	movl   $0x31cc8,0x8(%esp)
    1275:	00 
    1276:	c7 44 24 04 01 00 00 	movl   $0x1,0x4(%esp)
    127d:	00 
    127e:	c7 04 24 ff ff ff ff 	movl   $0xffffffff,(%esp)
    1285:	bf fe ff ff ff       	mov    $0xfffffffe,%edi
    128a:	e8 81 c8 01 00       	call   1db10 <log_msg>
    128f:	e9 35 ff ff ff       	jmp    11c9 <usb_hid_device_add+0xf9>
    1294:	c7 44 24 08 6c 1c 03 	movl   $0x31c6c,0x8(%esp)
    129b:	00 
    129c:	c7 44 24 04 01 00 00 	movl   $0x1,0x4(%esp)
    12a3:	00 
    12a4:	c7 04 24 ff ff ff ff 	movl   $0xffffffff,(%esp)
    12ab:	bf f2 ff ff ff       	mov    $0xfffffff2,%edi
    12b0:	e8 5b c8 01 00       	call   1db10 <log_msg>
    12b5:	e9 0f ff ff ff       	jmp    11c9 <usb_hid_device_add+0xf9>
    12ba:	8d b6 00 00 00 00    	lea    0x0(%esi),%esi

000012c0 <usb_hid_device_gone>:
    12c0:	55                   	push   %ebp
    12c1:	89 e5                	mov    %esp,%ebp
    12c3:	57                   	push   %edi
    12c4:	56                   	push   %esi
    12c5:	53                   	push   %ebx
    12c6:	83 ec 1c             	sub    $0x1c,%esp
    12c9:	8b 7d 08             	mov    0x8(%ebp),%edi
    12cc:	85 ff                	test   %edi,%edi
    12ce:	0f 84 b5 00 00 00    	je     1389 <usb_hid_device_gone+0xc9>
    12d4:	8b 77 74             	mov    0x74(%edi),%esi
    12d7:	85 f6                	test   %esi,%esi
    12d9:	0f 84 8e 00 00 00    	je     136d <usb_hid_device_gone+0xad>
    12df:	8a 46 4c             	mov    0x4c(%esi),%al
    12e2:	bb 64 00 00 00       	mov    $0x64,%ebx
    12e7:	84 c0                	test   %al,%al
    12e9:	75 08                	jne    12f3 <usb_hid_device_gone+0x33>
    12eb:	eb 19                	jmp    1306 <usb_hid_device_gone+0x46>
    12ed:	8d 76 00             	lea    0x0(%esi),%esi
    12f0:	4b                   	dec    %ebx
    12f1:	74 13                	je     1306 <usb_hid_device_gone+0x46>
    12f3:	c7 04 24 a0 86 01 00 	movl   $0x186a0,(%esp)
    12fa:	e8 71 3c 02 00       	call   24f70 <async_usleep>
    12ff:	8a 46 4c             	mov    0x4c(%esi),%al
    1302:	84 c0                	test   %al,%al
    1304:	75 ea                	jne    12f0 <usb_hid_device_gone+0x30>
    1306:	8a 46 4c             	mov    0x4c(%esi),%al
    1309:	84 c0                	test   %al,%al
    130b:	75 3d                	jne    134a <usb_hid_device_gone+0x8a>
    130d:	89 34 24             	mov    %esi,(%esp)
    1310:	e8 2b 0e 00 00       	call   2140 <usb_hid_deinit>
    1315:	8b 47 70             	mov    0x70(%edi),%eax
    1318:	89 04 24             	mov    %eax,(%esp)
    131b:	e8 70 cc 00 00       	call   df90 <ddf_dev_get_name>
    1320:	c7 44 24 08 4a 1c 03 	movl   $0x31c4a,0x8(%esp)
    1327:	00 
    1328:	89 44 24 0c          	mov    %eax,0xc(%esp)
    132c:	c7 44 24 04 05 00 00 	movl   $0x5,0x4(%esp)
    1333:	00 
    1334:	c7 04 24 ff ff ff ff 	movl   $0xffffffff,(%esp)
    133b:	e8 d0 c7 01 00       	call   1db10 <log_msg>
    1340:	31 c0                	xor    %eax,%eax
    1342:	83 c4 1c             	add    $0x1c,%esp
    1345:	5b                   	pop    %ebx
    1346:	5e                   	pop    %esi
    1347:	5f                   	pop    %edi
    1348:	5d                   	pop    %ebp
    1349:	c3                   	ret    
    134a:	c7 44 24 08 90 1d 03 	movl   $0x31d90,0x8(%esp)
    1351:	00 
    1352:	c7 44 24 04 01 00 00 	movl   $0x1,0x4(%esp)
    1359:	00 
    135a:	c7 04 24 ff ff ff ff 	movl   $0xffffffff,(%esp)
    1361:	e8 aa c7 01 00       	call   1db10 <log_msg>
    1366:	b8 f1 ff ff ff       	mov    $0xfffffff1,%eax
    136b:	eb d5                	jmp    1342 <usb_hid_device_gone+0x82>
    136d:	c7 44 24 08 8b 00 00 	movl   $0x8b,0x8(%esp)
    1374:	00 
    1375:	c7 44 24 04 32 1c 03 	movl   $0x31c32,0x4(%esp)
    137c:	00 
    137d:	c7 04 24 39 1c 03 00 	movl   $0x31c39,(%esp)
    1384:	e8 87 c0 02 00       	call   2d410 <assert_abort>
    1389:	c7 44 24 08 8a 00 00 	movl   $0x8a,0x8(%esp)
    1390:	00 
    1391:	c7 44 24 04 32 1c 03 	movl   $0x31c32,0x4(%esp)
    1398:	00 
    1399:	c7 04 24 39 5d 03 00 	movl   $0x35d39,(%esp)
    13a0:	e8 6b c0 02 00       	call   2d410 <assert_abort>
    13a5:	66 90                	xchg   %ax,%ax
    13a7:	66 90                	xchg   %ax,%ax
    13a9:	66 90                	xchg   %ax,%ax
    13ab:	66 90                	xchg   %ax,%ax
    13ad:	66 90                	xchg   %ax,%ax
    13af:	90                   	nop

000013b0 <main>:
    13b0:	55                   	push   %ebp
    13b1:	89 e5                	mov    %esp,%ebp
    13b3:	83 e4 f0             	and    $0xfffffff0,%esp
    13b6:	83 ec 10             	sub    $0x10,%esp
    13b9:	c7 04 24 b4 1d 03 00 	movl   $0x31db4,(%esp)
    13c0:	e8 9b c4 01 00       	call   1d860 <printf>
    13c5:	c7 04 24 64 1c 03 00 	movl   $0x31c64,(%esp)
    13cc:	e8 6f c5 01 00       	call   1d940 <log_init>
    13d1:	c7 04 24 d8 1d 03 00 	movl   $0x31dd8,(%esp)
    13d8:	e8 53 6e 00 00       	call   8230 <usb_driver_main>
    13dd:	c9                   	leave  
    13de:	c3                   	ret    
    13df:	90                   	nop

000013e0 <usb_hid_init>:
    13e0:	55                   	push   %ebp
    13e1:	89 e5                	mov    %esp,%ebp
    13e3:	57                   	push   %edi
    13e4:	56                   	push   %esi
    13e5:	53                   	push   %ebx
    13e6:	83 ec 4c             	sub    $0x4c,%esp
    13e9:	8b 55 08             	mov    0x8(%ebp),%edx
    13ec:	8b 5d 0c             	mov    0xc(%ebp),%ebx
    13ef:	85 d2                	test   %edx,%edx
    13f1:	0f 84 a4 0a 00 00    	je     1e9b <usb_hid_init+0xabb>
    13f7:	85 db                	test   %ebx,%ebx
    13f9:	0f 84 80 0a 00 00    	je     1e7f <usb_hid_init+0xa9f>
    13ff:	c7 44 24 08 ec 1f 03 	movl   $0x31fec,0x8(%esp)
    1406:	00 
    1407:	c7 44 24 04 04 00 00 	movl   $0x4,0x4(%esp)
    140e:	00 
    140f:	c7 04 24 ff ff ff ff 	movl   $0xffffffff,(%esp)
    1416:	e8 f5 c6 01 00       	call   1db10 <log_msg>
    141b:	8b 55 08             	mov    0x8(%ebp),%edx
    141e:	83 c2 18             	add    $0x18,%edx
    1421:	89 55 e0             	mov    %edx,-0x20(%ebp)
    1424:	89 14 24             	mov    %edx,(%esp)
    1427:	e8 74 38 00 00       	call   4ca0 <usb_hid_report_init>
    142c:	8b 75 08             	mov    0x8(%ebp),%esi
    142f:	8b 43 40             	mov    0x40(%ebx),%eax
    1432:	89 1e                	mov    %ebx,(%esi)
    1434:	c7 46 04 ff ff ff ff 	movl   $0xffffffff,0x4(%esi)
    143b:	85 c0                	test   %eax,%eax
    143d:	74 3d                	je     147c <usb_hid_init+0x9c>
    143f:	8b 53 3c             	mov    0x3c(%ebx),%edx
    1442:	80 7a 2c 00          	cmpb   $0x0,0x2c(%edx)
    1446:	0f 85 67 08 00 00    	jne    1cb3 <usb_hid_init+0x8d3>
    144c:	83 f8 01             	cmp    $0x1,%eax
    144f:	76 2b                	jbe    147c <usb_hid_init+0x9c>
    1451:	80 7a 5c 00          	cmpb   $0x0,0x5c(%edx)
    1455:	75 2e                	jne    1485 <usb_hid_init+0xa5>
    1457:	83 f8 02             	cmp    $0x2,%eax
    145a:	76 20                	jbe    147c <usb_hid_init+0x9c>
    145c:	c7 45 dc f5 ff ff ff 	movl   $0xfffffff5,-0x24(%ebp)
    1463:	bb 02 00 00 00       	mov    $0x2,%ebx
    1468:	80 ba 8c 00 00 00 00 	cmpb   $0x0,0x8c(%edx)
    146f:	75 19                	jne    148a <usb_hid_init+0xaa>
    1471:	8b 45 dc             	mov    -0x24(%ebp),%eax
    1474:	8d 65 f4             	lea    -0xc(%ebp),%esp
    1477:	5b                   	pop    %ebx
    1478:	5e                   	pop    %esi
    1479:	5f                   	pop    %edi
    147a:	5d                   	pop    %ebp
    147b:	c3                   	ret    
    147c:	c7 45 dc f2 ff ff ff 	movl   $0xfffffff2,-0x24(%ebp)
    1483:	eb ec                	jmp    1471 <usb_hid_init+0x91>
    1485:	bb 01 00 00 00       	mov    $0x1,%ebx
    148a:	8b 04 dd f0 23 03 00 	mov    0x323f0(,%ebx,8),%eax
    1491:	c7 44 24 08 15 1e 03 	movl   $0x31e15,0x8(%esp)
    1498:	00 
    1499:	89 44 24 0c          	mov    %eax,0xc(%esp)
    149d:	c7 44 24 04 04 00 00 	movl   $0x4,0x4(%esp)
    14a4:	00 
    14a5:	c7 04 24 ff ff ff ff 	movl   $0xffffffff,(%esp)
    14ac:	e8 5f c6 01 00       	call   1db10 <log_msg>
    14b1:	8b 55 08             	mov    0x8(%ebp),%edx
    14b4:	89 d0                	mov    %edx,%eax
    14b6:	89 5a 04             	mov    %ebx,0x4(%edx)
    14b9:	83 c0 14             	add    $0x14,%eax
    14bc:	89 44 24 0c          	mov    %eax,0xc(%esp)
    14c0:	83 e8 04             	sub    $0x4,%eax
    14c3:	89 44 24 08          	mov    %eax,0x8(%esp)
    14c7:	8b 75 e0             	mov    -0x20(%ebp),%esi
    14ca:	89 74 24 04          	mov    %esi,0x4(%esp)
    14ce:	8b 02                	mov    (%edx),%eax
    14d0:	89 04 24             	mov    %eax,(%esp)
    14d3:	e8 08 62 00 00       	call   76e0 <usb_hid_process_report_descriptor>
    14d8:	89 45 dc             	mov    %eax,-0x24(%ebp)
    14db:	85 c0                	test   %eax,%eax
    14dd:	0f 85 7f 01 00 00    	jne    1662 <usb_hid_init+0x282>
    14e3:	8b 15 20 24 03 00    	mov    0x32420,%edx
    14e9:	89 65 cc             	mov    %esp,-0x34(%ebp)
    14ec:	8d 04 95 12 00 00 00 	lea    0x12(,%edx,4),%eax
    14f3:	83 e0 f0             	and    $0xfffffff0,%eax
    14f6:	29 c4                	sub    %eax,%esp
    14f8:	85 d2                	test   %edx,%edx
    14fa:	8d 74 24 14          	lea    0x14(%esp),%esi
    14fe:	89 75 d0             	mov    %esi,-0x30(%ebp)
    1501:	0f 84 19 09 00 00    	je     1e20 <usb_hid_init+0xa40>
    1507:	c7 45 d4 00 00 00 00 	movl   $0x0,-0x2c(%ebp)
    150e:	c7 45 e4 00 00 00 00 	movl   $0x0,-0x1c(%ebp)
    1515:	8d 76 00             	lea    0x0(%esi),%esi
    1518:	8b 55 e4             	mov    -0x1c(%ebp),%edx
    151b:	8d 1c 92             	lea    (%edx,%edx,4),%ebx
    151e:	c1 e3 03             	shl    $0x3,%ebx
    1521:	8d b3 40 24 03 00    	lea    0x32440(%ebx),%esi
    1527:	8b 46 0c             	mov    0xc(%esi),%eax
    152a:	85 c0                	test   %eax,%eax
    152c:	0f 88 88 02 00 00    	js     17ba <usb_hid_init+0x3da>
    1532:	8b 56 10             	mov    0x10(%esi),%edx
    1535:	85 d2                	test   %edx,%edx
    1537:	0f 88 53 02 00 00    	js     1790 <usb_hid_init+0x3b0>
    153d:	89 54 24 10          	mov    %edx,0x10(%esp)
    1541:	89 44 24 0c          	mov    %eax,0xc(%esp)
    1545:	c7 44 24 08 74 20 03 	movl   $0x32074,0x8(%esp)
    154c:	00 
    154d:	c7 44 24 04 04 00 00 	movl   $0x4,0x4(%esp)
    1554:	00 
    1555:	c7 04 24 ff ff ff ff 	movl   $0xffffffff,(%esp)
    155c:	e8 af c5 01 00       	call   1db10 <log_msg>
    1561:	8b 55 08             	mov    0x8(%ebp),%edx
    1564:	8b 02                	mov    (%edx),%eax
    1566:	85 c0                	test   %eax,%eax
    1568:	0f 84 d9 08 00 00    	je     1e47 <usb_hid_init+0xa67>
    156e:	8b 50 5c             	mov    0x5c(%eax),%edx
    1571:	c6 45 db 00          	movb   $0x0,-0x25(%ebp)
    1575:	81 e2 ff ff 00 00    	and    $0xffff,%edx
    157b:	3b 56 0c             	cmp    0xc(%esi),%edx
    157e:	0f 84 94 03 00 00    	je     1918 <usb_hid_init+0x538>
    1584:	8b 83 40 24 03 00    	mov    0x32440(%ebx),%eax
    158a:	85 c0                	test   %eax,%eax
    158c:	0f 84 7e 00 00 00    	je     1610 <usb_hid_init+0x230>
    1592:	c7 44 24 08 b0 20 03 	movl   $0x320b0,0x8(%esp)
    1599:	00 
    159a:	c7 44 24 04 04 00 00 	movl   $0x4,0x4(%esp)
    15a1:	00 
    15a2:	c7 04 24 ff ff ff ff 	movl   $0xffffffff,(%esp)
    15a9:	31 db                	xor    %ebx,%ebx
    15ab:	e8 60 c5 01 00       	call   1db10 <log_msg>
    15b0:	e8 5b 5f 00 00       	call   7510 <usb_hid_report_path>
    15b5:	89 c7                	mov    %eax,%edi
    15b7:	85 c0                	test   %eax,%eax
    15b9:	0f 84 d3 06 00 00    	je     1c92 <usb_hid_init+0x8b2>
    15bf:	90                   	nop
    15c0:	8b 06                	mov    (%esi),%eax
    15c2:	01 d8                	add    %ebx,%eax
    15c4:	8b 50 04             	mov    0x4(%eax),%edx
    15c7:	8b 00                	mov    (%eax),%eax
    15c9:	85 d2                	test   %edx,%edx
    15cb:	75 08                	jne    15d5 <usb_hid_init+0x1f5>
    15cd:	85 c0                	test   %eax,%eax
    15cf:	0f 84 53 02 00 00    	je     1828 <usb_hid_init+0x448>
    15d5:	89 54 24 08          	mov    %edx,0x8(%esp)
    15d9:	89 44 24 04          	mov    %eax,0x4(%esp)
    15dd:	89 3c 24             	mov    %edi,(%esp)
    15e0:	83 c3 08             	add    $0x8,%ebx
    15e3:	e8 28 5a 00 00       	call   7010 <usb_hid_report_path_append_item>
    15e8:	85 c0                	test   %eax,%eax
    15ea:	74 d4                	je     15c0 <usb_hid_init+0x1e0>
    15ec:	c7 44 24 08 d8 20 03 	movl   $0x320d8,0x8(%esp)
    15f3:	00 
    15f4:	c7 44 24 04 04 00 00 	movl   $0x4,0x4(%esp)
    15fb:	00 
    15fc:	c7 04 24 ff ff ff ff 	movl   $0xffffffff,(%esp)
    1603:	e8 08 c5 01 00       	call   1db10 <log_msg>
    1608:	89 3c 24             	mov    %edi,(%esp)
    160b:	e8 40 5f 00 00       	call   7550 <usb_hid_report_path_free>
    1610:	80 7d db 00          	cmpb   $0x0,-0x25(%ebp)
    1614:	0f 85 d6 01 00 00    	jne    17f0 <usb_hid_init+0x410>
    161a:	8b 45 e4             	mov    -0x1c(%ebp),%eax
    161d:	8b 15 20 24 03 00    	mov    0x32420,%edx
    1623:	40                   	inc    %eax
    1624:	89 45 e4             	mov    %eax,-0x1c(%ebp)
    1627:	39 55 e4             	cmp    %edx,-0x1c(%ebp)
    162a:	0f 85 e8 fe ff ff    	jne    1518 <usb_hid_init+0x138>
    1630:	8b 45 d0             	mov    -0x30(%ebp),%eax
    1633:	85 c0                	test   %eax,%eax
    1635:	0f 84 f0 07 00 00    	je     1e2b <usb_hid_init+0xa4b>
    163b:	8b 45 d4             	mov    -0x2c(%ebp),%eax
    163e:	85 c0                	test   %eax,%eax
    1640:	0f 85 c1 05 00 00    	jne    1c07 <usb_hid_init+0x827>
    1646:	8b 75 08             	mov    0x8(%ebp),%esi
    1649:	c7 46 0c 00 00 00 00 	movl   $0x0,0xc(%esi)
    1650:	c7 46 08 00 00 00 00 	movl   $0x0,0x8(%esi)
    1657:	8b 55 08             	mov    0x8(%ebp),%edx
    165a:	8b 65 cc             	mov    -0x34(%ebp),%esp
    165d:	8b 42 0c             	mov    0xc(%edx),%eax
    1660:	eb 2f                	jmp    1691 <usb_hid_init+0x2b1>
    1662:	c7 44 24 08 fc 20 03 	movl   $0x320fc,0x8(%esp)
    1669:	00 
    166a:	c7 44 24 04 01 00 00 	movl   $0x1,0x4(%esp)
    1671:	00 
    1672:	c7 04 24 ff ff ff ff 	movl   $0xffffffff,(%esp)
    1679:	e8 92 c4 01 00       	call   1db10 <log_msg>
    167e:	8b 75 08             	mov    0x8(%ebp),%esi
    1681:	31 c0                	xor    %eax,%eax
    1683:	c7 46 08 00 00 00 00 	movl   $0x0,0x8(%esi)
    168a:	c7 46 0c 00 00 00 00 	movl   $0x0,0xc(%esi)
    1691:	89 44 24 0c          	mov    %eax,0xc(%esp)
    1695:	c7 44 24 08 2c 21 03 	movl   $0x3212c,0x8(%esp)
    169c:	00 
    169d:	c7 44 24 04 04 00 00 	movl   $0x4,0x4(%esp)
    16a4:	00 
    16a5:	c7 04 24 ff ff ff ff 	movl   $0xffffffff,(%esp)
    16ac:	e8 5f c4 01 00       	call   1db10 <log_msg>
    16b1:	8b 55 08             	mov    0x8(%ebp),%edx
    16b4:	8b 42 0c             	mov    0xc(%edx),%eax
    16b7:	85 c0                	test   %eax,%eax
    16b9:	75 6d                	jne    1728 <usb_hid_init+0x348>
    16bb:	8b 42 08             	mov    0x8(%edx),%eax
    16be:	85 c0                	test   %eax,%eax
    16c0:	0f 85 f1 07 00 00    	jne    1eb7 <usb_hid_init+0xad7>
    16c6:	c7 44 24 08 60 21 03 	movl   $0x32160,0x8(%esp)
    16cd:	00 
    16ce:	c7 44 24 04 03 00 00 	movl   $0x3,0x4(%esp)
    16d5:	00 
    16d6:	c7 04 24 ff ff ff ff 	movl   $0xffffffff,(%esp)
    16dd:	e8 2e c4 01 00       	call   1db10 <log_msg>
    16e2:	8b 75 08             	mov    0x8(%ebp),%esi
    16e5:	8b 46 04             	mov    0x4(%esi),%eax
    16e8:	85 c0                	test   %eax,%eax
    16ea:	0f 85 5f 04 00 00    	jne    1b4f <usb_hid_init+0x76f>
    16f0:	c7 44 24 08 a0 21 03 	movl   $0x321a0,0x8(%esp)
    16f7:	00 
    16f8:	c7 44 24 04 03 00 00 	movl   $0x3,0x4(%esp)
    16ff:	00 
    1700:	c7 04 24 ff ff ff ff 	movl   $0xffffffff,(%esp)
    1707:	e8 04 c4 01 00       	call   1db10 <log_msg>
    170c:	8b 55 08             	mov    0x8(%ebp),%edx
    170f:	89 14 24             	mov    %edx,(%esp)
    1712:	e8 c9 20 00 00       	call   37e0 <usb_kbd_set_boot_protocol>
    1717:	89 45 dc             	mov    %eax,-0x24(%ebp)
    171a:	85 c0                	test   %eax,%eax
    171c:	0f 84 fd 05 00 00    	je     1d1f <usb_hid_init+0x93f>
    1722:	8b 75 08             	mov    0x8(%ebp),%esi
    1725:	8b 46 0c             	mov    0xc(%esi),%eax
    1728:	89 44 24 0c          	mov    %eax,0xc(%esp)
    172c:	c7 44 24 08 4c 22 03 	movl   $0x3224c,0x8(%esp)
    1733:	00 
    1734:	c7 44 24 04 04 00 00 	movl   $0x4,0x4(%esp)
    173b:	00 
    173c:	c7 04 24 ff ff ff ff 	movl   $0xffffffff,(%esp)
    1743:	e8 c8 c3 01 00       	call   1db10 <log_msg>
    1748:	8b 75 08             	mov    0x8(%ebp),%esi
    174b:	8b 56 0c             	mov    0xc(%esi),%edx
    174e:	85 d2                	test   %edx,%edx
    1750:	0f 85 fa 01 00 00    	jne    1950 <usb_hid_init+0x570>
    1756:	8b 5e 08             	mov    0x8(%esi),%ebx
    1759:	85 db                	test   %ebx,%ebx
    175b:	0f 85 02 07 00 00    	jne    1e63 <usb_hid_init+0xa83>
    1761:	c7 44 24 08 80 22 03 	movl   $0x32280,0x8(%esp)
    1768:	00 
    1769:	c7 44 24 04 01 00 00 	movl   $0x1,0x4(%esp)
    1770:	00 
    1771:	c7 04 24 ff ff ff ff 	movl   $0xffffffff,(%esp)
    1778:	e8 93 c3 01 00       	call   1db10 <log_msg>
    177d:	c7 45 dc f5 ff ff ff 	movl   $0xfffffff5,-0x24(%ebp)
    1784:	8b 45 dc             	mov    -0x24(%ebp),%eax
    1787:	8d 65 f4             	lea    -0xc(%ebp),%esp
    178a:	5b                   	pop    %ebx
    178b:	5e                   	pop    %esi
    178c:	5f                   	pop    %edi
    178d:	5d                   	pop    %ebp
    178e:	c3                   	ret    
    178f:	90                   	nop
    1790:	89 44 24 10          	mov    %eax,0x10(%esp)
    1794:	8b 55 e4             	mov    -0x1c(%ebp),%edx
    1797:	c7 44 24 08 0c 20 03 	movl   $0x3200c,0x8(%esp)
    179e:	00 
    179f:	89 54 24 0c          	mov    %edx,0xc(%esp)
    17a3:	c7 44 24 04 02 00 00 	movl   $0x2,0x4(%esp)
    17aa:	00 
    17ab:	c7 04 24 ff ff ff ff 	movl   $0xffffffff,(%esp)
    17b2:	e8 59 c3 01 00       	call   1db10 <log_msg>
    17b7:	8b 46 0c             	mov    0xc(%esi),%eax
    17ba:	8b 56 10             	mov    0x10(%esi),%edx
    17bd:	85 d2                	test   %edx,%edx
    17bf:	0f 89 53 03 00 00    	jns    1b18 <usb_hid_init+0x738>
    17c5:	c6 45 db 00          	movb   $0x0,-0x25(%ebp)
    17c9:	85 c0                	test   %eax,%eax
    17cb:	0f 88 b3 fd ff ff    	js     1584 <usb_hid_init+0x1a4>
    17d1:	8b 56 10             	mov    0x10(%esi),%edx
    17d4:	85 d2                	test   %edx,%edx
    17d6:	0f 88 a8 fd ff ff    	js     1584 <usb_hid_init+0x1a4>
    17dc:	e9 5c fd ff ff       	jmp    153d <usb_hid_init+0x15d>
    17e1:	8d b4 26 00 00 00 00 	lea    0x0(%esi,%eiz,1),%esi
    17e8:	89 3c 24             	mov    %edi,(%esp)
    17eb:	e8 60 5d 00 00       	call   7550 <usb_hid_report_path_free>
    17f0:	c7 44 24 08 8b 1e 03 	movl   $0x31e8b,0x8(%esp)
    17f7:	00 
    17f8:	c7 44 24 04 04 00 00 	movl   $0x4,0x4(%esp)
    17ff:	00 
    1800:	c7 04 24 ff ff ff ff 	movl   $0xffffffff,(%esp)
    1807:	83 c6 14             	add    $0x14,%esi
    180a:	e8 01 c3 01 00       	call   1db10 <log_msg>
    180f:	8b 55 d4             	mov    -0x2c(%ebp),%edx
    1812:	8b 45 d0             	mov    -0x30(%ebp),%eax
    1815:	89 34 90             	mov    %esi,(%eax,%edx,4)
    1818:	42                   	inc    %edx
    1819:	89 55 d4             	mov    %edx,-0x2c(%ebp)
    181c:	e9 f9 fd ff ff       	jmp    161a <usb_hid_init+0x23a>
    1821:	8d b4 26 00 00 00 00 	lea    0x0(%esi,%eiz,1),%esi
    1828:	8b 46 08             	mov    0x8(%esi),%eax
    182b:	c7 44 24 08 58 1e 03 	movl   $0x31e58,0x8(%esp)
    1832:	00 
    1833:	89 44 24 0c          	mov    %eax,0xc(%esp)
    1837:	c7 44 24 04 04 00 00 	movl   $0x4,0x4(%esp)
    183e:	00 
    183f:	c7 04 24 ff ff ff ff 	movl   $0xffffffff,(%esp)
    1846:	e8 c5 c2 01 00       	call   1db10 <log_msg>
    184b:	8a 46 04             	mov    0x4(%esi),%al
    184e:	eb 6f                	jmp    18bf <usb_hid_init+0x4df>
    1850:	c7 44 24 10 01 00 00 	movl   $0x1,0x10(%esp)
    1857:	00 
    1858:	8b 46 08             	mov    0x8(%esi),%eax
    185b:	89 7c 24 08          	mov    %edi,0x8(%esp)
    185f:	89 44 24 0c          	mov    %eax,0xc(%esp)
    1863:	c7 44 24 04 00 00 00 	movl   $0x0,0x4(%esp)
    186a:	00 
    186b:	8b 55 e0             	mov    -0x20(%ebp),%edx
    186e:	89 14 24             	mov    %edx,(%esp)
    1871:	e8 ba 55 00 00       	call   6e30 <usb_hid_report_get_sibling>
    1876:	c7 44 24 08 80 1e 03 	movl   $0x31e80,0x8(%esp)
    187d:	00 
    187e:	89 44 24 0c          	mov    %eax,0xc(%esp)
    1882:	c7 44 24 04 04 00 00 	movl   $0x4,0x4(%esp)
    1889:	00 
    188a:	c7 04 24 ff ff ff ff 	movl   $0xffffffff,(%esp)
    1891:	89 45 c8             	mov    %eax,-0x38(%ebp)
    1894:	e8 77 c2 01 00       	call   1db10 <log_msg>
    1899:	8b 45 c8             	mov    -0x38(%ebp),%eax
    189c:	85 c0                	test   %eax,%eax
    189e:	0f 85 44 ff ff ff    	jne    17e8 <usb_hid_init+0x408>
    18a4:	c7 44 24 08 01 00 00 	movl   $0x1,0x8(%esp)
    18ab:	00 
    18ac:	89 5c 24 04          	mov    %ebx,0x4(%esp)
    18b0:	8b 55 e0             	mov    -0x20(%ebp),%edx
    18b3:	89 14 24             	mov    %edx,(%esp)
    18b6:	e8 45 56 00 00       	call   6f00 <usb_hid_get_next_report_id>
    18bb:	84 c0                	test   %al,%al
    18bd:	74 49                	je     1908 <usb_hid_init+0x528>
    18bf:	31 db                	xor    %ebx,%ebx
    18c1:	c7 44 24 08 6b 1e 03 	movl   $0x31e6b,0x8(%esp)
    18c8:	00 
    18c9:	88 c3                	mov    %al,%bl
    18cb:	c7 44 24 04 04 00 00 	movl   $0x4,0x4(%esp)
    18d2:	00 
    18d3:	89 5c 24 0c          	mov    %ebx,0xc(%esp)
    18d7:	c7 04 24 ff ff ff ff 	movl   $0xffffffff,(%esp)
    18de:	88 45 c8             	mov    %al,-0x38(%ebp)
    18e1:	e8 2a c2 01 00       	call   1db10 <log_msg>
    18e6:	8a 45 c8             	mov    -0x38(%ebp),%al
    18e9:	84 c0                	test   %al,%al
    18eb:	0f 84 5f ff ff ff    	je     1850 <usb_hid_init+0x470>
    18f1:	89 5c 24 04          	mov    %ebx,0x4(%esp)
    18f5:	89 3c 24             	mov    %edi,(%esp)
    18f8:	e8 c3 5d 00 00       	call   76c0 <usb_hid_report_path_set_report_id>
    18fd:	e9 4e ff ff ff       	jmp    1850 <usb_hid_init+0x470>
    1902:	8d b6 00 00 00 00    	lea    0x0(%esi),%esi
    1908:	89 3c 24             	mov    %edi,(%esp)
    190b:	e8 40 5c 00 00       	call   7550 <usb_hid_report_path_free>
    1910:	e9 fb fc ff ff       	jmp    1610 <usb_hid_init+0x230>
    1915:	8d 76 00             	lea    0x0(%esi),%esi
    1918:	66 8b 40 5e          	mov    0x5e(%eax),%ax
    191c:	25 ff ff 00 00       	and    $0xffff,%eax
    1921:	3b 46 10             	cmp    0x10(%esi),%eax
    1924:	0f 85 5a fc ff ff    	jne    1584 <usb_hid_init+0x1a4>
    192a:	c7 44 24 08 6d 1f 03 	movl   $0x31f6d,0x8(%esp)
    1931:	00 
    1932:	c7 44 24 04 04 00 00 	movl   $0x4,0x4(%esp)
    1939:	00 
    193a:	c7 04 24 ff ff ff ff 	movl   $0xffffffff,(%esp)
    1941:	e8 ca c1 01 00       	call   1db10 <log_msg>
    1946:	c6 45 db 01          	movb   $0x1,-0x25(%ebp)
    194a:	e9 35 fc ff ff       	jmp    1584 <usb_hid_init+0x1a4>
    194f:	90                   	nop
    1950:	89 f7                	mov    %esi,%edi
    1952:	31 f6                	xor    %esi,%esi
    1954:	89 f0                	mov    %esi,%eax
    1956:	31 db                	xor    %ebx,%ebx
    1958:	88 45 e4             	mov    %al,-0x1c(%ebp)
    195b:	eb 48                	jmp    19a5 <usb_hid_init+0x5c5>
    195d:	8d 76 00             	lea    0x0(%esi),%esi
    1960:	89 5c 24 0c          	mov    %ebx,0xc(%esp)
    1964:	c7 44 24 08 e4 1e 03 	movl   $0x31ee4,0x8(%esp)
    196b:	00 
    196c:	c7 44 24 04 04 00 00 	movl   $0x4,0x4(%esp)
    1973:	00 
    1974:	c7 04 24 ff ff ff ff 	movl   $0xffffffff,(%esp)
    197b:	e8 90 c1 01 00       	call   1db10 <log_msg>
    1980:	8b 47 08             	mov    0x8(%edi),%eax
    1983:	01 f0                	add    %esi,%eax
    1985:	89 3c 24             	mov    %edi,(%esp)
    1988:	8d 50 10             	lea    0x10(%eax),%edx
    198b:	89 54 24 04          	mov    %edx,0x4(%esp)
    198f:	ff 10                	call   *(%eax)
    1991:	85 c0                	test   %eax,%eax
    1993:	0f 85 3f 01 00 00    	jne    1ad8 <usb_hid_init+0x6f8>
    1999:	8b 57 0c             	mov    0xc(%edi),%edx
    199c:	c6 45 e4 01          	movb   $0x1,-0x1c(%ebp)
    19a0:	43                   	inc    %ebx
    19a1:	39 d3                	cmp    %edx,%ebx
    19a3:	73 1d                	jae    19c2 <usb_hid_init+0x5e2>
    19a5:	8d 04 9b             	lea    (%ebx,%ebx,4),%eax
    19a8:	8b 4f 08             	mov    0x8(%edi),%ecx
    19ab:	8d 34 85 00 00 00 00 	lea    0x0(,%eax,4),%esi
    19b2:	8b 0c 31             	mov    (%ecx,%esi,1),%ecx
    19b5:	85 c9                	test   %ecx,%ecx
    19b7:	75 a7                	jne    1960 <usb_hid_init+0x580>
    19b9:	43                   	inc    %ebx
    19ba:	c6 45 e4 01          	movb   $0x1,-0x1c(%ebp)
    19be:	39 d3                	cmp    %edx,%ebx
    19c0:	72 e3                	jb     19a5 <usb_hid_init+0x5c5>
    19c2:	0f b6 75 e4          	movzbl -0x1c(%ebp),%esi
    19c6:	89 f2                	mov    %esi,%edx
    19c8:	84 d2                	test   %dl,%dl
    19ca:	0f 84 a1 fa ff ff    	je     1471 <usb_hid_init+0x91>
    19d0:	31 f6                	xor    %esi,%esi
    19d2:	31 db                	xor    %ebx,%ebx
    19d4:	8b 7d e0             	mov    -0x20(%ebp),%edi
    19d7:	90                   	nop
    19d8:	81 e3 ff 00 00 00    	and    $0xff,%ebx
    19de:	c7 44 24 08 00 1f 03 	movl   $0x31f00,0x8(%esp)
    19e5:	00 
    19e6:	c7 44 24 04 04 00 00 	movl   $0x4,0x4(%esp)
    19ed:	00 
    19ee:	c7 04 24 ff ff ff ff 	movl   $0xffffffff,(%esp)
    19f5:	e8 16 c1 01 00       	call   1db10 <log_msg>
    19fa:	c7 44 24 08 01 00 00 	movl   $0x1,0x8(%esp)
    1a01:	00 
    1a02:	89 5c 24 04          	mov    %ebx,0x4(%esp)
    1a06:	89 3c 24             	mov    %edi,(%esp)
    1a09:	e8 12 4c 00 00       	call   6620 <usb_hid_report_byte_size>
    1a0e:	89 5c 24 0c          	mov    %ebx,0xc(%esp)
    1a12:	89 44 24 10          	mov    %eax,0x10(%esp)
    1a16:	c7 44 24 08 1d 1f 03 	movl   $0x31f1d,0x8(%esp)
    1a1d:	00 
    1a1e:	c7 44 24 04 04 00 00 	movl   $0x4,0x4(%esp)
    1a25:	00 
    1a26:	c7 04 24 ff ff ff ff 	movl   $0xffffffff,(%esp)
    1a2d:	89 45 c8             	mov    %eax,-0x38(%ebp)
    1a30:	e8 db c0 01 00       	call   1db10 <log_msg>
    1a35:	8b 45 c8             	mov    -0x38(%ebp),%eax
    1a38:	39 c6                	cmp    %eax,%esi
    1a3a:	73 02                	jae    1a3e <usb_hid_init+0x65e>
    1a3c:	89 c6                	mov    %eax,%esi
    1a3e:	c7 44 24 08 37 1f 03 	movl   $0x31f37,0x8(%esp)
    1a45:	00 
    1a46:	c7 44 24 04 04 00 00 	movl   $0x4,0x4(%esp)
    1a4d:	00 
    1a4e:	c7 04 24 ff ff ff ff 	movl   $0xffffffff,(%esp)
    1a55:	e8 b6 c0 01 00       	call   1db10 <log_msg>
    1a5a:	89 5c 24 04          	mov    %ebx,0x4(%esp)
    1a5e:	c7 44 24 08 01 00 00 	movl   $0x1,0x8(%esp)
    1a65:	00 
    1a66:	89 3c 24             	mov    %edi,(%esp)
    1a69:	e8 92 54 00 00       	call   6f00 <usb_hid_get_next_report_id>
    1a6e:	88 c3                	mov    %al,%bl
    1a70:	84 c0                	test   %al,%al
    1a72:	0f 85 60 ff ff ff    	jne    19d8 <usb_hid_init+0x5f8>
    1a78:	89 74 24 0c          	mov    %esi,0xc(%esp)
    1a7c:	c7 44 24 08 ec 22 03 	movl   $0x322ec,0x8(%esp)
    1a83:	00 
    1a84:	c7 44 24 04 04 00 00 	movl   $0x4,0x4(%esp)
    1a8b:	00 
    1a8c:	c7 04 24 ff ff ff ff 	movl   $0xffffffff,(%esp)
    1a93:	e8 78 c0 01 00       	call   1db10 <log_msg>
    1a98:	8b 55 08             	mov    0x8(%ebp),%edx
    1a9b:	8b 52 3c             	mov    0x3c(%edx),%edx
    1a9e:	85 d2                	test   %edx,%edx
    1aa0:	0f 85 5e 03 00 00    	jne    1e04 <usb_hid_init+0xa24>
    1aa6:	89 74 24 04          	mov    %esi,0x4(%esp)
    1aaa:	c7 04 24 01 00 00 00 	movl   $0x1,(%esp)
    1ab1:	e8 9a 10 02 00       	call   22b50 <calloc>
    1ab6:	8b 55 08             	mov    0x8(%ebp),%edx
    1ab9:	85 c0                	test   %eax,%eax
    1abb:	89 42 3c             	mov    %eax,0x3c(%edx)
    1abe:	0f 84 18 03 00 00    	je     1ddc <usb_hid_init+0x9fc>
    1ac4:	89 72 44             	mov    %esi,0x44(%edx)
    1ac7:	c7 45 dc 00 00 00 00 	movl   $0x0,-0x24(%ebp)
    1ace:	e9 9e f9 ff ff       	jmp    1471 <usb_hid_init+0x91>
    1ad3:	90                   	nop
    1ad4:	8d 74 26 00          	lea    0x0(%esi,%eiz,1),%esi
    1ad8:	89 04 24             	mov    %eax,(%esp)
    1adb:	89 45 c8             	mov    %eax,-0x38(%ebp)
    1ade:	e8 5d 73 01 00       	call   18e40 <str_error>
    1ae3:	c7 44 24 08 b8 22 03 	movl   $0x322b8,0x8(%esp)
    1aea:	00 
    1aeb:	89 44 24 0c          	mov    %eax,0xc(%esp)
    1aef:	c7 44 24 04 02 00 00 	movl   $0x2,0x4(%esp)
    1af6:	00 
    1af7:	c7 04 24 ff ff ff ff 	movl   $0xffffffff,(%esp)
    1afe:	e8 0d c0 01 00       	call   1db10 <log_msg>
    1b03:	8b 4d c8             	mov    -0x38(%ebp),%ecx
    1b06:	8b 57 0c             	mov    0xc(%edi),%edx
    1b09:	89 4d dc             	mov    %ecx,-0x24(%ebp)
    1b0c:	e9 8f fe ff ff       	jmp    19a0 <usb_hid_init+0x5c0>
    1b11:	8d b4 26 00 00 00 00 	lea    0x0(%esi,%eiz,1),%esi
    1b18:	85 c0                	test   %eax,%eax
    1b1a:	0f 89 1d fa ff ff    	jns    153d <usb_hid_init+0x15d>
    1b20:	89 54 24 10          	mov    %edx,0x10(%esp)
    1b24:	8b 55 e4             	mov    -0x1c(%ebp),%edx
    1b27:	c7 44 24 08 40 20 03 	movl   $0x32040,0x8(%esp)
    1b2e:	00 
    1b2f:	89 54 24 0c          	mov    %edx,0xc(%esp)
    1b33:	c7 44 24 04 02 00 00 	movl   $0x2,0x4(%esp)
    1b3a:	00 
    1b3b:	c7 04 24 ff ff ff ff 	movl   $0xffffffff,(%esp)
    1b42:	e8 c9 bf 01 00       	call   1db10 <log_msg>
    1b47:	8b 46 0c             	mov    0xc(%esi),%eax
    1b4a:	e9 76 fc ff ff       	jmp    17c5 <usb_hid_init+0x3e5>
    1b4f:	83 f8 01             	cmp    $0x1,%eax
    1b52:	74 79                	je     1bcd <usb_hid_init+0x7ed>
    1b54:	83 f8 02             	cmp    $0x2,%eax
    1b57:	0f 85 63 02 00 00    	jne    1dc0 <usb_hid_init+0x9e0>
    1b5d:	c7 44 24 08 24 22 03 	movl   $0x32224,0x8(%esp)
    1b64:	00 
    1b65:	c7 44 24 04 03 00 00 	movl   $0x3,0x4(%esp)
    1b6c:	00 
    1b6d:	c7 04 24 ff ff ff ff 	movl   $0xffffffff,(%esp)
    1b74:	e8 97 bf 01 00       	call   1db10 <log_msg>
    1b79:	8b 75 08             	mov    0x8(%ebp),%esi
    1b7c:	8b 76 0c             	mov    0xc(%esi),%esi
    1b7f:	85 f6                	test   %esi,%esi
    1b81:	0f 85 1d 02 00 00    	jne    1da4 <usb_hid_init+0x9c4>
    1b87:	c7 04 24 14 00 00 00 	movl   $0x14,(%esp)
    1b8e:	e8 1d 10 02 00       	call   22bb0 <malloc>
    1b93:	8b 55 08             	mov    0x8(%ebp),%edx
    1b96:	85 c0                	test   %eax,%eax
    1b98:	89 42 08             	mov    %eax,0x8(%edx)
    1b9b:	0f 84 df 01 00 00    	je     1d80 <usb_hid_init+0x9a0>
    1ba1:	c7 42 0c 01 00 00 00 	movl   $0x1,0xc(%edx)
    1ba8:	c7 00 20 25 00 00    	movl   $0x2520,(%eax)
    1bae:	c7 40 08 60 26 00 00 	movl   $0x2660,0x8(%eax)
    1bb5:	c7 40 0c 00 00 00 00 	movl   $0x0,0xc(%eax)
    1bbc:	c7 40 04 a0 24 00 00 	movl   $0x24a0,0x4(%eax)
    1bc3:	b8 01 00 00 00       	mov    $0x1,%eax
    1bc8:	e9 5b fb ff ff       	jmp    1728 <usb_hid_init+0x348>
    1bcd:	c7 44 24 08 c4 21 03 	movl   $0x321c4,0x8(%esp)
    1bd4:	00 
    1bd5:	c7 44 24 04 03 00 00 	movl   $0x3,0x4(%esp)
    1bdc:	00 
    1bdd:	c7 04 24 ff ff ff ff 	movl   $0xffffffff,(%esp)
    1be4:	e8 27 bf 01 00       	call   1db10 <log_msg>
    1be9:	8b 75 08             	mov    0x8(%ebp),%esi
    1bec:	89 34 24             	mov    %esi,(%esp)
    1bef:	e8 3c 29 00 00       	call   4530 <usb_mouse_set_boot_protocol>
    1bf4:	89 45 dc             	mov    %eax,-0x24(%ebp)
    1bf7:	85 c0                	test   %eax,%eax
    1bf9:	0f 84 bb 00 00 00    	je     1cba <usb_hid_init+0x8da>
    1bff:	8b 46 0c             	mov    0xc(%esi),%eax
    1c02:	e9 21 fb ff ff       	jmp    1728 <usb_hid_init+0x348>
    1c07:	8b 7d d4             	mov    -0x2c(%ebp),%edi
    1c0a:	c7 44 24 04 14 00 00 	movl   $0x14,0x4(%esp)
    1c11:	00 
    1c12:	47                   	inc    %edi
    1c13:	89 3c 24             	mov    %edi,(%esp)
    1c16:	e8 35 0f 02 00       	call   22b50 <calloc>
    1c1b:	8b 55 08             	mov    0x8(%ebp),%edx
    1c1e:	89 c6                	mov    %eax,%esi
    1c20:	85 c0                	test   %eax,%eax
    1c22:	89 42 08             	mov    %eax,0x8(%edx)
    1c25:	0f 84 2c fa ff ff    	je     1657 <usb_hid_init+0x277>
    1c2b:	8b 4d d0             	mov    -0x30(%ebp),%ecx
    1c2e:	8b 55 d4             	mov    -0x2c(%ebp),%edx
    1c31:	89 75 e4             	mov    %esi,-0x1c(%ebp)
    1c34:	8d 1c 91             	lea    (%ecx,%edx,4),%ebx
    1c37:	90                   	nop
    1c38:	8b 11                	mov    (%ecx),%edx
    1c3a:	83 c1 04             	add    $0x4,%ecx
    1c3d:	8b 32                	mov    (%edx),%esi
    1c3f:	89 30                	mov    %esi,(%eax)
    1c41:	8b 72 04             	mov    0x4(%edx),%esi
    1c44:	89 70 04             	mov    %esi,0x4(%eax)
    1c47:	8b 72 08             	mov    0x8(%edx),%esi
    1c4a:	89 70 08             	mov    %esi,0x8(%eax)
    1c4d:	8b 72 0c             	mov    0xc(%edx),%esi
    1c50:	8b 52 10             	mov    0x10(%edx),%edx
    1c53:	89 70 0c             	mov    %esi,0xc(%eax)
    1c56:	89 50 10             	mov    %edx,0x10(%eax)
    1c59:	83 c0 14             	add    $0x14,%eax
    1c5c:	39 d9                	cmp    %ebx,%ecx
    1c5e:	75 d8                	jne    1c38 <usb_hid_init+0x858>
    1c60:	8b 55 d4             	mov    -0x2c(%ebp),%edx
    1c63:	8b 75 e4             	mov    -0x1c(%ebp),%esi
    1c66:	8d 04 92             	lea    (%edx,%edx,4),%eax
    1c69:	8d 04 86             	lea    (%esi,%eax,4),%eax
    1c6c:	8b 75 08             	mov    0x8(%ebp),%esi
    1c6f:	c7 00 20 25 00 00    	movl   $0x2520,(%eax)
    1c75:	c7 40 08 60 26 00 00 	movl   $0x2660,0x8(%eax)
    1c7c:	c7 40 04 a0 24 00 00 	movl   $0x24a0,0x4(%eax)
    1c83:	c7 40 0c 00 00 00 00 	movl   $0x0,0xc(%eax)
    1c8a:	89 7e 0c             	mov    %edi,0xc(%esi)
    1c8d:	e9 c5 f9 ff ff       	jmp    1657 <usb_hid_init+0x277>
    1c92:	c7 44 24 08 3a 1e 03 	movl   $0x31e3a,0x8(%esp)
    1c99:	00 
    1c9a:	c7 44 24 04 04 00 00 	movl   $0x4,0x4(%esp)
    1ca1:	00 
    1ca2:	c7 04 24 ff ff ff ff 	movl   $0xffffffff,(%esp)
    1ca9:	e8 62 be 01 00       	call   1db10 <log_msg>
    1cae:	e9 5d f9 ff ff       	jmp    1610 <usb_hid_init+0x230>
    1cb3:	31 db                	xor    %ebx,%ebx
    1cb5:	e9 d0 f7 ff ff       	jmp    148a <usb_hid_init+0xaa>
    1cba:	8b 55 08             	mov    0x8(%ebp),%edx
    1cbd:	8b 7a 0c             	mov    0xc(%edx),%edi
    1cc0:	85 ff                	test   %edi,%edi
    1cc2:	0f 85 0b 02 00 00    	jne    1ed3 <usb_hid_init+0xaf3>
    1cc8:	c7 04 24 14 00 00 00 	movl   $0x14,(%esp)
    1ccf:	e8 dc 0e 02 00       	call   22bb0 <malloc>
    1cd4:	8b 75 08             	mov    0x8(%ebp),%esi
    1cd7:	85 c0                	test   %eax,%eax
    1cd9:	89 46 08             	mov    %eax,0x8(%esi)
    1cdc:	0f 84 1d ff ff ff    	je     1bff <usb_hid_init+0x81f>
    1ce2:	8b 15 a4 24 03 00    	mov    0x324a4,%edx
    1ce8:	c7 46 0c 01 00 00 00 	movl   $0x1,0xc(%esi)
    1cef:	89 10                	mov    %edx,(%eax)
    1cf1:	8b 15 a8 24 03 00    	mov    0x324a8,%edx
    1cf7:	89 50 04             	mov    %edx,0x4(%eax)
    1cfa:	8b 15 ac 24 03 00    	mov    0x324ac,%edx
    1d00:	89 50 08             	mov    %edx,0x8(%eax)
    1d03:	8b 15 b0 24 03 00    	mov    0x324b0,%edx
    1d09:	89 50 0c             	mov    %edx,0xc(%eax)
    1d0c:	8b 15 b4 24 03 00    	mov    0x324b4,%edx
    1d12:	89 50 10             	mov    %edx,0x10(%eax)
    1d15:	b8 01 00 00 00       	mov    $0x1,%eax
    1d1a:	e9 09 fa ff ff       	jmp    1728 <usb_hid_init+0x348>
    1d1f:	8b 55 08             	mov    0x8(%ebp),%edx
    1d22:	8b 42 0c             	mov    0xc(%edx),%eax
    1d25:	85 c0                	test   %eax,%eax
    1d27:	75 5f                	jne    1d88 <usb_hid_init+0x9a8>
    1d29:	c7 04 24 14 00 00 00 	movl   $0x14,(%esp)
    1d30:	e8 7b 0e 02 00       	call   22bb0 <malloc>
    1d35:	8b 75 08             	mov    0x8(%ebp),%esi
    1d38:	85 c0                	test   %eax,%eax
    1d3a:	89 46 08             	mov    %eax,0x8(%esi)
    1d3d:	0f 84 bc fe ff ff    	je     1bff <usb_hid_init+0x81f>
    1d43:	8b 15 54 24 03 00    	mov    0x32454,%edx
    1d49:	c7 46 0c 01 00 00 00 	movl   $0x1,0xc(%esi)
    1d50:	89 10                	mov    %edx,(%eax)
    1d52:	8b 15 58 24 03 00    	mov    0x32458,%edx
    1d58:	89 50 04             	mov    %edx,0x4(%eax)
    1d5b:	8b 15 5c 24 03 00    	mov    0x3245c,%edx
    1d61:	89 50 08             	mov    %edx,0x8(%eax)
    1d64:	8b 15 60 24 03 00    	mov    0x32460,%edx
    1d6a:	89 50 0c             	mov    %edx,0xc(%eax)
    1d6d:	8b 15 64 24 03 00    	mov    0x32464,%edx
    1d73:	89 50 10             	mov    %edx,0x10(%eax)
    1d76:	b8 01 00 00 00       	mov    $0x1,%eax
    1d7b:	e9 a8 f9 ff ff       	jmp    1728 <usb_hid_init+0x348>
    1d80:	8b 42 0c             	mov    0xc(%edx),%eax
    1d83:	e9 a0 f9 ff ff       	jmp    1728 <usb_hid_init+0x348>
    1d88:	c7 44 24 08 40 00 00 	movl   $0x40,0x8(%esp)
    1d8f:	00 
    1d90:	c7 44 24 04 04 1e 03 	movl   $0x31e04,0x4(%esp)
    1d97:	00 
    1d98:	c7 04 24 c6 1e 03 00 	movl   $0x31ec6,(%esp)
    1d9f:	e8 6c b6 02 00       	call   2d410 <assert_abort>
    1da4:	c7 44 24 08 60 00 00 	movl   $0x60,0x8(%esp)
    1dab:	00 
    1dac:	c7 44 24 04 04 1e 03 	movl   $0x31e04,0x4(%esp)
    1db3:	00 
    1db4:	c7 04 24 c6 1e 03 00 	movl   $0x31ec6,(%esp)
    1dbb:	e8 50 b6 02 00       	call   2d410 <assert_abort>
    1dc0:	c7 44 24 08 90 01 00 	movl   $0x190,0x8(%esp)
    1dc7:	00 
    1dc8:	c7 44 24 04 04 1e 03 	movl   $0x31e04,0x4(%esp)
    1dcf:	00 
    1dd0:	c7 04 24 ec 21 03 00 	movl   $0x321ec,(%esp)
    1dd7:	e8 34 b6 02 00       	call   2d410 <assert_abort>
    1ddc:	c7 44 24 08 0c 23 03 	movl   $0x3230c,0x8(%esp)
    1de3:	00 
    1de4:	c7 44 24 04 01 00 00 	movl   $0x1,0x4(%esp)
    1deb:	00 
    1dec:	c7 04 24 ff ff ff ff 	movl   $0xffffffff,(%esp)
    1df3:	e8 18 bd 01 00       	call   1db10 <log_msg>
    1df8:	c7 45 dc fe ff ff ff 	movl   $0xfffffffe,-0x24(%ebp)
    1dff:	e9 6d f6 ff ff       	jmp    1471 <usb_hid_init+0x91>
    1e04:	c7 44 24 08 3a 01 00 	movl   $0x13a,0x8(%esp)
    1e0b:	00 
    1e0c:	c7 44 24 04 04 1e 03 	movl   $0x31e04,0x4(%esp)
    1e13:	00 
    1e14:	c7 04 24 4f 1f 03 00 	movl   $0x31f4f,(%esp)
    1e1b:	e8 f0 b5 02 00       	call   2d410 <assert_abort>
    1e20:	8b 45 d0             	mov    -0x30(%ebp),%eax
    1e23:	85 c0                	test   %eax,%eax
    1e25:	0f 85 1b f8 ff ff    	jne    1646 <usb_hid_init+0x266>
    1e2b:	c7 44 24 08 b9 00 00 	movl   $0xb9,0x8(%esp)
    1e32:	00 
    1e33:	c7 44 24 04 04 1e 03 	movl   $0x31e04,0x4(%esp)
    1e3a:	00 
    1e3b:	c7 04 24 9f 1e 03 00 	movl   $0x31e9f,(%esp)
    1e42:	e8 c9 b5 02 00       	call   2d410 <assert_abort>
    1e47:	c7 44 24 08 75 00 00 	movl   $0x75,0x8(%esp)
    1e4e:	00 
    1e4f:	c7 44 24 04 04 1e 03 	movl   $0x31e04,0x4(%esp)
    1e56:	00 
    1e57:	c7 04 24 21 1e 03 00 	movl   $0x31e21,(%esp)
    1e5e:	e8 ad b5 02 00       	call   2d410 <assert_abort>
    1e63:	c7 44 24 08 9b 01 00 	movl   $0x19b,0x8(%esp)
    1e6a:	00 
    1e6b:	c7 44 24 04 04 1e 03 	movl   $0x31e04,0x4(%esp)
    1e72:	00 
    1e73:	c7 04 24 aa 1e 03 00 	movl   $0x31eaa,(%esp)
    1e7a:	e8 91 b5 02 00       	call   2d410 <assert_abort>
    1e7f:	c7 44 24 08 59 01 00 	movl   $0x159,0x8(%esp)
    1e86:	00 
    1e87:	c7 44 24 04 04 1e 03 	movl   $0x31e04,0x4(%esp)
    1e8e:	00 
    1e8f:	c7 04 24 39 5d 03 00 	movl   $0x35d39,(%esp)
    1e96:	e8 75 b5 02 00       	call   2d410 <assert_abort>
    1e9b:	c7 44 24 08 58 01 00 	movl   $0x158,0x8(%esp)
    1ea2:	00 
    1ea3:	c7 44 24 04 04 1e 03 	movl   $0x31e04,0x4(%esp)
    1eaa:	00 
    1eab:	c7 04 24 0d 1e 03 00 	movl   $0x31e0d,(%esp)
    1eb2:	e8 59 b5 02 00       	call   2d410 <assert_abort>
    1eb7:	c7 44 24 08 7b 01 00 	movl   $0x17b,0x8(%esp)
    1ebe:	00 
    1ebf:	c7 44 24 04 04 1e 03 	movl   $0x31e04,0x4(%esp)
    1ec6:	00 
    1ec7:	c7 04 24 aa 1e 03 00 	movl   $0x31eaa,(%esp)
    1ece:	e8 3d b5 02 00       	call   2d410 <assert_abort>
    1ed3:	c7 44 24 08 50 00 00 	movl   $0x50,0x8(%esp)
    1eda:	00 
    1edb:	c7 44 24 04 04 1e 03 	movl   $0x31e04,0x4(%esp)
    1ee2:	00 
    1ee3:	c7 04 24 c6 1e 03 00 	movl   $0x31ec6,(%esp)
    1eea:	e8 21 b5 02 00       	call   2d410 <assert_abort>
    1eef:	90                   	nop

00001ef0 <usb_hid_polling_callback>:
    1ef0:	55                   	push   %ebp
    1ef1:	89 e5                	mov    %esp,%ebp
    1ef3:	57                   	push   %edi
    1ef4:	56                   	push   %esi
    1ef5:	53                   	push   %ebx
    1ef6:	83 ec 2c             	sub    $0x2c,%esp
    1ef9:	8b 75 14             	mov    0x14(%ebp),%esi
    1efc:	8b 7d 0c             	mov    0xc(%ebp),%edi
    1eff:	8b 5d 10             	mov    0x10(%ebp),%ebx
    1f02:	85 f6                	test   %esi,%esi
    1f04:	0f 84 ce 00 00 00    	je     1fd8 <usb_hid_polling_callback+0xe8>
    1f0a:	8b 45 08             	mov    0x8(%ebp),%eax
    1f0d:	85 c0                	test   %eax,%eax
    1f0f:	0f 84 c3 00 00 00    	je     1fd8 <usb_hid_polling_callback+0xe8>
    1f15:	85 ff                	test   %edi,%edi
    1f17:	0f 84 bb 00 00 00    	je     1fd8 <usb_hid_polling_callback+0xe8>
    1f1d:	8b 46 3c             	mov    0x3c(%esi),%eax
    1f20:	85 c0                	test   %eax,%eax
    1f22:	0f 84 31 01 00 00    	je     2059 <usb_hid_polling_callback+0x169>
    1f28:	c7 44 24 08 00 00 00 	movl   $0x0,0x8(%esp)
    1f2f:	00 
    1f30:	89 5c 24 04          	mov    %ebx,0x4(%esp)
    1f34:	89 3c 24             	mov    %edi,(%esp)
    1f37:	e8 c4 a5 00 00       	call   c500 <usb_debug_str_buffer>
    1f3c:	89 44 24 14          	mov    %eax,0x14(%esp)
    1f40:	8b 46 44             	mov    0x44(%esi),%eax
    1f43:	89 5c 24 0c          	mov    %ebx,0xc(%esp)
    1f47:	89 44 24 10          	mov    %eax,0x10(%esp)
    1f4b:	c7 44 24 08 99 1f 03 	movl   $0x31f99,0x8(%esp)
    1f52:	00 
    1f53:	c7 44 24 04 04 00 00 	movl   $0x4,0x4(%esp)
    1f5a:	00 
    1f5b:	c7 04 24 ff ff ff ff 	movl   $0xffffffff,(%esp)
    1f62:	e8 a9 bb 01 00       	call   1db10 <log_msg>
    1f67:	3b 5e 44             	cmp    0x44(%esi),%ebx
    1f6a:	0f 86 c0 00 00 00    	jbe    2030 <usb_hid_polling_callback+0x140>
    1f70:	8d 46 38             	lea    0x38(%esi),%eax
    1f73:	89 5c 24 08          	mov    %ebx,0x8(%esp)
    1f77:	89 44 24 0c          	mov    %eax,0xc(%esp)
    1f7b:	8d 46 18             	lea    0x18(%esi),%eax
    1f7e:	89 7c 24 04          	mov    %edi,0x4(%esp)
    1f82:	89 04 24             	mov    %eax,(%esp)
    1f85:	e8 46 49 00 00       	call   68d0 <usb_hid_parse_report>
    1f8a:	85 c0                	test   %eax,%eax
    1f8c:	75 72                	jne    2000 <usb_hid_polling_callback+0x110>
    1f8e:	8b 7e 0c             	mov    0xc(%esi),%edi
    1f91:	85 ff                	test   %edi,%edi
    1f93:	0f 84 b9 00 00 00    	je     2052 <usb_hid_polling_callback+0x162>
    1f99:	31 db                	xor    %ebx,%ebx
    1f9b:	31 c0                	xor    %eax,%eax
    1f9d:	eb 06                	jmp    1fa5 <usb_hid_polling_callback+0xb5>
    1f9f:	90                   	nop
    1fa0:	43                   	inc    %ebx
    1fa1:	39 fb                	cmp    %edi,%ebx
    1fa3:	73 28                	jae    1fcd <usb_hid_polling_callback+0xdd>
    1fa5:	8b 56 08             	mov    0x8(%esi),%edx
    1fa8:	8d 0c 9b             	lea    (%ebx,%ebx,4),%ecx
    1fab:	8d 0c 8a             	lea    (%edx,%ecx,4),%ecx
    1fae:	8b 51 08             	mov    0x8(%ecx),%edx
    1fb1:	85 d2                	test   %edx,%edx
    1fb3:	74 eb                	je     1fa0 <usb_hid_polling_callback+0xb0>
    1fb5:	84 c0                	test   %al,%al
    1fb7:	75 e7                	jne    1fa0 <usb_hid_polling_callback+0xb0>
    1fb9:	8b 41 10             	mov    0x10(%ecx),%eax
    1fbc:	89 34 24             	mov    %esi,(%esp)
    1fbf:	89 44 24 04          	mov    %eax,0x4(%esp)
    1fc3:	43                   	inc    %ebx
    1fc4:	ff d2                	call   *%edx
    1fc6:	8b 7e 0c             	mov    0xc(%esi),%edi
    1fc9:	39 fb                	cmp    %edi,%ebx
    1fcb:	72 d8                	jb     1fa5 <usb_hid_polling_callback+0xb5>
    1fcd:	83 c4 2c             	add    $0x2c,%esp
    1fd0:	5b                   	pop    %ebx
    1fd1:	5e                   	pop    %esi
    1fd2:	5f                   	pop    %edi
    1fd3:	5d                   	pop    %ebp
    1fd4:	c3                   	ret    
    1fd5:	8d 76 00             	lea    0x0(%esi),%esi
    1fd8:	c7 44 24 08 38 23 03 	movl   $0x32338,0x8(%esp)
    1fdf:	00 
    1fe0:	c7 44 24 04 01 00 00 	movl   $0x1,0x4(%esp)
    1fe7:	00 
    1fe8:	c7 04 24 ff ff ff ff 	movl   $0xffffffff,(%esp)
    1fef:	e8 1c bb 01 00       	call   1db10 <log_msg>
    1ff4:	83 c4 2c             	add    $0x2c,%esp
    1ff7:	31 c0                	xor    %eax,%eax
    1ff9:	5b                   	pop    %ebx
    1ffa:	5e                   	pop    %esi
    1ffb:	5f                   	pop    %edi
    1ffc:	5d                   	pop    %ebp
    1ffd:	c3                   	ret    
    1ffe:	66 90                	xchg   %ax,%ax
    2000:	89 04 24             	mov    %eax,(%esp)
    2003:	e8 38 6e 01 00       	call   18e40 <str_error>
    2008:	c7 44 24 08 60 23 03 	movl   $0x32360,0x8(%esp)
    200f:	00 
    2010:	89 44 24 0c          	mov    %eax,0xc(%esp)
    2014:	c7 44 24 04 02 00 00 	movl   $0x2,0x4(%esp)
    201b:	00 
    201c:	c7 04 24 ff ff ff ff 	movl   $0xffffffff,(%esp)
    2023:	e8 e8 ba 01 00       	call   1db10 <log_msg>
    2028:	e9 61 ff ff ff       	jmp    1f8e <usb_hid_polling_callback+0x9e>
    202d:	8d 76 00             	lea    0x0(%esi),%esi
    2030:	89 5c 24 08          	mov    %ebx,0x8(%esp)
    2034:	89 7c 24 04          	mov    %edi,0x4(%esp)
    2038:	8b 46 3c             	mov    0x3c(%esi),%eax
    203b:	89 04 24             	mov    %eax,(%esp)
    203e:	e8 0d 37 01 00       	call   15750 <memcpy>
    2043:	8b 4e 48             	mov    0x48(%esi),%ecx
    2046:	41                   	inc    %ecx
    2047:	89 5e 40             	mov    %ebx,0x40(%esi)
    204a:	89 4e 48             	mov    %ecx,0x48(%esi)
    204d:	e9 1e ff ff ff       	jmp    1f70 <usb_hid_polling_callback+0x80>
    2052:	31 c0                	xor    %eax,%eax
    2054:	e9 74 ff ff ff       	jmp    1fcd <usb_hid_polling_callback+0xdd>
    2059:	c7 44 24 08 d6 01 00 	movl   $0x1d6,0x8(%esp)
    2060:	00 
    2061:	c7 44 24 04 04 1e 03 	movl   $0x31e04,0x4(%esp)
    2068:	00 
    2069:	c7 04 24 7b 1f 03 00 	movl   $0x31f7b,(%esp)
    2070:	e8 9b b3 02 00       	call   2d410 <assert_abort>
    2075:	8d 74 26 00          	lea    0x0(%esi,%eiz,1),%esi
    2079:	8d bc 27 00 00 00 00 	lea    0x0(%edi,%eiz,1),%edi

00002080 <usb_hid_polling_ended_callback>:
    2080:	55                   	push   %ebp
    2081:	89 e5                	mov    %esp,%ebp
    2083:	57                   	push   %edi
    2084:	56                   	push   %esi
    2085:	53                   	push   %ebx
    2086:	83 ec 1c             	sub    $0x1c,%esp
    2089:	8b 55 08             	mov    0x8(%ebp),%edx
    208c:	8b 75 10             	mov    0x10(%ebp),%esi
    208f:	8a 45 0c             	mov    0xc(%ebp),%al
    2092:	85 d2                	test   %edx,%edx
    2094:	74 4e                	je     20e4 <usb_hid_polling_ended_callback+0x64>
    2096:	85 f6                	test   %esi,%esi
    2098:	74 66                	je     2100 <usb_hid_polling_ended_callback+0x80>
    209a:	25 ff 00 00 00       	and    $0xff,%eax
    209f:	8b 4e 0c             	mov    0xc(%esi),%ecx
    20a2:	31 db                	xor    %ebx,%ebx
    20a4:	89 c7                	mov    %eax,%edi
    20a6:	85 c9                	test   %ecx,%ecx
    20a8:	74 2e                	je     20d8 <usb_hid_polling_ended_callback+0x58>
    20aa:	8d b6 00 00 00 00    	lea    0x0(%esi),%esi
    20b0:	8b 46 08             	mov    0x8(%esi),%eax
    20b3:	8d 14 9b             	lea    (%ebx,%ebx,4),%edx
    20b6:	8d 14 90             	lea    (%eax,%edx,4),%edx
    20b9:	8b 42 0c             	mov    0xc(%edx),%eax
    20bc:	85 c0                	test   %eax,%eax
    20be:	74 13                	je     20d3 <usb_hid_polling_ended_callback+0x53>
    20c0:	89 7c 24 08          	mov    %edi,0x8(%esp)
    20c4:	8b 52 10             	mov    0x10(%edx),%edx
    20c7:	89 34 24             	mov    %esi,(%esp)
    20ca:	89 54 24 04          	mov    %edx,0x4(%esp)
    20ce:	ff d0                	call   *%eax
    20d0:	8b 4e 0c             	mov    0xc(%esi),%ecx
    20d3:	43                   	inc    %ebx
    20d4:	39 cb                	cmp    %ecx,%ebx
    20d6:	72 d8                	jb     20b0 <usb_hid_polling_ended_callback+0x30>
    20d8:	c6 46 4c 00          	movb   $0x0,0x4c(%esi)
    20dc:	83 c4 1c             	add    $0x1c,%esp
    20df:	5b                   	pop    %ebx
    20e0:	5e                   	pop    %esi
    20e1:	5f                   	pop    %edi
    20e2:	5d                   	pop    %ebp
    20e3:	c3                   	ret    
    20e4:	c7 44 24 08 f9 01 00 	movl   $0x1f9,0x8(%esp)
    20eb:	00 
    20ec:	c7 44 24 04 04 1e 03 	movl   $0x31e04,0x4(%esp)
    20f3:	00 
    20f4:	c7 04 24 39 5d 03 00 	movl   $0x35d39,(%esp)
    20fb:	e8 10 b3 02 00       	call   2d410 <assert_abort>
    2100:	c7 44 24 08 fa 01 00 	movl   $0x1fa,0x8(%esp)
    2107:	00 
    2108:	c7 44 24 04 04 1e 03 	movl   $0x31e04,0x4(%esp)
    210f:	00 
    2110:	c7 04 24 b1 1f 03 00 	movl   $0x31fb1,(%esp)
    2117:	e8 f4 b2 02 00       	call   2d410 <assert_abort>
    211c:	8d 74 26 00          	lea    0x0(%esi,%eiz,1),%esi

00002120 <usb_hid_new_report>:
    2120:	55                   	push   %ebp
    2121:	89 e5                	mov    %esp,%ebp
    2123:	8b 45 08             	mov    0x8(%ebp),%eax
    2126:	8b 48 48             	mov    0x48(%eax),%ecx
    2129:	41                   	inc    %ecx
    212a:	89 48 48             	mov    %ecx,0x48(%eax)
    212d:	5d                   	pop    %ebp
    212e:	c3                   	ret    
    212f:	90                   	nop

00002130 <usb_hid_report_number>:
    2130:	55                   	push   %ebp
    2131:	89 e5                	mov    %esp,%ebp
    2133:	8b 45 08             	mov    0x8(%ebp),%eax
    2136:	5d                   	pop    %ebp
    2137:	8b 40 48             	mov    0x48(%eax),%eax
    213a:	c3                   	ret    
    213b:	90                   	nop
    213c:	8d 74 26 00          	lea    0x0(%esi,%eiz,1),%esi

00002140 <usb_hid_deinit>:
    2140:	55                   	push   %ebp
    2141:	89 e5                	mov    %esp,%ebp
    2143:	57                   	push   %edi
    2144:	56                   	push   %esi
    2145:	53                   	push   %ebx
    2146:	83 ec 2c             	sub    $0x2c,%esp
    2149:	8b 75 08             	mov    0x8(%ebp),%esi
    214c:	85 f6                	test   %esi,%esi
    214e:	0f 84 be 00 00 00    	je     2212 <usb_hid_deinit+0xd2>
    2154:	8b 46 08             	mov    0x8(%esi),%eax
    2157:	85 c0                	test   %eax,%eax
    2159:	0f 84 89 00 00 00    	je     21e8 <usb_hid_deinit+0xa8>
    215f:	8b 56 0c             	mov    0xc(%esi),%edx
    2162:	89 54 24 10          	mov    %edx,0x10(%esp)
    2166:	89 44 24 0c          	mov    %eax,0xc(%esp)
    216a:	c7 44 24 08 c4 23 03 	movl   $0x323c4,0x8(%esp)
    2171:	00 
    2172:	c7 44 24 04 04 00 00 	movl   $0x4,0x4(%esp)
    2179:	00 
    217a:	c7 04 24 ff ff ff ff 	movl   $0xffffffff,(%esp)
    2181:	31 db                	xor    %ebx,%ebx
    2183:	e8 88 b9 01 00       	call   1db10 <log_msg>
    2188:	8b 4e 0c             	mov    0xc(%esi),%ecx
    218b:	8b 7e 08             	mov    0x8(%esi),%edi
    218e:	85 c9                	test   %ecx,%ecx
    2190:	74 2a                	je     21bc <usb_hid_deinit+0x7c>
    2192:	8d b6 00 00 00 00    	lea    0x0(%esi),%esi
    2198:	8d 04 9b             	lea    (%ebx,%ebx,4),%eax
    219b:	8d 14 87             	lea    (%edi,%eax,4),%edx
    219e:	8b 42 04             	mov    0x4(%edx),%eax
    21a1:	85 c0                	test   %eax,%eax
    21a3:	74 12                	je     21b7 <usb_hid_deinit+0x77>
    21a5:	8b 52 10             	mov    0x10(%edx),%edx
    21a8:	89 34 24             	mov    %esi,(%esp)
    21ab:	89 54 24 04          	mov    %edx,0x4(%esp)
    21af:	ff d0                	call   *%eax
    21b1:	8b 7e 08             	mov    0x8(%esi),%edi
    21b4:	8b 4e 0c             	mov    0xc(%esi),%ecx
    21b7:	43                   	inc    %ebx
    21b8:	39 cb                	cmp    %ecx,%ebx
    21ba:	72 dc                	jb     2198 <usb_hid_deinit+0x58>
    21bc:	89 3c 24             	mov    %edi,(%esp)
    21bf:	e8 fc 0a 02 00       	call   22cc0 <free>
    21c4:	8b 46 10             	mov    0x10(%esi),%eax
    21c7:	89 04 24             	mov    %eax,(%esp)
    21ca:	83 c6 18             	add    $0x18,%esi
    21cd:	e8 ee 0a 02 00       	call   22cc0 <free>
    21d2:	89 75 08             	mov    %esi,0x8(%ebp)
    21d5:	83 c4 2c             	add    $0x2c,%esp
    21d8:	5b                   	pop    %ebx
    21d9:	5e                   	pop    %esi
    21da:	5f                   	pop    %edi
    21db:	5d                   	pop    %ebp
    21dc:	e9 0f 43 00 00       	jmp    64f0 <usb_hid_report_deinit>
    21e1:	8d b4 26 00 00 00 00 	lea    0x0(%esi,%eiz,1),%esi
    21e8:	8b 5e 0c             	mov    0xc(%esi),%ebx
    21eb:	85 db                	test   %ebx,%ebx
    21ed:	75 07                	jne    21f6 <usb_hid_deinit+0xb6>
    21ef:	31 d2                	xor    %edx,%edx
    21f1:	e9 6c ff ff ff       	jmp    2162 <usb_hid_deinit+0x22>
    21f6:	c7 44 24 08 15 02 00 	movl   $0x215,0x8(%esp)
    21fd:	00 
    21fe:	c7 44 24 04 04 1e 03 	movl   $0x31e04,0x4(%esp)
    2205:	00 
    2206:	c7 04 24 84 23 03 00 	movl   $0x32384,(%esp)
    220d:	e8 fe b1 02 00       	call   2d410 <assert_abort>
    2212:	c7 44 24 08 14 02 00 	movl   $0x214,0x8(%esp)
    2219:	00 
    221a:	c7 44 24 04 04 1e 03 	movl   $0x31e04,0x4(%esp)
    2221:	00 
    2222:	c7 04 24 0d 1e 03 00 	movl   $0x31e0d,(%esp)
    2229:	e8 e2 b1 02 00       	call   2d410 <assert_abort>
    222e:	66 90                	xchg   %ax,%ax

00002230 <usb_generic_hid_client_connected>:
    2230:	55                   	push   %ebp
    2231:	89 e5                	mov    %esp,%ebp
    2233:	83 ec 18             	sub    $0x18,%esp
    2236:	c7 44 24 08 e8 24 03 	movl   $0x324e8,0x8(%esp)
    223d:	00 
    223e:	c7 44 24 04 04 00 00 	movl   $0x4,0x4(%esp)
    2245:	00 
    2246:	c7 04 24 ff ff ff ff 	movl   $0xffffffff,(%esp)
    224d:	e8 be b8 01 00       	call   1db10 <log_msg>
    2252:	31 c0                	xor    %eax,%eax
    2254:	c9                   	leave  
    2255:	c3                   	ret    
    2256:	8d 76 00             	lea    0x0(%esi),%esi
    2259:	8d bc 27 00 00 00 00 	lea    0x0(%edi,%eiz,1),%edi

00002260 <usb_generic_hid_get_event>:
    2260:	55                   	push   %ebp
    2261:	89 e5                	mov    %esp,%ebp
    2263:	57                   	push   %edi
    2264:	56                   	push   %esi
    2265:	53                   	push   %ebx
    2266:	83 ec 2c             	sub    $0x2c,%esp
    2269:	8b 5d 14             	mov    0x14(%ebp),%ebx
    226c:	8b 7d 0c             	mov    0xc(%ebp),%edi
    226f:	c7 44 24 08 a6 26 03 	movl   $0x326a6,0x8(%esp)
    2276:	00 
    2277:	c7 44 24 04 05 00 00 	movl   $0x5,0x4(%esp)
    227e:	00 
    227f:	c7 04 24 ff ff ff ff 	movl   $0xffffffff,(%esp)
    2286:	e8 85 b8 01 00       	call   1db10 <log_msg>
    228b:	85 db                	test   %ebx,%ebx
    228d:	0f 84 a5 00 00 00    	je     2338 <usb_generic_hid_get_event+0xd8>
    2293:	85 ff                	test   %edi,%edi
    2295:	0f 84 9d 00 00 00    	je     2338 <usb_generic_hid_get_event+0xd8>
    229b:	8b 45 18             	mov    0x18(%ebp),%eax
    229e:	85 c0                	test   %eax,%eax
    22a0:	0f 84 92 00 00 00    	je     2338 <usb_generic_hid_get_event+0xd8>
    22a6:	8b 45 08             	mov    0x8(%ebp),%eax
    22a9:	89 04 24             	mov    %eax,(%esp)
    22ac:	e8 1f bf 00 00       	call   e1d0 <ddf_fun_data_get>
    22b1:	8b 30                	mov    (%eax),%esi
    22b3:	8b 46 40             	mov    0x40(%esi),%eax
    22b6:	3b 45 10             	cmp    0x10(%ebp),%eax
    22b9:	77 4d                	ja     2308 <usb_generic_hid_get_event+0xa8>
    22bb:	89 44 24 08          	mov    %eax,0x8(%esp)
    22bf:	8b 46 3c             	mov    0x3c(%esi),%eax
    22c2:	89 3c 24             	mov    %edi,(%esp)
    22c5:	89 44 24 04          	mov    %eax,0x4(%esp)
    22c9:	e8 82 34 01 00       	call   15750 <memcpy>
    22ce:	8b 46 40             	mov    0x40(%esi),%eax
    22d1:	89 03                	mov    %eax,(%ebx)
    22d3:	89 34 24             	mov    %esi,(%esp)
    22d6:	e8 55 fe ff ff       	call   2130 <usb_hid_report_number>
    22db:	8b 55 18             	mov    0x18(%ebp),%edx
    22de:	89 02                	mov    %eax,(%edx)
    22e0:	c7 44 24 08 47 27 03 	movl   $0x32747,0x8(%esp)
    22e7:	00 
    22e8:	c7 44 24 04 05 00 00 	movl   $0x5,0x4(%esp)
    22ef:	00 
    22f0:	c7 04 24 ff ff ff ff 	movl   $0xffffffff,(%esp)
    22f7:	e8 14 b8 01 00       	call   1db10 <log_msg>
    22fc:	31 c0                	xor    %eax,%eax
    22fe:	83 c4 2c             	add    $0x2c,%esp
    2301:	5b                   	pop    %ebx
    2302:	5e                   	pop    %esi
    2303:	5f                   	pop    %edi
    2304:	5d                   	pop    %ebp
    2305:	c3                   	ret    
    2306:	66 90                	xchg   %ax,%ax
    2308:	8b 55 10             	mov    0x10(%ebp),%edx
    230b:	89 44 24 0c          	mov    %eax,0xc(%esp)
    230f:	89 54 24 10          	mov    %edx,0x10(%esp)
    2313:	c7 44 24 08 08 25 03 	movl   $0x32508,0x8(%esp)
    231a:	00 
    231b:	c7 44 24 04 04 00 00 	movl   $0x4,0x4(%esp)
    2322:	00 
    2323:	c7 04 24 ff ff ff ff 	movl   $0xffffffff,(%esp)
    232a:	e8 e1 b7 01 00       	call   1db10 <log_msg>
    232f:	b8 f2 ff ff ff       	mov    $0xfffffff2,%eax
    2334:	eb c8                	jmp    22fe <usb_generic_hid_get_event+0x9e>
    2336:	66 90                	xchg   %ax,%ax
    2338:	c7 44 24 08 bf 26 03 	movl   $0x326bf,0x8(%esp)
    233f:	00 
    2340:	c7 44 24 04 04 00 00 	movl   $0x4,0x4(%esp)
    2347:	00 
    2348:	c7 04 24 ff ff ff ff 	movl   $0xffffffff,(%esp)
    234f:	e8 bc b7 01 00       	call   1db10 <log_msg>
    2354:	b8 f2 ff ff ff       	mov    $0xfffffff2,%eax
    2359:	eb a3                	jmp    22fe <usb_generic_hid_get_event+0x9e>
    235b:	90                   	nop
    235c:	8d 74 26 00          	lea    0x0(%esi,%eiz,1),%esi

00002360 <usb_generic_hid_get_event_length>:
    2360:	55                   	push   %ebp
    2361:	89 e5                	mov    %esp,%ebp
    2363:	53                   	push   %ebx
    2364:	83 ec 24             	sub    $0x24,%esp
    2367:	8b 5d 08             	mov    0x8(%ebp),%ebx
    236a:	89 1c 24             	mov    %ebx,(%esp)
    236d:	e8 5e be 00 00       	call   e1d0 <ddf_fun_data_get>
    2372:	89 5c 24 0c          	mov    %ebx,0xc(%esp)
    2376:	89 44 24 10          	mov    %eax,0x10(%esp)
    237a:	c7 44 24 08 30 25 03 	movl   $0x32530,0x8(%esp)
    2381:	00 
    2382:	c7 44 24 04 05 00 00 	movl   $0x5,0x4(%esp)
    2389:	00 
    238a:	c7 04 24 ff ff ff ff 	movl   $0xffffffff,(%esp)
    2391:	e8 7a b7 01 00       	call   1db10 <log_msg>
    2396:	89 1c 24             	mov    %ebx,(%esp)
    2399:	e8 32 be 00 00       	call   e1d0 <ddf_fun_data_get>
    239e:	8b 18                	mov    (%eax),%ebx
    23a0:	8b 43 44             	mov    0x44(%ebx),%eax
    23a3:	89 5c 24 0c          	mov    %ebx,0xc(%esp)
    23a7:	89 44 24 10          	mov    %eax,0x10(%esp)
    23ab:	c7 44 24 08 70 25 03 	movl   $0x32570,0x8(%esp)
    23b2:	00 
    23b3:	c7 44 24 04 05 00 00 	movl   $0x5,0x4(%esp)
    23ba:	00 
    23bb:	c7 04 24 ff ff ff ff 	movl   $0xffffffff,(%esp)
    23c2:	e8 49 b7 01 00       	call   1db10 <log_msg>
    23c7:	8b 43 44             	mov    0x44(%ebx),%eax
    23ca:	83 c4 24             	add    $0x24,%esp
    23cd:	5b                   	pop    %ebx
    23ce:	5d                   	pop    %ebp
    23cf:	c3                   	ret    

000023d0 <usb_generic_get_report_descriptor>:
    23d0:	55                   	push   %ebp
    23d1:	89 e5                	mov    %esp,%ebp
    23d3:	53                   	push   %ebx
    23d4:	83 ec 14             	sub    $0x14,%esp
    23d7:	c7 44 24 08 9c 25 03 	movl   $0x3259c,0x8(%esp)
    23de:	00 
    23df:	c7 44 24 04 05 00 00 	movl   $0x5,0x4(%esp)
    23e6:	00 
    23e7:	c7 04 24 ff ff ff ff 	movl   $0xffffffff,(%esp)
    23ee:	e8 1d b7 01 00       	call   1db10 <log_msg>
    23f3:	8b 45 08             	mov    0x8(%ebp),%eax
    23f6:	89 04 24             	mov    %eax,(%esp)
    23f9:	e8 d2 bd 00 00       	call   e1d0 <ddf_fun_data_get>
    23fe:	8b 18                	mov    (%eax),%ebx
    2400:	8b 43 14             	mov    0x14(%ebx),%eax
    2403:	3b 45 10             	cmp    0x10(%ebp),%eax
    2406:	77 28                	ja     2430 <usb_generic_get_report_descriptor+0x60>
    2408:	89 44 24 08          	mov    %eax,0x8(%esp)
    240c:	8b 43 10             	mov    0x10(%ebx),%eax
    240f:	89 44 24 04          	mov    %eax,0x4(%esp)
    2413:	8b 45 0c             	mov    0xc(%ebp),%eax
    2416:	89 04 24             	mov    %eax,(%esp)
    2419:	e8 32 33 01 00       	call   15750 <memcpy>
    241e:	8b 45 14             	mov    0x14(%ebp),%eax
    2421:	8b 53 14             	mov    0x14(%ebx),%edx
    2424:	89 10                	mov    %edx,(%eax)
    2426:	31 c0                	xor    %eax,%eax
    2428:	83 c4 14             	add    $0x14,%esp
    242b:	5b                   	pop    %ebx
    242c:	5d                   	pop    %ebp
    242d:	c3                   	ret    
    242e:	66 90                	xchg   %ax,%ax
    2430:	b8 f2 ff ff ff       	mov    $0xfffffff2,%eax
    2435:	eb f1                	jmp    2428 <usb_generic_get_report_descriptor+0x58>
    2437:	89 f6                	mov    %esi,%esi
    2439:	8d bc 27 00 00 00 00 	lea    0x0(%edi,%eiz,1),%edi

00002440 <usb_generic_get_report_descriptor_length>:
    2440:	55                   	push   %ebp
    2441:	89 e5                	mov    %esp,%ebp
    2443:	53                   	push   %ebx
    2444:	83 ec 14             	sub    $0x14,%esp
    2447:	c7 44 24 08 c4 25 03 	movl   $0x325c4,0x8(%esp)
    244e:	00 
    244f:	c7 44 24 04 04 00 00 	movl   $0x4,0x4(%esp)
    2456:	00 
    2457:	c7 04 24 ff ff ff ff 	movl   $0xffffffff,(%esp)
    245e:	e8 ad b6 01 00       	call   1db10 <log_msg>
    2463:	8b 45 08             	mov    0x8(%ebp),%eax
    2466:	89 04 24             	mov    %eax,(%esp)
    2469:	e8 62 bd 00 00       	call   e1d0 <ddf_fun_data_get>
    246e:	8b 18                	mov    (%eax),%ebx
    2470:	8b 43 14             	mov    0x14(%ebx),%eax
    2473:	c7 44 24 08 f0 25 03 	movl   $0x325f0,0x8(%esp)
    247a:	00 
    247b:	89 44 24 0c          	mov    %eax,0xc(%esp)
    247f:	c7 44 24 04 05 00 00 	movl   $0x5,0x4(%esp)
    2486:	00 
    2487:	c7 04 24 ff ff ff ff 	movl   $0xffffffff,(%esp)
    248e:	e8 7d b6 01 00       	call   1db10 <log_msg>
    2493:	8b 43 14             	mov    0x14(%ebx),%eax
    2496:	83 c4 14             	add    $0x14,%esp
    2499:	5b                   	pop    %ebx
    249a:	5d                   	pop    %ebp
    249b:	c3                   	ret    
    249c:	8d 74 26 00          	lea    0x0(%esi,%eiz,1),%esi

000024a0 <usb_generic_hid_deinit>:
    24a0:	55                   	push   %ebp
    24a1:	89 e5                	mov    %esp,%ebp
    24a3:	53                   	push   %ebx
    24a4:	83 ec 14             	sub    $0x14,%esp
    24a7:	8b 5d 0c             	mov    0xc(%ebp),%ebx
    24aa:	85 db                	test   %ebx,%ebx
    24ac:	74 5e                	je     250c <usb_generic_hid_deinit+0x6c>
    24ae:	89 1c 24             	mov    %ebx,(%esp)
    24b1:	e8 5a bf 00 00       	call   e410 <ddf_fun_unbind>
    24b6:	85 c0                	test   %eax,%eax
    24b8:	75 36                	jne    24f0 <usb_generic_hid_deinit+0x50>
    24ba:	89 1c 24             	mov    %ebx,(%esp)
    24bd:	e8 1e bd 00 00       	call   e1e0 <ddf_fun_get_name>
    24c2:	c7 44 24 08 cb 26 03 	movl   $0x326cb,0x8(%esp)
    24c9:	00 
    24ca:	89 44 24 0c          	mov    %eax,0xc(%esp)
    24ce:	c7 44 24 04 05 00 00 	movl   $0x5,0x4(%esp)
    24d5:	00 
    24d6:	c7 04 24 ff ff ff ff 	movl   $0xffffffff,(%esp)
    24dd:	e8 2e b6 01 00       	call   1db10 <log_msg>
    24e2:	89 5d 08             	mov    %ebx,0x8(%ebp)
    24e5:	83 c4 14             	add    $0x14,%esp
    24e8:	5b                   	pop    %ebx
    24e9:	5d                   	pop    %ebp
    24ea:	e9 01 bd 00 00       	jmp    e1f0 <ddf_fun_destroy>
    24ef:	90                   	nop
    24f0:	c7 44 24 08 14 26 03 	movl   $0x32614,0x8(%esp)
    24f7:	00 
    24f8:	c7 44 24 04 01 00 00 	movl   $0x1,0x4(%esp)
    24ff:	00 
    2500:	c7 04 24 ff ff ff ff 	movl   $0xffffffff,(%esp)
    2507:	e8 04 b6 01 00       	call   1db10 <log_msg>
    250c:	83 c4 14             	add    $0x14,%esp
    250f:	5b                   	pop    %ebx
    2510:	5d                   	pop    %ebp
    2511:	c3                   	ret    
    2512:	8d b4 26 00 00 00 00 	lea    0x0(%esi,%eiz,1),%esi
    2519:	8d bc 27 00 00 00 00 	lea    0x0(%edi,%eiz,1),%edi

00002520 <usb_generic_hid_init>:
    2520:	55                   	push   %ebp
    2521:	89 e5                	mov    %esp,%ebp
    2523:	56                   	push   %esi
    2524:	53                   	push   %ebx
    2525:	83 ec 10             	sub    $0x10,%esp
    2528:	8b 75 08             	mov    0x8(%ebp),%esi
    252b:	85 f6                	test   %esi,%esi
    252d:	0f 84 f5 00 00 00    	je     2628 <usb_generic_hid_init+0x108>
    2533:	a1 04 92 03 00       	mov    0x39204,%eax
    2538:	c7 44 24 08 d8 26 03 	movl   $0x326d8,0x8(%esp)
    253f:	00 
    2540:	89 44 24 0c          	mov    %eax,0xc(%esp)
    2544:	c7 44 24 04 04 00 00 	movl   $0x4,0x4(%esp)
    254b:	00 
    254c:	c7 04 24 ff ff ff ff 	movl   $0xffffffff,(%esp)
    2553:	e8 b8 b5 01 00       	call   1db10 <log_msg>
    2558:	a1 04 92 03 00       	mov    0x39204,%eax
    255d:	89 44 24 08          	mov    %eax,0x8(%esp)
    2561:	c7 44 24 04 02 00 00 	movl   $0x2,0x4(%esp)
    2568:	00 
    2569:	8b 06                	mov    (%esi),%eax
    256b:	8b 40 70             	mov    0x70(%eax),%eax
    256e:	89 04 24             	mov    %eax,(%esp)
    2571:	e8 fa ba 00 00       	call   e070 <ddf_fun_create>
    2576:	89 c3                	mov    %eax,%ebx
    2578:	85 c0                	test   %eax,%eax
    257a:	0f 84 af 00 00 00    	je     262f <usb_generic_hid_init+0x10f>
    2580:	c7 44 24 04 04 00 00 	movl   $0x4,0x4(%esp)
    2587:	00 
    2588:	89 04 24             	mov    %eax,(%esp)
    258b:	e8 d0 bb 00 00       	call   e160 <ddf_fun_data_alloc>
    2590:	89 30                	mov    %esi,(%eax)
    2592:	c7 44 24 04 20 92 03 	movl   $0x39220,0x4(%esp)
    2599:	00 
    259a:	89 1c 24             	mov    %ebx,(%esp)
    259d:	e8 5e c0 00 00       	call   e600 <ddf_fun_set_ops>
    25a2:	89 1c 24             	mov    %ebx,(%esp)
    25a5:	e8 56 bd 00 00       	call   e300 <ddf_fun_bind>
    25aa:	89 c6                	mov    %eax,%esi
    25ac:	85 c0                	test   %eax,%eax
    25ae:	75 38                	jne    25e8 <usb_generic_hid_init+0xc8>
    25b0:	89 1c 24             	mov    %ebx,(%esp)
    25b3:	e8 a8 ba 00 00       	call   e060 <ddf_fun_get_handle>
    25b8:	c7 44 24 08 84 26 03 	movl   $0x32684,0x8(%esp)
    25bf:	00 
    25c0:	89 44 24 0c          	mov    %eax,0xc(%esp)
    25c4:	c7 44 24 04 04 00 00 	movl   $0x4,0x4(%esp)
    25cb:	00 
    25cc:	c7 04 24 ff ff ff ff 	movl   $0xffffffff,(%esp)
    25d3:	e8 38 b5 01 00       	call   1db10 <log_msg>
    25d8:	8b 45 0c             	mov    0xc(%ebp),%eax
    25db:	89 18                	mov    %ebx,(%eax)
    25dd:	83 c4 10             	add    $0x10,%esp
    25e0:	89 f0                	mov    %esi,%eax
    25e2:	5b                   	pop    %ebx
    25e3:	5e                   	pop    %esi
    25e4:	5d                   	pop    %ebp
    25e5:	c3                   	ret    
    25e6:	66 90                	xchg   %ax,%ax
    25e8:	89 04 24             	mov    %eax,(%esp)
    25eb:	e8 50 68 01 00       	call   18e40 <str_error>
    25f0:	c7 44 24 08 60 26 03 	movl   $0x32660,0x8(%esp)
    25f7:	00 
    25f8:	89 44 24 0c          	mov    %eax,0xc(%esp)
    25fc:	c7 44 24 04 01 00 00 	movl   $0x1,0x4(%esp)
    2603:	00 
    2604:	c7 04 24 ff ff ff ff 	movl   $0xffffffff,(%esp)
    260b:	e8 00 b5 01 00       	call   1db10 <log_msg>
    2610:	89 1c 24             	mov    %ebx,(%esp)
    2613:	e8 d8 bb 00 00       	call   e1f0 <ddf_fun_destroy>
    2618:	83 c4 10             	add    $0x10,%esp
    261b:	89 f0                	mov    %esi,%eax
    261d:	5b                   	pop    %ebx
    261e:	5e                   	pop    %esi
    261f:	5d                   	pop    %ebp
    2620:	c3                   	ret    
    2621:	8d b4 26 00 00 00 00 	lea    0x0(%esi,%eiz,1),%esi
    2628:	be f2 ff ff ff       	mov    $0xfffffff2,%esi
    262d:	eb ae                	jmp    25dd <usb_generic_hid_init+0xbd>
    262f:	c7 44 24 08 38 26 03 	movl   $0x32638,0x8(%esp)
    2636:	00 
    2637:	c7 44 24 04 01 00 00 	movl   $0x1,0x4(%esp)
    263e:	00 
    263f:	c7 04 24 ff ff ff ff 	movl   $0xffffffff,(%esp)
    2646:	be fe ff ff ff       	mov    $0xfffffffe,%esi
    264b:	e8 c0 b4 01 00       	call   1db10 <log_msg>
    2650:	eb 8b                	jmp    25dd <usb_generic_hid_init+0xbd>
    2652:	8d b4 26 00 00 00 00 	lea    0x0(%esi,%eiz,1),%esi
    2659:	8d bc 27 00 00 00 00 	lea    0x0(%edi,%eiz,1),%edi

00002660 <usb_generic_hid_polling_callback>:
    2660:	55                   	push   %ebp
    2661:	b0 01                	mov    $0x1,%al
    2663:	89 e5                	mov    %esp,%ebp
    2665:	5d                   	pop    %ebp
    2666:	c3                   	ret    
    2667:	66 90                	xchg   %ax,%ax
    2669:	66 90                	xchg   %ax,%ax
    266b:	66 90                	xchg   %ax,%ax
    266d:	66 90                	xchg   %ax,%ax
    266f:	90                   	nop

00002670 <usbhid_parse_scancode>:
    2670:	55                   	push   %ebp
    2671:	83 c8 ff             	or     $0xffffffff,%eax
    2674:	89 e5                	mov    %esp,%ebp
    2676:	81 7d 08 fe 00 00 00 	cmpl   $0xfe,0x8(%ebp)
    267d:	76 09                	jbe    2688 <usbhid_parse_scancode+0x18>
    267f:	5d                   	pop    %ebp
    2680:	c3                   	ret    
    2681:	8d b4 26 00 00 00 00 	lea    0x0(%esi,%eiz,1),%esi
    2688:	8b 55 08             	mov    0x8(%ebp),%edx
    268b:	5d                   	pop    %ebp
    268c:	8b 04 95 80 92 03 00 	mov    0x39280(,%edx,4),%eax
    2693:	c3                   	ret    
    2694:	66 90                	xchg   %ax,%ax
    2696:	66 90                	xchg   %ax,%ax
    2698:	66 90                	xchg   %ax,%ax
    269a:	66 90                	xchg   %ax,%ax
    269c:	66 90                	xchg   %ax,%ax
    269e:	66 90                	xchg   %ax,%ax

000026a0 <usb_kbd_set_led.part.0>:
    26a0:	55                   	push   %ebp
    26a1:	89 e5                	mov    %esp,%ebp
    26a3:	57                   	push   %edi
    26a4:	56                   	push   %esi
    26a5:	53                   	push   %ebx
    26a6:	83 ec 2c             	sub    $0x2c,%esp
    26a9:	89 c6                	mov    %eax,%esi
    26ab:	8b 42 48             	mov    0x48(%edx),%eax
    26ae:	89 d7                	mov    %edx,%edi
    26b0:	c1 e0 02             	shl    $0x2,%eax
    26b3:	c7 44 24 04 00 00 00 	movl   $0x0,0x4(%esp)
    26ba:	00 
    26bb:	89 44 24 08          	mov    %eax,0x8(%esp)
    26bf:	8d 5e 18             	lea    0x18(%esi),%ebx
    26c2:	8b 42 50             	mov    0x50(%edx),%eax
    26c5:	89 04 24             	mov    %eax,(%esp)
    26c8:	e8 03 2f 01 00       	call   155d0 <memset>
    26cd:	c7 44 24 08 10 27 03 	movl   $0x32710,0x8(%esp)
    26d4:	00 
    26d5:	c7 44 24 04 04 00 00 	movl   $0x4,0x4(%esp)
    26dc:	00 
    26dd:	c7 04 24 ff ff ff ff 	movl   $0xffffffff,(%esp)
    26e4:	e8 27 b4 01 00       	call   1db10 <log_msg>
    26e9:	8b 47 4c             	mov    0x4c(%edi),%eax
    26ec:	c7 44 24 10 02 00 00 	movl   $0x2,0x10(%esp)
    26f3:	00 
    26f4:	c7 44 24 0c 03 00 00 	movl   $0x3,0xc(%esp)
    26fb:	00 
    26fc:	89 44 24 08          	mov    %eax,0x8(%esp)
    2700:	c7 44 24 04 00 00 00 	movl   $0x0,0x4(%esp)
    2707:	00 
    2708:	eb 3a                	jmp    2744 <usb_kbd_set_led.part.0+0xa4>
    270a:	8d b6 00 00 00 00    	lea    0x0(%esi),%esi
    2710:	66 83 f8 02          	cmp    $0x2,%ax
    2714:	74 52                	je     2768 <usb_kbd_set_led.part.0+0xc8>
    2716:	66 83 f8 03          	cmp    $0x3,%ax
    271a:	75 0d                	jne    2729 <usb_kbd_set_led.part.0+0x89>
    271c:	f6 47 15 01          	testb  $0x1,0x15(%edi)
    2720:	74 07                	je     2729 <usb_kbd_set_led.part.0+0x89>
    2722:	c7 41 3c 01 00 00 00 	movl   $0x1,0x3c(%ecx)
    2729:	8b 47 4c             	mov    0x4c(%edi),%eax
    272c:	c7 44 24 10 02 00 00 	movl   $0x2,0x10(%esp)
    2733:	00 
    2734:	c7 44 24 0c 03 00 00 	movl   $0x3,0xc(%esp)
    273b:	00 
    273c:	89 44 24 08          	mov    %eax,0x8(%esp)
    2740:	89 4c 24 04          	mov    %ecx,0x4(%esp)
    2744:	89 1c 24             	mov    %ebx,(%esp)
    2747:	e8 e4 46 00 00       	call   6e30 <usb_hid_report_get_sibling>
    274c:	89 c1                	mov    %eax,%ecx
    274e:	85 c0                	test   %eax,%eax
    2750:	74 1e                	je     2770 <usb_kbd_set_led.part.0+0xd0>
    2752:	66 8b 40 0a          	mov    0xa(%eax),%ax
    2756:	66 83 f8 01          	cmp    $0x1,%ax
    275a:	75 b4                	jne    2710 <usb_kbd_set_led.part.0+0x70>
    275c:	f6 47 14 80          	testb  $0x80,0x14(%edi)
    2760:	74 c7                	je     2729 <usb_kbd_set_led.part.0+0x89>
    2762:	eb be                	jmp    2722 <usb_kbd_set_led.part.0+0x82>
    2764:	8d 74 26 00          	lea    0x0(%esi,%eiz,1),%esi
    2768:	f6 47 14 40          	testb  $0x40,0x14(%edi)
    276c:	74 bb                	je     2729 <usb_kbd_set_led.part.0+0x89>
    276e:	eb b2                	jmp    2722 <usb_kbd_set_led.part.0+0x82>
    2770:	8b 47 44             	mov    0x44(%edi),%eax
    2773:	c7 44 24 04 00 00 00 	movl   $0x0,0x4(%esp)
    277a:	00 
    277b:	89 44 24 0c          	mov    %eax,0xc(%esp)
    277f:	8b 47 40             	mov    0x40(%edi),%eax
    2782:	89 44 24 08          	mov    %eax,0x8(%esp)
    2786:	89 1c 24             	mov    %ebx,(%esp)
    2789:	e8 12 44 00 00       	call   6ba0 <usb_hid_report_output_translate>
    278e:	85 c0                	test   %eax,%eax
    2790:	0f 85 9a 00 00 00    	jne    2830 <usb_kbd_set_led.part.0+0x190>
    2796:	8b 47 44             	mov    0x44(%edi),%eax
    2799:	c7 44 24 08 00 00 00 	movl   $0x0,0x8(%esp)
    27a0:	00 
    27a1:	89 44 24 04          	mov    %eax,0x4(%esp)
    27a5:	8b 47 40             	mov    0x40(%edi),%eax
    27a8:	89 04 24             	mov    %eax,(%esp)
    27ab:	e8 50 9d 00 00       	call   c500 <usb_debug_str_buffer>
    27b0:	c7 44 24 08 29 27 03 	movl   $0x32729,0x8(%esp)
    27b7:	00 
    27b8:	89 44 24 0c          	mov    %eax,0xc(%esp)
    27bc:	c7 44 24 04 04 00 00 	movl   $0x4,0x4(%esp)
    27c3:	00 
    27c4:	c7 04 24 ff ff ff ff 	movl   $0xffffffff,(%esp)
    27cb:	e8 40 b3 01 00       	call   1db10 <log_msg>
    27d0:	8b 57 44             	mov    0x44(%edi),%edx
    27d3:	8b 06                	mov    (%esi),%eax
    27d5:	89 54 24 10          	mov    %edx,0x10(%esp)
    27d9:	8b 57 40             	mov    0x40(%edi),%edx
    27dc:	c7 44 24 08 02 00 00 	movl   $0x2,0x8(%esp)
    27e3:	00 
    27e4:	89 54 24 0c          	mov    %edx,0xc(%esp)
    27e8:	8b 50 44             	mov    0x44(%eax),%edx
    27eb:	83 c0 24             	add    $0x24,%eax
    27ee:	89 54 24 04          	mov    %edx,0x4(%esp)
    27f2:	89 04 24             	mov    %eax,(%esp)
    27f5:	e8 36 53 00 00       	call   7b30 <usbhid_req_set_report>
    27fa:	85 c0                	test   %eax,%eax
    27fc:	75 0a                	jne    2808 <usb_kbd_set_led.part.0+0x168>
    27fe:	83 c4 2c             	add    $0x2c,%esp
    2801:	5b                   	pop    %ebx
    2802:	5e                   	pop    %esi
    2803:	5f                   	pop    %edi
    2804:	5d                   	pop    %ebp
    2805:	c3                   	ret    
    2806:	66 90                	xchg   %ax,%ax
    2808:	c7 44 24 08 68 28 03 	movl   $0x32868,0x8(%esp)
    280f:	00 
    2810:	c7 44 24 04 02 00 00 	movl   $0x2,0x4(%esp)
    2817:	00 
    2818:	c7 04 24 ff ff ff ff 	movl   $0xffffffff,(%esp)
    281f:	e8 ec b2 01 00       	call   1db10 <log_msg>
    2824:	83 c4 2c             	add    $0x2c,%esp
    2827:	5b                   	pop    %ebx
    2828:	5e                   	pop    %esi
    2829:	5f                   	pop    %edi
    282a:	5d                   	pop    %ebp
    282b:	c3                   	ret    
    282c:	8d 74 26 00          	lea    0x0(%esi,%eiz,1),%esi
    2830:	c7 44 24 08 38 28 03 	movl   $0x32838,0x8(%esp)
    2837:	00 
    2838:	c7 44 24 04 02 00 00 	movl   $0x2,0x4(%esp)
    283f:	00 
    2840:	c7 04 24 ff ff ff ff 	movl   $0xffffffff,(%esp)
    2847:	e8 c4 b2 01 00       	call   1db10 <log_msg>
    284c:	83 c4 2c             	add    $0x2c,%esp
    284f:	5b                   	pop    %ebx
    2850:	5e                   	pop    %esi
    2851:	5f                   	pop    %edi
    2852:	5d                   	pop    %ebp
    2853:	c3                   	ret    
    2854:	8d b6 00 00 00 00    	lea    0x0(%esi),%esi
    285a:	8d bf 00 00 00 00    	lea    0x0(%edi),%edi

00002860 <default_connection_handler>:
    2860:	55                   	push   %ebp
    2861:	89 e5                	mov    %esp,%ebp
    2863:	57                   	push   %edi
    2864:	56                   	push   %esi
    2865:	53                   	push   %ebx
    2866:	83 ec 3c             	sub    $0x3c,%esp
    2869:	8b 75 10             	mov    0x10(%ebp),%esi
    286c:	8b 45 08             	mov    0x8(%ebp),%eax
    286f:	8b 7d 0c             	mov    0xc(%ebp),%edi
    2872:	8b 1e                	mov    (%esi),%ebx
    2874:	89 04 24             	mov    %eax,(%esp)
    2877:	e8 54 b9 00 00       	call   e1d0 <ddf_fun_data_get>
    287c:	83 fb 03             	cmp    $0x3,%ebx
    287f:	89 c2                	mov    %eax,%edx
    2881:	74 4d                	je     28d0 <default_connection_handler+0x70>
    2883:	81 fb 0d 04 00 00    	cmp    $0x40d,%ebx
    2889:	0f 84 a1 00 00 00    	je     2930 <default_connection_handler+0xd0>
    288f:	89 5c 24 10          	mov    %ebx,0x10(%esp)
    2893:	c7 44 24 0c b8 2d 03 	movl   $0x32db8,0xc(%esp)
    289a:	00 
    289b:	c7 44 24 08 4b 27 03 	movl   $0x3274b,0x8(%esp)
    28a2:	00 
    28a3:	c7 44 24 04 01 00 00 	movl   $0x1,0x4(%esp)
    28aa:	00 
    28ab:	c7 04 24 ff ff ff ff 	movl   $0xffffffff,(%esp)
    28b2:	e8 59 b2 01 00       	call   1db10 <log_msg>
    28b7:	c7 45 0c f2 ff ff ff 	movl   $0xfffffff2,0xc(%ebp)
    28be:	89 7d 08             	mov    %edi,0x8(%ebp)
    28c1:	83 c4 3c             	add    $0x3c,%esp
    28c4:	5b                   	pop    %ebx
    28c5:	5e                   	pop    %esi
    28c6:	5f                   	pop    %edi
    28c7:	5d                   	pop    %ebp
    28c8:	e9 23 2e 02 00       	jmp    256f0 <async_answer_0>
    28cd:	8d 76 00             	lea    0x0(%esi),%esi
    28d0:	89 74 24 04          	mov    %esi,0x4(%esp)
    28d4:	c7 04 24 02 00 00 00 	movl   $0x2,(%esp)
    28db:	89 45 e4             	mov    %eax,-0x1c(%ebp)
    28de:	e8 ed 51 02 00       	call   27ad0 <async_callback_receive_start>
    28e3:	8b 55 e4             	mov    -0x1c(%ebp),%edx
    28e6:	85 c0                	test   %eax,%eax
    28e8:	0f 84 a2 00 00 00    	je     2990 <default_connection_handler+0x130>
    28ee:	8b 4a 1c             	mov    0x1c(%edx),%ecx
    28f1:	85 c9                	test   %ecx,%ecx
    28f3:	74 6b                	je     2960 <default_connection_handler+0x100>
    28f5:	c7 44 24 0c b8 2d 03 	movl   $0x32db8,0xc(%esp)
    28fc:	00 
    28fd:	c7 44 24 08 b4 28 03 	movl   $0x328b4,0x8(%esp)
    2904:	00 
    2905:	c7 44 24 04 01 00 00 	movl   $0x1,0x4(%esp)
    290c:	00 
    290d:	c7 04 24 ff ff ff ff 	movl   $0xffffffff,(%esp)
    2914:	e8 f7 b1 01 00       	call   1db10 <log_msg>
    2919:	89 7d 08             	mov    %edi,0x8(%ebp)
    291c:	c7 45 0c fd ff ff ff 	movl   $0xfffffffd,0xc(%ebp)
    2923:	83 c4 3c             	add    $0x3c,%esp
    2926:	5b                   	pop    %ebx
    2927:	5e                   	pop    %esi
    2928:	5f                   	pop    %edi
    2929:	5d                   	pop    %ebp
    292a:	e9 c1 2d 02 00       	jmp    256f0 <async_answer_0>
    292f:	90                   	nop
    2930:	8b 46 04             	mov    0x4(%esi),%eax
    2933:	8b 5a 44             	mov    0x44(%edx),%ebx
    2936:	89 42 14             	mov    %eax,0x14(%edx)
    2939:	85 db                	test   %ebx,%ebx
    293b:	8b 02                	mov    (%edx),%eax
    293d:	74 05                	je     2944 <default_connection_handler+0xe4>
    293f:	e8 5c fd ff ff       	call   26a0 <usb_kbd_set_led.part.0>
    2944:	89 7d 08             	mov    %edi,0x8(%ebp)
    2947:	c7 45 0c 00 00 00 00 	movl   $0x0,0xc(%ebp)
    294e:	83 c4 3c             	add    $0x3c,%esp
    2951:	5b                   	pop    %ebx
    2952:	5e                   	pop    %esi
    2953:	5f                   	pop    %edi
    2954:	5d                   	pop    %ebp
    2955:	e9 96 2d 02 00       	jmp    256f0 <async_answer_0>
    295a:	8d b6 00 00 00 00    	lea    0x0(%esi),%esi
    2960:	89 42 1c             	mov    %eax,0x1c(%edx)
    2963:	c7 44 24 0c b8 2d 03 	movl   $0x32db8,0xc(%esp)
    296a:	00 
    296b:	c7 44 24 08 43 27 03 	movl   $0x32743,0x8(%esp)
    2972:	00 
    2973:	c7 44 24 04 04 00 00 	movl   $0x4,0x4(%esp)
    297a:	00 
    297b:	c7 04 24 ff ff ff ff 	movl   $0xffffffff,(%esp)
    2982:	e8 89 b1 01 00       	call   1db10 <log_msg>
    2987:	eb bb                	jmp    2944 <default_connection_handler+0xe4>
    2989:	8d b4 26 00 00 00 00 	lea    0x0(%esi,%eiz,1),%esi
    2990:	c7 44 24 08 88 28 03 	movl   $0x32888,0x8(%esp)
    2997:	00 
    2998:	c7 44 24 04 02 00 00 	movl   $0x2,0x4(%esp)
    299f:	00 
    29a0:	c7 04 24 ff ff ff ff 	movl   $0xffffffff,(%esp)
    29a7:	e8 64 b1 01 00       	call   1db10 <log_msg>
    29ac:	c7 45 0c 06 d5 ff ff 	movl   $0xffffd506,0xc(%ebp)
    29b3:	e9 06 ff ff ff       	jmp    28be <default_connection_handler+0x5e>
    29b8:	90                   	nop
    29b9:	8d b4 26 00 00 00 00 	lea    0x0(%esi,%eiz,1),%esi

000029c0 <usb_kbd_check_key_changes.isra.2>:
    29c0:	55                   	push   %ebp
    29c1:	89 e5                	mov    %esp,%ebp
    29c3:	57                   	push   %edi
    29c4:	56                   	push   %esi
    29c5:	53                   	push   %ebx
    29c6:	81 ec 3c 02 00 00    	sub    $0x23c,%esp
    29cc:	89 85 e4 fd ff ff    	mov    %eax,-0x21c(%ebp)
    29d2:	8b 50 0c             	mov    0xc(%eax),%edx
    29d5:	8b 48 08             	mov    0x8(%eax),%ecx
    29d8:	85 d2                	test   %edx,%edx
    29da:	0f 84 b4 03 00 00    	je     2d94 <usb_kbd_check_key_changes.isra.2+0x3d4>
    29e0:	83 39 01             	cmpl   $0x1,(%ecx)
    29e3:	0f 84 00 03 00 00    	je     2ce9 <usb_kbd_check_key_changes.isra.2+0x329>
    29e9:	31 c0                	xor    %eax,%eax
    29eb:	eb 0d                	jmp    29fa <usb_kbd_check_key_changes.isra.2+0x3a>
    29ed:	8d 76 00             	lea    0x0(%esi),%esi
    29f0:	83 3c 81 01          	cmpl   $0x1,(%ecx,%eax,4)
    29f4:	0f 84 e8 02 00 00    	je     2ce2 <usb_kbd_check_key_changes.isra.2+0x322>
    29fa:	40                   	inc    %eax
    29fb:	39 d0                	cmp    %edx,%eax
    29fd:	75 f1                	jne    29f0 <usb_kbd_check_key_changes.isra.2+0x30>
    29ff:	8b 85 e4 fd ff ff    	mov    -0x21c(%ebp),%eax
    2a05:	31 f6                	xor    %esi,%esi
    2a07:	8b 78 04             	mov    0x4(%eax),%edi
    2a0a:	8d b6 00 00 00 00    	lea    0x0(%esi),%esi
    2a10:	8b 1c b7             	mov    (%edi,%esi,4),%ebx
    2a13:	85 d2                	test   %edx,%edx
    2a15:	74 1f                	je     2a36 <usb_kbd_check_key_changes.isra.2+0x76>
    2a17:	3b 19                	cmp    (%ecx),%ebx
    2a19:	0f 84 d6 00 00 00    	je     2af5 <usb_kbd_check_key_changes.isra.2+0x135>
    2a1f:	31 c0                	xor    %eax,%eax
    2a21:	eb 0e                	jmp    2a31 <usb_kbd_check_key_changes.isra.2+0x71>
    2a23:	90                   	nop
    2a24:	8d 74 26 00          	lea    0x0(%esi,%eiz,1),%esi
    2a28:	3b 1c 81             	cmp    (%ecx,%eax,4),%ebx
    2a2b:	0f 84 3f 02 00 00    	je     2c70 <usb_kbd_check_key_changes.isra.2+0x2b0>
    2a31:	40                   	inc    %eax
    2a32:	39 d0                	cmp    %edx,%eax
    2a34:	75 f2                	jne    2a28 <usb_kbd_check_key_changes.isra.2+0x68>
    2a36:	89 1c 24             	mov    %ebx,(%esp)
    2a39:	e8 32 fc ff ff       	call   2670 <usbhid_parse_scancode>
    2a3e:	89 c7                	mov    %eax,%edi
    2a40:	83 f8 49             	cmp    $0x49,%eax
    2a43:	0f 85 70 02 00 00    	jne    2cb9 <usb_kbd_check_key_changes.isra.2+0x2f9>
    2a49:	89 7c 24 10          	mov    %edi,0x10(%esp)
    2a4d:	c7 44 24 0c 01 00 00 	movl   $0x1,0xc(%esp)
    2a54:	00 
    2a55:	c7 44 24 08 d8 28 03 	movl   $0x328d8,0x8(%esp)
    2a5c:	00 
    2a5d:	c7 44 24 04 05 00 00 	movl   $0x5,0x4(%esp)
    2a64:	00 
    2a65:	c7 04 24 ff ff ff ff 	movl   $0xffffffff,(%esp)
    2a6c:	e8 9f b0 01 00       	call   1db10 <log_msg>
    2a71:	8b 95 e4 fd ff ff    	mov    -0x21c(%ebp),%edx
    2a77:	8b 42 1c             	mov    0x1c(%edx),%eax
    2a7a:	85 c0                	test   %eax,%eax
    2a7c:	0f 84 f1 02 00 00    	je     2d73 <usb_kbd_check_key_changes.isra.2+0x3b3>
    2a82:	89 04 24             	mov    %eax,(%esp)
    2a85:	e8 66 36 02 00       	call   260f0 <async_exchange_begin>
    2a8a:	85 c0                	test   %eax,%eax
    2a8c:	0f 84 7e 02 00 00    	je     2d10 <usb_kbd_check_key_changes.isra.2+0x350>
    2a92:	89 04 24             	mov    %eax,(%esp)
    2a95:	89 7c 24 0c          	mov    %edi,0xc(%esp)
    2a99:	c7 44 24 08 01 00 00 	movl   $0x1,0x8(%esp)
    2aa0:	00 
    2aa1:	c7 44 24 04 00 04 00 	movl   $0x400,0x4(%esp)
    2aa8:	00 
    2aa9:	89 85 e0 fd ff ff    	mov    %eax,-0x220(%ebp)
    2aaf:	e8 bc 2a 02 00       	call   25570 <async_msg_2>
    2ab4:	8b 85 e0 fd ff ff    	mov    -0x220(%ebp),%eax
    2aba:	89 04 24             	mov    %eax,(%esp)
    2abd:	e8 9e 39 02 00       	call   26460 <async_exchange_end>
    2ac2:	89 7c 24 0c          	mov    %edi,0xc(%esp)
    2ac6:	89 5c 24 10          	mov    %ebx,0x10(%esp)
    2aca:	c7 44 24 08 58 29 03 	movl   $0x32958,0x8(%esp)
    2ad1:	00 
    2ad2:	c7 44 24 04 05 00 00 	movl   $0x5,0x4(%esp)
    2ad9:	00 
    2ada:	c7 04 24 ff ff ff ff 	movl   $0xffffffff,(%esp)
    2ae1:	e8 2a b0 01 00       	call   1db10 <log_msg>
    2ae6:	8b 85 e4 fd ff ff    	mov    -0x21c(%ebp),%eax
    2aec:	8b 48 08             	mov    0x8(%eax),%ecx
    2aef:	8b 78 04             	mov    0x4(%eax),%edi
    2af2:	8b 50 0c             	mov    0xc(%eax),%edx
    2af5:	46                   	inc    %esi
    2af6:	39 d6                	cmp    %edx,%esi
    2af8:	0f 82 12 ff ff ff    	jb     2a10 <usb_kbd_check_key_changes.isra.2+0x50>
    2afe:	85 d2                	test   %edx,%edx
    2b00:	0f 84 f0 00 00 00    	je     2bf6 <usb_kbd_check_key_changes.isra.2+0x236>
    2b06:	31 f6                	xor    %esi,%esi
    2b08:	8b 1c b1             	mov    (%ecx,%esi,4),%ebx
    2b0b:	85 d2                	test   %edx,%edx
    2b0d:	74 1f                	je     2b2e <usb_kbd_check_key_changes.isra.2+0x16e>
    2b0f:	3b 1f                	cmp    (%edi),%ebx
    2b11:	0f 84 d6 00 00 00    	je     2bed <usb_kbd_check_key_changes.isra.2+0x22d>
    2b17:	31 c0                	xor    %eax,%eax
    2b19:	eb 0e                	jmp    2b29 <usb_kbd_check_key_changes.isra.2+0x169>
    2b1b:	90                   	nop
    2b1c:	8d 74 26 00          	lea    0x0(%esi,%eiz,1),%esi
    2b20:	3b 1c 87             	cmp    (%edi,%eax,4),%ebx
    2b23:	0f 84 57 01 00 00    	je     2c80 <usb_kbd_check_key_changes.isra.2+0x2c0>
    2b29:	40                   	inc    %eax
    2b2a:	39 d0                	cmp    %edx,%eax
    2b2c:	75 f2                	jne    2b20 <usb_kbd_check_key_changes.isra.2+0x160>
    2b2e:	89 1c 24             	mov    %ebx,(%esp)
    2b31:	e8 3a fb ff ff       	call   2670 <usbhid_parse_scancode>
    2b36:	89 c7                	mov    %eax,%edi
    2b38:	83 f8 49             	cmp    $0x49,%eax
    2b3b:	0f 85 4f 01 00 00    	jne    2c90 <usb_kbd_check_key_changes.isra.2+0x2d0>
    2b41:	89 7c 24 10          	mov    %edi,0x10(%esp)
    2b45:	c7 44 24 0c 00 00 00 	movl   $0x0,0xc(%esp)
    2b4c:	00 
    2b4d:	c7 44 24 08 d8 28 03 	movl   $0x328d8,0x8(%esp)
    2b54:	00 
    2b55:	c7 44 24 04 05 00 00 	movl   $0x5,0x4(%esp)
    2b5c:	00 
    2b5d:	c7 04 24 ff ff ff ff 	movl   $0xffffffff,(%esp)
    2b64:	e8 a7 af 01 00       	call   1db10 <log_msg>
    2b69:	8b 95 e4 fd ff ff    	mov    -0x21c(%ebp),%edx
    2b6f:	8b 42 1c             	mov    0x1c(%edx),%eax
    2b72:	85 c0                	test   %eax,%eax
    2b74:	0f 84 d8 01 00 00    	je     2d52 <usb_kbd_check_key_changes.isra.2+0x392>
    2b7a:	89 04 24             	mov    %eax,(%esp)
    2b7d:	e8 6e 35 02 00       	call   260f0 <async_exchange_begin>
    2b82:	85 c0                	test   %eax,%eax
    2b84:	0f 84 a7 01 00 00    	je     2d31 <usb_kbd_check_key_changes.isra.2+0x371>
    2b8a:	89 04 24             	mov    %eax,(%esp)
    2b8d:	89 7c 24 0c          	mov    %edi,0xc(%esp)
    2b91:	c7 44 24 08 00 00 00 	movl   $0x0,0x8(%esp)
    2b98:	00 
    2b99:	c7 44 24 04 00 04 00 	movl   $0x400,0x4(%esp)
    2ba0:	00 
    2ba1:	89 85 e0 fd ff ff    	mov    %eax,-0x220(%ebp)
    2ba7:	e8 c4 29 02 00       	call   25570 <async_msg_2>
    2bac:	8b 85 e0 fd ff ff    	mov    -0x220(%ebp),%eax
    2bb2:	89 04 24             	mov    %eax,(%esp)
    2bb5:	e8 a6 38 02 00       	call   26460 <async_exchange_end>
    2bba:	89 7c 24 0c          	mov    %edi,0xc(%esp)
    2bbe:	89 5c 24 10          	mov    %ebx,0x10(%esp)
    2bc2:	c7 44 24 08 78 29 03 	movl   $0x32978,0x8(%esp)
    2bc9:	00 
    2bca:	c7 44 24 04 05 00 00 	movl   $0x5,0x4(%esp)
    2bd1:	00 
    2bd2:	c7 04 24 ff ff ff ff 	movl   $0xffffffff,(%esp)
    2bd9:	e8 32 af 01 00       	call   1db10 <log_msg>
    2bde:	8b 85 e4 fd ff ff    	mov    -0x21c(%ebp),%eax
    2be4:	8b 48 08             	mov    0x8(%eax),%ecx
    2be7:	8b 78 04             	mov    0x4(%eax),%edi
    2bea:	8b 50 0c             	mov    0xc(%eax),%edx
    2bed:	46                   	inc    %esi
    2bee:	39 d6                	cmp    %edx,%esi
    2bf0:	0f 82 12 ff ff ff    	jb     2b08 <usb_kbd_check_key_changes.isra.2+0x148>
    2bf6:	c1 e2 02             	shl    $0x2,%edx
    2bf9:	89 4c 24 04          	mov    %ecx,0x4(%esp)
    2bfd:	89 54 24 08          	mov    %edx,0x8(%esp)
    2c01:	89 3c 24             	mov    %edi,(%esp)
    2c04:	e8 47 2b 01 00       	call   15750 <memcpy>
    2c09:	8b 95 e4 fd ff ff    	mov    -0x21c(%ebp),%edx
    2c0f:	c7 44 24 14 00 00 00 	movl   $0x0,0x14(%esp)
    2c16:	00 
    2c17:	8d 9d e8 fd ff ff    	lea    -0x218(%ebp),%ebx
    2c1d:	8b 42 0c             	mov    0xc(%edx),%eax
    2c20:	c7 44 24 0c 04 00 00 	movl   $0x4,0xc(%esp)
    2c27:	00 
    2c28:	89 44 24 10          	mov    %eax,0x10(%esp)
    2c2c:	8b 42 04             	mov    0x4(%edx),%eax
    2c2f:	89 1c 24             	mov    %ebx,(%esp)
    2c32:	89 44 24 08          	mov    %eax,0x8(%esp)
    2c36:	c7 44 24 04 00 02 00 	movl   $0x200,0x4(%esp)
    2c3d:	00 
    2c3e:	e8 7d be 00 00       	call   eac0 <ddf_dump_buffer>
    2c43:	89 5c 24 0c          	mov    %ebx,0xc(%esp)
    2c47:	c7 44 24 08 7d 27 03 	movl   $0x3277d,0x8(%esp)
    2c4e:	00 
    2c4f:	c7 44 24 04 05 00 00 	movl   $0x5,0x4(%esp)
    2c56:	00 
    2c57:	c7 04 24 ff ff ff ff 	movl   $0xffffffff,(%esp)
    2c5e:	e8 ad ae 01 00       	call   1db10 <log_msg>
    2c63:	81 c4 3c 02 00 00    	add    $0x23c,%esp
    2c69:	5b                   	pop    %ebx
    2c6a:	5e                   	pop    %esi
    2c6b:	5f                   	pop    %edi
    2c6c:	5d                   	pop    %ebp
    2c6d:	c3                   	ret    
    2c6e:	66 90                	xchg   %ax,%ax
    2c70:	40                   	inc    %eax
    2c71:	0f 85 7e fe ff ff    	jne    2af5 <usb_kbd_check_key_changes.isra.2+0x135>
    2c77:	e9 ba fd ff ff       	jmp    2a36 <usb_kbd_check_key_changes.isra.2+0x76>
    2c7c:	8d 74 26 00          	lea    0x0(%esi,%eiz,1),%esi
    2c80:	40                   	inc    %eax
    2c81:	0f 85 66 ff ff ff    	jne    2bed <usb_kbd_check_key_changes.isra.2+0x22d>
    2c87:	e9 a2 fe ff ff       	jmp    2b2e <usb_kbd_check_key_changes.isra.2+0x16e>
    2c8c:	8d 74 26 00          	lea    0x0(%esi,%eiz,1),%esi
    2c90:	83 f8 55             	cmp    $0x55,%eax
    2c93:	0f 84 a8 fe ff ff    	je     2b41 <usb_kbd_check_key_changes.isra.2+0x181>
    2c99:	83 f8 1c             	cmp    $0x1c,%eax
    2c9c:	0f 84 9f fe ff ff    	je     2b41 <usb_kbd_check_key_changes.isra.2+0x181>
    2ca2:	89 44 24 04          	mov    %eax,0x4(%esp)
    2ca6:	8b 85 e4 fd ff ff    	mov    -0x21c(%ebp),%eax
    2cac:	89 04 24             	mov    %eax,(%esp)
    2caf:	e8 9c 0d 00 00       	call   3a50 <usb_kbd_repeat_start>
    2cb4:	e9 88 fe ff ff       	jmp    2b41 <usb_kbd_check_key_changes.isra.2+0x181>
    2cb9:	83 f8 55             	cmp    $0x55,%eax
    2cbc:	0f 84 87 fd ff ff    	je     2a49 <usb_kbd_check_key_changes.isra.2+0x89>
    2cc2:	83 f8 1c             	cmp    $0x1c,%eax
    2cc5:	0f 84 7e fd ff ff    	je     2a49 <usb_kbd_check_key_changes.isra.2+0x89>
    2ccb:	89 44 24 04          	mov    %eax,0x4(%esp)
    2ccf:	8b 85 e4 fd ff ff    	mov    -0x21c(%ebp),%eax
    2cd5:	89 04 24             	mov    %eax,(%esp)
    2cd8:	e8 a3 0d 00 00       	call   3a80 <usb_kbd_repeat_stop>
    2cdd:	e9 67 fd ff ff       	jmp    2a49 <usb_kbd_check_key_changes.isra.2+0x89>
    2ce2:	40                   	inc    %eax
    2ce3:	0f 84 16 fd ff ff    	je     29ff <usb_kbd_check_key_changes.isra.2+0x3f>
    2ce9:	c7 44 24 08 64 27 03 	movl   $0x32764,0x8(%esp)
    2cf0:	00 
    2cf1:	c7 44 24 04 01 00 00 	movl   $0x1,0x4(%esp)
    2cf8:	00 
    2cf9:	c7 04 24 ff ff ff ff 	movl   $0xffffffff,(%esp)
    2d00:	e8 0b ae 01 00       	call   1db10 <log_msg>
    2d05:	81 c4 3c 02 00 00    	add    $0x23c,%esp
    2d0b:	5b                   	pop    %ebx
    2d0c:	5e                   	pop    %esi
    2d0d:	5f                   	pop    %edi
    2d0e:	5d                   	pop    %ebp
    2d0f:	c3                   	ret    
    2d10:	c7 44 24 08 38 29 03 	movl   $0x32938,0x8(%esp)
    2d17:	00 
    2d18:	c7 44 24 04 02 00 00 	movl   $0x2,0x4(%esp)
    2d1f:	00 
    2d20:	c7 04 24 ff ff ff ff 	movl   $0xffffffff,(%esp)
    2d27:	e8 e4 ad 01 00       	call   1db10 <log_msg>
    2d2c:	e9 91 fd ff ff       	jmp    2ac2 <usb_kbd_check_key_changes.isra.2+0x102>
    2d31:	c7 44 24 08 38 29 03 	movl   $0x32938,0x8(%esp)
    2d38:	00 
    2d39:	c7 44 24 04 02 00 00 	movl   $0x2,0x4(%esp)
    2d40:	00 
    2d41:	c7 04 24 ff ff ff ff 	movl   $0xffffffff,(%esp)
    2d48:	e8 c3 ad 01 00       	call   1db10 <log_msg>
    2d4d:	e9 68 fe ff ff       	jmp    2bba <usb_kbd_check_key_changes.isra.2+0x1fa>
    2d52:	c7 44 24 08 04 29 03 	movl   $0x32904,0x8(%esp)
    2d59:	00 
    2d5a:	c7 44 24 04 02 00 00 	movl   $0x2,0x4(%esp)
    2d61:	00 
    2d62:	c7 04 24 ff ff ff ff 	movl   $0xffffffff,(%esp)
    2d69:	e8 a2 ad 01 00       	call   1db10 <log_msg>
    2d6e:	e9 47 fe ff ff       	jmp    2bba <usb_kbd_check_key_changes.isra.2+0x1fa>
    2d73:	c7 44 24 08 04 29 03 	movl   $0x32904,0x8(%esp)
    2d7a:	00 
    2d7b:	c7 44 24 04 02 00 00 	movl   $0x2,0x4(%esp)
    2d82:	00 
    2d83:	c7 04 24 ff ff ff ff 	movl   $0xffffffff,(%esp)
    2d8a:	e8 81 ad 01 00       	call   1db10 <log_msg>
    2d8f:	e9 2e fd ff ff       	jmp    2ac2 <usb_kbd_check_key_changes.isra.2+0x102>
    2d94:	8b 78 04             	mov    0x4(%eax),%edi
    2d97:	e9 5a fe ff ff       	jmp    2bf6 <usb_kbd_check_key_changes.isra.2+0x236>
    2d9c:	8d 74 26 00          	lea    0x0(%esi,%eiz,1),%esi

00002da0 <usb_kbd_push_ev>:
    2da0:	55                   	push   %ebp
    2da1:	89 e5                	mov    %esp,%ebp
    2da3:	57                   	push   %edi
    2da4:	56                   	push   %esi
    2da5:	53                   	push   %ebx
    2da6:	83 ec 2c             	sub    $0x2c,%esp
    2da9:	8b 5d 08             	mov    0x8(%ebp),%ebx
    2dac:	8b 75 0c             	mov    0xc(%ebp),%esi
    2daf:	8b 7d 10             	mov    0x10(%ebp),%edi
    2db2:	89 74 24 0c          	mov    %esi,0xc(%esp)
    2db6:	89 7c 24 10          	mov    %edi,0x10(%esp)
    2dba:	c7 44 24 08 d8 28 03 	movl   $0x328d8,0x8(%esp)
    2dc1:	00 
    2dc2:	c7 44 24 04 05 00 00 	movl   $0x5,0x4(%esp)
    2dc9:	00 
    2dca:	c7 04 24 ff ff ff ff 	movl   $0xffffffff,(%esp)
    2dd1:	e8 3a ad 01 00       	call   1db10 <log_msg>
    2dd6:	8b 43 1c             	mov    0x1c(%ebx),%eax
    2dd9:	85 c0                	test   %eax,%eax
    2ddb:	74 63                	je     2e40 <usb_kbd_push_ev+0xa0>
    2ddd:	89 04 24             	mov    %eax,(%esp)
    2de0:	e8 0b 33 02 00       	call   260f0 <async_exchange_begin>
    2de5:	89 c3                	mov    %eax,%ebx
    2de7:	85 c0                	test   %eax,%eax
    2de9:	74 2d                	je     2e18 <usb_kbd_push_ev+0x78>
    2deb:	89 7c 24 0c          	mov    %edi,0xc(%esp)
    2def:	89 74 24 08          	mov    %esi,0x8(%esp)
    2df3:	c7 44 24 04 00 04 00 	movl   $0x400,0x4(%esp)
    2dfa:	00 
    2dfb:	89 04 24             	mov    %eax,(%esp)
    2dfe:	e8 6d 27 02 00       	call   25570 <async_msg_2>
    2e03:	89 5d 08             	mov    %ebx,0x8(%ebp)
    2e06:	83 c4 2c             	add    $0x2c,%esp
    2e09:	5b                   	pop    %ebx
    2e0a:	5e                   	pop    %esi
    2e0b:	5f                   	pop    %edi
    2e0c:	5d                   	pop    %ebp
    2e0d:	e9 4e 36 02 00       	jmp    26460 <async_exchange_end>
    2e12:	8d b6 00 00 00 00    	lea    0x0(%esi),%esi
    2e18:	c7 45 10 38 29 03 00 	movl   $0x32938,0x10(%ebp)
    2e1f:	c7 45 0c 02 00 00 00 	movl   $0x2,0xc(%ebp)
    2e26:	c7 45 08 ff ff ff ff 	movl   $0xffffffff,0x8(%ebp)
    2e2d:	83 c4 2c             	add    $0x2c,%esp
    2e30:	5b                   	pop    %ebx
    2e31:	5e                   	pop    %esi
    2e32:	5f                   	pop    %edi
    2e33:	5d                   	pop    %ebp
    2e34:	e9 d7 ac 01 00       	jmp    1db10 <log_msg>
    2e39:	8d b4 26 00 00 00 00 	lea    0x0(%esi,%eiz,1),%esi
    2e40:	c7 45 10 04 29 03 00 	movl   $0x32904,0x10(%ebp)
    2e47:	eb d6                	jmp    2e1f <usb_kbd_push_ev+0x7f>
    2e49:	8d b4 26 00 00 00 00 	lea    0x0(%esi,%eiz,1),%esi

00002e50 <usb_kbd_polling_callback>:
    2e50:	55                   	push   %ebp
    2e51:	89 e5                	mov    %esp,%ebp
    2e53:	57                   	push   %edi
    2e54:	56                   	push   %esi
    2e55:	53                   	push   %ebx
    2e56:	83 ec 3c             	sub    $0x3c,%esp
    2e59:	8b 7d 0c             	mov    0xc(%ebp),%edi
    2e5c:	85 ff                	test   %edi,%edi
    2e5e:	75 10                	jne    2e70 <usb_kbd_polling_callback+0x20>
    2e60:	31 c0                	xor    %eax,%eax
    2e62:	83 c4 3c             	add    $0x3c,%esp
    2e65:	5b                   	pop    %ebx
    2e66:	5e                   	pop    %esi
    2e67:	5f                   	pop    %edi
    2e68:	5d                   	pop    %ebp
    2e69:	c3                   	ret    
    2e6a:	8d b6 00 00 00 00    	lea    0x0(%esi),%esi
    2e70:	8b 4d 08             	mov    0x8(%ebp),%ecx
    2e73:	85 c9                	test   %ecx,%ecx
    2e75:	74 e9                	je     2e60 <usb_kbd_polling_callback+0x10>
    2e77:	e8 94 46 00 00       	call   7510 <usb_hid_report_path>
    2e7c:	89 45 e0             	mov    %eax,-0x20(%ebp)
    2e7f:	85 c0                	test   %eax,%eax
    2e81:	0f 84 7f 01 00 00    	je     3006 <usb_kbd_polling_callback+0x1b6>
    2e87:	c7 44 24 08 00 00 00 	movl   $0x0,0x8(%esp)
    2e8e:	00 
    2e8f:	c7 44 24 04 07 00 00 	movl   $0x7,0x4(%esp)
    2e96:	00 
    2e97:	89 04 24             	mov    %eax,(%esp)
    2e9a:	e8 71 41 00 00       	call   7010 <usb_hid_report_path_append_item>
    2e9f:	85 c0                	test   %eax,%eax
    2ea1:	0f 85 39 01 00 00    	jne    2fe0 <usb_kbd_polling_callback+0x190>
    2ea7:	8b 55 08             	mov    0x8(%ebp),%edx
    2eaa:	31 c0                	xor    %eax,%eax
    2eac:	31 f6                	xor    %esi,%esi
    2eae:	8a 42 38             	mov    0x38(%edx),%al
    2eb1:	89 44 24 04          	mov    %eax,0x4(%esp)
    2eb5:	8b 45 e0             	mov    -0x20(%ebp),%eax
    2eb8:	89 04 24             	mov    %eax,(%esp)
    2ebb:	e8 00 48 00 00       	call   76c0 <usb_hid_report_path_set_report_id>
    2ec0:	8b 55 08             	mov    0x8(%ebp),%edx
    2ec3:	83 c2 18             	add    $0x18,%edx
    2ec6:	8b 45 e0             	mov    -0x20(%ebp),%eax
    2ec9:	c7 44 24 10 01 00 00 	movl   $0x1,0x10(%esp)
    2ed0:	00 
    2ed1:	c7 44 24 0c 03 00 00 	movl   $0x3,0xc(%esp)
    2ed8:	00 
    2ed9:	89 44 24 08          	mov    %eax,0x8(%esp)
    2edd:	c7 44 24 04 00 00 00 	movl   $0x0,0x4(%esp)
    2ee4:	00 
    2ee5:	89 14 24             	mov    %edx,(%esp)
    2ee8:	89 55 e4             	mov    %edx,-0x1c(%ebp)
    2eeb:	e8 40 3f 00 00       	call   6e30 <usb_hid_report_get_sibling>
    2ef0:	89 c3                	mov    %eax,%ebx
    2ef2:	85 c0                	test   %eax,%eax
    2ef4:	75 6b                	jne    2f61 <usb_kbd_polling_callback+0x111>
    2ef6:	e9 c5 00 00 00       	jmp    2fc0 <usb_kbd_polling_callback+0x170>
    2efb:	90                   	nop
    2efc:	8d 74 26 00          	lea    0x0(%esi,%eiz,1),%esi
    2f00:	66 8b 4b 0a          	mov    0xa(%ebx),%cx
    2f04:	81 e1 ff ff 00 00    	and    $0xffff,%ecx
    2f0a:	89 0c 02             	mov    %ecx,(%edx,%eax,1)
    2f0d:	8b 04 02             	mov    (%edx,%eax,1),%eax
    2f10:	89 74 24 0c          	mov    %esi,0xc(%esp)
    2f14:	89 44 24 10          	mov    %eax,0x10(%esp)
    2f18:	c7 44 24 08 b2 27 03 	movl   $0x327b2,0x8(%esp)
    2f1f:	00 
    2f20:	c7 44 24 04 05 00 00 	movl   $0x5,0x4(%esp)
    2f27:	00 
    2f28:	c7 04 24 ff ff ff ff 	movl   $0xffffffff,(%esp)
    2f2f:	e8 dc ab 01 00       	call   1db10 <log_msg>
    2f34:	8b 45 e0             	mov    -0x20(%ebp),%eax
    2f37:	8b 55 e4             	mov    -0x1c(%ebp),%edx
    2f3a:	89 5c 24 04          	mov    %ebx,0x4(%esp)
    2f3e:	c7 44 24 10 01 00 00 	movl   $0x1,0x10(%esp)
    2f45:	00 
    2f46:	c7 44 24 0c 03 00 00 	movl   $0x3,0xc(%esp)
    2f4d:	00 
    2f4e:	89 44 24 08          	mov    %eax,0x8(%esp)
    2f52:	89 14 24             	mov    %edx,(%esp)
    2f55:	e8 d6 3e 00 00       	call   6e30 <usb_hid_report_get_sibling>
    2f5a:	46                   	inc    %esi
    2f5b:	89 c3                	mov    %eax,%ebx
    2f5d:	85 c0                	test   %eax,%eax
    2f5f:	74 5f                	je     2fc0 <usb_kbd_polling_callback+0x170>
    2f61:	66 8b 43 0a          	mov    0xa(%ebx),%ax
    2f65:	25 ff ff 00 00       	and    $0xffff,%eax
    2f6a:	89 44 24 14          	mov    %eax,0x14(%esp)
    2f6e:	8b 43 3c             	mov    0x3c(%ebx),%eax
    2f71:	89 5c 24 0c          	mov    %ebx,0xc(%esp)
    2f75:	89 44 24 10          	mov    %eax,0x10(%esp)
    2f79:	c7 44 24 08 ec 29 03 	movl   $0x329ec,0x8(%esp)
    2f80:	00 
    2f81:	c7 44 24 04 05 00 00 	movl   $0x5,0x4(%esp)
    2f88:	00 
    2f89:	c7 04 24 ff ff ff ff 	movl   $0xffffffff,(%esp)
    2f90:	e8 7b ab 01 00       	call   1db10 <log_msg>
    2f95:	39 77 0c             	cmp    %esi,0xc(%edi)
    2f98:	0f 86 8b 00 00 00    	jbe    3029 <usb_kbd_polling_callback+0x1d9>
    2f9e:	8b 53 3c             	mov    0x3c(%ebx),%edx
    2fa1:	8d 04 b5 00 00 00 00 	lea    0x0(,%esi,4),%eax
    2fa8:	85 d2                	test   %edx,%edx
    2faa:	8b 57 08             	mov    0x8(%edi),%edx
    2fad:	0f 85 4d ff ff ff    	jne    2f00 <usb_kbd_polling_callback+0xb0>
    2fb3:	c7 04 02 00 00 00 00 	movl   $0x0,(%edx,%eax,1)
    2fba:	e9 4e ff ff ff       	jmp    2f0d <usb_kbd_polling_callback+0xbd>
    2fbf:	90                   	nop
    2fc0:	8b 45 e0             	mov    -0x20(%ebp),%eax
    2fc3:	89 04 24             	mov    %eax,(%esp)
    2fc6:	e8 85 45 00 00       	call   7550 <usb_hid_report_path_free>
    2fcb:	89 f8                	mov    %edi,%eax
    2fcd:	e8 ee f9 ff ff       	call   29c0 <usb_kbd_check_key_changes.isra.2>
    2fd2:	83 c4 3c             	add    $0x3c,%esp
    2fd5:	b0 01                	mov    $0x1,%al
    2fd7:	5b                   	pop    %ebx
    2fd8:	5e                   	pop    %esi
    2fd9:	5f                   	pop    %edi
    2fda:	5d                   	pop    %ebp
    2fdb:	c3                   	ret    
    2fdc:	8d 74 26 00          	lea    0x0(%esi,%eiz,1),%esi
    2fe0:	c7 44 24 08 c0 29 03 	movl   $0x329c0,0x8(%esp)
    2fe7:	00 
    2fe8:	c7 44 24 04 01 00 00 	movl   $0x1,0x4(%esp)
    2fef:	00 
    2ff0:	c7 04 24 ff ff ff ff 	movl   $0xffffffff,(%esp)
    2ff7:	e8 14 ab 01 00       	call   1db10 <log_msg>
    2ffc:	83 c4 3c             	add    $0x3c,%esp
    2fff:	b0 01                	mov    $0x1,%al
    3001:	5b                   	pop    %ebx
    3002:	5e                   	pop    %esi
    3003:	5f                   	pop    %edi
    3004:	5d                   	pop    %ebp
    3005:	c3                   	ret    
    3006:	c7 44 24 08 98 29 03 	movl   $0x32998,0x8(%esp)
    300d:	00 
    300e:	c7 44 24 04 01 00 00 	movl   $0x1,0x4(%esp)
    3015:	00 
    3016:	c7 04 24 ff ff ff ff 	movl   $0xffffffff,(%esp)
    301d:	e8 ee aa 01 00       	call   1db10 <log_msg>
    3022:	b0 01                	mov    $0x1,%al
    3024:	e9 39 fe ff ff       	jmp    2e62 <usb_kbd_polling_callback+0x12>
    3029:	c7 44 24 08 ca 01 00 	movl   $0x1ca,0x8(%esp)
    3030:	00 
    3031:	c7 44 24 04 8e 27 03 	movl   $0x3278e,0x4(%esp)
    3038:	00 
    3039:	c7 04 24 9b 27 03 00 	movl   $0x3279b,(%esp)
    3040:	e8 cb a3 02 00       	call   2d410 <assert_abort>
    3045:	8d 74 26 00          	lea    0x0(%esi,%eiz,1),%esi
    3049:	8d bc 27 00 00 00 00 	lea    0x0(%edi,%eiz,1),%edi

00003050 <usb_kbd_is_initialized>:
    3050:	55                   	push   %ebp
    3051:	89 e5                	mov    %esp,%ebp
    3053:	8b 45 08             	mov    0x8(%ebp),%eax
    3056:	5d                   	pop    %ebp
    3057:	83 78 54 01          	cmpl   $0x1,0x54(%eax)
    305b:	0f 94 c0             	sete   %al
    305e:	25 ff 00 00 00       	and    $0xff,%eax
    3063:	c3                   	ret    
    3064:	8d b6 00 00 00 00    	lea    0x0(%esi),%esi
    306a:	8d bf 00 00 00 00    	lea    0x0(%edi),%edi

00003070 <usb_kbd_is_ready_to_destroy>:
    3070:	55                   	push   %ebp
    3071:	89 e5                	mov    %esp,%ebp
    3073:	8b 45 08             	mov    0x8(%ebp),%eax
    3076:	5d                   	pop    %ebp
    3077:	83 78 54 ff          	cmpl   $0xffffffff,0x54(%eax)
    307b:	0f 94 c0             	sete   %al
    307e:	25 ff 00 00 00       	and    $0xff,%eax
    3083:	c3                   	ret    
    3084:	8d b6 00 00 00 00    	lea    0x0(%esi),%esi
    308a:	8d bf 00 00 00 00    	lea    0x0(%edi),%edi

00003090 <usb_kbd_destroy>:
    3090:	55                   	push   %ebp
    3091:	89 e5                	mov    %esp,%ebp
    3093:	56                   	push   %esi
    3094:	53                   	push   %ebx
    3095:	83 ec 10             	sub    $0x10,%esp
    3098:	8b 75 08             	mov    0x8(%ebp),%esi
    309b:	85 f6                	test   %esi,%esi
    309d:	0f 84 d2 00 00 00    	je     3175 <usb_kbd_destroy+0xe5>
    30a3:	8b 46 1c             	mov    0x1c(%esi),%eax
    30a6:	85 c0                	test   %eax,%eax
    30a8:	74 08                	je     30b2 <usb_kbd_destroy+0x22>
    30aa:	89 04 24             	mov    %eax,(%esp)
    30ad:	e8 3e 2f 02 00       	call   25ff0 <async_hangup>
    30b2:	8d 5e 30             	lea    0x30(%esi),%ebx
    30b5:	8d 76 00             	lea    0x0(%esi),%esi
    30b8:	89 1c 24             	mov    %ebx,(%esp)
    30bb:	e8 a0 69 01 00       	call   19a60 <fibril_mutex_is_locked>
    30c0:	84 c0                	test   %al,%al
    30c2:	75 f4                	jne    30b8 <usb_kbd_destroy+0x28>
    30c4:	8b 46 08             	mov    0x8(%esi),%eax
    30c7:	89 04 24             	mov    %eax,(%esp)
    30ca:	e8 f1 fb 01 00       	call   22cc0 <free>
    30cf:	8b 46 04             	mov    0x4(%esi),%eax
    30d2:	89 04 24             	mov    %eax,(%esp)
    30d5:	e8 e6 fb 01 00       	call   22cc0 <free>
    30da:	8b 46 50             	mov    0x50(%esi),%eax
    30dd:	89 04 24             	mov    %eax,(%esp)
    30e0:	e8 db fb 01 00       	call   22cc0 <free>
    30e5:	8b 46 4c             	mov    0x4c(%esi),%eax
    30e8:	89 04 24             	mov    %eax,(%esp)
    30eb:	e8 60 44 00 00       	call   7550 <usb_hid_report_path_free>
    30f0:	8b 46 40             	mov    0x40(%esi),%eax
    30f3:	89 04 24             	mov    %eax,(%esp)
    30f6:	e8 65 39 00 00       	call   6a60 <usb_hid_report_output_free>
    30fb:	8b 46 58             	mov    0x58(%esi),%eax
    30fe:	85 c0                	test   %eax,%eax
    3100:	74 73                	je     3175 <usb_kbd_destroy+0xe5>
    3102:	89 04 24             	mov    %eax,(%esp)
    3105:	e8 06 b3 00 00       	call   e410 <ddf_fun_unbind>
    310a:	85 c0                	test   %eax,%eax
    310c:	8b 46 58             	mov    0x58(%esi),%eax
    310f:	89 04 24             	mov    %eax,(%esp)
    3112:	75 3c                	jne    3150 <usb_kbd_destroy+0xc0>
    3114:	e8 c7 b0 00 00       	call   e1e0 <ddf_fun_get_name>
    3119:	c7 44 24 08 cb 26 03 	movl   $0x326cb,0x8(%esp)
    3120:	00 
    3121:	89 44 24 0c          	mov    %eax,0xc(%esp)
    3125:	c7 44 24 04 05 00 00 	movl   $0x5,0x4(%esp)
    312c:	00 
    312d:	c7 04 24 ff ff ff ff 	movl   $0xffffffff,(%esp)
    3134:	e8 d7 a9 01 00       	call   1db10 <log_msg>
    3139:	8b 46 58             	mov    0x58(%esi),%eax
    313c:	89 45 08             	mov    %eax,0x8(%ebp)
    313f:	83 c4 10             	add    $0x10,%esp
    3142:	5b                   	pop    %ebx
    3143:	5e                   	pop    %esi
    3144:	5d                   	pop    %ebp
    3145:	e9 a6 b0 00 00       	jmp    e1f0 <ddf_fun_destroy>
    314a:	8d b6 00 00 00 00    	lea    0x0(%esi),%esi
    3150:	e8 8b b0 00 00       	call   e1e0 <ddf_fun_get_name>
    3155:	c7 44 24 08 ca 27 03 	movl   $0x327ca,0x8(%esp)
    315c:	00 
    315d:	89 44 24 0c          	mov    %eax,0xc(%esp)
    3161:	c7 44 24 04 02 00 00 	movl   $0x2,0x4(%esp)
    3168:	00 
    3169:	c7 04 24 ff ff ff ff 	movl   $0xffffffff,(%esp)
    3170:	e8 9b a9 01 00       	call   1db10 <log_msg>
    3175:	83 c4 10             	add    $0x10,%esp
    3178:	5b                   	pop    %ebx
    3179:	5e                   	pop    %esi
    317a:	5d                   	pop    %ebp
    317b:	c3                   	ret    
    317c:	8d 74 26 00          	lea    0x0(%esi,%eiz,1),%esi

00003180 <usb_kbd_init>:
    3180:	55                   	push   %ebp
    3181:	89 e5                	mov    %esp,%ebp
    3183:	57                   	push   %edi
    3184:	56                   	push   %esi
    3185:	53                   	push   %ebx
    3186:	83 ec 3c             	sub    $0x3c,%esp
    3189:	c7 44 24 08 10 2a 03 	movl   $0x32a10,0x8(%esp)
    3190:	00 
    3191:	c7 44 24 04 04 00 00 	movl   $0x4,0x4(%esp)
    3198:	00 
    3199:	c7 04 24 ff ff ff ff 	movl   $0xffffffff,(%esp)
    31a0:	e8 6b a9 01 00       	call   1db10 <log_msg>
    31a5:	8b 45 08             	mov    0x8(%ebp),%eax
    31a8:	85 c0                	test   %eax,%eax
    31aa:	0f 84 e5 04 00 00    	je     3695 <usb_kbd_init+0x515>
    31b0:	c7 44 24 04 5c 00 00 	movl   $0x5c,0x4(%esp)
    31b7:	00 
    31b8:	c7 04 24 01 00 00 00 	movl   $0x1,(%esp)
    31bf:	e8 8c f9 01 00       	call   22b50 <calloc>
    31c4:	89 c3                	mov    %eax,%ebx
    31c6:	85 c0                	test   %eax,%eax
    31c8:	0f 84 f7 04 00 00    	je     36c5 <usb_kbd_init+0x545>
    31ce:	8d 40 30             	lea    0x30(%eax),%eax
    31d1:	89 04 24             	mov    %eax,(%esp)
    31d4:	e8 37 66 01 00       	call   19810 <fibril_mutex_initialize>
    31d9:	8b 45 08             	mov    0x8(%ebp),%eax
    31dc:	c7 43 54 00 00 00 00 	movl   $0x0,0x54(%ebx)
    31e3:	89 03                	mov    %eax,(%ebx)
    31e5:	c7 43 14 80 00 00 00 	movl   $0x80,0x14(%ebx)
    31ec:	c7 43 28 20 a1 07 00 	movl   $0x7a120,0x28(%ebx)
    31f3:	c7 43 2c 50 c3 00 00 	movl   $0xc350,0x2c(%ebx)
    31fa:	e8 11 43 00 00       	call   7510 <usb_hid_report_path>
    31ff:	89 c6                	mov    %eax,%esi
    3201:	85 c0                	test   %eax,%eax
    3203:	0f 84 b2 04 00 00    	je     36bb <usb_kbd_init+0x53b>
    3209:	c7 44 24 08 00 00 00 	movl   $0x0,0x8(%esp)
    3210:	00 
    3211:	c7 44 24 04 07 00 00 	movl   $0x7,0x4(%esp)
    3218:	00 
    3219:	89 04 24             	mov    %eax,(%esp)
    321c:	e8 ef 3d 00 00       	call   7010 <usb_hid_report_path_append_item>
    3221:	89 c7                	mov    %eax,%edi
    3223:	85 c0                	test   %eax,%eax
    3225:	0f 85 4d 03 00 00    	jne    3578 <usb_kbd_init+0x3f8>
    322b:	c7 44 24 04 00 00 00 	movl   $0x0,0x4(%esp)
    3232:	00 
    3233:	89 34 24             	mov    %esi,(%esp)
    3236:	e8 85 44 00 00       	call   76c0 <usb_hid_report_path_set_report_id>
    323b:	8b 55 08             	mov    0x8(%ebp),%edx
    323e:	83 c2 18             	add    $0x18,%edx
    3241:	c7 44 24 08 01 00 00 	movl   $0x1,0x8(%esp)
    3248:	00 
    3249:	89 14 24             	mov    %edx,(%esp)
    324c:	c7 44 24 04 00 00 00 	movl   $0x0,0x4(%esp)
    3253:	00 
    3254:	89 55 e4             	mov    %edx,-0x1c(%ebp)
    3257:	e8 84 33 00 00       	call   65e0 <usb_hid_report_size>
    325c:	89 34 24             	mov    %esi,(%esp)
    325f:	89 43 0c             	mov    %eax,0xc(%ebx)
    3262:	e8 e9 42 00 00       	call   7550 <usb_hid_report_path_free>
    3267:	8b 43 0c             	mov    0xc(%ebx),%eax
    326a:	89 44 24 0c          	mov    %eax,0xc(%esp)
    326e:	c7 44 24 08 e8 2a 03 	movl   $0x32ae8,0x8(%esp)
    3275:	00 
    3276:	c7 44 24 04 04 00 00 	movl   $0x4,0x4(%esp)
    327d:	00 
    327e:	c7 04 24 ff ff ff ff 	movl   $0xffffffff,(%esp)
    3285:	e8 86 a8 01 00       	call   1db10 <log_msg>
    328a:	8b 43 0c             	mov    0xc(%ebx),%eax
    328d:	c7 44 24 04 04 00 00 	movl   $0x4,0x4(%esp)
    3294:	00 
    3295:	89 04 24             	mov    %eax,(%esp)
    3298:	e8 b3 f8 01 00       	call   22b50 <calloc>
    329d:	89 43 08             	mov    %eax,0x8(%ebx)
    32a0:	85 c0                	test   %eax,%eax
    32a2:	0f 84 43 04 00 00    	je     36eb <usb_kbd_init+0x56b>
    32a8:	8b 43 0c             	mov    0xc(%ebx),%eax
    32ab:	c7 44 24 04 04 00 00 	movl   $0x4,0x4(%esp)
    32b2:	00 
    32b3:	89 04 24             	mov    %eax,(%esp)
    32b6:	e8 95 f8 01 00       	call   22b50 <calloc>
    32bb:	89 43 04             	mov    %eax,0x4(%ebx)
    32be:	85 c0                	test   %eax,%eax
    32c0:	0f 84 32 04 00 00    	je     36f8 <usb_kbd_init+0x578>
    32c6:	8d 43 44             	lea    0x44(%ebx),%eax
    32c9:	8b 55 e4             	mov    -0x1c(%ebp),%edx
    32cc:	c7 44 24 08 00 00 00 	movl   $0x0,0x8(%esp)
    32d3:	00 
    32d4:	89 44 24 04          	mov    %eax,0x4(%esp)
    32d8:	89 14 24             	mov    %edx,(%esp)
    32db:	c7 43 44 00 00 00 00 	movl   $0x0,0x44(%ebx)
    32e2:	e8 f9 36 00 00       	call   69e0 <usb_hid_report_output>
    32e7:	89 43 40             	mov    %eax,0x40(%ebx)
    32ea:	85 c0                	test   %eax,%eax
    32ec:	0f 84 20 04 00 00    	je     3712 <usb_kbd_init+0x592>
    32f2:	8b 43 44             	mov    0x44(%ebx),%eax
    32f5:	c7 44 24 08 e0 27 03 	movl   $0x327e0,0x8(%esp)
    32fc:	00 
    32fd:	89 44 24 0c          	mov    %eax,0xc(%esp)
    3301:	c7 44 24 04 04 00 00 	movl   $0x4,0x4(%esp)
    3308:	00 
    3309:	c7 04 24 ff ff ff ff 	movl   $0xffffffff,(%esp)
    3310:	e8 fb a7 01 00       	call   1db10 <log_msg>
    3315:	e8 f6 41 00 00       	call   7510 <usb_hid_report_path>
    331a:	89 43 4c             	mov    %eax,0x4c(%ebx)
    331d:	85 c0                	test   %eax,%eax
    331f:	0f 84 e0 03 00 00    	je     3705 <usb_kbd_init+0x585>
    3325:	c7 44 24 08 00 00 00 	movl   $0x0,0x8(%esp)
    332c:	00 
    332d:	c7 44 24 04 08 00 00 	movl   $0x8,0x4(%esp)
    3334:	00 
    3335:	89 04 24             	mov    %eax,(%esp)
    3338:	e8 d3 3c 00 00       	call   7010 <usb_hid_report_path_append_item>
    333d:	89 c7                	mov    %eax,%edi
    333f:	85 c0                	test   %eax,%eax
    3341:	0f 85 01 02 00 00    	jne    3548 <usb_kbd_init+0x3c8>
    3347:	8b 55 e4             	mov    -0x1c(%ebp),%edx
    334a:	c7 44 24 08 02 00 00 	movl   $0x2,0x8(%esp)
    3351:	00 
    3352:	89 14 24             	mov    %edx,(%esp)
    3355:	c7 44 24 04 00 00 00 	movl   $0x0,0x4(%esp)
    335c:	00 
    335d:	e8 7e 32 00 00       	call   65e0 <usb_hid_report_size>
    3362:	c7 44 24 08 c8 2b 03 	movl   $0x32bc8,0x8(%esp)
    3369:	00 
    336a:	89 44 24 0c          	mov    %eax,0xc(%esp)
    336e:	c7 44 24 04 04 00 00 	movl   $0x4,0x4(%esp)
    3375:	00 
    3376:	c7 04 24 ff ff ff ff 	movl   $0xffffffff,(%esp)
    337d:	89 43 48             	mov    %eax,0x48(%ebx)
    3380:	e8 8b a7 01 00       	call   1db10 <log_msg>
    3385:	8b 43 48             	mov    0x48(%ebx),%eax
    3388:	c7 44 24 04 04 00 00 	movl   $0x4,0x4(%esp)
    338f:	00 
    3390:	89 04 24             	mov    %eax,(%esp)
    3393:	e8 b8 f7 01 00       	call   22b50 <calloc>
    3398:	89 43 50             	mov    %eax,0x50(%ebx)
    339b:	85 c0                	test   %eax,%eax
    339d:	0f 84 7c 03 00 00    	je     371f <usb_kbd_init+0x59f>
    33a3:	8b 7b 44             	mov    0x44(%ebx),%edi
    33a6:	85 ff                	test   %edi,%edi
    33a8:	74 0a                	je     33b4 <usb_kbd_init+0x234>
    33aa:	89 da                	mov    %ebx,%edx
    33ac:	8b 45 08             	mov    0x8(%ebp),%eax
    33af:	e8 ec f2 ff ff       	call   26a0 <usb_kbd_set_led.part.0>
    33b4:	8b 55 08             	mov    0x8(%ebp),%edx
    33b7:	8b 02                	mov    (%edx),%eax
    33b9:	c7 44 24 08 00 00 00 	movl   $0x0,0x8(%esp)
    33c0:	00 
    33c1:	8b 50 44             	mov    0x44(%eax),%edx
    33c4:	83 c0 24             	add    $0x24,%eax
    33c7:	89 54 24 04          	mov    %edx,0x4(%esp)
    33cb:	89 04 24             	mov    %eax,(%esp)
    33ce:	e8 6d 49 00 00       	call   7d40 <usbhid_req_set_idle>
    33d3:	8b 45 0c             	mov    0xc(%ebp),%eax
    33d6:	89 18                	mov    %ebx,(%eax)
    33d8:	c7 44 24 08 1c 2c 03 	movl   $0x32c1c,0x8(%esp)
    33df:	00 
    33e0:	c7 44 24 04 04 00 00 	movl   $0x4,0x4(%esp)
    33e7:	00 
    33e8:	c7 04 24 ff ff ff ff 	movl   $0xffffffff,(%esp)
    33ef:	c7 43 54 01 00 00 00 	movl   $0x1,0x54(%ebx)
    33f6:	e8 15 a7 01 00       	call   1db10 <log_msg>
    33fb:	c7 44 24 08 f9 27 03 	movl   $0x327f9,0x8(%esp)
    3402:	00 
    3403:	c7 44 24 04 04 00 00 	movl   $0x4,0x4(%esp)
    340a:	00 
    340b:	c7 04 24 ff ff ff ff 	movl   $0xffffffff,(%esp)
    3412:	e8 f9 a6 01 00       	call   1db10 <log_msg>
    3417:	8b 03                	mov    (%ebx),%eax
    3419:	85 c0                	test   %eax,%eax
    341b:	0f 84 4d 03 00 00    	je     376e <usb_kbd_init+0x5ee>
    3421:	8b 30                	mov    (%eax),%esi
    3423:	85 f6                	test   %esi,%esi
    3425:	0f 84 27 03 00 00    	je     3752 <usb_kbd_init+0x5d2>
    342b:	a1 84 96 03 00       	mov    0x39684,%eax
    3430:	c7 44 24 08 d8 26 03 	movl   $0x326d8,0x8(%esp)
    3437:	00 
    3438:	89 44 24 0c          	mov    %eax,0xc(%esp)
    343c:	c7 44 24 04 04 00 00 	movl   $0x4,0x4(%esp)
    3443:	00 
    3444:	c7 04 24 ff ff ff ff 	movl   $0xffffffff,(%esp)
    344b:	e8 c0 a6 01 00       	call   1db10 <log_msg>
    3450:	a1 84 96 03 00       	mov    0x39684,%eax
    3455:	89 44 24 08          	mov    %eax,0x8(%esp)
    3459:	8b 03                	mov    (%ebx),%eax
    345b:	c7 44 24 04 02 00 00 	movl   $0x2,0x4(%esp)
    3462:	00 
    3463:	8b 00                	mov    (%eax),%eax
    3465:	8b 40 70             	mov    0x70(%eax),%eax
    3468:	89 04 24             	mov    %eax,(%esp)
    346b:	e8 00 ac 00 00       	call   e070 <ddf_fun_create>
    3470:	89 c6                	mov    %eax,%esi
    3472:	85 c0                	test   %eax,%eax
    3474:	0f 84 b2 02 00 00    	je     372c <usb_kbd_init+0x5ac>
    347a:	89 04 24             	mov    %eax,(%esp)
    347d:	c7 44 24 04 a0 96 03 	movl   $0x396a0,0x4(%esp)
    3484:	00 
    3485:	e8 76 b1 00 00       	call   e600 <ddf_fun_set_ops>
    348a:	89 5c 24 04          	mov    %ebx,0x4(%esp)
    348e:	89 34 24             	mov    %esi,(%esp)
    3491:	e8 9a aa 00 00       	call   df30 <ddf_fun_data_implant>
    3496:	89 34 24             	mov    %esi,(%esp)
    3499:	e8 62 ae 00 00       	call   e300 <ddf_fun_bind>
    349e:	89 c7                	mov    %eax,%edi
    34a0:	85 c0                	test   %eax,%eax
    34a2:	0f 85 50 01 00 00    	jne    35f8 <usb_kbd_init+0x478>
    34a8:	89 34 24             	mov    %esi,(%esp)
    34ab:	e8 b0 ab 00 00       	call   e060 <ddf_fun_get_handle>
    34b0:	c7 44 24 08 68 2c 03 	movl   $0x32c68,0x8(%esp)
    34b7:	00 
    34b8:	89 44 24 10          	mov    %eax,0x10(%esp)
    34bc:	a1 84 96 03 00       	mov    0x39684,%eax
    34c1:	89 44 24 0c          	mov    %eax,0xc(%esp)
    34c5:	c7 44 24 04 04 00 00 	movl   $0x4,0x4(%esp)
    34cc:	00 
    34cd:	c7 04 24 ff ff ff ff 	movl   $0xffffffff,(%esp)
    34d4:	e8 37 a6 01 00       	call   1db10 <log_msg>
    34d9:	a1 00 9c 03 00       	mov    0x39c00,%eax
    34de:	89 44 24 0c          	mov    %eax,0xc(%esp)
    34e2:	c7 44 24 08 8c 2c 03 	movl   $0x32c8c,0x8(%esp)
    34e9:	00 
    34ea:	c7 44 24 04 04 00 00 	movl   $0x4,0x4(%esp)
    34f1:	00 
    34f2:	c7 04 24 ff ff ff ff 	movl   $0xffffffff,(%esp)
    34f9:	e8 12 a6 01 00       	call   1db10 <log_msg>
    34fe:	a1 80 96 03 00       	mov    0x39680,%eax
    3503:	89 44 24 04          	mov    %eax,0x4(%esp)
    3507:	89 34 24             	mov    %esi,(%esp)
    350a:	e8 71 b1 00 00       	call   e680 <ddf_fun_add_to_category>
    350f:	89 c7                	mov    %eax,%edi
    3511:	85 c0                	test   %eax,%eax
    3513:	0f 85 97 00 00 00    	jne    35b0 <usb_kbd_init+0x430>
    3519:	89 5c 24 04          	mov    %ebx,0x4(%esp)
    351d:	c7 04 24 d0 38 00 00 	movl   $0x38d0,(%esp)
    3524:	89 73 58             	mov    %esi,0x58(%ebx)
    3527:	e8 24 5e 01 00       	call   19350 <fibril_create>
    352c:	85 c0                	test   %eax,%eax
    352e:	0f 84 33 01 00 00    	je     3667 <usb_kbd_init+0x4e7>
    3534:	89 04 24             	mov    %eax,(%esp)
    3537:	e8 54 5f 01 00       	call   19490 <fibril_add_ready>
    353c:	83 c4 3c             	add    $0x3c,%esp
    353f:	89 f8                	mov    %edi,%eax
    3541:	5b                   	pop    %ebx
    3542:	5e                   	pop    %esi
    3543:	5f                   	pop    %edi
    3544:	5d                   	pop    %ebp
    3545:	c3                   	ret    
    3546:	66 90                	xchg   %ax,%ax
    3548:	c7 44 24 08 9c 2b 03 	movl   $0x32b9c,0x8(%esp)
    354f:	00 
    3550:	c7 44 24 04 01 00 00 	movl   $0x1,0x4(%esp)
    3557:	00 
    3558:	c7 04 24 ff ff ff ff 	movl   $0xffffffff,(%esp)
    355f:	e8 ac a5 01 00       	call   1db10 <log_msg>
    3564:	89 1c 24             	mov    %ebx,(%esp)
    3567:	e8 24 fb ff ff       	call   3090 <usb_kbd_destroy>
    356c:	83 c4 3c             	add    $0x3c,%esp
    356f:	89 f8                	mov    %edi,%eax
    3571:	5b                   	pop    %ebx
    3572:	5e                   	pop    %esi
    3573:	5f                   	pop    %edi
    3574:	5d                   	pop    %ebp
    3575:	c3                   	ret    
    3576:	66 90                	xchg   %ax,%ax
    3578:	c7 44 24 08 bc 2a 03 	movl   $0x32abc,0x8(%esp)
    357f:	00 
    3580:	c7 44 24 04 01 00 00 	movl   $0x1,0x4(%esp)
    3587:	00 
    3588:	c7 04 24 ff ff ff ff 	movl   $0xffffffff,(%esp)
    358f:	e8 7c a5 01 00       	call   1db10 <log_msg>
    3594:	89 34 24             	mov    %esi,(%esp)
    3597:	e8 b4 3f 00 00       	call   7550 <usb_hid_report_path_free>
    359c:	89 1c 24             	mov    %ebx,(%esp)
    359f:	e8 ec fa ff ff       	call   3090 <usb_kbd_destroy>
    35a4:	83 c4 3c             	add    $0x3c,%esp
    35a7:	89 f8                	mov    %edi,%eax
    35a9:	5b                   	pop    %ebx
    35aa:	5e                   	pop    %esi
    35ab:	5f                   	pop    %edi
    35ac:	5d                   	pop    %ebp
    35ad:	c3                   	ret    
    35ae:	66 90                	xchg   %ax,%ax
    35b0:	89 04 24             	mov    %eax,(%esp)
    35b3:	e8 88 58 01 00       	call   18e40 <str_error>
    35b8:	c7 44 24 08 b4 2c 03 	movl   $0x32cb4,0x8(%esp)
    35bf:	00 
    35c0:	89 44 24 10          	mov    %eax,0x10(%esp)
    35c4:	a1 00 9c 03 00       	mov    0x39c00,%eax
    35c9:	89 44 24 0c          	mov    %eax,0xc(%esp)
    35cd:	c7 44 24 04 01 00 00 	movl   $0x1,0x4(%esp)
    35d4:	00 
    35d5:	c7 04 24 ff ff ff ff 	movl   $0xffffffff,(%esp)
    35dc:	e8 2f a5 01 00       	call   1db10 <log_msg>
    35e1:	89 34 24             	mov    %esi,(%esp)
    35e4:	e8 27 ae 00 00       	call   e410 <ddf_fun_unbind>
    35e9:	89 34 24             	mov    %esi,(%esp)
    35ec:	85 c0                	test   %eax,%eax
    35ee:	75 50                	jne    3640 <usb_kbd_init+0x4c0>
    35f0:	e8 fb ab 00 00       	call   e1f0 <ddf_fun_destroy>
    35f5:	eb 31                	jmp    3628 <usb_kbd_init+0x4a8>
    35f7:	90                   	nop
    35f8:	89 04 24             	mov    %eax,(%esp)
    35fb:	e8 40 58 01 00       	call   18e40 <str_error>
    3600:	c7 44 24 08 60 26 03 	movl   $0x32660,0x8(%esp)
    3607:	00 
    3608:	89 44 24 0c          	mov    %eax,0xc(%esp)
    360c:	c7 44 24 04 01 00 00 	movl   $0x1,0x4(%esp)
    3613:	00 
    3614:	c7 04 24 ff ff ff ff 	movl   $0xffffffff,(%esp)
    361b:	e8 f0 a4 01 00       	call   1db10 <log_msg>
    3620:	89 34 24             	mov    %esi,(%esp)
    3623:	e8 c8 ab 00 00       	call   e1f0 <ddf_fun_destroy>
    3628:	89 1c 24             	mov    %ebx,(%esp)
    362b:	e8 60 fa ff ff       	call   3090 <usb_kbd_destroy>
    3630:	83 c4 3c             	add    $0x3c,%esp
    3633:	89 f8                	mov    %edi,%eax
    3635:	5b                   	pop    %ebx
    3636:	5e                   	pop    %esi
    3637:	5f                   	pop    %edi
    3638:	5d                   	pop    %ebp
    3639:	c3                   	ret    
    363a:	8d b6 00 00 00 00    	lea    0x0(%esi),%esi
    3640:	e8 9b ab 00 00       	call   e1e0 <ddf_fun_get_name>
    3645:	c7 44 24 08 e4 2c 03 	movl   $0x32ce4,0x8(%esp)
    364c:	00 
    364d:	89 44 24 0c          	mov    %eax,0xc(%esp)
    3651:	c7 44 24 04 01 00 00 	movl   $0x1,0x4(%esp)
    3658:	00 
    3659:	c7 04 24 ff ff ff ff 	movl   $0xffffffff,(%esp)
    3660:	e8 ab a4 01 00       	call   1db10 <log_msg>
    3665:	eb c1                	jmp    3628 <usb_kbd_init+0x4a8>
    3667:	c7 44 24 08 10 2d 03 	movl   $0x32d10,0x8(%esp)
    366e:	00 
    366f:	c7 44 24 04 01 00 00 	movl   $0x1,0x4(%esp)
    3676:	00 
    3677:	c7 04 24 ff ff ff ff 	movl   $0xffffffff,(%esp)
    367e:	e8 8d a4 01 00       	call   1db10 <log_msg>
    3683:	89 1c 24             	mov    %ebx,(%esp)
    3686:	e8 05 fa ff ff       	call   3090 <usb_kbd_destroy>
    368b:	bf fe ff ff ff       	mov    $0xfffffffe,%edi
    3690:	e9 d7 fe ff ff       	jmp    356c <usb_kbd_init+0x3ec>
    3695:	c7 44 24 08 34 2a 03 	movl   $0x32a34,0x8(%esp)
    369c:	00 
    369d:	c7 44 24 04 01 00 00 	movl   $0x1,0x4(%esp)
    36a4:	00 
    36a5:	c7 04 24 ff ff ff ff 	movl   $0xffffffff,(%esp)
    36ac:	bf f2 ff ff ff       	mov    $0xfffffff2,%edi
    36b1:	e8 5a a4 01 00       	call   1db10 <log_msg>
    36b6:	e9 b1 fe ff ff       	jmp    356c <usb_kbd_init+0x3ec>
    36bb:	c7 44 24 08 98 2a 03 	movl   $0x32a98,0x8(%esp)
    36c2:	00 
    36c3:	eb aa                	jmp    366f <usb_kbd_init+0x4ef>
    36c5:	c7 44 24 08 6c 2a 03 	movl   $0x32a6c,0x8(%esp)
    36cc:	00 
    36cd:	c7 44 24 04 01 00 00 	movl   $0x1,0x4(%esp)
    36d4:	00 
    36d5:	c7 04 24 ff ff ff ff 	movl   $0xffffffff,(%esp)
    36dc:	bf fe ff ff ff       	mov    $0xfffffffe,%edi
    36e1:	e8 2a a4 01 00       	call   1db10 <log_msg>
    36e6:	e9 81 fe ff ff       	jmp    356c <usb_kbd_init+0x3ec>
    36eb:	c7 44 24 08 08 2b 03 	movl   $0x32b08,0x8(%esp)
    36f2:	00 
    36f3:	e9 77 ff ff ff       	jmp    366f <usb_kbd_init+0x4ef>
    36f8:	c7 44 24 08 28 2b 03 	movl   $0x32b28,0x8(%esp)
    36ff:	00 
    3700:	e9 6a ff ff ff       	jmp    366f <usb_kbd_init+0x4ef>
    3705:	c7 44 24 08 74 2b 03 	movl   $0x32b74,0x8(%esp)
    370c:	00 
    370d:	e9 5d ff ff ff       	jmp    366f <usb_kbd_init+0x4ef>
    3712:	c7 44 24 08 4c 2b 03 	movl   $0x32b4c,0x8(%esp)
    3719:	00 
    371a:	e9 50 ff ff ff       	jmp    366f <usb_kbd_init+0x4ef>
    371f:	c7 44 24 08 ec 2b 03 	movl   $0x32bec,0x8(%esp)
    3726:	00 
    3727:	e9 43 ff ff ff       	jmp    366f <usb_kbd_init+0x4ef>
    372c:	c7 44 24 08 38 26 03 	movl   $0x32638,0x8(%esp)
    3733:	00 
    3734:	c7 44 24 04 01 00 00 	movl   $0x1,0x4(%esp)
    373b:	00 
    373c:	c7 04 24 ff ff ff ff 	movl   $0xffffffff,(%esp)
    3743:	bf fe ff ff ff       	mov    $0xfffffffe,%edi
    3748:	e8 c3 a3 01 00       	call   1db10 <log_msg>
    374d:	e9 d6 fe ff ff       	jmp    3628 <usb_kbd_init+0x4a8>
    3752:	c7 44 24 08 e7 01 00 	movl   $0x1e7,0x8(%esp)
    3759:	00 
    375a:	c7 44 24 04 8e 27 03 	movl   $0x3278e,0x4(%esp)
    3761:	00 
    3762:	c7 04 24 44 2c 03 00 	movl   $0x32c44,(%esp)
    3769:	e8 a2 9c 02 00       	call   2d410 <assert_abort>
    376e:	c7 44 24 08 e6 01 00 	movl   $0x1e6,0x8(%esp)
    3775:	00 
    3776:	c7 44 24 04 8e 27 03 	movl   $0x3278e,0x4(%esp)
    377d:	00 
    377e:	c7 04 24 13 28 03 00 	movl   $0x32813,(%esp)
    3785:	e8 86 9c 02 00       	call   2d410 <assert_abort>
    378a:	8d b6 00 00 00 00    	lea    0x0(%esi),%esi

00003790 <usb_kbd_deinit>:
    3790:	55                   	push   %ebp
    3791:	89 e5                	mov    %esp,%ebp
    3793:	53                   	push   %ebx
    3794:	83 ec 14             	sub    $0x14,%esp
    3797:	8b 5d 0c             	mov    0xc(%ebp),%ebx
    379a:	85 db                	test   %ebx,%ebx
    379c:	74 3a                	je     37d8 <usb_kbd_deinit+0x48>
    379e:	83 7b 54 01          	cmpl   $0x1,0x54(%ebx)
    37a2:	74 14                	je     37b8 <usb_kbd_deinit+0x28>
    37a4:	89 5d 08             	mov    %ebx,0x8(%ebp)
    37a7:	83 c4 14             	add    $0x14,%esp
    37aa:	5b                   	pop    %ebx
    37ab:	5d                   	pop    %ebp
    37ac:	e9 df f8 ff ff       	jmp    3090 <usb_kbd_destroy>
    37b1:	8d b4 26 00 00 00 00 	lea    0x0(%esi,%eiz,1),%esi
    37b8:	c7 43 54 ff ff ff ff 	movl   $0xffffffff,0x54(%ebx)
    37bf:	c7 04 24 10 27 00 00 	movl   $0x2710,(%esp)
    37c6:	e8 a5 17 02 00       	call   24f70 <async_usleep>
    37cb:	89 5d 08             	mov    %ebx,0x8(%ebp)
    37ce:	83 c4 14             	add    $0x14,%esp
    37d1:	5b                   	pop    %ebx
    37d2:	5d                   	pop    %ebp
    37d3:	e9 b8 f8 ff ff       	jmp    3090 <usb_kbd_destroy>
    37d8:	83 c4 14             	add    $0x14,%esp
    37db:	5b                   	pop    %ebx
    37dc:	5d                   	pop    %ebp
    37dd:	c3                   	ret    
    37de:	66 90                	xchg   %ax,%ax

000037e0 <usb_kbd_set_boot_protocol>:
    37e0:	55                   	push   %ebp
    37e1:	89 e5                	mov    %esp,%ebp
    37e3:	56                   	push   %esi
    37e4:	53                   	push   %ebx
    37e5:	83 ec 10             	sub    $0x10,%esp
    37e8:	8b 75 08             	mov    0x8(%ebp),%esi
    37eb:	85 f6                	test   %esi,%esi
    37ed:	0f 84 b6 00 00 00    	je     38a9 <usb_kbd_set_boot_protocol+0xc9>
    37f3:	8d 46 18             	lea    0x18(%esi),%eax
    37f6:	c7 44 24 08 3f 00 00 	movl   $0x3f,0x8(%esp)
    37fd:	00 
    37fe:	c7 44 24 04 e0 2d 03 	movl   $0x32de0,0x4(%esp)
    3805:	00 
    3806:	89 04 24             	mov    %eax,(%esp)
    3809:	e8 32 24 00 00       	call   5c40 <usb_hid_parse_report_descriptor>
    380e:	89 c3                	mov    %eax,%ebx
    3810:	85 c0                	test   %eax,%eax
    3812:	75 64                	jne    3878 <usb_kbd_set_boot_protocol+0x98>
    3814:	8b 06                	mov    (%esi),%eax
    3816:	c7 44 24 08 00 00 00 	movl   $0x0,0x8(%esp)
    381d:	00 
    381e:	8b 50 44             	mov    0x44(%eax),%edx
    3821:	83 c0 24             	add    $0x24,%eax
    3824:	89 54 24 04          	mov    %edx,0x4(%esp)
    3828:	89 04 24             	mov    %eax,(%esp)
    382b:	e8 00 44 00 00       	call   7c30 <usbhid_req_set_protocol>
    3830:	89 c3                	mov    %eax,%ebx
    3832:	85 c0                	test   %eax,%eax
    3834:	75 0a                	jne    3840 <usb_kbd_set_boot_protocol+0x60>
    3836:	83 c4 10             	add    $0x10,%esp
    3839:	89 d8                	mov    %ebx,%eax
    383b:	5b                   	pop    %ebx
    383c:	5e                   	pop    %esi
    383d:	5d                   	pop    %ebp
    383e:	c3                   	ret    
    383f:	90                   	nop
    3840:	89 04 24             	mov    %eax,(%esp)
    3843:	e8 f8 55 01 00       	call   18e40 <str_error>
    3848:	c7 44 24 08 68 2d 03 	movl   $0x32d68,0x8(%esp)
    384f:	00 
    3850:	89 44 24 0c          	mov    %eax,0xc(%esp)
    3854:	c7 44 24 04 02 00 00 	movl   $0x2,0x4(%esp)
    385b:	00 
    385c:	c7 04 24 ff ff ff ff 	movl   $0xffffffff,(%esp)
    3863:	e8 a8 a2 01 00       	call   1db10 <log_msg>
    3868:	83 c4 10             	add    $0x10,%esp
    386b:	89 d8                	mov    %ebx,%eax
    386d:	5b                   	pop    %ebx
    386e:	5e                   	pop    %esi
    386f:	5d                   	pop    %ebp
    3870:	c3                   	ret    
    3871:	8d b4 26 00 00 00 00 	lea    0x0(%esi,%eiz,1),%esi
    3878:	89 04 24             	mov    %eax,(%esp)
    387b:	e8 c0 55 01 00       	call   18e40 <str_error>
    3880:	c7 44 24 08 3c 2d 03 	movl   $0x32d3c,0x8(%esp)
    3887:	00 
    3888:	89 44 24 0c          	mov    %eax,0xc(%esp)
    388c:	c7 44 24 04 01 00 00 	movl   $0x1,0x4(%esp)
    3893:	00 
    3894:	c7 04 24 ff ff ff ff 	movl   $0xffffffff,(%esp)
    389b:	e8 70 a2 01 00       	call   1db10 <log_msg>
    38a0:	83 c4 10             	add    $0x10,%esp
    38a3:	89 d8                	mov    %ebx,%eax
    38a5:	5b                   	pop    %ebx
    38a6:	5e                   	pop    %esi
    38a7:	5d                   	pop    %ebp
    38a8:	c3                   	ret    
    38a9:	c7 44 24 08 0a 03 00 	movl   $0x30a,0x8(%esp)
    38b0:	00 
    38b1:	c7 44 24 04 8e 27 03 	movl   $0x3278e,0x4(%esp)
    38b8:	00 
    38b9:	c7 04 24 0d 1e 03 00 	movl   $0x31e0d,(%esp)
    38c0:	e8 4b 9b 02 00       	call   2d410 <assert_abort>
    38c5:	66 90                	xchg   %ax,%ax
    38c7:	66 90                	xchg   %ax,%ax
    38c9:	66 90                	xchg   %ax,%ax
    38cb:	66 90                	xchg   %ax,%ax
    38cd:	66 90                	xchg   %ax,%ax
    38cf:	90                   	nop

000038d0 <usb_kbd_repeat_fibril>:
    38d0:	55                   	push   %ebp
    38d1:	89 e5                	mov    %esp,%ebp
    38d3:	57                   	push   %edi
    38d4:	56                   	push   %esi
    38d5:	53                   	push   %ebx
    38d6:	83 ec 1c             	sub    $0x1c,%esp
    38d9:	8b 5d 08             	mov    0x8(%ebp),%ebx
    38dc:	c7 44 24 08 1f 2e 03 	movl   $0x32e1f,0x8(%esp)
    38e3:	00 
    38e4:	c7 44 24 04 04 00 00 	movl   $0x4,0x4(%esp)
    38eb:	00 
    38ec:	c7 04 24 ff ff ff ff 	movl   $0xffffffff,(%esp)
    38f3:	e8 18 a2 01 00       	call   1db10 <log_msg>
    38f8:	85 db                	test   %ebx,%ebx
    38fa:	0f 84 26 01 00 00    	je     3a26 <usb_kbd_repeat_fibril+0x156>
    3900:	c7 44 24 08 47 2e 03 	movl   $0x32e47,0x8(%esp)
    3907:	00 
    3908:	c7 44 24 04 04 00 00 	movl   $0x4,0x4(%esp)
    390f:	00 
    3910:	c7 04 24 ff ff ff ff 	movl   $0xffffffff,(%esp)
    3917:	8d 73 30             	lea    0x30(%ebx),%esi
    391a:	e8 f1 a1 01 00       	call   1db10 <log_msg>
    391f:	eb 49                	jmp    396a <usb_kbd_repeat_fibril+0x9a>
    3921:	8d b4 26 00 00 00 00 	lea    0x0(%esi,%eiz,1),%esi
    3928:	3b 43 24             	cmp    0x24(%ebx),%eax
    392b:	89 44 24 0c          	mov    %eax,0xc(%esp)
    392f:	0f 84 8b 00 00 00    	je     39c0 <usb_kbd_repeat_fibril+0xf0>
    3935:	c7 44 24 08 76 2e 03 	movl   $0x32e76,0x8(%esp)
    393c:	00 
    393d:	c7 44 24 04 05 00 00 	movl   $0x5,0x4(%esp)
    3944:	00 
    3945:	c7 04 24 ff ff ff ff 	movl   $0xffffffff,(%esp)
    394c:	e8 bf a1 01 00       	call   1db10 <log_msg>
    3951:	8b 43 20             	mov    0x20(%ebx),%eax
    3954:	89 43 24             	mov    %eax,0x24(%ebx)
    3957:	8b 7b 28             	mov    0x28(%ebx),%edi
    395a:	89 34 24             	mov    %esi,(%esp)
    395d:	e8 ee 5f 01 00       	call   19950 <fibril_mutex_unlock>
    3962:	89 3c 24             	mov    %edi,(%esp)
    3965:	e8 06 16 02 00       	call   24f70 <async_usleep>
    396a:	89 1c 24             	mov    %ebx,(%esp)
    396d:	e8 de f6 ff ff       	call   3050 <usb_kbd_is_initialized>
    3972:	85 c0                	test   %eax,%eax
    3974:	0f 84 86 00 00 00    	je     3a00 <usb_kbd_repeat_fibril+0x130>
    397a:	89 34 24             	mov    %esi,(%esp)
    397d:	e8 ae 5e 01 00       	call   19830 <fibril_mutex_lock>
    3982:	8b 43 20             	mov    0x20(%ebx),%eax
    3985:	85 c0                	test   %eax,%eax
    3987:	75 9f                	jne    3928 <usb_kbd_repeat_fibril+0x58>
    3989:	8b 43 24             	mov    0x24(%ebx),%eax
    398c:	bf 10 27 00 00       	mov    $0x2710,%edi
    3991:	85 c0                	test   %eax,%eax
    3993:	74 c5                	je     395a <usb_kbd_repeat_fibril+0x8a>
    3995:	89 44 24 0c          	mov    %eax,0xc(%esp)
    3999:	c7 44 24 08 8e 2e 03 	movl   $0x32e8e,0x8(%esp)
    39a0:	00 
    39a1:	c7 44 24 04 05 00 00 	movl   $0x5,0x4(%esp)
    39a8:	00 
    39a9:	c7 04 24 ff ff ff ff 	movl   $0xffffffff,(%esp)
    39b0:	e8 5b a1 01 00       	call   1db10 <log_msg>
    39b5:	c7 43 24 00 00 00 00 	movl   $0x0,0x24(%ebx)
    39bc:	eb 9c                	jmp    395a <usb_kbd_repeat_fibril+0x8a>
    39be:	66 90                	xchg   %ax,%ax
    39c0:	c7 44 24 08 62 2e 03 	movl   $0x32e62,0x8(%esp)
    39c7:	00 
    39c8:	c7 44 24 04 05 00 00 	movl   $0x5,0x4(%esp)
    39cf:	00 
    39d0:	c7 04 24 ff ff ff ff 	movl   $0xffffffff,(%esp)
    39d7:	e8 34 a1 01 00       	call   1db10 <log_msg>
    39dc:	8b 43 24             	mov    0x24(%ebx),%eax
    39df:	89 44 24 08          	mov    %eax,0x8(%esp)
    39e3:	c7 44 24 04 00 00 00 	movl   $0x0,0x4(%esp)
    39ea:	00 
    39eb:	89 1c 24             	mov    %ebx,(%esp)
    39ee:	e8 ad f3 ff ff       	call   2da0 <usb_kbd_push_ev>
    39f3:	8b 7b 2c             	mov    0x2c(%ebx),%edi
    39f6:	e9 5f ff ff ff       	jmp    395a <usb_kbd_repeat_fibril+0x8a>
    39fb:	90                   	nop
    39fc:	8d 74 26 00          	lea    0x0(%esi,%eiz,1),%esi
    3a00:	c7 44 24 08 ac 2e 03 	movl   $0x32eac,0x8(%esp)
    3a07:	00 
    3a08:	c7 44 24 04 02 00 00 	movl   $0x2,0x4(%esp)
    3a0f:	00 
    3a10:	c7 04 24 ff ff ff ff 	movl   $0xffffffff,(%esp)
    3a17:	e8 f4 a0 01 00       	call   1db10 <log_msg>
    3a1c:	31 c0                	xor    %eax,%eax
    3a1e:	83 c4 1c             	add    $0x1c,%esp
    3a21:	5b                   	pop    %ebx
    3a22:	5e                   	pop    %esi
    3a23:	5f                   	pop    %edi
    3a24:	5d                   	pop    %ebp
    3a25:	c3                   	ret    
    3a26:	c7 44 24 08 3b 2e 03 	movl   $0x32e3b,0x8(%esp)
    3a2d:	00 
    3a2e:	c7 44 24 04 01 00 00 	movl   $0x1,0x4(%esp)
    3a35:	00 
    3a36:	c7 04 24 ff ff ff ff 	movl   $0xffffffff,(%esp)
    3a3d:	e8 ce a0 01 00       	call   1db10 <log_msg>
    3a42:	b8 f2 ff ff ff       	mov    $0xfffffff2,%eax
    3a47:	eb d5                	jmp    3a1e <usb_kbd_repeat_fibril+0x14e>
    3a49:	8d b4 26 00 00 00 00 	lea    0x0(%esi,%eiz,1),%esi

00003a50 <usb_kbd_repeat_start>:
    3a50:	55                   	push   %ebp
    3a51:	89 e5                	mov    %esp,%ebp
    3a53:	57                   	push   %edi
    3a54:	56                   	push   %esi
    3a55:	53                   	push   %ebx
    3a56:	83 ec 1c             	sub    $0x1c,%esp
    3a59:	8b 75 08             	mov    0x8(%ebp),%esi
    3a5c:	8b 7d 0c             	mov    0xc(%ebp),%edi
    3a5f:	8d 5e 30             	lea    0x30(%esi),%ebx
    3a62:	89 1c 24             	mov    %ebx,(%esp)
    3a65:	e8 c6 5d 01 00       	call   19830 <fibril_mutex_lock>
    3a6a:	89 7e 20             	mov    %edi,0x20(%esi)
    3a6d:	89 5d 08             	mov    %ebx,0x8(%ebp)
    3a70:	83 c4 1c             	add    $0x1c,%esp
    3a73:	5b                   	pop    %ebx
    3a74:	5e                   	pop    %esi
    3a75:	5f                   	pop    %edi
    3a76:	5d                   	pop    %ebp
    3a77:	e9 d4 5e 01 00       	jmp    19950 <fibril_mutex_unlock>
    3a7c:	8d 74 26 00          	lea    0x0(%esi,%eiz,1),%esi

00003a80 <usb_kbd_repeat_stop>:
    3a80:	55                   	push   %ebp
    3a81:	89 e5                	mov    %esp,%ebp
    3a83:	57                   	push   %edi
    3a84:	56                   	push   %esi
    3a85:	53                   	push   %ebx
    3a86:	83 ec 1c             	sub    $0x1c,%esp
    3a89:	8b 5d 08             	mov    0x8(%ebp),%ebx
    3a8c:	8b 7d 0c             	mov    0xc(%ebp),%edi
    3a8f:	8d 73 30             	lea    0x30(%ebx),%esi
    3a92:	89 34 24             	mov    %esi,(%esp)
    3a95:	e8 96 5d 01 00       	call   19830 <fibril_mutex_lock>
    3a9a:	39 7b 20             	cmp    %edi,0x20(%ebx)
    3a9d:	75 07                	jne    3aa6 <usb_kbd_repeat_stop+0x26>
    3a9f:	c7 43 20 00 00 00 00 	movl   $0x0,0x20(%ebx)
    3aa6:	89 75 08             	mov    %esi,0x8(%ebp)
    3aa9:	83 c4 1c             	add    $0x1c,%esp
    3aac:	5b                   	pop    %ebx
    3aad:	5e                   	pop    %esi
    3aae:	5f                   	pop    %edi
    3aaf:	5d                   	pop    %ebp
    3ab0:	e9 9b 5e 01 00       	jmp    19950 <fibril_mutex_unlock>
    3ab5:	66 90                	xchg   %ax,%ax
    3ab7:	66 90                	xchg   %ax,%ax
    3ab9:	66 90                	xchg   %ax,%ax
    3abb:	66 90                	xchg   %ax,%ax
    3abd:	66 90                	xchg   %ax,%ax
    3abf:	90                   	nop

00003ac0 <default_connection_handler>:
    3ac0:	55                   	push   %ebp
    3ac1:	89 e5                	mov    %esp,%ebp
    3ac3:	57                   	push   %edi
    3ac4:	56                   	push   %esi
    3ac5:	53                   	push   %ebx
    3ac6:	83 ec 3c             	sub    $0x3c,%esp
    3ac9:	8b 5d 08             	mov    0x8(%ebp),%ebx
    3acc:	8b 45 0c             	mov    0xc(%ebp),%eax
    3acf:	89 1c 24             	mov    %ebx,(%esp)
    3ad2:	89 45 e4             	mov    %eax,-0x1c(%ebp)
    3ad5:	8b 7d 10             	mov    0x10(%ebp),%edi
    3ad8:	e8 f3 a6 00 00       	call   e1d0 <ddf_fun_data_get>
    3add:	89 c6                	mov    %eax,%esi
    3adf:	85 c0                	test   %eax,%eax
    3ae1:	0f 84 11 01 00 00    	je     3bf8 <default_connection_handler+0x138>
    3ae7:	89 1c 24             	mov    %ebx,(%esp)
    3aea:	e8 f1 a6 00 00       	call   e1e0 <ddf_fun_get_name>
    3aef:	c7 44 24 0c 18 32 03 	movl   $0x33218,0xc(%esp)
    3af6:	00 
    3af7:	89 44 24 10          	mov    %eax,0x10(%esp)
    3afb:	c7 44 24 08 e9 2e 03 	movl   $0x32ee9,0x8(%esp)
    3b02:	00 
    3b03:	c7 44 24 04 04 00 00 	movl   $0x4,0x4(%esp)
    3b0a:	00 
    3b0b:	c7 04 24 ff ff ff ff 	movl   $0xffffffff,(%esp)
    3b12:	e8 f9 9f 01 00       	call   1db10 <log_msg>
    3b17:	8b 06                	mov    (%esi),%eax
    3b19:	89 44 24 10          	mov    %eax,0x10(%esp)
    3b1d:	c7 44 24 0c 18 32 03 	movl   $0x33218,0xc(%esp)
    3b24:	00 
    3b25:	c7 44 24 08 fc 2e 03 	movl   $0x32efc,0x8(%esp)
    3b2c:	00 
    3b2d:	c7 44 24 04 04 00 00 	movl   $0x4,0x4(%esp)
    3b34:	00 
    3b35:	c7 04 24 ff ff ff ff 	movl   $0xffffffff,(%esp)
    3b3c:	e8 cf 9f 01 00       	call   1db10 <log_msg>
    3b41:	89 7c 24 04          	mov    %edi,0x4(%esp)
    3b45:	c7 04 24 02 00 00 00 	movl   $0x2,(%esp)
    3b4c:	e8 7f 3f 02 00       	call   27ad0 <async_callback_receive_start>
    3b51:	89 c7                	mov    %eax,%edi
    3b53:	85 c0                	test   %eax,%eax
    3b55:	0f 84 cd 00 00 00    	je     3c28 <default_connection_handler+0x168>
    3b5b:	8b 06                	mov    (%esi),%eax
    3b5d:	85 c0                	test   %eax,%eax
    3b5f:	74 4f                	je     3bb0 <default_connection_handler+0xf0>
    3b61:	89 1c 24             	mov    %ebx,(%esp)
    3b64:	e8 77 a6 00 00       	call   e1e0 <ddf_fun_get_name>
    3b69:	c7 44 24 08 98 2f 03 	movl   $0x32f98,0x8(%esp)
    3b70:	00 
    3b71:	89 44 24 0c          	mov    %eax,0xc(%esp)
    3b75:	c7 44 24 04 01 00 00 	movl   $0x1,0x4(%esp)
    3b7c:	00 
    3b7d:	c7 04 24 ff ff ff ff 	movl   $0xffffffff,(%esp)
    3b84:	e8 87 9f 01 00       	call   1db10 <log_msg>
    3b89:	8b 45 e4             	mov    -0x1c(%ebp),%eax
    3b8c:	c7 44 24 04 fd ff ff 	movl   $0xfffffffd,0x4(%esp)
    3b93:	ff 
    3b94:	89 04 24             	mov    %eax,(%esp)
    3b97:	e8 54 1b 02 00       	call   256f0 <async_answer_0>
    3b9c:	89 7d 08             	mov    %edi,0x8(%ebp)
    3b9f:	83 c4 3c             	add    $0x3c,%esp
    3ba2:	5b                   	pop    %ebx
    3ba3:	5e                   	pop    %esi
    3ba4:	5f                   	pop    %edi
    3ba5:	5d                   	pop    %ebp
    3ba6:	e9 45 24 02 00       	jmp    25ff0 <async_hangup>
    3bab:	90                   	nop
    3bac:	8d 74 26 00          	lea    0x0(%esi,%eiz,1),%esi
    3bb0:	89 3e                	mov    %edi,(%esi)
    3bb2:	89 1c 24             	mov    %ebx,(%esp)
    3bb5:	e8 26 a6 00 00       	call   e1e0 <ddf_fun_get_name>
    3bba:	89 7c 24 10          	mov    %edi,0x10(%esp)
    3bbe:	89 44 24 0c          	mov    %eax,0xc(%esp)
    3bc2:	c7 44 24 08 74 2f 03 	movl   $0x32f74,0x8(%esp)
    3bc9:	00 
    3bca:	c7 44 24 04 04 00 00 	movl   $0x4,0x4(%esp)
    3bd1:	00 
    3bd2:	c7 04 24 ff ff ff ff 	movl   $0xffffffff,(%esp)
    3bd9:	e8 32 9f 01 00       	call   1db10 <log_msg>
    3bde:	c7 45 0c 00 00 00 00 	movl   $0x0,0xc(%ebp)
    3be5:	8b 45 e4             	mov    -0x1c(%ebp),%eax
    3be8:	89 45 08             	mov    %eax,0x8(%ebp)
    3beb:	83 c4 3c             	add    $0x3c,%esp
    3bee:	5b                   	pop    %ebx
    3bef:	5e                   	pop    %esi
    3bf0:	5f                   	pop    %edi
    3bf1:	5d                   	pop    %ebp
    3bf2:	e9 f9 1a 02 00       	jmp    256f0 <async_answer_0>
    3bf7:	90                   	nop
    3bf8:	c7 44 24 0c 18 32 03 	movl   $0x33218,0xc(%esp)
    3bff:	00 
    3c00:	c7 44 24 08 d0 2e 03 	movl   $0x32ed0,0x8(%esp)
    3c07:	00 
    3c08:	c7 44 24 04 04 00 00 	movl   $0x4,0x4(%esp)
    3c0f:	00 
    3c10:	c7 04 24 ff ff ff ff 	movl   $0xffffffff,(%esp)
    3c17:	e8 f4 9e 01 00       	call   1db10 <log_msg>
    3c1c:	c7 45 0c f2 ff ff ff 	movl   $0xfffffff2,0xc(%ebp)
    3c23:	eb c0                	jmp    3be5 <default_connection_handler+0x125>
    3c25:	8d 76 00             	lea    0x0(%esi),%esi
    3c28:	c7 44 24 0c 18 32 03 	movl   $0x33218,0xc(%esp)
    3c2f:	00 
    3c30:	c7 44 24 08 10 2f 03 	movl   $0x32f10,0x8(%esp)
    3c37:	00 
    3c38:	eb ce                	jmp    3c08 <default_connection_handler+0x148>
    3c3a:	8d b6 00 00 00 00    	lea    0x0(%esi),%esi

00003c40 <usb_mouse_init>:
    3c40:	55                   	push   %ebp
    3c41:	89 e5                	mov    %esp,%ebp
    3c43:	57                   	push   %edi
    3c44:	56                   	push   %esi
    3c45:	53                   	push   %ebx
    3c46:	83 ec 3c             	sub    $0x3c,%esp
    3c49:	c7 44 24 08 bc 2f 03 	movl   $0x32fbc,0x8(%esp)
    3c50:	00 
    3c51:	c7 44 24 04 04 00 00 	movl   $0x4,0x4(%esp)
    3c58:	00 
    3c59:	c7 04 24 ff ff ff ff 	movl   $0xffffffff,(%esp)
    3c60:	e8 ab 9e 01 00       	call   1db10 <log_msg>
    3c65:	8b 5d 08             	mov    0x8(%ebp),%ebx
    3c68:	85 db                	test   %ebx,%ebx
    3c6a:	0f 84 a9 02 00 00    	je     3f19 <usb_mouse_init+0x2d9>
    3c70:	c7 44 24 04 10 00 00 	movl   $0x10,0x4(%esp)
    3c77:	00 
    3c78:	c7 04 24 01 00 00 00 	movl   $0x1,(%esp)
    3c7f:	e8 cc ee 01 00       	call   22b50 <calloc>
    3c84:	89 45 e4             	mov    %eax,-0x1c(%ebp)
    3c87:	85 c0                	test   %eax,%eax
    3c89:	0f 84 10 03 00 00    	je     3f9f <usb_mouse_init+0x35f>
    3c8f:	8b 55 08             	mov    0x8(%ebp),%edx
    3c92:	89 d7                	mov    %edx,%edi
    3c94:	8a 5a 38             	mov    0x38(%edx),%bl
    3c97:	e8 74 38 00 00       	call   7510 <usb_hid_report_path>
    3c9c:	81 e3 ff 00 00 00    	and    $0xff,%ebx
    3ca2:	89 c6                	mov    %eax,%esi
    3ca4:	c7 44 24 08 00 00 00 	movl   $0x0,0x8(%esp)
    3cab:	00 
    3cac:	c7 44 24 04 09 00 00 	movl   $0x9,0x4(%esp)
    3cb3:	00 
    3cb4:	89 04 24             	mov    %eax,(%esp)
    3cb7:	83 c7 18             	add    $0x18,%edi
    3cba:	e8 51 33 00 00       	call   7010 <usb_hid_report_path_append_item>
    3cbf:	89 5c 24 04          	mov    %ebx,0x4(%esp)
    3cc3:	89 34 24             	mov    %esi,(%esp)
    3cc6:	31 db                	xor    %ebx,%ebx
    3cc8:	e8 f3 39 00 00       	call   76c0 <usb_hid_report_path_set_report_id>
    3ccd:	31 c0                	xor    %eax,%eax
    3ccf:	90                   	nop
    3cd0:	c7 44 24 10 01 00 00 	movl   $0x1,0x10(%esp)
    3cd7:	00 
    3cd8:	c7 44 24 0c 03 00 00 	movl   $0x3,0xc(%esp)
    3cdf:	00 
    3ce0:	89 74 24 08          	mov    %esi,0x8(%esp)
    3ce4:	89 44 24 04          	mov    %eax,0x4(%esp)
    3ce8:	89 3c 24             	mov    %edi,(%esp)
    3ceb:	e8 40 31 00 00       	call   6e30 <usb_hid_report_get_sibling>
    3cf0:	85 c0                	test   %eax,%eax
    3cf2:	74 1c                	je     3d10 <usb_mouse_init+0xd0>
    3cf4:	66 8b 50 0a          	mov    0xa(%eax),%dx
    3cf8:	8b 48 24             	mov    0x24(%eax),%ecx
    3cfb:	81 e2 ff ff 00 00    	and    $0xffff,%edx
    3d01:	29 ca                	sub    %ecx,%edx
    3d03:	39 d3                	cmp    %edx,%ebx
    3d05:	73 c9                	jae    3cd0 <usb_mouse_init+0x90>
    3d07:	89 d3                	mov    %edx,%ebx
    3d09:	eb c5                	jmp    3cd0 <usb_mouse_init+0x90>
    3d0b:	90                   	nop
    3d0c:	8d 74 26 00          	lea    0x0(%esi,%eiz,1),%esi
    3d10:	89 34 24             	mov    %esi,(%esp)
    3d13:	43                   	inc    %ebx
    3d14:	e8 37 38 00 00       	call   7550 <usb_hid_report_path_free>
    3d19:	8b 45 e4             	mov    -0x1c(%ebp),%eax
    3d1c:	89 58 08             	mov    %ebx,0x8(%eax)
    3d1f:	c7 44 24 04 04 00 00 	movl   $0x4,0x4(%esp)
    3d26:	00 
    3d27:	89 1c 24             	mov    %ebx,(%esp)
    3d2a:	e8 21 ee 01 00       	call   22b50 <calloc>
    3d2f:	8b 55 e4             	mov    -0x1c(%ebp),%edx
    3d32:	85 c0                	test   %eax,%eax
    3d34:	89 42 04             	mov    %eax,0x4(%edx)
    3d37:	0f 84 31 02 00 00    	je     3f6e <usb_mouse_init+0x32e>
    3d3d:	8b 55 08             	mov    0x8(%ebp),%edx
    3d40:	8b 02                	mov    (%edx),%eax
    3d42:	c7 44 24 08 00 00 00 	movl   $0x0,0x8(%esp)
    3d49:	00 
    3d4a:	8b 50 44             	mov    0x44(%eax),%edx
    3d4d:	83 c0 24             	add    $0x24,%eax
    3d50:	89 54 24 04          	mov    %edx,0x4(%esp)
    3d54:	89 04 24             	mov    %eax,(%esp)
    3d57:	e8 e4 3f 00 00       	call   7d40 <usbhid_req_set_idle>
    3d5c:	a1 e4 96 03 00       	mov    0x396e4,%eax
    3d61:	89 44 24 0c          	mov    %eax,0xc(%esp)
    3d65:	c7 44 24 08 d8 26 03 	movl   $0x326d8,0x8(%esp)
    3d6c:	00 
    3d6d:	c7 44 24 04 04 00 00 	movl   $0x4,0x4(%esp)
    3d74:	00 
    3d75:	c7 04 24 ff ff ff ff 	movl   $0xffffffff,(%esp)
    3d7c:	e8 8f 9d 01 00       	call   1db10 <log_msg>
    3d81:	a1 e4 96 03 00       	mov    0x396e4,%eax
    3d86:	8b 55 08             	mov    0x8(%ebp),%edx
    3d89:	89 44 24 08          	mov    %eax,0x8(%esp)
    3d8d:	c7 44 24 04 02 00 00 	movl   $0x2,0x4(%esp)
    3d94:	00 
    3d95:	8b 02                	mov    (%edx),%eax
    3d97:	8b 40 70             	mov    0x70(%eax),%eax
    3d9a:	89 04 24             	mov    %eax,(%esp)
    3d9d:	e8 ce a2 00 00       	call   e070 <ddf_fun_create>
    3da2:	89 c3                	mov    %eax,%ebx
    3da4:	85 c0                	test   %eax,%eax
    3da6:	0f 84 93 01 00 00    	je     3f3f <usb_mouse_init+0x2ff>
    3dac:	89 04 24             	mov    %eax,(%esp)
    3daf:	c7 44 24 04 00 97 03 	movl   $0x39700,0x4(%esp)
    3db6:	00 
    3db7:	e8 44 a8 00 00       	call   e600 <ddf_fun_set_ops>
    3dbc:	8b 45 e4             	mov    -0x1c(%ebp),%eax
    3dbf:	89 44 24 04          	mov    %eax,0x4(%esp)
    3dc3:	89 1c 24             	mov    %ebx,(%esp)
    3dc6:	e8 65 a1 00 00       	call   df30 <ddf_fun_data_implant>
    3dcb:	89 1c 24             	mov    %ebx,(%esp)
    3dce:	e8 2d a5 00 00       	call   e300 <ddf_fun_bind>
    3dd3:	89 c6                	mov    %eax,%esi
    3dd5:	85 c0                	test   %eax,%eax
    3dd7:	75 67                	jne    3e40 <usb_mouse_init+0x200>
    3dd9:	89 1c 24             	mov    %ebx,(%esp)
    3ddc:	8b 35 e0 96 03 00    	mov    0x396e0,%esi
    3de2:	e8 f9 a3 00 00       	call   e1e0 <ddf_fun_get_name>
    3de7:	89 74 24 10          	mov    %esi,0x10(%esp)
    3deb:	89 44 24 0c          	mov    %eax,0xc(%esp)
    3def:	c7 44 24 08 9c 30 03 	movl   $0x3309c,0x8(%esp)
    3df6:	00 
    3df7:	c7 44 24 04 04 00 00 	movl   $0x4,0x4(%esp)
    3dfe:	00 
    3dff:	c7 04 24 ff ff ff ff 	movl   $0xffffffff,(%esp)
    3e06:	e8 05 9d 01 00       	call   1db10 <log_msg>
    3e0b:	a1 e0 96 03 00       	mov    0x396e0,%eax
    3e10:	89 44 24 04          	mov    %eax,0x4(%esp)
    3e14:	89 1c 24             	mov    %ebx,(%esp)
    3e17:	e8 64 a8 00 00       	call   e680 <ddf_fun_add_to_category>
    3e1c:	89 c6                	mov    %eax,%esi
    3e1e:	85 c0                	test   %eax,%eax
    3e20:	0f 85 82 00 00 00    	jne    3ea8 <usb_mouse_init+0x268>
    3e26:	8b 45 e4             	mov    -0x1c(%ebp),%eax
    3e29:	8b 55 e4             	mov    -0x1c(%ebp),%edx
    3e2c:	89 58 0c             	mov    %ebx,0xc(%eax)
    3e2f:	8b 45 0c             	mov    0xc(%ebp),%eax
    3e32:	89 10                	mov    %edx,(%eax)
    3e34:	83 c4 3c             	add    $0x3c,%esp
    3e37:	89 f0                	mov    %esi,%eax
    3e39:	5b                   	pop    %ebx
    3e3a:	5e                   	pop    %esi
    3e3b:	5f                   	pop    %edi
    3e3c:	5d                   	pop    %ebp
    3e3d:	c3                   	ret    
    3e3e:	66 90                	xchg   %ax,%ax
    3e40:	89 04 24             	mov    %eax,(%esp)
    3e43:	e8 f8 4f 01 00       	call   18e40 <str_error>
    3e48:	89 1c 24             	mov    %ebx,(%esp)
    3e4b:	89 c7                	mov    %eax,%edi
    3e4d:	e8 8e a3 00 00       	call   e1e0 <ddf_fun_get_name>
    3e52:	89 7c 24 10          	mov    %edi,0x10(%esp)
    3e56:	89 44 24 0c          	mov    %eax,0xc(%esp)
    3e5a:	c7 44 24 08 74 30 03 	movl   $0x33074,0x8(%esp)
    3e61:	00 
    3e62:	c7 44 24 04 01 00 00 	movl   $0x1,0x4(%esp)
    3e69:	00 
    3e6a:	c7 04 24 ff ff ff ff 	movl   $0xffffffff,(%esp)
    3e71:	e8 9a 9c 01 00       	call   1db10 <log_msg>
    3e76:	89 1c 24             	mov    %ebx,(%esp)
    3e79:	e8 72 a3 00 00       	call   e1f0 <ddf_fun_destroy>
    3e7e:	8b 55 e4             	mov    -0x1c(%ebp),%edx
    3e81:	8b 42 04             	mov    0x4(%edx),%eax
    3e84:	89 04 24             	mov    %eax,(%esp)
    3e87:	e8 34 ee 01 00       	call   22cc0 <free>
    3e8c:	8b 45 e4             	mov    -0x1c(%ebp),%eax
    3e8f:	89 04 24             	mov    %eax,(%esp)
    3e92:	e8 29 ee 01 00       	call   22cc0 <free>
    3e97:	83 c4 3c             	add    $0x3c,%esp
    3e9a:	89 f0                	mov    %esi,%eax
    3e9c:	5b                   	pop    %ebx
    3e9d:	5e                   	pop    %esi
    3e9e:	5f                   	pop    %edi
    3e9f:	5d                   	pop    %ebp
    3ea0:	c3                   	ret    
    3ea1:	8d b4 26 00 00 00 00 	lea    0x0(%esi,%eiz,1),%esi
    3ea8:	89 04 24             	mov    %eax,(%esp)
    3eab:	e8 90 4f 01 00       	call   18e40 <str_error>
    3eb0:	c7 44 24 08 b4 2c 03 	movl   $0x32cb4,0x8(%esp)
    3eb7:	00 
    3eb8:	89 44 24 10          	mov    %eax,0x10(%esp)
    3ebc:	a1 e0 96 03 00       	mov    0x396e0,%eax
    3ec1:	89 44 24 0c          	mov    %eax,0xc(%esp)
    3ec5:	c7 44 24 04 01 00 00 	movl   $0x1,0x4(%esp)
    3ecc:	00 
    3ecd:	c7 04 24 ff ff ff ff 	movl   $0xffffffff,(%esp)
    3ed4:	e8 37 9c 01 00       	call   1db10 <log_msg>
    3ed9:	89 1c 24             	mov    %ebx,(%esp)
    3edc:	e8 2f a5 00 00       	call   e410 <ddf_fun_unbind>
    3ee1:	89 1c 24             	mov    %ebx,(%esp)
    3ee4:	85 c0                	test   %eax,%eax
    3ee6:	75 07                	jne    3eef <usb_mouse_init+0x2af>
    3ee8:	e8 03 a3 00 00       	call   e1f0 <ddf_fun_destroy>
    3eed:	eb 8f                	jmp    3e7e <usb_mouse_init+0x23e>
    3eef:	e8 ec a2 00 00       	call   e1e0 <ddf_fun_get_name>
    3ef4:	c7 44 24 08 c8 30 03 	movl   $0x330c8,0x8(%esp)
    3efb:	00 
    3efc:	89 44 24 0c          	mov    %eax,0xc(%esp)
    3f00:	c7 44 24 04 01 00 00 	movl   $0x1,0x4(%esp)
    3f07:	00 
    3f08:	c7 04 24 ff ff ff ff 	movl   $0xffffffff,(%esp)
    3f0f:	e8 fc 9b 01 00       	call   1db10 <log_msg>
    3f14:	e9 65 ff ff ff       	jmp    3e7e <usb_mouse_init+0x23e>
    3f19:	c7 44 24 08 34 2a 03 	movl   $0x32a34,0x8(%esp)
    3f20:	00 
    3f21:	c7 44 24 04 01 00 00 	movl   $0x1,0x4(%esp)
    3f28:	00 
    3f29:	c7 04 24 ff ff ff ff 	movl   $0xffffffff,(%esp)
    3f30:	be f2 ff ff ff       	mov    $0xfffffff2,%esi
    3f35:	e8 d6 9b 01 00       	call   1db10 <log_msg>
    3f3a:	e9 f5 fe ff ff       	jmp    3e34 <usb_mouse_init+0x1f4>
    3f3f:	a1 e4 96 03 00       	mov    0x396e4,%eax
    3f44:	c7 44 24 08 48 30 03 	movl   $0x33048,0x8(%esp)
    3f4b:	00 
    3f4c:	89 44 24 0c          	mov    %eax,0xc(%esp)
    3f50:	c7 44 24 04 01 00 00 	movl   $0x1,0x4(%esp)
    3f57:	00 
    3f58:	c7 04 24 ff ff ff ff 	movl   $0xffffffff,(%esp)
    3f5f:	be fe ff ff ff       	mov    $0xfffffffe,%esi
    3f64:	e8 a7 9b 01 00       	call   1db10 <log_msg>
    3f69:	e9 10 ff ff ff       	jmp    3e7e <usb_mouse_init+0x23e>
    3f6e:	c7 44 24 08 1c 30 03 	movl   $0x3301c,0x8(%esp)
    3f75:	00 
    3f76:	c7 44 24 04 01 00 00 	movl   $0x1,0x4(%esp)
    3f7d:	00 
    3f7e:	c7 04 24 ff ff ff ff 	movl   $0xffffffff,(%esp)
    3f85:	be fe ff ff ff       	mov    $0xfffffffe,%esi
    3f8a:	e8 81 9b 01 00       	call   1db10 <log_msg>
    3f8f:	8b 45 e4             	mov    -0x1c(%ebp),%eax
    3f92:	89 04 24             	mov    %eax,(%esp)
    3f95:	e8 26 ed 01 00       	call   22cc0 <free>
    3f9a:	e9 95 fe ff ff       	jmp    3e34 <usb_mouse_init+0x1f4>
    3f9f:	c7 44 24 08 e4 2f 03 	movl   $0x32fe4,0x8(%esp)
    3fa6:	00 
    3fa7:	c7 44 24 04 01 00 00 	movl   $0x1,0x4(%esp)
    3fae:	00 
    3faf:	c7 04 24 ff ff ff ff 	movl   $0xffffffff,(%esp)
    3fb6:	be fe ff ff ff       	mov    $0xfffffffe,%esi
    3fbb:	e8 50 9b 01 00       	call   1db10 <log_msg>
    3fc0:	e9 6f fe ff ff       	jmp    3e34 <usb_mouse_init+0x1f4>
    3fc5:	8d 74 26 00          	lea    0x0(%esi,%eiz,1),%esi
    3fc9:	8d bc 27 00 00 00 00 	lea    0x0(%edi,%eiz,1),%edi

00003fd0 <usb_mouse_polling_callback>:
    3fd0:	55                   	push   %ebp
    3fd1:	89 e5                	mov    %esp,%ebp
    3fd3:	57                   	push   %edi
    3fd4:	56                   	push   %esi
    3fd5:	53                   	push   %ebx
    3fd6:	83 ec 4c             	sub    $0x4c,%esp
    3fd9:	8b 75 0c             	mov    0xc(%ebp),%esi
    3fdc:	85 f6                	test   %esi,%esi
    3fde:	0f 84 34 03 00 00    	je     4318 <usb_mouse_polling_callback+0x348>
    3fe4:	8b 5d 08             	mov    0x8(%ebp),%ebx
    3fe7:	85 db                	test   %ebx,%ebx
    3fe9:	0f 84 29 03 00 00    	je     4318 <usb_mouse_polling_callback+0x348>
    3fef:	8b 0e                	mov    (%esi),%ecx
    3ff1:	85 c9                	test   %ecx,%ecx
    3ff3:	0f 84 d6 03 00 00    	je     43cf <usb_mouse_polling_callback+0x3ff>
    3ff9:	8b 55 08             	mov    0x8(%ebp),%edx
    3ffc:	83 c2 18             	add    $0x18,%edx
    3fff:	89 55 e0             	mov    %edx,-0x20(%ebp)
    4002:	8b 55 08             	mov    0x8(%ebp),%edx
    4005:	0f b6 7a 38          	movzbl 0x38(%edx),%edi
    4009:	e8 02 35 00 00       	call   7510 <usb_hid_report_path>
    400e:	81 e7 ff 00 00 00    	and    $0xff,%edi
    4014:	89 c3                	mov    %eax,%ebx
    4016:	c7 44 24 08 30 00 00 	movl   $0x30,0x8(%esp)
    401d:	00 
    401e:	c7 44 24 04 01 00 00 	movl   $0x1,0x4(%esp)
    4025:	00 
    4026:	89 04 24             	mov    %eax,(%esp)
    4029:	e8 e2 2f 00 00       	call   7010 <usb_hid_report_path_append_item>
    402e:	89 7c 24 04          	mov    %edi,0x4(%esp)
    4032:	89 1c 24             	mov    %ebx,(%esp)
    4035:	e8 86 36 00 00       	call   76c0 <usb_hid_report_path_set_report_id>
    403a:	8b 55 e0             	mov    -0x20(%ebp),%edx
    403d:	c7 44 24 10 01 00 00 	movl   $0x1,0x10(%esp)
    4044:	00 
    4045:	c7 44 24 0c 01 00 00 	movl   $0x1,0xc(%esp)
    404c:	00 
    404d:	89 5c 24 08          	mov    %ebx,0x8(%esp)
    4051:	c7 44 24 04 00 00 00 	movl   $0x0,0x4(%esp)
    4058:	00 
    4059:	89 14 24             	mov    %edx,(%esp)
    405c:	e8 cf 2d 00 00       	call   6e30 <usb_hid_report_get_sibling>
    4061:	85 c0                	test   %eax,%eax
    4063:	0f 84 d5 02 00 00    	je     433e <usb_mouse_polling_callback+0x36e>
    4069:	8b 40 3c             	mov    0x3c(%eax),%eax
    406c:	89 45 e4             	mov    %eax,-0x1c(%ebp)
    406f:	89 1c 24             	mov    %ebx,(%esp)
    4072:	e8 d9 34 00 00       	call   7550 <usb_hid_report_path_free>
    4077:	8b 55 08             	mov    0x8(%ebp),%edx
    407a:	0f b6 7a 38          	movzbl 0x38(%edx),%edi
    407e:	e8 8d 34 00 00       	call   7510 <usb_hid_report_path>
    4083:	81 e7 ff 00 00 00    	and    $0xff,%edi
    4089:	89 c3                	mov    %eax,%ebx
    408b:	c7 44 24 08 31 00 00 	movl   $0x31,0x8(%esp)
    4092:	00 
    4093:	c7 44 24 04 01 00 00 	movl   $0x1,0x4(%esp)
    409a:	00 
    409b:	89 04 24             	mov    %eax,(%esp)
    409e:	e8 6d 2f 00 00       	call   7010 <usb_hid_report_path_append_item>
    40a3:	89 7c 24 04          	mov    %edi,0x4(%esp)
    40a7:	89 1c 24             	mov    %ebx,(%esp)
    40aa:	e8 11 36 00 00       	call   76c0 <usb_hid_report_path_set_report_id>
    40af:	8b 55 e0             	mov    -0x20(%ebp),%edx
    40b2:	c7 44 24 10 01 00 00 	movl   $0x1,0x10(%esp)
    40b9:	00 
    40ba:	c7 44 24 0c 01 00 00 	movl   $0x1,0xc(%esp)
    40c1:	00 
    40c2:	89 5c 24 08          	mov    %ebx,0x8(%esp)
    40c6:	c7 44 24 04 00 00 00 	movl   $0x0,0x4(%esp)
    40cd:	00 
    40ce:	89 14 24             	mov    %edx,(%esp)
    40d1:	e8 5a 2d 00 00       	call   6e30 <usb_hid_report_get_sibling>
    40d6:	85 c0                	test   %eax,%eax
    40d8:	0f 84 14 03 00 00    	je     43f2 <usb_mouse_polling_callback+0x422>
    40de:	8b 40 3c             	mov    0x3c(%eax),%eax
    40e1:	89 45 dc             	mov    %eax,-0x24(%ebp)
    40e4:	89 1c 24             	mov    %ebx,(%esp)
    40e7:	e8 64 34 00 00       	call   7550 <usb_hid_report_path_free>
    40ec:	8b 55 08             	mov    0x8(%ebp),%edx
    40ef:	0f b6 7a 38          	movzbl 0x38(%edx),%edi
    40f3:	e8 18 34 00 00       	call   7510 <usb_hid_report_path>
    40f8:	81 e7 ff 00 00 00    	and    $0xff,%edi
    40fe:	89 c3                	mov    %eax,%ebx
    4100:	c7 44 24 08 38 00 00 	movl   $0x38,0x8(%esp)
    4107:	00 
    4108:	c7 44 24 04 01 00 00 	movl   $0x1,0x4(%esp)
    410f:	00 
    4110:	89 04 24             	mov    %eax,(%esp)
    4113:	e8 f8 2e 00 00       	call   7010 <usb_hid_report_path_append_item>
    4118:	89 7c 24 04          	mov    %edi,0x4(%esp)
    411c:	89 1c 24             	mov    %ebx,(%esp)
    411f:	e8 9c 35 00 00       	call   76c0 <usb_hid_report_path_set_report_id>
    4124:	8b 55 e0             	mov    -0x20(%ebp),%edx
    4127:	c7 44 24 10 01 00 00 	movl   $0x1,0x10(%esp)
    412e:	00 
    412f:	c7 44 24 0c 01 00 00 	movl   $0x1,0xc(%esp)
    4136:	00 
    4137:	89 5c 24 08          	mov    %ebx,0x8(%esp)
    413b:	c7 44 24 04 00 00 00 	movl   $0x0,0x4(%esp)
    4142:	00 
    4143:	89 14 24             	mov    %edx,(%esp)
    4146:	e8 e5 2c 00 00       	call   6e30 <usb_hid_report_get_sibling>
    414b:	85 c0                	test   %eax,%eax
    414d:	0f 84 ce 02 00 00    	je     4421 <usb_mouse_polling_callback+0x451>
    4153:	8b 78 3c             	mov    0x3c(%eax),%edi
    4156:	89 1c 24             	mov    %ebx,(%esp)
    4159:	e8 f2 33 00 00       	call   7550 <usb_hid_report_path_free>
    415e:	8b 45 dc             	mov    -0x24(%ebp),%eax
    4161:	8b 55 e4             	mov    -0x1c(%ebp),%edx
    4164:	09 d0                	or     %edx,%eax
    4166:	09 f8                	or     %edi,%eax
    4168:	0f 85 1a 02 00 00    	jne    4388 <usb_mouse_polling_callback+0x3b8>
    416e:	e8 9d 33 00 00       	call   7510 <usb_hid_report_path>
    4173:	89 45 e4             	mov    %eax,-0x1c(%ebp)
    4176:	85 c0                	test   %eax,%eax
    4178:	0f 84 80 02 00 00    	je     43fe <usb_mouse_polling_callback+0x42e>
    417e:	c7 44 24 08 00 00 00 	movl   $0x0,0x8(%esp)
    4185:	00 
    4186:	c7 44 24 04 09 00 00 	movl   $0x9,0x4(%esp)
    418d:	00 
    418e:	89 04 24             	mov    %eax,(%esp)
    4191:	e8 7a 2e 00 00       	call   7010 <usb_hid_report_path_append_item>
    4196:	85 c0                	test   %eax,%eax
    4198:	0f 85 b2 01 00 00    	jne    4350 <usb_mouse_polling_callback+0x380>
    419e:	8b 55 08             	mov    0x8(%ebp),%edx
    41a1:	31 c0                	xor    %eax,%eax
    41a3:	8a 42 38             	mov    0x38(%edx),%al
    41a6:	89 44 24 04          	mov    %eax,0x4(%esp)
    41aa:	8b 45 e4             	mov    -0x1c(%ebp),%eax
    41ad:	89 04 24             	mov    %eax,(%esp)
    41b0:	e8 0b 35 00 00       	call   76c0 <usb_hid_report_path_set_report_id>
    41b5:	8b 45 e4             	mov    -0x1c(%ebp),%eax
    41b8:	c7 44 24 10 01 00 00 	movl   $0x1,0x10(%esp)
    41bf:	00 
    41c0:	c7 44 24 0c 03 00 00 	movl   $0x3,0xc(%esp)
    41c7:	00 
    41c8:	89 44 24 08          	mov    %eax,0x8(%esp)
    41cc:	c7 44 24 04 00 00 00 	movl   $0x0,0x4(%esp)
    41d3:	00 
    41d4:	e9 15 01 00 00       	jmp    42ee <usb_mouse_polling_callback+0x31e>
    41d9:	8d b4 26 00 00 00 00 	lea    0x0(%esi,%eiz,1),%esi
    41e0:	66 8b 40 0a          	mov    0xa(%eax),%ax
    41e4:	25 ff ff 00 00       	and    $0xffff,%eax
    41e9:	89 44 24 10          	mov    %eax,0x10(%esp)
    41ed:	8b 43 3c             	mov    0x3c(%ebx),%eax
    41f0:	c7 44 24 08 42 2f 03 	movl   $0x32f42,0x8(%esp)
    41f7:	00 
    41f8:	89 44 24 0c          	mov    %eax,0xc(%esp)
    41fc:	c7 44 24 04 05 00 00 	movl   $0x5,0x4(%esp)
    4203:	00 
    4204:	c7 04 24 ff ff ff ff 	movl   $0xffffffff,(%esp)
    420b:	e8 00 99 01 00       	call   1db10 <log_msg>
    4210:	66 8b 53 0a          	mov    0xa(%ebx),%dx
    4214:	81 e2 ff ff 00 00    	and    $0xffff,%edx
    421a:	8b 43 24             	mov    0x24(%ebx),%eax
    421d:	39 c2                	cmp    %eax,%edx
    421f:	0f 8e 1f 02 00 00    	jle    4444 <usb_mouse_polling_callback+0x474>
    4225:	29 c2                	sub    %eax,%edx
    4227:	3b 56 08             	cmp    0x8(%esi),%edx
    422a:	0f 83 f8 01 00 00    	jae    4428 <usb_mouse_polling_callback+0x458>
    4230:	8d 3c 95 00 00 00 00 	lea    0x0(,%edx,4),%edi
    4237:	8b 46 04             	mov    0x4(%esi),%eax
    423a:	8b 53 3c             	mov    0x3c(%ebx),%edx
    423d:	39 14 38             	cmp    %edx,(%eax,%edi,1)
    4240:	0f 84 8d 00 00 00    	je     42d3 <usb_mouse_polling_callback+0x303>
    4246:	8b 06                	mov    (%esi),%eax
    4248:	89 04 24             	mov    %eax,(%esp)
    424b:	e8 a0 1e 02 00       	call   260f0 <async_exchange_begin>
    4250:	89 c1                	mov    %eax,%ecx
    4252:	85 c0                	test   %eax,%eax
    4254:	74 7d                	je     42d3 <usb_mouse_polling_callback+0x303>
    4256:	c7 44 24 28 00 00 00 	movl   $0x0,0x28(%esp)
    425d:	00 
    425e:	c7 44 24 24 00 00 00 	movl   $0x0,0x24(%esp)
    4265:	00 
    4266:	c7 44 24 20 00 00 00 	movl   $0x0,0x20(%esp)
    426d:	00 
    426e:	c7 44 24 1c 00 00 00 	movl   $0x0,0x1c(%esp)
    4275:	00 
    4276:	c7 44 24 18 00 00 00 	movl   $0x0,0x18(%esp)
    427d:	00 
    427e:	c7 44 24 14 00 00 00 	movl   $0x0,0x14(%esp)
    4285:	00 
    4286:	c7 44 24 10 00 00 00 	movl   $0x0,0x10(%esp)
    428d:	00 
    428e:	8b 43 3c             	mov    0x3c(%ebx),%eax
    4291:	85 c0                	test   %eax,%eax
    4293:	0f 95 c0             	setne  %al
    4296:	25 ff 00 00 00       	and    $0xff,%eax
    429b:	89 44 24 0c          	mov    %eax,0xc(%esp)
    429f:	66 8b 43 0a          	mov    0xa(%ebx),%ax
    42a3:	89 0c 24             	mov    %ecx,(%esp)
    42a6:	25 ff ff 00 00       	and    $0xffff,%eax
    42ab:	c7 44 24 04 02 04 00 	movl   $0x402,0x4(%esp)
    42b2:	00 
    42b3:	89 44 24 08          	mov    %eax,0x8(%esp)
    42b7:	89 4d d8             	mov    %ecx,-0x28(%ebp)
    42ba:	e8 e1 0d 02 00       	call   250a0 <async_req_fast>
    42bf:	8b 4d d8             	mov    -0x28(%ebp),%ecx
    42c2:	89 0c 24             	mov    %ecx,(%esp)
    42c5:	e8 96 21 02 00       	call   26460 <async_exchange_end>
    42ca:	8b 46 04             	mov    0x4(%esi),%eax
    42cd:	8b 4b 3c             	mov    0x3c(%ebx),%ecx
    42d0:	89 0c 38             	mov    %ecx,(%eax,%edi,1)
    42d3:	8b 45 e4             	mov    -0x1c(%ebp),%eax
    42d6:	c7 44 24 10 01 00 00 	movl   $0x1,0x10(%esp)
    42dd:	00 
    42de:	c7 44 24 0c 03 00 00 	movl   $0x3,0xc(%esp)
    42e5:	00 
    42e6:	89 44 24 08          	mov    %eax,0x8(%esp)
    42ea:	89 5c 24 04          	mov    %ebx,0x4(%esp)
    42ee:	8b 55 e0             	mov    -0x20(%ebp),%edx
    42f1:	89 14 24             	mov    %edx,(%esp)
    42f4:	e8 37 2b 00 00       	call   6e30 <usb_hid_report_get_sibling>
    42f9:	89 c3                	mov    %eax,%ebx
    42fb:	85 c0                	test   %eax,%eax
    42fd:	0f 85 dd fe ff ff    	jne    41e0 <usb_mouse_polling_callback+0x210>
    4303:	8b 45 e4             	mov    -0x1c(%ebp),%eax
    4306:	89 04 24             	mov    %eax,(%esp)
    4309:	e8 42 32 00 00       	call   7550 <usb_hid_report_path_free>
    430e:	b0 01                	mov    $0x1,%al
    4310:	83 c4 4c             	add    $0x4c,%esp
    4313:	5b                   	pop    %ebx
    4314:	5e                   	pop    %esi
    4315:	5f                   	pop    %edi
    4316:	5d                   	pop    %ebp
    4317:	c3                   	ret    
    4318:	c7 44 24 08 04 31 03 	movl   $0x33104,0x8(%esp)
    431f:	00 
    4320:	c7 44 24 04 01 00 00 	movl   $0x1,0x4(%esp)
    4327:	00 
    4328:	c7 04 24 ff ff ff ff 	movl   $0xffffffff,(%esp)
    432f:	e8 dc 97 01 00       	call   1db10 <log_msg>
    4334:	83 c4 4c             	add    $0x4c,%esp
    4337:	31 c0                	xor    %eax,%eax
    4339:	5b                   	pop    %ebx
    433a:	5e                   	pop    %esi
    433b:	5f                   	pop    %edi
    433c:	5d                   	pop    %ebp
    433d:	c3                   	ret    
    433e:	c7 45 e4 00 00 00 00 	movl   $0x0,-0x1c(%ebp)
    4345:	e9 25 fd ff ff       	jmp    406f <usb_mouse_polling_callback+0x9f>
    434a:	8d b6 00 00 00 00    	lea    0x0(%esi),%esi
    4350:	8b 45 e4             	mov    -0x1c(%ebp),%eax
    4353:	89 04 24             	mov    %eax,(%esp)
    4356:	e8 f5 31 00 00       	call   7550 <usb_hid_report_path_free>
    435b:	c7 44 24 08 60 31 03 	movl   $0x33160,0x8(%esp)
    4362:	00 
    4363:	c7 44 24 04 02 00 00 	movl   $0x2,0x4(%esp)
    436a:	00 
    436b:	c7 04 24 ff ff ff ff 	movl   $0xffffffff,(%esp)
    4372:	e8 99 97 01 00       	call   1db10 <log_msg>
    4377:	83 c4 4c             	add    $0x4c,%esp
    437a:	b0 01                	mov    $0x1,%al
    437c:	5b                   	pop    %ebx
    437d:	5e                   	pop    %esi
    437e:	5f                   	pop    %edi
    437f:	5d                   	pop    %ebp
    4380:	c3                   	ret    
    4381:	8d b4 26 00 00 00 00 	lea    0x0(%esi,%eiz,1),%esi
    4388:	8b 06                	mov    (%esi),%eax
    438a:	89 04 24             	mov    %eax,(%esp)
    438d:	e8 5e 1d 02 00       	call   260f0 <async_exchange_begin>
    4392:	85 c0                	test   %eax,%eax
    4394:	0f 84 d4 fd ff ff    	je     416e <usb_mouse_polling_callback+0x19e>
    439a:	8b 55 dc             	mov    -0x24(%ebp),%edx
    439d:	89 04 24             	mov    %eax,(%esp)
    43a0:	89 54 24 0c          	mov    %edx,0xc(%esp)
    43a4:	8b 55 e4             	mov    -0x1c(%ebp),%edx
    43a7:	89 7c 24 10          	mov    %edi,0x10(%esp)
    43ab:	89 54 24 08          	mov    %edx,0x8(%esp)
    43af:	c7 44 24 04 00 04 00 	movl   $0x400,0x4(%esp)
    43b6:	00 
    43b7:	89 45 d8             	mov    %eax,-0x28(%ebp)
    43ba:	e8 11 12 02 00       	call   255d0 <async_msg_3>
    43bf:	8b 45 d8             	mov    -0x28(%ebp),%eax
    43c2:	89 04 24             	mov    %eax,(%esp)
    43c5:	e8 96 20 02 00       	call   26460 <async_exchange_end>
    43ca:	e9 9f fd ff ff       	jmp    416e <usb_mouse_polling_callback+0x19e>
    43cf:	c7 44 24 08 27 2f 03 	movl   $0x32f27,0x8(%esp)
    43d6:	00 
    43d7:	c7 44 24 04 02 00 00 	movl   $0x2,0x4(%esp)
    43de:	00 
    43df:	c7 04 24 ff ff ff ff 	movl   $0xffffffff,(%esp)
    43e6:	e8 25 97 01 00       	call   1db10 <log_msg>
    43eb:	b0 01                	mov    $0x1,%al
    43ed:	e9 1e ff ff ff       	jmp    4310 <usb_mouse_polling_callback+0x340>
    43f2:	c7 45 dc 00 00 00 00 	movl   $0x0,-0x24(%ebp)
    43f9:	e9 e6 fc ff ff       	jmp    40e4 <usb_mouse_polling_callback+0x114>
    43fe:	c7 44 24 08 38 31 03 	movl   $0x33138,0x8(%esp)
    4405:	00 
    4406:	c7 44 24 04 02 00 00 	movl   $0x2,0x4(%esp)
    440d:	00 
    440e:	c7 04 24 ff ff ff ff 	movl   $0xffffffff,(%esp)
    4415:	e8 f6 96 01 00       	call   1db10 <log_msg>
    441a:	b0 01                	mov    $0x1,%al
    441c:	e9 ef fe ff ff       	jmp    4310 <usb_mouse_polling_callback+0x340>
    4421:	31 ff                	xor    %edi,%edi
    4423:	e9 2e fd ff ff       	jmp    4156 <usb_mouse_polling_callback+0x186>
    4428:	c7 44 24 08 e3 00 00 	movl   $0xe3,0x8(%esp)
    442f:	00 
    4430:	c7 44 24 04 5d 2f 03 	movl   $0x32f5d,0x4(%esp)
    4437:	00 
    4438:	c7 04 24 ac 31 03 00 	movl   $0x331ac,(%esp)
    443f:	e8 cc 8f 02 00       	call   2d410 <assert_abort>
    4444:	c7 44 24 08 e1 00 00 	movl   $0xe1,0x8(%esp)
    444b:	00 
    444c:	c7 44 24 04 5d 2f 03 	movl   $0x32f5d,0x4(%esp)
    4453:	00 
    4454:	c7 04 24 88 31 03 00 	movl   $0x33188,(%esp)
    445b:	e8 b0 8f 02 00       	call   2d410 <assert_abort>

00004460 <usb_mouse_deinit>:
    4460:	55                   	push   %ebp
    4461:	89 e5                	mov    %esp,%ebp
    4463:	53                   	push   %ebx
    4464:	83 ec 24             	sub    $0x24,%esp
    4467:	8b 5d 0c             	mov    0xc(%ebp),%ebx
    446a:	85 db                	test   %ebx,%ebx
    446c:	0f 84 b6 00 00 00    	je     4528 <usb_mouse_deinit+0xc8>
    4472:	8b 03                	mov    (%ebx),%eax
    4474:	85 c0                	test   %eax,%eax
    4476:	74 0c                	je     4484 <usb_mouse_deinit+0x24>
    4478:	89 04 24             	mov    %eax,(%esp)
    447b:	e8 70 1b 02 00       	call   25ff0 <async_hangup>
    4480:	85 c0                	test   %eax,%eax
    4482:	75 6c                	jne    44f0 <usb_mouse_deinit+0x90>
    4484:	8b 43 0c             	mov    0xc(%ebx),%eax
    4487:	85 c0                	test   %eax,%eax
    4489:	74 17                	je     44a2 <usb_mouse_deinit+0x42>
    448b:	89 04 24             	mov    %eax,(%esp)
    448e:	e8 7d 9f 00 00       	call   e410 <ddf_fun_unbind>
    4493:	85 c0                	test   %eax,%eax
    4495:	8b 43 0c             	mov    0xc(%ebx),%eax
    4498:	89 04 24             	mov    %eax,(%esp)
    449b:	75 1b                	jne    44b8 <usb_mouse_deinit+0x58>
    449d:	e8 4e 9d 00 00       	call   e1f0 <ddf_fun_destroy>
    44a2:	8b 43 04             	mov    0x4(%ebx),%eax
    44a5:	89 45 08             	mov    %eax,0x8(%ebp)
    44a8:	83 c4 24             	add    $0x24,%esp
    44ab:	5b                   	pop    %ebx
    44ac:	5d                   	pop    %ebp
    44ad:	e9 0e e8 01 00       	jmp    22cc0 <free>
    44b2:	8d b6 00 00 00 00    	lea    0x0(%esi),%esi
    44b8:	e8 23 9d 00 00       	call   e1e0 <ddf_fun_get_name>
    44bd:	c7 44 24 08 c8 30 03 	movl   $0x330c8,0x8(%esp)
    44c4:	00 
    44c5:	89 44 24 0c          	mov    %eax,0xc(%esp)
    44c9:	c7 44 24 04 01 00 00 	movl   $0x1,0x4(%esp)
    44d0:	00 
    44d1:	c7 04 24 ff ff ff ff 	movl   $0xffffffff,(%esp)
    44d8:	e8 33 96 01 00       	call   1db10 <log_msg>
    44dd:	8b 43 04             	mov    0x4(%ebx),%eax
    44e0:	89 45 08             	mov    %eax,0x8(%ebp)
    44e3:	83 c4 24             	add    $0x24,%esp
    44e6:	5b                   	pop    %ebx
    44e7:	5d                   	pop    %ebp
    44e8:	e9 d3 e7 01 00       	jmp    22cc0 <free>
    44ed:	8d 76 00             	lea    0x0(%esi),%esi
    44f0:	89 04 24             	mov    %eax,(%esp)
    44f3:	e8 48 49 01 00       	call   18e40 <str_error>
    44f8:	89 44 24 10          	mov    %eax,0x10(%esp)
    44fc:	8b 03                	mov    (%ebx),%eax
    44fe:	c7 44 24 08 d0 31 03 	movl   $0x331d0,0x8(%esp)
    4505:	00 
    4506:	89 44 24 0c          	mov    %eax,0xc(%esp)
    450a:	c7 44 24 04 02 00 00 	movl   $0x2,0x4(%esp)
    4511:	00 
    4512:	c7 04 24 ff ff ff ff 	movl   $0xffffffff,(%esp)
    4519:	e8 f2 95 01 00       	call   1db10 <log_msg>
    451e:	e9 61 ff ff ff       	jmp    4484 <usb_mouse_deinit+0x24>
    4523:	90                   	nop
    4524:	8d 74 26 00          	lea    0x0(%esi,%eiz,1),%esi
    4528:	83 c4 24             	add    $0x24,%esp
    452b:	5b                   	pop    %ebx
    452c:	5d                   	pop    %ebp
    452d:	c3                   	ret    
    452e:	66 90                	xchg   %ax,%ax

00004530 <usb_mouse_set_boot_protocol>:
    4530:	55                   	push   %ebp
    4531:	89 e5                	mov    %esp,%ebp
    4533:	56                   	push   %esi
    4534:	53                   	push   %ebx
    4535:	83 ec 10             	sub    $0x10,%esp
    4538:	8b 75 08             	mov    0x8(%ebp),%esi
    453b:	c7 44 24 08 32 00 00 	movl   $0x32,0x8(%esp)
    4542:	00 
    4543:	c7 44 24 04 40 32 03 	movl   $0x33240,0x4(%esp)
    454a:	00 
    454b:	8d 46 18             	lea    0x18(%esi),%eax
    454e:	89 04 24             	mov    %eax,(%esp)
    4551:	e8 ea 16 00 00       	call   5c40 <usb_hid_parse_report_descriptor>
    4556:	89 c3                	mov    %eax,%ebx
    4558:	85 c0                	test   %eax,%eax
    455a:	75 64                	jne    45c0 <usb_mouse_set_boot_protocol+0x90>
    455c:	8b 06                	mov    (%esi),%eax
    455e:	c7 44 24 08 00 00 00 	movl   $0x0,0x8(%esp)
    4565:	00 
    4566:	8b 50 44             	mov    0x44(%eax),%edx
    4569:	83 c0 24             	add    $0x24,%eax
    456c:	89 54 24 04          	mov    %edx,0x4(%esp)
    4570:	89 04 24             	mov    %eax,(%esp)
    4573:	e8 b8 36 00 00       	call   7c30 <usbhid_req_set_protocol>
    4578:	89 c3                	mov    %eax,%ebx
    457a:	85 c0                	test   %eax,%eax
    457c:	75 0a                	jne    4588 <usb_mouse_set_boot_protocol+0x58>
    457e:	83 c4 10             	add    $0x10,%esp
    4581:	89 d8                	mov    %ebx,%eax
    4583:	5b                   	pop    %ebx
    4584:	5e                   	pop    %esi
    4585:	5d                   	pop    %ebp
    4586:	c3                   	ret    
    4587:	90                   	nop
    4588:	89 04 24             	mov    %eax,(%esp)
    458b:	e8 b0 48 01 00       	call   18e40 <str_error>
    4590:	c7 44 24 08 68 2d 03 	movl   $0x32d68,0x8(%esp)
    4597:	00 
    4598:	89 44 24 0c          	mov    %eax,0xc(%esp)
    459c:	c7 44 24 04 02 00 00 	movl   $0x2,0x4(%esp)
    45a3:	00 
    45a4:	c7 04 24 ff ff ff ff 	movl   $0xffffffff,(%esp)
    45ab:	e8 60 95 01 00       	call   1db10 <log_msg>
    45b0:	83 c4 10             	add    $0x10,%esp
    45b3:	89 d8                	mov    %ebx,%eax
    45b5:	5b                   	pop    %ebx
    45b6:	5e                   	pop    %esi
    45b7:	5d                   	pop    %ebp
    45b8:	c3                   	ret    
    45b9:	8d b4 26 00 00 00 00 	lea    0x0(%esi,%eiz,1),%esi
    45c0:	89 04 24             	mov    %eax,(%esp)
    45c3:	e8 78 48 01 00       	call   18e40 <str_error>
    45c8:	c7 44 24 08 3c 2d 03 	movl   $0x32d3c,0x8(%esp)
    45cf:	00 
    45d0:	89 44 24 0c          	mov    %eax,0xc(%esp)
    45d4:	c7 44 24 04 01 00 00 	movl   $0x1,0x4(%esp)
    45db:	00 
    45dc:	c7 04 24 ff ff ff ff 	movl   $0xffffffff,(%esp)
    45e3:	e8 28 95 01 00       	call   1db10 <log_msg>
    45e8:	83 c4 10             	add    $0x10,%esp
    45eb:	89 d8                	mov    %ebx,%eax
    45ed:	5b                   	pop    %ebx
    45ee:	5e                   	pop    %esi
    45ef:	5d                   	pop    %ebp
    45f0:	c3                   	ret    
    45f1:	66 90                	xchg   %ax,%ax
    45f3:	66 90                	xchg   %ax,%ax
    45f5:	66 90                	xchg   %ax,%ax
    45f7:	66 90                	xchg   %ax,%ax
    45f9:	66 90                	xchg   %ax,%ax
    45fb:	66 90                	xchg   %ax,%ax
    45fd:	66 90                	xchg   %ax,%ax
    45ff:	90                   	nop

00004600 <default_connection_handler>:
    4600:	55                   	push   %ebp
    4601:	89 e5                	mov    %esp,%ebp
    4603:	57                   	push   %edi
    4604:	56                   	push   %esi
    4605:	53                   	push   %ebx
    4606:	83 ec 1c             	sub    $0x1c,%esp
    4609:	8b 5d 08             	mov    0x8(%ebp),%ebx
    460c:	8b 7d 10             	mov    0x10(%ebp),%edi
    460f:	c7 44 24 08 74 32 03 	movl   $0x33274,0x8(%esp)
    4616:	00 
    4617:	c7 44 24 04 04 00 00 	movl   $0x4,0x4(%esp)
    461e:	00 
    461f:	c7 04 24 ff ff ff ff 	movl   $0xffffffff,(%esp)
    4626:	8b 75 0c             	mov    0xc(%ebp),%esi
    4629:	e8 e2 94 01 00       	call   1db10 <log_msg>
    462e:	89 1c 24             	mov    %ebx,(%esp)
    4631:	e8 9a 9b 00 00       	call   e1d0 <ddf_fun_data_get>
    4636:	89 7c 24 04          	mov    %edi,0x4(%esp)
    463a:	c7 04 24 02 00 00 00 	movl   $0x2,(%esp)
    4641:	89 c3                	mov    %eax,%ebx
    4643:	e8 88 34 02 00       	call   27ad0 <async_callback_receive_start>
    4648:	85 c0                	test   %eax,%eax
    464a:	74 54                	je     46a0 <default_connection_handler+0xa0>
    464c:	8b 13                	mov    (%ebx),%edx
    464e:	85 d2                	test   %edx,%edx
    4650:	74 16                	je     4668 <default_connection_handler+0x68>
    4652:	c7 45 0c fd ff ff ff 	movl   $0xfffffffd,0xc(%ebp)
    4659:	89 75 08             	mov    %esi,0x8(%ebp)
    465c:	83 c4 1c             	add    $0x1c,%esp
    465f:	5b                   	pop    %ebx
    4660:	5e                   	pop    %esi
    4661:	5f                   	pop    %edi
    4662:	5d                   	pop    %ebp
    4663:	e9 88 10 02 00       	jmp    256f0 <async_answer_0>
    4668:	89 03                	mov    %eax,(%ebx)
    466a:	89 44 24 0c          	mov    %eax,0xc(%esp)
    466e:	c7 44 24 08 a4 32 03 	movl   $0x332a4,0x8(%esp)
    4675:	00 
    4676:	c7 44 24 04 04 00 00 	movl   $0x4,0x4(%esp)
    467d:	00 
    467e:	c7 04 24 ff ff ff ff 	movl   $0xffffffff,(%esp)
    4685:	e8 86 94 01 00       	call   1db10 <log_msg>
    468a:	89 75 08             	mov    %esi,0x8(%ebp)
    468d:	c7 45 0c 00 00 00 00 	movl   $0x0,0xc(%ebp)
    4694:	83 c4 1c             	add    $0x1c,%esp
    4697:	5b                   	pop    %ebx
    4698:	5e                   	pop    %esi
    4699:	5f                   	pop    %edi
    469a:	5d                   	pop    %ebp
    469b:	e9 50 10 02 00       	jmp    256f0 <async_answer_0>
    46a0:	c7 45 0c f2 ff ff ff 	movl   $0xfffffff2,0xc(%ebp)
    46a7:	eb b0                	jmp    4659 <default_connection_handler+0x59>
    46a9:	8d b4 26 00 00 00 00 	lea    0x0(%esi,%eiz,1),%esi

000046b0 <usb_multimedia_init>:
    46b0:	55                   	push   %ebp
    46b1:	89 e5                	mov    %esp,%ebp
    46b3:	56                   	push   %esi
    46b4:	53                   	push   %ebx
    46b5:	83 ec 10             	sub    $0x10,%esp
    46b8:	8b 5d 08             	mov    0x8(%ebp),%ebx
    46bb:	85 db                	test   %ebx,%ebx
    46bd:	0f 84 ad 01 00 00    	je     4870 <usb_multimedia_init+0x1c0>
    46c3:	8b 0b                	mov    (%ebx),%ecx
    46c5:	85 c9                	test   %ecx,%ecx
    46c7:	0f 84 a3 01 00 00    	je     4870 <usb_multimedia_init+0x1c0>
    46cd:	c7 44 24 08 d4 32 03 	movl   $0x332d4,0x8(%esp)
    46d4:	00 
    46d5:	c7 44 24 04 04 00 00 	movl   $0x4,0x4(%esp)
    46dc:	00 
    46dd:	c7 04 24 ff ff ff ff 	movl   $0xffffffff,(%esp)
    46e4:	e8 27 94 01 00       	call   1db10 <log_msg>
    46e9:	c7 44 24 08 54 34 03 	movl   $0x33454,0x8(%esp)
    46f0:	00 
    46f1:	c7 44 24 04 02 00 00 	movl   $0x2,0x4(%esp)
    46f8:	00 
    46f9:	8b 03                	mov    (%ebx),%eax
    46fb:	8b 40 70             	mov    0x70(%eax),%eax
    46fe:	89 04 24             	mov    %eax,(%esp)
    4701:	e8 6a 99 00 00       	call   e070 <ddf_fun_create>
    4706:	89 c3                	mov    %eax,%ebx
    4708:	85 c0                	test   %eax,%eax
    470a:	0f 84 7c 01 00 00    	je     488c <usb_multimedia_init+0x1dc>
    4710:	89 04 24             	mov    %eax,(%esp)
    4713:	c7 44 24 04 40 97 03 	movl   $0x39740,0x4(%esp)
    471a:	00 
    471b:	e8 e0 9e 00 00       	call   e600 <ddf_fun_set_ops>
    4720:	c7 44 24 04 04 00 00 	movl   $0x4,0x4(%esp)
    4727:	00 
    4728:	89 1c 24             	mov    %ebx,(%esp)
    472b:	e8 30 9a 00 00       	call   e160 <ddf_fun_data_alloc>
    4730:	85 c0                	test   %eax,%eax
    4732:	0f 84 42 01 00 00    	je     487a <usb_multimedia_init+0x1ca>
    4738:	c7 00 00 00 00 00    	movl   $0x0,(%eax)
    473e:	89 1c 24             	mov    %ebx,(%esp)
    4741:	e8 ba 9b 00 00       	call   e300 <ddf_fun_bind>
    4746:	89 c6                	mov    %eax,%esi
    4748:	85 c0                	test   %eax,%eax
    474a:	0f 85 d0 00 00 00    	jne    4820 <usb_multimedia_init+0x170>
    4750:	89 1c 24             	mov    %ebx,(%esp)
    4753:	e8 08 99 00 00       	call   e060 <ddf_fun_get_handle>
    4758:	c7 44 24 08 10 33 03 	movl   $0x33310,0x8(%esp)
    475f:	00 
    4760:	89 44 24 0c          	mov    %eax,0xc(%esp)
    4764:	c7 44 24 04 04 00 00 	movl   $0x4,0x4(%esp)
    476b:	00 
    476c:	c7 04 24 ff ff ff ff 	movl   $0xffffffff,(%esp)
    4773:	e8 98 93 01 00       	call   1db10 <log_msg>
    4778:	c7 44 24 04 2c 28 03 	movl   $0x3282c,0x4(%esp)
    477f:	00 
    4780:	89 1c 24             	mov    %ebx,(%esp)
    4783:	e8 f8 9e 00 00       	call   e680 <ddf_fun_add_to_category>
    4788:	89 c6                	mov    %eax,%esi
    478a:	85 c0                	test   %eax,%eax
    478c:	75 2a                	jne    47b8 <usb_multimedia_init+0x108>
    478e:	8b 45 0c             	mov    0xc(%ebp),%eax
    4791:	89 18                	mov    %ebx,(%eax)
    4793:	c7 44 24 08 a0 33 03 	movl   $0x333a0,0x8(%esp)
    479a:	00 
    479b:	c7 44 24 04 04 00 00 	movl   $0x4,0x4(%esp)
    47a2:	00 
    47a3:	c7 04 24 ff ff ff ff 	movl   $0xffffffff,(%esp)
    47aa:	e8 61 93 01 00       	call   1db10 <log_msg>
    47af:	83 c4 10             	add    $0x10,%esp
    47b2:	89 f0                	mov    %esi,%eax
    47b4:	5b                   	pop    %ebx
    47b5:	5e                   	pop    %esi
    47b6:	5d                   	pop    %ebp
    47b7:	c3                   	ret    
    47b8:	89 04 24             	mov    %eax,(%esp)
    47bb:	e8 80 46 01 00       	call   18e40 <str_error>
    47c0:	c7 44 24 08 40 33 03 	movl   $0x33340,0x8(%esp)
    47c7:	00 
    47c8:	89 44 24 0c          	mov    %eax,0xc(%esp)
    47cc:	c7 44 24 04 01 00 00 	movl   $0x1,0x4(%esp)
    47d3:	00 
    47d4:	c7 04 24 ff ff ff ff 	movl   $0xffffffff,(%esp)
    47db:	e8 30 93 01 00       	call   1db10 <log_msg>
    47e0:	89 1c 24             	mov    %ebx,(%esp)
    47e3:	e8 28 9c 00 00       	call   e410 <ddf_fun_unbind>
    47e8:	89 1c 24             	mov    %ebx,(%esp)
    47eb:	85 c0                	test   %eax,%eax
    47ed:	74 71                	je     4860 <usb_multimedia_init+0x1b0>
    47ef:	e8 ec 99 00 00       	call   e1e0 <ddf_fun_get_name>
    47f4:	c7 44 24 08 78 33 03 	movl   $0x33378,0x8(%esp)
    47fb:	00 
    47fc:	89 44 24 0c          	mov    %eax,0xc(%esp)
    4800:	c7 44 24 04 01 00 00 	movl   $0x1,0x4(%esp)
    4807:	00 
    4808:	c7 04 24 ff ff ff ff 	movl   $0xffffffff,(%esp)
    480f:	e8 fc 92 01 00       	call   1db10 <log_msg>
    4814:	83 c4 10             	add    $0x10,%esp
    4817:	89 f0                	mov    %esi,%eax
    4819:	5b                   	pop    %ebx
    481a:	5e                   	pop    %esi
    481b:	5d                   	pop    %ebp
    481c:	c3                   	ret    
    481d:	8d 76 00             	lea    0x0(%esi),%esi
    4820:	89 04 24             	mov    %eax,(%esp)
    4823:	e8 18 46 01 00       	call   18e40 <str_error>
    4828:	c7 44 24 08 60 26 03 	movl   $0x32660,0x8(%esp)
    482f:	00 
    4830:	89 44 24 0c          	mov    %eax,0xc(%esp)
    4834:	c7 44 24 04 01 00 00 	movl   $0x1,0x4(%esp)
    483b:	00 
    483c:	c7 04 24 ff ff ff ff 	movl   $0xffffffff,(%esp)
    4843:	e8 c8 92 01 00       	call   1db10 <log_msg>
    4848:	89 1c 24             	mov    %ebx,(%esp)
    484b:	e8 a0 99 00 00       	call   e1f0 <ddf_fun_destroy>
    4850:	83 c4 10             	add    $0x10,%esp
    4853:	89 f0                	mov    %esi,%eax
    4855:	5b                   	pop    %ebx
    4856:	5e                   	pop    %esi
    4857:	5d                   	pop    %ebp
    4858:	c3                   	ret    
    4859:	8d b4 26 00 00 00 00 	lea    0x0(%esi,%eiz,1),%esi
    4860:	e8 8b 99 00 00       	call   e1f0 <ddf_fun_destroy>
    4865:	83 c4 10             	add    $0x10,%esp
    4868:	89 f0                	mov    %esi,%eax
    486a:	5b                   	pop    %ebx
    486b:	5e                   	pop    %esi
    486c:	5d                   	pop    %ebp
    486d:	c3                   	ret    
    486e:	66 90                	xchg   %ax,%ax
    4870:	be f2 ff ff ff       	mov    $0xfffffff2,%esi
    4875:	e9 35 ff ff ff       	jmp    47af <usb_multimedia_init+0xff>
    487a:	89 1c 24             	mov    %ebx,(%esp)
    487d:	be fe ff ff ff       	mov    $0xfffffffe,%esi
    4882:	e8 69 99 00 00       	call   e1f0 <ddf_fun_destroy>
    4887:	e9 23 ff ff ff       	jmp    47af <usb_multimedia_init+0xff>
    488c:	c7 44 24 08 38 26 03 	movl   $0x32638,0x8(%esp)
    4893:	00 
    4894:	c7 44 24 04 01 00 00 	movl   $0x1,0x4(%esp)
    489b:	00 
    489c:	c7 04 24 ff ff ff ff 	movl   $0xffffffff,(%esp)
    48a3:	be fe ff ff ff       	mov    $0xfffffffe,%esi
    48a8:	e8 63 92 01 00       	call   1db10 <log_msg>
    48ad:	e9 fd fe ff ff       	jmp    47af <usb_multimedia_init+0xff>
    48b2:	8d b4 26 00 00 00 00 	lea    0x0(%esi,%eiz,1),%esi
    48b9:	8d bc 27 00 00 00 00 	lea    0x0(%edi,%eiz,1),%edi

000048c0 <usb_multimedia_deinit>:
    48c0:	55                   	push   %ebp
    48c1:	89 e5                	mov    %esp,%ebp
    48c3:	53                   	push   %ebx
    48c4:	83 ec 14             	sub    $0x14,%esp
    48c7:	8b 5d 0c             	mov    0xc(%ebp),%ebx
    48ca:	89 1c 24             	mov    %ebx,(%esp)
    48cd:	e8 fe 98 00 00       	call   e1d0 <ddf_fun_data_get>
    48d2:	8b 00                	mov    (%eax),%eax
    48d4:	85 c0                	test   %eax,%eax
    48d6:	74 08                	je     48e0 <usb_multimedia_deinit+0x20>
    48d8:	89 04 24             	mov    %eax,(%esp)
    48db:	e8 10 17 02 00       	call   25ff0 <async_hangup>
    48e0:	89 1c 24             	mov    %ebx,(%esp)
    48e3:	e8 28 9b 00 00       	call   e410 <ddf_fun_unbind>
    48e8:	89 1c 24             	mov    %ebx,(%esp)
    48eb:	85 c0                	test   %eax,%eax
    48ed:	75 39                	jne    4928 <usb_multimedia_deinit+0x68>
    48ef:	e8 ec 98 00 00       	call   e1e0 <ddf_fun_get_name>
    48f4:	c7 44 24 08 cb 26 03 	movl   $0x326cb,0x8(%esp)
    48fb:	00 
    48fc:	89 44 24 0c          	mov    %eax,0xc(%esp)
    4900:	c7 44 24 04 05 00 00 	movl   $0x5,0x4(%esp)
    4907:	00 
    4908:	c7 04 24 ff ff ff ff 	movl   $0xffffffff,(%esp)
    490f:	e8 fc 91 01 00       	call   1db10 <log_msg>
    4914:	89 5d 08             	mov    %ebx,0x8(%ebp)
    4917:	83 c4 14             	add    $0x14,%esp
    491a:	5b                   	pop    %ebx
    491b:	5d                   	pop    %ebp
    491c:	e9 cf 98 00 00       	jmp    e1f0 <ddf_fun_destroy>
    4921:	8d b4 26 00 00 00 00 	lea    0x0(%esi,%eiz,1),%esi
    4928:	e8 b3 98 00 00       	call   e1e0 <ddf_fun_get_name>
    492d:	c7 44 24 08 78 33 03 	movl   $0x33378,0x8(%esp)
    4934:	00 
    4935:	89 44 24 0c          	mov    %eax,0xc(%esp)
    4939:	c7 44 24 04 01 00 00 	movl   $0x1,0x4(%esp)
    4940:	00 
    4941:	c7 04 24 ff ff ff ff 	movl   $0xffffffff,(%esp)
    4948:	e8 c3 91 01 00       	call   1db10 <log_msg>
    494d:	83 c4 14             	add    $0x14,%esp
    4950:	5b                   	pop    %ebx
    4951:	5d                   	pop    %ebp
    4952:	c3                   	ret    
    4953:	8d b6 00 00 00 00    	lea    0x0(%esi),%esi
    4959:	8d bc 27 00 00 00 00 	lea    0x0(%edi,%eiz,1),%edi

00004960 <usb_multimedia_polling_callback>:
    4960:	55                   	push   %ebp
    4961:	89 e5                	mov    %esp,%ebp
    4963:	57                   	push   %edi
    4964:	56                   	push   %esi
    4965:	53                   	push   %ebx
    4966:	83 ec 3c             	sub    $0x3c,%esp
    4969:	8b 75 08             	mov    0x8(%ebp),%esi
    496c:	85 f6                	test   %esi,%esi
    496e:	0f 84 bc 01 00 00    	je     4b30 <usb_multimedia_polling_callback+0x1d0>
    4974:	8b 45 0c             	mov    0xc(%ebp),%eax
    4977:	89 04 24             	mov    %eax,(%esp)
    497a:	e8 51 98 00 00       	call   e1d0 <ddf_fun_data_get>
    497f:	89 45 e0             	mov    %eax,-0x20(%ebp)
    4982:	e8 89 2b 00 00       	call   7510 <usb_hid_report_path>
    4987:	89 c3                	mov    %eax,%ebx
    4989:	85 c0                	test   %eax,%eax
    498b:	0f 84 af 01 00 00    	je     4b40 <usb_multimedia_polling_callback+0x1e0>
    4991:	c7 44 24 08 00 00 00 	movl   $0x0,0x8(%esp)
    4998:	00 
    4999:	c7 44 24 04 0c 00 00 	movl   $0xc,0x4(%esp)
    49a0:	00 
    49a1:	89 04 24             	mov    %eax,(%esp)
    49a4:	e8 67 26 00 00       	call   7010 <usb_hid_report_path_append_item>
    49a9:	85 c0                	test   %eax,%eax
    49ab:	0f 85 67 01 00 00    	jne    4b18 <usb_multimedia_polling_callback+0x1b8>
    49b1:	31 c0                	xor    %eax,%eax
    49b3:	8a 46 38             	mov    0x38(%esi),%al
    49b6:	89 1c 24             	mov    %ebx,(%esp)
    49b9:	89 44 24 04          	mov    %eax,0x4(%esp)
    49bd:	83 c6 18             	add    $0x18,%esi
    49c0:	e8 fb 2c 00 00       	call   76c0 <usb_hid_report_path_set_report_id>
    49c5:	c7 44 24 10 01 00 00 	movl   $0x1,0x10(%esp)
    49cc:	00 
    49cd:	c7 44 24 0c 03 00 00 	movl   $0x3,0xc(%esp)
    49d4:	00 
    49d5:	89 5c 24 08          	mov    %ebx,0x8(%esp)
    49d9:	c7 44 24 04 00 00 00 	movl   $0x0,0x4(%esp)
    49e0:	00 
    49e1:	eb 1d                	jmp    4a00 <usb_multimedia_polling_callback+0xa0>
    49e3:	90                   	nop
    49e4:	8d 74 26 00          	lea    0x0(%esi,%eiz,1),%esi
    49e8:	c7 44 24 10 01 00 00 	movl   $0x1,0x10(%esp)
    49ef:	00 
    49f0:	c7 44 24 0c 03 00 00 	movl   $0x3,0xc(%esp)
    49f7:	00 
    49f8:	89 5c 24 08          	mov    %ebx,0x8(%esp)
    49fc:	89 7c 24 04          	mov    %edi,0x4(%esp)
    4a00:	89 34 24             	mov    %esi,(%esp)
    4a03:	e8 28 24 00 00       	call   6e30 <usb_hid_report_get_sibling>
    4a08:	89 c7                	mov    %eax,%edi
    4a0a:	85 c0                	test   %eax,%eax
    4a0c:	0f 84 06 01 00 00    	je     4b18 <usb_multimedia_polling_callback+0x1b8>
    4a12:	8b 40 3c             	mov    0x3c(%eax),%eax
    4a15:	85 c0                	test   %eax,%eax
    4a17:	74 cf                	je     49e8 <usb_multimedia_polling_callback+0x88>
    4a19:	66 8b 4f 0a          	mov    0xa(%edi),%cx
    4a1d:	89 44 24 0c          	mov    %eax,0xc(%esp)
    4a21:	81 e1 ff ff 00 00    	and    $0xffff,%ecx
    4a27:	c7 44 24 08 d8 33 03 	movl   $0x333d8,0x8(%esp)
    4a2e:	00 
    4a2f:	89 4c 24 10          	mov    %ecx,0x10(%esp)
    4a33:	c7 44 24 04 04 00 00 	movl   $0x4,0x4(%esp)
    4a3a:	00 
    4a3b:	c7 04 24 ff ff ff ff 	movl   $0xffffffff,(%esp)
    4a42:	e8 c9 90 01 00       	call   1db10 <log_msg>
    4a47:	66 8b 47 0a          	mov    0xa(%edi),%ax
    4a4b:	25 ff ff 00 00       	and    $0xffff,%eax
    4a50:	89 04 24             	mov    %eax,(%esp)
    4a53:	e8 68 01 00 00       	call   4bc0 <usb_multimedia_map_usage>
    4a58:	89 45 e4             	mov    %eax,-0x1c(%ebp)
    4a5b:	66 8b 47 0a          	mov    0xa(%edi),%ax
    4a5f:	25 ff ff 00 00       	and    $0xffff,%eax
    4a64:	89 04 24             	mov    %eax,(%esp)
    4a67:	e8 a4 30 00 00       	call   7b10 <usbhid_multimedia_usage_to_str>
    4a6c:	c7 44 24 08 64 34 03 	movl   $0x33464,0x8(%esp)
    4a73:	00 
    4a74:	89 44 24 0c          	mov    %eax,0xc(%esp)
    4a78:	c7 44 24 04 03 00 00 	movl   $0x3,0x4(%esp)
    4a7f:	00 
    4a80:	c7 04 24 ff ff ff ff 	movl   $0xffffffff,(%esp)
    4a87:	e8 84 90 01 00       	call   1db10 <log_msg>
    4a8c:	8b 45 e0             	mov    -0x20(%ebp),%eax
    4a8f:	85 c0                	test   %eax,%eax
    4a91:	0f 84 02 01 00 00    	je     4b99 <usb_multimedia_polling_callback+0x239>
    4a97:	8b 45 e4             	mov    -0x1c(%ebp),%eax
    4a9a:	c7 44 24 08 04 34 03 	movl   $0x33404,0x8(%esp)
    4aa1:	00 
    4aa2:	89 44 24 0c          	mov    %eax,0xc(%esp)
    4aa6:	c7 44 24 04 05 00 00 	movl   $0x5,0x4(%esp)
    4aad:	00 
    4aae:	c7 04 24 ff ff ff ff 	movl   $0xffffffff,(%esp)
    4ab5:	e8 56 90 01 00       	call   1db10 <log_msg>
    4aba:	8b 55 e0             	mov    -0x20(%ebp),%edx
    4abd:	8b 02                	mov    (%edx),%eax
    4abf:	85 c0                	test   %eax,%eax
    4ac1:	0f 84 b1 00 00 00    	je     4b78 <usb_multimedia_polling_callback+0x218>
    4ac7:	89 04 24             	mov    %eax,(%esp)
    4aca:	e8 21 16 02 00       	call   260f0 <async_exchange_begin>
    4acf:	85 c0                	test   %eax,%eax
    4ad1:	74 7d                	je     4b50 <usb_multimedia_polling_callback+0x1f0>
    4ad3:	8b 55 e4             	mov    -0x1c(%ebp),%edx
    4ad6:	89 04 24             	mov    %eax,(%esp)
    4ad9:	c7 44 24 14 00 00 00 	movl   $0x0,0x14(%esp)
    4ae0:	00 
    4ae1:	c7 44 24 10 00 00 00 	movl   $0x0,0x10(%esp)
    4ae8:	00 
    4ae9:	89 54 24 0c          	mov    %edx,0xc(%esp)
    4aed:	c7 44 24 08 00 00 00 	movl   $0x0,0x8(%esp)
    4af4:	00 
    4af5:	c7 44 24 04 00 04 00 	movl   $0x400,0x4(%esp)
    4afc:	00 
    4afd:	89 45 dc             	mov    %eax,-0x24(%ebp)
    4b00:	e8 2b 0b 02 00       	call   25630 <async_msg_4>
    4b05:	8b 45 dc             	mov    -0x24(%ebp),%eax
    4b08:	89 04 24             	mov    %eax,(%esp)
    4b0b:	e8 50 19 02 00       	call   26460 <async_exchange_end>
    4b10:	e9 d3 fe ff ff       	jmp    49e8 <usb_multimedia_polling_callback+0x88>
    4b15:	8d 76 00             	lea    0x0(%esi),%esi
    4b18:	89 1c 24             	mov    %ebx,(%esp)
    4b1b:	e8 30 2a 00 00       	call   7550 <usb_hid_report_path_free>
    4b20:	83 c4 3c             	add    $0x3c,%esp
    4b23:	b0 01                	mov    $0x1,%al
    4b25:	5b                   	pop    %ebx
    4b26:	5e                   	pop    %esi
    4b27:	5f                   	pop    %edi
    4b28:	5d                   	pop    %ebp
    4b29:	c3                   	ret    
    4b2a:	8d b6 00 00 00 00    	lea    0x0(%esi),%esi
    4b30:	83 c4 3c             	add    $0x3c,%esp
    4b33:	31 c0                	xor    %eax,%eax
    4b35:	5b                   	pop    %ebx
    4b36:	5e                   	pop    %esi
    4b37:	5f                   	pop    %edi
    4b38:	5d                   	pop    %ebp
    4b39:	c3                   	ret    
    4b3a:	8d b6 00 00 00 00    	lea    0x0(%esi),%esi
    4b40:	83 c4 3c             	add    $0x3c,%esp
    4b43:	b0 01                	mov    $0x1,%al
    4b45:	5b                   	pop    %ebx
    4b46:	5e                   	pop    %esi
    4b47:	5f                   	pop    %edi
    4b48:	5d                   	pop    %ebp
    4b49:	c3                   	ret    
    4b4a:	8d b6 00 00 00 00    	lea    0x0(%esi),%esi
    4b50:	c7 44 24 08 34 34 03 	movl   $0x33434,0x8(%esp)
    4b57:	00 
    4b58:	c7 44 24 04 02 00 00 	movl   $0x2,0x4(%esp)
    4b5f:	00 
    4b60:	c7 04 24 ff ff ff ff 	movl   $0xffffffff,(%esp)
    4b67:	e8 a4 8f 01 00       	call   1db10 <log_msg>
    4b6c:	e9 77 fe ff ff       	jmp    49e8 <usb_multimedia_polling_callback+0x88>
    4b71:	8d b4 26 00 00 00 00 	lea    0x0(%esi,%eiz,1),%esi
    4b78:	c7 44 24 08 04 29 03 	movl   $0x32904,0x8(%esp)
    4b7f:	00 
    4b80:	c7 44 24 04 02 00 00 	movl   $0x2,0x4(%esp)
    4b87:	00 
    4b88:	c7 04 24 ff ff ff ff 	movl   $0xffffffff,(%esp)
    4b8f:	e8 7c 8f 01 00       	call   1db10 <log_msg>
    4b94:	e9 4f fe ff ff       	jmp    49e8 <usb_multimedia_polling_callback+0x88>
    4b99:	c7 44 24 08 81 00 00 	movl   $0x81,0x8(%esp)
    4ba0:	00 
    4ba1:	c7 44 24 04 75 34 03 	movl   $0x33475,0x4(%esp)
    4ba8:	00 
    4ba9:	c7 04 24 8d 34 03 00 	movl   $0x3348d,(%esp)
    4bb0:	e8 5b 88 02 00       	call   2d410 <assert_abort>
    4bb5:	66 90                	xchg   %ax,%ax
    4bb7:	66 90                	xchg   %ax,%ax
    4bb9:	66 90                	xchg   %ax,%ax
    4bbb:	66 90                	xchg   %ax,%ax
    4bbd:	66 90                	xchg   %ax,%ax
    4bbf:	90                   	nop

00004bc0 <usb_multimedia_map_usage>:
    4bc0:	55                   	push   %ebp
    4bc1:	83 c8 ff             	or     $0xffffffff,%eax
    4bc4:	89 e5                	mov    %esp,%ebp
    4bc6:	81 7d 08 9b 02 00 00 	cmpl   $0x29b,0x8(%ebp)
    4bcd:	76 09                	jbe    4bd8 <usb_multimedia_map_usage+0x18>
    4bcf:	5d                   	pop    %ebp
    4bd0:	c3                   	ret    
    4bd1:	8d b4 26 00 00 00 00 	lea    0x0(%esi,%eiz,1),%esi
    4bd8:	8b 55 08             	mov    0x8(%ebp),%edx
    4bdb:	5d                   	pop    %ebp
    4bdc:	8b 04 95 20 9c 03 00 	mov    0x39c20(,%edx,4),%eax
    4be3:	c3                   	ret    
    4be4:	66 90                	xchg   %ax,%ax
    4be6:	66 90                	xchg   %ax,%ax
    4be8:	66 90                	xchg   %ax,%ax
    4bea:	66 90                	xchg   %ax,%ax
    4bec:	66 90                	xchg   %ax,%ax
    4bee:	66 90                	xchg   %ax,%ax

00004bf0 <usb_hid_report_path_try_insert>:
    4bf0:	55                   	push   %ebp
    4bf1:	89 e5                	mov    %esp,%ebp
    4bf3:	57                   	push   %edi
    4bf4:	56                   	push   %esi
    4bf5:	53                   	push   %ebx
    4bf6:	83 ec 2c             	sub    $0x2c,%esp
    4bf9:	8b 55 08             	mov    0x8(%ebp),%edx
    4bfc:	8b 5d 0c             	mov    0xc(%ebp),%ebx
    4bff:	85 db                	test   %ebx,%ebx
    4c01:	8b 72 10             	mov    0x10(%edx),%esi
    4c04:	0f 84 7e 00 00 00    	je     4c88 <usb_hid_report_path_try_insert+0x98>
    4c0a:	89 d1                	mov    %edx,%ecx
    4c0c:	83 c1 0c             	add    $0xc,%ecx
    4c0f:	89 4d e4             	mov    %ecx,-0x1c(%ebp)
    4c12:	39 ce                	cmp    %ecx,%esi
    4c14:	75 0a                	jne    4c20 <usb_hid_report_path_try_insert+0x30>
    4c16:	eb 38                	jmp    4c50 <usb_hid_report_path_try_insert+0x60>
    4c18:	8b 76 04             	mov    0x4(%esi),%esi
    4c1b:	39 75 e4             	cmp    %esi,-0x1c(%ebp)
    4c1e:	74 30                	je     4c50 <usb_hid_report_path_try_insert+0x60>
    4c20:	8d 7e f8             	lea    -0x8(%esi),%edi
    4c23:	c7 44 24 08 00 00 00 	movl   $0x0,0x8(%esp)
    4c2a:	00 
    4c2b:	89 5c 24 04          	mov    %ebx,0x4(%esp)
    4c2f:	89 3c 24             	mov    %edi,(%esp)
    4c32:	e8 09 26 00 00       	call   7240 <usb_hid_report_compare_usage_path>
    4c37:	85 c0                	test   %eax,%eax
    4c39:	75 dd                	jne    4c18 <usb_hid_report_path_try_insert+0x28>
    4c3b:	39 75 e4             	cmp    %esi,-0x1c(%ebp)
    4c3e:	74 10                	je     4c50 <usb_hid_report_path_try_insert+0x60>
    4c40:	83 c4 2c             	add    $0x2c,%esp
    4c43:	89 f8                	mov    %edi,%eax
    4c45:	5b                   	pop    %ebx
    4c46:	5e                   	pop    %esi
    4c47:	5f                   	pop    %edi
    4c48:	5d                   	pop    %ebp
    4c49:	c3                   	ret    
    4c4a:	8d b6 00 00 00 00    	lea    0x0(%esi),%esi
    4c50:	89 1c 24             	mov    %ebx,(%esp)
    4c53:	e8 a8 29 00 00       	call   7600 <usb_hid_report_path_clone>
    4c58:	89 c7                	mov    %eax,%edi
    4c5a:	85 c0                	test   %eax,%eax
    4c5c:	74 2a                	je     4c88 <usb_hid_report_path_try_insert+0x98>
    4c5e:	8b 4d 08             	mov    0x8(%ebp),%ecx
    4c61:	8b 55 e4             	mov    -0x1c(%ebp),%edx
    4c64:	89 57 0c             	mov    %edx,0xc(%edi)
    4c67:	8d 40 08             	lea    0x8(%eax),%eax
    4c6a:	8b 51 0c             	mov    0xc(%ecx),%edx
    4c6d:	89 57 08             	mov    %edx,0x8(%edi)
    4c70:	8b 51 0c             	mov    0xc(%ecx),%edx
    4c73:	89 41 0c             	mov    %eax,0xc(%ecx)
    4c76:	89 42 04             	mov    %eax,0x4(%edx)
    4c79:	8b 41 14             	mov    0x14(%ecx),%eax
    4c7c:	40                   	inc    %eax
    4c7d:	89 41 14             	mov    %eax,0x14(%ecx)
    4c80:	eb be                	jmp    4c40 <usb_hid_report_path_try_insert+0x50>
    4c82:	8d b6 00 00 00 00    	lea    0x0(%esi),%esi
    4c88:	83 c4 2c             	add    $0x2c,%esp
    4c8b:	31 ff                	xor    %edi,%edi
    4c8d:	89 f8                	mov    %edi,%eax
    4c8f:	5b                   	pop    %ebx
    4c90:	5e                   	pop    %esi
    4c91:	5f                   	pop    %edi
    4c92:	5d                   	pop    %ebp
    4c93:	c3                   	ret    
    4c94:	8d b6 00 00 00 00    	lea    0x0(%esi),%esi
    4c9a:	8d bf 00 00 00 00    	lea    0x0(%edi),%edi

00004ca0 <usb_hid_report_init>:
    4ca0:	55                   	push   %ebp
    4ca1:	89 e5                	mov    %esp,%ebp
    4ca3:	53                   	push   %ebx
    4ca4:	83 ec 14             	sub    $0x14,%esp
    4ca7:	8b 5d 08             	mov    0x8(%ebp),%ebx
    4caa:	85 db                	test   %ebx,%ebx
    4cac:	74 3a                	je     4ce8 <usb_hid_report_init+0x48>
    4cae:	c7 44 24 08 20 00 00 	movl   $0x20,0x8(%esp)
    4cb5:	00 
    4cb6:	c7 44 24 04 00 00 00 	movl   $0x0,0x4(%esp)
    4cbd:	00 
    4cbe:	89 1c 24             	mov    %ebx,(%esp)
    4cc1:	e8 0a 09 01 00       	call   155d0 <memset>
    4cc6:	8d 43 04             	lea    0x4(%ebx),%eax
    4cc9:	89 43 04             	mov    %eax,0x4(%ebx)
    4ccc:	89 43 08             	mov    %eax,0x8(%ebx)
    4ccf:	8d 43 0c             	lea    0xc(%ebx),%eax
    4cd2:	c7 43 18 00 00 00 00 	movl   $0x0,0x18(%ebx)
    4cd9:	89 43 0c             	mov    %eax,0xc(%ebx)
    4cdc:	89 43 10             	mov    %eax,0x10(%ebx)
    4cdf:	31 c0                	xor    %eax,%eax
    4ce1:	83 c4 14             	add    $0x14,%esp
    4ce4:	5b                   	pop    %ebx
    4ce5:	5d                   	pop    %ebp
    4ce6:	c3                   	ret    
    4ce7:	90                   	nop
    4ce8:	b8 f2 ff ff ff       	mov    $0xfffffff2,%eax
    4ced:	eb f2                	jmp    4ce1 <usb_hid_report_init+0x41>
    4cef:	90                   	nop

00004cf0 <usb_hid_report_append_fields>:
    4cf0:	55                   	push   %ebp
    4cf1:	89 e5                	mov    %esp,%ebp
    4cf3:	57                   	push   %edi
    4cf4:	56                   	push   %esi
    4cf5:	53                   	push   %ebx
    4cf6:	83 ec 4c             	sub    $0x4c,%esp
    4cf9:	8b 75 0c             	mov    0xc(%ebp),%esi
    4cfc:	85 f6                	test   %esi,%esi
    4cfe:	0f 84 58 04 00 00    	je     515c <usb_hid_report_append_fields+0x46c>
    4d04:	8b 45 08             	mov    0x8(%ebp),%eax
    4d07:	85 c0                	test   %eax,%eax
    4d09:	0f 84 4d 04 00 00    	je     515c <usb_hid_report_append_fields+0x46c>
    4d0f:	8b 86 04 00 04 00    	mov    0x40004(%esi),%eax
    4d15:	c7 45 cc 00 00 00 00 	movl   $0x0,-0x34(%ebp)
    4d1c:	85 c0                	test   %eax,%eax
    4d1e:	7e 2d                	jle    4d4d <usb_hid_report_append_fields+0x5d>
    4d20:	c1 e0 02             	shl    $0x2,%eax
    4d23:	89 04 24             	mov    %eax,(%esp)
    4d26:	e8 85 de 01 00       	call   22bb0 <malloc>
    4d2b:	89 45 cc             	mov    %eax,-0x34(%ebp)
    4d2e:	8b 86 04 00 04 00    	mov    0x40004(%esi),%eax
    4d34:	c1 e0 02             	shl    $0x2,%eax
    4d37:	89 44 24 08          	mov    %eax,0x8(%esp)
    4d3b:	8d 46 08             	lea    0x8(%esi),%eax
    4d3e:	89 44 24 04          	mov    %eax,0x4(%esp)
    4d42:	8b 45 cc             	mov    -0x34(%ebp),%eax
    4d45:	89 04 24             	mov    %eax,(%esp)
    4d48:	e8 03 0a 01 00       	call   15750 <memcpy>
    4d4d:	8b 96 58 00 04 00    	mov    0x40058(%esi),%edx
    4d53:	8b 86 20 00 04 00    	mov    0x40020(%esi),%eax
    4d59:	89 55 d8             	mov    %edx,-0x28(%ebp)
    4d5c:	85 c0                	test   %eax,%eax
    4d5e:	0f 8e d8 03 00 00    	jle    513c <usb_hid_report_append_fields+0x44c>
    4d64:	8b 4d 08             	mov    0x8(%ebp),%ecx
    4d67:	8b 7d 08             	mov    0x8(%ebp),%edi
    4d6a:	83 c1 0c             	add    $0xc,%ecx
    4d6d:	83 c7 04             	add    $0x4,%edi
    4d70:	c7 45 c8 00 00 00 00 	movl   $0x0,-0x38(%ebp)
    4d77:	c7 45 e0 00 00 00 00 	movl   $0x0,-0x20(%ebp)
    4d7e:	89 4d e4             	mov    %ecx,-0x1c(%ebp)
    4d81:	89 7d d4             	mov    %edi,-0x2c(%ebp)
    4d84:	8d 74 26 00          	lea    0x0(%esi,%eiz,1),%esi
    4d88:	c7 04 24 48 00 00 00 	movl   $0x48,(%esp)
    4d8f:	e8 1c de 01 00       	call   22bb0 <malloc>
    4d94:	89 c3                	mov    %eax,%ebx
    4d96:	85 c0                	test   %eax,%eax
    4d98:	0f 84 91 03 00 00    	je     512f <usb_hid_report_append_fields+0x43f>
    4d9e:	c7 44 24 08 48 00 00 	movl   $0x48,0x8(%esp)
    4da5:	00 
    4da6:	c7 44 24 04 00 00 00 	movl   $0x0,0x4(%esp)
    4dad:	00 
    4dae:	89 04 24             	mov    %eax,(%esp)
    4db1:	e8 1a 08 01 00       	call   155d0 <memset>
    4db6:	8b 86 14 00 04 00    	mov    0x40014(%esi),%eax
    4dbc:	89 43 14             	mov    %eax,0x14(%ebx)
    4dbf:	8b 86 18 00 04 00    	mov    0x40018(%esi),%eax
    4dc5:	89 43 18             	mov    %eax,0x18(%ebx)
    4dc8:	8b 86 48 00 04 00    	mov    0x40048(%esi),%eax
    4dce:	89 43 1c             	mov    %eax,0x1c(%ebx)
    4dd1:	8b 86 4c 00 04 00    	mov    0x4004c(%esi),%eax
    4dd7:	c7 43 40 00 00 00 00 	movl   $0x0,0x40(%ebx)
    4dde:	c7 43 44 00 00 00 00 	movl   $0x0,0x44(%ebx)
    4de5:	89 43 20             	mov    %eax,0x20(%ebx)
    4de8:	f6 86 50 00 04 00 02 	testb  $0x2,0x40050(%esi)
    4def:	0f 85 2b 02 00 00    	jne    5020 <usb_hid_report_append_fields+0x330>
    4df5:	8b 86 04 00 04 00    	mov    0x40004(%esi),%eax
    4dfb:	66 c7 43 0a 00 00    	movw   $0x0,0xa(%ebx)
    4e01:	89 43 38             	mov    %eax,0x38(%ebx)
    4e04:	8b 45 cc             	mov    -0x34(%ebp),%eax
    4e07:	89 43 34             	mov    %eax,0x34(%ebx)
    4e0a:	66 c7 43 08 00 00    	movw   $0x0,0x8(%ebx)
    4e10:	31 c0                	xor    %eax,%eax
    4e12:	c7 45 c8 01 00 00 00 	movl   $0x1,-0x38(%ebp)
    4e19:	8b 4d d8             	mov    -0x28(%ebp),%ecx
    4e1c:	89 44 24 08          	mov    %eax,0x8(%esp)
    4e20:	89 0c 24             	mov    %ecx,(%esp)
    4e23:	c7 44 24 04 01 00 00 	movl   $0x1,0x4(%esp)
    4e2a:	00 
    4e2b:	e8 f0 22 00 00       	call   7120 <usb_hid_report_set_last_item>
    4e30:	66 8b 43 0a          	mov    0xa(%ebx),%ax
    4e34:	25 ff ff 00 00       	and    $0xffff,%eax
    4e39:	8b 7d d8             	mov    -0x28(%ebp),%edi
    4e3c:	89 44 24 08          	mov    %eax,0x8(%esp)
    4e40:	89 3c 24             	mov    %edi,(%esp)
    4e43:	c7 44 24 04 02 00 00 	movl   $0x2,0x4(%esp)
    4e4a:	00 
    4e4b:	e8 d0 22 00 00       	call   7120 <usb_hid_report_set_last_item>
    4e50:	8b 55 08             	mov    0x8(%ebp),%edx
    4e53:	8b 45 d8             	mov    -0x28(%ebp),%eax
    4e56:	8b 7a 10             	mov    0x10(%edx),%edi
    4e59:	85 c0                	test   %eax,%eax
    4e5b:	0f 84 c7 02 00 00    	je     5128 <usb_hid_report_append_fields+0x438>
    4e61:	3b 7d e4             	cmp    -0x1c(%ebp),%edi
    4e64:	0f 84 1c 02 00 00    	je     5086 <usb_hid_report_append_fields+0x396>
    4e6a:	89 5d dc             	mov    %ebx,-0x24(%ebp)
    4e6d:	89 75 d0             	mov    %esi,-0x30(%ebp)
    4e70:	89 fb                	mov    %edi,%ebx
    4e72:	8b 7d d8             	mov    -0x28(%ebp),%edi
    4e75:	eb 0d                	jmp    4e84 <usb_hid_report_append_fields+0x194>
    4e77:	90                   	nop
    4e78:	8b 5b 04             	mov    0x4(%ebx),%ebx
    4e7b:	3b 5d e4             	cmp    -0x1c(%ebp),%ebx
    4e7e:	0f 84 fc 01 00 00    	je     5080 <usb_hid_report_append_fields+0x390>
    4e84:	8d 73 f8             	lea    -0x8(%ebx),%esi
    4e87:	c7 44 24 08 00 00 00 	movl   $0x0,0x8(%esp)
    4e8e:	00 
    4e8f:	89 7c 24 04          	mov    %edi,0x4(%esp)
    4e93:	89 34 24             	mov    %esi,(%esp)
    4e96:	e8 a5 23 00 00       	call   7240 <usb_hid_report_compare_usage_path>
    4e9b:	85 c0                	test   %eax,%eax
    4e9d:	75 d9                	jne    4e78 <usb_hid_report_append_fields+0x188>
    4e9f:	89 df                	mov    %ebx,%edi
    4ea1:	89 f2                	mov    %esi,%edx
    4ea3:	8b 5d dc             	mov    -0x24(%ebp),%ebx
    4ea6:	8b 75 d0             	mov    -0x30(%ebp),%esi
    4ea9:	3b 7d e4             	cmp    -0x1c(%ebp),%edi
    4eac:	0f 84 d4 01 00 00    	je     5086 <usb_hid_report_append_fields+0x396>
    4eb2:	89 53 10             	mov    %edx,0x10(%ebx)
    4eb5:	8b 96 1c 00 04 00    	mov    0x4001c(%esi),%edx
    4ebb:	89 53 04             	mov    %edx,0x4(%ebx)
    4ebe:	83 be 54 00 04 00 01 	cmpl   $0x1,0x40054(%esi)
    4ec5:	0f 84 fd 01 00 00    	je     50c8 <usb_hid_report_append_fields+0x3d8>
    4ecb:	8b 45 e0             	mov    -0x20(%ebp),%eax
    4ece:	0f af c2             	imul   %edx,%eax
    4ed1:	8b 96 24 00 04 00    	mov    0x40024(%esi),%edx
    4ed7:	01 d0                	add    %edx,%eax
    4ed9:	89 03                	mov    %eax,(%ebx)
    4edb:	8b 55 08             	mov    0x8(%ebp),%edx
    4ede:	8b 7a 18             	mov    0x18(%edx),%edi
    4ee1:	85 ff                	test   %edi,%edi
    4ee3:	74 0c                	je     4ef1 <usb_hid_report_append_fields+0x201>
    4ee5:	83 c0 08             	add    $0x8,%eax
    4ee8:	89 03                	mov    %eax,(%ebx)
    4eea:	c7 42 18 01 00 00 00 	movl   $0x1,0x18(%edx)
    4ef1:	8a 8e 50 00 04 00    	mov    0x40050(%esi),%cl
    4ef7:	8b 7d 08             	mov    0x8(%ebp),%edi
    4efa:	88 4b 0c             	mov    %cl,0xc(%ebx)
    4efd:	8b 57 08             	mov    0x8(%edi),%edx
    4f00:	8b 86 54 00 04 00    	mov    0x40054(%esi),%eax
    4f06:	8a 0e                	mov    (%esi),%cl
    4f08:	3b 55 d4             	cmp    -0x2c(%ebp),%edx
    4f0b:	0f 84 8a 00 00 00    	je     4f9b <usb_hid_report_append_fields+0x2ab>
    4f11:	84 c9                	test   %cl,%cl
    4f13:	0f 84 3f 01 00 00    	je     5058 <usb_hid_report_append_fields+0x368>
    4f19:	89 5d dc             	mov    %ebx,-0x24(%ebp)
    4f1c:	8b 5d d4             	mov    -0x2c(%ebp),%ebx
    4f1f:	eb 0e                	jmp    4f2f <usb_hid_report_append_fields+0x23f>
    4f21:	8d b4 26 00 00 00 00 	lea    0x0(%esi,%eiz,1),%esi
    4f28:	8b 52 04             	mov    0x4(%edx),%edx
    4f2b:	39 da                	cmp    %ebx,%edx
    4f2d:	74 69                	je     4f98 <usb_hid_report_append_fields+0x2a8>
    4f2f:	8d 7a e8             	lea    -0x18(%edx),%edi
    4f32:	3a 4a e8             	cmp    -0x18(%edx),%cl
    4f35:	75 f1                	jne    4f28 <usb_hid_report_append_fields+0x238>
    4f37:	3b 47 04             	cmp    0x4(%edi),%eax
    4f3a:	75 ec                	jne    4f28 <usb_hid_report_append_fields+0x238>
    4f3c:	8b 5d dc             	mov    -0x24(%ebp),%ebx
    4f3f:	8d 42 f8             	lea    -0x8(%edx),%eax
    4f42:	89 43 44             	mov    %eax,0x44(%ebx)
    4f45:	8b 47 10             	mov    0x10(%edi),%eax
    4f48:	89 43 40             	mov    %eax,0x40(%ebx)
    4f4b:	8d 53 40             	lea    0x40(%ebx),%edx
    4f4e:	8b 47 10             	mov    0x10(%edi),%eax
    4f51:	89 57 10             	mov    %edx,0x10(%edi)
    4f54:	89 50 04             	mov    %edx,0x4(%eax)
    4f57:	8b 43 04             	mov    0x4(%ebx),%eax
    4f5a:	8b 5f 08             	mov    0x8(%edi),%ebx
    4f5d:	01 c3                	add    %eax,%ebx
    4f5f:	8b 47 0c             	mov    0xc(%edi),%eax
    4f62:	40                   	inc    %eax
    4f63:	89 5f 08             	mov    %ebx,0x8(%edi)
    4f66:	89 47 0c             	mov    %eax,0xc(%edi)
    4f69:	8b 45 e0             	mov    -0x20(%ebp),%eax
    4f6c:	40                   	inc    %eax
    4f6d:	89 45 e0             	mov    %eax,-0x20(%ebp)
    4f70:	8b 4d e0             	mov    -0x20(%ebp),%ecx
    4f73:	39 8e 20 00 04 00    	cmp    %ecx,0x40020(%esi)
    4f79:	0f 8f 09 fe ff ff    	jg     4d88 <usb_hid_report_append_fields+0x98>
    4f7f:	8b 4d c8             	mov    -0x38(%ebp),%ecx
    4f82:	85 c9                	test   %ecx,%ecx
    4f84:	0f 84 b2 01 00 00    	je     513c <usb_hid_report_append_fields+0x44c>
    4f8a:	83 c4 4c             	add    $0x4c,%esp
    4f8d:	31 c0                	xor    %eax,%eax
    4f8f:	5b                   	pop    %ebx
    4f90:	5e                   	pop    %esi
    4f91:	5f                   	pop    %edi
    4f92:	5d                   	pop    %ebp
    4f93:	c3                   	ret    
    4f94:	8d 74 26 00          	lea    0x0(%esi,%eiz,1),%esi
    4f98:	8b 5d dc             	mov    -0x24(%ebp),%ebx
    4f9b:	c7 04 24 20 00 00 00 	movl   $0x20,(%esp)
    4fa2:	e8 09 dc 01 00       	call   22bb0 <malloc>
    4fa7:	89 c7                	mov    %eax,%edi
    4fa9:	85 c0                	test   %eax,%eax
    4fab:	0f 84 7e 01 00 00    	je     512f <usb_hid_report_append_fields+0x43f>
    4fb1:	c7 44 24 08 20 00 00 	movl   $0x20,0x8(%esp)
    4fb8:	00 
    4fb9:	c7 44 24 04 00 00 00 	movl   $0x0,0x4(%esp)
    4fc0:	00 
    4fc1:	89 3c 24             	mov    %edi,(%esp)
    4fc4:	e8 07 06 01 00       	call   155d0 <memset>
    4fc9:	8b 86 54 00 04 00    	mov    0x40054(%esi),%eax
    4fcf:	89 47 04             	mov    %eax,0x4(%edi)
    4fd2:	8b 06                	mov    (%esi),%eax
    4fd4:	88 07                	mov    %al,(%edi)
    4fd6:	84 c0                	test   %al,%al
    4fd8:	74 07                	je     4fe1 <usb_hid_report_append_fields+0x2f1>
    4fda:	c7 47 08 08 00 00 00 	movl   $0x8,0x8(%edi)
    4fe1:	8b 55 d4             	mov    -0x2c(%ebp),%edx
    4fe4:	8d 47 10             	lea    0x10(%edi),%eax
    4fe7:	89 57 1c             	mov    %edx,0x1c(%edi)
    4fea:	8b 55 08             	mov    0x8(%ebp),%edx
    4fed:	c7 47 18 00 00 00 00 	movl   $0x0,0x18(%edi)
    4ff4:	89 47 10             	mov    %eax,0x10(%edi)
    4ff7:	8b 52 04             	mov    0x4(%edx),%edx
    4ffa:	8d 4f 18             	lea    0x18(%edi),%ecx
    4ffd:	89 57 18             	mov    %edx,0x18(%edi)
    5000:	8b 55 08             	mov    0x8(%ebp),%edx
    5003:	89 47 14             	mov    %eax,0x14(%edi)
    5006:	8b 52 04             	mov    0x4(%edx),%edx
    5009:	89 4a 04             	mov    %ecx,0x4(%edx)
    500c:	8b 55 08             	mov    0x8(%ebp),%edx
    500f:	89 4a 04             	mov    %ecx,0x4(%edx)
    5012:	8b 0a                	mov    (%edx),%ecx
    5014:	41                   	inc    %ecx
    5015:	89 0a                	mov    %ecx,(%edx)
    5017:	e9 26 ff ff ff       	jmp    4f42 <usb_hid_report_append_fields+0x252>
    501c:	8d 74 26 00          	lea    0x0(%esi,%eiz,1),%esi
    5020:	8b 86 04 00 04 00    	mov    0x40004(%esi),%eax
    5026:	3b 45 e0             	cmp    -0x20(%ebp),%eax
    5029:	0f 8e e9 00 00 00    	jle    5118 <usb_hid_report_append_fields+0x428>
    502f:	8b 55 e0             	mov    -0x20(%ebp),%edx
    5032:	8b 44 96 08          	mov    0x8(%esi,%edx,4),%eax
    5036:	66 89 43 0a          	mov    %ax,0xa(%ebx)
    503a:	a9 00 00 ff ff       	test   $0xffff0000,%eax
    503f:	0f 84 bb 00 00 00    	je     5100 <usb_hid_report_append_fields+0x410>
    5045:	c1 e8 10             	shr    $0x10,%eax
    5048:	66 89 43 08          	mov    %ax,0x8(%ebx)
    504c:	e9 c8 fd ff ff       	jmp    4e19 <usb_hid_report_append_fields+0x129>
    5051:	8d b4 26 00 00 00 00 	lea    0x0(%esi,%eiz,1),%esi
    5058:	8b 4d d4             	mov    -0x2c(%ebp),%ecx
    505b:	eb 0e                	jmp    506b <usb_hid_report_append_fields+0x37b>
    505d:	8d 76 00             	lea    0x0(%esi),%esi
    5060:	8b 52 04             	mov    0x4(%edx),%edx
    5063:	39 ca                	cmp    %ecx,%edx
    5065:	0f 84 30 ff ff ff    	je     4f9b <usb_hid_report_append_fields+0x2ab>
    506b:	8d 7a e8             	lea    -0x18(%edx),%edi
    506e:	3b 47 04             	cmp    0x4(%edi),%eax
    5071:	75 ed                	jne    5060 <usb_hid_report_append_fields+0x370>
    5073:	8d 42 f8             	lea    -0x8(%edx),%eax
    5076:	e9 c7 fe ff ff       	jmp    4f42 <usb_hid_report_append_fields+0x252>
    507b:	90                   	nop
    507c:	8d 74 26 00          	lea    0x0(%esi,%eiz,1),%esi
    5080:	8b 5d dc             	mov    -0x24(%ebp),%ebx
    5083:	8b 75 d0             	mov    -0x30(%ebp),%esi
    5086:	8b 4d d8             	mov    -0x28(%ebp),%ecx
    5089:	89 0c 24             	mov    %ecx,(%esp)
    508c:	e8 6f 25 00 00       	call   7600 <usb_hid_report_path_clone>
    5091:	89 c2                	mov    %eax,%edx
    5093:	85 c0                	test   %eax,%eax
    5095:	0f 84 8d 00 00 00    	je     5128 <usb_hid_report_append_fields+0x438>
    509b:	8b 7d e4             	mov    -0x1c(%ebp),%edi
    509e:	8d 40 08             	lea    0x8(%eax),%eax
    50a1:	89 7a 0c             	mov    %edi,0xc(%edx)
    50a4:	8b 7d 08             	mov    0x8(%ebp),%edi
    50a7:	8b 4f 0c             	mov    0xc(%edi),%ecx
    50aa:	89 4a 08             	mov    %ecx,0x8(%edx)
    50ad:	8b 4f 0c             	mov    0xc(%edi),%ecx
    50b0:	89 47 0c             	mov    %eax,0xc(%edi)
    50b3:	89 41 04             	mov    %eax,0x4(%ecx)
    50b6:	8b 47 14             	mov    0x14(%edi),%eax
    50b9:	40                   	inc    %eax
    50ba:	89 47 14             	mov    %eax,0x14(%edi)
    50bd:	e9 f0 fd ff ff       	jmp    4eb2 <usb_hid_report_append_fields+0x1c2>
    50c2:	8d b6 00 00 00 00    	lea    0x0(%esi),%esi
    50c8:	8b 4d e0             	mov    -0x20(%ebp),%ecx
    50cb:	8b be 24 00 04 00    	mov    0x40024(%esi),%edi
    50d1:	0f af ca             	imul   %edx,%ecx
    50d4:	01 f9                	add    %edi,%ecx
    50d6:	89 c8                	mov    %ecx,%eax
    50d8:	c1 f8 1f             	sar    $0x1f,%eax
    50db:	c1 e8 1d             	shr    $0x1d,%eax
    50de:	01 c8                	add    %ecx,%eax
    50e0:	c1 f8 03             	sar    $0x3,%eax
    50e3:	c1 e0 04             	shl    $0x4,%eax
    50e6:	83 c0 08             	add    $0x8,%eax
    50e9:	29 c8                	sub    %ecx,%eax
    50eb:	29 d0                	sub    %edx,%eax
    50ed:	0f 89 e6 fd ff ff    	jns    4ed9 <usb_hid_report_append_fields+0x1e9>
    50f3:	c7 03 00 00 00 00    	movl   $0x0,(%ebx)
    50f9:	31 c0                	xor    %eax,%eax
    50fb:	e9 db fd ff ff       	jmp    4edb <usb_hid_report_append_fields+0x1eb>
    5100:	8b 86 08 00 04 00    	mov    0x40008(%esi),%eax
    5106:	66 89 43 08          	mov    %ax,0x8(%ebx)
    510a:	25 ff ff 00 00       	and    $0xffff,%eax
    510f:	e9 05 fd ff ff       	jmp    4e19 <usb_hid_report_append_fields+0x129>
    5114:	8d 74 26 00          	lea    0x0(%esi,%eiz,1),%esi
    5118:	8b 44 86 04          	mov    0x4(%esi,%eax,4),%eax
    511c:	e9 15 ff ff ff       	jmp    5036 <usb_hid_report_append_fields+0x346>
    5121:	8d b4 26 00 00 00 00 	lea    0x0(%esi,%eiz,1),%esi
    5128:	31 d2                	xor    %edx,%edx
    512a:	e9 83 fd ff ff       	jmp    4eb2 <usb_hid_report_append_fields+0x1c2>
    512f:	b8 fe ff ff ff       	mov    $0xfffffffe,%eax
    5134:	83 c4 4c             	add    $0x4c,%esp
    5137:	5b                   	pop    %ebx
    5138:	5e                   	pop    %esi
    5139:	5f                   	pop    %edi
    513a:	5d                   	pop    %ebp
    513b:	c3                   	ret    
    513c:	8b 55 cc             	mov    -0x34(%ebp),%edx
    513f:	85 d2                	test   %edx,%edx
    5141:	0f 84 43 fe ff ff    	je     4f8a <usb_hid_report_append_fields+0x29a>
    5147:	8b 45 cc             	mov    -0x34(%ebp),%eax
    514a:	89 04 24             	mov    %eax,(%esp)
    514d:	e8 6e db 01 00       	call   22cc0 <free>
    5152:	83 c4 4c             	add    $0x4c,%esp
    5155:	31 c0                	xor    %eax,%eax
    5157:	5b                   	pop    %ebx
    5158:	5e                   	pop    %esi
    5159:	5f                   	pop    %edi
    515a:	5d                   	pop    %ebp
    515b:	c3                   	ret    
    515c:	b8 f2 ff ff ff       	mov    $0xfffffff2,%eax
    5161:	eb d1                	jmp    5134 <usb_hid_report_append_fields+0x444>
    5163:	8d b6 00 00 00 00    	lea    0x0(%esi),%esi
    5169:	8d bc 27 00 00 00 00 	lea    0x0(%edi,%eiz,1),%edi

00005170 <usb_hid_report_find_description>:
    5170:	55                   	push   %ebp
    5171:	89 e5                	mov    %esp,%ebp
    5173:	56                   	push   %esi
    5174:	53                   	push   %ebx
    5175:	51                   	push   %ecx
    5176:	8b 4d 08             	mov    0x8(%ebp),%ecx
    5179:	8a 45 0c             	mov    0xc(%ebp),%al
    517c:	8b 5d 10             	mov    0x10(%ebp),%ebx
    517f:	88 45 f7             	mov    %al,-0x9(%ebp)
    5182:	85 c9                	test   %ecx,%ecx
    5184:	74 52                	je     51d8 <usb_hid_report_find_description+0x68>
    5186:	8b 51 08             	mov    0x8(%ecx),%edx
    5189:	8d 71 04             	lea    0x4(%ecx),%esi
    518c:	39 f2                	cmp    %esi,%edx
    518e:	74 48                	je     51d8 <usb_hid_report_find_description+0x68>
    5190:	84 c0                	test   %al,%al
    5192:	74 33                	je     51c7 <usb_hid_report_find_description+0x57>
    5194:	8a 4d f7             	mov    -0x9(%ebp),%cl
    5197:	8d 42 e8             	lea    -0x18(%edx),%eax
    519a:	38 4a e8             	cmp    %cl,-0x18(%edx)
    519d:	74 13                	je     51b2 <usb_hid_report_find_description+0x42>
    519f:	90                   	nop
    51a0:	8b 52 04             	mov    0x4(%edx),%edx
    51a3:	39 f2                	cmp    %esi,%edx
    51a5:	74 31                	je     51d8 <usb_hid_report_find_description+0x68>
    51a7:	8a 4d f7             	mov    -0x9(%ebp),%cl
    51aa:	8d 42 e8             	lea    -0x18(%edx),%eax
    51ad:	38 4a e8             	cmp    %cl,-0x18(%edx)
    51b0:	75 ee                	jne    51a0 <usb_hid_report_find_description+0x30>
    51b2:	39 58 04             	cmp    %ebx,0x4(%eax)
    51b5:	75 e9                	jne    51a0 <usb_hid_report_find_description+0x30>
    51b7:	5a                   	pop    %edx
    51b8:	5b                   	pop    %ebx
    51b9:	5e                   	pop    %esi
    51ba:	5d                   	pop    %ebp
    51bb:	c3                   	ret    
    51bc:	8d 74 26 00          	lea    0x0(%esi,%eiz,1),%esi
    51c0:	8b 52 04             	mov    0x4(%edx),%edx
    51c3:	39 f2                	cmp    %esi,%edx
    51c5:	74 11                	je     51d8 <usb_hid_report_find_description+0x68>
    51c7:	8d 42 e8             	lea    -0x18(%edx),%eax
    51ca:	39 58 04             	cmp    %ebx,0x4(%eax)
    51cd:	75 f1                	jne    51c0 <usb_hid_report_find_description+0x50>
    51cf:	eb e6                	jmp    51b7 <usb_hid_report_find_description+0x47>
    51d1:	8d b4 26 00 00 00 00 	lea    0x0(%esi,%eiz,1),%esi
    51d8:	5a                   	pop    %edx
    51d9:	31 c0                	xor    %eax,%eax
    51db:	5b                   	pop    %ebx
    51dc:	5e                   	pop    %esi
    51dd:	5d                   	pop    %ebp
    51de:	c3                   	ret    
    51df:	90                   	nop

000051e0 <usb_hid_report_parse_main_tag>:
    51e0:	55                   	push   %ebp
    51e1:	b8 02 00 00 00       	mov    $0x2,%eax
    51e6:	89 e5                	mov    %esp,%ebp
    51e8:	56                   	push   %esi
    51e9:	53                   	push   %ebx
    51ea:	83 ec 10             	sub    $0x10,%esp
    51ed:	8a 55 08             	mov    0x8(%ebp),%dl
    51f0:	8b 4d 0c             	mov    0xc(%ebp),%ecx
    51f3:	83 ea 08             	sub    $0x8,%edx
    51f6:	8b 5d 14             	mov    0x14(%ebp),%ebx
    51f9:	8b 75 18             	mov    0x18(%ebp),%esi
    51fc:	80 fa 04             	cmp    $0x4,%dl
    51ff:	0f 87 9a 00 00 00    	ja     529f <usb_hid_report_parse_main_tag+0xbf>
    5205:	81 e2 ff 00 00 00    	and    $0xff,%edx
    520b:	ff 24 95 a0 34 03 00 	jmp    *0x334a0(,%edx,4)
    5212:	8d b6 00 00 00 00    	lea    0x0(%esi),%esi
    5218:	8b 46 14             	mov    0x14(%esi),%eax
    521b:	8d 56 10             	lea    0x10(%esi),%edx
    521e:	39 d0                	cmp    %edx,%eax
    5220:	0f 84 b2 00 00 00    	je     52d8 <usb_hid_report_parse_main_tag+0xf8>
    5226:	83 e8 0c             	sub    $0xc,%eax
    5229:	8a 09                	mov    (%ecx),%cl
    522b:	88 48 08             	mov    %cl,0x8(%eax)
    522e:	8b 83 04 00 04 00    	mov    0x40004(%ebx),%eax
    5234:	8b 44 83 04          	mov    0x4(%ebx,%eax,4),%eax
    5238:	c7 44 24 04 01 00 00 	movl   $0x1,0x4(%esp)
    523f:	00 
    5240:	c1 e8 10             	shr    $0x10,%eax
    5243:	89 34 24             	mov    %esi,(%esp)
    5246:	89 44 24 08          	mov    %eax,0x8(%esp)
    524a:	e8 d1 1e 00 00       	call   7120 <usb_hid_report_set_last_item>
    524f:	8b 83 04 00 04 00    	mov    0x40004(%ebx),%eax
    5255:	8b 44 83 04          	mov    0x4(%ebx,%eax,4),%eax
    5259:	c7 44 24 04 02 00 00 	movl   $0x2,0x4(%esp)
    5260:	00 
    5261:	25 ff ff 00 00       	and    $0xffff,%eax
    5266:	89 34 24             	mov    %esi,(%esp)
    5269:	89 44 24 08          	mov    %eax,0x8(%esp)
    526d:	e8 ae 1e 00 00       	call   7120 <usb_hid_report_set_last_item>
    5272:	8b 83 04 00 04 00    	mov    0x40004(%ebx),%eax
    5278:	8b 44 83 04          	mov    0x4(%ebx,%eax,4),%eax
    527c:	89 44 24 08          	mov    %eax,0x8(%esp)
    5280:	8b 83 08 00 04 00    	mov    0x40008(%ebx),%eax
    5286:	89 34 24             	mov    %esi,(%esp)
    5289:	89 44 24 04          	mov    %eax,0x4(%esp)
    528d:	e8 7e 1d 00 00       	call   7010 <usb_hid_report_path_append_item>
    5292:	89 1c 24             	mov    %ebx,(%esp)
    5295:	e8 e6 1c 00 00       	call   6f80 <usb_hid_report_reset_local_items>
    529a:	b8 02 00 00 00       	mov    $0x2,%eax
    529f:	83 c4 10             	add    $0x10,%esp
    52a2:	5b                   	pop    %ebx
    52a3:	5e                   	pop    %esi
    52a4:	5d                   	pop    %ebp
    52a5:	c3                   	ret    
    52a6:	66 90                	xchg   %ax,%ax
    52a8:	8a 09                	mov    (%ecx),%cl
    52aa:	31 c0                	xor    %eax,%eax
    52ac:	88 8b 50 00 04 00    	mov    %cl,0x40050(%ebx)
    52b2:	83 c4 10             	add    $0x10,%esp
    52b5:	5b                   	pop    %ebx
    52b6:	5e                   	pop    %esi
    52b7:	5d                   	pop    %ebp
    52b8:	c3                   	ret    
    52b9:	8d b4 26 00 00 00 00 	lea    0x0(%esi,%eiz,1),%esi
    52c0:	89 34 24             	mov    %esi,(%esp)
    52c3:	e8 a8 1d 00 00       	call   7070 <usb_hid_report_remove_last_item>
    52c8:	83 c4 10             	add    $0x10,%esp
    52cb:	b8 02 00 00 00       	mov    $0x2,%eax
    52d0:	5b                   	pop    %ebx
    52d1:	5e                   	pop    %esi
    52d2:	5d                   	pop    %ebp
    52d3:	c3                   	ret    
    52d4:	8d 74 26 00          	lea    0x0(%esi,%eiz,1),%esi
    52d8:	b8 f4 ff ff ff       	mov    $0xfffffff4,%eax
    52dd:	e9 47 ff ff ff       	jmp    5229 <usb_hid_report_parse_main_tag+0x49>
    52e2:	8d b4 26 00 00 00 00 	lea    0x0(%esi,%eiz,1),%esi
    52e9:	8d bc 27 00 00 00 00 	lea    0x0(%edi,%eiz,1),%edi

000052f0 <usb_hid_report_parse_global_tag>:
    52f0:	55                   	push   %ebp
    52f1:	b8 02 00 00 00       	mov    $0x2,%eax
    52f6:	89 e5                	mov    %esp,%ebp
    52f8:	57                   	push   %edi
    52f9:	56                   	push   %esi
    52fa:	53                   	push   %ebx
    52fb:	56                   	push   %esi
    52fc:	8a 4d 08             	mov    0x8(%ebp),%cl
    52ff:	8b 5d 0c             	mov    0xc(%ebp),%ebx
    5302:	8b 55 10             	mov    0x10(%ebp),%edx
    5305:	80 f9 0b             	cmp    $0xb,%cl
    5308:	77 3e                	ja     5348 <usb_hid_report_parse_global_tag+0x58>
    530a:	31 c0                	xor    %eax,%eax
    530c:	88 c8                	mov    %cl,%al
    530e:	ff 24 85 b4 34 03 00 	jmp    *0x334b4(,%eax,4)
    5315:	8d 76 00             	lea    0x0(%esi),%esi
    5318:	31 ff                	xor    %edi,%edi
    531a:	31 c0                	xor    %eax,%eax
    531c:	85 d2                	test   %edx,%edx
    531e:	74 1b                	je     533b <usb_hid_report_parse_global_tag+0x4b>
    5320:	8a 0c 03             	mov    (%ebx,%eax,1),%cl
    5323:	81 e1 ff 00 00 00    	and    $0xff,%ecx
    5329:	89 ce                	mov    %ecx,%esi
    532b:	8d 0c c5 00 00 00 00 	lea    0x0(,%eax,8),%ecx
    5332:	d3 e6                	shl    %cl,%esi
    5334:	40                   	inc    %eax
    5335:	09 f7                	or     %esi,%edi
    5337:	39 d0                	cmp    %edx,%eax
    5339:	75 e5                	jne    5320 <usb_hid_report_parse_global_tag+0x30>
    533b:	8b 45 14             	mov    0x14(%ebp),%eax
    533e:	89 b8 20 00 04 00    	mov    %edi,0x40020(%eax)
    5344:	31 c0                	xor    %eax,%eax
    5346:	66 90                	xchg   %ax,%ax
    5348:	5b                   	pop    %ebx
    5349:	5b                   	pop    %ebx
    534a:	5e                   	pop    %esi
    534b:	5f                   	pop    %edi
    534c:	5d                   	pop    %ebp
    534d:	c3                   	ret    
    534e:	66 90                	xchg   %ax,%ax
    5350:	31 c0                	xor    %eax,%eax
    5352:	88 c8                	mov    %cl,%al
    5354:	eb f2                	jmp    5348 <usb_hid_report_parse_global_tag+0x58>
    5356:	66 90                	xchg   %ax,%ax
    5358:	31 ff                	xor    %edi,%edi
    535a:	85 d2                	test   %edx,%edx
    535c:	74 1d                	je     537b <usb_hid_report_parse_global_tag+0x8b>
    535e:	31 c0                	xor    %eax,%eax
    5360:	8a 0c 03             	mov    (%ebx,%eax,1),%cl
    5363:	81 e1 ff 00 00 00    	and    $0xff,%ecx
    5369:	89 ce                	mov    %ecx,%esi
    536b:	8d 0c c5 00 00 00 00 	lea    0x0(,%eax,8),%ecx
    5372:	d3 e6                	shl    %cl,%esi
    5374:	40                   	inc    %eax
    5375:	09 f7                	or     %esi,%edi
    5377:	39 d0                	cmp    %edx,%eax
    5379:	75 e5                	jne    5360 <usb_hid_report_parse_global_tag+0x70>
    537b:	8b 45 14             	mov    0x14(%ebp),%eax
    537e:	89 b8 08 00 04 00    	mov    %edi,0x40008(%eax)
    5384:	31 c0                	xor    %eax,%eax
    5386:	eb c0                	jmp    5348 <usb_hid_report_parse_global_tag+0x58>
    5388:	31 f6                	xor    %esi,%esi
    538a:	31 c0                	xor    %eax,%eax
    538c:	31 ff                	xor    %edi,%edi
    538e:	85 d2                	test   %edx,%edx
    5390:	74 6a                	je     53fc <usb_hid_report_parse_global_tag+0x10c>
    5392:	8d b6 00 00 00 00    	lea    0x0(%esi),%esi
    5398:	8a 0c 03             	mov    (%ebx,%eax,1),%cl
    539b:	81 e1 ff 00 00 00    	and    $0xff,%ecx
    53a1:	89 cf                	mov    %ecx,%edi
    53a3:	8d 0c c5 00 00 00 00 	lea    0x0(,%eax,8),%ecx
    53aa:	d3 e7                	shl    %cl,%edi
    53ac:	40                   	inc    %eax
    53ad:	09 fe                	or     %edi,%esi
    53af:	39 d0                	cmp    %edx,%eax
    53b1:	75 e5                	jne    5398 <usb_hid_report_parse_global_tag+0xa8>
    53b3:	8d 0c d5 00 00 00 00 	lea    0x0(,%edx,8),%ecx
    53ba:	b8 01 00 00 00       	mov    $0x1,%eax
    53bf:	89 4d f0             	mov    %ecx,-0x10(%ebp)
    53c2:	49                   	dec    %ecx
    53c3:	d3 e0                	shl    %cl,%eax
    53c5:	31 ff                	xor    %edi,%edi
    53c7:	85 c6                	test   %eax,%esi
    53c9:	b8 00 00 00 00       	mov    $0x0,%eax
    53ce:	74 40                	je     5410 <usb_hid_report_parse_global_tag+0x120>
    53d0:	8a 0c 03             	mov    (%ebx,%eax,1),%cl
    53d3:	81 e1 ff 00 00 00    	and    $0xff,%ecx
    53d9:	89 ce                	mov    %ecx,%esi
    53db:	8d 0c c5 00 00 00 00 	lea    0x0(,%eax,8),%ecx
    53e2:	d3 e6                	shl    %cl,%esi
    53e4:	40                   	inc    %eax
    53e5:	09 f7                	or     %esi,%edi
    53e7:	39 d0                	cmp    %edx,%eax
    53e9:	75 e5                	jne    53d0 <usb_hid_report_parse_global_tag+0xe0>
    53eb:	b8 01 00 00 00       	mov    $0x1,%eax
    53f0:	8a 4d f0             	mov    -0x10(%ebp),%cl
    53f3:	d3 e0                	shl    %cl,%eax
    53f5:	48                   	dec    %eax
    53f6:	f7 df                	neg    %edi
    53f8:	21 c7                	and    %eax,%edi
    53fa:	f7 df                	neg    %edi
    53fc:	8b 45 14             	mov    0x14(%ebp),%eax
    53ff:	89 b8 14 00 04 00    	mov    %edi,0x40014(%eax)
    5405:	31 c0                	xor    %eax,%eax
    5407:	e9 3c ff ff ff       	jmp    5348 <usb_hid_report_parse_global_tag+0x58>
    540c:	8d 74 26 00          	lea    0x0(%esi,%eiz,1),%esi
    5410:	8a 0c 03             	mov    (%ebx,%eax,1),%cl
    5413:	81 e1 ff 00 00 00    	and    $0xff,%ecx
    5419:	89 ce                	mov    %ecx,%esi
    541b:	8d 0c c5 00 00 00 00 	lea    0x0(,%eax,8),%ecx
    5422:	d3 e6                	shl    %cl,%esi
    5424:	40                   	inc    %eax
    5425:	09 f7                	or     %esi,%edi
    5427:	39 d0                	cmp    %edx,%eax
