
udf:     file format elf32-i386


Disassembly of section .init:

00001094 <__entry>:
    1094:	66 8c d0             	mov    %ss,%ax
    1097:	8e d8                	mov    %eax,%ds
    1099:	8e c0                	mov    %eax,%es
    109b:	8e e0                	mov    %eax,%fs
    109d:	b8 01 00 00 00       	mov    $0x1,%eax
    10a2:	0f a2                	cpuid  
    10a4:	0f ba e2 0b          	bt     $0xb,%edx
    10a8:	73 0c                	jae    10b6 <__entry+0x22>
    10aa:	8d 05 54 89 02 00    	lea    0x28954,%eax
    10b0:	c7 00 a7 2e 02 00    	movl   $0x22ea7,(%eax)
    10b6:	6a 00                	push   $0x0
    10b8:	89 e5                	mov    %esp,%ebp
    10ba:	57                   	push   %edi
    10bb:	e8 a0 72 00 00       	call   8360 <__main>

Disassembly of section .text:

000010c0 <main>:
    10c0:	55                   	push   %ebp
    10c1:	89 e5                	mov    %esp,%ebp
    10c3:	53                   	push   %ebx
    10c4:	83 e4 f0             	and    $0xfffffff0,%esp
    10c7:	83 ec 10             	sub    $0x10,%esp
    10ca:	c7 04 24 02 52 02 00 	movl   $0x25202,(%esp)
    10d1:	e8 2a 23 01 00       	call   13400 <log_init>
    10d6:	c7 44 24 08 58 52 02 	movl   $0x25258,0x8(%esp)
    10dd:	00 
    10de:	c7 44 24 04 03 00 00 	movl   $0x3,0x4(%esp)
    10e5:	00 
    10e6:	c7 04 24 ff ff ff ff 	movl   $0xffffffff,(%esp)
    10ed:	e8 de 24 01 00       	call   135d0 <log_msg>
    10f2:	83 7d 08 03          	cmpl   $0x3,0x8(%ebp)
    10f6:	0f 84 ba 00 00 00    	je     11b6 <main+0xf6>
    10fc:	c7 44 24 0c 00 00 00 	movl   $0x0,0xc(%esp)
    1103:	00 
    1104:	c7 44 24 08 00 00 00 	movl   $0x0,0x8(%esp)
    110b:	00 
    110c:	c7 44 24 04 76 66 73 	movl   $0x20736676,0x4(%esp)
    1113:	20 
    1114:	c7 04 24 02 00 00 00 	movl   $0x2,(%esp)
    111b:	e8 b0 7d 01 00       	call   18ed0 <service_connect_blocking>
    1120:	85 c0                	test   %eax,%eax
    1122:	0f 84 d0 00 00 00    	je     11f8 <main+0x138>
    1128:	c7 44 24 0c e0 86 02 	movl   $0x286e0,0xc(%esp)
    112f:	00 
    1130:	c7 44 24 08 c0 86 02 	movl   $0x286c0,0x8(%esp)
    1137:	00 
    1138:	c7 44 24 04 a0 86 02 	movl   $0x286a0,0x4(%esp)
    113f:	00 
    1140:	89 04 24             	mov    %eax,(%esp)
    1143:	e8 78 6d 00 00       	call   7ec0 <fs_register>
    1148:	89 c3                	mov    %eax,%ebx
    114a:	85 c0                	test   %eax,%eax
    114c:	74 27                	je     1175 <main+0xb5>
    114e:	89 5c 24 0c          	mov    %ebx,0xc(%esp)
    1152:	c7 44 24 08 7c 52 02 	movl   $0x2527c,0x8(%esp)
    1159:	00 
    115a:	c7 44 24 04 00 00 00 	movl   $0x0,0x4(%esp)
    1161:	00 
    1162:	c7 04 24 ff ff ff ff 	movl   $0xffffffff,(%esp)
    1169:	e8 62 24 01 00       	call   135d0 <log_msg>
    116e:	89 d8                	mov    %ebx,%eax
    1170:	8b 5d fc             	mov    -0x4(%ebp),%ebx
    1173:	c9                   	leave  
    1174:	c3                   	ret    
    1175:	e8 76 41 00 00       	call   52f0 <udf_idx_init>
    117a:	89 c3                	mov    %eax,%ebx
    117c:	85 c0                	test   %eax,%eax
    117e:	75 ce                	jne    114e <main+0x8e>
    1180:	c7 44 24 08 42 52 02 	movl   $0x25242,0x8(%esp)
    1187:	00 
    1188:	c7 44 24 04 03 00 00 	movl   $0x3,0x4(%esp)
    118f:	00 
    1190:	c7 04 24 ff ff ff ff 	movl   $0xffffffff,(%esp)
    1197:	e8 34 24 01 00       	call   135d0 <log_msg>
    119c:	c7 04 24 00 00 00 00 	movl   $0x0,(%esp)
    11a3:	e8 38 fb 00 00       	call   10ce0 <task_retval>
    11a8:	c7 04 24 01 00 00 00 	movl   $0x1,(%esp)
    11af:	e8 0c da 00 00       	call   ebc0 <fibril_switch>
    11b4:	eb b8                	jmp    116e <main+0xae>
    11b6:	8b 55 0c             	mov    0xc(%ebp),%edx
    11b9:	c7 44 24 04 06 52 02 	movl   $0x25206,0x4(%esp)
    11c0:	00 
    11c1:	8b 42 04             	mov    0x4(%edx),%eax
    11c4:	89 04 24             	mov    %eax,(%esp)
    11c7:	e8 d4 b4 00 00       	call   c6a0 <str_cmp>
    11cc:	85 c0                	test   %eax,%eax
    11ce:	75 4e                	jne    121e <main+0x15e>
    11d0:	8b 55 0c             	mov    0xc(%ebp),%edx
    11d3:	c7 44 24 08 0a 00 00 	movl   $0xa,0x8(%esp)
    11da:	00 
    11db:	c7 44 24 04 00 00 00 	movl   $0x0,0x4(%esp)
    11e2:	00 
    11e3:	8b 42 08             	mov    0x8(%edx),%eax
    11e6:	89 04 24             	mov    %eax,(%esp)
    11e9:	e8 e2 ce 00 00       	call   e0d0 <strtol>
    11ee:	a3 b8 86 02 00       	mov    %eax,0x286b8
    11f3:	e9 04 ff ff ff       	jmp    10fc <main+0x3c>
    11f8:	c7 44 24 08 29 52 02 	movl   $0x25229,0x8(%esp)
    11ff:	00 
    1200:	c7 44 24 04 00 00 00 	movl   $0x0,0x4(%esp)
    1207:	00 
    1208:	c7 04 24 ff ff ff ff 	movl   $0xffffffff,(%esp)
    120f:	bb 02 00 00 00       	mov    $0x2,%ebx
    1214:	e8 b7 23 01 00       	call   135d0 <log_msg>
    1219:	e9 50 ff ff ff       	jmp    116e <main+0xae>
    121e:	c7 44 24 08 11 52 02 	movl   $0x25211,0x8(%esp)
    1225:	00 
    1226:	c7 44 24 04 00 00 00 	movl   $0x0,0x4(%esp)
    122d:	00 
    122e:	c7 04 24 ff ff ff ff 	movl   $0xffffffff,(%esp)
    1235:	bb 01 00 00 00       	mov    $0x1,%ebx
    123a:	e8 91 23 01 00       	call   135d0 <log_msg>
    123f:	e9 2a ff ff ff       	jmp    116e <main+0xae>
    1244:	66 90                	xchg   %ax,%ax
    1246:	66 90                	xchg   %ax,%ax
    1248:	66 90                	xchg   %ax,%ax
    124a:	66 90                	xchg   %ax,%ax
    124c:	66 90                	xchg   %ax,%ax
    124e:	66 90                	xchg   %ax,%ax

00001250 <udf_long_ad_to_pos>:
    1250:	55                   	push   %ebp
    1251:	89 e5                	mov    %esp,%ebp
    1253:	53                   	push   %ebx
    1254:	83 ec 24             	sub    $0x24,%esp
    1257:	8b 5d 0c             	mov    0xc(%ebp),%ebx
    125a:	8b 43 04             	mov    0x4(%ebx),%eax
    125d:	89 44 24 10          	mov    %eax,0x10(%esp)
    1261:	66 8b 43 08          	mov    0x8(%ebx),%ax
    1265:	c7 44 24 08 a0 52 02 	movl   $0x252a0,0x8(%esp)
    126c:	00 
    126d:	25 ff ff 00 00       	and    $0xffff,%eax
    1272:	c7 44 24 04 04 00 00 	movl   $0x4,0x4(%esp)
    1279:	00 
    127a:	89 44 24 0c          	mov    %eax,0xc(%esp)
    127e:	c7 04 24 ff ff ff ff 	movl   $0xffffffff,(%esp)
    1285:	e8 46 23 01 00       	call   135d0 <log_msg>
    128a:	8b 45 08             	mov    0x8(%ebp),%eax
    128d:	66 8b 53 08          	mov    0x8(%ebx),%dx
    1291:	8b 48 50             	mov    0x50(%eax),%ecx
    1294:	81 e2 ff ff 00 00    	and    $0xffff,%edx
    129a:	8b 43 04             	mov    0x4(%ebx),%eax
    129d:	c1 e2 04             	shl    $0x4,%edx
    12a0:	01 ca                	add    %ecx,%edx
    12a2:	8b 5a 08             	mov    0x8(%edx),%ebx
    12a5:	83 c4 24             	add    $0x24,%esp
    12a8:	01 d8                	add    %ebx,%eax
    12aa:	5b                   	pop    %ebx
    12ab:	5d                   	pop    %ebp
    12ac:	c3                   	ret    
    12ad:	8d 76 00             	lea    0x0(%esi),%esi

000012b0 <udf_volume_recongnition>:
    12b0:	55                   	push   %ebp
    12b1:	89 e5                	mov    %esp,%ebp
    12b3:	57                   	push   %edi
    12b4:	56                   	push   %esi
    12b5:	53                   	push   %ebx
    12b6:	83 ec 3c             	sub    $0x3c,%esp
    12b9:	8b 7d 08             	mov    0x8(%ebp),%edi
    12bc:	c7 04 24 00 08 00 00 	movl   $0x800,(%esp)
    12c3:	e8 78 73 01 00       	call   18640 <malloc>
    12c8:	89 c6                	mov    %eax,%esi
    12ca:	85 c0                	test   %eax,%eax
    12cc:	0f 84 a6 07 00 00    	je     1a78 <udf_volume_recongnition+0x7c8>
    12d2:	89 44 24 10          	mov    %eax,0x10(%esp)
    12d6:	c7 44 24 0c 00 08 00 	movl   $0x800,0xc(%esp)
    12dd:	00 
    12de:	c7 44 24 04 00 80 00 	movl   $0x8000,0x4(%esp)
    12e5:	00 
    12e6:	c7 44 24 08 00 00 00 	movl   $0x0,0x8(%esp)
    12ed:	00 
    12ee:	89 3c 24             	mov    %edi,(%esp)
    12f1:	e8 2a 56 00 00       	call   6920 <block_read_bytes_direct>
    12f6:	89 45 e0             	mov    %eax,-0x20(%ebp)
    12f9:	85 c0                	test   %eax,%eax
    12fb:	0f 85 2a 07 00 00    	jne    1a2b <udf_volume_recongnition+0x77b>
    1301:	89 74 24 10          	mov    %esi,0x10(%esp)
    1305:	c7 44 24 0c 00 08 00 	movl   $0x800,0xc(%esp)
    130c:	00 
    130d:	c7 44 24 04 00 88 00 	movl   $0x8800,0x4(%esp)
    1314:	00 
    1315:	c7 44 24 08 00 00 00 	movl   $0x0,0x8(%esp)
    131c:	00 
    131d:	89 3c 24             	mov    %edi,(%esp)
    1320:	e8 fb 55 00 00       	call   6920 <block_read_bytes_direct>
    1325:	89 45 e0             	mov    %eax,-0x20(%ebp)
    1328:	85 c0                	test   %eax,%eax
    132a:	0f 85 fb 06 00 00    	jne    1a2b <udf_volume_recongnition+0x77b>
    1330:	8d 5e 01             	lea    0x1(%esi),%ebx
    1333:	c7 44 24 08 05 00 00 	movl   $0x5,0x8(%esp)
    133a:	00 
    133b:	89 5c 24 04          	mov    %ebx,0x4(%esp)
    133f:	c7 04 24 2a 56 02 00 	movl   $0x2562a,(%esp)
    1346:	e8 85 b5 00 00       	call   c8d0 <str_lcmp>
    134b:	85 c0                	test   %eax,%eax
    134d:	0f 85 25 04 00 00    	jne    1778 <udf_volume_recongnition+0x4c8>
    1353:	c7 44 24 08 3c 56 02 	movl   $0x2563c,0x8(%esp)
    135a:	00 
    135b:	c7 44 24 04 04 00 00 	movl   $0x4,0x4(%esp)
    1362:	00 
    1363:	c7 04 24 ff ff ff ff 	movl   $0xffffffff,(%esp)
    136a:	e8 61 22 01 00       	call   135d0 <log_msg>
    136f:	c6 45 e7 01          	movb   $0x1,-0x19(%ebp)
    1373:	89 74 24 10          	mov    %esi,0x10(%esp)
    1377:	c7 44 24 0c 00 08 00 	movl   $0x800,0xc(%esp)
    137e:	00 
    137f:	c7 44 24 04 00 90 00 	movl   $0x9000,0x4(%esp)
    1386:	00 
    1387:	c7 44 24 08 00 00 00 	movl   $0x0,0x8(%esp)
    138e:	00 
    138f:	89 3c 24             	mov    %edi,(%esp)
    1392:	e8 89 55 00 00       	call   6920 <block_read_bytes_direct>
    1397:	85 c0                	test   %eax,%eax
    1399:	0f 85 89 06 00 00    	jne    1a28 <udf_volume_recongnition+0x778>
    139f:	c7 44 24 08 05 00 00 	movl   $0x5,0x8(%esp)
    13a6:	00 
    13a7:	89 5c 24 04          	mov    %ebx,0x4(%esp)
    13ab:	c7 04 24 2a 56 02 00 	movl   $0x2562a,(%esp)
    13b2:	e8 19 b5 00 00       	call   c8d0 <str_lcmp>
    13b7:	85 c0                	test   %eax,%eax
    13b9:	0f 85 29 04 00 00    	jne    17e8 <udf_volume_recongnition+0x538>
    13bf:	c7 44 24 08 3c 56 02 	movl   $0x2563c,0x8(%esp)
    13c6:	00 
    13c7:	c7 44 24 04 04 00 00 	movl   $0x4,0x4(%esp)
    13ce:	00 
    13cf:	c7 04 24 ff ff ff ff 	movl   $0xffffffff,(%esp)
    13d6:	e8 f5 21 01 00       	call   135d0 <log_msg>
    13db:	c6 45 e7 01          	movb   $0x1,-0x19(%ebp)
    13df:	89 74 24 10          	mov    %esi,0x10(%esp)
    13e3:	c7 44 24 0c 00 08 00 	movl   $0x800,0xc(%esp)
    13ea:	00 
    13eb:	c7 44 24 04 00 98 00 	movl   $0x9800,0x4(%esp)
    13f2:	00 
    13f3:	c7 44 24 08 00 00 00 	movl   $0x0,0x8(%esp)
    13fa:	00 
    13fb:	89 3c 24             	mov    %edi,(%esp)
    13fe:	e8 1d 55 00 00       	call   6920 <block_read_bytes_direct>
    1403:	85 c0                	test   %eax,%eax
    1405:	0f 85 1d 06 00 00    	jne    1a28 <udf_volume_recongnition+0x778>
    140b:	c7 44 24 08 05 00 00 	movl   $0x5,0x8(%esp)
    1412:	00 
    1413:	89 5c 24 04          	mov    %ebx,0x4(%esp)
    1417:	c7 04 24 2a 56 02 00 	movl   $0x2562a,(%esp)
    141e:	e8 ad b4 00 00       	call   c8d0 <str_lcmp>
    1423:	85 c0                	test   %eax,%eax
    1425:	0f 85 05 04 00 00    	jne    1830 <udf_volume_recongnition+0x580>
    142b:	c7 44 24 08 3c 56 02 	movl   $0x2563c,0x8(%esp)
    1432:	00 
    1433:	c7 44 24 04 04 00 00 	movl   $0x4,0x4(%esp)
    143a:	00 
    143b:	c7 04 24 ff ff ff ff 	movl   $0xffffffff,(%esp)
    1442:	e8 89 21 01 00       	call   135d0 <log_msg>
    1447:	c6 45 e7 01          	movb   $0x1,-0x19(%ebp)
    144b:	89 74 24 10          	mov    %esi,0x10(%esp)
    144f:	c7 44 24 0c 00 08 00 	movl   $0x800,0xc(%esp)
    1456:	00 
    1457:	c7 44 24 04 00 a0 00 	movl   $0xa000,0x4(%esp)
    145e:	00 
    145f:	c7 44 24 08 00 00 00 	movl   $0x0,0x8(%esp)
    1466:	00 
    1467:	89 3c 24             	mov    %edi,(%esp)
    146a:	e8 b1 54 00 00       	call   6920 <block_read_bytes_direct>
    146f:	85 c0                	test   %eax,%eax
    1471:	0f 85 b1 05 00 00    	jne    1a28 <udf_volume_recongnition+0x778>
    1477:	c7 44 24 08 05 00 00 	movl   $0x5,0x8(%esp)
    147e:	00 
    147f:	89 5c 24 04          	mov    %ebx,0x4(%esp)
    1483:	c7 04 24 2a 56 02 00 	movl   $0x2562a,(%esp)
    148a:	e8 41 b4 00 00       	call   c8d0 <str_lcmp>
    148f:	85 c0                	test   %eax,%eax
    1491:	0f 85 e1 03 00 00    	jne    1878 <udf_volume_recongnition+0x5c8>
    1497:	c7 44 24 08 3c 56 02 	movl   $0x2563c,0x8(%esp)
    149e:	00 
    149f:	c7 44 24 04 04 00 00 	movl   $0x4,0x4(%esp)
    14a6:	00 
    14a7:	c7 04 24 ff ff ff ff 	movl   $0xffffffff,(%esp)
    14ae:	e8 1d 21 01 00       	call   135d0 <log_msg>
    14b3:	c6 45 e7 01          	movb   $0x1,-0x19(%ebp)
    14b7:	89 74 24 10          	mov    %esi,0x10(%esp)
    14bb:	c7 44 24 0c 00 08 00 	movl   $0x800,0xc(%esp)
    14c2:	00 
    14c3:	c7 44 24 04 00 a8 00 	movl   $0xa800,0x4(%esp)
    14ca:	00 
    14cb:	c7 44 24 08 00 00 00 	movl   $0x0,0x8(%esp)
    14d2:	00 
    14d3:	89 3c 24             	mov    %edi,(%esp)
    14d6:	e8 45 54 00 00       	call   6920 <block_read_bytes_direct>
    14db:	85 c0                	test   %eax,%eax
    14dd:	0f 85 45 05 00 00    	jne    1a28 <udf_volume_recongnition+0x778>
    14e3:	c7 44 24 08 05 00 00 	movl   $0x5,0x8(%esp)
    14ea:	00 
    14eb:	89 5c 24 04          	mov    %ebx,0x4(%esp)
    14ef:	c7 04 24 2a 56 02 00 	movl   $0x2562a,(%esp)
    14f6:	e8 d5 b3 00 00       	call   c8d0 <str_lcmp>
    14fb:	85 c0                	test   %eax,%eax
    14fd:	0f 85 bd 03 00 00    	jne    18c0 <udf_volume_recongnition+0x610>
    1503:	c7 44 24 08 3c 56 02 	movl   $0x2563c,0x8(%esp)
    150a:	00 
    150b:	c7 44 24 04 04 00 00 	movl   $0x4,0x4(%esp)
    1512:	00 
    1513:	c7 04 24 ff ff ff ff 	movl   $0xffffffff,(%esp)
    151a:	e8 b1 20 01 00       	call   135d0 <log_msg>
    151f:	c6 45 e7 01          	movb   $0x1,-0x19(%ebp)
    1523:	89 74 24 10          	mov    %esi,0x10(%esp)
    1527:	c7 44 24 0c 00 08 00 	movl   $0x800,0xc(%esp)
    152e:	00 
    152f:	c7 44 24 04 00 b0 00 	movl   $0xb000,0x4(%esp)
    1536:	00 
    1537:	c7 44 24 08 00 00 00 	movl   $0x0,0x8(%esp)
    153e:	00 
    153f:	89 3c 24             	mov    %edi,(%esp)
    1542:	e8 d9 53 00 00       	call   6920 <block_read_bytes_direct>
    1547:	85 c0                	test   %eax,%eax
    1549:	0f 85 d9 04 00 00    	jne    1a28 <udf_volume_recongnition+0x778>
    154f:	c7 44 24 08 05 00 00 	movl   $0x5,0x8(%esp)
    1556:	00 
    1557:	89 5c 24 04          	mov    %ebx,0x4(%esp)
    155b:	c7 04 24 2a 56 02 00 	movl   $0x2562a,(%esp)
    1562:	e8 69 b3 00 00       	call   c8d0 <str_lcmp>
    1567:	85 c0                	test   %eax,%eax
    1569:	0f 85 99 03 00 00    	jne    1908 <udf_volume_recongnition+0x658>
    156f:	c7 44 24 08 3c 56 02 	movl   $0x2563c,0x8(%esp)
    1576:	00 
    1577:	c7 44 24 04 04 00 00 	movl   $0x4,0x4(%esp)
    157e:	00 
    157f:	c7 04 24 ff ff ff ff 	movl   $0xffffffff,(%esp)
    1586:	e8 45 20 01 00       	call   135d0 <log_msg>
    158b:	c6 45 e7 01          	movb   $0x1,-0x19(%ebp)
    158f:	89 74 24 10          	mov    %esi,0x10(%esp)
    1593:	c7 44 24 0c 00 08 00 	movl   $0x800,0xc(%esp)
    159a:	00 
    159b:	c7 44 24 04 00 b8 00 	movl   $0xb800,0x4(%esp)
    15a2:	00 
    15a3:	c7 44 24 08 00 00 00 	movl   $0x0,0x8(%esp)
    15aa:	00 
    15ab:	89 3c 24             	mov    %edi,(%esp)
    15ae:	e8 6d 53 00 00       	call   6920 <block_read_bytes_direct>
    15b3:	85 c0                	test   %eax,%eax
    15b5:	0f 85 6d 04 00 00    	jne    1a28 <udf_volume_recongnition+0x778>
    15bb:	c7 44 24 08 05 00 00 	movl   $0x5,0x8(%esp)
    15c2:	00 
    15c3:	89 5c 24 04          	mov    %ebx,0x4(%esp)
    15c7:	c7 04 24 2a 56 02 00 	movl   $0x2562a,(%esp)
    15ce:	e8 fd b2 00 00       	call   c8d0 <str_lcmp>
    15d3:	85 c0                	test   %eax,%eax
    15d5:	0f 85 75 03 00 00    	jne    1950 <udf_volume_recongnition+0x6a0>
    15db:	c7 44 24 08 3c 56 02 	movl   $0x2563c,0x8(%esp)
    15e2:	00 
    15e3:	c7 44 24 04 04 00 00 	movl   $0x4,0x4(%esp)
    15ea:	00 
    15eb:	c7 04 24 ff ff ff ff 	movl   $0xffffffff,(%esp)
    15f2:	e8 d9 1f 01 00       	call   135d0 <log_msg>
    15f7:	c6 45 e7 01          	movb   $0x1,-0x19(%ebp)
    15fb:	89 74 24 10          	mov    %esi,0x10(%esp)
    15ff:	c7 44 24 0c 00 08 00 	movl   $0x800,0xc(%esp)
    1606:	00 
    1607:	c7 44 24 04 00 c0 00 	movl   $0xc000,0x4(%esp)
    160e:	00 
    160f:	c7 44 24 08 00 00 00 	movl   $0x0,0x8(%esp)
    1616:	00 
    1617:	89 3c 24             	mov    %edi,(%esp)
    161a:	e8 01 53 00 00       	call   6920 <block_read_bytes_direct>
    161f:	85 c0                	test   %eax,%eax
    1621:	0f 85 01 04 00 00    	jne    1a28 <udf_volume_recongnition+0x778>
    1627:	c7 44 24 08 05 00 00 	movl   $0x5,0x8(%esp)
    162e:	00 
    162f:	89 5c 24 04          	mov    %ebx,0x4(%esp)
    1633:	c7 04 24 2a 56 02 00 	movl   $0x2562a,(%esp)
    163a:	e8 91 b2 00 00       	call   c8d0 <str_lcmp>
    163f:	85 c0                	test   %eax,%eax
    1641:	0f 85 51 03 00 00    	jne    1998 <udf_volume_recongnition+0x6e8>
    1647:	c7 44 24 08 3c 56 02 	movl   $0x2563c,0x8(%esp)
    164e:	00 
    164f:	c7 44 24 04 04 00 00 	movl   $0x4,0x4(%esp)
    1656:	00 
    1657:	c7 04 24 ff ff ff ff 	movl   $0xffffffff,(%esp)
    165e:	e8 6d 1f 01 00       	call   135d0 <log_msg>
    1663:	c6 45 e7 01          	movb   $0x1,-0x19(%ebp)
    1667:	89 74 24 10          	mov    %esi,0x10(%esp)
    166b:	c7 44 24 0c 00 08 00 	movl   $0x800,0xc(%esp)
    1672:	00 
    1673:	c7 44 24 04 00 c8 00 	movl   $0xc800,0x4(%esp)
    167a:	00 
    167b:	c7 44 24 08 00 00 00 	movl   $0x0,0x8(%esp)
    1682:	00 
    1683:	89 3c 24             	mov    %edi,(%esp)
    1686:	e8 95 52 00 00       	call   6920 <block_read_bytes_direct>
    168b:	85 c0                	test   %eax,%eax
    168d:	0f 85 95 03 00 00    	jne    1a28 <udf_volume_recongnition+0x778>
    1693:	c7 44 24 08 05 00 00 	movl   $0x5,0x8(%esp)
    169a:	00 
    169b:	89 5c 24 04          	mov    %ebx,0x4(%esp)
    169f:	c7 04 24 2a 56 02 00 	movl   $0x2562a,(%esp)
    16a6:	e8 25 b2 00 00       	call   c8d0 <str_lcmp>
    16ab:	85 c0                	test   %eax,%eax
    16ad:	0f 85 2d 03 00 00    	jne    19e0 <udf_volume_recongnition+0x730>
    16b3:	c7 44 24 08 3c 56 02 	movl   $0x2563c,0x8(%esp)
    16ba:	00 
    16bb:	c7 44 24 04 04 00 00 	movl   $0x4,0x4(%esp)
    16c2:	00 
    16c3:	c7 04 24 ff ff ff ff 	movl   $0xffffffff,(%esp)
    16ca:	e8 01 1f 01 00       	call   135d0 <log_msg>
    16cf:	c6 45 e7 01          	movb   $0x1,-0x19(%ebp)
    16d3:	89 74 24 10          	mov    %esi,0x10(%esp)
    16d7:	c7 44 24 0c 00 08 00 	movl   $0x800,0xc(%esp)
    16de:	00 
    16df:	c7 44 24 04 00 d0 00 	movl   $0xd000,0x4(%esp)
    16e6:	00 
    16e7:	c7 44 24 08 00 00 00 	movl   $0x0,0x8(%esp)
    16ee:	00 
    16ef:	89 3c 24             	mov    %edi,(%esp)
    16f2:	e8 29 52 00 00       	call   6920 <block_read_bytes_direct>
    16f7:	85 c0                	test   %eax,%eax
    16f9:	0f 85 29 03 00 00    	jne    1a28 <udf_volume_recongnition+0x778>
    16ff:	c7 44 24 08 05 00 00 	movl   $0x5,0x8(%esp)
    1706:	00 
    1707:	89 5c 24 04          	mov    %ebx,0x4(%esp)
    170b:	c7 04 24 2a 56 02 00 	movl   $0x2562a,(%esp)
    1712:	e8 b9 b1 00 00       	call   c8d0 <str_lcmp>
    1717:	85 c0                	test   %eax,%eax
    1719:	74 20                	je     173b <udf_volume_recongnition+0x48b>
    171b:	c7 44 24 08 05 00 00 	movl   $0x5,0x8(%esp)
    1722:	00 
    1723:	89 5c 24 04          	mov    %ebx,0x4(%esp)
    1727:	c7 04 24 30 56 02 00 	movl   $0x25630,(%esp)
    172e:	e8 9d b1 00 00       	call   c8d0 <str_lcmp>
    1733:	85 c0                	test   %eax,%eax
    1735:	0f 85 05 03 00 00    	jne    1a40 <udf_volume_recongnition+0x790>
    173b:	c7 44 24 08 3c 56 02 	movl   $0x2563c,0x8(%esp)
    1742:	00 
    1743:	c7 44 24 04 04 00 00 	movl   $0x4,0x4(%esp)
    174a:	00 
    174b:	c7 04 24 ff ff ff ff 	movl   $0xffffffff,(%esp)
    1752:	e8 79 1e 01 00       	call   135d0 <log_msg>
    1757:	c6 45 e7 01          	movb   $0x1,-0x19(%ebp)
    175b:	89 34 24             	mov    %esi,(%esp)
    175e:	e8 ed 6f 01 00       	call   18750 <free>
    1763:	80 7d e7 00          	cmpb   $0x0,-0x19(%ebp)
    1767:	0f 84 fb 02 00 00    	je     1a68 <udf_volume_recongnition+0x7b8>
    176d:	8b 45 e0             	mov    -0x20(%ebp),%eax
    1770:	83 c4 3c             	add    $0x3c,%esp
    1773:	5b                   	pop    %ebx
    1774:	5e                   	pop    %esi
    1775:	5f                   	pop    %edi
    1776:	5d                   	pop    %ebp
    1777:	c3                   	ret    
    1778:	c7 44 24 08 05 00 00 	movl   $0x5,0x8(%esp)
    177f:	00 
    1780:	89 5c 24 04          	mov    %ebx,0x4(%esp)
    1784:	c7 04 24 30 56 02 00 	movl   $0x25630,(%esp)
    178b:	e8 40 b1 00 00       	call   c8d0 <str_lcmp>
    1790:	85 c0                	test   %eax,%eax
    1792:	0f 84 bb fb ff ff    	je     1353 <udf_volume_recongnition+0xa3>
    1798:	c7 44 24 08 05 00 00 	movl   $0x5,0x8(%esp)
    179f:	00 
    17a0:	89 5c 24 04          	mov    %ebx,0x4(%esp)
    17a4:	c7 04 24 36 56 02 00 	movl   $0x25636,(%esp)
    17ab:	e8 20 b1 00 00       	call   c8d0 <str_lcmp>
    17b0:	c6 45 e7 00          	movb   $0x0,-0x19(%ebp)
    17b4:	85 c0                	test   %eax,%eax
    17b6:	0f 85 b7 fb ff ff    	jne    1373 <udf_volume_recongnition+0xc3>
    17bc:	8d 74 26 00          	lea    0x0(%esi,%eiz,1),%esi
    17c0:	c7 44 24 08 4b 56 02 	movl   $0x2564b,0x8(%esp)
    17c7:	00 
    17c8:	c7 44 24 04 04 00 00 	movl   $0x4,0x4(%esp)
    17cf:	00 
    17d0:	c7 04 24 ff ff ff ff 	movl   $0xffffffff,(%esp)
    17d7:	e8 f4 1d 01 00       	call   135d0 <log_msg>
    17dc:	e9 7a ff ff ff       	jmp    175b <udf_volume_recongnition+0x4ab>
    17e1:	8d b4 26 00 00 00 00 	lea    0x0(%esi,%eiz,1),%esi
    17e8:	c7 44 24 08 05 00 00 	movl   $0x5,0x8(%esp)
    17ef:	00 
    17f0:	89 5c 24 04          	mov    %ebx,0x4(%esp)
    17f4:	c7 04 24 30 56 02 00 	movl   $0x25630,(%esp)
    17fb:	e8 d0 b0 00 00       	call   c8d0 <str_lcmp>
    1800:	85 c0                	test   %eax,%eax
    1802:	0f 84 b7 fb ff ff    	je     13bf <udf_volume_recongnition+0x10f>
    1808:	c7 44 24 08 05 00 00 	movl   $0x5,0x8(%esp)
    180f:	00 
    1810:	89 5c 24 04          	mov    %ebx,0x4(%esp)
    1814:	c7 04 24 36 56 02 00 	movl   $0x25636,(%esp)
    181b:	e8 b0 b0 00 00       	call   c8d0 <str_lcmp>
    1820:	85 c0                	test   %eax,%eax
    1822:	0f 85 b7 fb ff ff    	jne    13df <udf_volume_recongnition+0x12f>
    1828:	eb 96                	jmp    17c0 <udf_volume_recongnition+0x510>
    182a:	8d b6 00 00 00 00    	lea    0x0(%esi),%esi
    1830:	c7 44 24 08 05 00 00 	movl   $0x5,0x8(%esp)
    1837:	00 
    1838:	89 5c 24 04          	mov    %ebx,0x4(%esp)
    183c:	c7 04 24 30 56 02 00 	movl   $0x25630,(%esp)
    1843:	e8 88 b0 00 00       	call   c8d0 <str_lcmp>
    1848:	85 c0                	test   %eax,%eax
    184a:	0f 84 db fb ff ff    	je     142b <udf_volume_recongnition+0x17b>
    1850:	c7 44 24 08 05 00 00 	movl   $0x5,0x8(%esp)
    1857:	00 
    1858:	89 5c 24 04          	mov    %ebx,0x4(%esp)
    185c:	c7 04 24 36 56 02 00 	movl   $0x25636,(%esp)
    1863:	e8 68 b0 00 00       	call   c8d0 <str_lcmp>
    1868:	85 c0                	test   %eax,%eax
    186a:	0f 85 db fb ff ff    	jne    144b <udf_volume_recongnition+0x19b>
    1870:	e9 4b ff ff ff       	jmp    17c0 <udf_volume_recongnition+0x510>
    1875:	8d 76 00             	lea    0x0(%esi),%esi
    1878:	c7 44 24 08 05 00 00 	movl   $0x5,0x8(%esp)
    187f:	00 
    1880:	89 5c 24 04          	mov    %ebx,0x4(%esp)
    1884:	c7 04 24 30 56 02 00 	movl   $0x25630,(%esp)
    188b:	e8 40 b0 00 00       	call   c8d0 <str_lcmp>
    1890:	85 c0                	test   %eax,%eax
    1892:	0f 84 ff fb ff ff    	je     1497 <udf_volume_recongnition+0x1e7>
    1898:	c7 44 24 08 05 00 00 	movl   $0x5,0x8(%esp)
    189f:	00 
    18a0:	89 5c 24 04          	mov    %ebx,0x4(%esp)
    18a4:	c7 04 24 36 56 02 00 	movl   $0x25636,(%esp)
    18ab:	e8 20 b0 00 00       	call   c8d0 <str_lcmp>
    18b0:	85 c0                	test   %eax,%eax
    18b2:	0f 85 ff fb ff ff    	jne    14b7 <udf_volume_recongnition+0x207>
    18b8:	e9 03 ff ff ff       	jmp    17c0 <udf_volume_recongnition+0x510>
    18bd:	8d 76 00             	lea    0x0(%esi),%esi
    18c0:	c7 44 24 08 05 00 00 	movl   $0x5,0x8(%esp)
    18c7:	00 
    18c8:	89 5c 24 04          	mov    %ebx,0x4(%esp)
    18cc:	c7 04 24 30 56 02 00 	movl   $0x25630,(%esp)
    18d3:	e8 f8 af 00 00       	call   c8d0 <str_lcmp>
    18d8:	85 c0                	test   %eax,%eax
    18da:	0f 84 23 fc ff ff    	je     1503 <udf_volume_recongnition+0x253>
    18e0:	c7 44 24 08 05 00 00 	movl   $0x5,0x8(%esp)
    18e7:	00 
    18e8:	89 5c 24 04          	mov    %ebx,0x4(%esp)
    18ec:	c7 04 24 36 56 02 00 	movl   $0x25636,(%esp)
    18f3:	e8 d8 af 00 00       	call   c8d0 <str_lcmp>
    18f8:	85 c0                	test   %eax,%eax
    18fa:	0f 85 23 fc ff ff    	jne    1523 <udf_volume_recongnition+0x273>
    1900:	e9 bb fe ff ff       	jmp    17c0 <udf_volume_recongnition+0x510>
    1905:	8d 76 00             	lea    0x0(%esi),%esi
    1908:	c7 44 24 08 05 00 00 	movl   $0x5,0x8(%esp)
    190f:	00 
    1910:	89 5c 24 04          	mov    %ebx,0x4(%esp)
    1914:	c7 04 24 30 56 02 00 	movl   $0x25630,(%esp)
    191b:	e8 b0 af 00 00       	call   c8d0 <str_lcmp>
    1920:	85 c0                	test   %eax,%eax
    1922:	0f 84 47 fc ff ff    	je     156f <udf_volume_recongnition+0x2bf>
    1928:	c7 44 24 08 05 00 00 	movl   $0x5,0x8(%esp)
    192f:	00 
    1930:	89 5c 24 04          	mov    %ebx,0x4(%esp)
    1934:	c7 04 24 36 56 02 00 	movl   $0x25636,(%esp)
    193b:	e8 90 af 00 00       	call   c8d0 <str_lcmp>
    1940:	85 c0                	test   %eax,%eax
    1942:	0f 85 47 fc ff ff    	jne    158f <udf_volume_recongnition+0x2df>
    1948:	e9 73 fe ff ff       	jmp    17c0 <udf_volume_recongnition+0x510>
    194d:	8d 76 00             	lea    0x0(%esi),%esi
    1950:	c7 44 24 08 05 00 00 	movl   $0x5,0x8(%esp)
    1957:	00 
    1958:	89 5c 24 04          	mov    %ebx,0x4(%esp)
    195c:	c7 04 24 30 56 02 00 	movl   $0x25630,(%esp)
    1963:	e8 68 af 00 00       	call   c8d0 <str_lcmp>
    1968:	85 c0                	test   %eax,%eax
    196a:	0f 84 6b fc ff ff    	je     15db <udf_volume_recongnition+0x32b>
    1970:	c7 44 24 08 05 00 00 	movl   $0x5,0x8(%esp)
    1977:	00 
    1978:	89 5c 24 04          	mov    %ebx,0x4(%esp)
    197c:	c7 04 24 36 56 02 00 	movl   $0x25636,(%esp)
    1983:	e8 48 af 00 00       	call   c8d0 <str_lcmp>
    1988:	85 c0                	test   %eax,%eax
    198a:	0f 85 6b fc ff ff    	jne    15fb <udf_volume_recongnition+0x34b>
    1990:	e9 2b fe ff ff       	jmp    17c0 <udf_volume_recongnition+0x510>
    1995:	8d 76 00             	lea    0x0(%esi),%esi
    1998:	c7 44 24 08 05 00 00 	movl   $0x5,0x8(%esp)
    199f:	00 
    19a0:	89 5c 24 04          	mov    %ebx,0x4(%esp)
    19a4:	c7 04 24 30 56 02 00 	movl   $0x25630,(%esp)
    19ab:	e8 20 af 00 00       	call   c8d0 <str_lcmp>
    19b0:	85 c0                	test   %eax,%eax
    19b2:	0f 84 8f fc ff ff    	je     1647 <udf_volume_recongnition+0x397>
    19b8:	c7 44 24 08 05 00 00 	movl   $0x5,0x8(%esp)
    19bf:	00 
    19c0:	89 5c 24 04          	mov    %ebx,0x4(%esp)
    19c4:	c7 04 24 36 56 02 00 	movl   $0x25636,(%esp)
    19cb:	e8 00 af 00 00       	call   c8d0 <str_lcmp>
    19d0:	85 c0                	test   %eax,%eax
    19d2:	0f 85 8f fc ff ff    	jne    1667 <udf_volume_recongnition+0x3b7>
    19d8:	e9 e3 fd ff ff       	jmp    17c0 <udf_volume_recongnition+0x510>
    19dd:	8d 76 00             	lea    0x0(%esi),%esi
    19e0:	c7 44 24 08 05 00 00 	movl   $0x5,0x8(%esp)
    19e7:	00 
    19e8:	89 5c 24 04          	mov    %ebx,0x4(%esp)
    19ec:	c7 04 24 30 56 02 00 	movl   $0x25630,(%esp)
    19f3:	e8 d8 ae 00 00       	call   c8d0 <str_lcmp>
    19f8:	85 c0                	test   %eax,%eax
    19fa:	0f 84 b3 fc ff ff    	je     16b3 <udf_volume_recongnition+0x403>
    1a00:	c7 44 24 08 05 00 00 	movl   $0x5,0x8(%esp)
    1a07:	00 
    1a08:	89 5c 24 04          	mov    %ebx,0x4(%esp)
    1a0c:	c7 04 24 36 56 02 00 	movl   $0x25636,(%esp)
    1a13:	e8 b8 ae 00 00       	call   c8d0 <str_lcmp>
    1a18:	85 c0                	test   %eax,%eax
    1a1a:	0f 85 b3 fc ff ff    	jne    16d3 <udf_volume_recongnition+0x423>
    1a20:	e9 9b fd ff ff       	jmp    17c0 <udf_volume_recongnition+0x510>
    1a25:	8d 76 00             	lea    0x0(%esi),%esi
    1a28:	89 45 e0             	mov    %eax,-0x20(%ebp)
    1a2b:	89 34 24             	mov    %esi,(%esp)
    1a2e:	e8 1d 6d 01 00       	call   18750 <free>
    1a33:	8b 45 e0             	mov    -0x20(%ebp),%eax
    1a36:	83 c4 3c             	add    $0x3c,%esp
    1a39:	5b                   	pop    %ebx
    1a3a:	5e                   	pop    %esi
    1a3b:	5f                   	pop    %edi
    1a3c:	5d                   	pop    %ebp
    1a3d:	c3                   	ret    
    1a3e:	66 90                	xchg   %ax,%ax
    1a40:	c7 44 24 08 05 00 00 	movl   $0x5,0x8(%esp)
    1a47:	00 
    1a48:	89 5c 24 04          	mov    %ebx,0x4(%esp)
    1a4c:	c7 04 24 36 56 02 00 	movl   $0x25636,(%esp)
    1a53:	e8 78 ae 00 00       	call   c8d0 <str_lcmp>
    1a58:	85 c0                	test   %eax,%eax
    1a5a:	0f 85 fb fc ff ff    	jne    175b <udf_volume_recongnition+0x4ab>
    1a60:	e9 5b fd ff ff       	jmp    17c0 <udf_volume_recongnition+0x510>
    1a65:	8d 76 00             	lea    0x0(%esi),%esi
    1a68:	c7 45 e0 f2 ff ff ff 	movl   $0xfffffff2,-0x20(%ebp)
    1a6f:	e9 f9 fc ff ff       	jmp    176d <udf_volume_recongnition+0x4bd>
    1a74:	8d 74 26 00          	lea    0x0(%esi,%eiz,1),%esi
    1a78:	c7 45 e0 fe ff ff ff 	movl   $0xfffffffe,-0x20(%ebp)
    1a7f:	e9 e9 fc ff ff       	jmp    176d <udf_volume_recongnition+0x4bd>
    1a84:	8d b6 00 00 00 00    	lea    0x0(%esi),%esi
    1a8a:	8d bf 00 00 00 00    	lea    0x0(%edi),%edi

00001a90 <udf_get_anchor_volume_descriptor>:
    1a90:	55                   	push   %ebp
    1a91:	b9 06 00 00 00       	mov    $0x6,%ecx
    1a96:	89 e5                	mov    %esp,%ebp
    1a98:	57                   	push   %edi
    1a99:	56                   	push   %esi
    1a9a:	53                   	push   %ebx
    1a9b:	83 ec 5c             	sub    $0x5c,%esp
    1a9e:	8d 7d d0             	lea    -0x30(%ebp),%edi
    1aa1:	be 88 56 02 00       	mov    $0x25688,%esi
    1aa6:	8d 45 cc             	lea    -0x34(%ebp),%eax
    1aa9:	f3 a5                	rep movsl %ds:(%esi),%es:(%edi)
    1aab:	8b 55 08             	mov    0x8(%ebp),%edx
    1aae:	89 44 24 04          	mov    %eax,0x4(%esp)
    1ab2:	89 14 24             	mov    %edx,(%esp)
    1ab5:	e8 c6 66 00 00       	call   8180 <fs_instance_get>
    1aba:	89 c3                	mov    %eax,%ebx
    1abc:	85 c0                	test   %eax,%eax
    1abe:	75 5d                	jne    1b1d <udf_get_anchor_volume_descriptor+0x8d>
    1ac0:	8b 45 cc             	mov    -0x34(%ebp),%eax
    1ac3:	8b 40 48             	mov    0x48(%eax),%eax
    1ac6:	85 c0                	test   %eax,%eax
    1ac8:	0f 85 92 00 00 00    	jne    1b60 <udf_get_anchor_volume_descriptor+0xd0>
    1ace:	8b 75 d0             	mov    -0x30(%ebp),%esi
    1ad1:	8d 7d d4             	lea    -0x2c(%ebp),%edi
    1ad4:	85 f6                	test   %esi,%esi
    1ad6:	74 40                	je     1b18 <udf_get_anchor_volume_descriptor+0x88>
    1ad8:	89 fb                	mov    %edi,%ebx
    1ada:	8b 7d 0c             	mov    0xc(%ebp),%edi
    1add:	8d 76 00             	lea    0x0(%esi),%esi
    1ae0:	89 f0                	mov    %esi,%eax
    1ae2:	8b 55 08             	mov    0x8(%ebp),%edx
    1ae5:	c1 e0 08             	shl    $0x8,%eax
    1ae8:	89 14 24             	mov    %edx,(%esp)
    1aeb:	89 7c 24 10          	mov    %edi,0x10(%esp)
    1aef:	c7 44 24 0c 00 02 00 	movl   $0x200,0xc(%esp)
    1af6:	00 
    1af7:	89 44 24 04          	mov    %eax,0x4(%esp)
    1afb:	c7 44 24 08 00 00 00 	movl   $0x0,0x8(%esp)
    1b02:	00 
    1b03:	e8 18 4e 00 00       	call   6920 <block_read_bytes_direct>
    1b08:	89 c2                	mov    %eax,%edx
    1b0a:	85 c0                	test   %eax,%eax
    1b0c:	74 1a                	je     1b28 <udf_get_anchor_volume_descriptor+0x98>
    1b0e:	83 c3 04             	add    $0x4,%ebx
    1b11:	8b 73 fc             	mov    -0x4(%ebx),%esi
    1b14:	85 f6                	test   %esi,%esi
    1b16:	75 c8                	jne    1ae0 <udf_get_anchor_volume_descriptor+0x50>
    1b18:	bb f2 ff ff ff       	mov    $0xfffffff2,%ebx
    1b1d:	83 c4 5c             	add    $0x5c,%esp
    1b20:	89 d8                	mov    %ebx,%eax
    1b22:	5b                   	pop    %ebx
    1b23:	5e                   	pop    %esi
    1b24:	5f                   	pop    %edi
    1b25:	5d                   	pop    %ebp
    1b26:	c3                   	ret    
    1b27:	90                   	nop
    1b28:	8a 47 04             	mov    0x4(%edi),%al
    1b2b:	89 3c 24             	mov    %edi,(%esp)
    1b2e:	89 55 c0             	mov    %edx,-0x40(%ebp)
    1b31:	88 45 c6             	mov    %al,-0x3a(%ebp)
    1b34:	e8 e7 28 00 00       	call   4420 <udf_tag_checksum>
    1b39:	8b 55 c0             	mov    -0x40(%ebp),%edx
    1b3c:	38 45 c6             	cmp    %al,-0x3a(%ebp)
    1b3f:	75 cd                	jne    1b0e <udf_get_anchor_volume_descriptor+0x7e>
    1b41:	66 83 3f 02          	cmpw   $0x2,(%edi)
    1b45:	75 c7                	jne    1b0e <udf_get_anchor_volume_descriptor+0x7e>
    1b47:	8b 45 cc             	mov    -0x34(%ebp),%eax
    1b4a:	89 d3                	mov    %edx,%ebx
    1b4c:	89 70 48             	mov    %esi,0x48(%eax)
    1b4f:	83 c4 5c             	add    $0x5c,%esp
    1b52:	89 d8                	mov    %ebx,%eax
    1b54:	5b                   	pop    %ebx
    1b55:	5e                   	pop    %esi
    1b56:	5f                   	pop    %edi
    1b57:	5d                   	pop    %ebp
    1b58:	c3                   	ret    
    1b59:	8d b4 26 00 00 00 00 	lea    0x0(%esi,%eiz,1),%esi
    1b60:	8b 55 0c             	mov    0xc(%ebp),%edx
    1b63:	c7 44 24 0c 00 02 00 	movl   $0x200,0xc(%esp)
    1b6a:	00 
    1b6b:	c1 e0 08             	shl    $0x8,%eax
    1b6e:	89 54 24 10          	mov    %edx,0x10(%esp)
    1b72:	8b 55 08             	mov    0x8(%ebp),%edx
    1b75:	89 44 24 04          	mov    %eax,0x4(%esp)
    1b79:	c7 44 24 08 00 00 00 	movl   $0x0,0x8(%esp)
    1b80:	00 
    1b81:	89 14 24             	mov    %edx,(%esp)
    1b84:	e8 97 4d 00 00       	call   6920 <block_read_bytes_direct>
    1b89:	89 c3                	mov    %eax,%ebx
    1b8b:	85 c0                	test   %eax,%eax
    1b8d:	75 8e                	jne    1b1d <udf_get_anchor_volume_descriptor+0x8d>
    1b8f:	8b 55 0c             	mov    0xc(%ebp),%edx
    1b92:	8a 52 04             	mov    0x4(%edx),%dl
    1b95:	88 55 c7             	mov    %dl,-0x39(%ebp)
    1b98:	8b 55 0c             	mov    0xc(%ebp),%edx
    1b9b:	89 14 24             	mov    %edx,(%esp)
    1b9e:	e8 7d 28 00 00       	call   4420 <udf_tag_checksum>
    1ba3:	38 45 c7             	cmp    %al,-0x39(%ebp)
    1ba6:	0f 85 6c ff ff ff    	jne    1b18 <udf_get_anchor_volume_descriptor+0x88>
    1bac:	8b 55 0c             	mov    0xc(%ebp),%edx
    1baf:	66 83 3a 02          	cmpw   $0x2,(%edx)
    1bb3:	0f 84 64 ff ff ff    	je     1b1d <udf_get_anchor_volume_descriptor+0x8d>
    1bb9:	e9 5a ff ff ff       	jmp    1b18 <udf_get_anchor_volume_descriptor+0x88>
    1bbe:	66 90                	xchg   %ax,%ax

00001bc0 <udf_read_volume_descriptor_sequence>:
    1bc0:	55                   	push   %ebp
    1bc1:	89 e5                	mov    %esp,%ebp
    1bc3:	57                   	push   %edi
    1bc4:	56                   	push   %esi
    1bc5:	53                   	push   %ebx
    1bc6:	81 ec 1c 01 00 00    	sub    $0x11c,%esp
    1bcc:	8d 85 5c ff ff ff    	lea    -0xa4(%ebp),%eax
    1bd2:	8b 4d 08             	mov    0x8(%ebp),%ecx
    1bd5:	8b 75 0c             	mov    0xc(%ebp),%esi
    1bd8:	89 44 24 04          	mov    %eax,0x4(%esp)
    1bdc:	89 0c 24             	mov    %ecx,(%esp)
    1bdf:	8b 5d 10             	mov    0x10(%ebp),%ebx
    1be2:	e8 99 65 00 00       	call   8180 <fs_instance_get>
    1be7:	89 85 28 ff ff ff    	mov    %eax,-0xd8(%ebp)
    1bed:	85 c0                	test   %eax,%eax
    1bef:	0f 85 4b 05 00 00    	jne    2140 <udf_read_volume_descriptor_sequence+0x580>
    1bf5:	8b 8d 5c ff ff ff    	mov    -0xa4(%ebp),%ecx
    1bfb:	89 f0                	mov    %esi,%eax
    1bfd:	31 d2                	xor    %edx,%edx
    1bff:	89 9d 50 ff ff ff    	mov    %ebx,-0xb0(%ebp)
    1c05:	f7 71 48             	divl   0x48(%ecx)
    1c08:	89 85 20 ff ff ff    	mov    %eax,-0xe0(%ebp)
    1c0e:	89 d6                	mov    %edx,%esi
    1c10:	8b 95 50 ff ff ff    	mov    -0xb0(%ebp),%edx
    1c16:	c7 85 54 ff ff ff 00 	movl   $0x0,-0xac(%ebp)
    1c1d:	00 00 00 
    1c20:	01 95 20 ff ff ff    	add    %edx,-0xe0(%ebp)
    1c26:	c7 85 24 ff ff ff 00 	movl   $0x0,-0xdc(%ebp)
    1c2d:	00 00 00 
    1c30:	8b 8d 54 ff ff ff    	mov    -0xac(%ebp),%ecx
    1c36:	8b 95 20 ff ff ff    	mov    -0xe0(%ebp),%edx
    1c3c:	11 8d 24 ff ff ff    	adc    %ecx,-0xdc(%ebp)
    1c42:	83 c2 ff             	add    $0xffffffff,%edx
    1c45:	8b 8d 24 ff ff ff    	mov    -0xdc(%ebp),%ecx
    1c4b:	89 95 38 ff ff ff    	mov    %edx,-0xc8(%ebp)
    1c51:	83 d1 ff             	adc    $0xffffffff,%ecx
    1c54:	89 cf                	mov    %ecx,%edi
    1c56:	89 8d 3c ff ff ff    	mov    %ecx,-0xc4(%ebp)
    1c5c:	8b 8d 38 ff ff ff    	mov    -0xc8(%ebp),%ecx
    1c62:	31 d9                	xor    %ebx,%ecx
    1c64:	09 cf                	or     %ecx,%edi
    1c66:	0f 84 74 10 00 00    	je     2ce0 <udf_read_volume_descriptor_sequence+0x1120>
    1c6c:	85 f6                	test   %esi,%esi
    1c6e:	c7 44 24 04 fe 01 00 	movl   $0x1fe,0x4(%esp)
    1c75:	00 
    1c76:	0f 95 c2             	setne  %dl
    1c79:	81 e2 ff 00 00 00    	and    $0xff,%edx
    1c7f:	8d 34 02             	lea    (%edx,%eax,1),%esi
    1c82:	89 34 24             	mov    %esi,(%esp)
    1c85:	e8 56 69 01 00       	call   185e0 <calloc>
    1c8a:	89 85 14 ff ff ff    	mov    %eax,-0xec(%ebp)
    1c90:	85 c0                	test   %eax,%eax
    1c92:	0f 84 fc 0f 00 00    	je     2c94 <udf_read_volume_descriptor_sequence+0x10d4>
    1c98:	8b 85 5c ff ff ff    	mov    -0xa4(%ebp),%eax
    1c9e:	8b 40 48             	mov    0x48(%eax),%eax
    1ca1:	89 34 24             	mov    %esi,(%esp)
    1ca4:	89 44 24 04          	mov    %eax,0x4(%esp)
    1ca8:	e8 33 69 01 00       	call   185e0 <calloc>
    1cad:	89 85 18 ff ff ff    	mov    %eax,-0xe8(%ebp)
    1cb3:	85 c0                	test   %eax,%eax
    1cb5:	0f 84 54 10 00 00    	je     2d0f <udf_read_volume_descriptor_sequence+0x114f>
    1cbb:	c7 44 24 04 00 02 00 	movl   $0x200,0x4(%esp)
    1cc2:	00 
    1cc3:	89 34 24             	mov    %esi,(%esp)
    1cc6:	e8 15 69 01 00       	call   185e0 <calloc>
    1ccb:	89 85 1c ff ff ff    	mov    %eax,-0xe4(%ebp)
    1cd1:	85 c0                	test   %eax,%eax
    1cd3:	0f 84 59 10 00 00    	je     2d32 <udf_read_volume_descriptor_sequence+0x1172>
    1cd9:	8b 95 3c ff ff ff    	mov    -0xc4(%ebp),%edx
    1cdf:	39 95 54 ff ff ff    	cmp    %edx,-0xac(%ebp)
    1ce5:	0f 83 45 0b 00 00    	jae    2830 <udf_read_volume_descriptor_sequence+0xc70>
    1ceb:	8d 95 60 ff ff ff    	lea    -0xa0(%ebp),%edx
    1cf1:	c7 85 2c ff ff ff 00 	movl   $0x0,-0xd4(%ebp)
    1cf8:	00 00 00 
    1cfb:	c7 85 48 ff ff ff 00 	movl   $0x0,-0xb8(%ebp)
    1d02:	00 00 00 
    1d05:	c7 85 4c ff ff ff 00 	movl   $0x0,-0xb4(%ebp)
    1d0c:	00 00 00 
    1d0f:	89 95 34 ff ff ff    	mov    %edx,-0xcc(%ebp)
    1d15:	8d 76 00             	lea    0x0(%esi),%esi
    1d18:	8b 9d 54 ff ff ff    	mov    -0xac(%ebp),%ebx
    1d1e:	8b 8d 50 ff ff ff    	mov    -0xb0(%ebp),%ecx
    1d24:	89 5c 24 0c          	mov    %ebx,0xc(%esp)
    1d28:	8b b5 34 ff ff ff    	mov    -0xcc(%ebp),%esi
    1d2e:	8b 5d 08             	mov    0x8(%ebp),%ebx
    1d31:	c7 44 24 10 00 00 00 	movl   $0x0,0x10(%esp)
    1d38:	00 
    1d39:	89 4c 24 08          	mov    %ecx,0x8(%esp)
    1d3d:	89 5c 24 04          	mov    %ebx,0x4(%esp)
    1d41:	89 34 24             	mov    %esi,(%esp)
    1d44:	c7 85 60 ff ff ff 00 	movl   $0x0,-0xa0(%ebp)
    1d4b:	00 00 00 
    1d4e:	e8 fd 41 00 00       	call   5f50 <block_get>
    1d53:	85 c0                	test   %eax,%eax
    1d55:	0f 85 95 0c 00 00    	jne    29f0 <udf_read_volume_descriptor_sequence+0xe30>
    1d5b:	8b 85 60 ff ff ff    	mov    -0xa0(%ebp),%eax
    1d61:	8b 78 54             	mov    0x54(%eax),%edi
    1d64:	66 83 3f 09          	cmpw   $0x9,(%edi)
    1d68:	0f 86 e2 03 00 00    	jbe    2150 <udf_read_volume_descriptor_sequence+0x590>
    1d6e:	83 85 50 ff ff ff 01 	addl   $0x1,-0xb0(%ebp)
    1d75:	83 95 54 ff ff ff 00 	adcl   $0x0,-0xac(%ebp)
    1d7c:	89 04 24             	mov    %eax,(%esp)
    1d7f:	e8 1c 3f 00 00       	call   5ca0 <block_put>
    1d84:	85 c0                	test   %eax,%eax
    1d86:	0f 85 18 04 00 00    	jne    21a4 <udf_read_volume_descriptor_sequence+0x5e4>
    1d8c:	8d 74 26 00          	lea    0x0(%esi,%eiz,1),%esi
    1d90:	8b 85 3c ff ff ff    	mov    -0xc4(%ebp),%eax
    1d96:	39 85 54 ff ff ff    	cmp    %eax,-0xac(%ebp)
    1d9c:	0f 82 76 ff ff ff    	jb     1d18 <udf_read_volume_descriptor_sequence+0x158>
    1da2:	0f 86 88 09 00 00    	jbe    2730 <udf_read_volume_descriptor_sequence+0xb70>
    1da8:	8b 8d 48 ff ff ff    	mov    -0xb8(%ebp),%ecx
    1dae:	c7 44 24 04 10 00 00 	movl   $0x10,0x4(%esp)
    1db5:	00 
    1db6:	89 0c 24             	mov    %ecx,(%esp)
    1db9:	8b 9d 5c ff ff ff    	mov    -0xa4(%ebp),%ebx
    1dbf:	e8 1c 68 01 00       	call   185e0 <calloc>
    1dc4:	89 43 4c             	mov    %eax,0x4c(%ebx)
    1dc7:	85 c0                	test   %eax,%eax
    1dc9:	0f 84 71 0e 00 00    	je     2c40 <udf_read_volume_descriptor_sequence+0x1080>
    1dcf:	8b b5 2c ff ff ff    	mov    -0xd4(%ebp),%esi
    1dd5:	c7 44 24 04 10 00 00 	movl   $0x10,0x4(%esp)
    1ddc:	00 
    1ddd:	89 34 24             	mov    %esi,(%esp)
    1de0:	e8 fb 67 01 00       	call   185e0 <calloc>
    1de5:	89 43 50             	mov    %eax,0x50(%ebx)
    1de8:	85 c0                	test   %eax,%eax
    1dea:	0f 84 45 0e 00 00    	je     2c35 <udf_read_volume_descriptor_sequence+0x1075>
    1df0:	8b 95 2c ff ff ff    	mov    -0xd4(%ebp),%edx
    1df6:	8b b5 48 ff ff ff    	mov    -0xb8(%ebp),%esi
    1dfc:	89 53 54             	mov    %edx,0x54(%ebx)
    1dff:	85 f6                	test   %esi,%esi
    1e01:	0f 84 9e 0d 00 00    	je     2ba5 <udf_read_volume_descriptor_sequence+0xfe5>
    1e07:	8b 85 18 ff ff ff    	mov    -0xe8(%ebp),%eax
    1e0d:	8d 95 60 ff ff ff    	lea    -0xa0(%ebp),%edx
    1e13:	89 85 38 ff ff ff    	mov    %eax,-0xc8(%ebp)
    1e19:	c7 85 30 ff ff ff 00 	movl   $0x0,-0xd0(%ebp)
    1e20:	00 00 00 
    1e23:	c7 85 40 ff ff ff 00 	movl   $0x0,-0xc0(%ebp)
    1e2a:	00 00 00 
    1e2d:	89 95 34 ff ff ff    	mov    %edx,-0xcc(%ebp)
    1e33:	89 9d 4c ff ff ff    	mov    %ebx,-0xb4(%ebp)
    1e39:	8b b5 4c ff ff ff    	mov    -0xb4(%ebp),%esi
    1e3f:	8b 8d 40 ff ff ff    	mov    -0xc0(%ebp),%ecx
    1e45:	c1 e1 04             	shl    $0x4,%ecx
    1e48:	8b bd 38 ff ff ff    	mov    -0xc8(%ebp),%edi
    1e4e:	8b 46 4c             	mov    0x4c(%esi),%eax
    1e51:	89 cb                	mov    %ecx,%ebx
    1e53:	c7 44 24 04 04 00 00 	movl   $0x4,0x4(%esp)
    1e5a:	00 
    1e5b:	01 c3                	add    %eax,%ebx
    1e5d:	8b 87 0c 01 00 00    	mov    0x10c(%edi),%eax
    1e63:	89 8d 44 ff ff ff    	mov    %ecx,-0xbc(%ebp)
    1e69:	89 04 24             	mov    %eax,(%esp)
    1e6c:	e8 6f 67 01 00       	call   185e0 <calloc>
    1e71:	8b 56 4c             	mov    0x4c(%esi),%edx
    1e74:	89 03                	mov    %eax,(%ebx)
    1e76:	8b 85 44 ff ff ff    	mov    -0xbc(%ebp),%eax
    1e7c:	01 d0                	add    %edx,%eax
    1e7e:	8b 08                	mov    (%eax),%ecx
    1e80:	85 c9                	test   %ecx,%ecx
    1e82:	0f 84 fa 00 00 00    	je     1f82 <udf_read_volume_descriptor_sequence+0x3c2>
    1e88:	c7 40 04 00 00 00 00 	movl   $0x0,0x4(%eax)
    1e8f:	8b 97 d4 00 00 00    	mov    0xd4(%edi),%edx
    1e95:	81 c7 b8 01 00 00    	add    $0x1b8,%edi
    1e9b:	89 50 08             	mov    %edx,0x8(%eax)
    1e9e:	8b 95 38 ff ff ff    	mov    -0xc8(%ebp),%edx
    1ea4:	89 bd 10 ff ff ff    	mov    %edi,-0xf0(%ebp)
    1eaa:	89 fe                	mov    %edi,%esi
    1eac:	8b ba 0c 01 00 00    	mov    0x10c(%edx),%edi
    1eb2:	85 ff                	test   %edi,%edi
    1eb4:	0f 84 ef 0d 00 00    	je     2ca9 <udf_read_volume_descriptor_sequence+0x10e9>
    1eba:	c7 85 50 ff ff ff 00 	movl   $0x0,-0xb0(%ebp)
    1ec1:	00 00 00 
    1ec4:	eb 65                	jmp    1f2b <udf_read_volume_descriptor_sequence+0x36b>
    1ec6:	66 90                	xchg   %ax,%ax
    1ec8:	3c 02                	cmp    $0x2,%al
    1eca:	0f 84 58 0a 00 00    	je     2928 <udf_read_volume_descriptor_sequence+0xd68>
    1ed0:	25 ff 00 00 00       	and    $0xff,%eax
    1ed5:	8b 95 40 ff ff ff    	mov    -0xc0(%ebp),%edx
    1edb:	89 44 24 10          	mov    %eax,0x10(%esp)
    1edf:	89 54 24 0c          	mov    %edx,0xc(%esp)
    1ee3:	c7 44 24 08 f8 55 02 	movl   $0x255f8,0x8(%esp)
    1eea:	00 
    1eeb:	c7 44 24 04 04 00 00 	movl   $0x4,0x4(%esp)
    1ef2:	00 
    1ef3:	c7 04 24 ff ff ff ff 	movl   $0xffffffff,(%esp)
    1efa:	e8 d1 16 01 00       	call   135d0 <log_msg>
    1eff:	31 c0                	xor    %eax,%eax
    1f01:	8a 46 01             	mov    0x1(%esi),%al
    1f04:	01 c6                	add    %eax,%esi
    1f06:	8b bd 50 ff ff ff    	mov    -0xb0(%ebp),%edi
    1f0c:	8b 8d 38 ff ff ff    	mov    -0xc8(%ebp),%ecx
    1f12:	47                   	inc    %edi
    1f13:	89 bd 50 ff ff ff    	mov    %edi,-0xb0(%ebp)
    1f19:	8b 9d 50 ff ff ff    	mov    -0xb0(%ebp),%ebx
    1f1f:	3b 99 0c 01 00 00    	cmp    0x10c(%ecx),%ebx
    1f25:	0f 83 7e 0d 00 00    	jae    2ca9 <udf_read_volume_descriptor_sequence+0x10e9>
    1f2b:	8a 06                	mov    (%esi),%al
    1f2d:	3c 01                	cmp    $0x1,%al
    1f2f:	75 97                	jne    1ec8 <udf_read_volume_descriptor_sequence+0x308>
    1f31:	8b 9d 2c ff ff ff    	mov    -0xd4(%ebp),%ebx
    1f37:	66 8b 56 04          	mov    0x4(%esi),%dx
    1f3b:	85 db                	test   %ebx,%ebx
    1f3d:	74 43                	je     1f82 <udf_read_volume_descriptor_sequence+0x3c2>
    1f3f:	8b 85 1c ff ff ff    	mov    -0xe4(%ebp),%eax
    1f45:	66 3b 50 16          	cmp    0x16(%eax),%dx
    1f49:	0f 84 10 09 00 00    	je     285f <udf_read_volume_descriptor_sequence+0xc9f>
    1f4f:	89 c3                	mov    %eax,%ebx
    1f51:	31 c9                	xor    %ecx,%ecx
    1f53:	81 c3 00 02 00 00    	add    $0x200,%ebx
    1f59:	8b bd 2c ff ff ff    	mov    -0xd4(%ebp),%edi
    1f5f:	eb 1c                	jmp    1f7d <udf_read_volume_descriptor_sequence+0x3bd>
    1f61:	8d b4 26 00 00 00 00 	lea    0x0(%esi,%eiz,1),%esi
    1f68:	89 d8                	mov    %ebx,%eax
    1f6a:	8d 9b 00 02 00 00    	lea    0x200(%ebx),%ebx
    1f70:	66 3b 93 16 fe ff ff 	cmp    -0x1ea(%ebx),%dx
    1f77:	0f 84 db 08 00 00    	je     2858 <udf_read_volume_descriptor_sequence+0xc98>
    1f7d:	41                   	inc    %ecx
    1f7e:	39 f9                	cmp    %edi,%ecx
    1f80:	75 e6                	jne    1f68 <udf_read_volume_descriptor_sequence+0x3a8>
    1f82:	8b b5 18 ff ff ff    	mov    -0xe8(%ebp),%esi
    1f88:	31 ff                	xor    %edi,%edi
    1f8a:	81 c6 fc 00 00 00    	add    $0xfc,%esi
    1f90:	e9 11 01 00 00       	jmp    20a6 <udf_read_volume_descriptor_sequence+0x4e6>
    1f95:	8d 76 00             	lea    0x0(%esi),%esi
    1f98:	8b 85 60 ff ff ff    	mov    -0xa0(%ebp),%eax
    1f9e:	8b 58 54             	mov    0x54(%eax),%ebx
    1fa1:	66 8b 13             	mov    (%ebx),%dx
    1fa4:	c7 44 24 08 74 56 02 	movl   $0x25674,0x8(%esp)
    1fab:	00 
    1fac:	81 e2 ff ff 00 00    	and    $0xffff,%edx
    1fb2:	c7 44 24 04 04 00 00 	movl   $0x4,0x4(%esp)
    1fb9:	00 
    1fba:	89 54 24 0c          	mov    %edx,0xc(%esp)
    1fbe:	c7 04 24 ff ff ff ff 	movl   $0xffffffff,(%esp)
    1fc5:	e8 06 16 01 00       	call   135d0 <log_msg>
    1fca:	8a 4b 04             	mov    0x4(%ebx),%cl
    1fcd:	89 1c 24             	mov    %ebx,(%esp)
    1fd0:	88 8d 50 ff ff ff    	mov    %cl,-0xb0(%ebp)
    1fd6:	e8 45 24 00 00       	call   4420 <udf_tag_checksum>
    1fdb:	38 85 50 ff ff ff    	cmp    %al,-0xb0(%ebp)
    1fe1:	0f 85 f3 0b 00 00    	jne    2bda <udf_read_volume_descriptor_sequence+0x101a>
    1fe7:	8b 85 60 ff ff ff    	mov    -0xa0(%ebp),%eax
    1fed:	81 c6 b8 01 00 00    	add    $0x1b8,%esi
    1ff3:	8b 58 54             	mov    0x54(%eax),%ebx
    1ff6:	c7 44 24 08 40 00 00 	movl   $0x40,0x8(%esp)
    1ffd:	00 
    1ffe:	8d 83 f0 00 00 00    	lea    0xf0(%ebx),%eax
    2004:	89 44 24 04          	mov    %eax,0x4(%esp)
    2008:	8b 85 5c ff ff ff    	mov    -0xa4(%ebp),%eax
    200e:	83 c0 08             	add    $0x8,%eax
    2011:	89 04 24             	mov    %eax,(%esp)
    2014:	e8 47 93 00 00       	call   b360 <memcpy>
    2019:	8b 8d 5c ff ff ff    	mov    -0xa4(%ebp),%ecx
    201f:	89 fa                	mov    %edi,%edx
    2021:	8b 41 4c             	mov    0x4c(%ecx),%eax
    2024:	c1 e2 04             	shl    $0x4,%edx
    2027:	47                   	inc    %edi
    2028:	01 c2                	add    %eax,%edx
    202a:	8b 83 94 01 00 00    	mov    0x194(%ebx),%eax
    2030:	89 44 24 10          	mov    %eax,0x10(%esp)
    2034:	66 8b 83 98 01 00 00 	mov    0x198(%ebx),%ax
    203b:	c7 44 24 08 a0 52 02 	movl   $0x252a0,0x8(%esp)
    2042:	00 
    2043:	25 ff ff 00 00       	and    $0xffff,%eax
    2048:	c7 44 24 04 04 00 00 	movl   $0x4,0x4(%esp)
    204f:	00 
    2050:	89 44 24 0c          	mov    %eax,0xc(%esp)
    2054:	c7 04 24 ff ff ff ff 	movl   $0xffffffff,(%esp)
    205b:	89 95 08 ff ff ff    	mov    %edx,-0xf8(%ebp)
    2061:	89 8d 04 ff ff ff    	mov    %ecx,-0xfc(%ebp)
    2067:	e8 64 15 01 00       	call   135d0 <log_msg>
    206c:	66 8b 83 98 01 00 00 	mov    0x198(%ebx),%ax
    2073:	8b 8d 04 ff ff ff    	mov    -0xfc(%ebp),%ecx
    2079:	25 ff ff 00 00       	and    $0xffff,%eax
    207e:	c1 e0 04             	shl    $0x4,%eax
    2081:	8b 51 50             	mov    0x50(%ecx),%edx
    2084:	8b 8b 94 01 00 00    	mov    0x194(%ebx),%ecx
    208a:	01 d0                	add    %edx,%eax
    208c:	8b 95 08 ff ff ff    	mov    -0xf8(%ebp),%edx
    2092:	8b 58 08             	mov    0x8(%eax),%ebx
    2095:	01 d9                	add    %ebx,%ecx
    2097:	3b bd 48 ff ff ff    	cmp    -0xb8(%ebp),%edi
    209d:	89 4a 0c             	mov    %ecx,0xc(%edx)
    20a0:	0f 83 ff 0a 00 00    	jae    2ba5 <udf_read_volume_descriptor_sequence+0xfe5>
    20a6:	8b 06                	mov    (%esi),%eax
    20a8:	8b 9d 5c ff ff ff    	mov    -0xa4(%ebp),%ebx
    20ae:	89 44 24 10          	mov    %eax,0x10(%esp)
    20b2:	66 8b 46 04          	mov    0x4(%esi),%ax
    20b6:	c7 44 24 08 a0 52 02 	movl   $0x252a0,0x8(%esp)
    20bd:	00 
    20be:	25 ff ff 00 00       	and    $0xffff,%eax
    20c3:	c7 44 24 04 04 00 00 	movl   $0x4,0x4(%esp)
    20ca:	00 
    20cb:	89 44 24 0c          	mov    %eax,0xc(%esp)
    20cf:	c7 04 24 ff ff ff ff 	movl   $0xffffffff,(%esp)
    20d6:	e8 f5 14 01 00       	call   135d0 <log_msg>
    20db:	66 8b 46 04          	mov    0x4(%esi),%ax
    20df:	25 ff ff 00 00       	and    $0xffff,%eax
    20e4:	8b 53 50             	mov    0x50(%ebx),%edx
    20e7:	c1 e0 04             	shl    $0x4,%eax
    20ea:	01 d0                	add    %edx,%eax
    20ec:	8b 16                	mov    (%esi),%edx
    20ee:	8b 48 08             	mov    0x8(%eax),%ecx
    20f1:	8b 85 5c ff ff ff    	mov    -0xa4(%ebp),%eax
    20f7:	01 ca                	add    %ecx,%edx
    20f9:	c7 44 24 10 00 00 00 	movl   $0x0,0x10(%esp)
    2100:	00 
    2101:	89 54 24 08          	mov    %edx,0x8(%esp)
    2105:	c7 44 24 0c 00 00 00 	movl   $0x0,0xc(%esp)
    210c:	00 
    210d:	8b 00                	mov    (%eax),%eax
    210f:	8b 95 34 ff ff ff    	mov    -0xcc(%ebp),%edx
    2115:	89 44 24 04          	mov    %eax,0x4(%esp)
    2119:	89 14 24             	mov    %edx,(%esp)
    211c:	c7 85 60 ff ff ff 00 	movl   $0x0,-0xa0(%ebp)
    2123:	00 00 00 
    2126:	e8 25 3e 00 00       	call   5f50 <block_get>
    212b:	85 c0                	test   %eax,%eax
    212d:	0f 84 65 fe ff ff    	je     1f98 <udf_read_volume_descriptor_sequence+0x3d8>
    2133:	89 85 28 ff ff ff    	mov    %eax,-0xd8(%ebp)
    2139:	8d b4 26 00 00 00 00 	lea    0x0(%esi,%eiz,1),%esi
    2140:	81 c4 1c 01 00 00    	add    $0x11c,%esp
    2146:	5b                   	pop    %ebx
    2147:	5e                   	pop    %esi
    2148:	5f                   	pop    %edi
    2149:	5d                   	pop    %ebp
    214a:	c3                   	ret    
    214b:	90                   	nop
    214c:	8d 74 26 00          	lea    0x0(%esi,%eiz,1),%esi
    2150:	66 8b 17             	mov    (%edi),%dx
    2153:	81 e2 ff ff 00 00    	and    $0xffff,%edx
    2159:	ff 24 95 a0 56 02 00 	jmp    *0x256a0(,%edx,4)
    2160:	c7 44 24 08 f4 54 02 	movl   $0x254f4,0x8(%esp)
    2167:	00 
    2168:	c7 44 24 04 04 00 00 	movl   $0x4,0x4(%esp)
    216f:	00 
    2170:	c7 04 24 ff ff ff ff 	movl   $0xffffffff,(%esp)
    2177:	e8 54 14 01 00       	call   135d0 <log_msg>
    217c:	8d 74 26 00          	lea    0x0(%esi,%eiz,1),%esi
    2180:	83 85 50 ff ff ff 01 	addl   $0x1,-0xb0(%ebp)
    2187:	83 95 54 ff ff ff 00 	adcl   $0x0,-0xac(%ebp)
    218e:	8b 85 60 ff ff ff    	mov    -0xa0(%ebp),%eax
    2194:	89 04 24             	mov    %eax,(%esp)
    2197:	e8 04 3b 00 00       	call   5ca0 <block_put>
    219c:	85 c0                	test   %eax,%eax
    219e:	0f 84 ec fb ff ff    	je     1d90 <udf_read_volume_descriptor_sequence+0x1d0>
    21a4:	8b 9d 14 ff ff ff    	mov    -0xec(%ebp),%ebx
    21aa:	89 85 08 ff ff ff    	mov    %eax,-0xf8(%ebp)
    21b0:	89 1c 24             	mov    %ebx,(%esp)
    21b3:	e8 98 65 01 00       	call   18750 <free>
    21b8:	8b b5 18 ff ff ff    	mov    -0xe8(%ebp),%esi
    21be:	89 34 24             	mov    %esi,(%esp)
    21c1:	e8 8a 65 01 00       	call   18750 <free>
    21c6:	8b bd 1c ff ff ff    	mov    -0xe4(%ebp),%edi
    21cc:	89 3c 24             	mov    %edi,(%esp)
    21cf:	e8 7c 65 01 00       	call   18750 <free>
    21d4:	8b 85 08 ff ff ff    	mov    -0xf8(%ebp),%eax
    21da:	89 85 28 ff ff ff    	mov    %eax,-0xd8(%ebp)
    21e0:	81 c4 1c 01 00 00    	add    $0x11c,%esp
    21e6:	5b                   	pop    %ebx
    21e7:	5e                   	pop    %esi
    21e8:	5f                   	pop    %edi
    21e9:	5d                   	pop    %ebp
    21ea:	c3                   	ret    
    21eb:	90                   	nop
    21ec:	8d 74 26 00          	lea    0x0(%esi,%eiz,1),%esi
    21f0:	c7 44 24 08 28 55 02 	movl   $0x25528,0x8(%esp)
    21f7:	00 
    21f8:	c7 44 24 04 04 00 00 	movl   $0x4,0x4(%esp)
    21ff:	00 
    2200:	c7 04 24 ff ff ff ff 	movl   $0xffffffff,(%esp)
    2207:	e8 c4 13 01 00       	call   135d0 <log_msg>
    220c:	8b 8d 20 ff ff ff    	mov    -0xe0(%ebp),%ecx
    2212:	8b 9d 24 ff ff ff    	mov    -0xdc(%ebp),%ebx
    2218:	89 8d 50 ff ff ff    	mov    %ecx,-0xb0(%ebp)
    221e:	89 9d 54 ff ff ff    	mov    %ebx,-0xac(%ebp)
    2224:	e9 65 ff ff ff       	jmp    218e <udf_read_volume_descriptor_sequence+0x5ce>
    2229:	8d b4 26 00 00 00 00 	lea    0x0(%esi,%eiz,1),%esi
    2230:	c7 44 24 08 c8 54 02 	movl   $0x254c8,0x8(%esp)
    2237:	00 
    2238:	c7 44 24 04 04 00 00 	movl   $0x4,0x4(%esp)
    223f:	00 
    2240:	c7 04 24 ff ff ff ff 	movl   $0xffffffff,(%esp)
    2247:	e8 84 13 01 00       	call   135d0 <log_msg>
    224c:	8b 47 14             	mov    0x14(%edi),%eax
    224f:	8d 04 c5 18 00 00 00 	lea    0x18(,%eax,8),%eax
    2256:	8b 9d 5c ff ff ff    	mov    -0xa4(%ebp),%ebx
    225c:	a9 f8 01 00 00       	test   $0x1f8,%eax
    2261:	8b 8d 54 ff ff ff    	mov    -0xac(%ebp),%ecx
    2267:	0f 95 c2             	setne  %dl
    226a:	81 e2 ff 00 00 00    	and    $0xff,%edx
    2270:	31 ff                	xor    %edi,%edi
    2272:	c1 e8 09             	shr    $0x9,%eax
    2275:	89 4b 60             	mov    %ecx,0x60(%ebx)
    2278:	01 d0                	add    %edx,%eax
    227a:	8b 95 50 ff ff ff    	mov    -0xb0(%ebp),%edx
    2280:	89 53 5c             	mov    %edx,0x5c(%ebx)
    2283:	8b 53 48             	mov    0x48(%ebx),%edx
    2286:	89 43 64             	mov    %eax,0x64(%ebx)
    2289:	89 c6                	mov    %eax,%esi
    228b:	0f af c2             	imul   %edx,%eax
    228e:	89 7b 68             	mov    %edi,0x68(%ebx)
    2291:	89 04 24             	mov    %eax,(%esp)
    2294:	e8 a7 63 01 00       	call   18640 <malloc>
    2299:	8b 95 5c ff ff ff    	mov    -0xa4(%ebp),%edx
    229f:	89 43 58             	mov    %eax,0x58(%ebx)
    22a2:	8b 42 58             	mov    0x58(%edx),%eax
    22a5:	85 c0                	test   %eax,%eax
    22a7:	0f 84 e7 09 00 00    	je     2c94 <udf_read_volume_descriptor_sequence+0x10d4>
    22ad:	8b 52 48             	mov    0x48(%edx),%edx
    22b0:	89 54 24 08          	mov    %edx,0x8(%esp)
    22b4:	8b 95 60 ff ff ff    	mov    -0xa0(%ebp),%edx
    22ba:	8b 52 54             	mov    0x54(%edx),%edx
    22bd:	89 04 24             	mov    %eax,(%esp)
    22c0:	89 54 24 04          	mov    %edx,0x4(%esp)
    22c4:	e8 97 90 00 00       	call   b360 <memcpy>
    22c9:	01 b5 50 ff ff ff    	add    %esi,-0xb0(%ebp)
    22cf:	11 bd 54 ff ff ff    	adc    %edi,-0xac(%ebp)
    22d5:	e9 b4 fe ff ff       	jmp    218e <udf_read_volume_descriptor_sequence+0x5ce>
    22da:	8d b6 00 00 00 00    	lea    0x0(%esi),%esi
    22e0:	c7 44 24 08 2c 54 02 	movl   $0x2542c,0x8(%esp)
    22e7:	00 
    22e8:	c7 44 24 04 04 00 00 	movl   $0x4,0x4(%esp)
    22ef:	00 
    22f0:	c7 04 24 ff ff ff ff 	movl   $0xffffffff,(%esp)
    22f7:	8d 5f 14             	lea    0x14(%edi),%ebx
    22fa:	e8 d1 12 01 00       	call   135d0 <log_msg>
    22ff:	8b 97 08 01 00 00    	mov    0x108(%edi),%edx
    2305:	81 c2 b8 01 00 00    	add    $0x1b8,%edx
    230b:	8d b5 66 ff ff ff    	lea    -0x9a(%ebp),%esi
    2311:	f7 c2 ff 01 00 00    	test   $0x1ff,%edx
    2317:	0f 95 c0             	setne  %al
    231a:	25 ff 00 00 00       	and    $0xff,%eax
    231f:	89 5c 24 10          	mov    %ebx,0x10(%esp)
    2323:	c1 ea 09             	shr    $0x9,%edx
    2326:	c7 44 24 0c 80 00 00 	movl   $0x80,0xc(%esp)
    232d:	00 
    232e:	01 d0                	add    %edx,%eax
    2330:	31 d2                	xor    %edx,%edx
    2332:	01 85 50 ff ff ff    	add    %eax,-0xb0(%ebp)
    2338:	c7 44 24 04 81 00 00 	movl   $0x81,0x4(%esp)
    233f:	00 
    2340:	11 95 54 ff ff ff    	adc    %edx,-0xac(%ebp)
    2346:	8d 57 54             	lea    0x54(%edi),%edx
    2349:	89 54 24 08          	mov    %edx,0x8(%esp)
    234d:	89 34 24             	mov    %esi,(%esp)
    2350:	89 95 08 ff ff ff    	mov    %edx,-0xf8(%ebp)
    2356:	89 9d 44 ff ff ff    	mov    %ebx,-0xbc(%ebp)
    235c:	e8 6f 1e 00 00       	call   41d0 <udf_to_unix_name>
    2361:	8b 87 d4 00 00 00    	mov    0xd4(%edi),%eax
    2367:	89 44 24 10          	mov    %eax,0x10(%esp)
    236b:	89 74 24 0c          	mov    %esi,0xc(%esp)
    236f:	c7 44 24 08 54 54 02 	movl   $0x25454,0x8(%esp)
    2376:	00 
    2377:	c7 44 24 04 04 00 00 	movl   $0x4,0x4(%esp)
    237e:	00 
    237f:	c7 04 24 ff ff ff ff 	movl   $0xffffffff,(%esp)
    2386:	e8 45 12 01 00       	call   135d0 <log_msg>
    238b:	8b 87 0c 01 00 00    	mov    0x10c(%edi),%eax
    2391:	89 44 24 10          	mov    %eax,0x10(%esp)
    2395:	8b 87 08 01 00 00    	mov    0x108(%edi),%eax
    239b:	c7 44 24 08 8c 54 02 	movl   $0x2548c,0x8(%esp)
    23a2:	00 
    23a3:	89 44 24 0c          	mov    %eax,0xc(%esp)
    23a7:	c7 44 24 04 04 00 00 	movl   $0x4,0x4(%esp)
    23ae:	00 
    23af:	c7 04 24 ff ff ff ff 	movl   $0xffffffff,(%esp)
    23b6:	e8 15 12 01 00       	call   135d0 <log_msg>
    23bb:	8b 8d 48 ff ff ff    	mov    -0xb8(%ebp),%ecx
    23c1:	85 c9                	test   %ecx,%ecx
    23c3:	8b 95 08 ff ff ff    	mov    -0xf8(%ebp),%edx
    23c9:	0f 84 c7 03 00 00    	je     2796 <udf_read_volume_descriptor_sequence+0xbd6>
    23cf:	89 bd 30 ff ff ff    	mov    %edi,-0xd0(%ebp)
    23d5:	8b 9d 18 ff ff ff    	mov    -0xe8(%ebp),%ebx
    23db:	31 f6                	xor    %esi,%esi
    23dd:	89 d7                	mov    %edx,%edi
    23df:	eb 1a                	jmp    23fb <udf_read_volume_descriptor_sequence+0x83b>
    23e1:	8d b4 26 00 00 00 00 	lea    0x0(%esi,%eiz,1),%esi
    23e8:	46                   	inc    %esi
    23e9:	81 c3 b8 01 00 00    	add    $0x1b8,%ebx
    23ef:	3b b5 48 ff ff ff    	cmp    -0xb8(%ebp),%esi
    23f5:	0f 84 95 03 00 00    	je     2790 <udf_read_volume_descriptor_sequence+0xbd0>
    23fb:	8d 43 54             	lea    0x54(%ebx),%eax
    23fe:	c7 44 24 08 80 00 00 	movl   $0x80,0x8(%esp)
    2405:	00 
    2406:	89 7c 24 04          	mov    %edi,0x4(%esp)
    240a:	89 04 24             	mov    %eax,(%esp)
    240d:	e8 6e 94 00 00       	call   b880 <bcmp>
    2412:	85 c0                	test   %eax,%eax
    2414:	75 d2                	jne    23e8 <udf_read_volume_descriptor_sequence+0x828>
    2416:	8b 95 44 ff ff ff    	mov    -0xbc(%ebp),%edx
    241c:	8d 43 14             	lea    0x14(%ebx),%eax
    241f:	c7 44 24 08 40 00 00 	movl   $0x40,0x8(%esp)
    2426:	00 
    2427:	89 54 24 04          	mov    %edx,0x4(%esp)
    242b:	89 04 24             	mov    %eax,(%esp)
    242e:	e8 4d 94 00 00       	call   b880 <bcmp>
    2433:	85 c0                	test   %eax,%eax
    2435:	75 b1                	jne    23e8 <udf_read_volume_descriptor_sequence+0x828>
    2437:	8b 8d 30 ff ff ff    	mov    -0xd0(%ebp),%ecx
    243d:	8b 43 10             	mov    0x10(%ebx),%eax
    2440:	39 41 10             	cmp    %eax,0x10(%ecx)
    2443:	76 a3                	jbe    23e8 <udf_read_volume_descriptor_sequence+0x828>
    2445:	c7 44 24 08 b8 01 00 	movl   $0x1b8,0x8(%esp)
    244c:	00 
    244d:	89 4c 24 04          	mov    %ecx,0x4(%esp)
    2451:	89 1c 24             	mov    %ebx,(%esp)
    2454:	e8 07 8f 00 00       	call   b360 <memcpy>
    2459:	e9 30 fd ff ff       	jmp    218e <udf_read_volume_descriptor_sequence+0x5ce>
    245e:	66 90                	xchg   %ax,%ax
    2460:	c7 44 24 08 5c 53 02 	movl   $0x2535c,0x8(%esp)
    2467:	00 
    2468:	c7 44 24 04 04 00 00 	movl   $0x4,0x4(%esp)
    246f:	00 
    2470:	c7 04 24 ff ff ff ff 	movl   $0xffffffff,(%esp)
    2477:	e8 54 11 01 00       	call   135d0 <log_msg>
    247c:	8b 87 b8 00 00 00    	mov    0xb8(%edi),%eax
    2482:	89 44 24 14          	mov    %eax,0x14(%esp)
    2486:	8d 47 19             	lea    0x19(%edi),%eax
    2489:	89 44 24 10          	mov    %eax,0x10(%esp)
    248d:	66 8b 47 16          	mov    0x16(%edi),%ax
    2491:	c7 44 24 08 80 53 02 	movl   $0x25380,0x8(%esp)
    2498:	00 
    2499:	25 ff ff 00 00       	and    $0xffff,%eax
    249e:	c7 44 24 04 04 00 00 	movl   $0x4,0x4(%esp)
    24a5:	00 
    24a6:	89 44 24 0c          	mov    %eax,0xc(%esp)
    24aa:	c7 04 24 ff ff ff ff 	movl   $0xffffffff,(%esp)
    24b1:	e8 1a 11 01 00       	call   135d0 <log_msg>
    24b6:	8b 87 c0 00 00 00    	mov    0xc0(%edi),%eax
    24bc:	89 44 24 10          	mov    %eax,0x10(%esp)
    24c0:	8b 87 bc 00 00 00    	mov    0xbc(%edi),%eax
    24c6:	c7 44 24 08 b8 53 02 	movl   $0x253b8,0x8(%esp)
    24cd:	00 
    24ce:	89 44 24 0c          	mov    %eax,0xc(%esp)
    24d2:	c7 44 24 04 04 00 00 	movl   $0x4,0x4(%esp)
    24d9:	00 
    24da:	c7 04 24 ff ff ff ff 	movl   $0xffffffff,(%esp)
    24e1:	e8 ea 10 01 00       	call   135d0 <log_msg>
    24e6:	8b 85 2c ff ff ff    	mov    -0xd4(%ebp),%eax
    24ec:	85 c0                	test   %eax,%eax
    24ee:	0f 84 ec 02 00 00    	je     27e0 <udf_read_volume_descriptor_sequence+0xc20>
    24f4:	66 8b 4f 16          	mov    0x16(%edi),%cx
    24f8:	8b 85 1c ff ff ff    	mov    -0xe4(%ebp),%eax
    24fe:	31 d2                	xor    %edx,%edx
    2500:	8b 9d 2c ff ff ff    	mov    -0xd4(%ebp),%ebx
    2506:	eb 0e                	jmp    2516 <udf_read_volume_descriptor_sequence+0x956>
    2508:	42                   	inc    %edx
    2509:	05 00 02 00 00       	add    $0x200,%eax
    250e:	39 da                	cmp    %ebx,%edx
    2510:	0f 84 ca 02 00 00    	je     27e0 <udf_read_volume_descriptor_sequence+0xc20>
    2516:	66 39 48 16          	cmp    %cx,0x16(%eax)
    251a:	75 ec                	jne    2508 <udf_read_volume_descriptor_sequence+0x948>
    251c:	8b 70 10             	mov    0x10(%eax),%esi
    251f:	39 77 10             	cmp    %esi,0x10(%edi)
    2522:	76 e4                	jbe    2508 <udf_read_volume_descriptor_sequence+0x948>
    2524:	c7 44 24 08 00 02 00 	movl   $0x200,0x8(%esp)
    252b:	00 
    252c:	89 7c 24 04          	mov    %edi,0x4(%esp)
    2530:	89 04 24             	mov    %eax,(%esp)
    2533:	e8 28 8e 00 00       	call   b360 <memcpy>
    2538:	8b 47 38             	mov    0x38(%edi),%eax
    253b:	85 c0                	test   %eax,%eax
    253d:	0f 84 da 02 00 00    	je     281d <udf_read_volume_descriptor_sequence+0xc5d>
    2543:	8b 57 3c             	mov    0x3c(%edi),%edx
    2546:	89 44 24 0c          	mov    %eax,0xc(%esp)
    254a:	89 54 24 10          	mov    %edx,0x10(%esp)
    254e:	c7 44 24 08 ec 53 02 	movl   $0x253ec,0x8(%esp)
    2555:	00 
    2556:	c7 44 24 04 04 00 00 	movl   $0x4,0x4(%esp)
    255d:	00 
    255e:	c7 04 24 ff ff ff ff 	movl   $0xffffffff,(%esp)
    2565:	e8 66 10 01 00       	call   135d0 <log_msg>
    256a:	8b 85 5c ff ff ff    	mov    -0xa4(%ebp),%eax
    2570:	c6 40 6c 00          	movb   $0x0,0x6c(%eax)
    2574:	8b 57 3c             	mov    0x3c(%edi),%edx
    2577:	8b b7 bc 00 00 00    	mov    0xbc(%edi),%esi
    257d:	01 f2                	add    %esi,%edx
    257f:	c7 40 60 00 00 00 00 	movl   $0x0,0x60(%eax)
    2586:	89 50 5c             	mov    %edx,0x5c(%eax)
    2589:	8b 57 38             	mov    0x38(%edi),%edx
    258c:	89 50 64             	mov    %edx,0x64(%eax)
    258f:	c7 40 68 00 00 00 00 	movl   $0x0,0x68(%eax)
    2596:	8b 47 40             	mov    0x40(%edi),%eax
    2599:	85 c0                	test   %eax,%eax
    259b:	0f 84 df fb ff ff    	je     2180 <udf_read_volume_descriptor_sequence+0x5c0>
    25a1:	8b 57 44             	mov    0x44(%edi),%edx
    25a4:	89 44 24 0c          	mov    %eax,0xc(%esp)
    25a8:	89 54 24 10          	mov    %edx,0x10(%esp)
    25ac:	c7 44 24 08 0c 54 02 	movl   $0x2540c,0x8(%esp)
    25b3:	00 
    25b4:	c7 44 24 04 04 00 00 	movl   $0x4,0x4(%esp)
    25bb:	00 
    25bc:	c7 04 24 ff ff ff ff 	movl   $0xffffffff,(%esp)
    25c3:	e8 08 10 01 00       	call   135d0 <log_msg>
    25c8:	8b 85 5c ff ff ff    	mov    -0xa4(%ebp),%eax
    25ce:	c6 40 6c 01          	movb   $0x1,0x6c(%eax)
    25d2:	8b 57 44             	mov    0x44(%edi),%edx
    25d5:	8b 9f bc 00 00 00    	mov    0xbc(%edi),%ebx
    25db:	8b 4f 40             	mov    0x40(%edi),%ecx
    25de:	01 da                	add    %ebx,%edx
    25e0:	89 50 5c             	mov    %edx,0x5c(%eax)
    25e3:	c7 40 60 00 00 00 00 	movl   $0x0,0x60(%eax)
    25ea:	89 48 64             	mov    %ecx,0x64(%eax)
    25ed:	c7 40 68 00 00 00 00 	movl   $0x0,0x68(%eax)
    25f4:	e9 87 fb ff ff       	jmp    2180 <udf_read_volume_descriptor_sequence+0x5c0>
    25f9:	8d b4 26 00 00 00 00 	lea    0x0(%esi,%eiz,1),%esi
    2600:	c7 44 24 08 28 53 02 	movl   $0x25328,0x8(%esp)
    2607:	00 
    2608:	c7 44 24 04 04 00 00 	movl   $0x4,0x4(%esp)
    260f:	00 
    2610:	c7 04 24 ff ff ff ff 	movl   $0xffffffff,(%esp)
    2617:	e8 b4 0f 01 00       	call   135d0 <log_msg>
    261c:	e9 5f fb ff ff       	jmp    2180 <udf_read_volume_descriptor_sequence+0x5c0>
    2621:	8d b4 26 00 00 00 00 	lea    0x0(%esi,%eiz,1),%esi
    2628:	c7 44 24 08 00 53 02 	movl   $0x25300,0x8(%esp)
    262f:	00 
    2630:	eb d6                	jmp    2608 <udf_read_volume_descriptor_sequence+0xa48>
    2632:	8d b6 00 00 00 00    	lea    0x0(%esi),%esi
    2638:	c7 44 24 08 d8 52 02 	movl   $0x252d8,0x8(%esp)
    263f:	00 
    2640:	c7 44 24 04 04 00 00 	movl   $0x4,0x4(%esp)
    2647:	00 
    2648:	c7 04 24 ff ff ff ff 	movl   $0xffffffff,(%esp)
    264f:	e8 7c 0f 01 00       	call   135d0 <log_msg>
    2654:	8b 85 4c ff ff ff    	mov    -0xb4(%ebp),%eax
    265a:	85 c0                	test   %eax,%eax
    265c:	0f 84 ec 00 00 00    	je     274e <udf_read_volume_descriptor_sequence+0xb8e>
    2662:	8d 4f 46             	lea    0x46(%edi),%ecx
    2665:	8d 57 18             	lea    0x18(%edi),%edx
    2668:	89 8d 44 ff ff ff    	mov    %ecx,-0xbc(%ebp)
    266e:	8d 8f c6 00 00 00    	lea    0xc6(%edi),%ecx
    2674:	89 bd 30 ff ff ff    	mov    %edi,-0xd0(%ebp)
    267a:	8b 9d 14 ff ff ff    	mov    -0xec(%ebp),%ebx
    2680:	31 f6                	xor    %esi,%esi
    2682:	89 8d 10 ff ff ff    	mov    %ecx,-0xf0(%ebp)
    2688:	89 d7                	mov    %edx,%edi
    268a:	eb 17                	jmp    26a3 <udf_read_volume_descriptor_sequence+0xae3>
    268c:	8d 74 26 00          	lea    0x0(%esi,%eiz,1),%esi
    2690:	46                   	inc    %esi
    2691:	81 c3 fe 01 00 00    	add    $0x1fe,%ebx
    2697:	3b b5 4c ff ff ff    	cmp    -0xb4(%ebp),%esi
    269d:	0f 84 a5 00 00 00    	je     2748 <udf_read_volume_descriptor_sequence+0xb88>
    26a3:	8d 43 18             	lea    0x18(%ebx),%eax
    26a6:	c7 44 24 08 20 00 00 	movl   $0x20,0x8(%esp)
    26ad:	00 
    26ae:	89 7c 24 04          	mov    %edi,0x4(%esp)
    26b2:	89 04 24             	mov    %eax,(%esp)
    26b5:	e8 c6 91 00 00       	call   b880 <bcmp>
    26ba:	85 c0                	test   %eax,%eax
    26bc:	75 d2                	jne    2690 <udf_read_volume_descriptor_sequence+0xad0>
    26be:	8b 95 44 ff ff ff    	mov    -0xbc(%ebp),%edx
    26c4:	8d 43 46             	lea    0x46(%ebx),%eax
    26c7:	c7 44 24 08 80 00 00 	movl   $0x80,0x8(%esp)
    26ce:	00 
    26cf:	89 54 24 04          	mov    %edx,0x4(%esp)
    26d3:	89 04 24             	mov    %eax,(%esp)
    26d6:	e8 a5 91 00 00       	call   b880 <bcmp>
    26db:	85 c0                	test   %eax,%eax
    26dd:	75 b1                	jne    2690 <udf_read_volume_descriptor_sequence+0xad0>
    26df:	8b 8d 10 ff ff ff    	mov    -0xf0(%ebp),%ecx
    26e5:	8d 83 c6 00 00 00    	lea    0xc6(%ebx),%eax
    26eb:	c7 44 24 08 40 00 00 	movl   $0x40,0x8(%esp)
    26f2:	00 
    26f3:	89 4c 24 04          	mov    %ecx,0x4(%esp)
    26f7:	89 04 24             	mov    %eax,(%esp)
    26fa:	e8 81 91 00 00       	call   b880 <bcmp>
    26ff:	85 c0                	test   %eax,%eax
    2701:	75 8d                	jne    2690 <udf_read_volume_descriptor_sequence+0xad0>
    2703:	8b 95 30 ff ff ff    	mov    -0xd0(%ebp),%edx
    2709:	8b 4b 10             	mov    0x10(%ebx),%ecx
    270c:	39 4a 10             	cmp    %ecx,0x10(%edx)
    270f:	0f 86 7b ff ff ff    	jbe    2690 <udf_read_volume_descriptor_sequence+0xad0>
    2715:	c7 44 24 08 fe 01 00 	movl   $0x1fe,0x8(%esp)
    271c:	00 
    271d:	89 54 24 04          	mov    %edx,0x4(%esp)
    2721:	89 1c 24             	mov    %ebx,(%esp)
    2724:	e8 37 8c 00 00       	call   b360 <memcpy>
    2729:	e9 52 fa ff ff       	jmp    2180 <udf_read_volume_descriptor_sequence+0x5c0>
    272e:	66 90                	xchg   %ax,%ax
    2730:	8b 95 38 ff ff ff    	mov    -0xc8(%ebp),%edx
    2736:	39 95 50 ff ff ff    	cmp    %edx,-0xb0(%ebp)
    273c:	0f 86 d6 f5 ff ff    	jbe    1d18 <udf_read_volume_descriptor_sequence+0x158>
    2742:	e9 61 f6 ff ff       	jmp    1da8 <udf_read_volume_descriptor_sequence+0x1e8>
    2747:	90                   	nop
    2748:	8b bd 30 ff ff ff    	mov    -0xd0(%ebp),%edi
    274e:	8b 95 4c ff ff ff    	mov    -0xb4(%ebp),%edx
    2754:	8b 85 4c ff ff ff    	mov    -0xb4(%ebp),%eax
    275a:	01 d2                	add    %edx,%edx
    275c:	8b 9d 14 ff ff ff    	mov    -0xec(%ebp),%ebx
    2762:	c1 e0 09             	shl    $0x9,%eax
    2765:	c7 44 24 08 fe 01 00 	movl   $0x1fe,0x8(%esp)
    276c:	00 
    276d:	29 d0                	sub    %edx,%eax
    276f:	89 7c 24 04          	mov    %edi,0x4(%esp)
    2773:	01 d8                	add    %ebx,%eax
    2775:	89 04 24             	mov    %eax,(%esp)
    2778:	e8 e3 8b 00 00       	call   b360 <memcpy>
    277d:	8b b5 4c ff ff ff    	mov    -0xb4(%ebp),%esi
    2783:	46                   	inc    %esi
    2784:	89 b5 4c ff ff ff    	mov    %esi,-0xb4(%ebp)
    278a:	e9 f1 f9 ff ff       	jmp    2180 <udf_read_volume_descriptor_sequence+0x5c0>
    278f:	90                   	nop
    2790:	8b bd 30 ff ff ff    	mov    -0xd0(%ebp),%edi
    2796:	8b 87 08 01 00 00    	mov    0x108(%edi),%eax
    279c:	8b 95 48 ff ff ff    	mov    -0xb8(%ebp),%edx
    27a2:	05 b8 01 00 00       	add    $0x1b8,%eax
    27a7:	8b 8d 18 ff ff ff    	mov    -0xe8(%ebp),%ecx
    27ad:	89 44 24 08          	mov    %eax,0x8(%esp)
    27b1:	8d 04 92             	lea    (%edx,%edx,4),%eax
    27b4:	89 7c 24 04          	mov    %edi,0x4(%esp)
    27b8:	8d 04 42             	lea    (%edx,%eax,2),%eax
    27bb:	8d 04 80             	lea    (%eax,%eax,4),%eax
    27be:	8d 04 c1             	lea    (%ecx,%eax,8),%eax
    27c1:	89 04 24             	mov    %eax,(%esp)
    27c4:	e8 97 8b 00 00       	call   b360 <memcpy>
    27c9:	8b b5 48 ff ff ff    	mov    -0xb8(%ebp),%esi
    27cf:	46                   	inc    %esi
    27d0:	89 b5 48 ff ff ff    	mov    %esi,-0xb8(%ebp)
    27d6:	e9 b3 f9 ff ff       	jmp    218e <udf_read_volume_descriptor_sequence+0x5ce>
    27db:	90                   	nop
    27dc:	8d 74 26 00          	lea    0x0(%esi,%eiz,1),%esi
    27e0:	8b 85 2c ff ff ff    	mov    -0xd4(%ebp),%eax
    27e6:	8b 95 1c ff ff ff    	mov    -0xe4(%ebp),%edx
    27ec:	c1 e0 09             	shl    $0x9,%eax
    27ef:	c7 44 24 08 00 02 00 	movl   $0x200,0x8(%esp)
    27f6:	00 
    27f7:	01 d0                	add    %edx,%eax
    27f9:	89 7c 24 04          	mov    %edi,0x4(%esp)
    27fd:	89 04 24             	mov    %eax,(%esp)
    2800:	e8 5b 8b 00 00       	call   b360 <memcpy>
    2805:	8b 8d 2c ff ff ff    	mov    -0xd4(%ebp),%ecx
    280b:	41                   	inc    %ecx
    280c:	8b 47 38             	mov    0x38(%edi),%eax
    280f:	89 8d 2c ff ff ff    	mov    %ecx,-0xd4(%ebp)
    2815:	85 c0                	test   %eax,%eax
    2817:	0f 85 26 fd ff ff    	jne    2543 <udf_read_volume_descriptor_sequence+0x983>
    281d:	8b 47 40             	mov    0x40(%edi),%eax
    2820:	85 c0                	test   %eax,%eax
    2822:	0f 84 58 f9 ff ff    	je     2180 <udf_read_volume_descriptor_sequence+0x5c0>
    2828:	e9 74 fd ff ff       	jmp    25a1 <udf_read_volume_descriptor_sequence+0x9e1>
    282d:	8d 76 00             	lea    0x0(%esi),%esi
    2830:	77 0c                	ja     283e <udf_read_volume_descriptor_sequence+0xc7e>
    2832:	3b 9d 38 ff ff ff    	cmp    -0xc8(%ebp),%ebx
    2838:	0f 86 ad f4 ff ff    	jbe    1ceb <udf_read_volume_descriptor_sequence+0x12b>
    283e:	c7 85 2c ff ff ff 00 	movl   $0x0,-0xd4(%ebp)
    2845:	00 00 00 
    2848:	c7 85 48 ff ff ff 00 	movl   $0x0,-0xb8(%ebp)
    284f:	00 00 00 
    2852:	e9 51 f5 ff ff       	jmp    1da8 <udf_read_volume_descriptor_sequence+0x1e8>
    2857:	90                   	nop
    2858:	41                   	inc    %ecx
    2859:	0f 84 23 f7 ff ff    	je     1f82 <udf_read_volume_descriptor_sequence+0x3c2>
    285f:	8b 9d 4c ff ff ff    	mov    -0xb4(%ebp),%ebx
    2865:	8b 8d 50 ff ff ff    	mov    -0xb0(%ebp),%ecx
    286b:	c1 e1 04             	shl    $0x4,%ecx
    286e:	8b 5b 50             	mov    0x50(%ebx),%ebx
    2871:	89 8d 20 ff ff ff    	mov    %ecx,-0xe0(%ebp)
    2877:	01 d9                	add    %ebx,%ecx
    2879:	89 9d 00 ff ff ff    	mov    %ebx,-0x100(%ebp)
    287f:	8b 98 b8 00 00 00    	mov    0xb8(%eax),%ebx
    2885:	89 8d fc fe ff ff    	mov    %ecx,-0x104(%ebp)
    288b:	89 59 04             	mov    %ebx,0x4(%ecx)
    288e:	8b bd 20 ff ff ff    	mov    -0xe0(%ebp),%edi
    2894:	8b 8d 00 ff ff ff    	mov    -0x100(%ebp),%ecx
    289a:	8b 98 c0 00 00 00    	mov    0xc0(%eax),%ebx
    28a0:	8b 80 bc 00 00 00    	mov    0xbc(%eax),%eax
    28a6:	89 5c 39 0c          	mov    %ebx,0xc(%ecx,%edi,1)
    28aa:	8b bd fc fe ff ff    	mov    -0x104(%ebp),%edi
    28b0:	66 89 17             	mov    %dx,(%edi)
    28b3:	8b 95 4c ff ff ff    	mov    -0xb4(%ebp),%edx
    28b9:	89 47 08             	mov    %eax,0x8(%edi)
    28bc:	8b 85 44 ff ff ff    	mov    -0xbc(%ebp),%eax
    28c2:	8b 4a 4c             	mov    0x4c(%edx),%ecx
    28c5:	01 c8                	add    %ecx,%eax
    28c7:	8b 8d 40 ff ff ff    	mov    -0xc0(%ebp),%ecx
    28cd:	8b 50 04             	mov    0x4(%eax),%edx
    28d0:	8b 00                	mov    (%eax),%eax
    28d2:	89 3c 90             	mov    %edi,(%eax,%edx,4)
    28d5:	31 c0                	xor    %eax,%eax
    28d7:	8a 06                	mov    (%esi),%al
    28d9:	89 4c 24 0c          	mov    %ecx,0xc(%esp)
    28dd:	89 44 24 10          	mov    %eax,0x10(%esp)
    28e1:	c7 44 24 08 50 55 02 	movl   $0x25550,0x8(%esp)
    28e8:	00 
    28e9:	c7 44 24 04 04 00 00 	movl   $0x4,0x4(%esp)
    28f0:	00 
    28f1:	c7 04 24 ff ff ff ff 	movl   $0xffffffff,(%esp)
    28f8:	e8 d3 0c 01 00       	call   135d0 <log_msg>
    28fd:	8b 85 44 ff ff ff    	mov    -0xbc(%ebp),%eax
    2903:	8b 9d 4c ff ff ff    	mov    -0xb4(%ebp),%ebx
    2909:	8b 53 4c             	mov    0x4c(%ebx),%edx
    290c:	01 d0                	add    %edx,%eax
    290e:	8b 48 04             	mov    0x4(%eax),%ecx
    2911:	41                   	inc    %ecx
    2912:	89 48 04             	mov    %ecx,0x4(%eax)
    2915:	31 c0                	xor    %eax,%eax
    2917:	8a 46 01             	mov    0x1(%esi),%al
    291a:	01 c6                	add    %eax,%esi
    291c:	e9 e5 f5 ff ff       	jmp    1f06 <udf_read_volume_descriptor_sequence+0x346>
    2921:	8d b4 26 00 00 00 00 	lea    0x0(%esi,%eiz,1),%esi
    2928:	8b 46 28             	mov    0x28(%esi),%eax
    292b:	c7 44 24 08 5a 56 02 	movl   $0x2565a,0x8(%esp)
    2932:	00 
    2933:	89 44 24 0c          	mov    %eax,0xc(%esp)
    2937:	c7 44 24 04 04 00 00 	movl   $0x4,0x4(%esp)
    293e:	00 
    293f:	c7 04 24 ff ff ff ff 	movl   $0xffffffff,(%esp)
    2946:	e8 85 0c 01 00       	call   135d0 <log_msg>
    294b:	8b 85 30 ff ff ff    	mov    -0xd0(%ebp),%eax
    2951:	40                   	inc    %eax
    2952:	8b 95 2c ff ff ff    	mov    -0xd4(%ebp),%edx
    2958:	89 85 30 ff ff ff    	mov    %eax,-0xd0(%ebp)
    295e:	8b bd 4c ff ff ff    	mov    -0xb4(%ebp),%edi
    2964:	8b 85 30 ff ff ff    	mov    -0xd0(%ebp),%eax
    296a:	01 d0                	add    %edx,%eax
    296c:	c1 e0 04             	shl    $0x4,%eax
    296f:	89 44 24 04          	mov    %eax,0x4(%esp)
    2973:	8b 47 50             	mov    0x50(%edi),%eax
    2976:	89 04 24             	mov    %eax,(%esp)
    2979:	e8 22 60 01 00       	call   189a0 <realloc>
    297e:	89 47 50             	mov    %eax,0x50(%edi)
    2981:	85 c0                	test   %eax,%eax
    2983:	0f 84 f9 f5 ff ff    	je     1f82 <udf_read_volume_descriptor_sequence+0x3c2>
    2989:	8b 4f 54             	mov    0x54(%edi),%ecx
    298c:	66 8b 5e 26          	mov    0x26(%esi),%bx
    2990:	41                   	inc    %ecx
    2991:	89 4f 54             	mov    %ecx,0x54(%edi)
    2994:	8b bd 2c ff ff ff    	mov    -0xd4(%ebp),%edi
    299a:	85 ff                	test   %edi,%edi
    299c:	0f 84 e0 f5 ff ff    	je     1f82 <udf_read_volume_descriptor_sequence+0x3c2>
    29a2:	8b 95 1c ff ff ff    	mov    -0xe4(%ebp),%edx
    29a8:	66 3b 5a 16          	cmp    0x16(%edx),%bx
    29ac:	0f 84 43 03 00 00    	je     2cf5 <udf_read_volume_descriptor_sequence+0x1135>
    29b2:	89 d1                	mov    %edx,%ecx
    29b4:	89 85 20 ff ff ff    	mov    %eax,-0xe0(%ebp)
    29ba:	81 c1 00 02 00 00    	add    $0x200,%ecx
    29c0:	31 d2                	xor    %edx,%edx
    29c2:	8b 85 2c ff ff ff    	mov    -0xd4(%ebp),%eax
    29c8:	eb 17                	jmp    29e1 <udf_read_volume_descriptor_sequence+0xe21>
    29ca:	8d b6 00 00 00 00    	lea    0x0(%esi),%esi
    29d0:	89 cf                	mov    %ecx,%edi
    29d2:	8d 89 00 02 00 00    	lea    0x200(%ecx),%ecx
    29d8:	66 3b 99 16 fe ff ff 	cmp    -0x1ea(%ecx),%bx
    29df:	74 56                	je     2a37 <udf_read_volume_descriptor_sequence+0xe77>
    29e1:	42                   	inc    %edx
    29e2:	39 c2                	cmp    %eax,%edx
    29e4:	75 ea                	jne    29d0 <udf_read_volume_descriptor_sequence+0xe10>
    29e6:	e9 97 f5 ff ff       	jmp    1f82 <udf_read_volume_descriptor_sequence+0x3c2>
    29eb:	90                   	nop
    29ec:	8d 74 26 00          	lea    0x0(%esi,%eiz,1),%esi
    29f0:	8b bd 14 ff ff ff    	mov    -0xec(%ebp),%edi
    29f6:	89 85 08 ff ff ff    	mov    %eax,-0xf8(%ebp)
    29fc:	89 3c 24             	mov    %edi,(%esp)
    29ff:	e8 4c 5d 01 00       	call   18750 <free>
    2a04:	8b 95 18 ff ff ff    	mov    -0xe8(%ebp),%edx
    2a0a:	89 14 24             	mov    %edx,(%esp)
    2a0d:	e8 3e 5d 01 00       	call   18750 <free>
    2a12:	8b 8d 1c ff ff ff    	mov    -0xe4(%ebp),%ecx
    2a18:	89 0c 24             	mov    %ecx,(%esp)
    2a1b:	e8 30 5d 01 00       	call   18750 <free>
    2a20:	8b 85 08 ff ff ff    	mov    -0xf8(%ebp),%eax
    2a26:	89 85 28 ff ff ff    	mov    %eax,-0xd8(%ebp)
    2a2c:	81 c4 1c 01 00 00    	add    $0x11c,%esp
    2a32:	5b                   	pop    %ebx
    2a33:	5e                   	pop    %esi
    2a34:	5f                   	pop    %edi
    2a35:	5d                   	pop    %ebp
    2a36:	c3                   	ret    
    2a37:	8b 85 20 ff ff ff    	mov    -0xe0(%ebp),%eax
    2a3d:	42                   	inc    %edx
    2a3e:	0f 84 3e f5 ff ff    	je     1f82 <udf_read_volume_descriptor_sequence+0x3c2>
    2a44:	8b 8d 50 ff ff ff    	mov    -0xb0(%ebp),%ecx
    2a4a:	8b 56 28             	mov    0x28(%esi),%edx
    2a4d:	c1 e1 04             	shl    $0x4,%ecx
    2a50:	89 8d 20 ff ff ff    	mov    %ecx,-0xe0(%ebp)
    2a56:	66 89 1c 08          	mov    %bx,(%eax,%ecx,1)
    2a5a:	8b 9d 4c ff ff ff    	mov    -0xb4(%ebp),%ebx
    2a60:	8b 87 bc 00 00 00    	mov    0xbc(%edi),%eax
    2a66:	01 d0                	add    %edx,%eax
    2a68:	8b 13                	mov    (%ebx),%edx
    2a6a:	89 54 24 04          	mov    %edx,0x4(%esp)
    2a6e:	8b 95 34 ff ff ff    	mov    -0xcc(%ebp),%edx
    2a74:	c7 44 24 10 00 00 00 	movl   $0x0,0x10(%esp)
    2a7b:	00 
    2a7c:	89 44 24 08          	mov    %eax,0x8(%esp)
    2a80:	c7 44 24 0c 00 00 00 	movl   $0x0,0xc(%esp)
    2a87:	00 
    2a88:	89 14 24             	mov    %edx,(%esp)
    2a8b:	c7 85 60 ff ff ff 00 	movl   $0x0,-0xa0(%ebp)
    2a92:	00 00 00 
    2a95:	e8 b6 34 00 00       	call   5f50 <block_get>
    2a9a:	85 c0                	test   %eax,%eax
    2a9c:	0f 85 e0 f4 ff ff    	jne    1f82 <udf_read_volume_descriptor_sequence+0x3c2>
    2aa2:	8b 85 60 ff ff ff    	mov    -0xa0(%ebp),%eax
    2aa8:	8b 58 54             	mov    0x54(%eax),%ebx
    2aab:	8a 4b 04             	mov    0x4(%ebx),%cl
    2aae:	89 1c 24             	mov    %ebx,(%esp)
    2ab1:	88 8d 0f ff ff ff    	mov    %cl,-0xf1(%ebp)
    2ab7:	e8 64 19 00 00       	call   4420 <udf_tag_checksum>
    2abc:	38 85 0f ff ff ff    	cmp    %al,-0xf1(%ebp)
    2ac2:	0f 85 34 02 00 00    	jne    2cfc <udf_read_volume_descriptor_sequence+0x113c>
    2ac8:	66 8b 03             	mov    (%ebx),%ax
    2acb:	66 3d 05 01          	cmp    $0x105,%ax
    2acf:	0f 84 8b 01 00 00    	je     2c60 <udf_read_volume_descriptor_sequence+0x10a0>
    2ad5:	66 3d 0a 01          	cmp    $0x10a,%ax
    2ad9:	0f 84 05 01 00 00    	je     2be4 <udf_read_volume_descriptor_sequence+0x1024>
    2adf:	8b 8d 60 ff ff ff    	mov    -0xa0(%ebp),%ecx
    2ae5:	89 0c 24             	mov    %ecx,(%esp)
    2ae8:	e8 b3 31 00 00       	call   5ca0 <block_put>
    2aed:	85 c0                	test   %eax,%eax
    2aef:	0f 85 8d f4 ff ff    	jne    1f82 <udf_read_volume_descriptor_sequence+0x3c2>
    2af5:	8b 95 4c ff ff ff    	mov    -0xb4(%ebp),%edx
    2afb:	8b 85 20 ff ff ff    	mov    -0xe0(%ebp),%eax
    2b01:	8b 8d 4c ff ff ff    	mov    -0xb4(%ebp),%ecx
    2b07:	8b 5a 50             	mov    0x50(%edx),%ebx
    2b0a:	8b 97 bc 00 00 00    	mov    0xbc(%edi),%edx
    2b10:	01 d8                	add    %ebx,%eax
    2b12:	8b 59 4c             	mov    0x4c(%ecx),%ebx
    2b15:	8b 78 08             	mov    0x8(%eax),%edi
    2b18:	01 d7                	add    %edx,%edi
    2b1a:	8b 95 44 ff ff ff    	mov    -0xbc(%ebp),%edx
    2b20:	01 da                	add    %ebx,%edx
    2b22:	8b 9d 4c ff ff ff    	mov    -0xb4(%ebp),%ebx
    2b28:	89 78 08             	mov    %edi,0x8(%eax)
    2b2b:	8b 4a 04             	mov    0x4(%edx),%ecx
    2b2e:	8b 12                	mov    (%edx),%edx
    2b30:	89 04 8a             	mov    %eax,(%edx,%ecx,4)
    2b33:	8b 85 20 ff ff ff    	mov    -0xe0(%ebp),%eax
    2b39:	8b 7b 50             	mov    0x50(%ebx),%edi
    2b3c:	01 f8                	add    %edi,%eax
    2b3e:	8b 50 08             	mov    0x8(%eax),%edx
    2b41:	89 54 24 10          	mov    %edx,0x10(%esp)
    2b45:	8b 00                	mov    (%eax),%eax
    2b47:	c7 44 24 08 d4 55 02 	movl   $0x255d4,0x8(%esp)
    2b4e:	00 
    2b4f:	25 ff ff 00 00       	and    $0xffff,%eax
    2b54:	c7 44 24 04 04 00 00 	movl   $0x4,0x4(%esp)
    2b5b:	00 
    2b5c:	89 44 24 0c          	mov    %eax,0xc(%esp)
    2b60:	c7 04 24 ff ff ff ff 	movl   $0xffffffff,(%esp)
    2b67:	e8 64 0a 01 00       	call   135d0 <log_msg>
    2b6c:	31 c0                	xor    %eax,%eax
    2b6e:	8a 06                	mov    (%esi),%al
    2b70:	8b bd 40 ff ff ff    	mov    -0xc0(%ebp),%edi
    2b76:	89 44 24 10          	mov    %eax,0x10(%esp)
    2b7a:	89 7c 24 0c          	mov    %edi,0xc(%esp)
    2b7e:	c7 44 24 08 50 55 02 	movl   $0x25550,0x8(%esp)
    2b85:	00 
    2b86:	c7 44 24 04 04 00 00 	movl   $0x4,0x4(%esp)
    2b8d:	00 
    2b8e:	c7 04 24 ff ff ff ff 	movl   $0xffffffff,(%esp)
    2b95:	e8 36 0a 01 00       	call   135d0 <log_msg>
    2b9a:	8b 85 44 ff ff ff    	mov    -0xbc(%ebp),%eax
    2ba0:	e9 64 fd ff ff       	jmp    2909 <udf_read_volume_descriptor_sequence+0xd49>
    2ba5:	8b 85 14 ff ff ff    	mov    -0xec(%ebp),%eax
    2bab:	89 04 24             	mov    %eax,(%esp)
    2bae:	e8 9d 5b 01 00       	call   18750 <free>
    2bb3:	8b 85 18 ff ff ff    	mov    -0xe8(%ebp),%eax
    2bb9:	89 04 24             	mov    %eax,(%esp)
    2bbc:	e8 8f 5b 01 00       	call   18750 <free>
    2bc1:	8b 85 1c ff ff ff    	mov    -0xe4(%ebp),%eax
    2bc7:	89 04 24             	mov    %eax,(%esp)
    2bca:	e8 81 5b 01 00       	call   18750 <free>
    2bcf:	8b 85 28 ff ff ff    	mov    -0xd8(%ebp),%eax
    2bd5:	e9 66 f5 ff ff       	jmp    2140 <udf_read_volume_descriptor_sequence+0x580>
    2bda:	b8 f2 ff ff ff       	mov    $0xfffffff2,%eax
    2bdf:	e9 4f f5 ff ff       	jmp    2133 <udf_read_volume_descriptor_sequence+0x573>
    2be4:	c7 44 24 08 a8 55 02 	movl   $0x255a8,0x8(%esp)
    2beb:	00 
    2bec:	c7 44 24 04 04 00 00 	movl   $0x4,0x4(%esp)
    2bf3:	00 
    2bf4:	c7 04 24 ff ff ff ff 	movl   $0xffffffff,(%esp)
    2bfb:	e8 d0 09 01 00       	call   135d0 <log_msg>
    2c00:	8b 8d 60 ff ff ff    	mov    -0xa0(%ebp),%ecx
    2c06:	8b 41 54             	mov    0x54(%ecx),%eax
    2c09:	8b 90 bc 00 00 00    	mov    0xbc(%eax),%edx
    2c0f:	8d 84 10 d8 00 00 00 	lea    0xd8(%eax,%edx,1),%eax
    2c16:	8b 9d 4c ff ff ff    	mov    -0xb4(%ebp),%ebx
    2c1c:	8b 95 20 ff ff ff    	mov    -0xe0(%ebp),%edx
    2c22:	03 53 50             	add    0x50(%ebx),%edx
    2c25:	8b 58 04             	mov    0x4(%eax),%ebx
    2c28:	89 5a 08             	mov    %ebx,0x8(%edx)
    2c2b:	8b 00                	mov    (%eax),%eax
    2c2d:	89 42 0c             	mov    %eax,0xc(%edx)
    2c30:	e9 b0 fe ff ff       	jmp    2ae5 <udf_read_volume_descriptor_sequence+0xf25>
    2c35:	8b 43 4c             	mov    0x4c(%ebx),%eax
    2c38:	89 04 24             	mov    %eax,(%esp)
    2c3b:	e8 10 5b 01 00       	call   18750 <free>
    2c40:	8b bd 48 ff ff ff    	mov    -0xb8(%ebp),%edi
    2c46:	85 ff                	test   %edi,%edi
    2c48:	0f 84 57 ff ff ff    	je     2ba5 <udf_read_volume_descriptor_sequence+0xfe5>
    2c4e:	8d bd 60 ff ff ff    	lea    -0xa0(%ebp),%edi
    2c54:	89 bd 34 ff ff ff    	mov    %edi,-0xcc(%ebp)
    2c5a:	e9 23 f3 ff ff       	jmp    1f82 <udf_read_volume_descriptor_sequence+0x3c2>
    2c5f:	90                   	nop
    2c60:	c7 44 24 08 84 55 02 	movl   $0x25584,0x8(%esp)
    2c67:	00 
    2c68:	c7 44 24 04 04 00 00 	movl   $0x4,0x4(%esp)
    2c6f:	00 
    2c70:	c7 04 24 ff ff ff ff 	movl   $0xffffffff,(%esp)
    2c77:	e8 54 09 01 00       	call   135d0 <log_msg>
    2c7c:	8b 8d 60 ff ff ff    	mov    -0xa0(%ebp),%ecx
    2c82:	8b 41 54             	mov    0x54(%ecx),%eax
    2c85:	8b 90 a8 00 00 00    	mov    0xa8(%eax),%edx
    2c8b:	8d 84 10 b0 00 00 00 	lea    0xb0(%eax,%edx,1),%eax
    2c92:	eb 82                	jmp    2c16 <udf_read_volume_descriptor_sequence+0x1056>
    2c94:	c7 85 28 ff ff ff fe 	movl   $0xfffffffe,-0xd8(%ebp)
    2c9b:	ff ff ff 
    2c9e:	8b 85 28 ff ff ff    	mov    -0xd8(%ebp),%eax
    2ca4:	e9 97 f4 ff ff       	jmp    2140 <udf_read_volume_descriptor_sequence+0x580>
    2ca9:	8b 9d 40 ff ff ff    	mov    -0xc0(%ebp),%ebx
    2caf:	8b b5 10 ff ff ff    	mov    -0xf0(%ebp),%esi
    2cb5:	43                   	inc    %ebx
    2cb6:	8b bd 48 ff ff ff    	mov    -0xb8(%ebp),%edi
    2cbc:	89 9d 40 ff ff ff    	mov    %ebx,-0xc0(%ebp)
    2cc2:	89 b5 38 ff ff ff    	mov    %esi,-0xc8(%ebp)
    2cc8:	39 bd 40 ff ff ff    	cmp    %edi,-0xc0(%ebp)
    2cce:	0f 85 65 f1 ff ff    	jne    1e39 <udf_read_volume_descriptor_sequence+0x279>
    2cd4:	e9 a9 f2 ff ff       	jmp    1f82 <udf_read_volume_descriptor_sequence+0x3c2>
    2cd9:	8d b4 26 00 00 00 00 	lea    0x0(%esi,%eiz,1),%esi
    2ce0:	c7 85 28 ff ff ff f2 	movl   $0xfffffff2,-0xd8(%ebp)
    2ce7:	ff ff ff 
    2cea:	8b 85 28 ff ff ff    	mov    -0xd8(%ebp),%eax
    2cf0:	e9 4b f4 ff ff       	jmp    2140 <udf_read_volume_descriptor_sequence+0x580>
    2cf5:	89 d7                	mov    %edx,%edi
    2cf7:	e9 48 fd ff ff       	jmp    2a44 <udf_read_volume_descriptor_sequence+0xe84>
    2cfc:	8b 85 60 ff ff ff    	mov    -0xa0(%ebp),%eax
    2d02:	89 04 24             	mov    %eax,(%esp)
    2d05:	e8 96 2f 00 00       	call   5ca0 <block_put>
    2d0a:	e9 73 f2 ff ff       	jmp    1f82 <udf_read_volume_descriptor_sequence+0x3c2>
    2d0f:	8b 85 14 ff ff ff    	mov    -0xec(%ebp),%eax
    2d15:	89 04 24             	mov    %eax,(%esp)
    2d18:	e8 33 5a 01 00       	call   18750 <free>
    2d1d:	c7 85 28 ff ff ff fe 	movl   $0xfffffffe,-0xd8(%ebp)
    2d24:	ff ff ff 
    2d27:	8b 85 28 ff ff ff    	mov    -0xd8(%ebp),%eax
    2d2d:	e9 0e f4 ff ff       	jmp    2140 <udf_read_volume_descriptor_sequence+0x580>
    2d32:	8b 85 14 ff ff ff    	mov    -0xec(%ebp),%eax
    2d38:	89 04 24             	mov    %eax,(%esp)
    2d3b:	e8 10 5a 01 00       	call   18750 <free>
    2d40:	8b 85 18 ff ff ff    	mov    -0xe8(%ebp),%eax
    2d46:	89 04 24             	mov    %eax,(%esp)
    2d49:	e8 02 5a 01 00       	call   18750 <free>
    2d4e:	c7 85 28 ff ff ff fe 	movl   $0xfffffffe,-0xd8(%ebp)
    2d55:	ff ff ff 
    2d58:	8b 85 28 ff ff ff    	mov    -0xd8(%ebp),%eax
    2d5e:	e9 dd f3 ff ff       	jmp    2140 <udf_read_volume_descriptor_sequence+0x580>
    2d63:	66 90                	xchg   %ax,%ax
    2d65:	66 90                	xchg   %ax,%ax
    2d67:	66 90                	xchg   %ax,%ax
    2d69:	66 90                	xchg   %ax,%ax
    2d6b:	66 90                	xchg   %ax,%ax
    2d6d:	66 90                	xchg   %ax,%ax
    2d6f:	90                   	nop

00002d70 <udf_service_get>:
    2d70:	55                   	push   %ebp
    2d71:	89 e5                	mov    %esp,%ebp
    2d73:	8b 45 08             	mov    0x8(%ebp),%eax
    2d76:	85 c0                	test   %eax,%eax
    2d78:	74 0e                	je     2d88 <udf_service_get+0x18>
    2d7a:	8b 40 10             	mov    0x10(%eax),%eax
    2d7d:	85 c0                	test   %eax,%eax
    2d7f:	74 07                	je     2d88 <udf_service_get+0x18>
    2d81:	8b 00                	mov    (%eax),%eax
    2d83:	5d                   	pop    %ebp
    2d84:	8b 00                	mov    (%eax),%eax
    2d86:	c3                   	ret    
    2d87:	90                   	nop
    2d88:	31 c0                	xor    %eax,%eax
    2d8a:	5d                   	pop    %ebp
    2d8b:	c3                   	ret    
    2d8c:	8d 74 26 00          	lea    0x0(%esi,%eiz,1),%esi

00002d90 <udf_node_open>:
    2d90:	55                   	push   %ebp
    2d91:	31 c0                	xor    %eax,%eax
    2d93:	89 e5                	mov    %esp,%ebp
    2d95:	5d                   	pop    %ebp
    2d96:	c3                   	ret    
    2d97:	89 f6                	mov    %esi,%esi
    2d99:	8d bc 27 00 00 00 00 	lea    0x0(%edi,%eiz,1),%edi

00002da0 <udf_create_node>:
    2da0:	55                   	push   %ebp
    2da1:	b8 f5 ff ff ff       	mov    $0xfffffff5,%eax
    2da6:	89 e5                	mov    %esp,%ebp
    2da8:	5d                   	pop    %ebp
    2da9:	c3                   	ret    
    2daa:	8d b6 00 00 00 00    	lea    0x0(%esi),%esi

00002db0 <udf_destroy_node>:
    2db0:	55                   	push   %ebp
    2db1:	b8 f5 ff ff ff       	mov    $0xfffffff5,%eax
    2db6:	89 e5                	mov    %esp,%ebp
    2db8:	5d                   	pop    %ebp
    2db9:	c3                   	ret    
    2dba:	8d b6 00 00 00 00    	lea    0x0(%esi),%esi

00002dc0 <udf_link>:
    2dc0:	55                   	push   %ebp
    2dc1:	b8 f5 ff ff ff       	mov    $0xfffffff5,%eax
    2dc6:	89 e5                	mov    %esp,%ebp
    2dc8:	5d                   	pop    %ebp
    2dc9:	c3                   	ret    
    2dca:	8d b6 00 00 00 00    	lea    0x0(%esi),%esi

00002dd0 <udf_unlink>:
    2dd0:	55                   	push   %ebp
    2dd1:	b8 f5 ff ff ff       	mov    $0xfffffff5,%eax
    2dd6:	89 e5                	mov    %esp,%ebp
    2dd8:	5d                   	pop    %ebp
    2dd9:	c3                   	ret    
    2dda:	8d b6 00 00 00 00    	lea    0x0(%esi),%esi

00002de0 <udf_has_children>:
    2de0:	55                   	push   %ebp
    2de1:	89 e5                	mov    %esp,%ebp
    2de3:	8b 45 08             	mov    0x8(%ebp),%eax
    2de6:	c6 00 01             	movb   $0x1,(%eax)
    2de9:	31 c0                	xor    %eax,%eax
    2deb:	5d                   	pop    %ebp
    2dec:	c3                   	ret    
    2ded:	8d 76 00             	lea    0x0(%esi),%esi

00002df0 <udf_index_get>:
    2df0:	55                   	push   %ebp
    2df1:	89 e5                	mov    %esp,%ebp
    2df3:	8b 45 08             	mov    0x8(%ebp),%eax
    2df6:	85 c0                	test   %eax,%eax
    2df8:	74 0e                	je     2e08 <udf_index_get+0x18>
    2dfa:	8b 40 10             	mov    0x10(%eax),%eax
    2dfd:	85 c0                	test   %eax,%eax
    2dff:	74 07                	je     2e08 <udf_index_get+0x18>
    2e01:	8b 40 18             	mov    0x18(%eax),%eax
    2e04:	5d                   	pop    %ebp
    2e05:	c3                   	ret    
    2e06:	66 90                	xchg   %ax,%ax
    2e08:	31 c0                	xor    %eax,%eax
    2e0a:	5d                   	pop    %ebp
    2e0b:	c3                   	ret    
    2e0c:	8d 74 26 00          	lea    0x0(%esi,%eiz,1),%esi

00002e10 <udf_size_get>:
    2e10:	55                   	push   %ebp
    2e11:	89 e5                	mov    %esp,%ebp
    2e13:	8b 45 08             	mov    0x8(%ebp),%eax
    2e16:	85 c0                	test   %eax,%eax
    2e18:	74 16                	je     2e30 <udf_size_get+0x20>
    2e1a:	8b 40 10             	mov    0x10(%eax),%eax
    2e1d:	85 c0                	test   %eax,%eax
    2e1f:	74 0f                	je     2e30 <udf_size_get+0x20>
    2e21:	8b 50 34             	mov    0x34(%eax),%edx
    2e24:	5d                   	pop    %ebp
    2e25:	8b 40 30             	mov    0x30(%eax),%eax
    2e28:	c3                   	ret    
    2e29:	8d b4 26 00 00 00 00 	lea    0x0(%esi,%eiz,1),%esi
    2e30:	31 c0                	xor    %eax,%eax
    2e32:	31 d2                	xor    %edx,%edx
    2e34:	5d                   	pop    %ebp
    2e35:	c3                   	ret    
    2e36:	8d 76 00             	lea    0x0(%esi),%esi
    2e39:	8d bc 27 00 00 00 00 	lea    0x0(%edi,%eiz,1),%edi

00002e40 <udf_lnkcnt_get>:
    2e40:	55                   	push   %ebp
    2e41:	89 e5                	mov    %esp,%ebp
    2e43:	8b 45 08             	mov    0x8(%ebp),%eax
    2e46:	85 c0                	test   %eax,%eax
    2e48:	74 0e                	je     2e58 <udf_lnkcnt_get+0x18>
    2e4a:	8b 40 10             	mov    0x10(%eax),%eax
    2e4d:	85 c0                	test   %eax,%eax
    2e4f:	74 07                	je     2e58 <udf_lnkcnt_get+0x18>
    2e51:	8b 40 28             	mov    0x28(%eax),%eax
    2e54:	5d                   	pop    %ebp
    2e55:	c3                   	ret    
    2e56:	66 90                	xchg   %ax,%ax
    2e58:	31 c0                	xor    %eax,%eax
    2e5a:	5d                   	pop    %ebp
    2e5b:	c3                   	ret    
    2e5c:	8d 74 26 00          	lea    0x0(%esi,%eiz,1),%esi

00002e60 <udf_is_directory>:
    2e60:	55                   	push   %ebp
    2e61:	89 e5                	mov    %esp,%ebp
    2e63:	8b 45 08             	mov    0x8(%ebp),%eax
    2e66:	85 c0                	test   %eax,%eax
    2e68:	74 16                	je     2e80 <udf_is_directory+0x20>
    2e6a:	8b 40 10             	mov    0x10(%eax),%eax
    2e6d:	85 c0                	test   %eax,%eax
    2e6f:	74 0f                	je     2e80 <udf_is_directory+0x20>
    2e71:	80 78 2c 00          	cmpb   $0x0,0x2c(%eax)
    2e75:	5d                   	pop    %ebp
    2e76:	0f 94 c0             	sete   %al
    2e79:	c3                   	ret    
    2e7a:	8d b6 00 00 00 00    	lea    0x0(%esi),%esi
    2e80:	31 c0                	xor    %eax,%eax
    2e82:	5d                   	pop    %ebp
    2e83:	c3                   	ret    
    2e84:	8d b6 00 00 00 00    	lea    0x0(%esi),%esi
    2e8a:	8d bf 00 00 00 00    	lea    0x0(%edi),%edi

00002e90 <udf_is_file>:
    2e90:	55                   	push   %ebp
    2e91:	89 e5                	mov    %esp,%ebp
    2e93:	8b 45 08             	mov    0x8(%ebp),%eax
    2e96:	85 c0                	test   %eax,%eax
    2e98:	74 16                	je     2eb0 <udf_is_file+0x20>
    2e9a:	8b 40 10             	mov    0x10(%eax),%eax
    2e9d:	85 c0                	test   %eax,%eax
    2e9f:	74 0f                	je     2eb0 <udf_is_file+0x20>
    2ea1:	80 78 2c 01          	cmpb   $0x1,0x2c(%eax)
    2ea5:	5d                   	pop    %ebp
    2ea6:	0f 94 c0             	sete   %al
    2ea9:	c3                   	ret    
    2eaa:	8d b6 00 00 00 00    	lea    0x0(%esi),%esi
    2eb0:	31 c0                	xor    %eax,%eax
    2eb2:	5d                   	pop    %ebp
    2eb3:	c3                   	ret    
    2eb4:	8d b6 00 00 00 00    	lea    0x0(%esi),%esi
    2eba:	8d bf 00 00 00 00    	lea    0x0(%edi),%edi

00002ec0 <udf_close>:
    2ec0:	55                   	push   %ebp
    2ec1:	31 c0                	xor    %eax,%eax
    2ec3:	89 e5                	mov    %esp,%ebp
    2ec5:	5d                   	pop    %ebp
    2ec6:	c3                   	ret    
    2ec7:	89 f6                	mov    %esi,%esi
    2ec9:	8d bc 27 00 00 00 00 	lea    0x0(%edi,%eiz,1),%edi

00002ed0 <udf_sync>:
    2ed0:	55                   	push   %ebp
    2ed1:	b8 f5 ff ff ff       	mov    $0xfffffff5,%eax
    2ed6:	89 e5                	mov    %esp,%ebp
    2ed8:	5d                   	pop    %ebp
    2ed9:	c3                   	ret    
    2eda:	8d b6 00 00 00 00    	lea    0x0(%esi),%esi

00002ee0 <udf_write>:
    2ee0:	55                   	push   %ebp
    2ee1:	b8 f5 ff ff ff       	mov    $0xfffffff5,%eax
    2ee6:	89 e5                	mov    %esp,%ebp
    2ee8:	5d                   	pop    %ebp
    2ee9:	c3                   	ret    
    2eea:	8d b6 00 00 00 00    	lea    0x0(%esi),%esi

00002ef0 <udf_truncate>:
    2ef0:	55                   	push   %ebp
    2ef1:	b8 f5 ff ff ff       	mov    $0xfffffff5,%eax
    2ef6:	89 e5                	mov    %esp,%ebp
    2ef8:	5d                   	pop    %ebp
    2ef9:	c3                   	ret    
    2efa:	8d b6 00 00 00 00    	lea    0x0(%esi),%esi

00002f00 <udf_destroy>:
    2f00:	55                   	push   %ebp
    2f01:	b8 f5 ff ff ff       	mov    $0xfffffff5,%eax
    2f06:	89 e5                	mov    %esp,%ebp
    2f08:	5d                   	pop    %ebp
    2f09:	c3                   	ret    
    2f0a:	8d b6 00 00 00 00    	lea    0x0(%esi),%esi

00002f10 <udf_node_put>:
    2f10:	55                   	push   %ebp
    2f11:	89 e5                	mov    %esp,%ebp
    2f13:	56                   	push   %esi
    2f14:	53                   	push   %ebx
    2f15:	83 ec 10             	sub    $0x10,%esp
    2f18:	8b 45 08             	mov    0x8(%ebp),%eax
    2f1b:	85 c0                	test   %eax,%eax
    2f1d:	74 41                	je     2f60 <udf_node_put+0x50>
    2f1f:	8b 58 10             	mov    0x10(%eax),%ebx
    2f22:	85 db                	test   %ebx,%ebx
    2f24:	74 3a                	je     2f60 <udf_node_put+0x50>
    2f26:	8d 73 08             	lea    0x8(%ebx),%esi
    2f29:	89 34 24             	mov    %esi,(%esp)
    2f2c:	e8 5f c4 00 00       	call   f390 <fibril_mutex_lock>
    2f31:	8b 43 24             	mov    0x24(%ebx),%eax
    2f34:	48                   	dec    %eax
    2f35:	89 43 24             	mov    %eax,0x24(%ebx)
    2f38:	89 34 24             	mov    %esi,(%esp)
    2f3b:	e8 70 c5 00 00       	call   f4b0 <fibril_mutex_unlock>
    2f40:	8b 53 24             	mov    0x24(%ebx),%edx
    2f43:	31 f6                	xor    %esi,%esi
    2f45:	85 d2                	test   %edx,%edx
    2f47:	75 08                	jne    2f51 <udf_node_put+0x41>
    2f49:	89 1c 24             	mov    %ebx,(%esp)
    2f4c:	e8 3f 25 00 00       	call   5490 <udf_idx_del>
    2f51:	83 c4 10             	add    $0x10,%esp
    2f54:	89 f0                	mov    %esi,%eax
    2f56:	5b                   	pop    %ebx
    2f57:	5e                   	pop    %esi
    2f58:	5d                   	pop    %ebp
    2f59:	c3                   	ret    
    2f5a:	8d b6 00 00 00 00    	lea    0x0(%esi),%esi
    2f60:	83 c4 10             	add    $0x10,%esp
    2f63:	be f2 ff ff ff       	mov    $0xfffffff2,%esi
    2f68:	89 f0                	mov    %esi,%eax
    2f6a:	5b                   	pop    %ebx
    2f6b:	5e                   	pop    %esi
    2f6c:	5d                   	pop    %ebp
    2f6d:	c3                   	ret    
    2f6e:	66 90                	xchg   %ax,%ax

00002f70 <udf_node_get>:
    2f70:	55                   	push   %ebp
    2f71:	89 e5                	mov    %esp,%ebp
    2f73:	56                   	push   %esi
    2f74:	53                   	push   %ebx
    2f75:	83 ec 20             	sub    $0x20,%esp
    2f78:	8d 45 f0             	lea    -0x10(%ebp),%eax
    2f7b:	89 44 24 04          	mov    %eax,0x4(%esp)
    2f7f:	8b 45 0c             	mov    0xc(%ebp),%eax
    2f82:	89 04 24             	mov    %eax,(%esp)
    2f85:	e8 f6 51 00 00       	call   8180 <fs_instance_get>
    2f8a:	89 c3                	mov    %eax,%ebx
    2f8c:	85 c0                	test   %eax,%eax
    2f8e:	74 10                	je     2fa0 <udf_node_get+0x30>
    2f90:	83 c4 20             	add    $0x20,%esp
    2f93:	89 d8                	mov    %ebx,%eax
    2f95:	5b                   	pop    %ebx
    2f96:	5e                   	pop    %esi
    2f97:	5d                   	pop    %ebp
    2f98:	c3                   	ret    
    2f99:	8d b4 26 00 00 00 00 	lea    0x0(%esi,%eiz,1),%esi
    2fa0:	8b 45 10             	mov    0x10(%ebp),%eax
    2fa3:	8d 75 f4             	lea    -0xc(%ebp),%esi
    2fa6:	89 44 24 08          	mov    %eax,0x8(%esp)
    2faa:	8b 45 f0             	mov    -0x10(%ebp),%eax
    2fad:	89 44 24 04          	mov    %eax,0x4(%esp)
    2fb1:	89 34 24             	mov    %esi,(%esp)
    2fb4:	e8 97 23 00 00       	call   5350 <udf_idx_get>
    2fb9:	85 c0                	test   %eax,%eax
    2fbb:	75 1b                	jne    2fd8 <udf_node_get+0x68>
    2fbd:	8b 45 f4             	mov    -0xc(%ebp),%eax
    2fc0:	85 c0                	test   %eax,%eax
    2fc2:	74 34                	je     2ff8 <udf_node_get+0x88>
    2fc4:	8b 50 04             	mov    0x4(%eax),%edx
    2fc7:	8b 45 08             	mov    0x8(%ebp),%eax
    2fca:	89 10                	mov    %edx,(%eax)
    2fcc:	83 c4 20             	add    $0x20,%esp
    2fcf:	89 d8                	mov    %ebx,%eax
    2fd1:	5b                   	pop    %ebx
    2fd2:	5e                   	pop    %esi
    2fd3:	5d                   	pop    %ebp
    2fd4:	c3                   	ret    
    2fd5:	8d 76 00             	lea    0x0(%esi),%esi
    2fd8:	8b 45 10             	mov    0x10(%ebp),%eax
    2fdb:	89 34 24             	mov    %esi,(%esp)
    2fde:	89 44 24 08          	mov    %eax,0x8(%esp)
    2fe2:	8b 45 f0             	mov    -0x10(%ebp),%eax
    2fe5:	89 44 24 04          	mov    %eax,0x4(%esp)
    2fe9:	e8 d2 23 00 00       	call   53c0 <udf_idx_add>
    2fee:	85 c0                	test   %eax,%eax
    2ff0:	74 0e                	je     3000 <udf_node_get+0x90>
    2ff2:	89 c3                	mov    %eax,%ebx
    2ff4:	eb 9a                	jmp    2f90 <udf_node_get+0x20>
    2ff6:	66 90                	xchg   %ax,%ax
    2ff8:	31 d2                	xor    %edx,%edx
    2ffa:	eb cb                	jmp    2fc7 <udf_node_get+0x57>
    2ffc:	8d 74 26 00          	lea    0x0(%esi,%eiz,1),%esi
    3000:	8b 45 f4             	mov    -0xc(%ebp),%eax
    3003:	89 04 24             	mov    %eax,(%esp)
    3006:	e8 95 1a 00 00       	call   4aa0 <udf_node_get_core>
    300b:	89 c6                	mov    %eax,%esi
    300d:	85 c0                	test   %eax,%eax
    300f:	74 ac                	je     2fbd <udf_node_get+0x4d>
    3011:	8b 45 f4             	mov    -0xc(%ebp),%eax
    3014:	89 f3                	mov    %esi,%ebx
    3016:	89 04 24             	mov    %eax,(%esp)
    3019:	e8 72 24 00 00       	call   5490 <udf_idx_del>
    301e:	e9 6d ff ff ff       	jmp    2f90 <udf_node_get+0x20>
    3023:	8d b6 00 00 00 00    	lea    0x0(%esi),%esi
    3029:	8d bc 27 00 00 00 00 	lea    0x0(%edi,%eiz,1),%edi

00003030 <udf_match>:
    3030:	55                   	push   %ebp
    3031:	89 e5                	mov    %esp,%ebp
    3033:	57                   	push   %edi
    3034:	56                   	push   %esi
    3035:	53                   	push   %ebx
    3036:	83 ec 5c             	sub    $0x5c,%esp
    3039:	8b 5d 0c             	mov    0xc(%ebp),%ebx
    303c:	c7 04 24 01 02 00 00 	movl   $0x201,(%esp)
    3043:	e8 f8 55 01 00       	call   18640 <malloc>
    3048:	89 c7                	mov    %eax,%edi
    304a:	85 c0                	test   %eax,%eax
    304c:	0f 84 d9 01 00 00    	je     322b <udf_match+0x1fb>
    3052:	31 f6                	xor    %esi,%esi
    3054:	c7 45 c8 00 00 00 00 	movl   $0x0,-0x38(%ebp)
    305b:	c7 45 cc 00 00 00 00 	movl   $0x0,-0x34(%ebp)
    3062:	85 db                	test   %ebx,%ebx
    3064:	0f 84 bc 00 00 00    	je     3126 <udf_match+0xf6>
    306a:	8d b6 00 00 00 00    	lea    0x0(%esi),%esi
    3070:	8b 43 10             	mov    0x10(%ebx),%eax
    3073:	89 44 24 08          	mov    %eax,0x8(%esp)
    3077:	8d 55 cc             	lea    -0x34(%ebp),%edx
    307a:	8d 45 c8             	lea    -0x38(%ebp),%eax
    307d:	89 74 24 0c          	mov    %esi,0xc(%esp)
    3081:	c7 44 24 10 00 00 00 	movl   $0x0,0x10(%esp)
    3088:	00 
    3089:	89 44 24 04          	mov    %eax,0x4(%esp)
    308d:	89 14 24             	mov    %edx,(%esp)
    3090:	e8 7b 1e 00 00       	call   4f10 <udf_get_fid>
    3095:	85 c0                	test   %eax,%eax
    3097:	0f 85 a3 00 00 00    	jne    3140 <udf_match+0x110>
    309d:	8b 45 cc             	mov    -0x34(%ebp),%eax
    30a0:	85 db                	test   %ebx,%ebx
    30a2:	8b 50 14             	mov    0x14(%eax),%edx
    30a5:	89 55 d8             	mov    %edx,-0x28(%ebp)
    30a8:	8b 50 18             	mov    0x18(%eax),%edx
    30ab:	89 55 dc             	mov    %edx,-0x24(%ebp)
    30ae:	8b 50 1c             	mov    0x1c(%eax),%edx
    30b1:	89 55 e0             	mov    %edx,-0x20(%ebp)
    30b4:	8b 50 20             	mov    0x20(%eax),%edx
    30b7:	89 55 e4             	mov    %edx,-0x1c(%ebp)
    30ba:	0f 84 78 01 00 00    	je     3238 <udf_match+0x208>
    30c0:	8b 53 10             	mov    0x10(%ebx),%edx
    30c3:	8b 12                	mov    (%edx),%edx
    30c5:	83 c2 08             	add    $0x8,%edx
    30c8:	89 54 24 10          	mov    %edx,0x10(%esp)
    30cc:	31 d2                	xor    %edx,%edx
    30ce:	8a 50 13             	mov    0x13(%eax),%dl
    30d1:	89 54 24 0c          	mov    %edx,0xc(%esp)
    30d5:	66 8b 50 24          	mov    0x24(%eax),%dx
    30d9:	c7 44 24 04 00 02 00 	movl   $0x200,0x4(%esp)
    30e0:	00 
    30e1:	81 e2 ff ff 00 00    	and    $0xffff,%edx
    30e7:	89 3c 24             	mov    %edi,(%esp)
    30ea:	8d 44 10 26          	lea    0x26(%eax,%edx,1),%eax
    30ee:	89 44 24 08          	mov    %eax,0x8(%esp)
    30f2:	e8 d9 10 00 00       	call   41d0 <udf_to_unix_name>
    30f7:	8b 55 10             	mov    0x10(%ebp),%edx
    30fa:	89 54 24 04          	mov    %edx,0x4(%esp)
    30fe:	89 3c 24             	mov    %edi,(%esp)
    3101:	e8 1a af 00 00       	call   e020 <stricmp>
    3106:	85 c0                	test   %eax,%eax
    3108:	74 4e                	je     3158 <udf_match+0x128>
    310a:	8b 45 c8             	mov    -0x38(%ebp),%eax
    310d:	85 c0                	test   %eax,%eax
    310f:	74 0c                	je     311d <udf_match+0xed>
    3111:	89 04 24             	mov    %eax,(%esp)
    3114:	e8 87 2b 00 00       	call   5ca0 <block_put>
    3119:	85 c0                	test   %eax,%eax
    311b:	75 13                	jne    3130 <udf_match+0x100>
    311d:	46                   	inc    %esi
    311e:	85 db                	test   %ebx,%ebx
    3120:	0f 85 4a ff ff ff    	jne    3070 <udf_match+0x40>
    3126:	31 c0                	xor    %eax,%eax
    3128:	e9 46 ff ff ff       	jmp    3073 <udf_match+0x43>
    312d:	8d 76 00             	lea    0x0(%esi),%esi
    3130:	89 c3                	mov    %eax,%ebx
    3132:	83 c4 5c             	add    $0x5c,%esp
    3135:	89 d8                	mov    %ebx,%eax
    3137:	5b                   	pop    %ebx
    3138:	5e                   	pop    %esi
    3139:	5f                   	pop    %edi
    313a:	5d                   	pop    %ebp
    313b:	c3                   	ret    
    313c:	8d 74 26 00          	lea    0x0(%esi,%eiz,1),%esi
    3140:	89 3c 24             	mov    %edi,(%esp)
    3143:	83 cb ff             	or     $0xffffffff,%ebx
    3146:	e8 05 56 01 00       	call   18750 <free>
    314b:	83 c4 5c             	add    $0x5c,%esp
    314e:	89 d8                	mov    %ebx,%eax
    3150:	5b                   	pop    %ebx
    3151:	5e                   	pop    %esi
    3152:	5f                   	pop    %edi
    3153:	5d                   	pop    %ebp
    3154:	c3                   	ret    
    3155:	8d 76 00             	lea    0x0(%esi),%esi
    3158:	8d 45 d8             	lea    -0x28(%ebp),%eax
    315b:	89 44 24 04          	mov    %eax,0x4(%esp)
    315f:	8b 43 10             	mov    0x10(%ebx),%eax
    3162:	8b 00                	mov    (%eax),%eax
    3164:	89 04 24             	mov    %eax,(%esp)
    3167:	e8 e4 e0 ff ff       	call   1250 <udf_long_ad_to_pos>
    316c:	89 c6                	mov    %eax,%esi
    316e:	8b 43 10             	mov    0x10(%ebx),%eax
    3171:	85 c0                	test   %eax,%eax
    3173:	0f 84 2b 01 00 00    	je     32a4 <udf_match+0x274>
    3179:	8b 00                	mov    (%eax),%eax
    317b:	8b 00                	mov    (%eax),%eax
    317d:	8d 55 d0             	lea    -0x30(%ebp),%edx
    3180:	89 04 24             	mov    %eax,(%esp)
    3183:	89 54 24 04          	mov    %edx,0x4(%esp)
    3187:	e8 f4 4f 00 00       	call   8180 <fs_instance_get>
    318c:	89 c3                	mov    %eax,%ebx
    318e:	85 c0                	test   %eax,%eax
    3190:	74 26                	je     31b8 <udf_match+0x188>
    3192:	8b 45 c8             	mov    -0x38(%ebp),%eax
    3195:	85 c0                	test   %eax,%eax
    3197:	74 08                	je     31a1 <udf_match+0x171>
    3199:	89 04 24             	mov    %eax,(%esp)
    319c:	e8 ff 2a 00 00       	call   5ca0 <block_put>
    31a1:	89 3c 24             	mov    %edi,(%esp)
    31a4:	e8 a7 55 01 00       	call   18750 <free>
    31a9:	83 c4 5c             	add    $0x5c,%esp
    31ac:	89 d8                	mov    %ebx,%eax
    31ae:	5b                   	pop    %ebx
    31af:	5e                   	pop    %esi
    31b0:	5f                   	pop    %edi
    31b1:	5d                   	pop    %ebp
    31b2:	c3                   	ret    
    31b3:	90                   	nop
    31b4:	8d 74 26 00          	lea    0x0(%esi,%eiz,1),%esi
    31b8:	8d 55 d4             	lea    -0x2c(%ebp),%edx
    31bb:	8b 45 d0             	mov    -0x30(%ebp),%eax
    31be:	89 14 24             	mov    %edx,(%esp)
    31c1:	89 74 24 08          	mov    %esi,0x8(%esp)
    31c5:	89 44 24 04          	mov    %eax,0x4(%esp)
    31c9:	89 55 c4             	mov    %edx,-0x3c(%ebp)
    31cc:	e8 7f 21 00 00       	call   5350 <udf_idx_get>
    31d1:	8b 55 c4             	mov    -0x3c(%ebp),%edx
    31d4:	85 c0                	test   %eax,%eax
    31d6:	75 11                	jne    31e9 <udf_match+0x1b9>
    31d8:	8b 45 d4             	mov    -0x2c(%ebp),%eax
    31db:	85 c0                	test   %eax,%eax
    31dd:	74 25                	je     3204 <udf_match+0x1d4>
    31df:	8b 50 04             	mov    0x4(%eax),%edx
    31e2:	8b 45 08             	mov    0x8(%ebp),%eax
    31e5:	89 10                	mov    %edx,(%eax)
    31e7:	eb a9                	jmp    3192 <udf_match+0x162>
    31e9:	8b 45 d0             	mov    -0x30(%ebp),%eax
    31ec:	89 74 24 08          	mov    %esi,0x8(%esp)
    31f0:	89 44 24 04          	mov    %eax,0x4(%esp)
    31f4:	89 14 24             	mov    %edx,(%esp)
    31f7:	e8 c4 21 00 00       	call   53c0 <udf_idx_add>
    31fc:	85 c0                	test   %eax,%eax
    31fe:	74 08                	je     3208 <udf_match+0x1d8>
    3200:	89 c3                	mov    %eax,%ebx
    3202:	eb 8e                	jmp    3192 <udf_match+0x162>
    3204:	31 d2                	xor    %edx,%edx
    3206:	eb da                	jmp    31e2 <udf_match+0x1b2>
    3208:	8b 45 d4             	mov    -0x2c(%ebp),%eax
    320b:	89 04 24             	mov    %eax,(%esp)
    320e:	e8 8d 18 00 00       	call   4aa0 <udf_node_get_core>
    3213:	89 c6                	mov    %eax,%esi
    3215:	85 c0                	test   %eax,%eax
    3217:	74 bf                	je     31d8 <udf_match+0x1a8>
    3219:	8b 45 d4             	mov    -0x2c(%ebp),%eax
    321c:	89 f3                	mov    %esi,%ebx
    321e:	89 04 24             	mov    %eax,(%esp)
    3221:	e8 6a 22 00 00       	call   5490 <udf_idx_del>
    3226:	e9 67 ff ff ff       	jmp    3192 <udf_match+0x162>
    322b:	bb fe ff ff ff       	mov    $0xfffffffe,%ebx
    3230:	e9 fd fe ff ff       	jmp    3132 <udf_match+0x102>
    3235:	8d 76 00             	lea    0x0(%esi),%esi
    3238:	8b 15 00 00 00 00    	mov    0x0,%edx
    323e:	83 c2 08             	add    $0x8,%edx
    3241:	89 54 24 10          	mov    %edx,0x10(%esp)
    3245:	31 d2                	xor    %edx,%edx
    3247:	8a 50 13             	mov    0x13(%eax),%dl
    324a:	89 54 24 0c          	mov    %edx,0xc(%esp)
    324e:	66 8b 50 24          	mov    0x24(%eax),%dx
    3252:	c7 44 24 04 00 02 00 	movl   $0x200,0x4(%esp)
    3259:	00 
    325a:	81 e2 ff ff 00 00    	and    $0xffff,%edx
    3260:	89 3c 24             	mov    %edi,(%esp)
    3263:	8d 44 10 26          	lea    0x26(%eax,%edx,1),%eax
    3267:	89 44 24 08          	mov    %eax,0x8(%esp)
    326b:	e8 60 0f 00 00       	call   41d0 <udf_to_unix_name>
    3270:	8b 55 10             	mov    0x10(%ebp),%edx
    3273:	89 54 24 04          	mov    %edx,0x4(%esp)
    3277:	89 3c 24             	mov    %edi,(%esp)
    327a:	e8 a1 ad 00 00       	call   e020 <stricmp>
    327f:	85 c0                	test   %eax,%eax
    3281:	0f 85 83 fe ff ff    	jne    310a <udf_match+0xda>
    3287:	8d 45 d8             	lea    -0x28(%ebp),%eax
    328a:	89 44 24 04          	mov    %eax,0x4(%esp)
    328e:	a1 00 00 00 00       	mov    0x0,%eax
    3293:	89 04 24             	mov    %eax,(%esp)
    3296:	e8 b5 df ff ff       	call   1250 <udf_long_ad_to_pos>
    329b:	89 c6                	mov    %eax,%esi
    329d:	31 c0                	xor    %eax,%eax
    329f:	e9 d9 fe ff ff       	jmp    317d <udf_match+0x14d>
    32a4:	31 c0                	xor    %eax,%eax
    32a6:	e9 d2 fe ff ff       	jmp    317d <udf_match+0x14d>
    32ab:	90                   	nop
    32ac:	8d 74 26 00          	lea    0x0(%esi,%eiz,1),%esi

000032b0 <udf_root_get>:
    32b0:	55                   	push   %ebp
    32b1:	89 e5                	mov    %esp,%ebp
    32b3:	57                   	push   %edi
    32b4:	56                   	push   %esi
    32b5:	53                   	push   %ebx
    32b6:	83 ec 2c             	sub    $0x2c,%esp
    32b9:	8d 45 dc             	lea    -0x24(%ebp),%eax
    32bc:	8b 75 0c             	mov    0xc(%ebp),%esi
    32bf:	89 44 24 04          	mov    %eax,0x4(%esp)
    32c3:	89 34 24             	mov    %esi,(%esp)
    32c6:	e8 b5 4e 00 00       	call   8180 <fs_instance_get>
    32cb:	89 c3                	mov    %eax,%ebx
    32cd:	85 c0                	test   %eax,%eax
    32cf:	74 0f                	je     32e0 <udf_root_get+0x30>
    32d1:	83 c4 2c             	add    $0x2c,%esp
    32d4:	89 d8                	mov    %ebx,%eax
    32d6:	5b                   	pop    %ebx
    32d7:	5e                   	pop    %esi
    32d8:	5f                   	pop    %edi
    32d9:	5d                   	pop    %ebp
    32da:	c3                   	ret    
    32db:	90                   	nop
    32dc:	8d 74 26 00          	lea    0x0(%esi,%eiz,1),%esi
    32e0:	8b 45 dc             	mov    -0x24(%ebp),%eax
    32e3:	8b 40 4c             	mov    0x4c(%eax),%eax
    32e6:	8b 78 0c             	mov    0xc(%eax),%edi
    32e9:	8d 45 e0             	lea    -0x20(%ebp),%eax
    32ec:	89 44 24 04          	mov    %eax,0x4(%esp)
    32f0:	89 34 24             	mov    %esi,(%esp)
    32f3:	e8 88 4e 00 00       	call   8180 <fs_instance_get>
    32f8:	89 c3                	mov    %eax,%ebx
    32fa:	85 c0                	test   %eax,%eax
    32fc:	75 d3                	jne    32d1 <udf_root_get+0x21>
    32fe:	8b 45 e0             	mov    -0x20(%ebp),%eax
    3301:	8d 75 e4             	lea    -0x1c(%ebp),%esi
    3304:	89 7c 24 08          	mov    %edi,0x8(%esp)
    3308:	89 44 24 04          	mov    %eax,0x4(%esp)
    330c:	89 34 24             	mov    %esi,(%esp)
    330f:	e8 3c 20 00 00       	call   5350 <udf_idx_get>
    3314:	85 c0                	test   %eax,%eax
    3316:	75 20                	jne    3338 <udf_root_get+0x88>
    3318:	8b 45 e4             	mov    -0x1c(%ebp),%eax
    331b:	85 c0                	test   %eax,%eax
    331d:	74 39                	je     3358 <udf_root_get+0xa8>
    331f:	8b 50 04             	mov    0x4(%eax),%edx
    3322:	8b 45 08             	mov    0x8(%ebp),%eax
    3325:	89 10                	mov    %edx,(%eax)
    3327:	83 c4 2c             	add    $0x2c,%esp
    332a:	89 d8                	mov    %ebx,%eax
    332c:	5b                   	pop    %ebx
    332d:	5e                   	pop    %esi
    332e:	5f                   	pop    %edi
    332f:	5d                   	pop    %ebp
    3330:	c3                   	ret    
    3331:	8d b4 26 00 00 00 00 	lea    0x0(%esi,%eiz,1),%esi
    3338:	8b 45 e0             	mov    -0x20(%ebp),%eax
    333b:	89 7c 24 08          	mov    %edi,0x8(%esp)
    333f:	89 44 24 04          	mov    %eax,0x4(%esp)
    3343:	89 34 24             	mov    %esi,(%esp)
    3346:	e8 75 20 00 00       	call   53c0 <udf_idx_add>
    334b:	85 c0                	test   %eax,%eax
    334d:	74 11                	je     3360 <udf_root_get+0xb0>
    334f:	89 c3                	mov    %eax,%ebx
    3351:	e9 7b ff ff ff       	jmp    32d1 <udf_root_get+0x21>
    3356:	66 90                	xchg   %ax,%ax
    3358:	31 d2                	xor    %edx,%edx
    335a:	eb c6                	jmp    3322 <udf_root_get+0x72>
    335c:	8d 74 26 00          	lea    0x0(%esi,%eiz,1),%esi
    3360:	8b 45 e4             	mov    -0x1c(%ebp),%eax
    3363:	89 04 24             	mov    %eax,(%esp)
    3366:	e8 35 17 00 00       	call   4aa0 <udf_node_get_core>
    336b:	89 c6                	mov    %eax,%esi
    336d:	85 c0                	test   %eax,%eax
    336f:	74 a7                	je     3318 <udf_root_get+0x68>
    3371:	8b 45 e4             	mov    -0x1c(%ebp),%eax
    3374:	89 f3                	mov    %esi,%ebx
    3376:	89 04 24             	mov    %eax,(%esp)
    3379:	e8 12 21 00 00       	call   5490 <udf_idx_del>
    337e:	e9 4e ff ff ff       	jmp    32d1 <udf_root_get+0x21>
    3383:	8d b6 00 00 00 00    	lea    0x0(%esi),%esi
    3389:	8d bc 27 00 00 00 00 	lea    0x0(%edi,%eiz,1),%edi

00003390 <udf_mounted>:
    3390:	55                   	push   %ebp
    3391:	89 e5                	mov    %esp,%ebp
    3393:	57                   	push   %edi
    3394:	56                   	push   %esi
    3395:	53                   	push   %ebx
    3396:	81 ec 4c 02 00 00    	sub    $0x24c,%esp
    339c:	8b 7d 0c             	mov    0xc(%ebp),%edi
    339f:	8b 75 08             	mov    0x8(%ebp),%esi
    33a2:	c7 44 24 04 c8 56 02 	movl   $0x256c8,0x4(%esp)
    33a9:	00 
    33aa:	89 3c 24             	mov    %edi,(%esp)
    33ad:	e8 ee 92 00 00       	call   c6a0 <str_cmp>
    33b2:	c7 04 24 70 00 00 00 	movl   $0x70,(%esp)
    33b9:	89 85 d4 fd ff ff    	mov    %eax,-0x22c(%ebp)
    33bf:	e8 7c 52 01 00       	call   18640 <malloc>
    33c4:	89 c3                	mov    %eax,%ebx
    33c6:	85 c0                	test   %eax,%eax
    33c8:	0f 84 9a 02 00 00    	je     3668 <udf_mounted+0x2d8>
    33ce:	c7 40 48 00 00 00 00 	movl   $0x0,0x48(%eax)
    33d5:	c7 44 24 04 d0 56 02 	movl   $0x256d0,0x4(%esp)
    33dc:	00 
    33dd:	89 3c 24             	mov    %edi,(%esp)
    33e0:	e8 bb 92 00 00       	call   c6a0 <str_cmp>
    33e5:	85 c0                	test   %eax,%eax
    33e7:	0f 85 13 02 00 00    	jne    3600 <udf_mounted+0x270>
    33ed:	c7 43 48 00 02 00 00 	movl   $0x200,0x48(%ebx)
    33f4:	c7 44 24 08 00 20 00 	movl   $0x2000,0x8(%esp)
    33fb:	00 
    33fc:	89 74 24 04          	mov    %esi,0x4(%esp)
    3400:	c7 04 24 02 00 00 00 	movl   $0x2,(%esp)
    3407:	e8 64 21 00 00       	call   5570 <block_init>
    340c:	89 c7                	mov    %eax,%edi
    340e:	85 c0                	test   %eax,%eax
    3410:	74 0e                	je     3420 <udf_mounted+0x90>
    3412:	81 c4 4c 02 00 00    	add    $0x24c,%esp
    3418:	89 f8                	mov    %edi,%eax
    341a:	5b                   	pop    %ebx
    341b:	5e                   	pop    %esi
    341c:	5f                   	pop    %edi
    341d:	5d                   	pop    %ebp
    341e:	c3                   	ret    
    341f:	90                   	nop
    3420:	89 5c 24 04          	mov    %ebx,0x4(%esp)
    3424:	89 34 24             	mov    %esi,(%esp)
    3427:	e8 34 4c 00 00       	call   8060 <fs_instance_create>
    342c:	89 c7                	mov    %eax,%edi
    342e:	85 c0                	test   %eax,%eax
    3430:	0f 85 a6 01 00 00    	jne    35dc <udf_mounted+0x24c>
    3436:	89 33                	mov    %esi,(%ebx)
    3438:	c7 43 04 00 00 00 00 	movl   $0x0,0x4(%ebx)
    343f:	89 34 24             	mov    %esi,(%esp)
    3442:	e8 69 de ff ff       	call   12b0 <udf_volume_recongnition>
    3447:	89 c7                	mov    %eax,%edi
    3449:	85 c0                	test   %eax,%eax
    344b:	0f 85 67 01 00 00    	jne    35b8 <udf_mounted+0x228>
    3451:	8d 85 e8 fd ff ff    	lea    -0x218(%ebp),%eax
    3457:	89 34 24             	mov    %esi,(%esp)
    345a:	89 44 24 04          	mov    %eax,0x4(%esp)
    345e:	e8 2d e6 ff ff       	call   1a90 <udf_get_anchor_volume_descriptor>
    3463:	89 c7                	mov    %eax,%edi
    3465:	85 c0                	test   %eax,%eax
    3467:	0f 85 db 01 00 00    	jne    3648 <udf_mounted+0x2b8>
    346d:	8b 43 48             	mov    0x48(%ebx),%eax
    3470:	c7 44 24 08 1c 57 02 	movl   $0x2571c,0x8(%esp)
    3477:	00 
    3478:	89 44 24 0c          	mov    %eax,0xc(%esp)
    347c:	c7 44 24 04 04 00 00 	movl   $0x4,0x4(%esp)
    3483:	00 
    3484:	c7 04 24 ff ff ff ff 	movl   $0xffffffff,(%esp)
    348b:	e8 40 01 01 00       	call   135d0 <log_msg>
    3490:	8b 85 fc fd ff ff    	mov    -0x204(%ebp),%eax
    3496:	89 44 24 10          	mov    %eax,0x10(%esp)
    349a:	8b 85 f8 fd ff ff    	mov    -0x208(%ebp),%eax
    34a0:	89 44 24 0c          	mov    %eax,0xc(%esp)
    34a4:	c7 44 24 08 54 57 02 	movl   $0x25754,0x8(%esp)
    34ab:	00 
    34ac:	c7 44 24 04 04 00 00 	movl   $0x4,0x4(%esp)
    34b3:	00 
    34b4:	c7 04 24 ff ff ff ff 	movl   $0xffffffff,(%esp)
    34bb:	e8 10 01 01 00       	call   135d0 <log_msg>
    34c0:	8b 85 04 fe ff ff    	mov    -0x1fc(%ebp),%eax
    34c6:	89 44 24 10          	mov    %eax,0x10(%esp)
    34ca:	8b 85 00 fe ff ff    	mov    -0x200(%ebp),%eax
    34d0:	89 44 24 0c          	mov    %eax,0xc(%esp)
    34d4:	c7 44 24 08 94 57 02 	movl   $0x25794,0x8(%esp)
    34db:	00 
    34dc:	c7 44 24 04 04 00 00 	movl   $0x4,0x4(%esp)
    34e3:	00 
    34e4:	c7 04 24 ff ff ff ff 	movl   $0xffffffff,(%esp)
    34eb:	e8 e0 00 01 00       	call   135d0 <log_msg>
    34f0:	8b 8d d4 fd ff ff    	mov    -0x22c(%ebp),%ecx
    34f6:	85 c9                	test   %ecx,%ecx
    34f8:	c7 44 24 08 00 00 00 	movl   $0x0,0x8(%esp)
    34ff:	00 
    3500:	0f 95 c0             	setne  %al
    3503:	25 ff 00 00 00       	and    $0xff,%eax
    3508:	89 44 24 0c          	mov    %eax,0xc(%esp)
    350c:	8b 43 48             	mov    0x48(%ebx),%eax
    350f:	89 34 24             	mov    %esi,(%esp)
    3512:	89 44 24 04          	mov    %eax,0x4(%esp)
    3516:	e8 95 23 00 00       	call   58b0 <block_cache_init>
    351b:	89 c7                	mov    %eax,%edi
    351d:	85 c0                	test   %eax,%eax
    351f:	0f 85 af 00 00 00    	jne    35d4 <udf_mounted+0x244>
    3525:	8b 85 f8 fd ff ff    	mov    -0x208(%ebp),%eax
    352b:	8b 95 fc fd ff ff    	mov    -0x204(%ebp),%edx
    3531:	89 44 24 04          	mov    %eax,0x4(%esp)
    3535:	89 54 24 08          	mov    %edx,0x8(%esp)
    3539:	89 34 24             	mov    %esi,(%esp)
    353c:	e8 7f e6 ff ff       	call   1bc0 <udf_read_volume_descriptor_sequence>
    3541:	89 c7                	mov    %eax,%edi
    3543:	85 c0                	test   %eax,%eax
    3545:	0f 85 0d 01 00 00    	jne    3658 <udf_mounted+0x2c8>
    354b:	8b 43 4c             	mov    0x4c(%ebx),%eax
    354e:	8b 40 0c             	mov    0xc(%eax),%eax
    3551:	89 34 24             	mov    %esi,(%esp)
    3554:	89 85 d4 fd ff ff    	mov    %eax,-0x22c(%ebp)
    355a:	8d 85 e0 fd ff ff    	lea    -0x220(%ebp),%eax
    3560:	89 44 24 04          	mov    %eax,0x4(%esp)
    3564:	e8 17 4c 00 00       	call   8180 <fs_instance_get>
    3569:	89 c7                	mov    %eax,%edi
    356b:	85 c0                	test   %eax,%eax
    356d:	0f 84 ff 00 00 00    	je     3672 <udf_mounted+0x2e2>
    3573:	c7 44 24 08 05 57 02 	movl   $0x25705,0x8(%esp)
    357a:	00 
    357b:	c7 44 24 04 03 00 00 	movl   $0x3,0x4(%esp)
    3582:	00 
    3583:	c7 04 24 ff ff ff ff 	movl   $0xffffffff,(%esp)
    358a:	e8 41 00 01 00       	call   135d0 <log_msg>
    358f:	89 34 24             	mov    %esi,(%esp)
    3592:	e8 59 4c 00 00       	call   81f0 <fs_instance_destroy>
    3597:	89 1c 24             	mov    %ebx,(%esp)
    359a:	e8 b1 51 01 00       	call   18750 <free>
    359f:	89 34 24             	mov    %esi,(%esp)
    35a2:	e8 39 24 00 00       	call   59e0 <block_cache_fini>
    35a7:	89 34 24             	mov    %esi,(%esp)
    35aa:	e8 f1 25 00 00       	call   5ba0 <block_fini>
    35af:	e9 5e fe ff ff       	jmp    3412 <udf_mounted+0x82>
    35b4:	8d 74 26 00          	lea    0x0(%esi,%eiz,1),%esi
    35b8:	c7 44 24 08 e7 56 02 	movl   $0x256e7,0x8(%esp)
    35bf:	00 
    35c0:	c7 44 24 04 03 00 00 	movl   $0x3,0x4(%esp)
    35c7:	00 
    35c8:	c7 04 24 ff ff ff ff 	movl   $0xffffffff,(%esp)
    35cf:	e8 fc ff 00 00       	call   135d0 <log_msg>
    35d4:	89 34 24             	mov    %esi,(%esp)
    35d7:	e8 14 4c 00 00       	call   81f0 <fs_instance_destroy>
    35dc:	89 1c 24             	mov    %ebx,(%esp)
    35df:	e8 6c 51 01 00       	call   18750 <free>
    35e4:	89 34 24             	mov    %esi,(%esp)
    35e7:	e8 b4 25 00 00       	call   5ba0 <block_fini>
    35ec:	81 c4 4c 02 00 00    	add    $0x24c,%esp
    35f2:	89 f8                	mov    %edi,%eax
    35f4:	5b                   	pop    %ebx
    35f5:	5e                   	pop    %esi
    35f6:	5f                   	pop    %edi
    35f7:	5d                   	pop    %ebp
    35f8:	c3                   	ret    
    35f9:	8d b4 26 00 00 00 00 	lea    0x0(%esi,%eiz,1),%esi
    3600:	c7 44 24 04 d7 56 02 	movl   $0x256d7,0x4(%esp)
    3607:	00 
    3608:	89 3c 24             	mov    %edi,(%esp)
    360b:	e8 90 90 00 00       	call   c6a0 <str_cmp>
    3610:	85 c0                	test   %eax,%eax
    3612:	75 0c                	jne    3620 <udf_mounted+0x290>
    3614:	c7 43 48 00 04 00 00 	movl   $0x400,0x48(%ebx)
    361b:	e9 d4 fd ff ff       	jmp    33f4 <udf_mounted+0x64>
    3620:	c7 44 24 04 df 56 02 	movl   $0x256df,0x4(%esp)
    3627:	00 
    3628:	89 3c 24             	mov    %edi,(%esp)
    362b:	e8 70 90 00 00       	call   c6a0 <str_cmp>
    3630:	85 c0                	test   %eax,%eax
    3632:	0f 85 bc fd ff ff    	jne    33f4 <udf_mounted+0x64>
    3638:	c7 43 48 00 08 00 00 	movl   $0x800,0x48(%ebx)
    363f:	e9 b0 fd ff ff       	jmp    33f4 <udf_mounted+0x64>
    3644:	8d 74 26 00          	lea    0x0(%esi,%eiz,1),%esi
    3648:	c7 44 24 08 f2 56 02 	movl   $0x256f2,0x8(%esp)
    364f:	00 
    3650:	e9 6b ff ff ff       	jmp    35c0 <udf_mounted+0x230>
    3655:	8d 76 00             	lea    0x0(%esi),%esi
    3658:	c7 44 24 08 d4 57 02 	movl   $0x257d4,0x8(%esp)
    365f:	00 
    3660:	e9 16 ff ff ff       	jmp    357b <udf_mounted+0x1eb>
    3665:	8d 76 00             	lea    0x0(%esi),%esi
    3668:	bf fe ff ff ff       	mov    $0xfffffffe,%edi
    366d:	e9 a0 fd ff ff       	jmp    3412 <udf_mounted+0x82>
    3672:	8b 85 d4 fd ff ff    	mov    -0x22c(%ebp),%eax
    3678:	8d 8d e4 fd ff ff    	lea    -0x21c(%ebp),%ecx
    367e:	89 44 24 08          	mov    %eax,0x8(%esp)
    3682:	8b 85 e0 fd ff ff    	mov    -0x220(%ebp),%eax
    3688:	89 0c 24             	mov    %ecx,(%esp)
    368b:	89 44 24 04          	mov    %eax,0x4(%esp)
    368f:	89 8d d0 fd ff ff    	mov    %ecx,-0x230(%ebp)
    3695:	e8 b6 1c 00 00       	call   5350 <udf_idx_get>
    369a:	8b 8d d0 fd ff ff    	mov    -0x230(%ebp),%ecx
    36a0:	85 c0                	test   %eax,%eax
    36a2:	75 3a                	jne    36de <udf_mounted+0x34e>
    36a4:	8b 85 e4 fd ff ff    	mov    -0x21c(%ebp),%eax
    36aa:	85 c0                	test   %eax,%eax
    36ac:	74 57                	je     3705 <udf_mounted+0x375>
    36ae:	8b 40 04             	mov    0x4(%eax),%eax
    36b1:	85 c0                	test   %eax,%eax
    36b3:	74 50                	je     3705 <udf_mounted+0x375>
    36b5:	8b 40 10             	mov    0x10(%eax),%eax
    36b8:	8b 4b 4c             	mov    0x4c(%ebx),%ecx
    36bb:	8b 75 14             	mov    0x14(%ebp),%esi
    36be:	8b 59 0c             	mov    0xc(%ecx),%ebx
    36c1:	8b 4d 10             	mov    0x10(%ebp),%ecx
    36c4:	89 19                	mov    %ebx,(%ecx)
    36c6:	8b 48 30             	mov    0x30(%eax),%ecx
    36c9:	8b 58 34             	mov    0x34(%eax),%ebx
    36cc:	89 0e                	mov    %ecx,(%esi)
    36ce:	8b 48 28             	mov    0x28(%eax),%ecx
    36d1:	8b 45 18             	mov    0x18(%ebp),%eax
    36d4:	89 5e 04             	mov    %ebx,0x4(%esi)
    36d7:	89 08                	mov    %ecx,(%eax)
    36d9:	e9 34 fd ff ff       	jmp    3412 <udf_mounted+0x82>
    36de:	8b 85 d4 fd ff ff    	mov    -0x22c(%ebp),%eax
    36e4:	89 0c 24             	mov    %ecx,(%esp)
    36e7:	89 44 24 08          	mov    %eax,0x8(%esp)
    36eb:	8b 85 e0 fd ff ff    	mov    -0x220(%ebp),%eax
    36f1:	89 44 24 04          	mov    %eax,0x4(%esp)
    36f5:	e8 c6 1c 00 00       	call   53c0 <udf_idx_add>
    36fa:	85 c0                	test   %eax,%eax
    36fc:	74 0b                	je     3709 <udf_mounted+0x379>
    36fe:	89 c7                	mov    %eax,%edi
    3700:	e9 6e fe ff ff       	jmp    3573 <udf_mounted+0x1e3>
    3705:	31 c0                	xor    %eax,%eax
    3707:	eb af                	jmp    36b8 <udf_mounted+0x328>
    3709:	8b 85 e4 fd ff ff    	mov    -0x21c(%ebp),%eax
    370f:	89 04 24             	mov    %eax,(%esp)
    3712:	e8 89 13 00 00       	call   4aa0 <udf_node_get_core>
    3717:	89 c2                	mov    %eax,%edx
    3719:	85 c0                	test   %eax,%eax
    371b:	74 87                	je     36a4 <udf_mounted+0x314>
    371d:	8b 85 e4 fd ff ff    	mov    -0x21c(%ebp),%eax
    3723:	89 95 d0 fd ff ff    	mov    %edx,-0x230(%ebp)
    3729:	89 04 24             	mov    %eax,(%esp)
    372c:	e8 5f 1d 00 00       	call   5490 <udf_idx_del>
    3731:	8b 95 d0 fd ff ff    	mov    -0x230(%ebp),%edx
    3737:	89 d7                	mov    %edx,%edi
    3739:	e9 35 fe ff ff       	jmp    3573 <udf_mounted+0x1e3>
    373e:	66 90                	xchg   %ax,%ax

00003740 <udf_read>:
    3740:	55                   	push   %ebp
    3741:	89 e5                	mov    %esp,%ebp
    3743:	57                   	push   %edi
    3744:	56                   	push   %esi
    3745:	53                   	push   %ebx
    3746:	83 ec 5c             	sub    $0x5c,%esp
    3749:	8d 45 d0             	lea    -0x30(%ebp),%eax
    374c:	8b 5d 08             	mov    0x8(%ebp),%ebx
    374f:	8b 55 10             	mov    0x10(%ebp),%edx
    3752:	89 44 24 04          	mov    %eax,0x4(%esp)
    3756:	89 1c 24             	mov    %ebx,(%esp)
    3759:	89 55 c0             	mov    %edx,-0x40(%ebp)
    375c:	8b 75 14             	mov    0x14(%ebp),%esi
    375f:	e8 1c 4a 00 00       	call   8180 <fs_instance_get>
    3764:	89 c7                	mov    %eax,%edi
    3766:	85 c0                	test   %eax,%eax
    3768:	74 0e                	je     3778 <udf_read+0x38>
    376a:	83 c4 5c             	add    $0x5c,%esp
    376d:	89 f8                	mov    %edi,%eax
    376f:	5b                   	pop    %ebx
    3770:	5e                   	pop    %esi
    3771:	5f                   	pop    %edi
    3772:	5d                   	pop    %ebp
    3773:	c3                   	ret    
    3774:	8d 74 26 00          	lea    0x0(%esi,%eiz,1),%esi
    3778:	8d 45 e0             	lea    -0x20(%ebp),%eax
    377b:	89 1c 24             	mov    %ebx,(%esp)
    377e:	89 44 24 04          	mov    %eax,0x4(%esp)
    3782:	e8 f9 49 00 00       	call   8180 <fs_instance_get>
    3787:	89 c7                	mov    %eax,%edi
    3789:	85 c0                	test   %eax,%eax
    378b:	75 dd                	jne    376a <udf_read+0x2a>
    378d:	8b 45 e0             	mov    -0x20(%ebp),%eax
    3790:	8b 55 0c             	mov    0xc(%ebp),%edx
    3793:	89 44 24 04          	mov    %eax,0x4(%esp)
    3797:	8d 45 e4             	lea    -0x1c(%ebp),%eax
    379a:	89 54 24 08          	mov    %edx,0x8(%esp)
    379e:	89 04 24             	mov    %eax,(%esp)
    37a1:	e8 aa 1b 00 00       	call   5350 <udf_idx_get>
    37a6:	85 c0                	test   %eax,%eax
    37a8:	0f 85 b2 02 00 00    	jne    3a60 <udf_read+0x320>
    37ae:	8b 45 e4             	mov    -0x1c(%ebp),%eax
    37b1:	85 c0                	test   %eax,%eax
    37b3:	0f 84 cb 02 00 00    	je     3a84 <udf_read+0x344>
    37b9:	8b 58 04             	mov    0x4(%eax),%ebx
    37bc:	85 db                	test   %ebx,%ebx
    37be:	0f 84 70 03 00 00    	je     3b34 <udf_read+0x3f4>
    37c4:	8b 4b 10             	mov    0x10(%ebx),%ecx
    37c7:	8d 45 d8             	lea    -0x28(%ebp),%eax
    37ca:	89 4d bc             	mov    %ecx,-0x44(%ebp)
    37cd:	89 44 24 04          	mov    %eax,0x4(%esp)
    37d1:	8d 45 d4             	lea    -0x2c(%ebp),%eax
    37d4:	89 04 24             	mov    %eax,(%esp)
    37d7:	c7 45 d8 00 00 00 00 	movl   $0x0,-0x28(%ebp)
    37de:	e8 0d 8f 01 00       	call   1c6f0 <async_data_read_receive>
    37e3:	8b 4d bc             	mov    -0x44(%ebp),%ecx
    37e6:	84 c0                	test   %al,%al
    37e8:	0f 84 f5 02 00 00    	je     3ae3 <udf_read+0x3a3>
    37ee:	80 79 2c 01          	cmpb   $0x1,0x2c(%ecx)
    37f2:	75 4c                	jne    3840 <udf_read+0x100>
    37f4:	8b 51 30             	mov    0x30(%ecx),%edx
    37f7:	89 55 c4             	mov    %edx,-0x3c(%ebp)
    37fa:	8b 51 34             	mov    0x34(%ecx),%edx
    37fd:	39 d6                	cmp    %edx,%esi
    37ff:	0f 82 47 01 00 00    	jb     394c <udf_read+0x20c>
    3805:	0f 86 35 01 00 00    	jbe    3940 <udf_read+0x200>
    380b:	8b 55 18             	mov    0x18(%ebp),%edx
    380e:	8b 45 d4             	mov    -0x2c(%ebp),%eax
    3811:	c7 02 00 00 00 00    	movl   $0x0,(%edx)
    3817:	c7 44 24 08 00 00 00 	movl   $0x0,0x8(%esp)
    381e:	00 
    381f:	c7 44 24 04 00 00 00 	movl   $0x0,0x4(%esp)
    3826:	00 
    3827:	89 04 24             	mov    %eax,(%esp)
    382a:	e8 21 8f 01 00       	call   1c750 <async_data_read_finalize>
    382f:	85 db                	test   %ebx,%ebx
    3831:	0f 85 5d 01 00 00    	jne    3994 <udf_read+0x254>
    3837:	e9 2e ff ff ff       	jmp    376a <udf_read+0x2a>
    383c:	8d 74 26 00          	lea    0x0(%esi,%eiz,1),%esi
    3840:	8b 55 c0             	mov    -0x40(%ebp),%edx
    3843:	8d 45 e0             	lea    -0x20(%ebp),%eax
    3846:	89 54 24 0c          	mov    %edx,0xc(%esp)
    384a:	8d 55 e4             	lea    -0x1c(%ebp),%edx
    384d:	89 74 24 10          	mov    %esi,0x10(%esp)
    3851:	89 4c 24 08          	mov    %ecx,0x8(%esp)
    3855:	89 44 24 04          	mov    %eax,0x4(%esp)
    3859:	89 14 24             	mov    %edx,(%esp)
    385c:	c7 45 e0 00 00 00 00 	movl   $0x0,-0x20(%ebp)
    3863:	c7 45 e4 00 00 00 00 	movl   $0x0,-0x1c(%ebp)
    386a:	89 4d bc             	mov    %ecx,-0x44(%ebp)
    386d:	e8 9e 16 00 00       	call   4f10 <udf_get_fid>
    3872:	85 c0                	test   %eax,%eax
    3874:	0f 85 5e 01 00 00    	jne    39d8 <udf_read+0x298>
    387a:	c7 04 24 01 02 00 00 	movl   $0x201,(%esp)
    3881:	e8 ba 4d 01 00       	call   18640 <malloc>
    3886:	8b 4d bc             	mov    -0x44(%ebp),%ecx
    3889:	8b 09                	mov    (%ecx),%ecx
    388b:	89 c6                	mov    %eax,%esi
    388d:	83 c1 08             	add    $0x8,%ecx
    3890:	8b 45 e4             	mov    -0x1c(%ebp),%eax
    3893:	89 4c 24 10          	mov    %ecx,0x10(%esp)
    3897:	31 c9                	xor    %ecx,%ecx
    3899:	8a 48 13             	mov    0x13(%eax),%cl
    389c:	89 4c 24 0c          	mov    %ecx,0xc(%esp)
    38a0:	66 8b 48 24          	mov    0x24(%eax),%cx
    38a4:	c7 44 24 04 00 02 00 	movl   $0x200,0x4(%esp)
    38ab:	00 
    38ac:	81 e1 ff ff 00 00    	and    $0xffff,%ecx
    38b2:	89 34 24             	mov    %esi,(%esp)
    38b5:	8d 44 08 26          	lea    0x26(%eax,%ecx,1),%eax
    38b9:	89 44 24 08          	mov    %eax,0x8(%esp)
    38bd:	e8 0e 09 00 00       	call   41d0 <udf_to_unix_name>
    38c2:	89 34 24             	mov    %esi,(%esp)
    38c5:	e8 a6 88 00 00       	call   c170 <str_size>
    38ca:	89 74 24 04          	mov    %esi,0x4(%esp)
    38ce:	40                   	inc    %eax
    38cf:	89 44 24 08          	mov    %eax,0x8(%esp)
    38d3:	8b 45 d4             	mov    -0x2c(%ebp),%eax
    38d6:	89 04 24             	mov    %eax,(%esp)
    38d9:	e8 72 8e 01 00       	call   1c750 <async_data_read_finalize>
    38de:	8b 45 18             	mov    0x18(%ebp),%eax
    38e1:	c7 00 01 00 00 00    	movl   $0x1,(%eax)
    38e7:	89 34 24             	mov    %esi,(%esp)
    38ea:	e8 61 4e 01 00       	call   18750 <free>
    38ef:	85 db                	test   %ebx,%ebx
    38f1:	74 2c                	je     391f <udf_read+0x1df>
    38f3:	8b 5b 10             	mov    0x10(%ebx),%ebx
    38f6:	85 db                	test   %ebx,%ebx
    38f8:	74 25                	je     391f <udf_read+0x1df>
    38fa:	8d 73 08             	lea    0x8(%ebx),%esi
    38fd:	89 34 24             	mov    %esi,(%esp)
    3900:	e8 8b ba 00 00       	call   f390 <fibril_mutex_lock>
    3905:	8b 43 24             	mov    0x24(%ebx),%eax
    3908:	48                   	dec    %eax
    3909:	89 43 24             	mov    %eax,0x24(%ebx)
    390c:	89 34 24             	mov    %esi,(%esp)
    390f:	e8 9c bb 00 00       	call   f4b0 <fibril_mutex_unlock>
    3914:	8b 43 24             	mov    0x24(%ebx),%eax
    3917:	85 c0                	test   %eax,%eax
    3919:	0f 84 21 01 00 00    	je     3a40 <udf_read+0x300>
    391f:	8b 45 e0             	mov    -0x20(%ebp),%eax
    3922:	85 c0                	test   %eax,%eax
    3924:	0f 84 40 fe ff ff    	je     376a <udf_read+0x2a>
    392a:	89 04 24             	mov    %eax,(%esp)
    392d:	e8 6e 23 00 00       	call   5ca0 <block_put>
    3932:	89 c7                	mov    %eax,%edi
    3934:	e9 31 fe ff ff       	jmp    376a <udf_read+0x2a>
    3939:	8d b4 26 00 00 00 00 	lea    0x0(%esi,%eiz,1),%esi
    3940:	8b 45 c4             	mov    -0x3c(%ebp),%eax
    3943:	39 45 c0             	cmp    %eax,-0x40(%ebp)
    3946:	0f 83 bf fe ff ff    	jae    380b <udf_read+0xcb>
    394c:	8b 41 38             	mov    0x38(%ecx),%eax
    394f:	c7 45 dc 00 00 00 00 	movl   $0x0,-0x24(%ebp)
    3956:	85 c0                	test   %eax,%eax
    3958:	0f 84 56 01 00 00    	je     3ab4 <udf_read+0x374>
    395e:	8b 4d d8             	mov    -0x28(%ebp),%ecx
    3961:	85 d2                	test   %edx,%edx
    3963:	0f 84 bf 00 00 00    	je     3a28 <udf_read+0x2e8>
    3969:	8b 55 c0             	mov    -0x40(%ebp),%edx
    396c:	89 4c 24 08          	mov    %ecx,0x8(%esp)
    3970:	01 d0                	add    %edx,%eax
    3972:	89 4d dc             	mov    %ecx,-0x24(%ebp)
    3975:	89 44 24 04          	mov    %eax,0x4(%esp)
    3979:	8b 45 d4             	mov    -0x2c(%ebp),%eax
    397c:	89 04 24             	mov    %eax,(%esp)
    397f:	e8 cc 8d 01 00       	call   1c750 <async_data_read_finalize>
    3984:	8b 55 18             	mov    0x18(%ebp),%edx
    3987:	8b 45 dc             	mov    -0x24(%ebp),%eax
    398a:	85 db                	test   %ebx,%ebx
    398c:	89 02                	mov    %eax,(%edx)
    398e:	0f 84 d6 fd ff ff    	je     376a <udf_read+0x2a>
    3994:	8b 5b 10             	mov    0x10(%ebx),%ebx
    3997:	85 db                	test   %ebx,%ebx
    3999:	0f 84 cb fd ff ff    	je     376a <udf_read+0x2a>
    399f:	8d 73 08             	lea    0x8(%ebx),%esi
    39a2:	89 34 24             	mov    %esi,(%esp)
    39a5:	e8 e6 b9 00 00       	call   f390 <fibril_mutex_lock>
    39aa:	8b 43 24             	mov    0x24(%ebx),%eax
    39ad:	48                   	dec    %eax
    39ae:	89 43 24             	mov    %eax,0x24(%ebx)
    39b1:	89 34 24             	mov    %esi,(%esp)
    39b4:	e8 f7 ba 00 00       	call   f4b0 <fibril_mutex_unlock>
    39b9:	8b 43 24             	mov    0x24(%ebx),%eax
    39bc:	85 c0                	test   %eax,%eax
    39be:	0f 85 a6 fd ff ff    	jne    376a <udf_read+0x2a>
    39c4:	89 1c 24             	mov    %ebx,(%esp)
    39c7:	e8 c4 1a 00 00       	call   5490 <udf_idx_del>
    39cc:	e9 99 fd ff ff       	jmp    376a <udf_read+0x2a>
    39d1:	8d b4 26 00 00 00 00 	lea    0x0(%esi,%eiz,1),%esi
    39d8:	8b 55 18             	mov    0x18(%ebp),%edx
    39db:	85 db                	test   %ebx,%ebx
    39dd:	c7 02 00 00 00 00    	movl   $0x0,(%edx)
    39e3:	74 28                	je     3a0d <udf_read+0x2cd>
    39e5:	8b 5b 10             	mov    0x10(%ebx),%ebx
    39e8:	85 db                	test   %ebx,%ebx
    39ea:	74 21                	je     3a0d <udf_read+0x2cd>
    39ec:	8d 73 08             	lea    0x8(%ebx),%esi
    39ef:	89 34 24             	mov    %esi,(%esp)
    39f2:	e8 99 b9 00 00       	call   f390 <fibril_mutex_lock>
    39f7:	8b 7b 24             	mov    0x24(%ebx),%edi
    39fa:	4f                   	dec    %edi
    39fb:	89 7b 24             	mov    %edi,0x24(%ebx)
    39fe:	89 34 24             	mov    %esi,(%esp)
    3a01:	e8 aa ba 00 00       	call   f4b0 <fibril_mutex_unlock>
    3a06:	8b 43 24             	mov    0x24(%ebx),%eax
    3a09:	85 c0                	test   %eax,%eax
    3a0b:	74 43                	je     3a50 <udf_read+0x310>
    3a0d:	8b 45 d4             	mov    -0x2c(%ebp),%eax
    3a10:	c7 44 24 04 ff ff ff 	movl   $0xffffffff,0x4(%esp)
    3a17:	ff 
    3a18:	89 04 24             	mov    %eax,(%esp)
    3a1b:	83 cf ff             	or     $0xffffffff,%edi
    3a1e:	e8 5d 77 01 00       	call   1b180 <async_answer_0>
    3a23:	e9 42 fd ff ff       	jmp    376a <udf_read+0x2a>
    3a28:	3b 4d c4             	cmp    -0x3c(%ebp),%ecx
    3a2b:	0f 86 38 ff ff ff    	jbe    3969 <udf_read+0x229>
    3a31:	8b 4d c4             	mov    -0x3c(%ebp),%ecx
    3a34:	e9 30 ff ff ff       	jmp    3969 <udf_read+0x229>
    3a39:	8d b4 26 00 00 00 00 	lea    0x0(%esi,%eiz,1),%esi
    3a40:	89 1c 24             	mov    %ebx,(%esp)
    3a43:	e8 48 1a 00 00       	call   5490 <udf_idx_del>
    3a48:	e9 d2 fe ff ff       	jmp    391f <udf_read+0x1df>
    3a4d:	8d 76 00             	lea    0x0(%esi),%esi
    3a50:	89 1c 24             	mov    %ebx,(%esp)
    3a53:	e8 38 1a 00 00       	call   5490 <udf_idx_del>
    3a58:	eb b3                	jmp    3a0d <udf_read+0x2cd>
    3a5a:	8d b6 00 00 00 00    	lea    0x0(%esi),%esi
    3a60:	8b 45 e0             	mov    -0x20(%ebp),%eax
    3a63:	8b 55 0c             	mov    0xc(%ebp),%edx
    3a66:	89 44 24 04          	mov    %eax,0x4(%esp)
    3a6a:	8d 45 e4             	lea    -0x1c(%ebp),%eax
    3a6d:	89 54 24 08          	mov    %edx,0x8(%esp)
    3a71:	89 04 24             	mov    %eax,(%esp)
    3a74:	e8 47 19 00 00       	call   53c0 <udf_idx_add>
    3a79:	85 c0                	test   %eax,%eax
    3a7b:	74 10                	je     3a8d <udf_read+0x34d>
    3a7d:	89 c7                	mov    %eax,%edi
    3a7f:	e9 e6 fc ff ff       	jmp    376a <udf_read+0x2a>
    3a84:	31 db                	xor    %ebx,%ebx
    3a86:	31 c9                	xor    %ecx,%ecx
    3a88:	e9 3a fd ff ff       	jmp    37c7 <udf_read+0x87>
    3a8d:	8b 45 e4             	mov    -0x1c(%ebp),%eax
    3a90:	89 04 24             	mov    %eax,(%esp)
    3a93:	e8 08 10 00 00       	call   4aa0 <udf_node_get_core>
    3a98:	89 c3                	mov    %eax,%ebx
    3a9a:	85 c0                	test   %eax,%eax
    3a9c:	0f 84 0c fd ff ff    	je     37ae <udf_read+0x6e>
    3aa2:	8b 45 e4             	mov    -0x1c(%ebp),%eax
    3aa5:	89 df                	mov    %ebx,%edi
    3aa7:	89 04 24             	mov    %eax,(%esp)
    3aaa:	e8 e1 19 00 00       	call   5490 <udf_idx_del>
    3aaf:	e9 b6 fc ff ff       	jmp    376a <udf_read+0x2a>
    3ab4:	8b 45 d8             	mov    -0x28(%ebp),%eax
    3ab7:	8b 55 c0             	mov    -0x40(%ebp),%edx
    3aba:	89 44 24 14          	mov    %eax,0x14(%esp)
    3abe:	8b 45 d4             	mov    -0x2c(%ebp),%eax
    3ac1:	89 44 24 04          	mov    %eax,0x4(%esp)
    3ac5:	8d 45 dc             	lea    -0x24(%ebp),%eax
    3ac8:	89 54 24 0c          	mov    %edx,0xc(%esp)
    3acc:	89 74 24 10          	mov    %esi,0x10(%esp)
    3ad0:	89 4c 24 08          	mov    %ecx,0x8(%esp)
    3ad4:	89 04 24             	mov    %eax,(%esp)
    3ad7:	e8 34 15 00 00       	call   5010 <udf_read_file>
    3adc:	89 c7                	mov    %eax,%edi
    3ade:	e9 a1 fe ff ff       	jmp    3984 <udf_read+0x244>
    3ae3:	8b 45 d4             	mov    -0x2c(%ebp),%eax
    3ae6:	c7 44 24 04 f2 ff ff 	movl   $0xfffffff2,0x4(%esp)
    3aed:	ff 
    3aee:	89 04 24             	mov    %eax,(%esp)
    3af1:	e8 8a 76 01 00       	call   1b180 <async_answer_0>
    3af6:	85 db                	test   %ebx,%ebx
    3af8:	74 30                	je     3b2a <udf_read+0x3ea>
    3afa:	8b 5b 10             	mov    0x10(%ebx),%ebx
    3afd:	85 db                	test   %ebx,%ebx
    3aff:	74 29                	je     3b2a <udf_read+0x3ea>
    3b01:	8d 73 08             	lea    0x8(%ebx),%esi
    3b04:	89 34 24             	mov    %esi,(%esp)
    3b07:	e8 84 b8 00 00       	call   f390 <fibril_mutex_lock>
    3b0c:	8b 4b 24             	mov    0x24(%ebx),%ecx
    3b0f:	49                   	dec    %ecx
    3b10:	89 4b 24             	mov    %ecx,0x24(%ebx)
    3b13:	89 34 24             	mov    %esi,(%esp)
    3b16:	e8 95 b9 00 00       	call   f4b0 <fibril_mutex_unlock>
    3b1b:	8b 73 24             	mov    0x24(%ebx),%esi
    3b1e:	85 f6                	test   %esi,%esi
    3b20:	75 08                	jne    3b2a <udf_read+0x3ea>
    3b22:	89 1c 24             	mov    %ebx,(%esp)
    3b25:	e8 66 19 00 00       	call   5490 <udf_idx_del>
    3b2a:	bf f2 ff ff ff       	mov    $0xfffffff2,%edi
    3b2f:	e9 36 fc ff ff       	jmp    376a <udf_read+0x2a>
    3b34:	31 c9                	xor    %ecx,%ecx
    3b36:	e9 8c fc ff ff       	jmp    37c7 <udf_read+0x87>
    3b3b:	90                   	nop
    3b3c:	8d 74 26 00          	lea    0x0(%esi,%eiz,1),%esi

00003b40 <udf_unmounted>:
    3b40:	55                   	push   %ebp
    3b41:	89 e5                	mov    %esp,%ebp
    3b43:	57                   	push   %edi
    3b44:	56                   	push   %esi
    3b45:	53                   	push   %ebx
    3b46:	83 ec 3c             	sub    $0x3c,%esp
    3b49:	8d 45 dc             	lea    -0x24(%ebp),%eax
    3b4c:	8b 75 08             	mov    0x8(%ebp),%esi
    3b4f:	89 44 24 04          	mov    %eax,0x4(%esp)
    3b53:	89 34 24             	mov    %esi,(%esp)
    3b56:	e8 25 46 00 00       	call   8180 <fs_instance_get>
    3b5b:	89 c3                	mov    %eax,%ebx
    3b5d:	85 c0                	test   %eax,%eax
    3b5f:	74 0f                	je     3b70 <udf_unmounted+0x30>
    3b61:	83 c4 3c             	add    $0x3c,%esp
    3b64:	89 d8                	mov    %ebx,%eax
    3b66:	5b                   	pop    %ebx
    3b67:	5e                   	pop    %esi
    3b68:	5f                   	pop    %edi
    3b69:	5d                   	pop    %ebp
    3b6a:	c3                   	ret    
    3b6b:	90                   	nop
    3b6c:	8d 74 26 00          	lea    0x0(%esi,%eiz,1),%esi
    3b70:	8b 45 dc             	mov    -0x24(%ebp),%eax
    3b73:	8b 40 4c             	mov    0x4c(%eax),%eax
    3b76:	8b 78 0c             	mov    0xc(%eax),%edi
    3b79:	8d 45 e0             	lea    -0x20(%ebp),%eax
    3b7c:	89 44 24 04          	mov    %eax,0x4(%esp)
    3b80:	89 34 24             	mov    %esi,(%esp)
    3b83:	e8 f8 45 00 00       	call   8180 <fs_instance_get>
    3b88:	89 c3                	mov    %eax,%ebx
    3b8a:	85 c0                	test   %eax,%eax
    3b8c:	75 d3                	jne    3b61 <udf_unmounted+0x21>
    3b8e:	8d 55 e4             	lea    -0x1c(%ebp),%edx
    3b91:	8b 45 e0             	mov    -0x20(%ebp),%eax
    3b94:	89 14 24             	mov    %edx,(%esp)
    3b97:	89 7c 24 08          	mov    %edi,0x8(%esp)
    3b9b:	89 44 24 04          	mov    %eax,0x4(%esp)
    3b9f:	89 55 cc             	mov    %edx,-0x34(%ebp)
    3ba2:	e8 a9 17 00 00       	call   5350 <udf_idx_get>
    3ba7:	8b 55 cc             	mov    -0x34(%ebp),%edx
    3baa:	85 c0                	test   %eax,%eax
    3bac:	0f 85 06 01 00 00    	jne    3cb8 <udf_unmounted+0x178>
    3bb2:	8b 45 e4             	mov    -0x1c(%ebp),%eax
    3bb5:	85 c0                	test   %eax,%eax
    3bb7:	0f 84 42 01 00 00    	je     3cff <udf_unmounted+0x1bf>
    3bbd:	8b 40 04             	mov    0x4(%eax),%eax
    3bc0:	89 45 d4             	mov    %eax,-0x2c(%ebp)
    3bc3:	85 c0                	test   %eax,%eax
    3bc5:	0f 84 34 01 00 00    	je     3cff <udf_unmounted+0x1bf>
    3bcb:	8b 78 10             	mov    0x10(%eax),%edi
    3bce:	8b 07                	mov    (%edi),%eax
    3bd0:	89 45 d0             	mov    %eax,-0x30(%ebp)
    3bd3:	83 7f 24 02          	cmpl   $0x2,0x24(%edi)
    3bd7:	0f 85 9b 00 00 00    	jne    3c78 <udf_unmounted+0x138>
    3bdd:	8d 57 08             	lea    0x8(%edi),%edx
    3be0:	89 14 24             	mov    %edx,(%esp)
    3be3:	89 55 cc             	mov    %edx,-0x34(%ebp)
    3be6:	e8 a5 b7 00 00       	call   f390 <fibril_mutex_lock>
    3beb:	8b 47 24             	mov    0x24(%edi),%eax
    3bee:	48                   	dec    %eax
    3bef:	8b 55 cc             	mov    -0x34(%ebp),%edx
    3bf2:	89 47 24             	mov    %eax,0x24(%edi)
    3bf5:	89 14 24             	mov    %edx,(%esp)
    3bf8:	e8 b3 b8 00 00       	call   f4b0 <fibril_mutex_unlock>
    3bfd:	8b 47 24             	mov    0x24(%edi),%eax
    3c00:	85 c0                	test   %eax,%eax
    3c02:	75 08                	jne    3c0c <udf_unmounted+0xcc>
    3c04:	89 3c 24             	mov    %edi,(%esp)
    3c07:	e8 84 18 00 00       	call   5490 <udf_idx_del>
    3c0c:	8b 45 d4             	mov    -0x2c(%ebp),%eax
    3c0f:	8b 78 10             	mov    0x10(%eax),%edi
    3c12:	85 ff                	test   %edi,%edi
    3c14:	74 2f                	je     3c45 <udf_unmounted+0x105>
    3c16:	8d 47 08             	lea    0x8(%edi),%eax
    3c19:	89 04 24             	mov    %eax,(%esp)
    3c1c:	89 45 cc             	mov    %eax,-0x34(%ebp)
    3c1f:	e8 6c b7 00 00       	call   f390 <fibril_mutex_lock>
    3c24:	8b 47 24             	mov    0x24(%edi),%eax
    3c27:	48                   	dec    %eax
    3c28:	89 47 24             	mov    %eax,0x24(%edi)
    3c2b:	8b 45 cc             	mov    -0x34(%ebp),%eax
    3c2e:	89 04 24             	mov    %eax,(%esp)
    3c31:	e8 7a b8 00 00       	call   f4b0 <fibril_mutex_unlock>
    3c36:	8b 47 24             	mov    0x24(%edi),%eax
    3c39:	85 c0                	test   %eax,%eax
    3c3b:	75 08                	jne    3c45 <udf_unmounted+0x105>
    3c3d:	89 3c 24             	mov    %edi,(%esp)
    3c40:	e8 4b 18 00 00       	call   5490 <udf_idx_del>
    3c45:	89 34 24             	mov    %esi,(%esp)
    3c48:	e8 a3 45 00 00       	call   81f0 <fs_instance_destroy>
    3c4d:	8b 45 d0             	mov    -0x30(%ebp),%eax
    3c50:	89 04 24             	mov    %eax,(%esp)
    3c53:	e8 f8 4a 01 00       	call   18750 <free>
    3c58:	89 34 24             	mov    %esi,(%esp)
    3c5b:	e8 80 1d 00 00       	call   59e0 <block_cache_fini>
    3c60:	89 34 24             	mov    %esi,(%esp)
    3c63:	e8 38 1f 00 00       	call   5ba0 <block_fini>
    3c68:	83 c4 3c             	add    $0x3c,%esp
    3c6b:	89 d8                	mov    %ebx,%eax
    3c6d:	5b                   	pop    %ebx
    3c6e:	5e                   	pop    %esi
    3c6f:	5f                   	pop    %edi
    3c70:	5d                   	pop    %ebp
    3c71:	c3                   	ret    
    3c72:	8d b6 00 00 00 00    	lea    0x0(%esi),%esi
    3c78:	85 ff                	test   %edi,%edi
    3c7a:	74 21                	je     3c9d <udf_unmounted+0x15d>
    3c7c:	8d 5f 08             	lea    0x8(%edi),%ebx
    3c7f:	89 1c 24             	mov    %ebx,(%esp)
    3c82:	e8 09 b7 00 00       	call   f390 <fibril_mutex_lock>
    3c87:	8b 47 24             	mov    0x24(%edi),%eax
    3c8a:	48                   	dec    %eax
    3c8b:	89 47 24             	mov    %eax,0x24(%edi)
    3c8e:	89 1c 24             	mov    %ebx,(%esp)
    3c91:	e8 1a b8 00 00       	call   f4b0 <fibril_mutex_unlock>
    3c96:	8b 47 24             	mov    0x24(%edi),%eax
    3c99:	85 c0                	test   %eax,%eax
    3c9b:	74 0b                	je     3ca8 <udf_unmounted+0x168>
    3c9d:	bb f1 ff ff ff       	mov    $0xfffffff1,%ebx
    3ca2:	e9 ba fe ff ff       	jmp    3b61 <udf_unmounted+0x21>
    3ca7:	90                   	nop
    3ca8:	89 3c 24             	mov    %edi,(%esp)
    3cab:	e8 e0 17 00 00       	call   5490 <udf_idx_del>
    3cb0:	eb eb                	jmp    3c9d <udf_unmounted+0x15d>
    3cb2:	8d b6 00 00 00 00    	lea    0x0(%esi),%esi
    3cb8:	8b 45 e0             	mov    -0x20(%ebp),%eax
    3cbb:	89 7c 24 08          	mov    %edi,0x8(%esp)
    3cbf:	89 44 24 04          	mov    %eax,0x4(%esp)
    3cc3:	89 14 24             	mov    %edx,(%esp)
    3cc6:	e8 f5 16 00 00       	call   53c0 <udf_idx_add>
    3ccb:	85 c0                	test   %eax,%eax
    3ccd:	74 09                	je     3cd8 <udf_unmounted+0x198>
    3ccf:	89 c3                	mov    %eax,%ebx
    3cd1:	e9 8b fe ff ff       	jmp    3b61 <udf_unmounted+0x21>
    3cd6:	66 90                	xchg   %ax,%ax
    3cd8:	8b 45 e4             	mov    -0x1c(%ebp),%eax
    3cdb:	89 04 24             	mov    %eax,(%esp)
    3cde:	e8 bd 0d 00 00       	call   4aa0 <udf_node_get_core>
    3ce3:	89 c7                	mov    %eax,%edi
    3ce5:	85 c0                	test   %eax,%eax
    3ce7:	0f 84 c5 fe ff ff    	je     3bb2 <udf_unmounted+0x72>
    3ced:	8b 45 e4             	mov    -0x1c(%ebp),%eax
    3cf0:	89 fb                	mov    %edi,%ebx
    3cf2:	89 04 24             	mov    %eax,(%esp)
    3cf5:	e8 96 17 00 00       	call   5490 <udf_idx_del>
    3cfa:	e9 62 fe ff ff       	jmp    3b61 <udf_unmounted+0x21>
    3cff:	a1 00 00 00 00       	mov    0x0,%eax
    3d04:	89 45 d0             	mov    %eax,-0x30(%ebp)
    3d07:	83 3d 24 00 00 00 02 	cmpl   $0x2,0x24
    3d0e:	0f 84 31 ff ff ff    	je     3c45 <udf_unmounted+0x105>
    3d14:	eb 87                	jmp    3c9d <udf_unmounted+0x15d>
    3d16:	66 90                	xchg   %ax,%ax
    3d18:	66 90                	xchg   %ax,%ax
    3d1a:	66 90                	xchg   %ax,%ax
    3d1c:	66 90                	xchg   %ax,%ax
    3d1e:	66 90                	xchg   %ax,%ax

00003d20 <udf_translate_name>:
    3d20:	55                   	push   %ebp
    3d21:	89 e5                	mov    %esp,%ebp
    3d23:	57                   	push   %edi
    3d24:	56                   	push   %esi
    3d25:	53                   	push   %ebx
    3d26:	83 ec 6c             	sub    $0x6c,%esp
    3d29:	8b 5d 10             	mov    0x10(%ebp),%ebx
    3d2c:	8b 75 0c             	mov    0xc(%ebp),%esi
    3d2f:	85 db                	test   %ebx,%ebx
    3d31:	0f 84 5e 04 00 00    	je     4195 <udf_translate_name+0x475>
    3d37:	31 c9                	xor    %ecx,%ecx
    3d39:	8d 53 ff             	lea    -0x1(%ebx),%edx
    3d3c:	31 ff                	xor    %edi,%edi
    3d3e:	c7 45 b4 00 00 00 00 	movl   $0x0,-0x4c(%ebp)
    3d45:	c7 45 c4 00 00 00 00 	movl   $0x0,-0x3c(%ebp)
    3d4c:	c7 45 bc 00 00 00 00 	movl   $0x0,-0x44(%ebp)
    3d53:	c6 45 af 00          	movb   $0x0,-0x51(%ebp)
    3d57:	89 55 c0             	mov    %edx,-0x40(%ebp)
    3d5a:	88 4d b8             	mov    %cl,-0x48(%ebp)
    3d5d:	8d 76 00             	lea    0x0(%esi),%esi
    3d60:	66 8b 14 7e          	mov    (%esi,%edi,2),%dx
    3d64:	66 83 fa 2f          	cmp    $0x2f,%dx
    3d68:	0f 84 22 01 00 00    	je     3e90 <udf_translate_name+0x170>
    3d6e:	66 85 d2             	test   %dx,%dx
    3d71:	0f 84 19 01 00 00    	je     3e90 <udf_translate_name+0x170>
    3d77:	89 d0                	mov    %edx,%eax
    3d79:	89 55 a8             	mov    %edx,-0x58(%ebp)
    3d7c:	25 ff ff 00 00       	and    $0xffff,%eax
    3d81:	89 04 24             	mov    %eax,(%esp)
    3d84:	e8 f7 88 00 00       	call   c680 <ascii_check>
    3d89:	8b 55 a8             	mov    -0x58(%ebp),%edx
    3d8c:	84 c0                	test   %al,%al
    3d8e:	0f 84 fc 00 00 00    	je     3e90 <udf_translate_name+0x170>
    3d94:	66 83 fa 2e          	cmp    $0x2e,%dx
    3d98:	0f 85 59 01 00 00    	jne    3ef7 <udf_translate_name+0x1d7>
    3d9e:	8b 45 c0             	mov    -0x40(%ebp),%eax
    3da1:	29 f8                	sub    %edi,%eax
    3da3:	83 f8 05             	cmp    $0x5,%eax
    3da6:	0f 87 4b 01 00 00    	ja     3ef7 <udf_translate_name+0x1d7>
    3dac:	8d 4f 01             	lea    0x1(%edi),%ecx
    3daf:	39 d9                	cmp    %ebx,%ecx
    3db1:	0f 84 54 03 00 00    	je     410b <udf_translate_name+0x3eb>
    3db7:	8b 45 c4             	mov    -0x3c(%ebp),%eax
    3dba:	89 7d bc             	mov    %edi,-0x44(%ebp)
    3dbd:	89 45 b4             	mov    %eax,-0x4c(%ebp)
    3dc0:	89 cf                	mov    %ecx,%edi
    3dc2:	c6 45 af 01          	movb   $0x1,-0x51(%ebp)
    3dc6:	81 7d c4 fe 00 00 00 	cmpl   $0xfe,-0x3c(%ebp)
    3dcd:	0f 86 f8 00 00 00    	jbe    3ecb <udf_translate_name+0x1ab>
    3dd3:	90                   	nop
    3dd4:	8d 74 26 00          	lea    0x0(%esi,%eiz,1),%esi
    3dd8:	c6 45 b8 01          	movb   $0x1,-0x48(%ebp)
    3ddc:	39 fb                	cmp    %edi,%ebx
    3dde:	77 80                	ja     3d60 <udf_translate_name+0x40>
    3de0:	8a 4d b8             	mov    -0x48(%ebp),%cl
    3de3:	84 c9                	test   %cl,%cl
    3de5:	0f 84 01 01 00 00    	je     3eec <udf_translate_name+0x1cc>
    3deb:	80 7d af 00          	cmpb   $0x0,-0x51(%ebp)
    3def:	0f 84 3f 01 00 00    	je     3f34 <udf_translate_name+0x214>
    3df5:	8b 55 bc             	mov    -0x44(%ebp),%edx
    3df8:	31 ff                	xor    %edi,%edi
    3dfa:	42                   	inc    %edx
    3dfb:	89 75 b8             	mov    %esi,-0x48(%ebp)
    3dfe:	89 55 b0             	mov    %edx,-0x50(%ebp)
    3e01:	8b 55 bc             	mov    -0x44(%ebp),%edx
    3e04:	8b 45 b0             	mov    -0x50(%ebp),%eax
    3e07:	89 5d bc             	mov    %ebx,-0x44(%ebp)
    3e0a:	8d 0c 56             	lea    (%esi,%edx,2),%ecx
    3e0d:	ba 01 00 00 00       	mov    $0x1,%edx
    3e12:	89 d6                	mov    %edx,%esi
    3e14:	89 fb                	mov    %edi,%ebx
    3e16:	01 d8                	add    %ebx,%eax
    3e18:	89 cf                	mov    %ecx,%edi
    3e1a:	8d 4e ff             	lea    -0x1(%esi),%ecx
    3e1d:	39 45 bc             	cmp    %eax,-0x44(%ebp)
    3e20:	89 4d c0             	mov    %ecx,-0x40(%ebp)
    3e23:	76 5a                	jbe    3e7f <udf_translate_name+0x15f>
    3e25:	8d 76 00             	lea    0x0(%esi),%esi
    3e28:	8b 55 b8             	mov    -0x48(%ebp),%edx
    3e2b:	66 8b 0c 42          	mov    (%edx,%eax,2),%cx
    3e2f:	66 83 f9 2f          	cmp    $0x2f,%cx
    3e33:	0f 84 c7 00 00 00    	je     3f00 <udf_translate_name+0x1e0>
    3e39:	66 85 c9             	test   %cx,%cx
    3e3c:	0f 84 be 00 00 00    	je     3f00 <udf_translate_name+0x1e0>
    3e42:	89 c8                	mov    %ecx,%eax
    3e44:	89 4d a8             	mov    %ecx,-0x58(%ebp)
    3e47:	25 ff ff 00 00       	and    $0xffff,%eax
    3e4c:	89 04 24             	mov    %eax,(%esp)
    3e4f:	e8 2c 88 00 00       	call   c680 <ascii_check>
    3e54:	8b 4d a8             	mov    -0x58(%ebp),%ecx
    3e57:	84 c0                	test   %al,%al
    3e59:	0f 84 a1 00 00 00    	je     3f00 <udf_translate_name+0x1e0>
    3e5f:	43                   	inc    %ebx
    3e60:	66 89 4c 75 ca       	mov    %cx,-0x36(%ebp,%esi,2)
    3e65:	83 fb 04             	cmp    $0x4,%ebx
    3e68:	0f 87 46 03 00 00    	ja     41b4 <udf_translate_name+0x494>
    3e6e:	46                   	inc    %esi
    3e6f:	8b 45 b0             	mov    -0x50(%ebp),%eax
    3e72:	8d 4e ff             	lea    -0x1(%esi),%ecx
    3e75:	01 d8                	add    %ebx,%eax
    3e77:	89 4d c0             	mov    %ecx,-0x40(%ebp)
    3e7a:	39 45 bc             	cmp    %eax,-0x44(%ebp)
    3e7d:	77 a9                	ja     3e28 <udf_translate_name+0x108>
    3e7f:	8b 75 b8             	mov    -0x48(%ebp),%esi
    3e82:	8b 5d bc             	mov    -0x44(%ebp),%ebx
    3e85:	8b 55 c0             	mov    -0x40(%ebp),%edx
    3e88:	e9 01 01 00 00       	jmp    3f8e <udf_translate_name+0x26e>
    3e8d:	8d 76 00             	lea    0x0(%esi),%esi
    3e90:	47                   	inc    %edi
    3e91:	39 fb                	cmp    %edi,%ebx
    3e93:	76 20                	jbe    3eb5 <udf_translate_name+0x195>
    3e95:	66 8b 04 7e          	mov    (%esi,%edi,2),%ax
    3e99:	66 83 f8 2f          	cmp    $0x2f,%ax
    3e9d:	74 f1                	je     3e90 <udf_translate_name+0x170>
    3e9f:	66 85 c0             	test   %ax,%ax
    3ea2:	74 ec                	je     3e90 <udf_translate_name+0x170>
    3ea4:	25 ff ff 00 00       	and    $0xffff,%eax
    3ea9:	89 04 24             	mov    %eax,(%esp)
    3eac:	e8 cf 87 00 00       	call   c680 <ascii_check>
    3eb1:	84 c0                	test   %al,%al
    3eb3:	74 db                	je     3e90 <udf_translate_name+0x170>
    3eb5:	ba 5f 00 00 00       	mov    $0x5f,%edx
    3eba:	c6 45 b8 01          	movb   $0x1,-0x48(%ebp)
    3ebe:	81 7d c4 fe 00 00 00 	cmpl   $0xfe,-0x3c(%ebp)
    3ec5:	0f 87 0d ff ff ff    	ja     3dd8 <udf_translate_name+0xb8>
    3ecb:	8b 45 c4             	mov    -0x3c(%ebp),%eax
    3ece:	8b 4d 08             	mov    0x8(%ebp),%ecx
    3ed1:	66 89 14 41          	mov    %dx,(%ecx,%eax,2)
    3ed5:	40                   	inc    %eax
    3ed6:	89 45 c4             	mov    %eax,-0x3c(%ebp)
    3ed9:	39 fb                	cmp    %edi,%ebx
    3edb:	0f 87 7f fe ff ff    	ja     3d60 <udf_translate_name+0x40>
    3ee1:	8a 4d b8             	mov    -0x48(%ebp),%cl
    3ee4:	84 c9                	test   %cl,%cl
    3ee6:	0f 85 ff fe ff ff    	jne    3deb <udf_translate_name+0xcb>
    3eec:	8b 45 c4             	mov    -0x3c(%ebp),%eax
    3eef:	83 c4 6c             	add    $0x6c,%esp
    3ef2:	5b                   	pop    %ebx
    3ef3:	5e                   	pop    %esi
    3ef4:	5f                   	pop    %edi
    3ef5:	5d                   	pop    %ebp
    3ef6:	c3                   	ret    
    3ef7:	47                   	inc    %edi
    3ef8:	eb c4                	jmp    3ebe <udf_translate_name+0x19e>
    3efa:	8d b6 00 00 00 00    	lea    0x0(%esi),%esi
    3f00:	43                   	inc    %ebx
    3f01:	83 fb 04             	cmp    $0x4,%ebx
    3f04:	77 72                	ja     3f78 <udf_translate_name+0x258>
    3f06:	66 8b 44 5f 02       	mov    0x2(%edi,%ebx,2),%ax
    3f0b:	66 83 f8 2f          	cmp    $0x2f,%ax
    3f0f:	74 ef                	je     3f00 <udf_translate_name+0x1e0>
    3f11:	66 85 c0             	test   %ax,%ax
    3f14:	74 ea                	je     3f00 <udf_translate_name+0x1e0>
    3f16:	25 ff ff 00 00       	and    $0xffff,%eax
    3f1b:	89 04 24             	mov    %eax,(%esp)
    3f1e:	e8 5d 87 00 00       	call   c680 <ascii_check>
    3f23:	84 c0                	test   %al,%al
    3f25:	74 d9                	je     3f00 <udf_translate_name+0x1e0>
    3f27:	66 c7 44 75 ca 5f 00 	movw   $0x5f,-0x36(%ebp,%esi,2)
    3f2e:	46                   	inc    %esi
    3f2f:	e9 3b ff ff ff       	jmp    3e6f <udf_translate_name+0x14f>
    3f34:	81 7d c4 fa 00 00 00 	cmpl   $0xfa,-0x3c(%ebp)
    3f3b:	0f 86 21 02 00 00    	jbe    4162 <udf_translate_name+0x442>
    3f41:	c7 45 c4 ff 00 00 00 	movl   $0xff,-0x3c(%ebp)
    3f48:	b9 fc 01 00 00       	mov    $0x1fc,%ecx
    3f4d:	c7 45 b8 fa 01 00 00 	movl   $0x1fa,-0x48(%ebp)
    3f54:	c7 45 bc f8 01 00 00 	movl   $0x1f8,-0x44(%ebp)
    3f5b:	bf f6 01 00 00       	mov    $0x1f6,%edi
    3f60:	ba f4 01 00 00       	mov    $0x1f4,%edx
    3f65:	c7 45 c0 00 00 00 00 	movl   $0x0,-0x40(%ebp)
    3f6c:	c7 45 b4 fa 00 00 00 	movl   $0xfa,-0x4c(%ebp)
    3f73:	eb 5e                	jmp    3fd3 <udf_translate_name+0x2b3>
    3f75:	8d 76 00             	lea    0x0(%esi),%esi
    3f78:	8b 4d c0             	mov    -0x40(%ebp),%ecx
    3f7b:	8b 75 b8             	mov    -0x48(%ebp),%esi
    3f7e:	8b 5d bc             	mov    -0x44(%ebp),%ebx
    3f81:	66 c7 44 4d cc 5f 00 	movw   $0x5f,-0x34(%ebp,%ecx,2)
    3f88:	41                   	inc    %ecx
    3f89:	89 4d c0             	mov    %ecx,-0x40(%ebp)
    3f8c:	89 ca                	mov    %ecx,%edx
    3f8e:	c7 45 b0 f9 00 00 00 	movl   $0xf9,-0x50(%ebp)
    3f95:	8b 45 b0             	mov    -0x50(%ebp),%eax
    3f98:	29 d0                	sub    %edx,%eax
    3f9a:	89 45 b0             	mov    %eax,-0x50(%ebp)
    3f9d:	8b 45 c4             	mov    -0x3c(%ebp),%eax
    3fa0:	39 45 b0             	cmp    %eax,-0x50(%ebp)
    3fa3:	0f 82 6d 01 00 00    	jb     4116 <udf_translate_name+0x3f6>
    3fa9:	8b 4d b4             	mov    -0x4c(%ebp),%ecx
    3fac:	8b 45 b4             	mov    -0x4c(%ebp),%eax
    3faf:	8b 55 b4             	mov    -0x4c(%ebp),%edx
    3fb2:	8d 7c 09 02          	lea    0x2(%ecx,%ecx,1),%edi
    3fb6:	8d 4c 09 04          	lea    0x4(%ecx,%ecx,1),%ecx
    3fba:	89 4d bc             	mov    %ecx,-0x44(%ebp)
    3fbd:	8b 4d b4             	mov    -0x4c(%ebp),%ecx
    3fc0:	01 d2                	add    %edx,%edx
    3fc2:	8d 4c 09 06          	lea    0x6(%ecx,%ecx,1),%ecx
    3fc6:	89 4d b8             	mov    %ecx,-0x48(%ebp)
    3fc9:	8d 4c 00 08          	lea    0x8(%eax,%eax,1),%ecx
    3fcd:	83 c0 05             	add    $0x5,%eax
    3fd0:	89 45 c4             	mov    %eax,-0x3c(%ebp)
    3fd3:	8b 45 08             	mov    0x8(%ebp),%eax
    3fd6:	66 c7 04 10 23 00    	movw   $0x23,(%eax,%edx,1)
    3fdc:	89 5c 24 04          	mov    %ebx,0x4(%esp)
    3fe0:	89 34 24             	mov    %esi,(%esp)
    3fe3:	89 4d a8             	mov    %ecx,-0x58(%ebp)
    3fe6:	e8 d5 03 00 00       	call   43c0 <udf_unicode_cksum>
    3feb:	c7 45 d7 30 31 32 33 	movl   $0x33323130,-0x29(%ebp)
    3ff2:	89 c2                	mov    %eax,%edx
    3ff4:	c7 45 db 34 35 36 37 	movl   $0x37363534,-0x25(%ebp)
    3ffb:	66 c1 ea 0c          	shr    $0xc,%dx
    3fff:	c7 45 df 38 39 41 42 	movl   $0x42413938,-0x21(%ebp)
    4006:	81 e2 ff ff 00 00    	and    $0xffff,%edx
    400c:	c7 45 e3 43 44 45 46 	movl   $0x46454443,-0x1d(%ebp)
    4013:	c6 45 e7 00          	movb   $0x0,-0x19(%ebp)
    4017:	8b 5d 08             	mov    0x8(%ebp),%ebx
    401a:	66 0f be 54 15 d7    	movsbw -0x29(%ebp,%edx,1),%dx
    4020:	66 89 14 3b          	mov    %dx,(%ebx,%edi,1)
    4024:	89 c2                	mov    %eax,%edx
    4026:	81 e2 00 0f 00 00    	and    $0xf00,%edx
    402c:	8b 75 bc             	mov    -0x44(%ebp),%esi
    402f:	c1 fa 08             	sar    $0x8,%edx
    4032:	8b 4d a8             	mov    -0x58(%ebp),%ecx
    4035:	66 0f be 54 15 d7    	movsbw -0x29(%ebp,%edx,1),%dx
    403b:	66 89 14 33          	mov    %dx,(%ebx,%esi,1)
    403f:	89 c2                	mov    %eax,%edx
    4041:	81 e2 f0 00 00 00    	and    $0xf0,%edx
    4047:	83 e0 0f             	and    $0xf,%eax
    404a:	c1 fa 04             	sar    $0x4,%edx
    404d:	8b 75 b8             	mov    -0x48(%ebp),%esi
    4050:	66 0f be 44 05 d7    	movsbw -0x29(%ebp,%eax,1),%ax
    4056:	66 0f be 54 15 d7    	movsbw -0x29(%ebp,%edx,1),%dx
    405c:	80 7d af 00          	cmpb   $0x0,-0x51(%ebp)
    4060:	66 89 14 33          	mov    %dx,(%ebx,%esi,1)
    4064:	66 89 04 0b          	mov    %ax,(%ebx,%ecx,1)
    4068:	0f 84 7e fe ff ff    	je     3eec <udf_translate_name+0x1cc>
    406e:	8b 55 b4             	mov    -0x4c(%ebp),%edx
    4071:	8b 45 c4             	mov    -0x3c(%ebp),%eax
    4074:	83 c2 06             	add    $0x6,%edx
    4077:	89 55 c4             	mov    %edx,-0x3c(%ebp)
    407a:	8b 55 c0             	mov    -0x40(%ebp),%edx
    407d:	66 c7 04 43 2e 00    	movw   $0x2e,(%ebx,%eax,2)
    4083:	85 d2                	test   %edx,%edx
    4085:	0f 84 61 fe ff ff    	je     3eec <udf_translate_name+0x1cc>
    408b:	8b 4d b4             	mov    -0x4c(%ebp),%ecx
    408e:	8b 75 c0             	mov    -0x40(%ebp),%esi
    4091:	d1 ee                	shr    %esi
    4093:	8d 1c 4b             	lea    (%ebx,%ecx,2),%ebx
    4096:	f6 c3 03             	test   $0x3,%bl
    4099:	0f 94 c1             	sete   %cl
    409c:	83 7d c0 0a          	cmpl   $0xa,-0x40(%ebp)
    40a0:	0f 97 c2             	seta   %dl
    40a3:	8d 04 36             	lea    (%esi,%esi,1),%eax
    40a6:	84 d1                	test   %dl,%cl
    40a8:	0f 84 f9 00 00 00    	je     41a7 <udf_translate_name+0x487>
    40ae:	85 c0                	test   %eax,%eax
    40b0:	0f 84 f1 00 00 00    	je     41a7 <udf_translate_name+0x487>
    40b6:	31 d2                	xor    %edx,%edx
    40b8:	8d 4d cc             	lea    -0x34(%ebp),%ecx
    40bb:	90                   	nop
    40bc:	8d 74 26 00          	lea    0x0(%esi,%eiz,1),%esi
    40c0:	8b 3c 91             	mov    (%ecx,%edx,4),%edi
    40c3:	89 7c 93 0c          	mov    %edi,0xc(%ebx,%edx,4)
    40c7:	42                   	inc    %edx
    40c8:	39 d6                	cmp    %edx,%esi
    40ca:	77 f4                	ja     40c0 <udf_translate_name+0x3a0>
    40cc:	8b 55 c4             	mov    -0x3c(%ebp),%edx
    40cf:	01 c2                	add    %eax,%edx
    40d1:	39 45 c0             	cmp    %eax,-0x40(%ebp)
    40d4:	74 1f                	je     40f5 <udf_translate_name+0x3d5>
    40d6:	8b 75 08             	mov    0x8(%ebp),%esi
    40d9:	29 c2                	sub    %eax,%edx
    40db:	8d 1c 56             	lea    (%esi,%edx,2),%ebx
    40de:	8b 75 c0             	mov    -0x40(%ebp),%esi
    40e1:	8d b4 26 00 00 00 00 	lea    0x0(%esi,%eiz,1),%esi
    40e8:	66 8b 14 41          	mov    (%ecx,%eax,2),%dx
    40ec:	66 89 14 43          	mov    %dx,(%ebx,%eax,2)
    40f0:	40                   	inc    %eax
    40f1:	39 c6                	cmp    %eax,%esi
    40f3:	77 f3                	ja     40e8 <udf_translate_name+0x3c8>
    40f5:	8b 45 c4             	mov    -0x3c(%ebp),%eax
    40f8:	8b 55 c0             	mov    -0x40(%ebp),%edx
    40fb:	01 d0                	add    %edx,%eax
    40fd:	89 45 c4             	mov    %eax,-0x3c(%ebp)
    4100:	8b 45 c4             	mov    -0x3c(%ebp),%eax
    4103:	83 c4 6c             	add    $0x6c,%esp
    4106:	5b                   	pop    %ebx
    4107:	5e                   	pop    %esi
    4108:	5f                   	pop    %edi
    4109:	5d                   	pop    %ebp
    410a:	c3                   	ret    
    410b:	89 df                	mov    %ebx,%edi
    410d:	c6 45 af 00          	movb   $0x0,-0x51(%ebp)
    4111:	e9 a8 fd ff ff       	jmp    3ebe <udf_translate_name+0x19e>
    4116:	8b 4d c0             	mov    -0x40(%ebp),%ecx
    4119:	bf fa 00 00 00       	mov    $0xfa,%edi
    411e:	29 cf                	sub    %ecx,%edi
    4120:	b9 fb 00 00 00       	mov    $0xfb,%ecx
    4125:	2b 4d c0             	sub    -0x40(%ebp),%ecx
    4128:	89 d0                	mov    %edx,%eax
    412a:	01 c9                	add    %ecx,%ecx
    412c:	c7 45 c4 fe 00 00 00 	movl   $0xfe,-0x3c(%ebp)
    4133:	89 4d bc             	mov    %ecx,-0x44(%ebp)
    4136:	b9 fc 00 00 00       	mov    $0xfc,%ecx
    413b:	2b 4d c0             	sub    -0x40(%ebp),%ecx
    413e:	8b 55 b0             	mov    -0x50(%ebp),%edx
    4141:	01 c9                	add    %ecx,%ecx
    4143:	29 45 c4             	sub    %eax,-0x3c(%ebp)
    4146:	89 4d b8             	mov    %ecx,-0x48(%ebp)
    4149:	b9 fd 00 00 00       	mov    $0xfd,%ecx
    414e:	2b 4d c0             	sub    -0x40(%ebp),%ecx
    4151:	8b 45 b0             	mov    -0x50(%ebp),%eax
    4154:	01 d2                	add    %edx,%edx
    4156:	01 ff                	add    %edi,%edi
    4158:	01 c9                	add    %ecx,%ecx
    415a:	89 45 b4             	mov    %eax,-0x4c(%ebp)
    415d:	e9 71 fe ff ff       	jmp    3fd3 <udf_translate_name+0x2b3>
    4162:	8b 45 c4             	mov    -0x3c(%ebp),%eax
    4165:	8b 55 c4             	mov    -0x3c(%ebp),%edx
    4168:	89 45 b4             	mov    %eax,-0x4c(%ebp)
    416b:	01 d2                	add    %edx,%edx
    416d:	8d 4c 00 04          	lea    0x4(%eax,%eax,1),%ecx
    4171:	8d 7c 00 02          	lea    0x2(%eax,%eax,1),%edi
    4175:	89 4d bc             	mov    %ecx,-0x44(%ebp)
    4178:	8d 4c 00 06          	lea    0x6(%eax,%eax,1),%ecx
    417c:	89 4d b8             	mov    %ecx,-0x48(%ebp)
    417f:	8d 4c 00 08          	lea    0x8(%eax,%eax,1),%ecx
    4183:	83 c0 05             	add    $0x5,%eax
    4186:	c7 45 c0 00 00 00 00 	movl   $0x0,-0x40(%ebp)
    418d:	89 45 c4             	mov    %eax,-0x3c(%ebp)
    4190:	e9 3e fe ff ff       	jmp    3fd3 <udf_translate_name+0x2b3>
    4195:	c7 45 c4 00 00 00 00 	movl   $0x0,-0x3c(%ebp)
    419c:	8b 45 c4             	mov    -0x3c(%ebp),%eax
    419f:	83 c4 6c             	add    $0x6c,%esp
    41a2:	5b                   	pop    %ebx
    41a3:	5e                   	pop    %esi
    41a4:	5f                   	pop    %edi
    41a5:	5d                   	pop    %ebp
    41a6:	c3                   	ret    
    41a7:	8b 55 c4             	mov    -0x3c(%ebp),%edx
    41aa:	31 c0                	xor    %eax,%eax
    41ac:	8d 4d cc             	lea    -0x34(%ebp),%ecx
    41af:	e9 22 ff ff ff       	jmp    40d6 <udf_translate_name+0x3b6>
    41b4:	89 f2                	mov    %esi,%edx
    41b6:	8b 5d bc             	mov    -0x44(%ebp),%ebx
    41b9:	8b 75 b8             	mov    -0x48(%ebp),%esi
    41bc:	89 55 c0             	mov    %edx,-0x40(%ebp)
    41bf:	e9 ca fd ff ff       	jmp    3f8e <udf_translate_name+0x26e>
    41c4:	8d b6 00 00 00 00    	lea    0x0(%esi),%esi
    41ca:	8d bf 00 00 00 00    	lea    0x0(%edi),%edi

000041d0 <udf_to_unix_name>:
    41d0:	55                   	push   %ebp
    41d1:	89 e5                	mov    %esp,%ebp
    41d3:	57                   	push   %edi
    41d4:	56                   	push   %esi
    41d5:	53                   	push   %ebx
    41d6:	83 ec 3c             	sub    $0x3c,%esp
    41d9:	8b 55 08             	mov    0x8(%ebp),%edx
    41dc:	8b 7d 18             	mov    0x18(%ebp),%edi
    41df:	89 55 dc             	mov    %edx,-0x24(%ebp)
    41e2:	8b 55 0c             	mov    0xc(%ebp),%edx
    41e5:	89 55 d8             	mov    %edx,-0x28(%ebp)
    41e8:	c7 04 24 00 08 00 00 	movl   $0x800,(%esp)
    41ef:	8b 55 14             	mov    0x14(%ebp),%edx
    41f2:	8b 75 10             	mov    0x10(%ebp),%esi
    41f5:	89 55 e0             	mov    %edx,-0x20(%ebp)
    41f8:	e8 43 44 01 00       	call   18640 <malloc>
    41fd:	c7 04 24 00 08 00 00 	movl   $0x800,(%esp)
    4204:	89 c3                	mov    %eax,%ebx
    4206:	e8 35 44 01 00       	call   18640 <malloc>
    420b:	80 3f 00             	cmpb   $0x0,(%edi)
    420e:	89 45 e4             	mov    %eax,-0x1c(%ebp)
    4211:	74 3d                	je     4250 <udf_to_unix_name+0x80>
    4213:	46                   	inc    %esi
    4214:	89 34 24             	mov    %esi,(%esp)
    4217:	e8 54 7f 00 00       	call   c170 <str_size>
    421c:	8b 55 d8             	mov    -0x28(%ebp),%edx
    421f:	89 54 24 04          	mov    %edx,0x4(%esp)
    4223:	8b 55 dc             	mov    -0x24(%ebp),%edx
    4226:	89 44 24 0c          	mov    %eax,0xc(%esp)
    422a:	89 74 24 08          	mov    %esi,0x8(%esp)
    422e:	89 14 24             	mov    %edx,(%esp)
    4231:	e8 da 8c 00 00       	call   cf10 <str_ncpy>
    4236:	89 1c 24             	mov    %ebx,(%esp)
    4239:	e8 12 45 01 00       	call   18750 <free>
    423e:	8b 45 e4             	mov    -0x1c(%ebp),%eax
    4241:	89 45 08             	mov    %eax,0x8(%ebp)
    4244:	83 c4 3c             	add    $0x3c,%esp
    4247:	5b                   	pop    %ebx
    4248:	5e                   	pop    %esi
    4249:	5f                   	pop    %edi
    424a:	5d                   	pop    %ebp
    424b:	e9 00 45 01 00       	jmp    18750 <free>
    4250:	47                   	inc    %edi
    4251:	c7 44 24 04 fb 57 02 	movl   $0x257fb,0x4(%esp)
    4258:	00 
    4259:	89 3c 24             	mov    %edi,(%esp)
    425c:	e8 3f 84 00 00       	call   c6a0 <str_cmp>
    4261:	85 c0                	test   %eax,%eax
    4263:	75 ae                	jne    4213 <udf_to_unix_name+0x43>
    4265:	8b 45 e4             	mov    -0x1c(%ebp),%eax
    4268:	66 c7 03 00 00       	movw   $0x0,(%ebx)
    426d:	66 c7 00 00 00       	movw   $0x0,(%eax)
    4272:	8a 06                	mov    (%esi),%al
    4274:	3c 10                	cmp    $0x10,%al
    4276:	0f 85 24 01 00 00    	jne    43a0 <udf_to_unix_name+0x1d0>
    427c:	83 7d e0 01          	cmpl   $0x1,-0x20(%ebp)
    4280:	0f 86 29 01 00 00    	jbe    43af <udf_to_unix_name+0x1df>
    4286:	3c 10                	cmp    $0x10,%al
    4288:	0f 84 aa 00 00 00    	je     4338 <udf_to_unix_name+0x168>
    428e:	31 d2                	xor    %edx,%edx
    4290:	8b 4d e0             	mov    -0x20(%ebp),%ecx
    4293:	49                   	dec    %ecx
    4294:	8b 7d e0             	mov    -0x20(%ebp),%edi
    4297:	66 c7 04 53 00 00    	movw   $0x0,(%ebx,%edx,2)
    429d:	39 ca                	cmp    %ecx,%edx
    429f:	74 36                	je     42d7 <udf_to_unix_name+0x107>
    42a1:	8d b4 26 00 00 00 00 	lea    0x0(%esi,%eiz,1),%esi
    42a8:	31 c0                	xor    %eax,%eax
    42aa:	8a 44 16 01          	mov    0x1(%esi,%edx,1),%al
    42ae:	66 89 04 53          	mov    %ax,(%ebx,%edx,2)
    42b2:	8d 42 01             	lea    0x1(%edx),%eax
    42b5:	83 c2 02             	add    $0x2,%edx
    42b8:	39 d7                	cmp    %edx,%edi
    42ba:	89 c2                	mov    %eax,%edx
    42bc:	0f 86 ca 00 00 00    	jbe    438c <udf_to_unix_name+0x1bc>
    42c2:	3d ff 03 00 00       	cmp    $0x3ff,%eax
    42c7:	0f 87 bf 00 00 00    	ja     438c <udf_to_unix_name+0x1bc>
    42cd:	66 c7 04 53 00 00    	movw   $0x0,(%ebx,%edx,2)
    42d3:	39 ca                	cmp    %ecx,%edx
    42d5:	75 d1                	jne    42a8 <udf_to_unix_name+0xd8>
    42d7:	42                   	inc    %edx
    42d8:	66 8b 03             	mov    (%ebx),%ax
    42db:	66 85 c0             	test   %ax,%ax
    42de:	0f 84 cb 00 00 00    	je     43af <udf_to_unix_name+0x1df>
    42e4:	31 c0                	xor    %eax,%eax
    42e6:	66 90                	xchg   %ax,%ax
    42e8:	40                   	inc    %eax
    42e9:	66 83 3c 43 00       	cmpw   $0x0,(%ebx,%eax,2)
    42ee:	75 f8                	jne    42e8 <udf_to_unix_name+0x118>
    42f0:	39 c2                	cmp    %eax,%edx
    42f2:	72 0c                	jb     4300 <udf_to_unix_name+0x130>
    42f4:	31 d2                	xor    %edx,%edx
    42f6:	66 90                	xchg   %ax,%ax
    42f8:	42                   	inc    %edx
    42f9:	66 83 3c 53 00       	cmpw   $0x0,(%ebx,%edx,2)
    42fe:	75 f8                	jne    42f8 <udf_to_unix_name+0x128>
    4300:	8b 45 e4             	mov    -0x1c(%ebp),%eax
    4303:	89 54 24 08          	mov    %edx,0x8(%esp)
    4307:	89 5c 24 04          	mov    %ebx,0x4(%esp)
    430b:	89 04 24             	mov    %eax,(%esp)
    430e:	e8 0d fa ff ff       	call   3d20 <udf_translate_name>
    4313:	8b 55 e4             	mov    -0x1c(%ebp),%edx
    4316:	66 c7 04 42 00 00    	movw   $0x0,(%edx,%eax,2)
    431c:	89 54 24 08          	mov    %edx,0x8(%esp)
    4320:	8b 55 d8             	mov    -0x28(%ebp),%edx
    4323:	89 54 24 04          	mov    %edx,0x4(%esp)
    4327:	8b 55 dc             	mov    -0x24(%ebp),%edx
    432a:	89 14 24             	mov    %edx,(%esp)
    432d:	e8 4e 90 00 00       	call   d380 <utf16_to_str>
    4332:	e9 ff fe ff ff       	jmp    4236 <udf_to_unix_name+0x66>
    4337:	90                   	nop
    4338:	31 d2                	xor    %edx,%edx
    433a:	46                   	inc    %esi
    433b:	b9 01 00 00 00       	mov    $0x1,%ecx
    4340:	89 55 d4             	mov    %edx,-0x2c(%ebp)
    4343:	90                   	nop
    4344:	8d 74 26 00          	lea    0x0(%esi,%eiz,1),%esi
    4348:	31 c0                	xor    %eax,%eax
    434a:	8d 79 01             	lea    0x1(%ecx),%edi
    434d:	8a 06                	mov    (%esi),%al
    434f:	c1 e0 08             	shl    $0x8,%eax
    4352:	39 7d e0             	cmp    %edi,-0x20(%ebp)
    4355:	66 89 44 0b ff       	mov    %ax,-0x1(%ebx,%ecx,1)
    435a:	76 3c                	jbe    4398 <udf_to_unix_name+0x1c8>
    435c:	8a 56 01             	mov    0x1(%esi),%dl
    435f:	83 c6 02             	add    $0x2,%esi
    4362:	81 e2 ff 00 00 00    	and    $0xff,%edx
    4368:	89 d7                	mov    %edx,%edi
    436a:	8b 55 d4             	mov    -0x2c(%ebp),%edx
    436d:	42                   	inc    %edx
    436e:	09 c7                	or     %eax,%edi
    4370:	89 55 d4             	mov    %edx,-0x2c(%ebp)
    4373:	66 89 7c 0b ff       	mov    %di,-0x1(%ebx,%ecx,1)
    4378:	83 c1 02             	add    $0x2,%ecx
    437b:	81 7d d4 ff 03 00 00 	cmpl   $0x3ff,-0x2c(%ebp)
    4382:	77 05                	ja     4389 <udf_to_unix_name+0x1b9>
    4384:	39 4d e0             	cmp    %ecx,-0x20(%ebp)
    4387:	77 bf                	ja     4348 <udf_to_unix_name+0x178>
    4389:	8b 55 d4             	mov    -0x2c(%ebp),%edx
    438c:	66 8b 03             	mov    (%ebx),%ax
    438f:	e9 47 ff ff ff       	jmp    42db <udf_to_unix_name+0x10b>
    4394:	8d 74 26 00          	lea    0x0(%esi,%eiz,1),%esi
    4398:	8b 55 d4             	mov    -0x2c(%ebp),%edx
    439b:	e9 37 ff ff ff       	jmp    42d7 <udf_to_unix_name+0x107>
    43a0:	31 d2                	xor    %edx,%edx
    43a2:	3c 08                	cmp    $0x8,%al
    43a4:	0f 84 d2 fe ff ff    	je     427c <udf_to_unix_name+0xac>
    43aa:	e9 51 ff ff ff       	jmp    4300 <udf_to_unix_name+0x130>
    43af:	31 d2                	xor    %edx,%edx
    43b1:	e9 4a ff ff ff       	jmp    4300 <udf_to_unix_name+0x130>
    43b6:	66 90                	xchg   %ax,%ax
    43b8:	66 90                	xchg   %ax,%ax
    43ba:	66 90                	xchg   %ax,%ax
    43bc:	66 90                	xchg   %ax,%ax
    43be:	66 90                	xchg   %ax,%ax

000043c0 <udf_unicode_cksum>:
    43c0:	55                   	push   %ebp
    43c1:	89 e5                	mov    %esp,%ebp
    43c3:	57                   	push   %edi
    43c4:	56                   	push   %esi
    43c5:	53                   	push   %ebx
    43c6:	8b 75 0c             	mov    0xc(%ebp),%esi
    43c9:	8b 7d 08             	mov    0x8(%ebp),%edi
    43cc:	85 f6                	test   %esi,%esi
    43ce:	74 41                	je     4411 <udf_unicode_cksum+0x51>
    43d0:	31 d2                	xor    %edx,%edx
    43d2:	31 c0                	xor    %eax,%eax
    43d4:	8d 74 26 00          	lea    0x0(%esi,%eiz,1),%esi
    43d8:	66 8b 0c 57          	mov    (%edi,%edx,2),%cx
    43dc:	89 c3                	mov    %eax,%ebx
    43de:	31 cb                	xor    %ecx,%ebx
    43e0:	42                   	inc    %edx
    43e1:	0f b6 df             	movzbl %bh,%ebx
    43e4:	c1 e0 08             	shl    $0x8,%eax
    43e7:	66 33 84 1b 20 58 02 	xor    0x25820(%ebx,%ebx,1),%ax
    43ee:	00 
    43ef:	89 c3                	mov    %eax,%ebx
    43f1:	66 c1 eb 08          	shr    $0x8,%bx
    43f5:	c1 e0 08             	shl    $0x8,%eax
    43f8:	31 d9                	xor    %ebx,%ecx
    43fa:	81 e1 ff 00 00 00    	and    $0xff,%ecx
    4400:	66 33 84 09 20 58 02 	xor    0x25820(%ecx,%ecx,1),%ax
    4407:	00 
    4408:	39 f2                	cmp    %esi,%edx
    440a:	75 cc                	jne    43d8 <udf_unicode_cksum+0x18>
    440c:	5b                   	pop    %ebx
    440d:	5e                   	pop    %esi
    440e:	5f                   	pop    %edi
    440f:	5d                   	pop    %ebp
    4410:	c3                   	ret    
    4411:	31 c0                	xor    %eax,%eax
    4413:	eb f7                	jmp    440c <udf_unicode_cksum+0x4c>
    4415:	8d 74 26 00          	lea    0x0(%esi,%eiz,1),%esi
    4419:	8d bc 27 00 00 00 00 	lea    0x0(%edi,%eiz,1),%edi

00004420 <udf_tag_checksum>:
    4420:	55                   	push   %ebp
    4421:	ba 01 00 00 00       	mov    $0x1,%edx
    4426:	89 e5                	mov    %esp,%ebp
    4428:	31 c0                	xor    %eax,%eax
    442a:	8b 4d 08             	mov    0x8(%ebp),%ecx
    442d:	8d 76 00             	lea    0x0(%esi),%esi
    4430:	83 fa 05             	cmp    $0x5,%edx
    4433:	74 09                	je     443e <udf_tag_checksum+0x1e>
    4435:	02 44 11 ff          	add    -0x1(%ecx,%edx,1),%al
    4439:	83 fa 10             	cmp    $0x10,%edx
    443c:	74 0a                	je     4448 <udf_tag_checksum+0x28>
    443e:	42                   	inc    %edx
    443f:	eb ef                	jmp    4430 <udf_tag_checksum+0x10>
    4441:	8d b4 26 00 00 00 00 	lea    0x0(%esi,%eiz,1),%esi
    4448:	5d                   	pop    %ebp
    4449:	c3                   	ret    
    444a:	66 90                	xchg   %ax,%ax
    444c:	66 90                	xchg   %ax,%ax
    444e:	66 90                	xchg   %ax,%ax

00004450 <udf_read_allocation_sequence>:
    4450:	55                   	push   %ebp
    4451:	89 e5                	mov    %esp,%ebp
    4453:	57                   	push   %edi
    4454:	56                   	push   %esi
    4455:	53                   	push   %ebx
    4456:	83 ec 5c             	sub    $0x5c,%esp
    4459:	8b 5d 08             	mov    0x8(%ebp),%ebx
    445c:	8b 45 10             	mov    0x10(%ebp),%eax
    445f:	66 83 f8 01          	cmp    $0x1,%ax
    4463:	c7 43 40 00 00 00 00 	movl   $0x0,0x40(%ebx)
    446a:	0f 84 c8 01 00 00    	je     4638 <udf_read_allocation_sequence+0x1e8>
    4470:	72 1e                	jb     4490 <udf_read_allocation_sequence+0x40>
    4472:	66 83 f8 02          	cmp    $0x2,%ax
    4476:	0f 84 34 03 00 00    	je     47b0 <udf_read_allocation_sequence+0x360>
    447c:	66 83 f8 03          	cmp    $0x3,%ax
    4480:	0f 84 52 01 00 00    	je     45d8 <udf_read_allocation_sequence+0x188>
    4486:	31 c0                	xor    %eax,%eax
    4488:	83 c4 5c             	add    $0x5c,%esp
    448b:	5b                   	pop    %ebx
    448c:	5e                   	pop    %esi
    448d:	5f                   	pop    %edi
    448e:	5d                   	pop    %ebp
    448f:	c3                   	ret    
    4490:	c7 44 24 08 20 5a 02 	movl   $0x25a20,0x8(%esp)
    4497:	00 
    4498:	c7 44 24 04 04 00 00 	movl   $0x4,0x4(%esp)
    449f:	00 
    44a0:	c7 04 24 ff ff ff ff 	movl   $0xffffffff,(%esp)
    44a7:	e8 24 f1 00 00       	call   135d0 <log_msg>
    44ac:	8b 03                	mov    (%ebx),%eax
    44ae:	8b 70 54             	mov    0x54(%eax),%esi
    44b1:	89 45 d4             	mov    %eax,-0x2c(%ebp)
    44b4:	85 f6                	test   %esi,%esi
    44b6:	0f 84 fb 03 00 00    	je     48b7 <udf_read_allocation_sequence+0x467>
    44bc:	8b 50 50             	mov    0x50(%eax),%edx
    44bf:	8b 7b 18             	mov    0x18(%ebx),%edi
    44c2:	89 55 d0             	mov    %edx,-0x30(%ebp)
    44c5:	89 d0                	mov    %edx,%eax
    44c7:	c7 45 cc 00 00 00 00 	movl   $0x0,-0x34(%ebp)
    44ce:	31 d2                	xor    %edx,%edx
    44d0:	c7 45 c8 ff ff ff ff 	movl   $0xffffffff,-0x38(%ebp)
    44d7:	89 5d c4             	mov    %ebx,-0x3c(%ebp)
    44da:	8d b6 00 00 00 00    	lea    0x0(%esi),%esi
    44e0:	8b 48 08             	mov    0x8(%eax),%ecx
    44e3:	39 f9                	cmp    %edi,%ecx
    44e5:	77 19                	ja     4500 <udf_read_allocation_sequence+0xb0>
    44e7:	8b 58 0c             	mov    0xc(%eax),%ebx
    44ea:	01 cb                	add    %ecx,%ebx
    44ec:	39 fb                	cmp    %edi,%ebx
    44ee:	76 10                	jbe    4500 <udf_read_allocation_sequence+0xb0>
    44f0:	3b 4d cc             	cmp    -0x34(%ebp),%ecx
    44f3:	72 0b                	jb     4500 <udf_read_allocation_sequence+0xb0>
    44f5:	89 4d cc             	mov    %ecx,-0x34(%ebp)
    44f8:	89 55 c8             	mov    %edx,-0x38(%ebp)
    44fb:	90                   	nop
    44fc:	8d 74 26 00          	lea    0x0(%esi,%eiz,1),%esi
    4500:	42                   	inc    %edx
    4501:	83 c0 10             	add    $0x10,%eax
    4504:	39 f2                	cmp    %esi,%edx
    4506:	75 d8                	jne    44e0 <udf_read_allocation_sequence+0x90>
    4508:	8b 5d c4             	mov    -0x3c(%ebp),%ebx
    450b:	83 7d c8 ff          	cmpl   $0xffffffff,-0x38(%ebp)
    450f:	0f 84 a2 03 00 00    	je     48b7 <udf_read_allocation_sequence+0x467>
    4515:	8b 53 40             	mov    0x40(%ebx),%edx
    4518:	8b 75 14             	mov    0x14(%ebp),%esi
    451b:	8b 4d 0c             	mov    0xc(%ebp),%ecx
    451e:	8d 3c d5 00 00 00 00 	lea    0x0(,%edx,8),%edi
    4525:	01 fe                	add    %edi,%esi
    4527:	01 ce                	add    %ecx,%esi
    4529:	8b 06                	mov    (%esi),%eax
    452b:	85 c0                	test   %eax,%eax
    452d:	0f 84 6f 03 00 00    	je     48a2 <udf_read_allocation_sequence+0x452>
    4533:	c1 e8 1e             	shr    $0x1e,%eax
    4536:	83 f8 03             	cmp    $0x3,%eax
    4539:	0f 84 97 02 00 00    	je     47d6 <udf_read_allocation_sequence+0x386>
    453f:	8b 4d c8             	mov    -0x38(%ebp),%ecx
    4542:	8b 43 3c             	mov    0x3c(%ebx),%eax
    4545:	c1 e1 04             	shl    $0x4,%ecx
    4548:	89 4d cc             	mov    %ecx,-0x34(%ebp)
    454b:	eb 0f                	jmp    455c <udf_read_allocation_sequence+0x10c>
    454d:	8d 76 00             	lea    0x0(%esi),%esi
    4550:	c1 e9 1e             	shr    $0x1e,%ecx
    4553:	83 f9 03             	cmp    $0x3,%ecx
    4556:	0f 84 84 02 00 00    	je     47e0 <udf_read_allocation_sequence+0x390>
    455c:	8d 14 d5 08 00 00 00 	lea    0x8(,%edx,8),%edx
    4563:	89 04 24             	mov    %eax,(%esp)
    4566:	89 54 24 04          	mov    %edx,0x4(%esp)
    456a:	e8 31 44 01 00       	call   189a0 <realloc>
    456f:	8b 7b 40             	mov    0x40(%ebx),%edi
    4572:	8b 0e                	mov    (%esi),%ecx
    4574:	89 43 3c             	mov    %eax,0x3c(%ebx)
    4577:	8d 14 f8             	lea    (%eax,%edi,8),%edx
    457a:	81 e1 ff ff ff 3f    	and    $0x3fffffff,%ecx
    4580:	89 0a                	mov    %ecx,(%edx)
    4582:	8b 0b                	mov    (%ebx),%ecx
    4584:	89 4d d4             	mov    %ecx,-0x2c(%ebp)
    4587:	8b 79 50             	mov    0x50(%ecx),%edi
    458a:	8b 4e 04             	mov    0x4(%esi),%ecx
    458d:	8b 75 cc             	mov    -0x34(%ebp),%esi
    4590:	89 7d d0             	mov    %edi,-0x30(%ebp)
    4593:	03 4c 37 08          	add    0x8(%edi,%esi,1),%ecx
    4597:	8b 75 14             	mov    0x14(%ebp),%esi
    459a:	89 4a 04             	mov    %ecx,0x4(%edx)
    459d:	8b 53 40             	mov    0x40(%ebx),%edx
    45a0:	42                   	inc    %edx
    45a1:	8b 4d 0c             	mov    0xc(%ebp),%ecx
    45a4:	89 53 40             	mov    %edx,0x40(%ebx)
    45a7:	8d 3c d5 00 00 00 00 	lea    0x0(,%edx,8),%edi
    45ae:	01 fe                	add    %edi,%esi
    45b0:	01 ce                	add    %ecx,%esi
    45b2:	8b 0e                	mov    (%esi),%ecx
    45b4:	85 c9                	test   %ecx,%ecx
    45b6:	75 98                	jne    4550 <udf_read_allocation_sequence+0x100>
    45b8:	89 7c 24 04          	mov    %edi,0x4(%esp)
    45bc:	89 04 24             	mov    %eax,(%esp)
    45bf:	e8 dc 43 01 00       	call   189a0 <realloc>
    45c4:	89 43 3c             	mov    %eax,0x3c(%ebx)
    45c7:	83 c4 5c             	add    $0x5c,%esp
    45ca:	31 c0                	xor    %eax,%eax
    45cc:	5b                   	pop    %ebx
    45cd:	5e                   	pop    %esi
    45ce:	5f                   	pop    %edi
    45cf:	5d                   	pop    %ebp
    45d0:	c3                   	ret    
    45d1:	8d b4 26 00 00 00 00 	lea    0x0(%esi,%eiz,1),%esi
    45d8:	c7 44 24 08 18 5b 02 	movl   $0x25b18,0x8(%esp)
    45df:	00 
    45e0:	c7 44 24 04 04 00 00 	movl   $0x4,0x4(%esp)
    45e7:	00 
    45e8:	c7 04 24 ff ff ff ff 	movl   $0xffffffff,(%esp)
    45ef:	e8 dc ef 00 00       	call   135d0 <log_msg>
    45f4:	8b 43 30             	mov    0x30(%ebx),%eax
    45f7:	89 04 24             	mov    %eax,(%esp)
    45fa:	e8 41 40 01 00       	call   18640 <malloc>
    45ff:	89 43 38             	mov    %eax,0x38(%ebx)
    4602:	85 c0                	test   %eax,%eax
    4604:	0f 84 b5 02 00 00    	je     48bf <udf_read_allocation_sequence+0x46f>
    460a:	8b 53 30             	mov    0x30(%ebx),%edx
    460d:	8b 4d 14             	mov    0x14(%ebp),%ecx
    4610:	89 54 24 08          	mov    %edx,0x8(%esp)
    4614:	8b 55 0c             	mov    0xc(%ebp),%edx
    4617:	01 ca                	add    %ecx,%edx
    4619:	89 04 24             	mov    %eax,(%esp)
    461c:	89 54 24 04          	mov    %edx,0x4(%esp)
    4620:	e8 3b 6d 00 00       	call   b360 <memcpy>
    4625:	c7 43 40 00 00 00 00 	movl   $0x0,0x40(%ebx)
    462c:	83 c4 5c             	add    $0x5c,%esp
    462f:	31 c0                	xor    %eax,%eax
    4631:	5b                   	pop    %ebx
    4632:	5e                   	pop    %esi
    4633:	5f                   	pop    %edi
    4634:	5d                   	pop    %ebp
    4635:	c3                   	ret    
    4636:	66 90                	xchg   %ax,%ax
    4638:	c7 44 24 08 94 5a 02 	movl   $0x25a94,0x8(%esp)
    463f:	00 
    4640:	c7 44 24 04 04 00 00 	movl   $0x4,0x4(%esp)
    4647:	00 
    4648:	c7 04 24 ff ff ff ff 	movl   $0xffffffff,(%esp)
    464f:	e8 7c ef 00 00       	call   135d0 <log_msg>
    4654:	8b 53 40             	mov    0x40(%ebx),%edx
    4657:	89 d6                	mov    %edx,%esi
    4659:	8b 45 14             	mov    0x14(%ebp),%eax
    465c:	c1 e6 04             	shl    $0x4,%esi
    465f:	01 c6                	add    %eax,%esi
    4661:	8b 45 0c             	mov    0xc(%ebp),%eax
    4664:	01 c6                	add    %eax,%esi
    4666:	8b 06                	mov    (%esi),%eax
    4668:	85 c0                	test   %eax,%eax
    466a:	75 5a                	jne    46c6 <udf_read_allocation_sequence+0x276>
    466c:	e9 1e 01 00 00       	jmp    478f <udf_read_allocation_sequence+0x33f>
    4671:	8d b4 26 00 00 00 00 	lea    0x0(%esi,%eiz,1),%esi
    4678:	8b 43 40             	mov    0x40(%ebx),%eax
    467b:	8d 04 c5 08 00 00 00 	lea    0x8(,%eax,8),%eax
    4682:	89 44 24 04          	mov    %eax,0x4(%esp)
    4686:	8b 43 3c             	mov    0x3c(%ebx),%eax
    4689:	89 04 24             	mov    %eax,(%esp)
    468c:	e8 0f 43 01 00       	call   189a0 <realloc>
    4691:	8b 53 40             	mov    0x40(%ebx),%edx
    4694:	8b 36                	mov    (%esi),%esi
    4696:	89 43 3c             	mov    %eax,0x3c(%ebx)
    4699:	89 c1                	mov    %eax,%ecx
    469b:	8d 04 d0             	lea    (%eax,%edx,8),%eax
    469e:	81 e6 ff ff ff 3f    	and    $0x3fffffff,%esi
    46a4:	42                   	inc    %edx
    46a5:	89 30                	mov    %esi,(%eax)
    46a7:	89 d6                	mov    %edx,%esi
    46a9:	c1 e6 04             	shl    $0x4,%esi
    46ac:	89 78 04             	mov    %edi,0x4(%eax)
    46af:	8b 7d 14             	mov    0x14(%ebp),%edi
    46b2:	8b 45 0c             	mov    0xc(%ebp),%eax
    46b5:	01 fe                	add    %edi,%esi
    46b7:	89 53 40             	mov    %edx,0x40(%ebx)
    46ba:	01 c6                	add    %eax,%esi
    46bc:	8b 06                	mov    (%esi),%eax
    46be:	85 c0                	test   %eax,%eax
    46c0:	0f 84 ea 01 00 00    	je     48b0 <udf_read_allocation_sequence+0x460>
    46c6:	89 74 24 04          	mov    %esi,0x4(%esp)
    46ca:	8b 03                	mov    (%ebx),%eax
    46cc:	89 04 24             	mov    %eax,(%esp)
    46cf:	e8 7c cb ff ff       	call   1250 <udf_long_ad_to_pos>
    46d4:	89 c7                	mov    %eax,%edi
    46d6:	8b 06                	mov    (%esi),%eax
    46d8:	c1 e8 1e             	shr    $0x1e,%eax
    46db:	83 f8 03             	cmp    $0x3,%eax
    46de:	75 98                	jne    4678 <udf_read_allocation_sequence+0x228>
    46e0:	c7 44 24 10 00 00 00 	movl   $0x0,0x10(%esp)
    46e7:	00 
    46e8:	89 7c 24 08          	mov    %edi,0x8(%esp)
    46ec:	c7 44 24 0c 00 00 00 	movl   $0x0,0xc(%esp)
    46f3:	00 
    46f4:	c7 45 e4 00 00 00 00 	movl   $0x0,-0x1c(%ebp)
    46fb:	8b 03                	mov    (%ebx),%eax
    46fd:	8b 00                	mov    (%eax),%eax
    46ff:	89 44 24 04          	mov    %eax,0x4(%esp)
    4703:	8d 45 e4             	lea    -0x1c(%ebp),%eax
    4706:	89 04 24             	mov    %eax,(%esp)
    4709:	e8 42 18 00 00       	call   5f50 <block_get>
    470e:	85 c0                	test   %eax,%eax
    4710:	75 7a                	jne    478c <udf_read_allocation_sequence+0x33c>
    4712:	8b 45 e4             	mov    -0x1c(%ebp),%eax
    4715:	8b 0b                	mov    (%ebx),%ecx
    4717:	8b 70 54             	mov    0x54(%eax),%esi
    471a:	8b 79 50             	mov    0x50(%ecx),%edi
    471d:	66 8b 46 10          	mov    0x10(%esi),%ax
    4721:	8b 56 0c             	mov    0xc(%esi),%edx
    4724:	25 ff ff 00 00       	and    $0xffff,%eax
    4729:	c1 e0 04             	shl    $0x4,%eax
    472c:	01 f8                	add    %edi,%eax
    472e:	8b 78 08             	mov    0x8(%eax),%edi
    4731:	8b 46 08             	mov    0x8(%esi),%eax
    4734:	01 d7                	add    %edx,%edi
    4736:	89 44 24 14          	mov    %eax,0x14(%esp)
    473a:	89 54 24 10          	mov    %edx,0x10(%esp)
    473e:	89 7c 24 0c          	mov    %edi,0xc(%esp)
    4742:	c7 44 24 08 60 5a 02 	movl   $0x25a60,0x8(%esp)
    4749:	00 
    474a:	c7 44 24 04 04 00 00 	movl   $0x4,0x4(%esp)
    4751:	00 
    4752:	c7 04 24 ff ff ff ff 	movl   $0xffffffff,(%esp)
    4759:	e8 72 ee 00 00       	call   135d0 <log_msg>
    475e:	8b 45 e4             	mov    -0x1c(%ebp),%eax
    4761:	8b 76 08             	mov    0x8(%esi),%esi
    4764:	89 04 24             	mov    %eax,(%esp)
    4767:	e8 34 15 00 00       	call   5ca0 <block_put>
    476c:	89 74 24 10          	mov    %esi,0x10(%esp)
    4770:	89 7c 24 0c          	mov    %edi,0xc(%esp)
    4774:	c7 44 24 08 01 00 00 	movl   $0x1,0x8(%esp)
    477b:	00 
    477c:	c7 44 24 04 00 00 00 	movl   $0x0,0x4(%esp)
    4783:	00 
    4784:	89 1c 24             	mov    %ebx,(%esp)
    4787:	e8 c4 fc ff ff       	call   4450 <udf_read_allocation_sequence>
    478c:	8b 53 40             	mov    0x40(%ebx),%edx
    478f:	8b 43 3c             	mov    0x3c(%ebx),%eax
    4792:	c1 e2 03             	shl    $0x3,%edx
    4795:	89 04 24             	mov    %eax,(%esp)
    4798:	89 54 24 04          	mov    %edx,0x4(%esp)
    479c:	e8 ff 41 01 00       	call   189a0 <realloc>
    47a1:	89 43 3c             	mov    %eax,0x3c(%ebx)
    47a4:	83 c4 5c             	add    $0x5c,%esp
    47a7:	31 c0                	xor    %eax,%eax
    47a9:	5b                   	pop    %ebx
    47aa:	5e                   	pop    %esi
    47ab:	5f                   	pop    %edi
    47ac:	5d                   	pop    %ebp
    47ad:	c3                   	ret    
    47ae:	66 90                	xchg   %ax,%ax
    47b0:	c7 44 24 08 d4 5a 02 	movl   $0x25ad4,0x8(%esp)
    47b7:	00 
    47b8:	c7 44 24 04 04 00 00 	movl   $0x4,0x4(%esp)
    47bf:	00 
    47c0:	c7 04 24 ff ff ff ff 	movl   $0xffffffff,(%esp)
    47c7:	e8 04 ee 00 00       	call   135d0 <log_msg>
    47cc:	83 c4 5c             	add    $0x5c,%esp
    47cf:	31 c0                	xor    %eax,%eax
    47d1:	5b                   	pop    %ebx
    47d2:	5e                   	pop    %esi
    47d3:	5f                   	pop    %edi
    47d4:	5d                   	pop    %ebp
    47d5:	c3                   	ret    
    47d6:	8b 4d c8             	mov    -0x38(%ebp),%ecx
    47d9:	c1 e1 04             	shl    $0x4,%ecx
    47dc:	89 4d cc             	mov    %ecx,-0x34(%ebp)
    47df:	90                   	nop
    47e0:	8b 46 04             	mov    0x4(%esi),%eax
    47e3:	8b 7d d0             	mov    -0x30(%ebp),%edi
    47e6:	8b 75 cc             	mov    -0x34(%ebp),%esi
    47e9:	8b 54 37 08          	mov    0x8(%edi,%esi,1),%edx
    47ed:	c7 44 24 10 00 00 00 	movl   $0x0,0x10(%esp)
    47f4:	00 
    47f5:	01 d0                	add    %edx,%eax
    47f7:	8b 55 d4             	mov    -0x2c(%ebp),%edx
    47fa:	89 44 24 08          	mov    %eax,0x8(%esp)
    47fe:	c7 44 24 0c 00 00 00 	movl   $0x0,0xc(%esp)
    4805:	00 
    4806:	8b 02                	mov    (%edx),%eax
    4808:	c7 45 e4 00 00 00 00 	movl   $0x0,-0x1c(%ebp)
    480f:	89 44 24 04          	mov    %eax,0x4(%esp)
    4813:	8d 45 e4             	lea    -0x1c(%ebp),%eax
    4816:	89 04 24             	mov    %eax,(%esp)
    4819:	e8 32 17 00 00       	call   5f50 <block_get>
    481e:	85 c0                	test   %eax,%eax
    4820:	75 7a                	jne    489c <udf_read_allocation_sequence+0x44c>
    4822:	8b 45 e4             	mov    -0x1c(%ebp),%eax
    4825:	8b 0b                	mov    (%ebx),%ecx
    4827:	8b 70 54             	mov    0x54(%eax),%esi
    482a:	8b 79 50             	mov    0x50(%ecx),%edi
    482d:	66 8b 46 10          	mov    0x10(%esi),%ax
    4831:	8b 56 0c             	mov    0xc(%esi),%edx
    4834:	25 ff ff 00 00       	and    $0xffff,%eax
    4839:	c1 e0 04             	shl    $0x4,%eax
    483c:	01 f8                	add    %edi,%eax
    483e:	8b 78 08             	mov    0x8(%eax),%edi
    4841:	8b 46 08             	mov    0x8(%esi),%eax
    4844:	01 d7                	add    %edx,%edi
    4846:	89 44 24 14          	mov    %eax,0x14(%esp)
    484a:	89 54 24 10          	mov    %edx,0x10(%esp)
    484e:	89 7c 24 0c          	mov    %edi,0xc(%esp)
    4852:	c7 44 24 08 60 5a 02 	movl   $0x25a60,0x8(%esp)
    4859:	00 
    485a:	c7 44 24 04 04 00 00 	movl   $0x4,0x4(%esp)
    4861:	00 
    4862:	c7 04 24 ff ff ff ff 	movl   $0xffffffff,(%esp)
    4869:	e8 62 ed 00 00       	call   135d0 <log_msg>
    486e:	8b 45 e4             	mov    -0x1c(%ebp),%eax
    4871:	8b 76 08             	mov    0x8(%esi),%esi
    4874:	89 04 24             	mov    %eax,(%esp)
    4877:	e8 24 14 00 00       	call   5ca0 <block_put>
    487c:	89 74 24 10          	mov    %esi,0x10(%esp)
    4880:	89 7c 24 0c          	mov    %edi,0xc(%esp)
    4884:	c7 44 24 08 00 00 00 	movl   $0x0,0x8(%esp)
    488b:	00 
    488c:	c7 44 24 04 00 00 00 	movl   $0x0,0x4(%esp)
    4893:	00 
    4894:	89 1c 24             	mov    %ebx,(%esp)
    4897:	e8 b4 fb ff ff       	call   4450 <udf_read_allocation_sequence>
    489c:	8b 7b 40             	mov    0x40(%ebx),%edi
    489f:	c1 e7 03             	shl    $0x3,%edi
    48a2:	8b 43 3c             	mov    0x3c(%ebx),%eax
    48a5:	e9 0e fd ff ff       	jmp    45b8 <udf_read_allocation_sequence+0x168>
    48aa:	8d b6 00 00 00 00    	lea    0x0(%esi),%esi
    48b0:	89 c8                	mov    %ecx,%eax
    48b2:	e9 db fe ff ff       	jmp    4792 <udf_read_allocation_sequence+0x342>
    48b7:	83 c8 ff             	or     $0xffffffff,%eax
    48ba:	e9 c9 fb ff ff       	jmp    4488 <udf_read_allocation_sequence+0x38>
    48bf:	b8 fe ff ff ff       	mov    $0xfffffffe,%eax
    48c4:	e9 bf fb ff ff       	jmp    4488 <udf_read_allocation_sequence+0x38>
    48c9:	8d b4 26 00 00 00 00 	lea    0x0(%esi,%eiz,1),%esi

000048d0 <udf_read_icb>:
    48d0:	55                   	push   %ebp
    48d1:	89 e5                	mov    %esp,%ebp
    48d3:	57                   	push   %edi
    48d4:	56                   	push   %esi
    48d5:	53                   	push   %ebx
    48d6:	83 ec 4c             	sub    $0x4c,%esp
    48d9:	8b 5d 08             	mov    0x8(%ebp),%ebx
    48dc:	8b 43 18             	mov    0x18(%ebx),%eax
    48df:	c7 44 24 10 00 00 00 	movl   $0x0,0x10(%esp)
    48e6:	00 
    48e7:	89 44 24 08          	mov    %eax,0x8(%esp)
    48eb:	c7 44 24 0c 00 00 00 	movl   $0x0,0xc(%esp)
    48f2:	00 
    48f3:	8b 03                	mov    (%ebx),%eax
    48f5:	c7 45 e4 00 00 00 00 	movl   $0x0,-0x1c(%ebp)
    48fc:	8b 00                	mov    (%eax),%eax
    48fe:	89 44 24 04          	mov    %eax,0x4(%esp)
    4902:	8d 45 e4             	lea    -0x1c(%ebp),%eax
    4905:	89 04 24             	mov    %eax,(%esp)
    4908:	e8 43 16 00 00       	call   5f50 <block_get>
    490d:	89 c6                	mov    %eax,%esi
    490f:	85 c0                	test   %eax,%eax
    4911:	75 4d                	jne    4960 <udf_read_icb+0x90>
    4913:	8b 45 e4             	mov    -0x1c(%ebp),%eax
    4916:	8b 78 54             	mov    0x54(%eax),%edi
    4919:	8a 47 04             	mov    0x4(%edi),%al
    491c:	89 3c 24             	mov    %edi,(%esp)
    491f:	88 45 d7             	mov    %al,-0x29(%ebp)
    4922:	e8 f9 fa ff ff       	call   4420 <udf_tag_checksum>
    4927:	38 45 d7             	cmp    %al,-0x29(%ebp)
    492a:	0f 85 50 01 00 00    	jne    4a80 <udf_read_icb+0x1b0>
    4930:	66 8b 07             	mov    (%edi),%ax
    4933:	66 3d 05 01          	cmp    $0x105,%ax
    4937:	0f 84 eb 00 00 00    	je     4a28 <udf_read_icb+0x158>
    493d:	66 3d 0a 01          	cmp    $0x10a,%ax
    4941:	74 65                	je     49a8 <udf_read_icb+0xd8>
    4943:	66 3d 04 01          	cmp    $0x104,%ax
    4947:	74 27                	je     4970 <udf_read_icb+0xa0>
    4949:	8b 45 e4             	mov    -0x1c(%ebp),%eax
    494c:	89 04 24             	mov    %eax,(%esp)
    494f:	e8 4c 13 00 00       	call   5ca0 <block_put>
    4954:	89 c6                	mov    %eax,%esi
    4956:	85 c0                	test   %eax,%eax
    4958:	74 82                	je     48dc <udf_read_icb+0xc>
    495a:	8d b6 00 00 00 00    	lea    0x0(%esi),%esi
    4960:	83 c4 4c             	add    $0x4c,%esp
    4963:	89 f0                	mov    %esi,%eax
    4965:	5b                   	pop    %ebx
    4966:	5e                   	pop    %esi
    4967:	5f                   	pop    %edi
    4968:	5d                   	pop    %ebp
    4969:	c3                   	ret    
    496a:	8d b6 00 00 00 00    	lea    0x0(%esi),%esi
    4970:	c7 44 24 08 6c 5b 02 	movl   $0x25b6c,0x8(%esp)
    4977:	00 
    4978:	c7 44 24 04 04 00 00 	movl   $0x4,0x4(%esp)
    497f:	00 
    4980:	c7 04 24 ff ff ff ff 	movl   $0xffffffff,(%esp)
    4987:	e8 44 ec 00 00       	call   135d0 <log_msg>
    498c:	8b 45 e4             	mov    -0x1c(%ebp),%eax
    498f:	89 04 24             	mov    %eax,(%esp)
    4992:	e8 09 13 00 00       	call   5ca0 <block_put>
    4997:	83 c4 4c             	add    $0x4c,%esp
    499a:	89 f0                	mov    %esi,%eax
    499c:	5b                   	pop    %ebx
    499d:	5e                   	pop    %esi
    499e:	5f                   	pop    %edi
    499f:	5d                   	pop    %ebp
    49a0:	c3                   	ret    
    49a1:	8d b4 26 00 00 00 00 	lea    0x0(%esi,%eiz,1),%esi
    49a8:	c7 44 24 08 a8 55 02 	movl   $0x255a8,0x8(%esp)
    49af:	00 
    49b0:	c7 44 24 04 04 00 00 	movl   $0x4,0x4(%esp)
    49b7:	00 
    49b8:	c7 04 24 ff ff ff ff 	movl   $0xffffffff,(%esp)
    49bf:	e8 0c ec 00 00       	call   135d0 <log_msg>
    49c4:	8b 45 e4             	mov    -0x1c(%ebp),%eax
    49c7:	8b 48 54             	mov    0x54(%eax),%ecx
    49ca:	8b 41 38             	mov    0x38(%ecx),%eax
    49cd:	8b 51 3c             	mov    0x3c(%ecx),%edx
    49d0:	66 8b 71 22          	mov    0x22(%ecx),%si
    49d4:	89 43 30             	mov    %eax,0x30(%ebx)
    49d7:	89 53 34             	mov    %edx,0x34(%ebx)
    49da:	80 79 1b 04          	cmpb   $0x4,0x1b(%ecx)
    49de:	0f 95 43 2c          	setne  0x2c(%ebx)
    49e2:	8b 81 c0 00 00 00    	mov    0xc0(%ecx),%eax
    49e8:	89 44 24 10          	mov    %eax,0x10(%esp)
    49ec:	8b 81 bc 00 00 00    	mov    0xbc(%ecx),%eax
    49f2:	05 d8 00 00 00       	add    $0xd8,%eax
    49f7:	89 44 24 0c          	mov    %eax,0xc(%esp)
    49fb:	89 f0                	mov    %esi,%eax
    49fd:	83 e0 07             	and    $0x7,%eax
    4a00:	89 4c 24 04          	mov    %ecx,0x4(%esp)
    4a04:	89 1c 24             	mov    %ebx,(%esp)
    4a07:	89 44 24 08          	mov    %eax,0x8(%esp)
    4a0b:	e8 40 fa ff ff       	call   4450 <udf_read_allocation_sequence>
    4a10:	89 c6                	mov    %eax,%esi
    4a12:	8b 45 e4             	mov    -0x1c(%ebp),%eax
    4a15:	89 04 24             	mov    %eax,(%esp)
    4a18:	e8 83 12 00 00       	call   5ca0 <block_put>
    4a1d:	83 c4 4c             	add    $0x4c,%esp
    4a20:	89 f0                	mov    %esi,%eax
    4a22:	5b                   	pop    %ebx
    4a23:	5e                   	pop    %esi
    4a24:	5f                   	pop    %edi
    4a25:	5d                   	pop    %ebp
    4a26:	c3                   	ret    
    4a27:	90                   	nop
    4a28:	c7 44 24 08 84 55 02 	movl   $0x25584,0x8(%esp)
    4a2f:	00 
    4a30:	c7 44 24 04 04 00 00 	movl   $0x4,0x4(%esp)
    4a37:	00 
    4a38:	c7 04 24 ff ff ff ff 	movl   $0xffffffff,(%esp)
    4a3f:	e8 8c eb 00 00       	call   135d0 <log_msg>
    4a44:	8b 45 e4             	mov    -0x1c(%ebp),%eax
    4a47:	8b 48 54             	mov    0x54(%eax),%ecx
    4a4a:	8b 41 38             	mov    0x38(%ecx),%eax
    4a4d:	8b 51 3c             	mov    0x3c(%ecx),%edx
    4a50:	66 8b 71 22          	mov    0x22(%ecx),%si
    4a54:	89 43 30             	mov    %eax,0x30(%ebx)
    4a57:	89 53 34             	mov    %edx,0x34(%ebx)
    4a5a:	80 79 1b 04          	cmpb   $0x4,0x1b(%ecx)
    4a5e:	0f 95 43 2c          	setne  0x2c(%ebx)
    4a62:	8b 81 ac 00 00 00    	mov    0xac(%ecx),%eax
    4a68:	89 44 24 10          	mov    %eax,0x10(%esp)
    4a6c:	8b 81 a8 00 00 00    	mov    0xa8(%ecx),%eax
    4a72:	05 b0 00 00 00       	add    $0xb0,%eax
    4a77:	e9 7b ff ff ff       	jmp    49f7 <udf_read_icb+0x127>
    4a7c:	8d 74 26 00          	lea    0x0(%esi,%eiz,1),%esi
    4a80:	8b 45 e4             	mov    -0x1c(%ebp),%eax
    4a83:	be f2 ff ff ff       	mov    $0xfffffff2,%esi
    4a88:	89 04 24             	mov    %eax,(%esp)
    4a8b:	e8 10 12 00 00       	call   5ca0 <block_put>
    4a90:	e9 cb fe ff ff       	jmp    4960 <udf_read_icb+0x90>
    4a95:	8d 74 26 00          	lea    0x0(%esi,%eiz,1),%esi
    4a99:	8d bc 27 00 00 00 00 	lea    0x0(%edi,%eiz,1),%edi

00004aa0 <udf_node_get_core>:
    4aa0:	55                   	push   %ebp
    4aa1:	89 e5                	mov    %esp,%ebp
    4aa3:	8b 45 08             	mov    0x8(%ebp),%eax
    4aa6:	c7 40 28 01 00 00 00 	movl   $0x1,0x28(%eax)
    4aad:	5d                   	pop    %ebp
    4aae:	e9 1d fe ff ff       	jmp    48d0 <udf_read_icb>
    4ab3:	8d b6 00 00 00 00    	lea    0x0(%esi),%esi
    4ab9:	8d bc 27 00 00 00 00 	lea    0x0(%edi,%eiz,1),%edi

00004ac0 <udf_get_fid_in_sector>:
    4ac0:	55                   	push   %ebp
    4ac1:	89 e5                	mov    %esp,%ebp
    4ac3:	57                   	push   %edi
    4ac4:	56                   	push   %esi
    4ac5:	53                   	push   %ebx
    4ac6:	83 ec 3c             	sub    $0x3c,%esp
    4ac9:	8b 55 10             	mov    0x10(%ebp),%edx
    4acc:	8b 5d 14             	mov    0x14(%ebp),%ebx
    4acf:	8b 75 18             	mov    0x18(%ebp),%esi
    4ad2:	8b 02                	mov    (%edx),%eax
    4ad4:	8b 40 48             	mov    0x48(%eax),%eax
    4ad7:	89 04 24             	mov    %eax,(%esp)
    4ada:	e8 61 3b 01 00       	call   18640 <malloc>
    4adf:	8b 4d 24             	mov    0x24(%ebp),%ecx
    4ae2:	89 c7                	mov    %eax,%edi
    4ae4:	8b 01                	mov    (%ecx),%eax
    4ae6:	c6 45 e3 00          	movb   $0x0,-0x1d(%ebp)
    4aea:	85 c0                	test   %eax,%eax
    4aec:	0f 85 06 02 00 00    	jne    4cf8 <udf_get_fid_in_sector+0x238>
    4af2:	89 da                	mov    %ebx,%edx
    4af4:	89 f1                	mov    %esi,%ecx
    4af6:	83 c2 01             	add    $0x1,%edx
    4af9:	c7 45 e4 00 00 00 00 	movl   $0x0,-0x1c(%ebp)
    4b00:	83 d1 00             	adc    $0x0,%ecx
    4b03:	89 55 d8             	mov    %edx,-0x28(%ebp)
    4b06:	8b 55 10             	mov    0x10(%ebp),%edx
    4b09:	89 4d dc             	mov    %ecx,-0x24(%ebp)
    4b0c:	89 4d d4             	mov    %ecx,-0x2c(%ebp)
    4b0f:	8b 02                	mov    (%edx),%eax
    4b11:	8b 40 48             	mov    0x48(%eax),%eax
    4b14:	3b 45 e4             	cmp    -0x1c(%ebp),%eax
    4b17:	0f 84 e2 00 00 00    	je     4bff <udf_get_fid_in_sector+0x13f>
    4b1d:	8d 76 00             	lea    0x0(%esi),%esi
    4b20:	89 c1                	mov    %eax,%ecx
    4b22:	8b 5d e4             	mov    -0x1c(%ebp),%ebx
    4b25:	29 d9                	sub    %ebx,%ecx
    4b27:	83 f9 25             	cmp    $0x25,%ecx
    4b2a:	0f 86 68 01 00 00    	jbe    4c98 <udf_get_fid_in_sector+0x1d8>
    4b30:	80 7d e3 00          	cmpb   $0x0,-0x1d(%ebp)
    4b34:	0f 85 e6 00 00 00    	jne    4c20 <udf_get_fid_in_sector+0x160>
    4b3a:	8b 4d 0c             	mov    0xc(%ebp),%ecx
    4b3d:	8b 75 e4             	mov    -0x1c(%ebp),%esi
    4b40:	8b 01                	mov    (%ecx),%eax
    4b42:	8b 48 54             	mov    0x54(%eax),%ecx
    4b45:	01 ce                	add    %ecx,%esi
    4b47:	8a 5e 04             	mov    0x4(%esi),%bl
    4b4a:	89 34 24             	mov    %esi,(%esp)
    4b4d:	e8 ce f8 ff ff       	call   4420 <udf_tag_checksum>
    4b52:	38 c3                	cmp    %al,%bl
    4b54:	0f 85 fc 00 00 00    	jne    4c56 <udf_get_fid_in_sector+0x196>
    4b5a:	8b 4d 08             	mov    0x8(%ebp),%ecx
    4b5d:	31 db                	xor    %ebx,%ebx
    4b5f:	89 31                	mov    %esi,(%ecx)
    4b61:	66 8b 4e 24          	mov    0x24(%esi),%cx
    4b65:	8a 46 13             	mov    0x13(%esi),%al
    4b68:	81 e1 ff ff 00 00    	and    $0xffff,%ecx
    4b6e:	88 c3                	mov    %al,%bl
    4b70:	01 d9                	add    %ebx,%ecx
    4b72:	83 c1 29             	add    $0x29,%ecx
    4b75:	81 e1 fc ff 03 00    	and    $0x3fffc,%ecx
    4b7b:	80 7d e3 00          	cmpb   $0x0,-0x1d(%ebp)
    4b7f:	0f 84 8b 00 00 00    	je     4c10 <udf_get_fid_in_sector+0x150>
    4b85:	8b 55 24             	mov    0x24(%ebp),%edx
    4b88:	8b 1a                	mov    (%edx),%ebx
    4b8a:	8b 55 e4             	mov    -0x1c(%ebp),%edx
    4b8d:	29 d9                	sub    %ebx,%ecx
    4b8f:	01 ca                	add    %ecx,%edx
    4b91:	89 55 e4             	mov    %edx,-0x1c(%ebp)
    4b94:	84 c0                	test   %al,%al
    4b96:	74 21                	je     4bb9 <udf_get_fid_in_sector+0xf9>
    4b98:	f6 46 12 04          	testb  $0x4,0x12(%esi)
    4b9c:	75 1b                	jne    4bb9 <udf_get_fid_in_sector+0xf9>
    4b9e:	8b 4d 1c             	mov    0x1c(%ebp),%ecx
    4ba1:	8b 55 1c             	mov    0x1c(%ebp),%edx
    4ba4:	8b 09                	mov    (%ecx),%ecx
    4ba6:	89 c8                	mov    %ecx,%eax
    4ba8:	40                   	inc    %eax
    4ba9:	89 02                	mov    %eax,(%edx)
    4bab:	8b 55 d8             	mov    -0x28(%ebp),%edx
    4bae:	31 d0                	xor    %edx,%eax
    4bb0:	0b 45 d4             	or     -0x2c(%ebp),%eax
    4bb3:	0f 84 67 01 00 00    	je     4d20 <udf_get_fid_in_sector+0x260>
    4bb9:	85 ff                	test   %edi,%edi
    4bbb:	74 0c                	je     4bc9 <udf_get_fid_in_sector+0x109>
    4bbd:	89 3c 24             	mov    %edi,(%esp)
    4bc0:	e8 8b 3b 01 00       	call   18750 <free>
    4bc5:	c6 45 e3 00          	movb   $0x0,-0x1d(%ebp)
    4bc9:	8b 4d 20             	mov    0x20(%ebp),%ecx
    4bcc:	8b 01                	mov    (%ecx),%eax
    4bce:	85 c0                	test   %eax,%eax
    4bd0:	74 1a                	je     4bec <udf_get_fid_in_sector+0x12c>
    4bd2:	89 04 24             	mov    %eax,(%esp)
    4bd5:	e8 76 3b 01 00       	call   18750 <free>
    4bda:	8b 55 20             	mov    0x20(%ebp),%edx
    4bdd:	8b 4d 24             	mov    0x24(%ebp),%ecx
    4be0:	c7 02 00 00 00 00    	movl   $0x0,(%edx)
    4be6:	c7 01 00 00 00 00    	movl   $0x0,(%ecx)
    4bec:	8b 55 10             	mov    0x10(%ebp),%edx
    4bef:	31 ff                	xor    %edi,%edi
    4bf1:	8b 02                	mov    (%edx),%eax
    4bf3:	8b 40 48             	mov    0x48(%eax),%eax
    4bf6:	3b 45 e4             	cmp    -0x1c(%ebp),%eax
    4bf9:	0f 85 21 ff ff ff    	jne    4b20 <udf_get_fid_in_sector+0x60>
    4bff:	83 c8 ff             	or     $0xffffffff,%eax
    4c02:	83 c4 3c             	add    $0x3c,%esp
    4c05:	5b                   	pop    %ebx
    4c06:	5e                   	pop    %esi
    4c07:	5f                   	pop    %edi
    4c08:	5d                   	pop    %ebp
    4c09:	c3                   	ret    
    4c0a:	8d b6 00 00 00 00    	lea    0x0(%esi),%esi
    4c10:	8b 5d e4             	mov    -0x1c(%ebp),%ebx
    4c13:	01 cb                	add    %ecx,%ebx
    4c15:	89 5d e4             	mov    %ebx,-0x1c(%ebp)
    4c18:	e9 77 ff ff ff       	jmp    4b94 <udf_get_fid_in_sector+0xd4>
    4c1d:	8d 76 00             	lea    0x0(%esi),%esi
    4c20:	8b 55 24             	mov    0x24(%ebp),%edx
    4c23:	89 fe                	mov    %edi,%esi
    4c25:	8b 0a                	mov    (%edx),%ecx
    4c27:	8b 55 0c             	mov    0xc(%ebp),%edx
    4c2a:	29 c8                	sub    %ecx,%eax
    4c2c:	01 f9                	add    %edi,%ecx
    4c2e:	89 44 24 08          	mov    %eax,0x8(%esp)
    4c32:	8b 02                	mov    (%edx),%eax
    4c34:	8b 40 54             	mov    0x54(%eax),%eax
    4c37:	89 0c 24             	mov    %ecx,(%esp)
    4c3a:	89 44 24 04          	mov    %eax,0x4(%esp)
    4c3e:	e8 1d 67 00 00       	call   b360 <memcpy>
    4c43:	8a 5e 04             	mov    0x4(%esi),%bl
    4c46:	89 34 24             	mov    %esi,(%esp)
    4c49:	e8 d2 f7 ff ff       	call   4420 <udf_tag_checksum>
    4c4e:	38 c3                	cmp    %al,%bl
    4c50:	0f 84 04 ff ff ff    	je     4b5a <udf_get_fid_in_sector+0x9a>
    4c56:	85 ff                	test   %edi,%edi
    4c58:	74 08                	je     4c62 <udf_get_fid_in_sector+0x1a2>
    4c5a:	89 3c 24             	mov    %edi,(%esp)
    4c5d:	e8 ee 3a 01 00       	call   18750 <free>
    4c62:	8b 55 20             	mov    0x20(%ebp),%edx
    4c65:	8b 02                	mov    (%edx),%eax
    4c67:	85 c0                	test   %eax,%eax
    4c69:	0f 84 a7 00 00 00    	je     4d16 <udf_get_fid_in_sector+0x256>
    4c6f:	89 04 24             	mov    %eax,(%esp)
    4c72:	e8 d9 3a 01 00       	call   18750 <free>
    4c77:	8b 4d 20             	mov    0x20(%ebp),%ecx
    4c7a:	8b 55 24             	mov    0x24(%ebp),%edx
    4c7d:	c7 01 00 00 00 00    	movl   $0x0,(%ecx)
    4c83:	b8 f2 ff ff ff       	mov    $0xfffffff2,%eax
    4c88:	c7 02 00 00 00 00    	movl   $0x0,(%edx)
    4c8e:	83 c4 3c             	add    $0x3c,%esp
    4c91:	5b                   	pop    %ebx
    4c92:	5e                   	pop    %esi
    4c93:	5f                   	pop    %edi
    4c94:	5d                   	pop    %ebp
    4c95:	c3                   	ret    
    4c96:	66 90                	xchg   %ax,%ax
    4c98:	8b 55 20             	mov    0x20(%ebp),%edx
    4c9b:	8b 02                	mov    (%edx),%eax
    4c9d:	85 c0                	test   %eax,%eax
    4c9f:	74 15                	je     4cb6 <udf_get_fid_in_sector+0x1f6>
    4ca1:	89 04 24             	mov    %eax,(%esp)
    4ca4:	e8 a7 3a 01 00       	call   18750 <free>
    4ca9:	8b 4d 10             	mov    0x10(%ebp),%ecx
    4cac:	8b 01                	mov    (%ecx),%eax
    4cae:	8b 75 e4             	mov    -0x1c(%ebp),%esi
    4cb1:	8b 48 48             	mov    0x48(%eax),%ecx
    4cb4:	29 f1                	sub    %esi,%ecx
    4cb6:	8b 55 24             	mov    0x24(%ebp),%edx
    4cb9:	89 0a                	mov    %ecx,(%edx)
    4cbb:	89 0c 24             	mov    %ecx,(%esp)
    4cbe:	e8 7d 39 01 00       	call   18640 <malloc>
    4cc3:	8b 4d 20             	mov    0x20(%ebp),%ecx
    4cc6:	8b 5d e4             	mov    -0x1c(%ebp),%ebx
    4cc9:	89 01                	mov    %eax,(%ecx)
    4ccb:	8b 4d 24             	mov    0x24(%ebp),%ecx
    4cce:	8b 11                	mov    (%ecx),%edx
    4cd0:	8b 4d 0c             	mov    0xc(%ebp),%ecx
    4cd3:	89 54 24 08          	mov    %edx,0x8(%esp)
    4cd7:	8b 11                	mov    (%ecx),%edx
    4cd9:	8b 52 54             	mov    0x54(%edx),%edx
    4cdc:	89 04 24             	mov    %eax,(%esp)
    4cdf:	01 da                	add    %ebx,%edx
    4ce1:	89 54 24 04          	mov    %edx,0x4(%esp)
    4ce5:	e8 76 66 00 00       	call   b360 <memcpy>
    4cea:	83 c4 3c             	add    $0x3c,%esp
    4ced:	83 c8 ff             	or     $0xffffffff,%eax
    4cf0:	5b                   	pop    %ebx
    4cf1:	5e                   	pop    %esi
    4cf2:	5f                   	pop    %edi
    4cf3:	5d                   	pop    %ebp
    4cf4:	c3                   	ret    
    4cf5:	8d 76 00             	lea    0x0(%esi),%esi
    4cf8:	8b 55 20             	mov    0x20(%ebp),%edx
    4cfb:	89 44 24 08          	mov    %eax,0x8(%esp)
    4cff:	8b 02                	mov    (%edx),%eax
    4d01:	89 3c 24             	mov    %edi,(%esp)
    4d04:	89 44 24 04          	mov    %eax,0x4(%esp)
    4d08:	e8 53 66 00 00       	call   b360 <memcpy>
    4d0d:	c6 45 e3 01          	movb   $0x1,-0x1d(%ebp)
    4d11:	e9 dc fd ff ff       	jmp    4af2 <udf_get_fid_in_sector+0x32>
    4d16:	b8 f2 ff ff ff       	mov    $0xfffffff2,%eax
    4d1b:	e9 e2 fe ff ff       	jmp    4c02 <udf_get_fid_in_sector+0x142>
    4d20:	85 ff                	test   %edi,%edi
    4d22:	74 0f                	je     4d33 <udf_get_fid_in_sector+0x273>
    4d24:	89 3c 24             	mov    %edi,(%esp)
    4d27:	e8 24 3a 01 00       	call   18750 <free>
    4d2c:	31 c0                	xor    %eax,%eax
    4d2e:	e9 cf fe ff ff       	jmp    4c02 <udf_get_fid_in_sector+0x142>
    4d33:	31 c0                	xor    %eax,%eax
    4d35:	e9 c8 fe ff ff       	jmp    4c02 <udf_get_fid_in_sector+0x142>
    4d3a:	8d b6 00 00 00 00    	lea    0x0(%esi),%esi

00004d40 <udf_get_fid_in_allocator>:
    4d40:	55                   	push   %ebp
    4d41:	89 e5                	mov    %esp,%ebp
    4d43:	57                   	push   %edi
    4d44:	56                   	push   %esi
    4d45:	53                   	push   %ebx
    4d46:	83 ec 5c             	sub    $0x5c,%esp
    4d49:	8b 7d 10             	mov    0x10(%ebp),%edi
    4d4c:	8b 45 14             	mov    0x14(%ebp),%eax
    4d4f:	89 45 c8             	mov    %eax,-0x38(%ebp)
    4d52:	8b 55 18             	mov    0x18(%ebp),%edx
    4d55:	8b 07                	mov    (%edi),%eax
    4d57:	8b 75 0c             	mov    0xc(%ebp),%esi
    4d5a:	89 55 cc             	mov    %edx,-0x34(%ebp)
    4d5d:	8b 40 48             	mov    0x48(%eax),%eax
    4d60:	89 04 24             	mov    %eax,(%esp)
    4d63:	e8 d8 38 01 00       	call   18640 <malloc>
    4d68:	8b 4f 40             	mov    0x40(%edi),%ecx
    4d6b:	89 45 dc             	mov    %eax,-0x24(%ebp)
    4d6e:	c7 45 e0 00 00 00 00 	movl   $0x0,-0x20(%ebp)
    4d75:	c7 45 e4 00 00 00 00 	movl   $0x0,-0x1c(%ebp)
    4d7c:	85 c9                	test   %ecx,%ecx
    4d7e:	0f 84 52 01 00 00    	je     4ed6 <udf_get_fid_in_allocator+0x196>
    4d84:	c7 45 c4 00 00 00 00 	movl   $0x0,-0x3c(%ebp)
    4d8b:	8b 45 c4             	mov    -0x3c(%ebp),%eax
    4d8e:	8b 5f 3c             	mov    0x3c(%edi),%ebx
    4d91:	c1 e0 03             	shl    $0x3,%eax
    4d94:	8b 17                	mov    (%edi),%edx
    4d96:	89 45 d0             	mov    %eax,-0x30(%ebp)
    4d99:	01 d8                	add    %ebx,%eax
    4d9b:	8b 18                	mov    (%eax),%ebx
    4d9d:	85 db                	test   %ebx,%ebx
    4d9f:	0f 84 1e 01 00 00    	je     4ec3 <udf_get_fid_in_allocator+0x183>
    4da5:	31 db                	xor    %ebx,%ebx
    4da7:	eb 20                	jmp    4dc9 <udf_get_fid_in_allocator+0x89>
    4da9:	8d b4 26 00 00 00 00 	lea    0x0(%esi,%eiz,1),%esi
    4db0:	8b 17                	mov    (%edi),%edx
    4db2:	8b 4f 3c             	mov    0x3c(%edi),%ecx
    4db5:	8b 45 d0             	mov    -0x30(%ebp),%eax
    4db8:	43                   	inc    %ebx
    4db9:	01 c8                	add    %ecx,%eax
    4dbb:	8b 4a 48             	mov    0x48(%edx),%ecx
    4dbe:	0f af cb             	imul   %ebx,%ecx
    4dc1:	3b 08                	cmp    (%eax),%ecx
    4dc3:	0f 83 2f 01 00 00    	jae    4ef8 <udf_get_fid_in_allocator+0x1b8>
    4dc9:	c7 44 24 10 00 00 00 	movl   $0x0,0x10(%esp)
    4dd0:	00 
    4dd1:	8b 40 04             	mov    0x4(%eax),%eax
    4dd4:	c7 44 24 0c 00 00 00 	movl   $0x0,0xc(%esp)
    4ddb:	00 
    4ddc:	01 d8                	add    %ebx,%eax
    4dde:	89 44 24 08          	mov    %eax,0x8(%esp)
    4de2:	8b 02                	mov    (%edx),%eax
    4de4:	89 34 24             	mov    %esi,(%esp)
    4de7:	89 44 24 04          	mov    %eax,0x4(%esp)
    4deb:	e8 60 11 00 00       	call   5f50 <block_get>
    4df0:	85 c0                	test   %eax,%eax
    4df2:	0f 85 98 00 00 00    	jne    4e90 <udf_get_fid_in_allocator+0x150>
    4df8:	8b 55 d0             	mov    -0x30(%ebp),%edx
    4dfb:	8b 47 3c             	mov    0x3c(%edi),%eax
    4dfe:	8b 04 10             	mov    (%eax,%edx,1),%eax
    4e01:	31 d2                	xor    %edx,%edx
    4e03:	89 45 d4             	mov    %eax,-0x2c(%ebp)
    4e06:	8b 07                	mov    (%edi),%eax
    4e08:	8b 48 48             	mov    0x48(%eax),%ecx
    4e0b:	8b 45 d4             	mov    -0x2c(%ebp),%eax
    4e0e:	f7 f1                	div    %ecx
    4e10:	39 d8                	cmp    %ebx,%eax
    4e12:	75 0f                	jne    4e23 <udf_get_fid_in_allocator+0xe3>
    4e14:	89 d8                	mov    %ebx,%eax
    4e16:	0f af c1             	imul   %ecx,%eax
    4e19:	8b 4d d4             	mov    -0x2c(%ebp),%ecx
    4e1c:	29 c1                	sub    %eax,%ecx
    4e1e:	83 f9 25             	cmp    $0x25,%ecx
    4e21:	76 75                	jbe    4e98 <udf_get_fid_in_allocator+0x158>
    4e23:	8d 45 e4             	lea    -0x1c(%ebp),%eax
    4e26:	8d 55 dc             	lea    -0x24(%ebp),%edx
    4e29:	89 44 24 1c          	mov    %eax,0x1c(%esp)
    4e2d:	89 54 24 18          	mov    %edx,0x18(%esp)
    4e31:	8d 45 e0             	lea    -0x20(%ebp),%eax
    4e34:	8b 55 cc             	mov    -0x34(%ebp),%edx
    4e37:	89 44 24 14          	mov    %eax,0x14(%esp)
    4e3b:	89 54 24 10          	mov    %edx,0x10(%esp)
    4e3f:	8b 45 c8             	mov    -0x38(%ebp),%eax
    4e42:	8b 55 08             	mov    0x8(%ebp),%edx
    4e45:	89 44 24 0c          	mov    %eax,0xc(%esp)
    4e49:	89 7c 24 08          	mov    %edi,0x8(%esp)
    4e4d:	89 74 24 04          	mov    %esi,0x4(%esp)
    4e51:	89 14 24             	mov    %edx,(%esp)
    4e54:	e8 67 fc ff ff       	call   4ac0 <udf_get_fid_in_sector>
    4e59:	85 c0                	test   %eax,%eax
    4e5b:	74 33                	je     4e90 <udf_get_fid_in_allocator+0x150>
    4e5d:	83 f8 f2             	cmp    $0xfffffff2,%eax
    4e60:	0f 84 82 00 00 00    	je     4ee8 <udf_get_fid_in_allocator+0x1a8>
    4e66:	40                   	inc    %eax
    4e67:	0f 85 43 ff ff ff    	jne    4db0 <udf_get_fid_in_allocator+0x70>
    4e6d:	85 f6                	test   %esi,%esi
    4e6f:	0f 84 3b ff ff ff    	je     4db0 <udf_get_fid_in_allocator+0x70>
    4e75:	8b 06                	mov    (%esi),%eax
    4e77:	89 04 24             	mov    %eax,(%esp)
    4e7a:	e8 21 0e 00 00       	call   5ca0 <block_put>
    4e7f:	c7 06 00 00 00 00    	movl   $0x0,(%esi)
    4e85:	85 c0                	test   %eax,%eax
    4e87:	0f 84 23 ff ff ff    	je     4db0 <udf_get_fid_in_allocator+0x70>
    4e8d:	8d 76 00             	lea    0x0(%esi),%esi
    4e90:	83 c4 5c             	add    $0x5c,%esp
    4e93:	5b                   	pop    %ebx
    4e94:	5e                   	pop    %esi
    4e95:	5f                   	pop    %edi
    4e96:	5d                   	pop    %ebp
    4e97:	c3                   	ret    
    4e98:	89 4c 24 08          	mov    %ecx,0x8(%esp)
    4e9c:	8b 06                	mov    (%esi),%eax
    4e9e:	8b 40 54             	mov    0x54(%eax),%eax
    4ea1:	89 44 24 04          	mov    %eax,0x4(%esp)
    4ea5:	8b 45 dc             	mov    -0x24(%ebp),%eax
    4ea8:	89 04 24             	mov    %eax,(%esp)
    4eab:	e8 b0 64 00 00       	call   b360 <memcpy>
    4eb0:	8b 06                	mov    (%esi),%eax
    4eb2:	89 04 24             	mov    %eax,(%esp)
    4eb5:	e8 e6 0d 00 00       	call   5ca0 <block_put>
    4eba:	c7 06 00 00 00 00    	movl   $0x0,(%esi)
    4ec0:	8b 4f 40             	mov    0x40(%edi),%ecx
    4ec3:	8b 45 c4             	mov    -0x3c(%ebp),%eax
    4ec6:	40                   	inc    %eax
    4ec7:	89 45 c4             	mov    %eax,-0x3c(%ebp)
    4eca:	39 4d c4             	cmp    %ecx,-0x3c(%ebp)
    4ecd:	0f 82 b8 fe ff ff    	jb     4d8b <udf_get_fid_in_allocator+0x4b>
    4ed3:	8b 45 dc             	mov    -0x24(%ebp),%eax
    4ed6:	85 c0                	test   %eax,%eax
    4ed8:	74 0e                	je     4ee8 <udf_get_fid_in_allocator+0x1a8>
    4eda:	89 04 24             	mov    %eax,(%esp)
    4edd:	e8 6e 38 01 00       	call   18750 <free>
    4ee2:	8d b6 00 00 00 00    	lea    0x0(%esi),%esi
    4ee8:	83 c4 5c             	add    $0x5c,%esp
    4eeb:	83 c8 ff             	or     $0xffffffff,%eax
    4eee:	5b                   	pop    %ebx
    4eef:	5e                   	pop    %esi
    4ef0:	5f                   	pop    %edi
    4ef1:	5d                   	pop    %ebp
    4ef2:	c3                   	ret    
    4ef3:	90                   	nop
    4ef4:	8d 74 26 00          	lea    0x0(%esi,%eiz,1),%esi
    4ef8:	8b 45 c4             	mov    -0x3c(%ebp),%eax
    4efb:	8b 4f 40             	mov    0x40(%edi),%ecx
    4efe:	40                   	inc    %eax
    4eff:	89 45 c4             	mov    %eax,-0x3c(%ebp)
    4f02:	39 4d c4             	cmp    %ecx,-0x3c(%ebp)
    4f05:	0f 82 80 fe ff ff    	jb     4d8b <udf_get_fid_in_allocator+0x4b>
    4f0b:	eb c6                	jmp    4ed3 <udf_get_fid_in_allocator+0x193>
    4f0d:	8d 76 00             	lea    0x0(%esi),%esi

00004f10 <udf_get_fid>:
    4f10:	55                   	push   %ebp
    4f11:	89 e5                	mov    %esp,%ebp
    4f13:	57                   	push   %edi
    4f14:	56                   	push   %esi
    4f15:	53                   	push   %ebx
    4f16:	83 ec 3c             	sub    $0x3c,%esp
    4f19:	8b 7d 10             	mov    0x10(%ebp),%edi
    4f1c:	8b 55 08             	mov    0x8(%ebp),%edx
    4f1f:	89 55 e0             	mov    %edx,-0x20(%ebp)
    4f22:	8b 45 14             	mov    0x14(%ebp),%eax
    4f25:	8b 4f 38             	mov    0x38(%edi),%ecx
    4f28:	8b 55 18             	mov    0x18(%ebp),%edx
    4f2b:	85 c9                	test   %ecx,%ecx
    4f2d:	0f 84 ce 00 00 00    	je     5001 <udf_get_fid+0xf1>
    4f33:	8d 5f 30             	lea    0x30(%edi),%ebx
    4f36:	89 c1                	mov    %eax,%ecx
    4f38:	83 c7 38             	add    $0x38,%edi
    4f3b:	89 5d e4             	mov    %ebx,-0x1c(%ebp)
    4f3e:	31 f6                	xor    %esi,%esi
    4f40:	89 d3                	mov    %edx,%ebx
    4f42:	83 c1 01             	add    $0x1,%ecx
    4f45:	c7 45 dc 00 00 00 00 	movl   $0x0,-0x24(%ebp)
    4f4c:	83 d3 00             	adc    $0x0,%ebx
    4f4f:	89 4d d0             	mov    %ecx,-0x30(%ebp)
    4f52:	89 5d d4             	mov    %ebx,-0x2c(%ebp)
    4f55:	89 5d d8             	mov    %ebx,-0x28(%ebp)
    4f58:	89 7d cc             	mov    %edi,-0x34(%ebp)
    4f5b:	90                   	nop
    4f5c:	8d 74 26 00          	lea    0x0(%esi,%eiz,1),%esi
    4f60:	8b 7d e4             	mov    -0x1c(%ebp),%edi
    4f63:	31 db                	xor    %ebx,%ebx
    4f65:	8b 07                	mov    (%edi),%eax
    4f67:	8b 57 04             	mov    0x4(%edi),%edx
    4f6a:	29 f0                	sub    %esi,%eax
    4f6c:	19 da                	sbb    %ebx,%edx
    4f6e:	83 fa 00             	cmp    $0x0,%edx
    4f71:	77 15                	ja     4f88 <udf_get_fid+0x78>
    4f73:	83 f8 25             	cmp    $0x25,%eax
    4f76:	77 10                	ja     4f88 <udf_get_fid+0x78>
    4f78:	83 c8 ff             	or     $0xffffffff,%eax
    4f7b:	83 c4 3c             	add    $0x3c,%esp
    4f7e:	5b                   	pop    %ebx
    4f7f:	5e                   	pop    %esi
    4f80:	5f                   	pop    %edi
    4f81:	5d                   	pop    %ebp
    4f82:	c3                   	ret    
    4f83:	90                   	nop
    4f84:	8d 74 26 00          	lea    0x0(%esi,%eiz,1),%esi
    4f88:	8b 5d cc             	mov    -0x34(%ebp),%ebx
    4f8b:	8b 03                	mov    (%ebx),%eax
    4f8d:	01 f0                	add    %esi,%eax
    4f8f:	8a 58 04             	mov    0x4(%eax),%bl
    4f92:	89 04 24             	mov    %eax,(%esp)
    4f95:	e8 86 f4 ff ff       	call   4420 <udf_tag_checksum>
    4f9a:	38 c3                	cmp    %al,%bl
    4f9c:	75 52                	jne    4ff0 <udf_get_fid+0xe0>
    4f9e:	8b 7d cc             	mov    -0x34(%ebp),%edi
    4fa1:	8b 55 e0             	mov    -0x20(%ebp),%edx
    4fa4:	31 c9                	xor    %ecx,%ecx
    4fa6:	8b 07                	mov    (%edi),%eax
    4fa8:	01 f0                	add    %esi,%eax
    4faa:	89 02                	mov    %eax,(%edx)
    4fac:	66 8b 50 24          	mov    0x24(%eax),%dx
    4fb0:	8a 48 13             	mov    0x13(%eax),%cl
    4fb3:	81 e2 ff ff 00 00    	and    $0xffff,%edx
    4fb9:	01 ca                	add    %ecx,%edx
    4fbb:	83 c2 29             	add    $0x29,%edx
    4fbe:	81 e2 fc ff 03 00    	and    $0x3fffc,%edx
    4fc4:	01 d6                	add    %edx,%esi
    4fc6:	80 78 13 00          	cmpb   $0x0,0x13(%eax)
    4fca:	74 94                	je     4f60 <udf_get_fid+0x50>
    4fcc:	f6 40 12 04          	testb  $0x4,0x12(%eax)
    4fd0:	75 8e                	jne    4f60 <udf_get_fid+0x50>
    4fd2:	8b 5d dc             	mov    -0x24(%ebp),%ebx
    4fd5:	8b 7d d0             	mov    -0x30(%ebp),%edi
    4fd8:	43                   	inc    %ebx
    4fd9:	89 5d dc             	mov    %ebx,-0x24(%ebp)
    4fdc:	8b 45 dc             	mov    -0x24(%ebp),%eax
    4fdf:	31 f8                	xor    %edi,%eax
    4fe1:	0b 45 d8             	or     -0x28(%ebp),%eax
    4fe4:	0f 85 76 ff ff ff    	jne    4f60 <udf_get_fid+0x50>
    4fea:	31 c0                	xor    %eax,%eax
    4fec:	eb 8d                	jmp    4f7b <udf_get_fid+0x6b>
    4fee:	66 90                	xchg   %ax,%ax
    4ff0:	83 fe 01             	cmp    $0x1,%esi
    4ff3:	19 c0                	sbb    %eax,%eax
    4ff5:	83 c4 3c             	add    $0x3c,%esp
    4ff8:	83 e0 f3             	and    $0xfffffff3,%eax
    4ffb:	5b                   	pop    %ebx
    4ffc:	48                   	dec    %eax
    4ffd:	5e                   	pop    %esi
    4ffe:	5f                   	pop    %edi
    4fff:	5d                   	pop    %ebp
    5000:	c3                   	ret    
    5001:	83 c4 3c             	add    $0x3c,%esp
    5004:	5b                   	pop    %ebx
    5005:	5e                   	pop    %esi
    5006:	5f                   	pop    %edi
    5007:	5d                   	pop    %ebp
    5008:	e9 33 fd ff ff       	jmp    4d40 <udf_get_fid_in_allocator>
    500d:	8d 76 00             	lea    0x0(%esi),%esi

00005010 <udf_read_file>:
    5010:	55                   	push   %ebp
    5011:	89 e5                	mov    %esp,%ebp
    5013:	57                   	push   %edi
    5014:	56                   	push   %esi
    5015:	53                   	push   %ebx
    5016:	83 ec 5c             	sub    $0x5c,%esp
    5019:	8b 55 18             	mov    0x18(%ebp),%edx
    501c:	8b 45 14             	mov    0x14(%ebp),%eax
    501f:	89 55 cc             	mov    %edx,-0x34(%ebp)
    5022:	8b 55 10             	mov    0x10(%ebp),%edx
    5025:	89 45 c8             	mov    %eax,-0x38(%ebp)
    5028:	8b 52 40             	mov    0x40(%edx),%edx
    502b:	89 55 d4             	mov    %edx,-0x2c(%ebp)
    502e:	85 d2                	test   %edx,%edx
    5030:	0f 84 35 02 00 00    	je     526b <udf_read_file+0x25b>
    5036:	8b 55 10             	mov    0x10(%ebp),%edx
    5039:	83 7d cc 00          	cmpl   $0x0,-0x34(%ebp)
    503d:	8b 52 3c             	mov    0x3c(%edx),%edx
    5040:	89 55 d0             	mov    %edx,-0x30(%ebp)
    5043:	8b 1a                	mov    (%edx),%ebx
    5045:	0f 86 95 01 00 00    	jbe    51e0 <udf_read_file+0x1d0>
    504b:	31 d2                	xor    %edx,%edx
    504d:	8b 4d d0             	mov    -0x30(%ebp),%ecx
    5050:	42                   	inc    %edx
    5051:	83 c1 08             	add    $0x8,%ecx
    5054:	3b 55 d4             	cmp    -0x2c(%ebp),%edx
    5057:	8d 3c d5 00 00 00 00 	lea    0x0(,%edx,8),%edi
    505e:	0f 84 70 01 00 00    	je     51d4 <udf_read_file+0x1c4>
    5064:	8d 74 26 00          	lea    0x0(%esi,%eiz,1),%esi
    5068:	8b 01                	mov    (%ecx),%eax
    506a:	89 ce                	mov    %ecx,%esi
    506c:	01 d8                	add    %ebx,%eax
    506e:	83 c1 08             	add    $0x8,%ecx
    5071:	89 45 c4             	mov    %eax,-0x3c(%ebp)
    5074:	31 c0                	xor    %eax,%eax
    5076:	3b 45 cc             	cmp    -0x34(%ebp),%eax
    5079:	0f 82 41 01 00 00    	jb     51c0 <udf_read_file+0x1b0>
    507f:	8b 45 c8             	mov    -0x38(%ebp),%eax
    5082:	39 45 c4             	cmp    %eax,-0x3c(%ebp)
    5085:	0f 86 35 01 00 00    	jbe    51c0 <udf_read_file+0x1b0>
    508b:	8b 55 10             	mov    0x10(%ebp),%edx
    508e:	c7 45 e4 00 00 00 00 	movl   $0x0,-0x1c(%ebp)
    5095:	8b 0a                	mov    (%edx),%ecx
    5097:	8b 55 cc             	mov    -0x34(%ebp),%edx
    509a:	8b 41 48             	mov    0x48(%ecx),%eax
    509d:	c7 44 24 0c 00 00 00 	movl   $0x0,0xc(%esp)
    50a4:	00 
    50a5:	89 45 d0             	mov    %eax,-0x30(%ebp)
    50a8:	89 44 24 08          	mov    %eax,0x8(%esp)
    50ac:	8b 45 c8             	mov    -0x38(%ebp),%eax
    50af:	89 54 24 04          	mov    %edx,0x4(%esp)
    50b3:	89 04 24             	mov    %eax,(%esp)
    50b6:	89 4d c0             	mov    %ecx,-0x40(%ebp)
    50b9:	e8 82 fa 01 00       	call   24b40 <__udivdi3>
    50be:	31 d2                	xor    %edx,%edx
    50c0:	89 45 d4             	mov    %eax,-0x2c(%ebp)
    50c3:	89 d8                	mov    %ebx,%eax
    50c5:	f7 75 d0             	divl   -0x30(%ebp)
    50c8:	8b 4d d4             	mov    -0x2c(%ebp),%ecx
    50cb:	c7 44 24 10 00 00 00 	movl   $0x0,0x10(%esp)
    50d2:	00 
    50d3:	29 c1                	sub    %eax,%ecx
    50d5:	85 d2                	test   %edx,%edx
    50d7:	89 4d d4             	mov    %ecx,-0x2c(%ebp)
    50da:	8b 4e 04             	mov    0x4(%esi),%ecx
    50dd:	0f 95 c0             	setne  %al
    50e0:	25 ff 00 00 00       	and    $0xff,%eax
    50e5:	8b 55 d4             	mov    -0x2c(%ebp),%edx
    50e8:	29 c2                	sub    %eax,%edx
    50ea:	c7 44 24 0c 00 00 00 	movl   $0x0,0xc(%esp)
    50f1:	00 
    50f2:	89 55 d4             	mov    %edx,-0x2c(%ebp)
    50f5:	8b 45 d4             	mov    -0x2c(%ebp),%eax
    50f8:	01 c8                	add    %ecx,%eax
    50fa:	8b 4d c0             	mov    -0x40(%ebp),%ecx
    50fd:	89 44 24 08          	mov    %eax,0x8(%esp)
    5101:	8b 01                	mov    (%ecx),%eax
    5103:	89 44 24 04          	mov    %eax,0x4(%esp)
    5107:	8d 45 e4             	lea    -0x1c(%ebp),%eax
    510a:	89 04 24             	mov    %eax,(%esp)
    510d:	e8 3e 0e 00 00       	call   5f50 <block_get>
    5112:	89 c6                	mov    %eax,%esi
    5114:	85 c0                	test   %eax,%eax
    5116:	0f 85 1c 01 00 00    	jne    5238 <udf_read_file+0x228>
    511c:	8b 45 10             	mov    0x10(%ebp),%eax
    511f:	8b 30                	mov    (%eax),%esi
    5121:	8b 45 c8             	mov    -0x38(%ebp),%eax
    5124:	8b 56 48             	mov    0x48(%esi),%edx
    5127:	c7 44 24 0c 00 00 00 	movl   $0x0,0xc(%esp)
    512e:	00 
    512f:	89 55 c4             	mov    %edx,-0x3c(%ebp)
    5132:	89 54 24 08          	mov    %edx,0x8(%esp)
    5136:	8b 55 cc             	mov    -0x34(%ebp),%edx
    5139:	89 04 24             	mov    %eax,(%esp)
    513c:	89 54 24 04          	mov    %edx,0x4(%esp)
    5140:	e8 7b fc 01 00       	call   24dc0 <__umoddi3>
    5145:	8b 55 1c             	mov    0x1c(%ebp),%edx
    5148:	89 45 d0             	mov    %eax,-0x30(%ebp)
    514b:	01 d0                	add    %edx,%eax
    514d:	8b 4d 1c             	mov    0x1c(%ebp),%ecx
    5150:	39 45 c4             	cmp    %eax,-0x3c(%ebp)
    5153:	0f 86 9f 00 00 00    	jbe    51f8 <udf_read_file+0x1e8>
    5159:	8b 55 08             	mov    0x8(%ebp),%edx
    515c:	89 0a                	mov    %ecx,(%edx)
    515e:	8b 55 10             	mov    0x10(%ebp),%edx
    5161:	8b 76 48             	mov    0x48(%esi),%esi
    5164:	8b 42 3c             	mov    0x3c(%edx),%eax
    5167:	31 d2                	xor    %edx,%edx
    5169:	8b 3c 38             	mov    (%eax,%edi,1),%edi
    516c:	89 f8                	mov    %edi,%eax
    516e:	f7 f6                	div    %esi
    5170:	85 d2                	test   %edx,%edx
    5172:	0f 95 c2             	setne  %dl
    5175:	81 e2 ff 00 00 00    	and    $0xff,%edx
    517b:	01 d0                	add    %edx,%eax
    517d:	8b 55 d4             	mov    -0x2c(%ebp),%edx
    5180:	42                   	inc    %edx
    5181:	39 d0                	cmp    %edx,%eax
    5183:	0f 84 7f 00 00 00    	je     5208 <udf_read_file+0x1f8>
    5189:	8b 45 e4             	mov    -0x1c(%ebp),%eax
    518c:	89 4c 24 08          	mov    %ecx,0x8(%esp)
    5190:	8b 7d d0             	mov    -0x30(%ebp),%edi
    5193:	8b 55 0c             	mov    0xc(%ebp),%edx
    5196:	8b 58 54             	mov    0x54(%eax),%ebx
    5199:	89 14 24             	mov    %edx,(%esp)
    519c:	01 df                	add    %ebx,%edi
    519e:	89 7c 24 04          	mov    %edi,0x4(%esp)
    51a2:	e8 a9 75 01 00       	call   1c750 <async_data_read_finalize>
    51a7:	8b 45 e4             	mov    -0x1c(%ebp),%eax
    51aa:	89 04 24             	mov    %eax,(%esp)
    51ad:	e8 ee 0a 00 00       	call   5ca0 <block_put>
    51b2:	83 c4 5c             	add    $0x5c,%esp
    51b5:	89 c6                	mov    %eax,%esi
    51b7:	5b                   	pop    %ebx
    51b8:	89 f0                	mov    %esi,%eax
    51ba:	5e                   	pop    %esi
    51bb:	5f                   	pop    %edi
    51bc:	5d                   	pop    %ebp
    51bd:	c3                   	ret    
    51be:	66 90                	xchg   %ax,%ax
    51c0:	42                   	inc    %edx
    51c1:	8b 5d c4             	mov    -0x3c(%ebp),%ebx
    51c4:	3b 55 d4             	cmp    -0x2c(%ebp),%edx
    51c7:	8d 3c d5 00 00 00 00 	lea    0x0(,%edx,8),%edi
    51ce:	0f 85 94 fe ff ff    	jne    5068 <udf_read_file+0x58>
    51d4:	8b 75 d0             	mov    -0x30(%ebp),%esi
    51d7:	01 fe                	add    %edi,%esi
    51d9:	e9 ad fe ff ff       	jmp    508b <udf_read_file+0x7b>
    51de:	66 90                	xchg   %ax,%ax
    51e0:	39 5d c8             	cmp    %ebx,-0x38(%ebp)
    51e3:	0f 83 62 fe ff ff    	jae    504b <udf_read_file+0x3b>
    51e9:	8b 75 d0             	mov    -0x30(%ebp),%esi
    51ec:	31 ff                	xor    %edi,%edi
    51ee:	31 db                	xor    %ebx,%ebx
    51f0:	e9 96 fe ff ff       	jmp    508b <udf_read_file+0x7b>
    51f5:	8d 76 00             	lea    0x0(%esi),%esi
    51f8:	8b 4d c4             	mov    -0x3c(%ebp),%ecx
    51fb:	8b 45 d0             	mov    -0x30(%ebp),%eax
    51fe:	29 c1                	sub    %eax,%ecx
    5200:	e9 54 ff ff ff       	jmp    5159 <udf_read_file+0x149>
    5205:	8d 76 00             	lea    0x0(%esi),%esi
    5208:	8b 45 1c             	mov    0x1c(%ebp),%eax
    520b:	31 d2                	xor    %edx,%edx
    520d:	03 45 c8             	add    -0x38(%ebp),%eax
    5210:	13 55 cc             	adc    -0x34(%ebp),%edx
    5213:	01 fb                	add    %edi,%ebx
    5215:	83 fa 00             	cmp    $0x0,%edx
    5218:	76 3e                	jbe    5258 <udf_read_file+0x248>
    521a:	8b 45 d4             	mov    -0x2c(%ebp),%eax
    521d:	89 f9                	mov    %edi,%ecx
    521f:	0f af c6             	imul   %esi,%eax
    5222:	8b 75 d0             	mov    -0x30(%ebp),%esi
    5225:	29 c1                	sub    %eax,%ecx
    5227:	8b 45 08             	mov    0x8(%ebp),%eax
    522a:	29 f1                	sub    %esi,%ecx
    522c:	89 08                	mov    %ecx,(%eax)
    522e:	e9 56 ff ff ff       	jmp    5189 <udf_read_file+0x179>
    5233:	90                   	nop
