
bithenge:     file format elf32-i386


Disassembly of section .init:

00001094 <__entry>:
    1094:	66 8c d0             	mov    %ss,%ax
    1097:	8e d8                	mov    %eax,%ds
    1099:	8e c0                	mov    %eax,%es
    109b:	8e e0                	mov    %eax,%fs
    109d:	b8 01 00 00 00       	mov    $0x1,%eax
    10a2:	0f a2                	cpuid  
    10a4:	0f ba e2 0b          	bt     $0xb,%edx
    10a8:	73 0c                	jae    10b6 <__entry+0x22>
    10aa:	8d 05 54 06 03 00    	lea    0x30654,%eax
    10b0:	c7 00 37 a9 02 00    	movl   $0x2a937,(%eax)
    10b6:	6a 00                	push   $0x0
    10b8:	89 e5                	mov    %esp,%ebp
    10ba:	57                   	push   %edi
    10bb:	e8 20 f1 00 00       	call   101e0 <__main>

Disassembly of section .text:

000010c0 <bithenge_transform_dec_ref>:
    10c0:	55                   	push   %ebp
    10c1:	89 e5                	mov    %esp,%ebp
    10c3:	83 ec 18             	sub    $0x18,%esp
    10c6:	85 c0                	test   %eax,%eax
    10c8:	74 15                	je     10df <bithenge_transform_dec_ref+0x1f>
    10ca:	8b 08                	mov    (%eax),%ecx
    10cc:	85 c9                	test   %ecx,%ecx
    10ce:	74 35                	je     1105 <bithenge_transform_dec_ref+0x45>
    10d0:	8b 50 04             	mov    0x4(%eax),%edx
    10d3:	85 d2                	test   %edx,%edx
    10d5:	74 12                	je     10e9 <bithenge_transform_dec_ref+0x29>
    10d7:	4a                   	dec    %edx
    10d8:	89 50 04             	mov    %edx,0x4(%eax)
    10db:	85 d2                	test   %edx,%edx
    10dd:	74 02                	je     10e1 <bithenge_transform_dec_ref+0x21>
    10df:	c9                   	leave  
    10e0:	c3                   	ret    
    10e1:	89 04 24             	mov    %eax,(%esp)
    10e4:	ff 51 0c             	call   *0xc(%ecx)
    10e7:	c9                   	leave  
    10e8:	c3                   	ret    
    10e9:	c7 44 24 08 75 00 00 	movl   $0x75,0x8(%esp)
    10f0:	00 
    10f1:	c7 44 24 04 64 cc 02 	movl   $0x2cc64,0x4(%esp)
    10f8:	00 
    10f9:	c7 04 24 c3 cc 02 00 	movl   $0x2ccc3,(%esp)
    1100:	e8 ab 97 02 00       	call   2a8b0 <assert_abort>
    1105:	c7 44 24 08 74 00 00 	movl   $0x74,0x8(%esp)
    110c:	00 
    110d:	c7 44 24 04 64 cc 02 	movl   $0x2cc64,0x4(%esp)
    1114:	00 
    1115:	c7 04 24 b9 cc 02 00 	movl   $0x2ccb9,(%esp)
    111c:	e8 8f 97 02 00       	call   2a8b0 <assert_abort>
    1121:	66 90                	xchg   %ax,%ax
    1123:	66 90                	xchg   %ax,%ax
    1125:	66 90                	xchg   %ax,%ax
    1127:	66 90                	xchg   %ax,%ax
    1129:	66 90                	xchg   %ax,%ax
    112b:	66 90                	xchg   %ax,%ax
    112d:	66 90                	xchg   %ax,%ax
    112f:	90                   	nop

00001130 <main>:
    1130:	55                   	push   %ebp
    1131:	89 e5                	mov    %esp,%ebp
    1133:	53                   	push   %ebx
    1134:	83 e4 f0             	and    $0xfffffff0,%esp
    1137:	83 ec 20             	sub    $0x20,%esp
    113a:	8b 5d 0c             	mov    0xc(%ebp),%ebx
    113d:	83 7d 08 02          	cmpl   $0x2,0x8(%ebp)
    1141:	0f 8e e2 00 00 00    	jle    1229 <main+0xf9>
    1147:	8d 44 24 10          	lea    0x10(%esp),%eax
    114b:	c7 44 24 04 00 00 00 	movl   $0x0,0x4(%esp)
    1152:	00 
    1153:	89 04 24             	mov    %eax,(%esp)
    1156:	c7 44 24 10 00 00 00 	movl   $0x0,0x10(%esp)
    115d:	00 
    115e:	c7 44 24 14 00 00 00 	movl   $0x0,0x14(%esp)
    1165:	00 
    1166:	c7 44 24 18 00 00 00 	movl   $0x0,0x18(%esp)
    116d:	00 
    116e:	c7 44 24 1c 00 00 00 	movl   $0x0,0x1c(%esp)
    1175:	00 
    1176:	e8 d5 86 00 00       	call   9850 <bithenge_scope_new>
    117b:	85 c0                	test   %eax,%eax
    117d:	74 57                	je     11d6 <main+0xa6>
    117f:	89 04 24             	mov    %eax,(%esp)
    1182:	e8 49 57 01 00       	call   168d0 <str_error>
    1187:	c7 04 24 ef cc 02 00 	movl   $0x2ccef,(%esp)
    118e:	89 44 24 04          	mov    %eax,0x4(%esp)
    1192:	e8 b9 a0 01 00       	call   1b250 <printf>
    1197:	c7 44 24 10 00 00 00 	movl   $0x0,0x10(%esp)
    119e:	00 
    119f:	8b 44 24 18          	mov    0x18(%esp),%eax
    11a3:	89 04 24             	mov    %eax,(%esp)
    11a6:	e8 15 91 00 00       	call   a2c0 <bithenge_node_dec_ref>
    11ab:	8b 44 24 1c          	mov    0x1c(%esp),%eax
    11af:	89 04 24             	mov    %eax,(%esp)
    11b2:	e8 09 91 00 00       	call   a2c0 <bithenge_node_dec_ref>
    11b7:	8b 44 24 14          	mov    0x14(%esp),%eax
    11bb:	e8 00 ff ff ff       	call   10c0 <bithenge_transform_dec_ref>
    11c0:	8b 44 24 10          	mov    0x10(%esp),%eax
    11c4:	89 04 24             	mov    %eax,(%esp)
    11c7:	e8 f4 86 00 00       	call   98c0 <bithenge_scope_dec_ref>
    11cc:	b8 01 00 00 00       	mov    $0x1,%eax
    11d1:	8b 5d fc             	mov    -0x4(%ebp),%ebx
    11d4:	c9                   	leave  
    11d5:	c3                   	ret    
    11d6:	8d 44 24 14          	lea    0x14(%esp),%eax
    11da:	89 44 24 04          	mov    %eax,0x4(%esp)
    11de:	8b 43 04             	mov    0x4(%ebx),%eax
    11e1:	89 04 24             	mov    %eax,(%esp)
    11e4:	e8 27 42 00 00       	call   5410 <bithenge_parse_script>
    11e9:	85 c0                	test   %eax,%eax
    11eb:	75 5e                	jne    124b <main+0x11b>
    11ed:	8b 43 08             	mov    0x8(%ebx),%eax
    11f0:	89 44 24 04          	mov    %eax,0x4(%esp)
    11f4:	8d 44 24 18          	lea    0x18(%esp),%eax
    11f8:	89 04 24             	mov    %eax,(%esp)
    11fb:	e8 60 67 00 00       	call   7960 <bithenge_node_from_source>
    1200:	85 c0                	test   %eax,%eax
    1202:	74 6c                	je     1270 <main+0x140>
    1204:	89 04 24             	mov    %eax,(%esp)
    1207:	e8 c4 56 01 00       	call   168d0 <str_error>
    120c:	c7 04 24 94 cc 02 00 	movl   $0x2cc94,(%esp)
    1213:	89 44 24 04          	mov    %eax,0x4(%esp)
    1217:	e8 34 a0 01 00       	call   1b250 <printf>
    121c:	c7 44 24 18 00 00 00 	movl   $0x0,0x18(%esp)
    1223:	00 
    1224:	e9 76 ff ff ff       	jmp    119f <main+0x6f>
    1229:	8b 03                	mov    (%ebx),%eax
    122b:	c7 44 24 04 d2 cc 02 	movl   $0x2ccd2,0x4(%esp)
    1232:	00 
    1233:	89 44 24 08          	mov    %eax,0x8(%esp)
    1237:	a1 b8 06 03 00       	mov    0x306b8,%eax
    123c:	89 04 24             	mov    %eax,(%esp)
    123f:	e8 dc 9f 01 00       	call   1b220 <fprintf>
    1244:	b8 01 00 00 00       	mov    $0x1,%eax
    1249:	eb 86                	jmp    11d1 <main+0xa1>
    124b:	89 04 24             	mov    %eax,(%esp)
    124e:	e8 7d 56 01 00       	call   168d0 <str_error>
    1253:	c7 04 24 09 cd 02 00 	movl   $0x2cd09,(%esp)
    125a:	89 44 24 04          	mov    %eax,0x4(%esp)
    125e:	e8 ed 9f 01 00       	call   1b250 <printf>
    1263:	c7 44 24 14 00 00 00 	movl   $0x0,0x14(%esp)
    126a:	00 
    126b:	e9 2f ff ff ff       	jmp    119f <main+0x6f>
    1270:	8d 44 24 1c          	lea    0x1c(%esp),%eax
    1274:	89 44 24 0c          	mov    %eax,0xc(%esp)
    1278:	8b 44 24 18          	mov    0x18(%esp),%eax
    127c:	89 44 24 08          	mov    %eax,0x8(%esp)
    1280:	8b 44 24 10          	mov    0x10(%esp),%eax
    1284:	89 44 24 04          	mov    %eax,0x4(%esp)
    1288:	8b 44 24 14          	mov    0x14(%esp),%eax
    128c:	89 04 24             	mov    %eax,(%esp)
    128f:	e8 dc 82 00 00       	call   9570 <bithenge_transform_apply>
    1294:	89 c3                	mov    %eax,%ebx
    1296:	85 c0                	test   %eax,%eax
    1298:	75 68                	jne    1302 <main+0x1d2>
    129a:	8b 44 24 18          	mov    0x18(%esp),%eax
    129e:	89 04 24             	mov    %eax,(%esp)
    12a1:	e8 1a 90 00 00       	call   a2c0 <bithenge_node_dec_ref>
    12a6:	8b 44 24 14          	mov    0x14(%esp),%eax
    12aa:	c7 44 24 18 00 00 00 	movl   $0x0,0x18(%esp)
    12b1:	00 
    12b2:	e8 09 fe ff ff       	call   10c0 <bithenge_transform_dec_ref>
    12b7:	8b 44 24 1c          	mov    0x1c(%esp),%eax
    12bb:	c7 04 24 00 00 00 00 	movl   $0x0,(%esp)
    12c2:	89 44 24 04          	mov    %eax,0x4(%esp)
    12c6:	c7 44 24 14 00 00 00 	movl   $0x0,0x14(%esp)
    12cd:	00 
    12ce:	e8 dd 07 00 00       	call   1ab0 <bithenge_print_node>
    12d3:	89 c3                	mov    %eax,%ebx
    12d5:	85 c0                	test   %eax,%eax
    12d7:	74 56                	je     132f <main+0x1ff>
    12d9:	8b 44 24 10          	mov    0x10(%esp),%eax
    12dd:	89 04 24             	mov    %eax,(%esp)
    12e0:	e8 7b 86 00 00       	call   9960 <bithenge_scope_get_error>
    12e5:	85 c0                	test   %eax,%eax
    12e7:	0f 84 87 00 00 00    	je     1374 <main+0x244>
    12ed:	89 44 24 04          	mov    %eax,0x4(%esp)
    12f1:	c7 04 24 41 cd 02 00 	movl   $0x2cd41,(%esp)
    12f8:	e8 53 9f 01 00       	call   1b250 <printf>
    12fd:	e9 9d fe ff ff       	jmp    119f <main+0x6f>
    1302:	8b 44 24 10          	mov    0x10(%esp),%eax
    1306:	89 04 24             	mov    %eax,(%esp)
    1309:	e8 52 86 00 00       	call   9960 <bithenge_scope_get_error>
    130e:	85 c0                	test   %eax,%eax
    1310:	74 58                	je     136a <main+0x23a>
    1312:	89 44 24 04          	mov    %eax,0x4(%esp)
    1316:	c7 04 24 23 cd 02 00 	movl   $0x2cd23,(%esp)
    131d:	e8 2e 9f 01 00       	call   1b250 <printf>
    1322:	c7 44 24 1c 00 00 00 	movl   $0x0,0x1c(%esp)
    1329:	00 
    132a:	e9 70 fe ff ff       	jmp    119f <main+0x6f>
    132f:	8b 44 24 1c          	mov    0x1c(%esp),%eax
    1333:	89 04 24             	mov    %eax,(%esp)
    1336:	e8 85 8f 00 00       	call   a2c0 <bithenge_node_dec_ref>
    133b:	8b 44 24 10          	mov    0x10(%esp),%eax
    133f:	89 04 24             	mov    %eax,(%esp)
    1342:	c7 44 24 1c 00 00 00 	movl   $0x0,0x1c(%esp)
    1349:	00 
    134a:	e8 71 85 00 00       	call   98c0 <bithenge_scope_dec_ref>
    134f:	c7 04 24 07 cf 02 00 	movl   $0x2cf07,(%esp)
    1356:	c7 44 24 10 00 00 00 	movl   $0x0,0x10(%esp)
    135d:	00 
    135e:	e8 ed 9e 01 00       	call   1b250 <printf>
    1363:	31 c0                	xor    %eax,%eax
    1365:	e9 67 fe ff ff       	jmp    11d1 <main+0xa1>
    136a:	89 1c 24             	mov    %ebx,(%esp)
    136d:	e8 5e 55 01 00       	call   168d0 <str_error>
    1372:	eb 9e                	jmp    1312 <main+0x1e2>
    1374:	89 1c 24             	mov    %ebx,(%esp)
    1377:	e8 54 55 01 00       	call   168d0 <str_error>
    137c:	e9 6c ff ff ff       	jmp    12ed <main+0x1bd>
    1381:	66 90                	xchg   %ax,%ax
    1383:	66 90                	xchg   %ax,%ax
    1385:	66 90                	xchg   %ax,%ax
    1387:	66 90                	xchg   %ax,%ax
    1389:	66 90                	xchg   %ax,%ax
    138b:	66 90                	xchg   %ax,%ax
    138d:	66 90                	xchg   %ax,%ax
    138f:	90                   	nop

00001390 <state_printf>:
    1390:	55                   	push   %ebp
    1391:	89 e5                	mov    %esp,%ebp
    1393:	53                   	push   %ebx
    1394:	83 ec 14             	sub    $0x14,%esp
    1397:	8b 5d 08             	mov    0x8(%ebp),%ebx
    139a:	8b 43 0c             	mov    0xc(%ebx),%eax
    139d:	85 c0                	test   %eax,%eax
    139f:	74 4f                	je     13f0 <state_printf+0x60>
    13a1:	8d 55 10             	lea    0x10(%ebp),%edx
    13a4:	89 54 24 0c          	mov    %edx,0xc(%esp)
    13a8:	8b 55 0c             	mov    0xc(%ebp),%edx
    13ab:	89 54 24 08          	mov    %edx,0x8(%esp)
    13af:	8b 53 10             	mov    0x10(%ebx),%edx
    13b2:	89 04 24             	mov    %eax,(%esp)
    13b5:	89 54 24 04          	mov    %edx,0x4(%esp)
    13b9:	e8 32 a4 01 00       	call   1b7f0 <vsnprintf>
    13be:	85 c0                	test   %eax,%eax
    13c0:	7e 14                	jle    13d6 <state_printf+0x46>
    13c2:	8b 53 10             	mov    0x10(%ebx),%edx
    13c5:	39 d0                	cmp    %edx,%eax
    13c7:	73 17                	jae    13e0 <state_printf+0x50>
    13c9:	8b 4b 0c             	mov    0xc(%ebx),%ecx
    13cc:	29 c2                	sub    %eax,%edx
    13ce:	01 c1                	add    %eax,%ecx
    13d0:	89 53 10             	mov    %edx,0x10(%ebx)
    13d3:	89 4b 0c             	mov    %ecx,0xc(%ebx)
    13d6:	83 c4 14             	add    $0x14,%esp
    13d9:	5b                   	pop    %ebx
    13da:	5d                   	pop    %ebp
    13db:	c3                   	ret    
    13dc:	8d 74 26 00          	lea    0x0(%esi,%eiz,1),%esi
    13e0:	8d 42 ff             	lea    -0x1(%edx),%eax
    13e3:	85 c0                	test   %eax,%eax
    13e5:	7f e2                	jg     13c9 <state_printf+0x39>
    13e7:	eb ed                	jmp    13d6 <state_printf+0x46>
    13e9:	8d b4 26 00 00 00 00 	lea    0x0(%esi,%eiz,1),%esi
    13f0:	8d 45 10             	lea    0x10(%ebp),%eax
    13f3:	8b 55 0c             	mov    0xc(%ebp),%edx
    13f6:	89 44 24 04          	mov    %eax,0x4(%esp)
    13fa:	89 14 24             	mov    %edx,(%esp)
    13fd:	e8 0e a2 01 00       	call   1b610 <vprintf>
    1402:	83 c4 14             	add    $0x14,%esp
    1405:	5b                   	pop    %ebx
    1406:	5d                   	pop    %ebp
    1407:	c3                   	ret    
    1408:	90                   	nop
    1409:	8d b4 26 00 00 00 00 	lea    0x0(%esi,%eiz,1),%esi

00001410 <print_blob>:
    1410:	55                   	push   %ebp
    1411:	89 e5                	mov    %esp,%ebp
    1413:	57                   	push   %edi
    1414:	56                   	push   %esi
    1415:	53                   	push   %ebx
    1416:	81 ec 5c 04 00 00    	sub    $0x45c,%esp
    141c:	89 85 d4 fb ff ff    	mov    %eax,-0x42c(%ebp)
    1422:	89 95 c4 fb ff ff    	mov    %edx,-0x43c(%ebp)
    1428:	83 3a 05             	cmpl   $0x5,(%edx)
    142b:	0f 85 5d 01 00 00    	jne    158e <print_blob+0x17e>
    1431:	89 c2                	mov    %eax,%edx
    1433:	c7 85 e0 fb ff ff 00 	movl   $0x400,-0x420(%ebp)
    143a:	04 00 00 
    143d:	c7 85 e4 fb ff ff 00 	movl   $0x0,-0x41c(%ebp)
    1444:	00 00 00 
    1447:	b8 5b cd 02 00       	mov    $0x2cd5b,%eax
    144c:	8b 1a                	mov    (%edx),%ebx
    144e:	85 db                	test   %ebx,%ebx
    1450:	75 05                	jne    1457 <print_blob+0x47>
    1452:	b8 5a cd 02 00       	mov    $0x2cd5a,%eax
    1457:	89 44 24 04          	mov    %eax,0x4(%esp)
    145b:	8b 85 d4 fb ff ff    	mov    -0x42c(%ebp),%eax
    1461:	89 04 24             	mov    %eax,(%esp)
    1464:	e8 27 ff ff ff       	call   1390 <state_printf>
    1469:	c7 85 c8 fb ff ff 00 	movl   $0x0,-0x438(%ebp)
    1470:	00 00 00 
    1473:	c7 85 cc fb ff ff 00 	movl   $0x0,-0x434(%ebp)
    147a:	00 00 00 
    147d:	eb 18                	jmp    1497 <print_blob+0x87>
    147f:	90                   	nop
    1480:	01 85 c8 fb ff ff    	add    %eax,-0x438(%ebp)
    1486:	11 95 cc fb ff ff    	adc    %edx,-0x434(%ebp)
    148c:	80 f4 04             	xor    $0x4,%ah
    148f:	09 d0                	or     %edx,%eax
    1491:	0f 85 d0 00 00 00    	jne    1567 <print_blob+0x157>
    1497:	8b 95 c4 fb ff ff    	mov    -0x43c(%ebp),%edx
    149d:	8b 42 08             	mov    0x8(%edx),%eax
    14a0:	85 c0                	test   %eax,%eax
    14a2:	0f 84 02 01 00 00    	je     15aa <print_blob+0x19a>
    14a8:	8b 40 04             	mov    0x4(%eax),%eax
    14ab:	85 c0                	test   %eax,%eax
    14ad:	0f 84 99 00 00 00    	je     154c <print_blob+0x13c>
    14b3:	8d 95 e8 fb ff ff    	lea    -0x418(%ebp),%edx
    14b9:	8d 8d e0 fb ff ff    	lea    -0x420(%ebp),%ecx
    14bf:	89 54 24 0c          	mov    %edx,0xc(%esp)
    14c3:	8b 95 c8 fb ff ff    	mov    -0x438(%ebp),%edx
    14c9:	89 4c 24 10          	mov    %ecx,0x10(%esp)
    14cd:	89 54 24 04          	mov    %edx,0x4(%esp)
    14d1:	8b 8d cc fb ff ff    	mov    -0x434(%ebp),%ecx
    14d7:	8b 95 c4 fb ff ff    	mov    -0x43c(%ebp),%edx
    14dd:	89 4c 24 08          	mov    %ecx,0x8(%esp)
    14e1:	89 14 24             	mov    %edx,(%esp)
    14e4:	ff d0                	call   *%eax
    14e6:	89 85 d0 fb ff ff    	mov    %eax,-0x430(%ebp)
    14ec:	85 c0                	test   %eax,%eax
    14ee:	75 6c                	jne    155c <print_blob+0x14c>
    14f0:	8b 85 e4 fb ff ff    	mov    -0x41c(%ebp),%eax
    14f6:	0b 85 e0 fb ff ff    	or     -0x420(%ebp),%eax
    14fc:	74 69                	je     1567 <print_blob+0x157>
    14fe:	8d 9d e8 fb ff ff    	lea    -0x418(%ebp),%ebx
    1504:	31 f6                	xor    %esi,%esi
    1506:	31 ff                	xor    %edi,%edi
    1508:	31 c0                	xor    %eax,%eax
    150a:	8a 03                	mov    (%ebx),%al
    150c:	c7 44 24 04 89 cd 02 	movl   $0x2cd89,0x4(%esp)
    1513:	00 
    1514:	89 44 24 08          	mov    %eax,0x8(%esp)
    1518:	8b 85 d4 fb ff ff    	mov    -0x42c(%ebp),%eax
    151e:	89 04 24             	mov    %eax,(%esp)
    1521:	e8 6a fe ff ff       	call   1390 <state_printf>
    1526:	83 c6 01             	add    $0x1,%esi
    1529:	83 d7 00             	adc    $0x0,%edi
    152c:	8b 95 e4 fb ff ff    	mov    -0x41c(%ebp),%edx
    1532:	43                   	inc    %ebx
    1533:	8b 85 e0 fb ff ff    	mov    -0x420(%ebp),%eax
    1539:	39 fa                	cmp    %edi,%edx
    153b:	77 cb                	ja     1508 <print_blob+0xf8>
    153d:	0f 82 3d ff ff ff    	jb     1480 <print_blob+0x70>
    1543:	39 f0                	cmp    %esi,%eax
    1545:	77 c1                	ja     1508 <print_blob+0xf8>
    1547:	e9 34 ff ff ff       	jmp    1480 <print_blob+0x70>
    154c:	c7 85 d0 fb ff ff f2 	movl   $0xfffffff2,-0x430(%ebp)
    1553:	ff ff ff 
    1556:	8b 85 d0 fb ff ff    	mov    -0x430(%ebp),%eax
    155c:	81 c4 5c 04 00 00    	add    $0x45c,%esp
    1562:	5b                   	pop    %ebx
    1563:	5e                   	pop    %esi
    1564:	5f                   	pop    %edi
    1565:	5d                   	pop    %ebp
    1566:	c3                   	ret    
    1567:	8b 85 d4 fb ff ff    	mov    -0x42c(%ebp),%eax
    156d:	c7 44 24 04 5b cd 02 	movl   $0x2cd5b,0x4(%esp)
    1574:	00 
    1575:	89 04 24             	mov    %eax,(%esp)
    1578:	e8 13 fe ff ff       	call   1390 <state_printf>
    157d:	8b 85 d0 fb ff ff    	mov    -0x430(%ebp),%eax
    1583:	81 c4 5c 04 00 00    	add    $0x45c,%esp
    1589:	5b                   	pop    %ebx
    158a:	5e                   	pop    %esi
    158b:	5f                   	pop    %edi
    158c:	5d                   	pop    %ebp
    158d:	c3                   	ret    
    158e:	c7 44 24 08 d9 00 00 	movl   $0xd9,0x8(%esp)
    1595:	00 
    1596:	c7 44 24 04 5d cd 02 	movl   $0x2cd5d,0x4(%esp)
    159d:	00 
    159e:	c7 04 24 dc cd 02 00 	movl   $0x2cddc,(%esp)
    15a5:	e8 06 93 02 00       	call   2a8b0 <assert_abort>
    15aa:	c7 44 24 08 97 00 00 	movl   $0x97,0x8(%esp)
    15b1:	00 
    15b2:	c7 44 24 04 5d cd 02 	movl   $0x2cd5d,0x4(%esp)
    15b9:	00 
    15ba:	c7 04 24 75 cd 02 00 	movl   $0x2cd75,(%esp)
    15c1:	e8 ea 92 02 00       	call   2a8b0 <assert_abort>
    15c6:	8d 76 00             	lea    0x0(%esi),%esi
    15c9:	8d bc 27 00 00 00 00 	lea    0x0(%edi,%eiz,1),%edi

000015d0 <print_string>:
    15d0:	55                   	push   %ebp
    15d1:	89 e5                	mov    %esp,%ebp
    15d3:	57                   	push   %edi
    15d4:	56                   	push   %esi
    15d5:	53                   	push   %ebx
    15d6:	83 ec 3c             	sub    $0x3c,%esp
    15d9:	83 3a 04             	cmpl   $0x4,(%edx)
    15dc:	0f 85 fb 00 00 00    	jne    16dd <print_string+0x10d>
    15e2:	8b 5a 08             	mov    0x8(%edx),%ebx
    15e5:	89 04 24             	mov    %eax,(%esp)
    15e8:	c7 44 24 04 5b cd 02 	movl   $0x2cd5b,0x4(%esp)
    15ef:	00 
    15f0:	89 c6                	mov    %eax,%esi
    15f2:	e8 99 fd ff ff       	call   1390 <state_printf>
    15f7:	8d 45 e0             	lea    -0x20(%ebp),%eax
    15fa:	c7 44 24 08 ff ff ff 	movl   $0xffffffff,0x8(%esp)
    1601:	ff 
    1602:	89 44 24 04          	mov    %eax,0x4(%esp)
    1606:	89 1c 24             	mov    %ebx,(%esp)
    1609:	89 5d dc             	mov    %ebx,-0x24(%ebp)
    160c:	c7 45 e0 00 00 00 00 	movl   $0x0,-0x20(%ebp)
    1613:	e8 98 25 01 00       	call   13bb0 <str_decode>
    1618:	8b 55 dc             	mov    -0x24(%ebp),%edx
    161b:	89 45 e4             	mov    %eax,-0x1c(%ebp)
    161e:	89 55 d0             	mov    %edx,-0x30(%ebp)
    1621:	8b 55 e0             	mov    -0x20(%ebp),%edx
    1624:	89 55 d4             	mov    %edx,-0x2c(%ebp)
    1627:	89 45 d8             	mov    %eax,-0x28(%ebp)
    162a:	8d 7d d4             	lea    -0x2c(%ebp),%edi
    162d:	8d 76 00             	lea    0x0(%esi),%esi
    1630:	8b 5d d8             	mov    -0x28(%ebp),%ebx
    1633:	85 db                	test   %ebx,%ebx
    1635:	74 4d                	je     1684 <print_string+0xb4>
    1637:	83 fb 3f             	cmp    $0x3f,%ebx
    163a:	0f 84 90 00 00 00    	je     16d0 <print_string+0x100>
    1640:	8b 45 d0             	mov    -0x30(%ebp),%eax
    1643:	c7 44 24 08 ff ff ff 	movl   $0xffffffff,0x8(%esp)
    164a:	ff 
    164b:	89 7c 24 04          	mov    %edi,0x4(%esp)
    164f:	89 04 24             	mov    %eax,(%esp)
    1652:	e8 59 25 01 00       	call   13bb0 <str_decode>
    1657:	89 5c 24 08          	mov    %ebx,0x8(%esp)
    165b:	89 45 d8             	mov    %eax,-0x28(%ebp)
    165e:	83 fb 5c             	cmp    $0x5c,%ebx
    1661:	74 55                	je     16b8 <print_string+0xe8>
    1663:	83 fb 22             	cmp    $0x22,%ebx
    1666:	74 50                	je     16b8 <print_string+0xe8>
    1668:	83 fb 1f             	cmp    $0x1f,%ebx
    166b:	7f 33                	jg     16a0 <print_string+0xd0>
    166d:	c7 44 24 04 ad cd 02 	movl   $0x2cdad,0x4(%esp)
    1674:	00 
    1675:	89 34 24             	mov    %esi,(%esp)
    1678:	e8 13 fd ff ff       	call   1390 <state_printf>
    167d:	8b 5d d8             	mov    -0x28(%ebp),%ebx
    1680:	85 db                	test   %ebx,%ebx
    1682:	75 b3                	jne    1637 <print_string+0x67>
    1684:	89 34 24             	mov    %esi,(%esp)
    1687:	c7 44 24 04 5b cd 02 	movl   $0x2cd5b,0x4(%esp)
    168e:	00 
    168f:	e8 fc fc ff ff       	call   1390 <state_printf>
    1694:	83 c4 3c             	add    $0x3c,%esp
    1697:	31 c0                	xor    %eax,%eax
    1699:	5b                   	pop    %ebx
    169a:	5e                   	pop    %esi
    169b:	5f                   	pop    %edi
    169c:	5d                   	pop    %ebp
    169d:	c3                   	ret    
    169e:	66 90                	xchg   %ax,%ax
    16a0:	c7 44 24 04 a9 cd 02 	movl   $0x2cda9,0x4(%esp)
    16a7:	00 
    16a8:	89 34 24             	mov    %esi,(%esp)
    16ab:	e8 e0 fc ff ff       	call   1390 <state_printf>
    16b0:	e9 7b ff ff ff       	jmp    1630 <print_string+0x60>
    16b5:	8d 76 00             	lea    0x0(%esi),%esi
    16b8:	c7 44 24 04 a8 cd 02 	movl   $0x2cda8,0x4(%esp)
    16bf:	00 
    16c0:	89 34 24             	mov    %esi,(%esp)
    16c3:	e8 c8 fc ff ff       	call   1390 <state_printf>
    16c8:	e9 63 ff ff ff       	jmp    1630 <print_string+0x60>
    16cd:	8d 76 00             	lea    0x0(%esi),%esi
    16d0:	83 c4 3c             	add    $0x3c,%esp
    16d3:	b8 f2 ff ff ff       	mov    $0xfffffff2,%eax
    16d8:	5b                   	pop    %ebx
    16d9:	5e                   	pop    %esi
    16da:	5f                   	pop    %edi
    16db:	5d                   	pop    %ebp
    16dc:	c3                   	ret    
    16dd:	c7 44 24 08 a2 00 00 	movl   $0xa2,0x8(%esp)
    16e4:	00 
    16e5:	c7 44 24 04 90 cd 02 	movl   $0x2cd90,0x4(%esp)
    16ec:	00 
    16ed:	c7 04 24 00 ce 02 00 	movl   $0x2ce00,(%esp)
    16f4:	e8 b7 91 02 00       	call   2a8b0 <assert_abort>
    16f9:	8d b4 26 00 00 00 00 	lea    0x0(%esi,%eiz,1),%esi

00001700 <print_internal_func>:
    1700:	55                   	push   %ebp
    1701:	89 e5                	mov    %esp,%ebp
    1703:	57                   	push   %edi
    1704:	56                   	push   %esi
    1705:	53                   	push   %ebx
    1706:	83 ec 2c             	sub    $0x2c,%esp
    1709:	8b 75 10             	mov    0x10(%ebp),%esi
    170c:	8b 5d 08             	mov    0x8(%ebp),%ebx
    170f:	80 7e 04 00          	cmpb   $0x0,0x4(%esi)
    1713:	74 73                	je     1788 <print_internal_func+0x88>
    1715:	c7 44 24 04 07 cf 02 	movl   $0x2cf07,0x4(%esp)
    171c:	00 
    171d:	89 34 24             	mov    %esi,(%esp)
    1720:	e8 6b fc ff ff       	call   1390 <state_printf>
    1725:	8b 46 08             	mov    0x8(%esi),%eax
    1728:	31 ff                	xor    %edi,%edi
    172a:	85 c0                	test   %eax,%eax
    172c:	7e 18                	jle    1746 <print_internal_func+0x46>
    172e:	66 90                	xchg   %ax,%ax
    1730:	c7 44 24 04 cc cd 02 	movl   $0x2cdcc,0x4(%esp)
    1737:	00 
    1738:	89 34 24             	mov    %esi,(%esp)
    173b:	47                   	inc    %edi
    173c:	e8 4f fc ff ff       	call   1390 <state_printf>
    1741:	3b 7e 08             	cmp    0x8(%esi),%edi
    1744:	7c ea                	jl     1730 <print_internal_func+0x30>
    1746:	c6 46 04 00          	movb   $0x0,0x4(%esi)
    174a:	83 3e 01             	cmpl   $0x1,(%esi)
    174d:	74 51                	je     17a0 <print_internal_func+0xa0>
    174f:	8b 03                	mov    (%ebx),%eax
    1751:	31 ff                	xor    %edi,%edi
    1753:	83 f8 05             	cmp    $0x5,%eax
    1756:	76 28                	jbe    1780 <print_internal_func+0x80>
    1758:	b8 f5 ff ff ff       	mov    $0xfffffff5,%eax
    175d:	89 1c 24             	mov    %ebx,(%esp)
    1760:	89 45 e4             	mov    %eax,-0x1c(%ebp)
    1763:	e8 58 8b 00 00       	call   a2c0 <bithenge_node_dec_ref>
    1768:	8b 4d 0c             	mov    0xc(%ebp),%ecx
    176b:	89 0c 24             	mov    %ecx,(%esp)
    176e:	e8 4d 8b 00 00       	call   a2c0 <bithenge_node_dec_ref>
    1773:	8b 45 e4             	mov    -0x1c(%ebp),%eax
    1776:	83 c4 2c             	add    $0x2c,%esp
    1779:	5b                   	pop    %ebx
    177a:	5e                   	pop    %esi
    177b:	5f                   	pop    %edi
    177c:	5d                   	pop    %ebp
    177d:	c3                   	ret    
    177e:	66 90                	xchg   %ax,%ax
    1780:	ff 24 85 4c ce 02 00 	jmp    *0x2ce4c(,%eax,4)
    1787:	90                   	nop
    1788:	c7 44 24 04 ca cd 02 	movl   $0x2cdca,0x4(%esp)
    178f:	00 
    1790:	89 34 24             	mov    %esi,(%esp)
    1793:	e8 f8 fb ff ff       	call   1390 <state_printf>
    1798:	e9 78 ff ff ff       	jmp    1715 <print_internal_func+0x15>
    179d:	8d 76 00             	lea    0x0(%esi),%esi
    17a0:	31 ff                	xor    %edi,%edi
    17a2:	83 3b 04             	cmpl   $0x4,(%ebx)
    17a5:	74 51                	je     17f8 <print_internal_func+0xf8>
    17a7:	c7 44 24 04 5b cd 02 	movl   $0x2cd5b,0x4(%esp)
    17ae:	00 
    17af:	89 34 24             	mov    %esi,(%esp)
    17b2:	e8 d9 fb ff ff       	call   1390 <state_printf>
    17b7:	bf 01 00 00 00       	mov    $0x1,%edi
    17bc:	8b 03                	mov    (%ebx),%eax
    17be:	eb 93                	jmp    1753 <print_internal_func+0x53>
    17c0:	89 da                	mov    %ebx,%edx
    17c2:	89 f0                	mov    %esi,%eax
    17c4:	e8 47 fc ff ff       	call   1410 <print_blob>
    17c9:	85 c0                	test   %eax,%eax
    17cb:	75 90                	jne    175d <print_internal_func+0x5d>
    17cd:	89 f8                	mov    %edi,%eax
    17cf:	84 c0                	test   %al,%al
    17d1:	75 54                	jne    1827 <print_internal_func+0x127>
    17d3:	c7 44 24 04 fa ce 02 	movl   $0x2cefa,0x4(%esp)
    17da:	00 
    17db:	89 34 24             	mov    %esi,(%esp)
    17de:	e8 ad fb ff ff       	call   1390 <state_printf>
    17e3:	8b 4d 0c             	mov    0xc(%ebp),%ecx
    17e6:	83 39 05             	cmpl   $0x5,(%ecx)
    17e9:	0f 87 69 ff ff ff    	ja     1758 <print_internal_func+0x58>
    17ef:	8b 01                	mov    (%ecx),%eax
    17f1:	ff 24 85 64 ce 02 00 	jmp    *0x2ce64(,%eax,4)
    17f8:	89 da                	mov    %ebx,%edx
    17fa:	89 f0                	mov    %esi,%eax
    17fc:	e8 cf fd ff ff       	call   15d0 <print_string>
    1801:	eb c6                	jmp    17c9 <print_internal_func+0xc9>
    1803:	8b 43 08             	mov    0x8(%ebx),%eax
    1806:	8b 53 0c             	mov    0xc(%ebx),%edx
    1809:	89 54 24 0c          	mov    %edx,0xc(%esp)
    180d:	89 44 24 08          	mov    %eax,0x8(%esp)
    1811:	c7 44 24 04 d5 cd 02 	movl   $0x2cdd5,0x4(%esp)
    1818:	00 
    1819:	89 34 24             	mov    %esi,(%esp)
    181c:	e8 6f fb ff ff       	call   1390 <state_printf>
    1821:	89 f8                	mov    %edi,%eax
    1823:	84 c0                	test   %al,%al
    1825:	74 ac                	je     17d3 <print_internal_func+0xd3>
    1827:	c7 44 24 04 5b cd 02 	movl   $0x2cd5b,0x4(%esp)
    182e:	00 
    182f:	89 34 24             	mov    %esi,(%esp)
    1832:	e8 59 fb ff ff       	call   1390 <state_printf>
    1837:	eb 9a                	jmp    17d3 <print_internal_func+0xd3>
    1839:	8b 06                	mov    (%esi),%eax
    183b:	8a 53 08             	mov    0x8(%ebx),%dl
    183e:	85 c0                	test   %eax,%eax
    1840:	0f 85 6d 01 00 00    	jne    19b3 <print_internal_func+0x2b3>
    1846:	b8 b9 cd 02 00       	mov    $0x2cdb9,%eax
    184b:	84 d2                	test   %dl,%dl
    184d:	0f 85 88 01 00 00    	jne    19db <print_internal_func+0x2db>
    1853:	89 44 24 04          	mov    %eax,0x4(%esp)
    1857:	89 34 24             	mov    %esi,(%esp)
    185a:	e8 31 fb ff ff       	call   1390 <state_printf>
    185f:	e9 69 ff ff ff       	jmp    17cd <print_internal_func+0xcd>
    1864:	c7 44 24 04 d1 cd 02 	movl   $0x2cdd1,0x4(%esp)
    186b:	00 
    186c:	89 34 24             	mov    %esi,(%esp)
    186f:	e8 1c fb ff ff       	call   1390 <state_printf>
    1874:	8b 46 08             	mov    0x8(%esi),%eax
    1877:	40                   	inc    %eax
    1878:	c6 46 04 01          	movb   $0x1,0x4(%esi)
    187c:	89 46 08             	mov    %eax,0x8(%esi)
    187f:	83 3b 01             	cmpl   $0x1,(%ebx)
    1882:	0f 85 01 02 00 00    	jne    1a89 <print_internal_func+0x389>
    1888:	8b 43 08             	mov    0x8(%ebx),%eax
    188b:	89 74 24 08          	mov    %esi,0x8(%esp)
    188f:	c7 44 24 04 00 17 00 	movl   $0x1700,0x4(%esp)
    1896:	00 
    1897:	89 1c 24             	mov    %ebx,(%esp)
    189a:	ff 10                	call   *(%eax)
    189c:	85 c0                	test   %eax,%eax
    189e:	0f 85 b9 fe ff ff    	jne    175d <print_internal_func+0x5d>
    18a4:	8b 46 08             	mov    0x8(%esi),%eax
    18a7:	48                   	dec    %eax
    18a8:	89 46 08             	mov    %eax,0x8(%esi)
    18ab:	80 7e 04 00          	cmpb   $0x0,0x4(%esi)
    18af:	0f 84 95 01 00 00    	je     1a4a <print_internal_func+0x34a>
    18b5:	c6 46 04 00          	movb   $0x0,0x4(%esi)
    18b9:	c7 44 24 04 d3 cd 02 	movl   $0x2cdd3,0x4(%esp)
    18c0:	00 
    18c1:	89 34 24             	mov    %esi,(%esp)
    18c4:	e8 c7 fa ff ff       	call   1390 <state_printf>
    18c9:	e9 ff fe ff ff       	jmp    17cd <print_internal_func+0xcd>
    18ce:	8b 55 0c             	mov    0xc(%ebp),%edx
    18d1:	89 f0                	mov    %esi,%eax
    18d3:	e8 38 fb ff ff       	call   1410 <print_blob>
    18d8:	e9 80 fe ff ff       	jmp    175d <print_internal_func+0x5d>
    18dd:	8b 55 0c             	mov    0xc(%ebp),%edx
    18e0:	89 f0                	mov    %esi,%eax
    18e2:	e8 e9 fc ff ff       	call   15d0 <print_string>
    18e7:	e9 71 fe ff ff       	jmp    175d <print_internal_func+0x5d>
    18ec:	c7 44 24 04 d1 cd 02 	movl   $0x2cdd1,0x4(%esp)
    18f3:	00 
    18f4:	89 34 24             	mov    %esi,(%esp)
    18f7:	e8 94 fa ff ff       	call   1390 <state_printf>
    18fc:	8b 4e 08             	mov    0x8(%esi),%ecx
    18ff:	41                   	inc    %ecx
    1900:	c6 46 04 01          	movb   $0x1,0x4(%esi)
    1904:	89 4e 08             	mov    %ecx,0x8(%esi)
    1907:	8b 4d 0c             	mov    0xc(%ebp),%ecx
    190a:	83 39 01             	cmpl   $0x1,(%ecx)
    190d:	0f 85 76 01 00 00    	jne    1a89 <print_internal_func+0x389>
    1913:	8b 41 08             	mov    0x8(%ecx),%eax
    1916:	89 74 24 08          	mov    %esi,0x8(%esp)
    191a:	c7 44 24 04 00 17 00 	movl   $0x1700,0x4(%esp)
    1921:	00 
    1922:	89 0c 24             	mov    %ecx,(%esp)
    1925:	ff 10                	call   *(%eax)
    1927:	85 c0                	test   %eax,%eax
    1929:	0f 85 2e fe ff ff    	jne    175d <print_internal_func+0x5d>
    192f:	8b 56 08             	mov    0x8(%esi),%edx
    1932:	4a                   	dec    %edx
    1933:	89 56 08             	mov    %edx,0x8(%esi)
    1936:	80 7e 04 00          	cmpb   $0x0,0x4(%esi)
    193a:	0f 84 a5 00 00 00    	je     19e5 <print_internal_func+0x2e5>
    1940:	c6 46 04 00          	movb   $0x0,0x4(%esi)
    1944:	c7 44 24 04 d3 cd 02 	movl   $0x2cdd3,0x4(%esp)
    194b:	00 
    194c:	89 34 24             	mov    %esi,(%esp)
    194f:	89 45 e4             	mov    %eax,-0x1c(%ebp)
    1952:	e8 39 fa ff ff       	call   1390 <state_printf>
    1957:	8b 45 e4             	mov    -0x1c(%ebp),%eax
    195a:	e9 fe fd ff ff       	jmp    175d <print_internal_func+0x5d>
    195f:	8b 4d 0c             	mov    0xc(%ebp),%ecx
    1962:	8b 41 08             	mov    0x8(%ecx),%eax
    1965:	8b 51 0c             	mov    0xc(%ecx),%edx
    1968:	89 54 24 0c          	mov    %edx,0xc(%esp)
    196c:	89 44 24 08          	mov    %eax,0x8(%esp)
    1970:	c7 44 24 04 d5 cd 02 	movl   $0x2cdd5,0x4(%esp)
    1977:	00 
    1978:	89 34 24             	mov    %esi,(%esp)
    197b:	e8 10 fa ff ff       	call   1390 <state_printf>
    1980:	31 c0                	xor    %eax,%eax
    1982:	e9 d6 fd ff ff       	jmp    175d <print_internal_func+0x5d>
    1987:	8b 4d 0c             	mov    0xc(%ebp),%ecx
    198a:	8b 06                	mov    (%esi),%eax
    198c:	85 c0                	test   %eax,%eax
    198e:	8a 51 08             	mov    0x8(%ecx),%dl
    1991:	75 3e                	jne    19d1 <print_internal_func+0x2d1>
    1993:	b8 b9 cd 02 00       	mov    $0x2cdb9,%eax
    1998:	84 d2                	test   %dl,%dl
    199a:	0f 85 a0 00 00 00    	jne    1a40 <print_internal_func+0x340>
    19a0:	89 44 24 04          	mov    %eax,0x4(%esp)
    19a4:	89 34 24             	mov    %esi,(%esp)
    19a7:	e8 e4 f9 ff ff       	call   1390 <state_printf>
    19ac:	31 c0                	xor    %eax,%eax
    19ae:	e9 aa fd ff ff       	jmp    175d <print_internal_func+0x5d>
    19b3:	48                   	dec    %eax
    19b4:	0f 85 13 fe ff ff    	jne    17cd <print_internal_func+0xcd>
    19ba:	b8 c4 cd 02 00       	mov    $0x2cdc4,%eax
    19bf:	84 d2                	test   %dl,%dl
    19c1:	0f 84 8c fe ff ff    	je     1853 <print_internal_func+0x153>
    19c7:	b8 bf cd 02 00       	mov    $0x2cdbf,%eax
    19cc:	e9 82 fe ff ff       	jmp    1853 <print_internal_func+0x153>
    19d1:	48                   	dec    %eax
    19d2:	74 55                	je     1a29 <print_internal_func+0x329>
    19d4:	31 c0                	xor    %eax,%eax
    19d6:	e9 82 fd ff ff       	jmp    175d <print_internal_func+0x5d>
    19db:	b8 b4 cd 02 00       	mov    $0x2cdb4,%eax
    19e0:	e9 6e fe ff ff       	jmp    1853 <print_internal_func+0x153>
    19e5:	c7 44 24 04 07 cf 02 	movl   $0x2cf07,0x4(%esp)
    19ec:	00 
    19ed:	89 34 24             	mov    %esi,(%esp)
    19f0:	89 45 e4             	mov    %eax,-0x1c(%ebp)
    19f3:	e8 98 f9 ff ff       	call   1390 <state_printf>
    19f8:	8b 7e 08             	mov    0x8(%esi),%edi
    19fb:	8b 45 e4             	mov    -0x1c(%ebp),%eax
    19fe:	85 ff                	test   %edi,%edi
    1a00:	0f 8e 3a ff ff ff    	jle    1940 <print_internal_func+0x240>
    1a06:	31 ff                	xor    %edi,%edi
    1a08:	c7 44 24 04 cc cd 02 	movl   $0x2cdcc,0x4(%esp)
    1a0f:	00 
    1a10:	89 34 24             	mov    %esi,(%esp)
    1a13:	47                   	inc    %edi
    1a14:	89 45 e4             	mov    %eax,-0x1c(%ebp)
    1a17:	e8 74 f9 ff ff       	call   1390 <state_printf>
    1a1c:	3b 7e 08             	cmp    0x8(%esi),%edi
    1a1f:	8b 45 e4             	mov    -0x1c(%ebp),%eax
    1a22:	7c e4                	jl     1a08 <print_internal_func+0x308>
    1a24:	e9 17 ff ff ff       	jmp    1940 <print_internal_func+0x240>
    1a29:	b8 c4 cd 02 00       	mov    $0x2cdc4,%eax
    1a2e:	84 d2                	test   %dl,%dl
    1a30:	0f 84 6a ff ff ff    	je     19a0 <print_internal_func+0x2a0>
    1a36:	b8 bf cd 02 00       	mov    $0x2cdbf,%eax
    1a3b:	e9 60 ff ff ff       	jmp    19a0 <print_internal_func+0x2a0>
    1a40:	b8 b4 cd 02 00       	mov    $0x2cdb4,%eax
    1a45:	e9 56 ff ff ff       	jmp    19a0 <print_internal_func+0x2a0>
    1a4a:	c7 44 24 04 07 cf 02 	movl   $0x2cf07,0x4(%esp)
    1a51:	00 
    1a52:	89 34 24             	mov    %esi,(%esp)
    1a55:	e8 36 f9 ff ff       	call   1390 <state_printf>
    1a5a:	8b 46 08             	mov    0x8(%esi),%eax
    1a5d:	85 c0                	test   %eax,%eax
    1a5f:	0f 8e 50 fe ff ff    	jle    18b5 <print_internal_func+0x1b5>
    1a65:	31 c0                	xor    %eax,%eax
    1a67:	90                   	nop
    1a68:	c7 44 24 04 cc cd 02 	movl   $0x2cdcc,0x4(%esp)
    1a6f:	00 
    1a70:	89 34 24             	mov    %esi,(%esp)
    1a73:	89 45 e4             	mov    %eax,-0x1c(%ebp)
    1a76:	e8 15 f9 ff ff       	call   1390 <state_printf>
    1a7b:	8b 45 e4             	mov    -0x1c(%ebp),%eax
    1a7e:	40                   	inc    %eax
    1a7f:	3b 46 08             	cmp    0x8(%esi),%eax
    1a82:	7c e4                	jl     1a68 <print_internal_func+0x368>
    1a84:	e9 2c fe ff ff       	jmp    18b5 <print_internal_func+0x1b5>
    1a89:	c7 44 24 08 80 00 00 	movl   $0x80,0x8(%esp)
    1a90:	00 
    1a91:	c7 44 24 04 90 cd 02 	movl   $0x2cd90,0x4(%esp)
    1a98:	00 
    1a99:	c7 04 24 24 ce 02 00 	movl   $0x2ce24,(%esp)
    1aa0:	e8 0b 8e 02 00       	call   2a8b0 <assert_abort>
    1aa5:	8d 74 26 00          	lea    0x0(%esi,%eiz,1),%esi
    1aa9:	8d bc 27 00 00 00 00 	lea    0x0(%edi,%eiz,1),%edi

00001ab0 <bithenge_print_node>:
    1ab0:	55                   	push   %ebp
    1ab1:	89 e5                	mov    %esp,%ebp
    1ab3:	56                   	push   %esi
    1ab4:	53                   	push   %ebx
    1ab5:	83 ec 40             	sub    $0x40,%esp
    1ab8:	c6 45 e8 01          	movb   $0x1,-0x18(%ebp)
    1abc:	8b 55 0c             	mov    0xc(%ebp),%edx
    1abf:	8b 45 08             	mov    0x8(%ebp),%eax
    1ac2:	89 45 e4             	mov    %eax,-0x1c(%ebp)
    1ac5:	c7 45 ec 00 00 00 00 	movl   $0x0,-0x14(%ebp)
    1acc:	c7 45 f0 00 00 00 00 	movl   $0x0,-0x10(%ebp)
    1ad3:	c7 45 f4 00 00 00 00 	movl   $0x0,-0xc(%ebp)
    1ada:	83 3a 05             	cmpl   $0x5,(%edx)
    1add:	76 11                	jbe    1af0 <bithenge_print_node+0x40>
    1adf:	b8 f5 ff ff ff       	mov    $0xfffffff5,%eax
    1ae4:	83 c4 40             	add    $0x40,%esp
    1ae7:	5b                   	pop    %ebx
    1ae8:	5e                   	pop    %esi
    1ae9:	5d                   	pop    %ebp
    1aea:	c3                   	ret    
    1aeb:	90                   	nop
    1aec:	8d 74 26 00          	lea    0x0(%esi,%eiz,1),%esi
    1af0:	8b 0a                	mov    (%edx),%ecx
    1af2:	ff 24 8d 7c ce 02 00 	jmp    *0x2ce7c(,%ecx,4)
    1af9:	8d b4 26 00 00 00 00 	lea    0x0(%esi,%eiz,1),%esi
    1b00:	8d 45 e4             	lea    -0x1c(%ebp),%eax
    1b03:	e8 08 f9 ff ff       	call   1410 <print_blob>
    1b08:	83 c4 40             	add    $0x40,%esp
    1b0b:	5b                   	pop    %ebx
    1b0c:	5e                   	pop    %esi
    1b0d:	5d                   	pop    %ebp
    1b0e:	c3                   	ret    
    1b0f:	90                   	nop
    1b10:	8d 5d e4             	lea    -0x1c(%ebp),%ebx
    1b13:	c7 44 24 04 d1 cd 02 	movl   $0x2cdd1,0x4(%esp)
    1b1a:	00 
    1b1b:	89 1c 24             	mov    %ebx,(%esp)
    1b1e:	89 55 d4             	mov    %edx,-0x2c(%ebp)
    1b21:	e8 6a f8 ff ff       	call   1390 <state_printf>
    1b26:	8b 4d ec             	mov    -0x14(%ebp),%ecx
    1b29:	8b 55 d4             	mov    -0x2c(%ebp),%edx
    1b2c:	41                   	inc    %ecx
    1b2d:	89 4d ec             	mov    %ecx,-0x14(%ebp)
    1b30:	c6 45 e8 01          	movb   $0x1,-0x18(%ebp)
    1b34:	83 3a 01             	cmpl   $0x1,(%edx)
    1b37:	0f 85 24 01 00 00    	jne    1c61 <bithenge_print_node+0x1b1>
    1b3d:	8b 42 08             	mov    0x8(%edx),%eax
    1b40:	89 5c 24 08          	mov    %ebx,0x8(%esp)
    1b44:	c7 44 24 04 00 17 00 	movl   $0x1700,0x4(%esp)
    1b4b:	00 
    1b4c:	89 14 24             	mov    %edx,(%esp)
    1b4f:	ff 10                	call   *(%eax)
    1b51:	85 c0                	test   %eax,%eax
    1b53:	75 8f                	jne    1ae4 <bithenge_print_node+0x34>
    1b55:	8b 55 ec             	mov    -0x14(%ebp),%edx
    1b58:	4a                   	dec    %edx
    1b59:	89 55 ec             	mov    %edx,-0x14(%ebp)
    1b5c:	80 7d e8 00          	cmpb   $0x0,-0x18(%ebp)
    1b60:	0f 84 b2 00 00 00    	je     1c18 <bithenge_print_node+0x168>
    1b66:	89 1c 24             	mov    %ebx,(%esp)
    1b69:	c7 44 24 04 d3 cd 02 	movl   $0x2cdd3,0x4(%esp)
    1b70:	00 
    1b71:	89 45 d4             	mov    %eax,-0x2c(%ebp)
    1b74:	c6 45 e8 00          	movb   $0x0,-0x18(%ebp)
    1b78:	e8 13 f8 ff ff       	call   1390 <state_printf>
    1b7d:	8b 45 d4             	mov    -0x2c(%ebp),%eax
    1b80:	83 c4 40             	add    $0x40,%esp
    1b83:	5b                   	pop    %ebx
    1b84:	5e                   	pop    %esi
    1b85:	5d                   	pop    %ebp
    1b86:	c3                   	ret    
    1b87:	90                   	nop
    1b88:	8d 45 e4             	lea    -0x1c(%ebp),%eax
    1b8b:	e8 40 fa ff ff       	call   15d0 <print_string>
    1b90:	83 c4 40             	add    $0x40,%esp
    1b93:	5b                   	pop    %ebx
    1b94:	5e                   	pop    %esi
    1b95:	5d                   	pop    %ebp
    1b96:	c3                   	ret    
    1b97:	90                   	nop
    1b98:	8a 52 08             	mov    0x8(%edx),%dl
    1b9b:	85 c0                	test   %eax,%eax
    1b9d:	75 51                	jne    1bf0 <bithenge_print_node+0x140>
    1b9f:	b8 b9 cd 02 00       	mov    $0x2cdb9,%eax
    1ba4:	84 d2                	test   %dl,%dl
    1ba6:	75 68                	jne    1c10 <bithenge_print_node+0x160>
    1ba8:	89 44 24 04          	mov    %eax,0x4(%esp)
    1bac:	8d 45 e4             	lea    -0x1c(%ebp),%eax
    1baf:	89 04 24             	mov    %eax,(%esp)
    1bb2:	e8 d9 f7 ff ff       	call   1390 <state_printf>
    1bb7:	83 c4 40             	add    $0x40,%esp
    1bba:	31 c0                	xor    %eax,%eax
    1bbc:	5b                   	pop    %ebx
    1bbd:	5e                   	pop    %esi
    1bbe:	5d                   	pop    %ebp
    1bbf:	c3                   	ret    
    1bc0:	8b 42 08             	mov    0x8(%edx),%eax
    1bc3:	8b 52 0c             	mov    0xc(%edx),%edx
    1bc6:	89 44 24 08          	mov    %eax,0x8(%esp)
    1bca:	8d 45 e4             	lea    -0x1c(%ebp),%eax
    1bcd:	89 04 24             	mov    %eax,(%esp)
    1bd0:	89 54 24 0c          	mov    %edx,0xc(%esp)
    1bd4:	c7 44 24 04 d5 cd 02 	movl   $0x2cdd5,0x4(%esp)
    1bdb:	00 
    1bdc:	e8 af f7 ff ff       	call   1390 <state_printf>
    1be1:	83 c4 40             	add    $0x40,%esp
    1be4:	31 c0                	xor    %eax,%eax
    1be6:	5b                   	pop    %ebx
    1be7:	5e                   	pop    %esi
    1be8:	5d                   	pop    %ebp
    1be9:	c3                   	ret    
    1bea:	8d b6 00 00 00 00    	lea    0x0(%esi),%esi
    1bf0:	48                   	dec    %eax
    1bf1:	74 0d                	je     1c00 <bithenge_print_node+0x150>
    1bf3:	31 c0                	xor    %eax,%eax
    1bf5:	e9 ea fe ff ff       	jmp    1ae4 <bithenge_print_node+0x34>
    1bfa:	8d b6 00 00 00 00    	lea    0x0(%esi),%esi
    1c00:	b8 c4 cd 02 00       	mov    $0x2cdc4,%eax
    1c05:	84 d2                	test   %dl,%dl
    1c07:	74 9f                	je     1ba8 <bithenge_print_node+0xf8>
    1c09:	b8 bf cd 02 00       	mov    $0x2cdbf,%eax
    1c0e:	eb 98                	jmp    1ba8 <bithenge_print_node+0xf8>
    1c10:	b8 b4 cd 02 00       	mov    $0x2cdb4,%eax
    1c15:	eb 91                	jmp    1ba8 <bithenge_print_node+0xf8>
    1c17:	90                   	nop
    1c18:	c7 44 24 04 07 cf 02 	movl   $0x2cf07,0x4(%esp)
    1c1f:	00 
    1c20:	89 1c 24             	mov    %ebx,(%esp)
    1c23:	89 45 d4             	mov    %eax,-0x2c(%ebp)
    1c26:	e8 65 f7 ff ff       	call   1390 <state_printf>
    1c2b:	8b 45 ec             	mov    -0x14(%ebp),%eax
    1c2e:	85 c0                	test   %eax,%eax
    1c30:	8b 45 d4             	mov    -0x2c(%ebp),%eax
    1c33:	0f 8e 2d ff ff ff    	jle    1b66 <bithenge_print_node+0xb6>
    1c39:	31 f6                	xor    %esi,%esi
    1c3b:	90                   	nop
    1c3c:	8d 74 26 00          	lea    0x0(%esi,%eiz,1),%esi
    1c40:	c7 44 24 04 cc cd 02 	movl   $0x2cdcc,0x4(%esp)
    1c47:	00 
    1c48:	89 1c 24             	mov    %ebx,(%esp)
    1c4b:	46                   	inc    %esi
    1c4c:	89 45 d4             	mov    %eax,-0x2c(%ebp)
    1c4f:	e8 3c f7 ff ff       	call   1390 <state_printf>
    1c54:	3b 75 ec             	cmp    -0x14(%ebp),%esi
    1c57:	8b 45 d4             	mov    -0x2c(%ebp),%eax
    1c5a:	7c e4                	jl     1c40 <bithenge_print_node+0x190>
    1c5c:	e9 05 ff ff ff       	jmp    1b66 <bithenge_print_node+0xb6>
    1c61:	c7 44 24 08 80 00 00 	movl   $0x80,0x8(%esp)
    1c68:	00 
    1c69:	c7 44 24 04 90 cd 02 	movl   $0x2cd90,0x4(%esp)
    1c70:	00 
    1c71:	c7 04 24 24 ce 02 00 	movl   $0x2ce24,(%esp)
    1c78:	e8 33 8c 02 00       	call   2a8b0 <assert_abort>
    1c7d:	8d 76 00             	lea    0x0(%esi),%esi

00001c80 <bithenge_print_node_to_string>:
    1c80:	55                   	push   %ebp
    1c81:	89 e5                	mov    %esp,%ebp
    1c83:	57                   	push   %edi
    1c84:	56                   	push   %esi
    1c85:	53                   	push   %ebx
    1c86:	83 ec 4c             	sub    $0x4c,%esp
    1c89:	c6 45 d8 01          	movb   $0x1,-0x28(%ebp)
    1c8d:	8b 75 08             	mov    0x8(%ebp),%esi
    1c90:	8b 5d 0c             	mov    0xc(%ebp),%ebx
    1c93:	8b 55 14             	mov    0x14(%ebp),%edx
    1c96:	8b 45 10             	mov    0x10(%ebp),%eax
    1c99:	8b 3e                	mov    (%esi),%edi
    1c9b:	8b 0b                	mov    (%ebx),%ecx
    1c9d:	89 45 d4             	mov    %eax,-0x2c(%ebp)
    1ca0:	c7 45 dc 00 00 00 00 	movl   $0x0,-0x24(%ebp)
    1ca7:	89 7d e0             	mov    %edi,-0x20(%ebp)
    1caa:	89 4d e4             	mov    %ecx,-0x1c(%ebp)
    1cad:	83 3a 05             	cmpl   $0x5,(%edx)
    1cb0:	76 16                	jbe    1cc8 <bithenge_print_node_to_string+0x48>
    1cb2:	b8 f5 ff ff ff       	mov    $0xfffffff5,%eax
    1cb7:	89 3e                	mov    %edi,(%esi)
    1cb9:	89 0b                	mov    %ecx,(%ebx)
    1cbb:	83 c4 4c             	add    $0x4c,%esp
    1cbe:	5b                   	pop    %ebx
    1cbf:	5e                   	pop    %esi
    1cc0:	5f                   	pop    %edi
    1cc1:	5d                   	pop    %ebp
    1cc2:	c3                   	ret    
    1cc3:	90                   	nop
    1cc4:	8d 74 26 00          	lea    0x0(%esi,%eiz,1),%esi
    1cc8:	8b 02                	mov    (%edx),%eax
    1cca:	ff 24 85 94 ce 02 00 	jmp    *0x2ce94(,%eax,4)
    1cd1:	8d b4 26 00 00 00 00 	lea    0x0(%esi,%eiz,1),%esi
    1cd8:	8d 45 d4             	lea    -0x2c(%ebp),%eax
    1cdb:	e8 30 f7 ff ff       	call   1410 <print_blob>
    1ce0:	8b 7d e0             	mov    -0x20(%ebp),%edi
    1ce3:	8b 4d e4             	mov    -0x1c(%ebp),%ecx
    1ce6:	89 3e                	mov    %edi,(%esi)
    1ce8:	89 0b                	mov    %ecx,(%ebx)
    1cea:	83 c4 4c             	add    $0x4c,%esp
    1ced:	5b                   	pop    %ebx
    1cee:	5e                   	pop    %esi
    1cef:	5f                   	pop    %edi
    1cf0:	5d                   	pop    %ebp
    1cf1:	c3                   	ret    
    1cf2:	8d b6 00 00 00 00    	lea    0x0(%esi),%esi
    1cf8:	8d 7d d4             	lea    -0x2c(%ebp),%edi
    1cfb:	c7 44 24 04 d1 cd 02 	movl   $0x2cdd1,0x4(%esp)
    1d02:	00 
    1d03:	89 3c 24             	mov    %edi,(%esp)
    1d06:	89 55 bc             	mov    %edx,-0x44(%ebp)
    1d09:	e8 82 f6 ff ff       	call   1390 <state_printf>
    1d0e:	8b 4d dc             	mov    -0x24(%ebp),%ecx
    1d11:	8b 55 bc             	mov    -0x44(%ebp),%edx
    1d14:	41                   	inc    %ecx
    1d15:	89 4d dc             	mov    %ecx,-0x24(%ebp)
    1d18:	c6 45 d8 01          	movb   $0x1,-0x28(%ebp)
    1d1c:	83 3a 01             	cmpl   $0x1,(%edx)
    1d1f:	0f 85 5c 01 00 00    	jne    1e81 <bithenge_print_node_to_string+0x201>
    1d25:	8b 42 08             	mov    0x8(%edx),%eax
    1d28:	89 7c 24 08          	mov    %edi,0x8(%esp)
    1d2c:	c7 44 24 04 00 17 00 	movl   $0x1700,0x4(%esp)
    1d33:	00 
    1d34:	89 14 24             	mov    %edx,(%esp)
    1d37:	ff 10                	call   *(%eax)
    1d39:	85 c0                	test   %eax,%eax
    1d3b:	75 2b                	jne    1d68 <bithenge_print_node_to_string+0xe8>
    1d3d:	8b 55 dc             	mov    -0x24(%ebp),%edx
    1d40:	4a                   	dec    %edx
    1d41:	89 55 dc             	mov    %edx,-0x24(%ebp)
    1d44:	80 7d d8 00          	cmpb   $0x0,-0x28(%ebp)
    1d48:	0f 84 e2 00 00 00    	je     1e30 <bithenge_print_node_to_string+0x1b0>
    1d4e:	c7 44 24 04 d3 cd 02 	movl   $0x2cdd3,0x4(%esp)
    1d55:	00 
    1d56:	89 3c 24             	mov    %edi,(%esp)
    1d59:	89 45 bc             	mov    %eax,-0x44(%ebp)
    1d5c:	c6 45 d8 00          	movb   $0x0,-0x28(%ebp)
    1d60:	e8 2b f6 ff ff       	call   1390 <state_printf>
    1d65:	8b 45 bc             	mov    -0x44(%ebp),%eax
    1d68:	8b 7d e0             	mov    -0x20(%ebp),%edi
    1d6b:	8b 4d e4             	mov    -0x1c(%ebp),%ecx
    1d6e:	89 3e                	mov    %edi,(%esi)
    1d70:	89 0b                	mov    %ecx,(%ebx)
    1d72:	83 c4 4c             	add    $0x4c,%esp
    1d75:	5b                   	pop    %ebx
    1d76:	5e                   	pop    %esi
    1d77:	5f                   	pop    %edi
    1d78:	5d                   	pop    %ebp
    1d79:	c3                   	ret    
    1d7a:	8d b6 00 00 00 00    	lea    0x0(%esi),%esi
    1d80:	8d 45 d4             	lea    -0x2c(%ebp),%eax
    1d83:	e8 48 f8 ff ff       	call   15d0 <print_string>
    1d88:	eb de                	jmp    1d68 <bithenge_print_node_to_string+0xe8>
    1d8a:	8d b6 00 00 00 00    	lea    0x0(%esi),%esi
    1d90:	8a 42 08             	mov    0x8(%edx),%al
    1d93:	8b 55 10             	mov    0x10(%ebp),%edx
    1d96:	85 d2                	test   %edx,%edx
    1d98:	75 66                	jne    1e00 <bithenge_print_node_to_string+0x180>
    1d9a:	ba b9 cd 02 00       	mov    $0x2cdb9,%edx
    1d9f:	84 c0                	test   %al,%al
    1da1:	75 7d                	jne    1e20 <bithenge_print_node_to_string+0x1a0>
    1da3:	8d 45 d4             	lea    -0x2c(%ebp),%eax
    1da6:	89 54 24 04          	mov    %edx,0x4(%esp)
    1daa:	89 04 24             	mov    %eax,(%esp)
    1dad:	e8 de f5 ff ff       	call   1390 <state_printf>
    1db2:	8b 7d e0             	mov    -0x20(%ebp),%edi
    1db5:	8b 4d e4             	mov    -0x1c(%ebp),%ecx
    1db8:	89 3e                	mov    %edi,(%esi)
    1dba:	89 0b                	mov    %ecx,(%ebx)
    1dbc:	83 c4 4c             	add    $0x4c,%esp
    1dbf:	31 c0                	xor    %eax,%eax
    1dc1:	5b                   	pop    %ebx
    1dc2:	5e                   	pop    %esi
    1dc3:	5f                   	pop    %edi
    1dc4:	5d                   	pop    %ebp
    1dc5:	c3                   	ret    
    1dc6:	66 90                	xchg   %ax,%ax
    1dc8:	8b 42 08             	mov    0x8(%edx),%eax
    1dcb:	8b 52 0c             	mov    0xc(%edx),%edx
    1dce:	89 44 24 08          	mov    %eax,0x8(%esp)
    1dd2:	8d 45 d4             	lea    -0x2c(%ebp),%eax
    1dd5:	89 04 24             	mov    %eax,(%esp)
    1dd8:	89 54 24 0c          	mov    %edx,0xc(%esp)
    1ddc:	c7 44 24 04 d5 cd 02 	movl   $0x2cdd5,0x4(%esp)
    1de3:	00 
    1de4:	e8 a7 f5 ff ff       	call   1390 <state_printf>
    1de9:	8b 7d e0             	mov    -0x20(%ebp),%edi
    1dec:	8b 4d e4             	mov    -0x1c(%ebp),%ecx
    1def:	89 3e                	mov    %edi,(%esi)
    1df1:	89 0b                	mov    %ecx,(%ebx)
    1df3:	83 c4 4c             	add    $0x4c,%esp
    1df6:	31 c0                	xor    %eax,%eax
    1df8:	5b                   	pop    %ebx
    1df9:	5e                   	pop    %esi
    1dfa:	5f                   	pop    %edi
    1dfb:	5d                   	pop    %ebp
    1dfc:	c3                   	ret    
    1dfd:	8d 76 00             	lea    0x0(%esi),%esi
    1e00:	83 7d 10 01          	cmpl   $0x1,0x10(%ebp)
    1e04:	74 0a                	je     1e10 <bithenge_print_node_to_string+0x190>
    1e06:	31 c0                	xor    %eax,%eax
    1e08:	e9 aa fe ff ff       	jmp    1cb7 <bithenge_print_node_to_string+0x37>
    1e0d:	8d 76 00             	lea    0x0(%esi),%esi
    1e10:	ba c4 cd 02 00       	mov    $0x2cdc4,%edx
    1e15:	84 c0                	test   %al,%al
    1e17:	74 8a                	je     1da3 <bithenge_print_node_to_string+0x123>
    1e19:	ba bf cd 02 00       	mov    $0x2cdbf,%edx
    1e1e:	eb 83                	jmp    1da3 <bithenge_print_node_to_string+0x123>
    1e20:	ba b4 cd 02 00       	mov    $0x2cdb4,%edx
    1e25:	e9 79 ff ff ff       	jmp    1da3 <bithenge_print_node_to_string+0x123>
    1e2a:	8d b6 00 00 00 00    	lea    0x0(%esi),%esi
    1e30:	c7 44 24 04 07 cf 02 	movl   $0x2cf07,0x4(%esp)
    1e37:	00 
    1e38:	89 3c 24             	mov    %edi,(%esp)
    1e3b:	89 45 bc             	mov    %eax,-0x44(%ebp)
    1e3e:	e8 4d f5 ff ff       	call   1390 <state_printf>
    1e43:	8b 4d dc             	mov    -0x24(%ebp),%ecx
    1e46:	8b 45 bc             	mov    -0x44(%ebp),%eax
    1e49:	85 c9                	test   %ecx,%ecx
    1e4b:	0f 8e fd fe ff ff    	jle    1d4e <bithenge_print_node_to_string+0xce>
    1e51:	31 d2                	xor    %edx,%edx
    1e53:	89 5d c0             	mov    %ebx,-0x40(%ebp)
    1e56:	89 45 c4             	mov    %eax,-0x3c(%ebp)
    1e59:	89 d3                	mov    %edx,%ebx
    1e5b:	90                   	nop
    1e5c:	8d 74 26 00          	lea    0x0(%esi,%eiz,1),%esi
    1e60:	c7 44 24 04 cc cd 02 	movl   $0x2cdcc,0x4(%esp)
    1e67:	00 
    1e68:	89 3c 24             	mov    %edi,(%esp)
    1e6b:	43                   	inc    %ebx
    1e6c:	e8 1f f5 ff ff       	call   1390 <state_printf>
    1e71:	3b 5d dc             	cmp    -0x24(%ebp),%ebx
    1e74:	7c ea                	jl     1e60 <bithenge_print_node_to_string+0x1e0>
    1e76:	8b 45 c4             	mov    -0x3c(%ebp),%eax
    1e79:	8b 5d c0             	mov    -0x40(%ebp),%ebx
    1e7c:	e9 cd fe ff ff       	jmp    1d4e <bithenge_print_node_to_string+0xce>
    1e81:	c7 44 24 08 80 00 00 	movl   $0x80,0x8(%esp)
    1e88:	00 
    1e89:	c7 44 24 04 90 cd 02 	movl   $0x2cd90,0x4(%esp)
    1e90:	00 
    1e91:	c7 04 24 24 ce 02 00 	movl   $0x2ce24,(%esp)
    1e98:	e8 13 8a 02 00       	call   2a8b0 <assert_abort>
    1e9d:	66 90                	xchg   %ax,%ax
    1e9f:	90                   	nop

00001ea0 <syntax_error.part.2>:
    1ea0:	55                   	push   %ebp
    1ea1:	89 e5                	mov    %esp,%ebp
    1ea3:	57                   	push   %edi
    1ea4:	56                   	push   %esi
    1ea5:	53                   	push   %ebx
    1ea6:	83 ec 3c             	sub    $0x3c,%esp
    1ea9:	89 d7                	mov    %edx,%edi
    1eab:	8b b0 1c 10 00 00    	mov    0x101c(%eax),%esi
    1eb1:	8b 90 14 10 00 00    	mov    0x1014(%eax),%edx
    1eb7:	8b 88 10 10 00 00    	mov    0x1010(%eax),%ecx
    1ebd:	01 f2                	add    %esi,%edx
    1ebf:	01 ce                	add    %ecx,%esi
    1ec1:	89 c3                	mov    %eax,%ebx
    1ec3:	89 f0                	mov    %esi,%eax
    1ec5:	c7 44 24 04 ec ce 02 	movl   $0x2ceec,0x4(%esp)
    1ecc:	00 
    1ecd:	29 d0                	sub    %edx,%eax
    1ecf:	89 55 e0             	mov    %edx,-0x20(%ebp)
    1ed2:	89 45 e4             	mov    %eax,-0x1c(%ebp)
    1ed5:	8b 83 18 10 00 00    	mov    0x1018(%ebx),%eax
    1edb:	89 44 24 0c          	mov    %eax,0xc(%esp)
    1edf:	8b 43 08             	mov    0x8(%ebx),%eax
    1ee2:	89 44 24 08          	mov    %eax,0x8(%esp)
    1ee6:	a1 b8 06 03 00       	mov    0x306b8,%eax
    1eeb:	89 04 24             	mov    %eax,(%esp)
    1eee:	e8 2d 93 01 00       	call   1b220 <fprintf>
    1ef3:	8b 55 e0             	mov    -0x20(%ebp),%edx
    1ef6:	83 7d e4 01          	cmpl   $0x1,-0x1c(%ebp)
    1efa:	76 74                	jbe    1f70 <syntax_error.part.2+0xd0>
    1efc:	4e                   	dec    %esi
    1efd:	a1 b8 06 03 00       	mov    0x306b8,%eax
    1f02:	89 74 24 0c          	mov    %esi,0xc(%esp)
    1f06:	89 54 24 08          	mov    %edx,0x8(%esp)
    1f0a:	c7 44 24 04 f3 ce 02 	movl   $0x2cef3,0x4(%esp)
    1f11:	00 
    1f12:	89 04 24             	mov    %eax,(%esp)
    1f15:	e8 06 93 01 00       	call   1b220 <fprintf>
    1f1a:	8b 83 14 10 00 00    	mov    0x1014(%ebx),%eax
    1f20:	89 7c 24 08          	mov    %edi,0x8(%esp)
    1f24:	c7 44 24 04 fd ce 02 	movl   $0x2cefd,0x4(%esp)
    1f2b:	00 
    1f2c:	8d 44 03 10          	lea    0x10(%ebx,%eax,1),%eax
    1f30:	89 44 24 10          	mov    %eax,0x10(%esp)
    1f34:	8b 45 e4             	mov    -0x1c(%ebp),%eax
    1f37:	89 44 24 0c          	mov    %eax,0xc(%esp)
    1f3b:	a1 b8 06 03 00       	mov    0x306b8,%eax
    1f40:	89 04 24             	mov    %eax,(%esp)
    1f43:	e8 d8 92 01 00       	call   1b220 <fprintf>
    1f48:	8b 03                	mov    (%ebx),%eax
    1f4a:	85 c0                	test   %eax,%eax
    1f4c:	75 19                	jne    1f67 <syntax_error.part.2+0xc7>
    1f4e:	83 bb 20 10 00 00 86 	cmpl   $0xffffff86,0x1020(%ebx)
    1f55:	74 39                	je     1f90 <syntax_error.part.2+0xf0>
    1f57:	c7 83 20 10 00 00 80 	movl   $0xffffff80,0x1020(%ebx)
    1f5e:	ff ff ff 
    1f61:	c7 03 f2 ff ff ff    	movl   $0xfffffff2,(%ebx)
    1f67:	83 c4 3c             	add    $0x3c,%esp
    1f6a:	5b                   	pop    %ebx
    1f6b:	5e                   	pop    %esi
    1f6c:	5f                   	pop    %edi
    1f6d:	5d                   	pop    %ebp
    1f6e:	c3                   	ret    
    1f6f:	90                   	nop
    1f70:	a1 b8 06 03 00       	mov    0x306b8,%eax
    1f75:	89 54 24 08          	mov    %edx,0x8(%esp)
    1f79:	c7 44 24 04 f7 ce 02 	movl   $0x2cef7,0x4(%esp)
    1f80:	00 
    1f81:	89 04 24             	mov    %eax,(%esp)
    1f84:	e8 97 92 01 00       	call   1b220 <fprintf>
    1f89:	eb 8f                	jmp    1f1a <syntax_error.part.2+0x7a>
    1f8b:	90                   	nop
    1f8c:	8d 74 26 00          	lea    0x0(%esi,%eiz,1),%esi
    1f90:	8b 83 24 10 00 00    	mov    0x1024(%ebx),%eax
    1f96:	89 04 24             	mov    %eax,(%esp)
    1f99:	e8 42 e2 01 00       	call   201e0 <free>
    1f9e:	eb b7                	jmp    1f57 <syntax_error.part.2+0xb7>

00001fa0 <next_token>:
    1fa0:	55                   	push   %ebp
    1fa1:	8d 50 10             	lea    0x10(%eax),%edx
    1fa4:	89 e5                	mov    %esp,%ebp
    1fa6:	57                   	push   %edi
    1fa7:	56                   	push   %esi
    1fa8:	53                   	push   %ebx
    1fa9:	83 ec 4c             	sub    $0x4c,%esp
    1fac:	89 c3                	mov    %eax,%ebx
    1fae:	8b b0 10 10 00 00    	mov    0x1010(%eax),%esi
    1fb4:	89 55 d0             	mov    %edx,-0x30(%ebp)
    1fb7:	90                   	nop
    1fb8:	8d 86 00 01 00 00    	lea    0x100(%esi),%eax
    1fbe:	3d ff 0f 00 00       	cmp    $0xfff,%eax
    1fc3:	0f 87 c4 00 00 00    	ja     208d <next_token+0xed>
    1fc9:	8d b4 26 00 00 00 00 	lea    0x0(%esi,%eiz,1),%esi
    1fd0:	8b 83 20 10 00 00    	mov    0x1020(%ebx),%eax
    1fd6:	83 f8 86             	cmp    $0xffffff86,%eax
    1fd9:	0f 84 34 01 00 00    	je     2113 <next_token+0x173>
    1fdf:	8b b3 10 10 00 00    	mov    0x1010(%ebx),%esi
    1fe5:	c7 83 20 10 00 00 80 	movl   $0xffffff80,0x1020(%ebx)
    1fec:	ff ff ff 
    1fef:	89 b3 14 10 00 00    	mov    %esi,0x1014(%ebx)
    1ff5:	8a 44 33 10          	mov    0x10(%ebx,%esi,1),%al
    1ff9:	84 c0                	test   %al,%al
    1ffb:	0f 84 bc 04 00 00    	je     24bd <next_token+0x51d>
    2001:	3c 23                	cmp    $0x23,%al
    2003:	0f 84 97 03 00 00    	je     23a0 <next_token+0x400>
    2009:	0f be d0             	movsbl %al,%edx
    200c:	8d 4a f7             	lea    -0x9(%edx),%ecx
    200f:	83 f9 17             	cmp    $0x17,%ecx
    2012:	0f 87 10 01 00 00    	ja     2128 <next_token+0x188>
    2018:	8b 0c 8d 40 d0 02 00 	mov    0x2d040(,%ecx,4),%ecx
    201f:	85 c9                	test   %ecx,%ecx
    2021:	89 f1                	mov    %esi,%ecx
    2023:	0f 84 01 01 00 00    	je     212a <next_token+0x18a>
    2029:	f7 d9                	neg    %ecx
    202b:	46                   	inc    %esi
    202c:	3c 0a                	cmp    $0xa,%al
    202e:	74 24                	je     2054 <next_token+0xb4>
    2030:	8a 44 33 10          	mov    0x10(%ebx,%esi,1),%al
    2034:	0f be d0             	movsbl %al,%edx
    2037:	83 ea 09             	sub    $0x9,%edx
    203a:	83 fa 17             	cmp    $0x17,%edx
    203d:	77 37                	ja     2076 <next_token+0xd6>
    203f:	8b 14 95 40 d0 02 00 	mov    0x2d040(,%edx,4),%edx
    2046:	49                   	dec    %ecx
    2047:	8d 7e 01             	lea    0x1(%esi),%edi
    204a:	85 d2                	test   %edx,%edx
    204c:	74 28                	je     2076 <next_token+0xd6>
    204e:	89 fe                	mov    %edi,%esi
    2050:	3c 0a                	cmp    $0xa,%al
    2052:	75 dc                	jne    2030 <next_token+0x90>
    2054:	8b bb 18 10 00 00    	mov    0x1018(%ebx),%edi
    205a:	89 8b 1c 10 00 00    	mov    %ecx,0x101c(%ebx)
    2060:	47                   	inc    %edi
    2061:	89 bb 18 10 00 00    	mov    %edi,0x1018(%ebx)
    2067:	8a 44 33 10          	mov    0x10(%ebx,%esi,1),%al
    206b:	0f be d0             	movsbl %al,%edx
    206e:	83 ea 09             	sub    $0x9,%edx
    2071:	83 fa 17             	cmp    $0x17,%edx
    2074:	76 c9                	jbe    203f <next_token+0x9f>
    2076:	8d 86 00 01 00 00    	lea    0x100(%esi),%eax
    207c:	89 b3 10 10 00 00    	mov    %esi,0x1010(%ebx)
    2082:	3d ff 0f 00 00       	cmp    $0xfff,%eax
    2087:	0f 86 43 ff ff ff    	jbe    1fd0 <next_token+0x30>
    208d:	bf ff 0f 00 00       	mov    $0xfff,%edi
    2092:	8d 44 33 10          	lea    0x10(%ebx,%esi,1),%eax
    2096:	29 f7                	sub    %esi,%edi
    2098:	8b 55 d0             	mov    -0x30(%ebp),%edx
    209b:	89 14 24             	mov    %edx,(%esp)
    209e:	89 7c 24 08          	mov    %edi,0x8(%esp)
    20a2:	89 44 24 04          	mov    %eax,0x4(%esp)
    20a6:	e8 25 13 01 00       	call   133d0 <memmove>
    20ab:	8b 83 10 10 00 00    	mov    0x1010(%ebx),%eax
    20b1:	8b 93 1c 10 00 00    	mov    0x101c(%ebx),%edx
    20b7:	89 74 24 08          	mov    %esi,0x8(%esp)
    20bb:	01 c2                	add    %eax,%edx
    20bd:	8b 43 0c             	mov    0xc(%ebx),%eax
    20c0:	89 44 24 0c          	mov    %eax,0xc(%esp)
    20c4:	8d 44 3b 10          	lea    0x10(%ebx,%edi,1),%eax
    20c8:	89 93 1c 10 00 00    	mov    %edx,0x101c(%ebx)
    20ce:	c7 83 10 10 00 00 00 	movl   $0x0,0x1010(%ebx)
    20d5:	00 00 00 
    20d8:	c7 44 24 04 01 00 00 	movl   $0x1,0x4(%esp)
    20df:	00 
    20e0:	89 04 24             	mov    %eax,(%esp)
    20e3:	e8 a8 76 01 00       	call   19790 <fread>
    20e8:	89 c6                	mov    %eax,%esi
    20ea:	8b 43 0c             	mov    0xc(%ebx),%eax
    20ed:	89 04 24             	mov    %eax,(%esp)
    20f0:	e8 6b 90 01 00       	call   1b160 <ferror>
    20f5:	85 c0                	test   %eax,%eax
    20f7:	0f 85 93 03 00 00    	jne    2490 <next_token+0x4f0>
    20fd:	8b 83 20 10 00 00    	mov    0x1020(%ebx),%eax
    2103:	01 df                	add    %ebx,%edi
    2105:	83 f8 86             	cmp    $0xffffff86,%eax
    2108:	c6 44 3e 10 00       	movb   $0x0,0x10(%esi,%edi,1)
    210d:	0f 85 cc fe ff ff    	jne    1fdf <next_token+0x3f>
    2113:	8b 83 24 10 00 00    	mov    0x1024(%ebx),%eax
    2119:	89 04 24             	mov    %eax,(%esp)
    211c:	e8 bf e0 01 00       	call   201e0 <free>
    2121:	e9 b9 fe ff ff       	jmp    1fdf <next_token+0x3f>
    2126:	66 90                	xchg   %ax,%ax
    2128:	89 f1                	mov    %esi,%ecx
    212a:	8d 7a 9f             	lea    -0x61(%edx),%edi
    212d:	83 ff 19             	cmp    $0x19,%edi
    2130:	0f 86 f1 00 00 00    	jbe    2227 <next_token+0x287>
    2136:	8d 7a bf             	lea    -0x41(%edx),%edi
    2139:	83 ff 19             	cmp    $0x19,%edi
    213c:	0f 86 e5 00 00 00    	jbe    2227 <next_token+0x287>
    2142:	8d 4a d0             	lea    -0x30(%edx),%ecx
    2145:	83 f9 09             	cmp    $0x9,%ecx
    2148:	0f 87 a1 03 00 00    	ja     24ef <next_token+0x54f>
    214e:	8d 56 01             	lea    0x1(%esi),%edx
    2151:	eb 07                	jmp    215a <next_token+0x1ba>
    2153:	90                   	nop
    2154:	8d 74 26 00          	lea    0x0(%esi,%eiz,1),%esi
    2158:	89 fa                	mov    %edi,%edx
    215a:	0f be 4c 13 10       	movsbl 0x10(%ebx,%edx,1),%ecx
    215f:	83 e9 30             	sub    $0x30,%ecx
    2162:	8d 7a 01             	lea    0x1(%edx),%edi
    2165:	83 f9 09             	cmp    $0x9,%ecx
    2168:	76 ee                	jbe    2158 <next_token+0x1b8>
    216a:	3c 2d                	cmp    $0x2d,%al
    216c:	89 93 10 10 00 00    	mov    %edx,0x1010(%ebx)
    2172:	0f 94 c0             	sete   %al
    2175:	25 ff 00 00 00       	and    $0xff,%eax
    217a:	8d 54 33 10          	lea    0x10(%ebx,%esi,1),%edx
    217e:	01 c2                	add    %eax,%edx
    2180:	8d 45 e0             	lea    -0x20(%ebp),%eax
    2183:	89 14 24             	mov    %edx,(%esp)
    2186:	c7 83 20 10 00 00 87 	movl   $0xffffff87,0x1020(%ebx)
    218d:	ff ff ff 
    2190:	89 44 24 10          	mov    %eax,0x10(%esp)
    2194:	c7 44 24 0c 00 00 00 	movl   $0x0,0xc(%esp)
    219b:	00 
    219c:	c7 44 24 08 0a 00 00 	movl   $0xa,0x8(%esp)
    21a3:	00 
    21a4:	c7 44 24 04 00 00 00 	movl   $0x0,0x4(%esp)
    21ab:	00 
    21ac:	e8 2f 43 01 00       	call   164e0 <str_uint64_t>
    21b1:	8b 55 e4             	mov    -0x1c(%ebp),%edx
    21b4:	89 c7                	mov    %eax,%edi
    21b6:	8b 45 e0             	mov    -0x20(%ebp),%eax
    21b9:	89 83 24 10 00 00    	mov    %eax,0x1024(%ebx)
    21bf:	89 93 28 10 00 00    	mov    %edx,0x1028(%ebx)
    21c5:	80 7c 33 10 2d       	cmpb   $0x2d,0x10(%ebx,%esi,1)
    21ca:	75 13                	jne    21df <next_token+0x23f>
    21cc:	f7 d8                	neg    %eax
    21ce:	83 d2 00             	adc    $0x0,%edx
    21d1:	89 83 24 10 00 00    	mov    %eax,0x1024(%ebx)
    21d7:	f7 da                	neg    %edx
    21d9:	89 93 28 10 00 00    	mov    %edx,0x1028(%ebx)
    21df:	8b 33                	mov    (%ebx),%esi
    21e1:	85 f6                	test   %esi,%esi
    21e3:	0f 85 de 02 00 00    	jne    24c7 <next_token+0x527>
    21e9:	85 ff                	test   %edi,%edi
    21eb:	0f 84 d6 02 00 00    	je     24c7 <next_token+0x527>
    21f1:	83 bb 20 10 00 00 86 	cmpl   $0xffffff86,0x1020(%ebx)
    21f8:	75 0e                	jne    2208 <next_token+0x268>
    21fa:	8b 83 24 10 00 00    	mov    0x1024(%ebx),%eax
    2200:	89 04 24             	mov    %eax,(%esp)
    2203:	e8 d8 df 01 00       	call   201e0 <free>
    2208:	c7 83 20 10 00 00 80 	movl   $0xffffff80,0x1020(%ebx)
    220f:	ff ff ff 
    2212:	89 3b                	mov    %edi,(%ebx)
    2214:	e9 ae 02 00 00       	jmp    24c7 <next_token+0x527>
    2219:	8d b4 26 00 00 00 00 	lea    0x0(%esi,%eiz,1),%esi
    2220:	46                   	inc    %esi
    2221:	89 b3 10 10 00 00    	mov    %esi,0x1010(%ebx)
    2227:	8a 54 33 10          	mov    0x10(%ebx,%esi,1),%dl
    222b:	0f be c2             	movsbl %dl,%eax
    222e:	8d 78 9f             	lea    -0x61(%eax),%edi
    2231:	83 ff 19             	cmp    $0x19,%edi
    2234:	76 ea                	jbe    2220 <next_token+0x280>
    2236:	8d 78 bf             	lea    -0x41(%eax),%edi
    2239:	83 ff 19             	cmp    $0x19,%edi
    223c:	76 e2                	jbe    2220 <next_token+0x280>
    223e:	83 e8 30             	sub    $0x30,%eax
    2241:	83 f8 09             	cmp    $0x9,%eax
    2244:	76 da                	jbe    2220 <next_token+0x280>
    2246:	80 fa 5f             	cmp    $0x5f,%dl
    2249:	74 d5                	je     2220 <next_token+0x280>
    224b:	29 ce                	sub    %ecx,%esi
    224d:	8d 44 0b 10          	lea    0x10(%ebx,%ecx,1),%eax
    2251:	89 74 24 04          	mov    %esi,0x4(%esp)
    2255:	89 04 24             	mov    %eax,(%esp)
    2258:	e8 93 3d 01 00       	call   15ff0 <str_ndup>
    225d:	89 c6                	mov    %eax,%esi
    225f:	85 c0                	test   %eax,%eax
    2261:	0f 84 1c 03 00 00    	je     2583 <next_token+0x5e3>
    2267:	c7 44 24 04 09 cf 02 	movl   $0x2cf09,0x4(%esp)
    226e:	00 
    226f:	89 04 24             	mov    %eax,(%esp)
    2272:	e8 a9 22 01 00       	call   14520 <str_cmp>
    2277:	85 c0                	test   %eax,%eax
    2279:	0f 84 bf 02 00 00    	je     253e <next_token+0x59e>
    227f:	c7 44 24 04 0c cf 02 	movl   $0x2cf0c,0x4(%esp)
    2286:	00 
    2287:	89 34 24             	mov    %esi,(%esp)
    228a:	e8 91 22 01 00       	call   14520 <str_cmp>
    228f:	85 c0                	test   %eax,%eax
    2291:	0f 84 be 02 00 00    	je     2555 <next_token+0x5b5>
    2297:	c7 44 24 04 c4 cd 02 	movl   $0x2cdc4,0x4(%esp)
    229e:	00 
    229f:	89 34 24             	mov    %esi,(%esp)
    22a2:	e8 79 22 01 00       	call   14520 <str_cmp>
    22a7:	85 c0                	test   %eax,%eax
    22a9:	0f 84 bd 02 00 00    	je     256c <next_token+0x5cc>
    22af:	c7 44 24 04 11 cf 02 	movl   $0x2cf11,0x4(%esp)
    22b6:	00 
    22b7:	89 34 24             	mov    %esi,(%esp)
    22ba:	e8 61 22 01 00       	call   14520 <str_cmp>
    22bf:	85 c0                	test   %eax,%eax
    22c1:	0f 84 96 03 00 00    	je     265d <next_token+0x6bd>
    22c7:	c7 44 24 04 a7 cf 02 	movl   $0x2cfa7,0x4(%esp)
    22ce:	00 
    22cf:	89 34 24             	mov    %esi,(%esp)
    22d2:	e8 49 22 01 00       	call   14520 <str_cmp>
    22d7:	85 c0                	test   %eax,%eax
    22d9:	0f 84 95 03 00 00    	je     2674 <next_token+0x6d4>
    22df:	c7 44 24 04 14 cf 02 	movl   $0x2cf14,0x4(%esp)
    22e6:	00 
    22e7:	89 34 24             	mov    %esi,(%esp)
    22ea:	e8 31 22 01 00       	call   14520 <str_cmp>
    22ef:	85 c0                	test   %eax,%eax
    22f1:	0f 84 94 03 00 00    	je     268b <next_token+0x6eb>
    22f7:	c7 44 24 04 1c cf 02 	movl   $0x2cf1c,0x4(%esp)
    22fe:	00 
    22ff:	89 34 24             	mov    %esi,(%esp)
    2302:	e8 19 22 01 00       	call   14520 <str_cmp>
    2307:	85 c0                	test   %eax,%eax
    2309:	0f 84 64 04 00 00    	je     2773 <next_token+0x7d3>
    230f:	c7 44 24 04 23 cf 02 	movl   $0x2cf23,0x4(%esp)
    2316:	00 
    2317:	89 34 24             	mov    %esi,(%esp)
    231a:	e8 01 22 01 00       	call   14520 <str_cmp>
    231f:	85 c0                	test   %eax,%eax
    2321:	0f 84 2b 05 00 00    	je     2852 <next_token+0x8b2>
    2327:	c7 44 24 04 2a cf 02 	movl   $0x2cf2a,0x4(%esp)
    232e:	00 
    232f:	89 34 24             	mov    %esi,(%esp)
    2332:	e8 e9 21 01 00       	call   14520 <str_cmp>
    2337:	85 c0                	test   %eax,%eax
    2339:	0f 84 fc 04 00 00    	je     283b <next_token+0x89b>
    233f:	c7 44 24 04 34 d1 02 	movl   $0x2d134,0x4(%esp)
    2346:	00 
    2347:	89 34 24             	mov    %esi,(%esp)
    234a:	e8 d1 21 01 00       	call   14520 <str_cmp>
    234f:	85 c0                	test   %eax,%eax
    2351:	0f 84 cd 04 00 00    	je     2824 <next_token+0x884>
    2357:	c7 44 24 04 bf cd 02 	movl   $0x2cdbf,0x4(%esp)
    235e:	00 
    235f:	89 34 24             	mov    %esi,(%esp)
    2362:	e8 b9 21 01 00       	call   14520 <str_cmp>
    2367:	85 c0                	test   %eax,%eax
    2369:	0f 84 9e 04 00 00    	je     280d <next_token+0x86d>
    236f:	c7 44 24 04 31 cf 02 	movl   $0x2cf31,0x4(%esp)
    2376:	00 
    2377:	89 34 24             	mov    %esi,(%esp)
    237a:	e8 a1 21 01 00       	call   14520 <str_cmp>
    237f:	85 c0                	test   %eax,%eax
    2381:	0f 84 6f 04 00 00    	je     27f6 <next_token+0x856>
    2387:	c7 83 20 10 00 00 86 	movl   $0xffffff86,0x1020(%ebx)
    238e:	ff ff ff 
    2391:	89 b3 24 10 00 00    	mov    %esi,0x1024(%ebx)
    2397:	e9 2b 01 00 00       	jmp    24c7 <next_token+0x527>
    239c:	8d 74 26 00          	lea    0x0(%esi,%eiz,1),%esi
    23a0:	b0 23                	mov    $0x23,%al
    23a2:	84 c0                	test   %al,%al
    23a4:	0f 84 0e fc ff ff    	je     1fb8 <next_token+0x18>
    23aa:	3c 0a                	cmp    $0xa,%al
    23ac:	0f 84 06 fc ff ff    	je     1fb8 <next_token+0x18>
    23b2:	8d 7e 01             	lea    0x1(%esi),%edi
    23b5:	8d 86 01 01 00 00    	lea    0x101(%esi),%eax
    23bb:	89 bb 10 10 00 00    	mov    %edi,0x1010(%ebx)
    23c1:	3d ff 0f 00 00       	cmp    $0xfff,%eax
    23c6:	77 10                	ja     23d8 <next_token+0x438>
    23c8:	8a 44 3b 10          	mov    0x10(%ebx,%edi,1),%al
    23cc:	89 fe                	mov    %edi,%esi
    23ce:	84 c0                	test   %al,%al
    23d0:	75 d8                	jne    23aa <next_token+0x40a>
    23d2:	e9 e1 fb ff ff       	jmp    1fb8 <next_token+0x18>
    23d7:	90                   	nop
    23d8:	ba ff 0f 00 00       	mov    $0xfff,%edx
    23dd:	8d 44 33 11          	lea    0x11(%ebx,%esi,1),%eax
    23e1:	29 fa                	sub    %edi,%edx
    23e3:	89 44 24 04          	mov    %eax,0x4(%esp)
    23e7:	89 55 d4             	mov    %edx,-0x2c(%ebp)
    23ea:	89 54 24 08          	mov    %edx,0x8(%esp)
    23ee:	8b 55 d0             	mov    -0x30(%ebp),%edx
    23f1:	89 14 24             	mov    %edx,(%esp)
    23f4:	e8 d7 0f 01 00       	call   133d0 <memmove>
    23f9:	8b 83 10 10 00 00    	mov    0x1010(%ebx),%eax
    23ff:	8b 93 1c 10 00 00    	mov    0x101c(%ebx),%edx
    2405:	c7 83 10 10 00 00 00 	movl   $0x0,0x1010(%ebx)
    240c:	00 00 00 
    240f:	01 c2                	add    %eax,%edx
    2411:	8b 43 0c             	mov    0xc(%ebx),%eax
    2414:	89 93 1c 10 00 00    	mov    %edx,0x101c(%ebx)
    241a:	8b 55 d4             	mov    -0x2c(%ebp),%edx
    241d:	89 44 24 0c          	mov    %eax,0xc(%esp)
    2421:	89 7c 24 08          	mov    %edi,0x8(%esp)
    2425:	8d 44 13 10          	lea    0x10(%ebx,%edx,1),%eax
    2429:	c7 44 24 04 01 00 00 	movl   $0x1,0x4(%esp)
    2430:	00 
    2431:	89 04 24             	mov    %eax,(%esp)
    2434:	e8 57 73 01 00       	call   19790 <fread>
    2439:	89 c6                	mov    %eax,%esi
    243b:	8b 43 0c             	mov    0xc(%ebx),%eax
    243e:	89 04 24             	mov    %eax,(%esp)
    2441:	e8 1a 8d 01 00       	call   1b160 <ferror>
    2446:	85 c0                	test   %eax,%eax
    2448:	75 1e                	jne    2468 <next_token+0x4c8>
    244a:	8b 45 d4             	mov    -0x2c(%ebp),%eax
    244d:	01 d8                	add    %ebx,%eax
    244f:	c6 44 06 10 00       	movb   $0x0,0x10(%esi,%eax,1)
    2454:	8b b3 10 10 00 00    	mov    0x1010(%ebx),%esi
    245a:	8a 44 33 10          	mov    0x10(%ebx,%esi,1),%al
    245e:	e9 3f ff ff ff       	jmp    23a2 <next_token+0x402>
    2463:	90                   	nop
    2464:	8d 74 26 00          	lea    0x0(%esi,%eiz,1),%esi
    2468:	8b 3b                	mov    (%ebx),%edi
    246a:	85 ff                	test   %edi,%edi
    246c:	75 dc                	jne    244a <next_token+0x4aa>
    246e:	83 bb 20 10 00 00 86 	cmpl   $0xffffff86,0x1020(%ebx)
    2475:	74 58                	je     24cf <next_token+0x52f>
    2477:	c7 83 20 10 00 00 80 	movl   $0xffffff80,0x1020(%ebx)
    247e:	ff ff ff 
    2481:	c7 03 f7 fe ff ff    	movl   $0xfffffef7,(%ebx)
    2487:	eb c1                	jmp    244a <next_token+0x4aa>
    2489:	8d b4 26 00 00 00 00 	lea    0x0(%esi,%eiz,1),%esi
    2490:	8b 0b                	mov    (%ebx),%ecx
    2492:	85 c9                	test   %ecx,%ecx
    2494:	0f 85 63 fc ff ff    	jne    20fd <next_token+0x15d>
    249a:	83 bb 20 10 00 00 86 	cmpl   $0xffffff86,0x1020(%ebx)
    24a1:	74 3c                	je     24df <next_token+0x53f>
    24a3:	c7 83 20 10 00 00 80 	movl   $0xffffff80,0x1020(%ebx)
    24aa:	ff ff ff 
    24ad:	c7 03 f7 fe ff ff    	movl   $0xfffffef7,(%ebx)
    24b3:	b8 80 ff ff ff       	mov    $0xffffff80,%eax
    24b8:	e9 46 fc ff ff       	jmp    2103 <next_token+0x163>
    24bd:	c7 83 20 10 00 00 84 	movl   $0xffffff84,0x1020(%ebx)
    24c4:	ff ff ff 
    24c7:	83 c4 4c             	add    $0x4c,%esp
    24ca:	5b                   	pop    %ebx
    24cb:	5e                   	pop    %esi
    24cc:	5f                   	pop    %edi
    24cd:	5d                   	pop    %ebp
    24ce:	c3                   	ret    
    24cf:	8b 83 24 10 00 00    	mov    0x1024(%ebx),%eax
    24d5:	89 04 24             	mov    %eax,(%esp)
    24d8:	e8 03 dd 01 00       	call   201e0 <free>
    24dd:	eb 98                	jmp    2477 <next_token+0x4d7>
    24df:	8b 83 24 10 00 00    	mov    0x1024(%ebx),%eax
    24e5:	89 04 24             	mov    %eax,(%esp)
    24e8:	e8 f3 dc 01 00       	call   201e0 <free>
    24ed:	eb b4                	jmp    24a3 <next_token+0x503>
    24ef:	3c 3c                	cmp    $0x3c,%al
    24f1:	0f 84 f1 00 00 00    	je     25e8 <next_token+0x648>
    24f7:	3c 3e                	cmp    $0x3e,%al
    24f9:	0f 84 28 01 00 00    	je     2627 <next_token+0x687>
    24ff:	3c 3d                	cmp    $0x3d,%al
    2501:	0f 84 a8 00 00 00    	je     25af <next_token+0x60f>
    2507:	3c 2f                	cmp    $0x2f,%al
    2509:	0f 84 01 02 00 00    	je     2710 <next_token+0x770>
    250f:	3c 21                	cmp    $0x21,%al
    2511:	0f 84 c1 01 00 00    	je     26d8 <next_token+0x738>
    2517:	3c 26                	cmp    $0x26,%al
    2519:	0f 84 83 01 00 00    	je     26a2 <next_token+0x702>
    251f:	3c 7c                	cmp    $0x7c,%al
    2521:	0f 84 63 02 00 00    	je     278a <next_token+0x7ea>
    2527:	3c 2b                	cmp    $0x2b,%al
    2529:	0f 84 91 02 00 00    	je     27c0 <next_token+0x820>
    252f:	46                   	inc    %esi
    2530:	89 93 20 10 00 00    	mov    %edx,0x1020(%ebx)
    2536:	89 b3 10 10 00 00    	mov    %esi,0x1010(%ebx)
    253c:	eb 89                	jmp    24c7 <next_token+0x527>
    253e:	c7 83 20 10 00 00 8d 	movl   $0xffffff8d,0x1020(%ebx)
    2545:	ff ff ff 
    2548:	89 34 24             	mov    %esi,(%esp)
    254b:	e8 90 dc 01 00       	call   201e0 <free>
    2550:	e9 72 ff ff ff       	jmp    24c7 <next_token+0x527>
    2555:	c7 83 20 10 00 00 8e 	movl   $0xffffff8e,0x1020(%ebx)
    255c:	ff ff ff 
    255f:	89 34 24             	mov    %esi,(%esp)
    2562:	e8 79 dc 01 00       	call   201e0 <free>
    2567:	e9 5b ff ff ff       	jmp    24c7 <next_token+0x527>
    256c:	c7 83 20 10 00 00 8f 	movl   $0xffffff8f,0x1020(%ebx)
    2573:	ff ff ff 
    2576:	89 34 24             	mov    %esi,(%esp)
    2579:	e8 62 dc 01 00       	call   201e0 <free>
    257e:	e9 44 ff ff ff       	jmp    24c7 <next_token+0x527>
    2583:	8b 3b                	mov    (%ebx),%edi
    2585:	85 ff                	test   %edi,%edi
    2587:	0f 85 3a ff ff ff    	jne    24c7 <next_token+0x527>
    258d:	83 bb 20 10 00 00 86 	cmpl   $0xffffff86,0x1020(%ebx)
    2594:	0f 84 c6 01 00 00    	je     2760 <next_token+0x7c0>
    259a:	c7 83 20 10 00 00 80 	movl   $0xffffff80,0x1020(%ebx)
    25a1:	ff ff ff 
    25a4:	c7 03 fe ff ff ff    	movl   $0xfffffffe,(%ebx)
    25aa:	e9 18 ff ff ff       	jmp    24c7 <next_token+0x527>
    25af:	8d 46 01             	lea    0x1(%esi),%eax
    25b2:	c7 83 20 10 00 00 3d 	movl   $0x3d,0x1020(%ebx)
    25b9:	00 00 00 
    25bc:	89 83 10 10 00 00    	mov    %eax,0x1010(%ebx)
    25c2:	80 7c 33 11 3d       	cmpb   $0x3d,0x11(%ebx,%esi,1)
    25c7:	0f 85 fa fe ff ff    	jne    24c7 <next_token+0x527>
    25cd:	83 c6 02             	add    $0x2,%esi
    25d0:	c7 83 20 10 00 00 83 	movl   $0xffffff83,0x1020(%ebx)
    25d7:	ff ff ff 
    25da:	89 b3 10 10 00 00    	mov    %esi,0x1010(%ebx)
    25e0:	e9 e2 fe ff ff       	jmp    24c7 <next_token+0x527>
    25e5:	8d 76 00             	lea    0x0(%esi),%esi
    25e8:	8d 46 01             	lea    0x1(%esi),%eax
    25eb:	c7 83 20 10 00 00 3c 	movl   $0x3c,0x1020(%ebx)
    25f2:	00 00 00 
    25f5:	89 83 10 10 00 00    	mov    %eax,0x1010(%ebx)
    25fb:	8a 44 33 11          	mov    0x11(%ebx,%esi,1),%al
    25ff:	3c 2d                	cmp    $0x2d,%al
    2601:	0f 84 41 01 00 00    	je     2748 <next_token+0x7a8>
    2607:	3c 3d                	cmp    $0x3d,%al
    2609:	0f 85 b8 fe ff ff    	jne    24c7 <next_token+0x527>
    260f:	83 c6 02             	add    $0x2,%esi
    2612:	c7 83 20 10 00 00 8a 	movl   $0xffffff8a,0x1020(%ebx)
    2619:	ff ff ff 
    261c:	89 b3 10 10 00 00    	mov    %esi,0x1010(%ebx)
    2622:	e9 a0 fe ff ff       	jmp    24c7 <next_token+0x527>
    2627:	8d 46 01             	lea    0x1(%esi),%eax
    262a:	c7 83 20 10 00 00 3e 	movl   $0x3e,0x1020(%ebx)
    2631:	00 00 00 
    2634:	89 83 10 10 00 00    	mov    %eax,0x1010(%ebx)
    263a:	80 7c 33 11 3d       	cmpb   $0x3d,0x11(%ebx,%esi,1)
    263f:	0f 85 82 fe ff ff    	jne    24c7 <next_token+0x527>
    2645:	83 c6 02             	add    $0x2,%esi
    2648:	c7 83 20 10 00 00 85 	movl   $0xffffff85,0x1020(%ebx)
    264f:	ff ff ff 
    2652:	89 b3 10 10 00 00    	mov    %esi,0x1010(%ebx)
    2658:	e9 6a fe ff ff       	jmp    24c7 <next_token+0x527>
    265d:	c7 83 20 10 00 00 90 	movl   $0xffffff90,0x1020(%ebx)
    2664:	ff ff ff 
    2667:	89 34 24             	mov    %esi,(%esp)
    266a:	e8 71 db 01 00       	call   201e0 <free>
    266f:	e9 53 fe ff ff       	jmp    24c7 <next_token+0x527>
    2674:	c7 83 20 10 00 00 91 	movl   $0xffffff91,0x1020(%ebx)
    267b:	ff ff ff 
    267e:	89 34 24             	mov    %esi,(%esp)
    2681:	e8 5a db 01 00       	call   201e0 <free>
    2686:	e9 3c fe ff ff       	jmp    24c7 <next_token+0x527>
    268b:	c7 83 20 10 00 00 92 	movl   $0xffffff92,0x1020(%ebx)
    2692:	ff ff ff 
    2695:	89 34 24             	mov    %esi,(%esp)
    2698:	e8 43 db 01 00       	call   201e0 <free>
    269d:	e9 25 fe ff ff       	jmp    24c7 <next_token+0x527>
    26a2:	8d 46 01             	lea    0x1(%esi),%eax
    26a5:	c7 83 20 10 00 00 26 	movl   $0x26,0x1020(%ebx)
    26ac:	00 00 00 
    26af:	89 83 10 10 00 00    	mov    %eax,0x1010(%ebx)
    26b5:	80 7c 33 11 26       	cmpb   $0x26,0x11(%ebx,%esi,1)
    26ba:	0f 85 07 fe ff ff    	jne    24c7 <next_token+0x527>
    26c0:	83 c6 02             	add    $0x2,%esi
    26c3:	c7 83 20 10 00 00 81 	movl   $0xffffff81,0x1020(%ebx)
    26ca:	ff ff ff 
    26cd:	89 b3 10 10 00 00    	mov    %esi,0x1010(%ebx)
    26d3:	e9 ef fd ff ff       	jmp    24c7 <next_token+0x527>
    26d8:	8d 46 01             	lea    0x1(%esi),%eax
    26db:	c7 83 20 10 00 00 21 	movl   $0x21,0x1020(%ebx)
    26e2:	00 00 00 
    26e5:	89 83 10 10 00 00    	mov    %eax,0x1010(%ebx)
    26eb:	80 7c 33 11 3d       	cmpb   $0x3d,0x11(%ebx,%esi,1)
    26f0:	0f 85 d1 fd ff ff    	jne    24c7 <next_token+0x527>
    26f6:	83 c6 02             	add    $0x2,%esi
    26f9:	c7 83 20 10 00 00 8b 	movl   $0xffffff8b,0x1020(%ebx)
    2700:	ff ff ff 
    2703:	89 b3 10 10 00 00    	mov    %esi,0x1010(%ebx)
    2709:	e9 b9 fd ff ff       	jmp    24c7 <next_token+0x527>
    270e:	66 90                	xchg   %ax,%ax
    2710:	8d 46 01             	lea    0x1(%esi),%eax
    2713:	c7 83 20 10 00 00 2f 	movl   $0x2f,0x1020(%ebx)
    271a:	00 00 00 
    271d:	89 83 10 10 00 00    	mov    %eax,0x1010(%ebx)
    2723:	80 7c 33 11 2f       	cmpb   $0x2f,0x11(%ebx,%esi,1)
    2728:	0f 85 99 fd ff ff    	jne    24c7 <next_token+0x527>
    272e:	83 c6 02             	add    $0x2,%esi
    2731:	c7 83 20 10 00 00 88 	movl   $0xffffff88,0x1020(%ebx)
    2738:	ff ff ff 
    273b:	89 b3 10 10 00 00    	mov    %esi,0x1010(%ebx)
    2741:	e9 81 fd ff ff       	jmp    24c7 <next_token+0x527>
    2746:	66 90                	xchg   %ax,%ax
    2748:	83 c6 02             	add    $0x2,%esi
    274b:	c7 83 20 10 00 00 89 	movl   $0xffffff89,0x1020(%ebx)
    2752:	ff ff ff 
    2755:	89 b3 10 10 00 00    	mov    %esi,0x1010(%ebx)
    275b:	e9 67 fd ff ff       	jmp    24c7 <next_token+0x527>
    2760:	8b 83 24 10 00 00    	mov    0x1024(%ebx),%eax
    2766:	89 04 24             	mov    %eax,(%esp)
    2769:	e8 72 da 01 00       	call   201e0 <free>
    276e:	e9 27 fe ff ff       	jmp    259a <next_token+0x5fa>
    2773:	c7 83 20 10 00 00 93 	movl   $0xffffff93,0x1020(%ebx)
    277a:	ff ff ff 
    277d:	89 34 24             	mov    %esi,(%esp)
    2780:	e8 5b da 01 00       	call   201e0 <free>
    2785:	e9 3d fd ff ff       	jmp    24c7 <next_token+0x527>
    278a:	8d 46 01             	lea    0x1(%esi),%eax
    278d:	c7 83 20 10 00 00 7c 	movl   $0x7c,0x1020(%ebx)
    2794:	00 00 00 
    2797:	89 83 10 10 00 00    	mov    %eax,0x1010(%ebx)
    279d:	80 7c 33 11 7c       	cmpb   $0x7c,0x11(%ebx,%esi,1)
    27a2:	0f 85 1f fd ff ff    	jne    24c7 <next_token+0x527>
    27a8:	83 c6 02             	add    $0x2,%esi
    27ab:	c7 83 20 10 00 00 8c 	movl   $0xffffff8c,0x1020(%ebx)
    27b2:	ff ff ff 
    27b5:	89 b3 10 10 00 00    	mov    %esi,0x1010(%ebx)
    27bb:	e9 07 fd ff ff       	jmp    24c7 <next_token+0x527>
    27c0:	8d 46 01             	lea    0x1(%esi),%eax
    27c3:	c7 83 20 10 00 00 2b 	movl   $0x2b,0x1020(%ebx)
    27ca:	00 00 00 
    27cd:	89 83 10 10 00 00    	mov    %eax,0x1010(%ebx)
    27d3:	80 7c 33 11 2b       	cmpb   $0x2b,0x11(%ebx,%esi,1)
    27d8:	0f 85 e9 fc ff ff    	jne    24c7 <next_token+0x527>
    27de:	83 c6 02             	add    $0x2,%esi
    27e1:	c7 83 20 10 00 00 82 	movl   $0xffffff82,0x1020(%ebx)
    27e8:	ff ff ff 
    27eb:	89 b3 10 10 00 00    	mov    %esi,0x1010(%ebx)
    27f1:	e9 d1 fc ff ff       	jmp    24c7 <next_token+0x527>
    27f6:	c7 83 20 10 00 00 98 	movl   $0xffffff98,0x1020(%ebx)
    27fd:	ff ff ff 
    2800:	89 34 24             	mov    %esi,(%esp)
    2803:	e8 d8 d9 01 00       	call   201e0 <free>
    2808:	e9 ba fc ff ff       	jmp    24c7 <next_token+0x527>
    280d:	c7 83 20 10 00 00 97 	movl   $0xffffff97,0x1020(%ebx)
    2814:	ff ff ff 
    2817:	89 34 24             	mov    %esi,(%esp)
    281a:	e8 c1 d9 01 00       	call   201e0 <free>
    281f:	e9 a3 fc ff ff       	jmp    24c7 <next_token+0x527>
    2824:	c7 83 20 10 00 00 96 	movl   $0xffffff96,0x1020(%ebx)
    282b:	ff ff ff 
    282e:	89 34 24             	mov    %esi,(%esp)
    2831:	e8 aa d9 01 00       	call   201e0 <free>
    2836:	e9 8c fc ff ff       	jmp    24c7 <next_token+0x527>
    283b:	c7 83 20 10 00 00 95 	movl   $0xffffff95,0x1020(%ebx)
    2842:	ff ff ff 
    2845:	89 34 24             	mov    %esi,(%esp)
    2848:	e8 93 d9 01 00       	call   201e0 <free>
    284d:	e9 75 fc ff ff       	jmp    24c7 <next_token+0x527>
    2852:	c7 83 20 10 00 00 94 	movl   $0xffffff94,0x1020(%ebx)
    2859:	ff ff ff 
    285c:	89 34 24             	mov    %esi,(%esp)
    285f:	e8 7c d9 01 00       	call   201e0 <free>
    2864:	e9 5e fc ff ff       	jmp    24c7 <next_token+0x527>
    2869:	8d b4 26 00 00 00 00 	lea    0x0(%esi,%eiz,1),%esi

00002870 <parse_expression_precedence>:
    2870:	55                   	push   %ebp
    2871:	89 e5                	mov    %esp,%ebp
    2873:	57                   	push   %edi
    2874:	56                   	push   %esi
    2875:	53                   	push   %ebx
    2876:	83 ec 5c             	sub    $0x5c,%esp
    2879:	89 c6                	mov    %eax,%esi
    287b:	8b 80 20 10 00 00    	mov    0x1020(%eax),%eax
    2881:	89 55 c4             	mov    %edx,-0x3c(%ebp)
    2884:	83 f8 97             	cmp    $0xffffff97,%eax
    2887:	0f 94 c3             	sete   %bl
    288a:	83 f8 8f             	cmp    $0xffffff8f,%eax
    288d:	0f 84 5d 01 00 00    	je     29f0 <parse_expression_precedence+0x180>
    2893:	84 db                	test   %bl,%bl
    2895:	0f 85 55 01 00 00    	jne    29f0 <parse_expression_precedence+0x180>
    289b:	83 f8 91             	cmp    $0xffffff91,%eax
    289e:	0f 84 23 07 00 00    	je     2fc7 <parse_expression_precedence+0x757>
    28a4:	83 f8 87             	cmp    $0xffffff87,%eax
    28a7:	0f 84 83 01 00 00    	je     2a30 <parse_expression_precedence+0x1c0>
    28ad:	83 f8 86             	cmp    $0xffffff86,%eax
    28b0:	0f 84 12 06 00 00    	je     2ec8 <parse_expression_precedence+0x658>
    28b6:	83 f8 2e             	cmp    $0x2e,%eax
    28b9:	0f 84 b1 07 00 00    	je     3070 <parse_expression_precedence+0x800>
    28bf:	83 f8 28             	cmp    $0x28,%eax
    28c2:	0f 85 25 07 00 00    	jne    2fed <parse_expression_precedence+0x77d>
    28c8:	89 f0                	mov    %esi,%eax
    28ca:	e8 d1 f6 ff ff       	call   1fa0 <next_token>
    28cf:	31 d2                	xor    %edx,%edx
    28d1:	89 f0                	mov    %esi,%eax
    28d3:	e8 98 ff ff ff       	call   2870 <parse_expression_precedence>
    28d8:	83 be 20 10 00 00 29 	cmpl   $0x29,0x1020(%esi)
    28df:	89 c3                	mov    %eax,%ebx
    28e1:	0f 84 64 06 00 00    	je     2f4b <parse_expression_precedence+0x6db>
    28e7:	8b 16                	mov    (%esi),%edx
    28e9:	85 d2                	test   %edx,%edx
    28eb:	75 13                	jne    2900 <parse_expression_precedence+0x90>
    28ed:	ba 4a cf 02 00       	mov    $0x2cf4a,%edx
    28f2:	89 f0                	mov    %esi,%eax
    28f4:	e8 a7 f5 ff ff       	call   1ea0 <syntax_error.part.2>
    28f9:	8b 16                	mov    (%esi),%edx
    28fb:	90                   	nop
    28fc:	8d 74 26 00          	lea    0x0(%esi,%eiz,1),%esi
    2900:	89 5d d4             	mov    %ebx,-0x2c(%ebp)
    2903:	85 d2                	test   %edx,%edx
    2905:	0f 85 90 00 00 00    	jne    299b <parse_expression_precedence+0x12b>
    290b:	90                   	nop
    290c:	8d 74 26 00          	lea    0x0(%esi,%eiz,1),%esi
    2910:	8b 86 20 10 00 00    	mov    0x1020(%esi),%eax
    2916:	83 f8 2e             	cmp    $0x2e,%eax
    2919:	0f 84 b1 02 00 00    	je     2bd0 <parse_expression_precedence+0x360>
    291f:	83 f8 5b             	cmp    $0x5b,%eax
    2922:	75 77                	jne    299b <parse_expression_precedence+0x12b>
    2924:	89 f0                	mov    %esi,%eax
    2926:	e8 75 f6 ff ff       	call   1fa0 <next_token>
    292b:	31 d2                	xor    %edx,%edx
    292d:	89 f0                	mov    %esi,%eax
    292f:	e8 3c ff ff ff       	call   2870 <parse_expression_precedence>
    2934:	89 c7                	mov    %eax,%edi
    2936:	8b 86 20 10 00 00    	mov    0x1020(%esi),%eax
    293c:	83 f8 3a             	cmp    $0x3a,%eax
    293f:	0f 94 c3             	sete   %bl
    2942:	0f 84 48 01 00 00    	je     2a90 <parse_expression_precedence+0x220>
    2948:	83 f8 2c             	cmp    $0x2c,%eax
    294b:	0f 84 3f 01 00 00    	je     2a90 <parse_expression_precedence+0x220>
    2951:	83 f8 5d             	cmp    $0x5d,%eax
    2954:	0f 85 f6 04 00 00    	jne    2e50 <parse_expression_precedence+0x5e0>
    295a:	89 f0                	mov    %esi,%eax
    295c:	e8 3f f6 ff ff       	call   1fa0 <next_token>
    2961:	8b 1e                	mov    (%esi),%ebx
    2963:	85 db                	test   %ebx,%ebx
    2965:	0f 85 fd 04 00 00    	jne    2e68 <parse_expression_precedence+0x5f8>
    296b:	8b 45 d4             	mov    -0x2c(%ebp),%eax
    296e:	89 7c 24 0c          	mov    %edi,0xc(%esp)
    2972:	89 44 24 08          	mov    %eax,0x8(%esp)
    2976:	8d 45 d4             	lea    -0x2c(%ebp),%eax
    2979:	c7 44 24 04 0e 00 00 	movl   $0xe,0x4(%esp)
    2980:	00 
    2981:	89 04 24             	mov    %eax,(%esp)
    2984:	e8 d7 ac 00 00       	call   d660 <bithenge_binary_expression>
    2989:	85 c0                	test   %eax,%eax
    298b:	0f 85 58 01 00 00    	jne    2ae9 <parse_expression_precedence+0x279>
    2991:	8b 16                	mov    (%esi),%edx
    2993:	85 d2                	test   %edx,%edx
    2995:	0f 84 75 ff ff ff    	je     2910 <parse_expression_precedence+0xa0>
    299b:	8b 4d d4             	mov    -0x2c(%ebp),%ecx
    299e:	89 4d d0             	mov    %ecx,-0x30(%ebp)
    29a1:	8d 5d d0             	lea    -0x30(%ebp),%ebx
    29a4:	85 d2                	test   %edx,%edx
    29a6:	0f 85 e9 05 00 00    	jne    2f95 <parse_expression_precedence+0x725>
    29ac:	8b 86 20 10 00 00    	mov    0x1020(%esi),%eax
    29b2:	83 f8 8b             	cmp    $0xffffff8b,%eax
    29b5:	0f 84 3d 04 00 00    	je     2df8 <parse_expression_precedence+0x588>
    29bb:	0f 8f d7 02 00 00    	jg     2c98 <parse_expression_precedence+0x428>
    29c1:	83 f8 83             	cmp    $0xffffff83,%eax
    29c4:	0f 84 fe 03 00 00    	je     2dc8 <parse_expression_precedence+0x558>
    29ca:	0f 8f 70 03 00 00    	jg     2d40 <parse_expression_precedence+0x4d0>
    29d0:	83 f8 81             	cmp    $0xffffff81,%eax
    29d3:	0f 84 67 04 00 00    	je     2e40 <parse_expression_precedence+0x5d0>
    29d9:	83 f8 82             	cmp    $0xffffff82,%eax
    29dc:	0f 84 4e 04 00 00    	je     2e30 <parse_expression_precedence+0x5c0>
    29e2:	8b 45 d0             	mov    -0x30(%ebp),%eax
    29e5:	83 c4 5c             	add    $0x5c,%esp
    29e8:	5b                   	pop    %ebx
    29e9:	5e                   	pop    %esi
    29ea:	5f                   	pop    %edi
    29eb:	5d                   	pop    %ebp
    29ec:	c3                   	ret    
    29ed:	8d 76 00             	lea    0x0(%esi),%esi
    29f0:	89 f0                	mov    %esi,%eax
    29f2:	81 e3 ff 00 00 00    	and    $0xff,%ebx
    29f8:	e8 a3 f5 ff ff       	call   1fa0 <next_token>
    29fd:	8d 45 e0             	lea    -0x20(%ebp),%eax
    2a00:	89 5c 24 04          	mov    %ebx,0x4(%esp)
    2a04:	89 04 24             	mov    %eax,(%esp)
    2a07:	e8 24 7f 00 00       	call   a930 <bithenge_new_boolean_node>
    2a0c:	85 c0                	test   %eax,%eax
    2a0e:	75 50                	jne    2a60 <parse_expression_precedence+0x1f0>
    2a10:	8b 45 e0             	mov    -0x20(%ebp),%eax
    2a13:	89 44 24 04          	mov    %eax,0x4(%esp)
    2a17:	8d 45 e4             	lea    -0x1c(%ebp),%eax
    2a1a:	89 04 24             	mov    %eax,(%esp)
    2a1d:	e8 8e ad 00 00       	call   d7b0 <bithenge_const_expression>
    2a22:	85 c0                	test   %eax,%eax
    2a24:	75 3a                	jne    2a60 <parse_expression_precedence+0x1f0>
    2a26:	8b 5d e4             	mov    -0x1c(%ebp),%ebx
    2a29:	8b 16                	mov    (%esi),%edx
    2a2b:	e9 d0 fe ff ff       	jmp    2900 <parse_expression_precedence+0x90>
    2a30:	8b 8e 24 10 00 00    	mov    0x1024(%esi),%ecx
    2a36:	89 f0                	mov    %esi,%eax
    2a38:	8b 9e 28 10 00 00    	mov    0x1028(%esi),%ebx
    2a3e:	89 4d c0             	mov    %ecx,-0x40(%ebp)
    2a41:	e8 5a f5 ff ff       	call   1fa0 <next_token>
    2a46:	8b 4d c0             	mov    -0x40(%ebp),%ecx
    2a49:	8d 45 e0             	lea    -0x20(%ebp),%eax
    2a4c:	89 4c 24 04          	mov    %ecx,0x4(%esp)
    2a50:	89 5c 24 08          	mov    %ebx,0x8(%esp)
    2a54:	89 04 24             	mov    %eax,(%esp)
    2a57:	e8 24 7f 00 00       	call   a980 <bithenge_new_integer_node>
    2a5c:	85 c0                	test   %eax,%eax
    2a5e:	74 b0                	je     2a10 <parse_expression_precedence+0x1a0>
    2a60:	8b 16                	mov    (%esi),%edx
    2a62:	31 db                	xor    %ebx,%ebx
    2a64:	85 d2                	test   %edx,%edx
    2a66:	0f 85 94 fe ff ff    	jne    2900 <parse_expression_precedence+0x90>
    2a6c:	83 be 20 10 00 00 86 	cmpl   $0xffffff86,0x1020(%esi)
    2a73:	0f 84 51 07 00 00    	je     31ca <parse_expression_precedence+0x95a>
    2a79:	c7 86 20 10 00 00 80 	movl   $0xffffff80,0x1020(%esi)
    2a80:	ff ff ff 
    2a83:	89 06                	mov    %eax,(%esi)
    2a85:	89 c2                	mov    %eax,%edx
    2a87:	31 db                	xor    %ebx,%ebx
    2a89:	e9 72 fe ff ff       	jmp    2900 <parse_expression_precedence+0x90>
    2a8e:	66 90                	xchg   %ax,%ax
    2a90:	89 f0                	mov    %esi,%eax
    2a92:	e8 09 f5 ff ff       	call   1fa0 <next_token>
    2a97:	83 be 20 10 00 00 5d 	cmpl   $0x5d,0x1020(%esi)
    2a9e:	75 78                	jne    2b18 <parse_expression_precedence+0x2a8>
    2aa0:	84 db                	test   %bl,%bl
    2aa2:	74 74                	je     2b18 <parse_expression_precedence+0x2a8>
    2aa4:	31 c9                	xor    %ecx,%ecx
    2aa6:	89 f0                	mov    %esi,%eax
    2aa8:	89 4d c0             	mov    %ecx,-0x40(%ebp)
    2aab:	e8 f0 f4 ff ff       	call   1fa0 <next_token>
    2ab0:	8b 4d c0             	mov    -0x40(%ebp),%ecx
    2ab3:	8b 06                	mov    (%esi),%eax
    2ab5:	85 c0                	test   %eax,%eax
    2ab7:	0f 85 7d 00 00 00    	jne    2b3a <parse_expression_precedence+0x2ca>
    2abd:	8b 45 d4             	mov    -0x2c(%ebp),%eax
    2ac0:	81 e3 ff 00 00 00    	and    $0xff,%ebx
    2ac6:	89 44 24 04          	mov    %eax,0x4(%esp)
    2aca:	8d 45 d4             	lea    -0x2c(%ebp),%eax
    2acd:	89 5c 24 10          	mov    %ebx,0x10(%esp)
    2ad1:	89 4c 24 0c          	mov    %ecx,0xc(%esp)
    2ad5:	89 7c 24 08          	mov    %edi,0x8(%esp)
    2ad9:	89 04 24             	mov    %eax,(%esp)
    2adc:	e8 8f ad 00 00       	call   d870 <bithenge_subblob_expression>
    2ae1:	85 c0                	test   %eax,%eax
    2ae3:	0f 84 a8 fe ff ff    	je     2991 <parse_expression_precedence+0x121>
    2ae9:	8b 16                	mov    (%esi),%edx
    2aeb:	31 c9                	xor    %ecx,%ecx
    2aed:	85 d2                	test   %edx,%edx
    2aef:	0f 85 a9 fe ff ff    	jne    299e <parse_expression_precedence+0x12e>
    2af5:	83 be 20 10 00 00 86 	cmpl   $0xffffff86,0x1020(%esi)
    2afc:	0f 84 2f 06 00 00    	je     3131 <parse_expression_precedence+0x8c1>
    2b02:	c7 86 20 10 00 00 80 	movl   $0xffffff80,0x1020(%esi)
    2b09:	ff ff ff 
    2b0c:	89 06                	mov    %eax,(%esi)
    2b0e:	89 c2                	mov    %eax,%edx
    2b10:	31 c9                	xor    %ecx,%ecx
    2b12:	e9 87 fe ff ff       	jmp    299e <parse_expression_precedence+0x12e>
    2b17:	90                   	nop
    2b18:	31 d2                	xor    %edx,%edx
    2b1a:	89 f0                	mov    %esi,%eax
    2b1c:	e8 4f fd ff ff       	call   2870 <parse_expression_precedence>
    2b21:	83 be 20 10 00 00 5d 	cmpl   $0x5d,0x1020(%esi)
    2b28:	89 c1                	mov    %eax,%ecx
    2b2a:	0f 84 76 ff ff ff    	je     2aa6 <parse_expression_precedence+0x236>
    2b30:	8b 06                	mov    (%esi),%eax
    2b32:	85 c0                	test   %eax,%eax
    2b34:	0f 84 46 01 00 00    	je     2c80 <parse_expression_precedence+0x410>
    2b3a:	8b 45 d4             	mov    -0x2c(%ebp),%eax
    2b3d:	85 c0                	test   %eax,%eax
    2b3f:	74 29                	je     2b6a <parse_expression_precedence+0x2fa>
    2b41:	8b 18                	mov    (%eax),%ebx
    2b43:	85 db                	test   %ebx,%ebx
    2b45:	0f 84 4d 07 00 00    	je     3298 <parse_expression_precedence+0xa28>
    2b4b:	8b 50 04             	mov    0x4(%eax),%edx
    2b4e:	85 d2                	test   %edx,%edx
    2b50:	0f 84 47 07 00 00    	je     329d <parse_expression_precedence+0xa2d>
    2b56:	4a                   	dec    %edx
    2b57:	89 50 04             	mov    %edx,0x4(%eax)
    2b5a:	85 d2                	test   %edx,%edx
    2b5c:	75 0c                	jne    2b6a <parse_expression_precedence+0x2fa>
    2b5e:	89 4d c0             	mov    %ecx,-0x40(%ebp)
    2b61:	89 04 24             	mov    %eax,(%esp)
    2b64:	ff 53 04             	call   *0x4(%ebx)
    2b67:	8b 4d c0             	mov    -0x40(%ebp),%ecx
    2b6a:	85 ff                	test   %edi,%edi
    2b6c:	74 29                	je     2b97 <parse_expression_precedence+0x327>
    2b6e:	8b 17                	mov    (%edi),%edx
    2b70:	85 d2                	test   %edx,%edx
    2b72:	0f 84 20 07 00 00    	je     3298 <parse_expression_precedence+0xa28>
    2b78:	8b 47 04             	mov    0x4(%edi),%eax
    2b7b:	85 c0                	test   %eax,%eax
    2b7d:	0f 84 1a 07 00 00    	je     329d <parse_expression_precedence+0xa2d>
    2b83:	48                   	dec    %eax
    2b84:	89 47 04             	mov    %eax,0x4(%edi)
    2b87:	85 c0                	test   %eax,%eax
    2b89:	75 0c                	jne    2b97 <parse_expression_precedence+0x327>
    2b8b:	89 4d c0             	mov    %ecx,-0x40(%ebp)
    2b8e:	89 3c 24             	mov    %edi,(%esp)
    2b91:	ff 52 04             	call   *0x4(%edx)
    2b94:	8b 4d c0             	mov    -0x40(%ebp),%ecx
    2b97:	85 c9                	test   %ecx,%ecx
    2b99:	0f 84 ab 05 00 00    	je     314a <parse_expression_precedence+0x8da>
    2b9f:	8b 11                	mov    (%ecx),%edx
    2ba1:	85 d2                	test   %edx,%edx
    2ba3:	0f 84 ef 06 00 00    	je     3298 <parse_expression_precedence+0xa28>
    2ba9:	8b 41 04             	mov    0x4(%ecx),%eax
    2bac:	85 c0                	test   %eax,%eax
    2bae:	0f 84 e9 06 00 00    	je     329d <parse_expression_precedence+0xa2d>
    2bb4:	48                   	dec    %eax
    2bb5:	89 41 04             	mov    %eax,0x4(%ecx)
    2bb8:	85 c0                	test   %eax,%eax
    2bba:	0f 85 e8 01 00 00    	jne    2da8 <parse_expression_precedence+0x538>
    2bc0:	89 0c 24             	mov    %ecx,(%esp)
    2bc3:	ff 52 04             	call   *0x4(%edx)
    2bc6:	8b 16                	mov    (%esi),%edx
    2bc8:	31 c9                	xor    %ecx,%ecx
    2bca:	e9 cf fd ff ff       	jmp    299e <parse_expression_precedence+0x12e>
    2bcf:	90                   	nop
    2bd0:	89 f0                	mov    %esi,%eax
    2bd2:	e8 c9 f3 ff ff       	call   1fa0 <next_token>
    2bd7:	83 be 20 10 00 00 86 	cmpl   $0xffffff86,0x1020(%esi)
    2bde:	0f 85 84 01 00 00    	jne    2d68 <parse_expression_precedence+0x4f8>
    2be4:	8b 9e 24 10 00 00    	mov    0x1024(%esi),%ebx
    2bea:	89 f0                	mov    %esi,%eax
    2bec:	c7 86 24 10 00 00 00 	movl   $0x0,0x1024(%esi)
    2bf3:	00 00 00 
    2bf6:	e8 a5 f3 ff ff       	call   1fa0 <next_token>
    2bfb:	8b 06                	mov    (%esi),%eax
    2bfd:	85 c0                	test   %eax,%eax
    2bff:	0f 85 6f 01 00 00    	jne    2d74 <parse_expression_precedence+0x504>
    2c05:	8d 45 d8             	lea    -0x28(%ebp),%eax
    2c08:	c7 44 24 08 01 00 00 	movl   $0x1,0x8(%esp)
    2c0f:	00 
    2c10:	89 5c 24 04          	mov    %ebx,0x4(%esp)
    2c14:	89 04 24             	mov    %eax,(%esp)
    2c17:	c7 45 d8 00 00 00 00 	movl   $0x0,-0x28(%ebp)
    2c1e:	e8 cd 7d 00 00       	call   a9f0 <bithenge_new_string_node>
    2c23:	85 c0                	test   %eax,%eax
    2c25:	0f 85 12 04 00 00    	jne    303d <parse_expression_precedence+0x7cd>
    2c2b:	8b 45 d8             	mov    -0x28(%ebp),%eax
    2c2e:	89 44 24 04          	mov    %eax,0x4(%esp)
    2c32:	8d 45 dc             	lea    -0x24(%ebp),%eax
    2c35:	89 04 24             	mov    %eax,(%esp)
    2c38:	e8 73 ab 00 00       	call   d7b0 <bithenge_const_expression>
    2c3d:	85 c0                	test   %eax,%eax
    2c3f:	0f 85 f8 03 00 00    	jne    303d <parse_expression_precedence+0x7cd>
    2c45:	8b 45 dc             	mov    -0x24(%ebp),%eax
    2c48:	c7 44 24 04 0e 00 00 	movl   $0xe,0x4(%esp)
    2c4f:	00 
    2c50:	89 44 24 0c          	mov    %eax,0xc(%esp)
    2c54:	8b 45 d4             	mov    -0x2c(%ebp),%eax
    2c57:	89 44 24 08          	mov    %eax,0x8(%esp)
    2c5b:	8d 45 d4             	lea    -0x2c(%ebp),%eax
    2c5e:	89 04 24             	mov    %eax,(%esp)
    2c61:	e8 fa a9 00 00       	call   d660 <bithenge_binary_expression>
    2c66:	85 c0                	test   %eax,%eax
    2c68:	0f 84 23 fd ff ff    	je     2991 <parse_expression_precedence+0x121>
    2c6e:	8b 16                	mov    (%esi),%edx
    2c70:	85 d2                	test   %edx,%edx
    2c72:	0f 84 7d fe ff ff    	je     2af5 <parse_expression_precedence+0x285>
    2c78:	31 c9                	xor    %ecx,%ecx
    2c7a:	e9 1f fd ff ff       	jmp    299e <parse_expression_precedence+0x12e>
    2c7f:	90                   	nop
    2c80:	ba 4a cf 02 00       	mov    $0x2cf4a,%edx
    2c85:	89 f0                	mov    %esi,%eax
    2c87:	89 4d c0             	mov    %ecx,-0x40(%ebp)
    2c8a:	e8 11 f2 ff ff       	call   1ea0 <syntax_error.part.2>
    2c8f:	8b 4d c0             	mov    -0x40(%ebp),%ecx
    2c92:	e9 1c fe ff ff       	jmp    2ab3 <parse_expression_precedence+0x243>
    2c97:	90                   	nop
    2c98:	83 f8 2b             	cmp    $0x2b,%eax
    2c9b:	0f 84 47 01 00 00    	je     2de8 <parse_expression_precedence+0x578>
    2ca1:	7f 75                	jg     2d18 <parse_expression_precedence+0x4a8>
    2ca3:	83 f8 25             	cmp    $0x25,%eax
    2ca6:	0f 84 34 01 00 00    	je     2de0 <parse_expression_precedence+0x570>
    2cac:	83 f8 2a             	cmp    $0x2a,%eax
    2caf:	0f 84 23 01 00 00    	je     2dd8 <parse_expression_precedence+0x568>
    2cb5:	83 f8 8c             	cmp    $0xffffff8c,%eax
    2cb8:	0f 85 24 fd ff ff    	jne    29e2 <parse_expression_precedence+0x172>
    2cbe:	b9 0d 00 00 00       	mov    $0xd,%ecx
    2cc3:	bf 01 00 00 00       	mov    $0x1,%edi
    2cc8:	39 7d c4             	cmp    %edi,-0x3c(%ebp)
    2ccb:	0f 83 11 fd ff ff    	jae    29e2 <parse_expression_precedence+0x172>
    2cd1:	89 f0                	mov    %esi,%eax
    2cd3:	89 4d c0             	mov    %ecx,-0x40(%ebp)
    2cd6:	e8 c5 f2 ff ff       	call   1fa0 <next_token>
    2cdb:	89 fa                	mov    %edi,%edx
    2cdd:	89 f0                	mov    %esi,%eax
    2cdf:	e8 8c fb ff ff       	call   2870 <parse_expression_precedence>
    2ce4:	8b 16                	mov    (%esi),%edx
    2ce6:	85 d2                	test   %edx,%edx
    2ce8:	8b 4d c0             	mov    -0x40(%ebp),%ecx
    2ceb:	0f 85 73 02 00 00    	jne    2f64 <parse_expression_precedence+0x6f4>
    2cf1:	89 44 24 0c          	mov    %eax,0xc(%esp)
    2cf5:	8b 45 d0             	mov    -0x30(%ebp),%eax
    2cf8:	89 44 24 08          	mov    %eax,0x8(%esp)
    2cfc:	89 4c 24 04          	mov    %ecx,0x4(%esp)
    2d00:	89 1c 24             	mov    %ebx,(%esp)
    2d03:	e8 58 a9 00 00       	call   d660 <bithenge_binary_expression>
    2d08:	85 c0                	test   %eax,%eax
    2d0a:	0f 85 fc 02 00 00    	jne    300c <parse_expression_precedence+0x79c>
    2d10:	8b 16                	mov    (%esi),%edx
    2d12:	e9 8d fc ff ff       	jmp    29a4 <parse_expression_precedence+0x134>
    2d17:	90                   	nop
    2d18:	83 f8 3c             	cmp    $0x3c,%eax
    2d1b:	0f 84 ff 00 00 00    	je     2e20 <parse_expression_precedence+0x5b0>
    2d21:	83 f8 3e             	cmp    $0x3e,%eax
    2d24:	0f 84 e6 00 00 00    	je     2e10 <parse_expression_precedence+0x5a0>
    2d2a:	83 f8 2d             	cmp    $0x2d,%eax
    2d2d:	0f 85 af fc ff ff    	jne    29e2 <parse_expression_precedence+0x172>
    2d33:	b9 02 00 00 00       	mov    $0x2,%ecx
    2d38:	bf 04 00 00 00       	mov    $0x4,%edi
    2d3d:	eb 89                	jmp    2cc8 <parse_expression_precedence+0x458>
    2d3f:	90                   	nop
    2d40:	83 f8 88             	cmp    $0xffffff88,%eax
    2d43:	74 73                	je     2db8 <parse_expression_precedence+0x548>
    2d45:	83 f8 8a             	cmp    $0xffffff8a,%eax
    2d48:	0f 84 b2 00 00 00    	je     2e00 <parse_expression_precedence+0x590>
    2d4e:	83 f8 85             	cmp    $0xffffff85,%eax
    2d51:	0f 85 8b fc ff ff    	jne    29e2 <parse_expression_precedence+0x172>
    2d57:	b9 09 00 00 00       	mov    $0x9,%ecx
    2d5c:	bf 03 00 00 00       	mov    $0x3,%edi
    2d61:	e9 62 ff ff ff       	jmp    2cc8 <parse_expression_precedence+0x458>
    2d66:	66 90                	xchg   %ax,%ax
    2d68:	8b 06                	mov    (%esi),%eax
    2d6a:	85 c0                	test   %eax,%eax
    2d6c:	0f 84 c6 01 00 00    	je     2f38 <parse_expression_precedence+0x6c8>
    2d72:	31 db                	xor    %ebx,%ebx
    2d74:	89 1c 24             	mov    %ebx,(%esp)
    2d77:	e8 64 d4 01 00       	call   201e0 <free>
    2d7c:	8b 45 d4             	mov    -0x2c(%ebp),%eax
    2d7f:	85 c0                	test   %eax,%eax
    2d81:	74 25                	je     2da8 <parse_expression_precedence+0x538>
    2d83:	8b 08                	mov    (%eax),%ecx
    2d85:	85 c9                	test   %ecx,%ecx
    2d87:	0f 84 0b 05 00 00    	je     3298 <parse_expression_precedence+0xa28>
    2d8d:	8b 50 04             	mov    0x4(%eax),%edx
    2d90:	85 d2                	test   %edx,%edx
    2d92:	0f 84 05 05 00 00    	je     329d <parse_expression_precedence+0xa2d>
    2d98:	4a                   	dec    %edx
    2d99:	89 50 04             	mov    %edx,0x4(%eax)
    2d9c:	85 d2                	test   %edx,%edx
    2d9e:	0f 84 62 03 00 00    	je     3106 <parse_expression_precedence+0x896>
    2da4:	8d 74 26 00          	lea    0x0(%esi,%eiz,1),%esi
    2da8:	8b 16                	mov    (%esi),%edx
    2daa:	31 c9                	xor    %ecx,%ecx
    2dac:	e9 ed fb ff ff       	jmp    299e <parse_expression_precedence+0x12e>
    2db1:	8d b4 26 00 00 00 00 	lea    0x0(%esi,%eiz,1),%esi
    2db8:	b9 04 00 00 00       	mov    $0x4,%ecx
    2dbd:	bf 05 00 00 00       	mov    $0x5,%edi
    2dc2:	e9 01 ff ff ff       	jmp    2cc8 <parse_expression_precedence+0x458>
    2dc7:	90                   	nop
    2dc8:	b9 0a 00 00 00       	mov    $0xa,%ecx
    2dcd:	bf 02 00 00 00       	mov    $0x2,%edi
    2dd2:	e9 f1 fe ff ff       	jmp    2cc8 <parse_expression_precedence+0x458>
    2dd7:	90                   	nop
    2dd8:	b9 03 00 00 00       	mov    $0x3,%ecx
    2ddd:	eb de                	jmp    2dbd <parse_expression_precedence+0x54d>
    2ddf:	90                   	nop
    2de0:	b9 05 00 00 00       	mov    $0x5,%ecx
    2de5:	eb d6                	jmp    2dbd <parse_expression_precedence+0x54d>
    2de7:	90                   	nop
    2de8:	b9 01 00 00 00       	mov    $0x1,%ecx
    2ded:	e9 46 ff ff ff       	jmp    2d38 <parse_expression_precedence+0x4c8>
    2df2:	8d b6 00 00 00 00    	lea    0x0(%esi),%esi
    2df8:	b9 0b 00 00 00       	mov    $0xb,%ecx
    2dfd:	eb ce                	jmp    2dcd <parse_expression_precedence+0x55d>
    2dff:	90                   	nop
    2e00:	b9 08 00 00 00       	mov    $0x8,%ecx
    2e05:	e9 52 ff ff ff       	jmp    2d5c <parse_expression_precedence+0x4ec>
    2e0a:	8d b6 00 00 00 00    	lea    0x0(%esi),%esi
    2e10:	b9 07 00 00 00       	mov    $0x7,%ecx
    2e15:	e9 42 ff ff ff       	jmp    2d5c <parse_expression_precedence+0x4ec>
    2e1a:	8d b6 00 00 00 00    	lea    0x0(%esi),%esi
    2e20:	b9 06 00 00 00       	mov    $0x6,%ecx
    2e25:	e9 32 ff ff ff       	jmp    2d5c <parse_expression_precedence+0x4ec>
    2e2a:	8d b6 00 00 00 00    	lea    0x0(%esi),%esi
    2e30:	b9 0f 00 00 00       	mov    $0xf,%ecx
    2e35:	e9 fe fe ff ff       	jmp    2d38 <parse_expression_precedence+0x4c8>
    2e3a:	8d b6 00 00 00 00    	lea    0x0(%esi),%esi
    2e40:	b9 0c 00 00 00       	mov    $0xc,%ecx
    2e45:	e9 79 fe ff ff       	jmp    2cc3 <parse_expression_precedence+0x453>
    2e4a:	8d b6 00 00 00 00    	lea    0x0(%esi),%esi
    2e50:	8b 0e                	mov    (%esi),%ecx
    2e52:	85 c9                	test   %ecx,%ecx
    2e54:	75 12                	jne    2e68 <parse_expression_precedence+0x5f8>
    2e56:	ba 69 cf 02 00       	mov    $0x2cf69,%edx
    2e5b:	89 f0                	mov    %esi,%eax
    2e5d:	e8 3e f0 ff ff       	call   1ea0 <syntax_error.part.2>
    2e62:	8d b6 00 00 00 00    	lea    0x0(%esi),%esi
    2e68:	8b 45 d4             	mov    -0x2c(%ebp),%eax
    2e6b:	85 c0                	test   %eax,%eax
    2e6d:	74 21                	je     2e90 <parse_expression_precedence+0x620>
    2e6f:	8b 08                	mov    (%eax),%ecx
    2e71:	85 c9                	test   %ecx,%ecx
    2e73:	0f 84 1f 04 00 00    	je     3298 <parse_expression_precedence+0xa28>
    2e79:	8b 50 04             	mov    0x4(%eax),%edx
    2e7c:	85 d2                	test   %edx,%edx
    2e7e:	0f 84 19 04 00 00    	je     329d <parse_expression_precedence+0xa2d>
    2e84:	4a                   	dec    %edx
    2e85:	89 50 04             	mov    %edx,0x4(%eax)
    2e88:	85 d2                	test   %edx,%edx
    2e8a:	0f 84 c9 00 00 00    	je     2f59 <parse_expression_precedence+0x6e9>
    2e90:	85 ff                	test   %edi,%edi
    2e92:	0f 84 10 ff ff ff    	je     2da8 <parse_expression_precedence+0x538>
    2e98:	8b 17                	mov    (%edi),%edx
    2e9a:	85 d2                	test   %edx,%edx
    2e9c:	0f 84 f6 03 00 00    	je     3298 <parse_expression_precedence+0xa28>
    2ea2:	8b 47 04             	mov    0x4(%edi),%eax
    2ea5:	85 c0                	test   %eax,%eax
    2ea7:	0f 84 f0 03 00 00    	je     329d <parse_expression_precedence+0xa2d>
    2ead:	48                   	dec    %eax
    2eae:	89 47 04             	mov    %eax,0x4(%edi)
    2eb1:	85 c0                	test   %eax,%eax
    2eb3:	0f 85 ef fe ff ff    	jne    2da8 <parse_expression_precedence+0x538>
    2eb9:	89 3c 24             	mov    %edi,(%esp)
    2ebc:	ff 52 04             	call   *0x4(%edx)
    2ebf:	8b 16                	mov    (%esi),%edx
    2ec1:	e9 e4 fe ff ff       	jmp    2daa <parse_expression_precedence+0x53a>
    2ec6:	66 90                	xchg   %ax,%ax
    2ec8:	8b 86 30 10 00 00    	mov    0x1030(%esi),%eax
    2ece:	31 db                	xor    %ebx,%ebx
    2ed0:	85 c0                	test   %eax,%eax
    2ed2:	7f 0f                	jg     2ee3 <parse_expression_precedence+0x673>
    2ed4:	eb 32                	jmp    2f08 <parse_expression_precedence+0x698>
    2ed6:	66 90                	xchg   %ax,%ax
    2ed8:	43                   	inc    %ebx
    2ed9:	8b 86 30 10 00 00    	mov    0x1030(%esi),%eax
    2edf:	39 c3                	cmp    %eax,%ebx
    2ee1:	7d 25                	jge    2f08 <parse_expression_precedence+0x698>
    2ee3:	8b 86 24 10 00 00    	mov    0x1024(%esi),%eax
    2ee9:	89 44 24 04          	mov    %eax,0x4(%esp)
    2eed:	8b 86 2c 10 00 00    	mov    0x102c(%esi),%eax
    2ef3:	8b 04 98             	mov    (%eax,%ebx,4),%eax
    2ef6:	89 04 24             	mov    %eax,(%esp)
    2ef9:	e8 22 16 01 00       	call   14520 <str_cmp>
    2efe:	85 c0                	test   %eax,%eax
    2f00:	75 d6                	jne    2ed8 <parse_expression_precedence+0x668>
    2f02:	8b 86 30 10 00 00    	mov    0x1030(%esi),%eax
    2f08:	39 d8                	cmp    %ebx,%eax
    2f0a:	0f 84 41 02 00 00    	je     3151 <parse_expression_precedence+0x8e1>
    2f10:	89 f0                	mov    %esi,%eax
    2f12:	e8 89 f0 ff ff       	call   1fa0 <next_token>
    2f17:	8d 45 e4             	lea    -0x1c(%ebp),%eax
    2f1a:	89 5c 24 04          	mov    %ebx,0x4(%esp)
    2f1e:	89 04 24             	mov    %eax,(%esp)
    2f21:	e8 4a a8 00 00       	call   d770 <bithenge_param_expression>
    2f26:	85 c0                	test   %eax,%eax
    2f28:	0f 84 f8 fa ff ff    	je     2a26 <parse_expression_precedence+0x1b6>
    2f2e:	e9 2d fb ff ff       	jmp    2a60 <parse_expression_precedence+0x1f0>
    2f33:	90                   	nop
    2f34:	8d 74 26 00          	lea    0x0(%esi,%eiz,1),%esi
    2f38:	ba c0 cf 02 00       	mov    $0x2cfc0,%edx
    2f3d:	89 f0                	mov    %esi,%eax
    2f3f:	e8 5c ef ff ff       	call   1ea0 <syntax_error.part.2>
    2f44:	31 db                	xor    %ebx,%ebx
    2f46:	e9 b0 fc ff ff       	jmp    2bfb <parse_expression_precedence+0x38b>
    2f4b:	89 f0                	mov    %esi,%eax
    2f4d:	e8 4e f0 ff ff       	call   1fa0 <next_token>
    2f52:	8b 16                	mov    (%esi),%edx
    2f54:	e9 a7 f9 ff ff       	jmp    2900 <parse_expression_precedence+0x90>
    2f59:	89 04 24             	mov    %eax,(%esp)
    2f5c:	ff 51 04             	call   *0x4(%ecx)
    2f5f:	e9 2c ff ff ff       	jmp    2e90 <parse_expression_precedence+0x620>
    2f64:	85 c0                	test   %eax,%eax
    2f66:	74 2d                	je     2f95 <parse_expression_precedence+0x725>
    2f68:	8b 08                	mov    (%eax),%ecx
    2f6a:	85 c9                	test   %ecx,%ecx
    2f6c:	0f 84 26 03 00 00    	je     3298 <parse_expression_precedence+0xa28>
    2f72:	8b 50 04             	mov    0x4(%eax),%edx
    2f75:	85 d2                	test   %edx,%edx
    2f77:	0f 84 20 03 00 00    	je     329d <parse_expression_precedence+0xa2d>
    2f7d:	4a                   	dec    %edx
    2f7e:	89 50 04             	mov    %edx,0x4(%eax)
    2f81:	85 d2                	test   %edx,%edx
    2f83:	75 06                	jne    2f8b <parse_expression_precedence+0x71b>
    2f85:	89 04 24             	mov    %eax,(%esp)
    2f88:	ff 51 04             	call   *0x4(%ecx)
    2f8b:	8b 06                	mov    (%esi),%eax
    2f8d:	85 c0                	test   %eax,%eax
    2f8f:	0f 84 4d fa ff ff    	je     29e2 <parse_expression_precedence+0x172>
    2f95:	8b 45 d0             	mov    -0x30(%ebp),%eax
    2f98:	85 c0                	test   %eax,%eax
    2f9a:	74 21                	je     2fbd <parse_expression_precedence+0x74d>
    2f9c:	8b 08                	mov    (%eax),%ecx
    2f9e:	85 c9                	test   %ecx,%ecx
    2fa0:	0f 84 f2 02 00 00    	je     3298 <parse_expression_precedence+0xa28>
    2fa6:	8b 50 04             	mov    0x4(%eax),%edx
    2fa9:	85 d2                	test   %edx,%edx
    2fab:	0f 84 ec 02 00 00    	je     329d <parse_expression_precedence+0xa2d>
    2fb1:	4a                   	dec    %edx
    2fb2:	89 50 04             	mov    %edx,0x4(%eax)
    2fb5:	85 d2                	test   %edx,%edx
    2fb7:	0f 84 3c 01 00 00    	je     30f9 <parse_expression_precedence+0x889>
    2fbd:	31 c0                	xor    %eax,%eax
    2fbf:	83 c4 5c             	add    $0x5c,%esp
    2fc2:	5b                   	pop    %ebx
    2fc3:	5e                   	pop    %esi
    2fc4:	5f                   	pop    %edi
    2fc5:	5d                   	pop    %ebp
    2fc6:	c3                   	ret    
    2fc7:	89 f0                	mov    %esi,%eax
    2fc9:	e8 d2 ef ff ff       	call   1fa0 <next_token>
    2fce:	8d 45 e4             	lea    -0x1c(%ebp),%eax
    2fd1:	c6 86 34 10 00 00 01 	movb   $0x1,0x1034(%esi)
    2fd8:	89 04 24             	mov    %eax,(%esp)
    2fdb:	e8 50 a7 00 00       	call   d730 <bithenge_in_node_expression>
    2fe0:	85 c0                	test   %eax,%eax
    2fe2:	0f 84 3e fa ff ff    	je     2a26 <parse_expression_precedence+0x1b6>
    2fe8:	e9 73 fa ff ff       	jmp    2a60 <parse_expression_precedence+0x1f0>
    2fed:	8b 16                	mov    (%esi),%edx
    2fef:	31 db                	xor    %ebx,%ebx
    2ff1:	85 d2                	test   %edx,%edx
    2ff3:	0f 85 07 f9 ff ff    	jne    2900 <parse_expression_precedence+0x90>
    2ff9:	ba 55 cf 02 00       	mov    $0x2cf55,%edx
    2ffe:	89 f0                	mov    %esi,%eax
    3000:	e8 9b ee ff ff       	call   1ea0 <syntax_error.part.2>
    3005:	8b 16                	mov    (%esi),%edx
    3007:	e9 f4 f8 ff ff       	jmp    2900 <parse_expression_precedence+0x90>
    300c:	8b 3e                	mov    (%esi),%edi
    300e:	c7 45 d0 00 00 00 00 	movl   $0x0,-0x30(%ebp)
    3015:	85 ff                	test   %edi,%edi
    3017:	0f 85 78 ff ff ff    	jne    2f95 <parse_expression_precedence+0x725>
    301d:	83 be 20 10 00 00 86 	cmpl   $0xffffff86,0x1020(%esi)
    3024:	0f 84 12 02 00 00    	je     323c <parse_expression_precedence+0x9cc>
    302a:	c7 86 20 10 00 00 80 	movl   $0xffffff80,0x1020(%esi)
    3031:	ff ff ff 
    3034:	89 06                	mov    %eax,(%esi)
    3036:	89 c2                	mov    %eax,%edx
    3038:	e9 67 f9 ff ff       	jmp    29a4 <parse_expression_precedence+0x134>
    303d:	8b 16                	mov    (%esi),%edx
    303f:	85 d2                	test   %edx,%edx
    3041:	75 1b                	jne    305e <parse_expression_precedence+0x7ee>
    3043:	83 be 20 10 00 00 86 	cmpl   $0xffffff86,0x1020(%esi)
    304a:	0f 84 2f 02 00 00    	je     327f <parse_expression_precedence+0xa0f>
    3050:	c7 86 20 10 00 00 80 	movl   $0xffffff80,0x1020(%esi)
    3057:	ff ff ff 
    305a:	89 06                	mov    %eax,(%esi)
    305c:	89 c2                	mov    %eax,%edx
    305e:	8b 45 d4             	mov    -0x2c(%ebp),%eax
    3061:	85 c0                	test   %eax,%eax
    3063:	0f 85 1a fd ff ff    	jne    2d83 <parse_expression_precedence+0x513>
    3069:	31 c9                	xor    %ecx,%ecx
    306b:	e9 2e f9 ff ff       	jmp    299e <parse_expression_precedence+0x12e>
    3070:	89 f0                	mov    %esi,%eax
    3072:	e8 29 ef ff ff       	call   1fa0 <next_token>
    3077:	83 be 20 10 00 00 86 	cmpl   $0xffffff86,0x1020(%esi)
    307e:	0f 85 91 00 00 00    	jne    3115 <parse_expression_precedence+0x8a5>
    3084:	8b 9e 24 10 00 00    	mov    0x1024(%esi),%ebx
    308a:	89 f0                	mov    %esi,%eax
    308c:	c7 86 24 10 00 00 00 	movl   $0x0,0x1024(%esi)
    3093:	00 00 00 
    3096:	e8 05 ef ff ff       	call   1fa0 <next_token>
    309b:	8b 06                	mov    (%esi),%eax
    309d:	c7 45 e0 00 00 00 00 	movl   $0x0,-0x20(%ebp)
    30a4:	c7 45 e4 00 00 00 00 	movl   $0x0,-0x1c(%ebp)
    30ab:	85 c0                	test   %eax,%eax
    30ad:	0f 84 bd 00 00 00    	je     3170 <parse_expression_precedence+0x900>
    30b3:	89 1c 24             	mov    %ebx,(%esp)
    30b6:	e8 25 d1 01 00       	call   201e0 <free>
    30bb:	8b 45 e0             	mov    -0x20(%ebp),%eax
    30be:	89 04 24             	mov    %eax,(%esp)
    30c1:	e8 fa 71 00 00       	call   a2c0 <bithenge_node_dec_ref>
    30c6:	8b 45 e4             	mov    -0x1c(%ebp),%eax
    30c9:	85 c0                	test   %eax,%eax
    30cb:	74 23                	je     30f0 <parse_expression_precedence+0x880>
    30cd:	8b 10                	mov    (%eax),%edx
    30cf:	85 d2                	test   %edx,%edx
    30d1:	0f 84 c1 01 00 00    	je     3298 <parse_expression_precedence+0xa28>
    30d7:	8b 48 04             	mov    0x4(%eax),%ecx
    30da:	85 c9                	test   %ecx,%ecx
    30dc:	0f 84 bb 01 00 00    	je     329d <parse_expression_precedence+0xa2d>
    30e2:	49                   	dec    %ecx
    30e3:	89 48 04             	mov    %ecx,0x4(%eax)
    30e6:	85 c9                	test   %ecx,%ecx
    30e8:	75 06                	jne    30f0 <parse_expression_precedence+0x880>
    30ea:	89 04 24             	mov    %eax,(%esp)
    30ed:	ff 52 04             	call   *0x4(%edx)
    30f0:	8b 16                	mov    (%esi),%edx
    30f2:	31 db                	xor    %ebx,%ebx
    30f4:	e9 07 f8 ff ff       	jmp    2900 <parse_expression_precedence+0x90>
    30f9:	89 04 24             	mov    %eax,(%esp)
    30fc:	ff 51 04             	call   *0x4(%ecx)
    30ff:	31 c0                	xor    %eax,%eax
    3101:	e9 b9 fe ff ff       	jmp    2fbf <parse_expression_precedence+0x74f>
    3106:	89 04 24             	mov    %eax,(%esp)
    3109:	ff 51 04             	call   *0x4(%ecx)
    310c:	8b 16                	mov    (%esi),%edx
    310e:	31 c9                	xor    %ecx,%ecx
    3110:	e9 89 f8 ff ff       	jmp    299e <parse_expression_precedence+0x12e>
    3115:	8b 16                	mov    (%esi),%edx
    3117:	85 d2                	test   %edx,%edx
    3119:	0f 84 08 01 00 00    	je     3227 <parse_expression_precedence+0x9b7>
    311f:	c7 45 e0 00 00 00 00 	movl   $0x0,-0x20(%ebp)
    3126:	c7 45 e4 00 00 00 00 	movl   $0x0,-0x1c(%ebp)
    312d:	31 db                	xor    %ebx,%ebx
    312f:	eb 82                	jmp    30b3 <parse_expression_precedence+0x843>
    3131:	8b 96 24 10 00 00    	mov    0x1024(%esi),%edx
    3137:	89 45 c0             	mov    %eax,-0x40(%ebp)
    313a:	89 14 24             	mov    %edx,(%esp)
    313d:	e8 9e d0 01 00       	call   201e0 <free>
    3142:	8b 45 c0             	mov    -0x40(%ebp),%eax
    3145:	e9 b8 f9 ff ff       	jmp    2b02 <parse_expression_precedence+0x292>
    314a:	8b 16                	mov    (%esi),%edx
    314c:	e9 4d f8 ff ff       	jmp    299e <parse_expression_precedence+0x12e>
    3151:	8b 16                	mov    (%esi),%edx
    3153:	31 db                	xor    %ebx,%ebx
    3155:	85 d2                	test   %edx,%edx
    3157:	0f 85 a3 f7 ff ff    	jne    2900 <parse_expression_precedence+0x90>
    315d:	ba 37 cf 02 00       	mov    $0x2cf37,%edx
    3162:	89 f0                	mov    %esi,%eax
    3164:	e8 37 ed ff ff       	call   1ea0 <syntax_error.part.2>
    3169:	8b 16                	mov    (%esi),%edx
    316b:	e9 90 f7 ff ff       	jmp    2900 <parse_expression_precedence+0x90>
    3170:	8d 45 e0             	lea    -0x20(%ebp),%eax
    3173:	89 5c 24 04          	mov    %ebx,0x4(%esp)
    3177:	c7 44 24 08 01 00 00 	movl   $0x1,0x8(%esp)
    317e:	00 
    317f:	89 04 24             	mov    %eax,(%esp)
    3182:	e8 69 78 00 00       	call   a9f0 <bithenge_new_string_node>
    3187:	89 c3                	mov    %eax,%ebx
    3189:	8b 06                	mov    (%esi),%eax
    318b:	85 c0                	test   %eax,%eax
    318d:	0f 85 8d 00 00 00    	jne    3220 <parse_expression_precedence+0x9b0>
    3193:	85 db                	test   %ebx,%ebx
    3195:	0f 85 ba 00 00 00    	jne    3255 <parse_expression_precedence+0x9e5>
    319b:	8b 45 e0             	mov    -0x20(%ebp),%eax
    319e:	89 44 24 04          	mov    %eax,0x4(%esp)
    31a2:	8d 45 e4             	lea    -0x1c(%ebp),%eax
    31a5:	89 04 24             	mov    %eax,(%esp)
    31a8:	e8 63 a6 00 00       	call   d810 <bithenge_scope_member_expression>
    31ad:	c7 45 e0 00 00 00 00 	movl   $0x0,-0x20(%ebp)
    31b4:	89 c7                	mov    %eax,%edi
    31b6:	85 c0                	test   %eax,%eax
    31b8:	75 29                	jne    31e3 <parse_expression_precedence+0x973>
    31ba:	8b 0e                	mov    (%esi),%ecx
    31bc:	85 c9                	test   %ecx,%ecx
    31be:	75 60                	jne    3220 <parse_expression_precedence+0x9b0>
    31c0:	8b 5d e4             	mov    -0x1c(%ebp),%ebx
    31c3:	31 d2                	xor    %edx,%edx
    31c5:	e9 36 f7 ff ff       	jmp    2900 <parse_expression_precedence+0x90>
    31ca:	8b 96 24 10 00 00    	mov    0x1024(%esi),%edx
    31d0:	89 45 c0             	mov    %eax,-0x40(%ebp)
    31d3:	89 14 24             	mov    %edx,(%esp)
    31d6:	e8 05 d0 01 00       	call   201e0 <free>
    31db:	8b 45 c0             	mov    -0x40(%ebp),%eax
    31de:	e9 96 f8 ff ff       	jmp    2a79 <parse_expression_precedence+0x209>
    31e3:	8b 06                	mov    (%esi),%eax
    31e5:	31 db                	xor    %ebx,%ebx
    31e7:	c7 45 e4 00 00 00 00 	movl   $0x0,-0x1c(%ebp)
    31ee:	85 c0                	test   %eax,%eax
    31f0:	0f 85 bd fe ff ff    	jne    30b3 <parse_expression_precedence+0x843>
    31f6:	83 be 20 10 00 00 86 	cmpl   $0xffffff86,0x1020(%esi)
    31fd:	75 0e                	jne    320d <parse_expression_precedence+0x99d>
    31ff:	8b 86 24 10 00 00    	mov    0x1024(%esi),%eax
    3205:	89 04 24             	mov    %eax,(%esp)
    3208:	e8 d3 cf 01 00       	call   201e0 <free>
    320d:	c7 86 20 10 00 00 80 	movl   $0xffffff80,0x1020(%esi)
    3214:	ff ff ff 
    3217:	89 3e                	mov    %edi,(%esi)
    3219:	31 db                	xor    %ebx,%ebx
    321b:	e9 93 fe ff ff       	jmp    30b3 <parse_expression_precedence+0x843>
    3220:	31 db                	xor    %ebx,%ebx
    3222:	e9 8c fe ff ff       	jmp    30b3 <parse_expression_precedence+0x843>
    3227:	89 f0                	mov    %esi,%eax
    3229:	ba c0 cf 02 00       	mov    $0x2cfc0,%edx
    322e:	e8 6d ec ff ff       	call   1ea0 <syntax_error.part.2>
    3233:	31 db                	xor    %ebx,%ebx
    3235:	8b 06                	mov    (%esi),%eax
    3237:	e9 61 fe ff ff       	jmp    309d <parse_expression_precedence+0x82d>
    323c:	8b 96 24 10 00 00    	mov    0x1024(%esi),%edx
    3242:	89 45 c0             	mov    %eax,-0x40(%ebp)
    3245:	89 14 24             	mov    %edx,(%esp)
    3248:	e8 93 cf 01 00       	call   201e0 <free>
    324d:	8b 45 c0             	mov    -0x40(%ebp),%eax
    3250:	e9 d5 fd ff ff       	jmp    302a <parse_expression_precedence+0x7ba>
    3255:	83 be 20 10 00 00 86 	cmpl   $0xffffff86,0x1020(%esi)
    325c:	75 0e                	jne    326c <parse_expression_precedence+0x9fc>
    325e:	8b 86 24 10 00 00    	mov    0x1024(%esi),%eax
    3264:	89 04 24             	mov    %eax,(%esp)
    3267:	e8 74 cf 01 00       	call   201e0 <free>
    326c:	89 1e                	mov    %ebx,(%esi)
    326e:	c7 86 20 10 00 00 80 	movl   $0xffffff80,0x1020(%esi)
    3275:	ff ff ff 
    3278:	31 db                	xor    %ebx,%ebx
    327a:	e9 34 fe ff ff       	jmp    30b3 <parse_expression_precedence+0x843>
    327f:	8b 96 24 10 00 00    	mov    0x1024(%esi),%edx
    3285:	89 45 c0             	mov    %eax,-0x40(%ebp)
    3288:	89 14 24             	mov    %edx,(%esp)
    328b:	e8 50 cf 01 00       	call   201e0 <free>
    3290:	8b 45 c0             	mov    -0x40(%ebp),%eax
    3293:	e9 b8 fd ff ff       	jmp    3050 <parse_expression_precedence+0x7e0>
    3298:	e8 3f 29 00 00       	call   5bdc <bithenge_expression_dec_ref.part.4>
    329d:	c7 44 24 08 4c 00 00 	movl   $0x4c,0x8(%esp)
    32a4:	00 
    32a5:	c7 44 24 04 ac ce 02 	movl   $0x2ceac,0x4(%esp)
    32ac:	00 
    32ad:	c7 04 24 c3 cc 02 00 	movl   $0x2ccc3,(%esp)
    32b4:	e8 f7 75 02 00       	call   2a8b0 <assert_abort>
    32b9:	8d b4 26 00 00 00 00 	lea    0x0(%esi,%eiz,1),%esi

000032c0 <parse_transform_no_compose>:
    32c0:	55                   	push   %ebp
    32c1:	89 e5                	mov    %esp,%ebp
    32c3:	57                   	push   %edi
    32c4:	56                   	push   %esi
    32c5:	53                   	push   %ebx
    32c6:	83 ec 6c             	sub    $0x6c,%esp
    32c9:	89 c6                	mov    %eax,%esi
    32cb:	8b 80 20 10 00 00    	mov    0x1020(%eax),%eax
    32d1:	83 f8 28             	cmp    $0x28,%eax
    32d4:	0f 84 6e 05 00 00    	je     3848 <parse_transform_no_compose+0x588>
    32da:	83 f8 8d             	cmp    $0xffffff8d,%eax
    32dd:	0f 84 2d 08 00 00    	je     3b10 <parse_transform_no_compose+0x850>
    32e3:	83 f8 86             	cmp    $0xffffff86,%eax
    32e6:	0f 84 f4 05 00 00    	je     38e0 <parse_transform_no_compose+0x620>
    32ec:	83 f8 90             	cmp    $0xffffff90,%eax
    32ef:	0f 84 93 06 00 00    	je     3988 <parse_transform_no_compose+0x6c8>
    32f5:	83 f8 92             	cmp    $0xffffff92,%eax
    32f8:	0f 84 b2 09 00 00    	je     3cb0 <parse_transform_no_compose+0x9f0>
    32fe:	83 f8 93             	cmp    $0xffffff93,%eax
    3301:	0f 84 39 0b 00 00    	je     3e40 <parse_transform_no_compose+0xb80>
    3307:	83 f8 94             	cmp    $0xffffff94,%eax
    330a:	0f 84 08 07 00 00    	je     3a18 <parse_transform_no_compose+0x758>
    3310:	83 f8 95             	cmp    $0xffffff95,%eax
    3313:	0f 85 8f 05 00 00    	jne    38a8 <parse_transform_no_compose+0x5e8>
    3319:	89 f0                	mov    %esi,%eax
    331b:	e8 80 ec ff ff       	call   1fa0 <next_token>
    3320:	83 be 20 10 00 00 28 	cmpl   $0x28,0x1020(%esi)
    3327:	0f 84 c3 02 00 00    	je     35f0 <parse_transform_no_compose+0x330>
    332d:	8b 0e                	mov    (%esi),%ecx
    332f:	85 c9                	test   %ecx,%ecx
    3331:	0f 84 a1 02 00 00    	je     35d8 <parse_transform_no_compose+0x318>
    3337:	31 d2                	xor    %edx,%edx
    3339:	89 f0                	mov    %esi,%eax
    333b:	e8 30 f5 ff ff       	call   2870 <parse_expression_precedence>
    3340:	89 45 b8             	mov    %eax,-0x48(%ebp)
    3343:	8b 86 20 10 00 00    	mov    0x1020(%esi),%eax
    3349:	83 f8 29             	cmp    $0x29,%eax
    334c:	0f 84 be 04 00 00    	je     3810 <parse_transform_no_compose+0x550>
    3352:	8b 16                	mov    (%esi),%edx
    3354:	85 d2                	test   %edx,%edx
    3356:	0f 84 64 02 00 00    	je     35c0 <parse_transform_no_compose+0x300>
    335c:	83 f8 7b             	cmp    $0x7b,%eax
    335f:	0f 84 c1 04 00 00    	je     3826 <parse_transform_no_compose+0x566>
    3365:	8b 3e                	mov    (%esi),%edi
    3367:	85 ff                	test   %edi,%edi
    3369:	0f 84 59 01 00 00    	je     34c8 <parse_transform_no_compose+0x208>
    336f:	31 db                	xor    %ebx,%ebx
    3371:	31 d2                	xor    %edx,%edx
    3373:	c7 45 b4 00 00 00 00 	movl   $0x0,-0x4c(%ebp)
    337a:	8b 45 b8             	mov    -0x48(%ebp),%eax
    337d:	85 c0                	test   %eax,%eax
    337f:	74 2e                	je     33af <parse_transform_no_compose+0xef>
    3381:	8b 45 b8             	mov    -0x48(%ebp),%eax
    3384:	8b 08                	mov    (%eax),%ecx
    3386:	85 c9                	test   %ecx,%ecx
    3388:	0f 84 f4 0e 00 00    	je     4282 <parse_transform_no_compose+0xfc2>
    338e:	89 c7                	mov    %eax,%edi
    3390:	8b 40 04             	mov    0x4(%eax),%eax
    3393:	85 c0                	test   %eax,%eax
    3395:	0f 84 cb 0e 00 00    	je     4266 <parse_transform_no_compose+0xfa6>
    339b:	48                   	dec    %eax
    339c:	89 47 04             	mov    %eax,0x4(%edi)
    339f:	85 c0                	test   %eax,%eax
    33a1:	75 0c                	jne    33af <parse_transform_no_compose+0xef>
    33a3:	89 55 b0             	mov    %edx,-0x50(%ebp)
    33a6:	89 3c 24             	mov    %edi,(%esp)
    33a9:	ff 51 04             	call   *0x4(%ecx)
    33ac:	8b 55 b0             	mov    -0x50(%ebp),%edx
    33af:	8b 3d 38 03 03 00    	mov    0x30338,%edi
    33b5:	c7 45 e4 34 03 03 00 	movl   $0x30334,-0x1c(%ebp)
    33bc:	47                   	inc    %edi
    33bd:	8b 06                	mov    (%esi),%eax
    33bf:	89 3d 38 03 03 00    	mov    %edi,0x30338
    33c5:	8d 7d e4             	lea    -0x1c(%ebp),%edi
    33c8:	85 c0                	test   %eax,%eax
    33ca:	75 44                	jne    3410 <parse_transform_no_compose+0x150>
    33cc:	85 db                	test   %ebx,%ebx
    33ce:	0f 84 aa 00 00 00    	je     347e <parse_transform_no_compose+0x1be>
    33d4:	4b                   	dec    %ebx
    33d5:	8b 45 e4             	mov    -0x1c(%ebp),%eax
    33d8:	89 44 24 0c          	mov    %eax,0xc(%esp)
    33dc:	8b 4d b4             	mov    -0x4c(%ebp),%ecx
    33df:	8b 04 9a             	mov    (%edx,%ebx,4),%eax
    33e2:	89 44 24 08          	mov    %eax,0x8(%esp)
    33e6:	8b 04 99             	mov    (%ecx,%ebx,4),%eax
    33e9:	89 3c 24             	mov    %edi,(%esp)
    33ec:	89 44 24 04          	mov    %eax,0x4(%esp)
    33f0:	89 55 b0             	mov    %edx,-0x50(%ebp)
    33f3:	e8 f8 8d 00 00       	call   c1f0 <bithenge_if_transform>
    33f8:	8b 55 b0             	mov    -0x50(%ebp),%edx
    33fb:	85 c0                	test   %eax,%eax
    33fd:	0f 85 2d 03 00 00    	jne    3730 <parse_transform_no_compose+0x470>
    3403:	8b 06                	mov    (%esi),%eax
    3405:	85 c0                	test   %eax,%eax
    3407:	74 c3                	je     33cc <parse_transform_no_compose+0x10c>
    3409:	8d b4 26 00 00 00 00 	lea    0x0(%esi,%eiz,1),%esi
    3410:	85 db                	test   %ebx,%ebx
    3412:	74 6a                	je     347e <parse_transform_no_compose+0x1be>
    3414:	89 75 c4             	mov    %esi,-0x3c(%ebp)
    3417:	89 d7                	mov    %edx,%edi
    3419:	8b 75 b4             	mov    -0x4c(%ebp),%esi
    341c:	8d 74 26 00          	lea    0x0(%esi,%eiz,1),%esi
    3420:	4b                   	dec    %ebx
    3421:	8b 04 9e             	mov    (%esi,%ebx,4),%eax
    3424:	85 c0                	test   %eax,%eax
    3426:	74 23                	je     344b <parse_transform_no_compose+0x18b>
    3428:	8b 08                	mov    (%eax),%ecx
    342a:	85 c9                	test   %ecx,%ecx
    342c:	0f 84 50 0e 00 00    	je     4282 <parse_transform_no_compose+0xfc2>
    3432:	8b 50 04             	mov    0x4(%eax),%edx
    3435:	85 d2                	test   %edx,%edx
    3437:	0f 84 29 0e 00 00    	je     4266 <parse_transform_no_compose+0xfa6>
    343d:	4a                   	dec    %edx
    343e:	89 50 04             	mov    %edx,0x4(%eax)
    3441:	85 d2                	test   %edx,%edx
    3443:	75 06                	jne    344b <parse_transform_no_compose+0x18b>
    3445:	89 04 24             	mov    %eax,(%esp)
    3448:	ff 51 04             	call   *0x4(%ecx)
    344b:	8b 04 9f             	mov    (%edi,%ebx,4),%eax
    344e:	85 c0                	test   %eax,%eax
    3450:	74 23                	je     3475 <parse_transform_no_compose+0x1b5>
    3452:	8b 08                	mov    (%eax),%ecx
    3454:	85 c9                	test   %ecx,%ecx
    3456:	0f 84 05 0e 00 00    	je     4261 <parse_transform_no_compose+0xfa1>
    345c:	8b 50 04             	mov    0x4(%eax),%edx
    345f:	85 d2                	test   %edx,%edx
    3461:	0f 84 c5 0d 00 00    	je     422c <parse_transform_no_compose+0xf6c>
    3467:	4a                   	dec    %edx
    3468:	89 50 04             	mov    %edx,0x4(%eax)
    346b:	85 d2                	test   %edx,%edx
    346d:	75 06                	jne    3475 <parse_transform_no_compose+0x1b5>
    346f:	89 04 24             	mov    %eax,(%esp)
    3472:	ff 51 0c             	call   *0xc(%ecx)
    3475:	85 db                	test   %ebx,%ebx
    3477:	75 a7                	jne    3420 <parse_transform_no_compose+0x160>
    3479:	89 fa                	mov    %edi,%edx
    347b:	8b 75 c4             	mov    -0x3c(%ebp),%esi
    347e:	8b 45 b4             	mov    -0x4c(%ebp),%eax
    3481:	89 55 b0             	mov    %edx,-0x50(%ebp)
    3484:	89 04 24             	mov    %eax,(%esp)
    3487:	e8 54 cd 01 00       	call   201e0 <free>
    348c:	8b 55 b0             	mov    -0x50(%ebp),%edx
    348f:	89 14 24             	mov    %edx,(%esp)
    3492:	e8 49 cd 01 00       	call   201e0 <free>
    3497:	83 be 20 10 00 00 7d 	cmpl   $0x7d,0x1020(%esi)
    349e:	0f 84 94 03 00 00    	je     3838 <parse_transform_no_compose+0x578>
    34a4:	8b 3e                	mov    (%esi),%edi
    34a6:	85 ff                	test   %edi,%edi
    34a8:	75 0c                	jne    34b6 <parse_transform_no_compose+0x1f6>
    34aa:	ba 4a cf 02 00       	mov    $0x2cf4a,%edx
    34af:	89 f0                	mov    %esi,%eax
    34b1:	e8 ea e9 ff ff       	call   1ea0 <syntax_error.part.2>
    34b6:	8b 4d e4             	mov    -0x1c(%ebp),%ecx
    34b9:	83 c4 6c             	add    $0x6c,%esp
    34bc:	89 c8                	mov    %ecx,%eax
    34be:	5b                   	pop    %ebx
    34bf:	5e                   	pop    %esi
    34c0:	5f                   	pop    %edi
    34c1:	5d                   	pop    %ebp
    34c2:	c3                   	ret    
    34c3:	90                   	nop
    34c4:	8d 74 26 00          	lea    0x0(%esi,%eiz,1),%esi
    34c8:	ba 4a cf 02 00       	mov    $0x2cf4a,%edx
    34cd:	89 f0                	mov    %esi,%eax
    34cf:	e8 cc e9 ff ff       	call   1ea0 <syntax_error.part.2>
    34d4:	8b 1e                	mov    (%esi),%ebx
    34d6:	85 db                	test   %ebx,%ebx
    34d8:	0f 85 91 fe ff ff    	jne    336f <parse_transform_no_compose+0xaf>
    34de:	8b 86 20 10 00 00    	mov    0x1020(%esi),%eax
    34e4:	83 f8 7d             	cmp    $0x7d,%eax
    34e7:	0f 84 82 fe ff ff    	je     336f <parse_transform_no_compose+0xaf>
    34ed:	89 c1                	mov    %eax,%ecx
    34ef:	31 db                	xor    %ebx,%ebx
    34f1:	c7 45 bc 00 00 00 00 	movl   $0x0,-0x44(%ebp)
    34f8:	c7 45 c0 00 00 00 00 	movl   $0x0,-0x40(%ebp)
    34ff:	83 f9 8e             	cmp    $0xffffff8e,%ecx
    3502:	0f 84 95 01 00 00    	je     369d <parse_transform_no_compose+0x3dd>
    3508:	31 d2                	xor    %edx,%edx
    350a:	89 f0                	mov    %esi,%eax
    350c:	e8 5f f3 ff ff       	call   2870 <parse_expression_precedence>
    3511:	8b 16                	mov    (%esi),%edx
    3513:	89 45 e0             	mov    %eax,-0x20(%ebp)
    3516:	85 d2                	test   %edx,%edx
    3518:	0f 84 42 02 00 00    	je     3760 <parse_transform_no_compose+0x4a0>
    351e:	83 be 20 10 00 00 3a 	cmpl   $0x3a,0x1020(%esi)
    3525:	0f 84 dd 01 00 00    	je     3708 <parse_transform_no_compose+0x448>
    352b:	8b 06                	mov    (%esi),%eax
    352d:	85 c0                	test   %eax,%eax
    352f:	75 0c                	jne    353d <parse_transform_no_compose+0x27d>
    3531:	ba 4a cf 02 00       	mov    $0x2cf4a,%edx
    3536:	89 f0                	mov    %esi,%eax
    3538:	e8 63 e9 ff ff       	call   1ea0 <syntax_error.part.2>
    353d:	89 f0                	mov    %esi,%eax
    353f:	e8 6c 0e 00 00       	call   43b0 <parse_transform>
    3544:	83 be 20 10 00 00 3b 	cmpl   $0x3b,0x1020(%esi)
    354b:	89 c7                	mov    %eax,%edi
    354d:	0f 84 ad 00 00 00    	je     3600 <parse_transform_no_compose+0x340>
    3553:	8b 06                	mov    (%esi),%eax
    3555:	85 c0                	test   %eax,%eax
    3557:	0f 84 bb 01 00 00    	je     3718 <parse_transform_no_compose+0x458>
    355d:	8b 45 e0             	mov    -0x20(%ebp),%eax
    3560:	85 c0                	test   %eax,%eax
    3562:	74 23                	je     3587 <parse_transform_no_compose+0x2c7>
    3564:	8b 08                	mov    (%eax),%ecx
    3566:	85 c9                	test   %ecx,%ecx
    3568:	0f 84 14 0d 00 00    	je     4282 <parse_transform_no_compose+0xfc2>
    356e:	8b 50 04             	mov    0x4(%eax),%edx
    3571:	85 d2                	test   %edx,%edx
    3573:	0f 84 ed 0c 00 00    	je     4266 <parse_transform_no_compose+0xfa6>
    3579:	4a                   	dec    %edx
    357a:	89 50 04             	mov    %edx,0x4(%eax)
    357d:	85 d2                	test   %edx,%edx
    357f:	75 06                	jne    3587 <parse_transform_no_compose+0x2c7>
    3581:	89 04 24             	mov    %eax,(%esp)
    3584:	ff 51 04             	call   *0x4(%ecx)
    3587:	85 ff                	test   %edi,%edi
    3589:	0f 84 65 01 00 00    	je     36f4 <parse_transform_no_compose+0x434>
    358f:	8b 17                	mov    (%edi),%edx
    3591:	85 d2                	test   %edx,%edx
    3593:	0f 84 c8 0c 00 00    	je     4261 <parse_transform_no_compose+0xfa1>
    3599:	8b 47 04             	mov    0x4(%edi),%eax
    359c:	85 c0                	test   %eax,%eax
    359e:	0f 84 88 0c 00 00    	je     422c <parse_transform_no_compose+0xf6c>
    35a4:	48                   	dec    %eax
    35a5:	89 47 04             	mov    %eax,0x4(%edi)
    35a8:	85 c0                	test   %eax,%eax
    35aa:	0f 84 38 05 00 00    	je     3ae8 <parse_transform_no_compose+0x828>
    35b0:	8b 7d c0             	mov    -0x40(%ebp),%edi
    35b3:	8b 55 bc             	mov    -0x44(%ebp),%edx
    35b6:	89 7d b4             	mov    %edi,-0x4c(%ebp)
    35b9:	e9 bc fd ff ff       	jmp    337a <parse_transform_no_compose+0xba>
    35be:	66 90                	xchg   %ax,%ax
    35c0:	89 f0                	mov    %esi,%eax
    35c2:	ba 4a cf 02 00       	mov    $0x2cf4a,%edx
    35c7:	e8 d4 e8 ff ff       	call   1ea0 <syntax_error.part.2>
    35cc:	8b 86 20 10 00 00    	mov    0x1020(%esi),%eax
    35d2:	e9 85 fd ff ff       	jmp    335c <parse_transform_no_compose+0x9c>
    35d7:	90                   	nop
    35d8:	ba 4a cf 02 00       	mov    $0x2cf4a,%edx
    35dd:	89 f0                	mov    %esi,%eax
    35df:	e8 bc e8 ff ff       	call   1ea0 <syntax_error.part.2>
    35e4:	e9 4e fd ff ff       	jmp    3337 <parse_transform_no_compose+0x77>
    35e9:	8d b4 26 00 00 00 00 	lea    0x0(%esi,%eiz,1),%esi
    35f0:	89 f0                	mov    %esi,%eax
    35f2:	e8 a9 e9 ff ff       	call   1fa0 <next_token>
    35f7:	e9 3b fd ff ff       	jmp    3337 <parse_transform_no_compose+0x77>
    35fc:	8d 74 26 00          	lea    0x0(%esi,%eiz,1),%esi
    3600:	89 f0                	mov    %esi,%eax
    3602:	e8 99 e9 ff ff       	call   1fa0 <next_token>
    3607:	8b 06                	mov    (%esi),%eax
    3609:	85 c0                	test   %eax,%eax
    360b:	0f 85 4c ff ff ff    	jne    355d <parse_transform_no_compose+0x29d>
    3611:	8d 53 01             	lea    0x1(%ebx),%edx
    3614:	8b 45 c0             	mov    -0x40(%ebp),%eax
    3617:	89 d1                	mov    %edx,%ecx
    3619:	89 04 24             	mov    %eax,(%esp)
    361c:	c1 e1 02             	shl    $0x2,%ecx
    361f:	89 55 a8             	mov    %edx,-0x58(%ebp)
    3622:	89 4c 24 04          	mov    %ecx,0x4(%esp)
    3626:	89 4d b0             	mov    %ecx,-0x50(%ebp)
    3629:	e8 02 ce 01 00       	call   20430 <realloc>
    362e:	8b 4d b0             	mov    -0x50(%ebp),%ecx
    3631:	89 c2                	mov    %eax,%edx
    3633:	85 c0                	test   %eax,%eax
    3635:	0f 84 a5 01 00 00    	je     37e0 <parse_transform_no_compose+0x520>
    363b:	8b 06                	mov    (%esi),%eax
    363d:	85 c0                	test   %eax,%eax
    363f:	0f 85 0a 0d 00 00    	jne    434f <parse_transform_no_compose+0x108f>
    3645:	89 4c 24 04          	mov    %ecx,0x4(%esp)
    3649:	8b 4d bc             	mov    -0x44(%ebp),%ecx
    364c:	89 0c 24             	mov    %ecx,(%esp)
    364f:	89 55 b0             	mov    %edx,-0x50(%ebp)
    3652:	e8 d9 cd 01 00       	call   20430 <realloc>
    3657:	8b 55 b0             	mov    -0x50(%ebp),%edx
    365a:	85 c0                	test   %eax,%eax
    365c:	0f 84 46 01 00 00    	je     37a8 <parse_transform_no_compose+0x4e8>
    3662:	8b 0e                	mov    (%esi),%ecx
    3664:	85 c9                	test   %ecx,%ecx
    3666:	0f 85 d8 0c 00 00    	jne    4344 <parse_transform_no_compose+0x1084>
    366c:	8d 0c 9d 00 00 00 00 	lea    0x0(,%ebx,4),%ecx
    3673:	8b 5d e0             	mov    -0x20(%ebp),%ebx
    3676:	89 1c 0a             	mov    %ebx,(%edx,%ecx,1)
    3679:	89 3c 08             	mov    %edi,(%eax,%ecx,1)
    367c:	8b 8e 20 10 00 00    	mov    0x1020(%esi),%ecx
    3682:	83 f9 7d             	cmp    $0x7d,%ecx
    3685:	0f 84 45 02 00 00    	je     38d0 <parse_transform_no_compose+0x610>
    368b:	89 45 bc             	mov    %eax,-0x44(%ebp)
    368e:	89 55 c0             	mov    %edx,-0x40(%ebp)
    3691:	8b 5d a8             	mov    -0x58(%ebp),%ebx
    3694:	83 f9 8e             	cmp    $0xffffff8e,%ecx
    3697:	0f 85 6b fe ff ff    	jne    3508 <parse_transform_no_compose+0x248>
    369d:	89 f0                	mov    %esi,%eax
    369f:	8d 7d e4             	lea    -0x1c(%ebp),%edi
    36a2:	e8 f9 e8 ff ff       	call   1fa0 <next_token>
    36a7:	c7 44 24 04 01 00 00 	movl   $0x1,0x4(%esp)
    36ae:	00 
    36af:	89 3c 24             	mov    %edi,(%esp)
    36b2:	e8 79 72 00 00       	call   a930 <bithenge_new_boolean_node>
    36b7:	85 c0                	test   %eax,%eax
    36b9:	75 1a                	jne    36d5 <parse_transform_no_compose+0x415>
    36bb:	8b 45 e4             	mov    -0x1c(%ebp),%eax
    36be:	89 44 24 04          	mov    %eax,0x4(%esp)
    36c2:	8d 45 e0             	lea    -0x20(%ebp),%eax
    36c5:	89 04 24             	mov    %eax,(%esp)
    36c8:	e8 e3 a0 00 00       	call   d7b0 <bithenge_const_expression>
    36cd:	85 c0                	test   %eax,%eax
    36cf:	0f 84 49 fe ff ff    	je     351e <parse_transform_no_compose+0x25e>
    36d5:	8b 0e                	mov    (%esi),%ecx
    36d7:	85 c9                	test   %ecx,%ecx
    36d9:	75 19                	jne    36f4 <parse_transform_no_compose+0x434>
    36db:	83 be 20 10 00 00 86 	cmpl   $0xffffff86,0x1020(%esi)
    36e2:	0f 84 e0 0a 00 00    	je     41c8 <parse_transform_no_compose+0xf08>
    36e8:	c7 86 20 10 00 00 80 	movl   $0xffffff80,0x1020(%esi)
    36ef:	ff ff ff 
    36f2:	89 06                	mov    %eax,(%esi)
    36f4:	8b 4d c0             	mov    -0x40(%ebp),%ecx
    36f7:	8b 55 bc             	mov    -0x44(%ebp),%edx
    36fa:	89 4d b4             	mov    %ecx,-0x4c(%ebp)
    36fd:	e9 78 fc ff ff       	jmp    337a <parse_transform_no_compose+0xba>
    3702:	8d b6 00 00 00 00    	lea    0x0(%esi),%esi
    3708:	89 f0                	mov    %esi,%eax
    370a:	e8 91 e8 ff ff       	call   1fa0 <next_token>
    370f:	e9 29 fe ff ff       	jmp    353d <parse_transform_no_compose+0x27d>
    3714:	8d 74 26 00          	lea    0x0(%esi,%eiz,1),%esi
    3718:	ba 4a cf 02 00       	mov    $0x2cf4a,%edx
    371d:	89 f0                	mov    %esi,%eax
    371f:	e8 7c e7 ff ff       	call   1ea0 <syntax_error.part.2>
    3724:	e9 de fe ff ff       	jmp    3607 <parse_transform_no_compose+0x347>
    3729:	8d b4 26 00 00 00 00 	lea    0x0(%esi,%eiz,1),%esi
    3730:	8b 0e                	mov    (%esi),%ecx
    3732:	c7 45 e4 00 00 00 00 	movl   $0x0,-0x1c(%ebp)
    3739:	85 c9                	test   %ecx,%ecx
    373b:	0f 85 cf fc ff ff    	jne    3410 <parse_transform_no_compose+0x150>
    3741:	83 be 20 10 00 00 86 	cmpl   $0xffffff86,0x1020(%esi)
    3748:	0f 84 4a 02 00 00    	je     3998 <parse_transform_no_compose+0x6d8>
    374e:	c7 86 20 10 00 00 80 	movl   $0xffffff80,0x1020(%esi)
    3755:	ff ff ff 
    3758:	89 06                	mov    %eax,(%esi)
    375a:	e9 69 fc ff ff       	jmp    33c8 <parse_transform_no_compose+0x108>
    375f:	90                   	nop
    3760:	8b 7d b8             	mov    -0x48(%ebp),%edi
    3763:	85 ff                	test   %edi,%edi
    3765:	0f 84 57 0b 00 00    	je     42c2 <parse_transform_no_compose+0x1002>
    376b:	8b 7d b8             	mov    -0x48(%ebp),%edi
    376e:	8b 4f 04             	mov    0x4(%edi),%ecx
    3771:	41                   	inc    %ecx
    3772:	89 4f 04             	mov    %ecx,0x4(%edi)
    3775:	89 44 24 0c          	mov    %eax,0xc(%esp)
    3779:	8d 45 e0             	lea    -0x20(%ebp),%eax
    377c:	89 7c 24 08          	mov    %edi,0x8(%esp)
    3780:	c7 44 24 04 0a 00 00 	movl   $0xa,0x4(%esp)
    3787:	00 
    3788:	89 04 24             	mov    %eax,(%esp)
    378b:	e8 d0 9e 00 00       	call   d660 <bithenge_binary_expression>
    3790:	85 c0                	test   %eax,%eax
    3792:	0f 84 86 fd ff ff    	je     351e <parse_transform_no_compose+0x25e>
    3798:	8b 16                	mov    (%esi),%edx
    379a:	85 d2                	test   %edx,%edx
    379c:	0f 84 39 ff ff ff    	je     36db <parse_transform_no_compose+0x41b>
    37a2:	e9 09 fe ff ff       	jmp    35b0 <parse_transform_no_compose+0x2f0>
    37a7:	90                   	nop
    37a8:	8b 06                	mov    (%esi),%eax
    37aa:	89 55 b4             	mov    %edx,-0x4c(%ebp)
    37ad:	85 c0                	test   %eax,%eax
    37af:	75 1d                	jne    37ce <parse_transform_no_compose+0x50e>
    37b1:	83 be 20 10 00 00 86 	cmpl   $0xffffff86,0x1020(%esi)
    37b8:	0f 84 cb 04 00 00    	je     3c89 <parse_transform_no_compose+0x9c9>
    37be:	c7 86 20 10 00 00 80 	movl   $0xffffff80,0x1020(%esi)
    37c5:	ff ff ff 
    37c8:	c7 06 fe ff ff ff    	movl   $0xfffffffe,(%esi)
    37ce:	8b 45 b4             	mov    -0x4c(%ebp),%eax
    37d1:	89 45 c0             	mov    %eax,-0x40(%ebp)
    37d4:	e9 84 fd ff ff       	jmp    355d <parse_transform_no_compose+0x29d>
    37d9:	8d b4 26 00 00 00 00 	lea    0x0(%esi,%eiz,1),%esi
    37e0:	8b 06                	mov    (%esi),%eax
    37e2:	85 c0                	test   %eax,%eax
    37e4:	0f 85 73 fd ff ff    	jne    355d <parse_transform_no_compose+0x29d>
    37ea:	83 be 20 10 00 00 86 	cmpl   $0xffffff86,0x1020(%esi)
    37f1:	0f 84 a5 04 00 00    	je     3c9c <parse_transform_no_compose+0x9dc>
    37f7:	c7 86 20 10 00 00 80 	movl   $0xffffff80,0x1020(%esi)
    37fe:	ff ff ff 
    3801:	c7 06 fe ff ff ff    	movl   $0xfffffffe,(%esi)
    3807:	e9 51 fd ff ff       	jmp    355d <parse_transform_no_compose+0x29d>
    380c:	8d 74 26 00          	lea    0x0(%esi,%eiz,1),%esi
    3810:	89 f0                	mov    %esi,%eax
    3812:	e8 89 e7 ff ff       	call   1fa0 <next_token>
    3817:	8b 86 20 10 00 00    	mov    0x1020(%esi),%eax
    381d:	83 f8 7b             	cmp    $0x7b,%eax
    3820:	0f 85 3f fb ff ff    	jne    3365 <parse_transform_no_compose+0xa5>
    3826:	89 f0                	mov    %esi,%eax
    3828:	e8 73 e7 ff ff       	call   1fa0 <next_token>
    382d:	e9 a2 fc ff ff       	jmp    34d4 <parse_transform_no_compose+0x214>
    3832:	8d b6 00 00 00 00    	lea    0x0(%esi),%esi
    3838:	89 f0                	mov    %esi,%eax
    383a:	e8 61 e7 ff ff       	call   1fa0 <next_token>
    383f:	e9 72 fc ff ff       	jmp    34b6 <parse_transform_no_compose+0x1f6>
    3844:	8d 74 26 00          	lea    0x0(%esi,%eiz,1),%esi
    3848:	89 f0                	mov    %esi,%eax
    384a:	e8 51 e7 ff ff       	call   1fa0 <next_token>
    384f:	31 d2                	xor    %edx,%edx
    3851:	c6 86 34 10 00 00 00 	movb   $0x0,0x1034(%esi)
    3858:	89 f0                	mov    %esi,%eax
    385a:	e8 11 f0 ff ff       	call   2870 <parse_expression_precedence>
    385f:	83 be 20 10 00 00 29 	cmpl   $0x29,0x1020(%esi)
    3866:	89 c3                	mov    %eax,%ebx
    3868:	0f 84 4a 01 00 00    	je     39b8 <parse_transform_no_compose+0x6f8>
    386e:	8b 16                	mov    (%esi),%edx
    3870:	85 d2                	test   %edx,%edx
    3872:	0f 84 84 02 00 00    	je     3afc <parse_transform_no_compose+0x83c>
    3878:	85 db                	test   %ebx,%ebx
    387a:	74 24                	je     38a0 <parse_transform_no_compose+0x5e0>
    387c:	8b 13                	mov    (%ebx),%edx
    387e:	85 d2                	test   %edx,%edx
    3880:	0f 84 fc 09 00 00    	je     4282 <parse_transform_no_compose+0xfc2>
    3886:	8b 43 04             	mov    0x4(%ebx),%eax
    3889:	85 c0                	test   %eax,%eax
    388b:	0f 84 d5 09 00 00    	je     4266 <parse_transform_no_compose+0xfa6>
    3891:	48                   	dec    %eax
    3892:	89 43 04             	mov    %eax,0x4(%ebx)
    3895:	85 c0                	test   %eax,%eax
    3897:	75 07                	jne    38a0 <parse_transform_no_compose+0x5e0>
    3899:	89 1c 24             	mov    %ebx,(%esp)
    389c:	ff 52 04             	call   *0x4(%edx)
    389f:	90                   	nop
    38a0:	31 c9                	xor    %ecx,%ecx
    38a2:	e9 12 fc ff ff       	jmp    34b9 <parse_transform_no_compose+0x1f9>
    38a7:	90                   	nop
    38a8:	8b 1e                	mov    (%esi),%ebx
    38aa:	31 c9                	xor    %ecx,%ecx
    38ac:	85 db                	test   %ebx,%ebx
    38ae:	0f 85 05 fc ff ff    	jne    34b9 <parse_transform_no_compose+0x1f9>
    38b4:	ba 0c d0 02 00       	mov    $0x2d00c,%edx
    38b9:	89 f0                	mov    %esi,%eax
    38bb:	89 4d b0             	mov    %ecx,-0x50(%ebp)
    38be:	e8 dd e5 ff ff       	call   1ea0 <syntax_error.part.2>
    38c3:	8b 4d b0             	mov    -0x50(%ebp),%ecx
    38c6:	e9 ee fb ff ff       	jmp    34b9 <parse_transform_no_compose+0x1f9>
    38cb:	90                   	nop
    38cc:	8d 74 26 00          	lea    0x0(%esi,%eiz,1),%esi
    38d0:	89 55 b4             	mov    %edx,-0x4c(%ebp)
    38d3:	8b 5d a8             	mov    -0x58(%ebp),%ebx
    38d6:	89 c2                	mov    %eax,%edx
    38d8:	e9 9d fa ff ff       	jmp    337a <parse_transform_no_compose+0xba>
    38dd:	8d 76 00             	lea    0x0(%esi),%esi
    38e0:	8b 96 24 10 00 00    	mov    0x1024(%esi),%edx
    38e6:	8b 5e 04             	mov    0x4(%esi),%ebx
    38e9:	89 55 c4             	mov    %edx,-0x3c(%ebp)
    38ec:	89 d7                	mov    %edx,%edi
    38ee:	85 db                	test   %ebx,%ebx
    38f0:	75 11                	jne    3903 <parse_transform_no_compose+0x643>
    38f2:	e9 8b 01 00 00       	jmp    3a82 <parse_transform_no_compose+0x7c2>
    38f7:	90                   	nop
    38f8:	8b 5b 08             	mov    0x8(%ebx),%ebx
    38fb:	85 db                	test   %ebx,%ebx
    38fd:	0f 84 7f 01 00 00    	je     3a82 <parse_transform_no_compose+0x7c2>
    3903:	89 7c 24 04          	mov    %edi,0x4(%esp)
    3907:	8b 03                	mov    (%ebx),%eax
    3909:	89 04 24             	mov    %eax,(%esp)
    390c:	e8 0f 0c 01 00       	call   14520 <str_cmp>
    3911:	85 c0                	test   %eax,%eax
    3913:	75 e3                	jne    38f8 <parse_transform_no_compose+0x638>
    3915:	8b 43 04             	mov    0x4(%ebx),%eax
    3918:	85 c0                	test   %eax,%eax
    391a:	0f 84 c3 01 00 00    	je     3ae3 <parse_transform_no_compose+0x823>
    3920:	8b 50 04             	mov    0x4(%eax),%edx
    3923:	42                   	inc    %edx
    3924:	89 50 04             	mov    %edx,0x4(%eax)
    3927:	89 45 d0             	mov    %eax,-0x30(%ebp)
    392a:	89 f0                	mov    %esi,%eax
    392c:	e8 6f e6 ff ff       	call   1fa0 <next_token>
    3931:	83 be 20 10 00 00 28 	cmpl   $0x28,0x1020(%esi)
    3938:	0f 84 a2 06 00 00    	je     3fe0 <parse_transform_no_compose+0xd20>
    393e:	31 db                	xor    %ebx,%ebx
    3940:	31 ff                	xor    %edi,%edi
    3942:	8b 06                	mov    (%esi),%eax
    3944:	85 c0                	test   %eax,%eax
    3946:	0f 84 99 04 00 00    	je     3de5 <parse_transform_no_compose+0xb25>
    394c:	4b                   	dec    %ebx
    394d:	83 fb ff             	cmp    $0xffffffff,%ebx
    3950:	0f 84 bd 07 00 00    	je     4113 <parse_transform_no_compose+0xe53>
    3956:	8b 04 9f             	mov    (%edi,%ebx,4),%eax
    3959:	85 c0                	test   %eax,%eax
    395b:	74 ef                	je     394c <parse_transform_no_compose+0x68c>
    395d:	8b 08                	mov    (%eax),%ecx
    395f:	85 c9                	test   %ecx,%ecx
    3961:	0f 84 1b 09 00 00    	je     4282 <parse_transform_no_compose+0xfc2>
    3967:	8b 50 04             	mov    0x4(%eax),%edx
    396a:	85 d2                	test   %edx,%edx
    396c:	0f 84 f4 08 00 00    	je     4266 <parse_transform_no_compose+0xfa6>
    3972:	4a                   	dec    %edx
    3973:	89 50 04             	mov    %edx,0x4(%eax)
    3976:	85 d2                	test   %edx,%edx
    3978:	75 d2                	jne    394c <parse_transform_no_compose+0x68c>
    397a:	89 04 24             	mov    %eax,(%esp)
    397d:	ff 51 04             	call   *0x4(%ecx)
    3980:	eb ca                	jmp    394c <parse_transform_no_compose+0x68c>
    3982:	8d b6 00 00 00 00    	lea    0x0(%esi),%esi
    3988:	31 d2                	xor    %edx,%edx
    398a:	89 f0                	mov    %esi,%eax
    398c:	e8 3f 16 00 00       	call   4fd0 <parse_if>
    3991:	89 c1                	mov    %eax,%ecx
    3993:	e9 21 fb ff ff       	jmp    34b9 <parse_transform_no_compose+0x1f9>
    3998:	8b 8e 24 10 00 00    	mov    0x1024(%esi),%ecx
    399e:	89 45 ac             	mov    %eax,-0x54(%ebp)
    39a1:	89 0c 24             	mov    %ecx,(%esp)
    39a4:	89 55 b0             	mov    %edx,-0x50(%ebp)
    39a7:	e8 34 c8 01 00       	call   201e0 <free>
    39ac:	8b 55 b0             	mov    -0x50(%ebp),%edx
    39af:	8b 45 ac             	mov    -0x54(%ebp),%eax
    39b2:	e9 97 fd ff ff       	jmp    374e <parse_transform_no_compose+0x48e>
    39b7:	90                   	nop
    39b8:	89 f0                	mov    %esi,%eax
    39ba:	e8 e1 e5 ff ff       	call   1fa0 <next_token>
    39bf:	8b 06                	mov    (%esi),%eax
    39c1:	85 c0                	test   %eax,%eax
    39c3:	0f 85 af fe ff ff    	jne    3878 <parse_transform_no_compose+0x5b8>
    39c9:	8d 45 e4             	lea    -0x1c(%ebp),%eax
    39cc:	80 be 34 10 00 00 00 	cmpb   $0x0,0x1034(%esi)
    39d3:	89 5c 24 04          	mov    %ebx,0x4(%esp)
    39d7:	89 04 24             	mov    %eax,(%esp)
    39da:	0f 85 98 00 00 00    	jne    3a78 <parse_transform_no_compose+0x7b8>
    39e0:	e8 bb a1 00 00       	call   dba0 <bithenge_inputless_transform>
    39e5:	85 c0                	test   %eax,%eax
    39e7:	0f 84 c9 fa ff ff    	je     34b6 <parse_transform_no_compose+0x1f6>
    39ed:	8b 16                	mov    (%esi),%edx
    39ef:	85 d2                	test   %edx,%edx
    39f1:	0f 85 a9 fe ff ff    	jne    38a0 <parse_transform_no_compose+0x5e0>
    39f7:	83 be 20 10 00 00 86 	cmpl   $0xffffff86,0x1020(%esi)
    39fe:	0f 84 44 08 00 00    	je     4248 <parse_transform_no_compose+0xf88>
    3a04:	c7 86 20 10 00 00 80 	movl   $0xffffff80,0x1020(%esi)
    3a0b:	ff ff ff 
    3a0e:	89 06                	mov    %eax,(%esi)
    3a10:	31 c9                	xor    %ecx,%ecx
    3a12:	e9 a2 fa ff ff       	jmp    34b9 <parse_transform_no_compose+0x1f9>
    3a17:	90                   	nop
    3a18:	89 f0                	mov    %esi,%eax
    3a1a:	e8 81 e5 ff ff       	call   1fa0 <next_token>
    3a1f:	83 be 20 10 00 00 7b 	cmpl   $0x7b,0x1020(%esi)
    3a26:	0f 84 f2 04 00 00    	je     3f1e <parse_transform_no_compose+0xc5e>
    3a2c:	8b 3e                	mov    (%esi),%edi
    3a2e:	85 ff                	test   %edi,%edi
    3a30:	75 0c                	jne    3a3e <parse_transform_no_compose+0x77e>
    3a32:	ba 4a cf 02 00       	mov    $0x2cf4a,%edx
    3a37:	89 f0                	mov    %esi,%eax
    3a39:	e8 62 e4 ff ff       	call   1ea0 <syntax_error.part.2>
    3a3e:	89 f0                	mov    %esi,%eax
    3a40:	e8 9b 0b 00 00       	call   45e0 <parse_struct>
    3a45:	83 be 20 10 00 00 7d 	cmpl   $0x7d,0x1020(%esi)
    3a4c:	89 c1                	mov    %eax,%ecx
    3a4e:	0f 84 b8 04 00 00    	je     3f0c <parse_transform_no_compose+0xc4c>
    3a54:	8b 1e                	mov    (%esi),%ebx
    3a56:	85 db                	test   %ebx,%ebx
    3a58:	0f 85 5b fa ff ff    	jne    34b9 <parse_transform_no_compose+0x1f9>
    3a5e:	ba 4a cf 02 00       	mov    $0x2cf4a,%edx
    3a63:	89 f0                	mov    %esi,%eax
    3a65:	89 4d b0             	mov    %ecx,-0x50(%ebp)
    3a68:	e8 33 e4 ff ff       	call   1ea0 <syntax_error.part.2>
    3a6d:	8b 4d b0             	mov    -0x50(%ebp),%ecx
    3a70:	e9 44 fa ff ff       	jmp    34b9 <parse_transform_no_compose+0x1f9>
    3a75:	8d 76 00             	lea    0x0(%esi),%esi
    3a78:	e8 63 a0 00 00       	call   dae0 <bithenge_expression_transform>
    3a7d:	e9 63 ff ff ff       	jmp    39e5 <parse_transform_no_compose+0x725>
    3a82:	a1 a0 02 03 00       	mov    0x302a0,%eax
    3a87:	31 db                	xor    %ebx,%ebx
    3a89:	bf 08 00 00 00       	mov    $0x8,%edi
    3a8e:	8b 00                	mov    (%eax),%eax
    3a90:	85 c0                	test   %eax,%eax
    3a92:	0f 84 52 04 00 00    	je     3eea <parse_transform_no_compose+0xc2a>
    3a98:	89 75 c0             	mov    %esi,-0x40(%ebp)
    3a9b:	89 fe                	mov    %edi,%esi
    3a9d:	8b 7d c4             	mov    -0x3c(%ebp),%edi
    3aa0:	eb 1d                	jmp    3abf <parse_transform_no_compose+0x7ff>
    3aa2:	8d b6 00 00 00 00    	lea    0x0(%esi),%esi
    3aa8:	a1 a0 02 03 00       	mov    0x302a0,%eax
    3aad:	8d 4e 08             	lea    0x8(%esi),%ecx
    3ab0:	89 f3                	mov    %esi,%ebx
    3ab2:	8b 04 30             	mov    (%eax,%esi,1),%eax
    3ab5:	85 c0                	test   %eax,%eax
    3ab7:	0f 84 2a 04 00 00    	je     3ee7 <parse_transform_no_compose+0xc27>
    3abd:	89 ce                	mov    %ecx,%esi
    3abf:	89 7c 24 04          	mov    %edi,0x4(%esp)
    3ac3:	89 04 24             	mov    %eax,(%esp)
    3ac6:	e8 55 0a 01 00       	call   14520 <str_cmp>
    3acb:	85 c0                	test   %eax,%eax
    3acd:	75 d9                	jne    3aa8 <parse_transform_no_compose+0x7e8>
    3acf:	a1 a0 02 03 00       	mov    0x302a0,%eax
    3ad4:	8b 75 c0             	mov    -0x40(%ebp),%esi
    3ad7:	8b 44 18 04          	mov    0x4(%eax,%ebx,1),%eax
    3adb:	85 c0                	test   %eax,%eax
    3add:	0f 85 3d fe ff ff    	jne    3920 <parse_transform_no_compose+0x660>
    3ae3:	e8 16 21 00 00       	call   5bfe <bithenge_transform_inc_ref.part.5>
    3ae8:	89 3c 24             	mov    %edi,(%esp)
    3aeb:	ff 52 0c             	call   *0xc(%edx)
    3aee:	8b 4d c0             	mov    -0x40(%ebp),%ecx
    3af1:	8b 55 bc             	mov    -0x44(%ebp),%edx
    3af4:	89 4d b4             	mov    %ecx,-0x4c(%ebp)
    3af7:	e9 7e f8 ff ff       	jmp    337a <parse_transform_no_compose+0xba>
    3afc:	ba 4a cf 02 00       	mov    $0x2cf4a,%edx
    3b01:	89 f0                	mov    %esi,%eax
    3b03:	e8 98 e3 ff ff       	call   1ea0 <syntax_error.part.2>
    3b08:	e9 b2 fe ff ff       	jmp    39bf <parse_transform_no_compose+0x6ff>
    3b0d:	8d 76 00             	lea    0x0(%esi),%esi
    3b10:	89 f0                	mov    %esi,%eax
    3b12:	e8 89 e4 ff ff       	call   1fa0 <next_token>
    3b17:	83 be 20 10 00 00 7b 	cmpl   $0x7b,0x1020(%esi)
    3b1e:	0f 84 59 01 00 00    	je     3c7d <parse_transform_no_compose+0x9bd>
    3b24:	8b 06                	mov    (%esi),%eax
    3b26:	85 c0                	test   %eax,%eax
    3b28:	75 0c                	jne    3b36 <parse_transform_no_compose+0x876>
    3b2a:	ba 4a cf 02 00       	mov    $0x2cf4a,%edx
    3b2f:	89 f0                	mov    %esi,%eax
    3b31:	e8 6a e3 ff ff       	call   1ea0 <syntax_error.part.2>
    3b36:	89 f0                	mov    %esi,%eax
    3b38:	e8 73 08 00 00       	call   43b0 <parse_transform>
    3b3d:	8b 96 20 10 00 00    	mov    0x1020(%esi),%edx
    3b43:	89 c3                	mov    %eax,%ebx
    3b45:	83 fa 7d             	cmp    $0x7d,%edx
    3b48:	0f 84 1d 01 00 00    	je     3c6b <parse_transform_no_compose+0x9ab>
    3b4e:	8b 06                	mov    (%esi),%eax
    3b50:	85 c0                	test   %eax,%eax
    3b52:	75 12                	jne    3b66 <parse_transform_no_compose+0x8a6>
    3b54:	ba 4a cf 02 00       	mov    $0x2cf4a,%edx
    3b59:	89 f0                	mov    %esi,%eax
    3b5b:	e8 40 e3 ff ff       	call   1ea0 <syntax_error.part.2>
    3b60:	8b 96 20 10 00 00    	mov    0x1020(%esi),%edx
    3b66:	83 fa 98             	cmp    $0xffffff98,%edx
    3b69:	0f 84 ea 00 00 00    	je     3c59 <parse_transform_no_compose+0x999>
    3b6f:	8b 06                	mov    (%esi),%eax
    3b71:	85 c0                	test   %eax,%eax
    3b73:	75 12                	jne    3b87 <parse_transform_no_compose+0x8c7>
    3b75:	ba 4a cf 02 00       	mov    $0x2cf4a,%edx
    3b7a:	89 f0                	mov    %esi,%eax
    3b7c:	e8 1f e3 ff ff       	call   1ea0 <syntax_error.part.2>
    3b81:	8b 96 20 10 00 00    	mov    0x1020(%esi),%edx
    3b87:	83 fa 28             	cmp    $0x28,%edx
    3b8a:	0f 84 bd 00 00 00    	je     3c4d <parse_transform_no_compose+0x98d>
    3b90:	8b 06                	mov    (%esi),%eax
    3b92:	85 c0                	test   %eax,%eax
    3b94:	75 0c                	jne    3ba2 <parse_transform_no_compose+0x8e2>
    3b96:	ba 4a cf 02 00       	mov    $0x2cf4a,%edx
    3b9b:	89 f0                	mov    %esi,%eax
    3b9d:	e8 fe e2 ff ff       	call   1ea0 <syntax_error.part.2>
    3ba2:	31 d2                	xor    %edx,%edx
    3ba4:	89 f0                	mov    %esi,%eax
    3ba6:	e8 c5 ec ff ff       	call   2870 <parse_expression_precedence>
    3bab:	83 be 20 10 00 00 29 	cmpl   $0x29,0x1020(%esi)
    3bb2:	89 c7                	mov    %eax,%edi
    3bb4:	74 67                	je     3c1d <parse_transform_no_compose+0x95d>
    3bb6:	8b 06                	mov    (%esi),%eax
    3bb8:	85 c0                	test   %eax,%eax
    3bba:	0f 84 16 03 00 00    	je     3ed6 <parse_transform_no_compose+0xc16>
    3bc0:	85 ff                	test   %edi,%edi
    3bc2:	74 23                	je     3be7 <parse_transform_no_compose+0x927>
    3bc4:	8b 07                	mov    (%edi),%eax
    3bc6:	85 c0                	test   %eax,%eax
    3bc8:	0f 84 b4 06 00 00    	je     4282 <parse_transform_no_compose+0xfc2>
    3bce:	8b 57 04             	mov    0x4(%edi),%edx
    3bd1:	85 d2                	test   %edx,%edx
    3bd3:	0f 84 8d 06 00 00    	je     4266 <parse_transform_no_compose+0xfa6>
    3bd9:	4a                   	dec    %edx
    3bda:	89 57 04             	mov    %edx,0x4(%edi)
    3bdd:	85 d2                	test   %edx,%edx
    3bdf:	75 06                	jne    3be7 <parse_transform_no_compose+0x927>
    3be1:	89 3c 24             	mov    %edi,(%esp)
    3be4:	ff 50 04             	call   *0x4(%eax)
    3be7:	85 db                	test   %ebx,%ebx
    3be9:	0f 84 b1 fc ff ff    	je     38a0 <parse_transform_no_compose+0x5e0>
    3bef:	8b 03                	mov    (%ebx),%eax
    3bf1:	85 c0                	test   %eax,%eax
    3bf3:	0f 84 68 06 00 00    	je     4261 <parse_transform_no_compose+0xfa1>
    3bf9:	8b 53 04             	mov    0x4(%ebx),%edx
    3bfc:	85 d2                	test   %edx,%edx
    3bfe:	0f 84 28 06 00 00    	je     422c <parse_transform_no_compose+0xf6c>
    3c04:	4a                   	dec    %edx
    3c05:	89 53 04             	mov    %edx,0x4(%ebx)
    3c08:	85 d2                	test   %edx,%edx
    3c0a:	0f 85 90 fc ff ff    	jne    38a0 <parse_transform_no_compose+0x5e0>
    3c10:	89 1c 24             	mov    %ebx,(%esp)
    3c13:	ff 50 0c             	call   *0xc(%eax)
    3c16:	31 c9                	xor    %ecx,%ecx
    3c18:	e9 9c f8 ff ff       	jmp    34b9 <parse_transform_no_compose+0x1f9>
    3c1d:	89 f0                	mov    %esi,%eax
    3c1f:	e8 7c e3 ff ff       	call   1fa0 <next_token>
    3c24:	8b 0e                	mov    (%esi),%ecx
    3c26:	85 c9                	test   %ecx,%ecx
    3c28:	75 96                	jne    3bc0 <parse_transform_no_compose+0x900>
    3c2a:	8d 45 e4             	lea    -0x1c(%ebp),%eax
    3c2d:	89 7c 24 08          	mov    %edi,0x8(%esp)
    3c31:	89 5c 24 04          	mov    %ebx,0x4(%esp)
    3c35:	89 04 24             	mov    %eax,(%esp)
    3c38:	e8 33 3b 00 00       	call   7770 <bithenge_do_while_transform>
    3c3d:	8b 4d e4             	mov    -0x1c(%ebp),%ecx
    3c40:	85 c0                	test   %eax,%eax
    3c42:	0f 84 71 f8 ff ff    	je     34b9 <parse_transform_no_compose+0x1f9>
    3c48:	e9 a0 fd ff ff       	jmp    39ed <parse_transform_no_compose+0x72d>
    3c4d:	89 f0                	mov    %esi,%eax
    3c4f:	e8 4c e3 ff ff       	call   1fa0 <next_token>
    3c54:	e9 49 ff ff ff       	jmp    3ba2 <parse_transform_no_compose+0x8e2>
    3c59:	89 f0                	mov    %esi,%eax
    3c5b:	e8 40 e3 ff ff       	call   1fa0 <next_token>
    3c60:	8b 96 20 10 00 00    	mov    0x1020(%esi),%edx
    3c66:	e9 1c ff ff ff       	jmp    3b87 <parse_transform_no_compose+0x8c7>
    3c6b:	89 f0                	mov    %esi,%eax
    3c6d:	e8 2e e3 ff ff       	call   1fa0 <next_token>
    3c72:	8b 96 20 10 00 00    	mov    0x1020(%esi),%edx
    3c78:	e9 e9 fe ff ff       	jmp    3b66 <parse_transform_no_compose+0x8a6>
    3c7d:	89 f0                	mov    %esi,%eax
    3c7f:	e8 1c e3 ff ff       	call   1fa0 <next_token>
    3c84:	e9 ad fe ff ff       	jmp    3b36 <parse_transform_no_compose+0x876>
    3c89:	8b 86 24 10 00 00    	mov    0x1024(%esi),%eax
    3c8f:	89 04 24             	mov    %eax,(%esp)
    3c92:	e8 49 c5 01 00       	call   201e0 <free>
    3c97:	e9 22 fb ff ff       	jmp    37be <parse_transform_no_compose+0x4fe>
    3c9c:	8b 86 24 10 00 00    	mov    0x1024(%esi),%eax
    3ca2:	89 04 24             	mov    %eax,(%esp)
    3ca5:	e8 36 c5 01 00       	call   201e0 <free>
    3caa:	e9 48 fb ff ff       	jmp    37f7 <parse_transform_no_compose+0x537>
    3caf:	90                   	nop
    3cb0:	89 f0                	mov    %esi,%eax
    3cb2:	e8 e9 e2 ff ff       	call   1fa0 <next_token>
    3cb7:	8b 86 20 10 00 00    	mov    0x1020(%esi),%eax
    3cbd:	c7 45 d4 00 00 00 00 	movl   $0x0,-0x2c(%ebp)
    3cc4:	83 f8 28             	cmp    $0x28,%eax
    3cc7:	0f 84 5d 02 00 00    	je     3f2a <parse_transform_no_compose+0xc6a>
    3ccd:	83 f8 7b             	cmp    $0x7b,%eax
    3cd0:	0f 84 03 01 00 00    	je     3dd9 <parse_transform_no_compose+0xb19>
    3cd6:	8b 3e                	mov    (%esi),%edi
    3cd8:	85 ff                	test   %edi,%edi
    3cda:	75 0c                	jne    3ce8 <parse_transform_no_compose+0xa28>
    3cdc:	ba 4a cf 02 00       	mov    $0x2cf4a,%edx
    3ce1:	89 f0                	mov    %esi,%eax
    3ce3:	e8 b8 e1 ff ff       	call   1ea0 <syntax_error.part.2>
    3ce8:	89 f0                	mov    %esi,%eax
    3cea:	e8 c1 06 00 00       	call   43b0 <parse_transform>
    3cef:	83 be 20 10 00 00 7d 	cmpl   $0x7d,0x1020(%esi)
    3cf6:	89 45 dc             	mov    %eax,-0x24(%ebp)
    3cf9:	74 6d                	je     3d68 <parse_transform_no_compose+0xaa8>
    3cfb:	8b 1e                	mov    (%esi),%ebx
    3cfd:	85 db                	test   %ebx,%ebx
    3cff:	0f 84 ca 02 00 00    	je     3fcf <parse_transform_no_compose+0xd0f>
    3d05:	8b 45 d4             	mov    -0x2c(%ebp),%eax
    3d08:	85 c0                	test   %eax,%eax
    3d0a:	74 23                	je     3d2f <parse_transform_no_compose+0xa6f>
    3d0c:	8b 10                	mov    (%eax),%edx
    3d0e:	85 d2                	test   %edx,%edx
    3d10:	0f 84 4b 05 00 00    	je     4261 <parse_transform_no_compose+0xfa1>
    3d16:	8b 48 04             	mov    0x4(%eax),%ecx
    3d19:	85 c9                	test   %ecx,%ecx
    3d1b:	0f 84 0b 05 00 00    	je     422c <parse_transform_no_compose+0xf6c>
    3d21:	49                   	dec    %ecx
    3d22:	89 48 04             	mov    %ecx,0x4(%eax)
    3d25:	85 c9                	test   %ecx,%ecx
    3d27:	75 06                	jne    3d2f <parse_transform_no_compose+0xa6f>
    3d29:	89 04 24             	mov    %eax,(%esp)
    3d2c:	ff 52 0c             	call   *0xc(%edx)
    3d2f:	8b 45 dc             	mov    -0x24(%ebp),%eax
    3d32:	85 c0                	test   %eax,%eax
    3d34:	0f 84 66 fb ff ff    	je     38a0 <parse_transform_no_compose+0x5e0>
    3d3a:	8b 10                	mov    (%eax),%edx
    3d3c:	85 d2                	test   %edx,%edx
    3d3e:	0f 84 1d 05 00 00    	je     4261 <parse_transform_no_compose+0xfa1>
    3d44:	8b 48 04             	mov    0x4(%eax),%ecx
    3d47:	85 c9                	test   %ecx,%ecx
    3d49:	0f 84 dd 04 00 00    	je     422c <parse_transform_no_compose+0xf6c>
    3d4f:	49                   	dec    %ecx
    3d50:	89 48 04             	mov    %ecx,0x4(%eax)
    3d53:	85 c9                	test   %ecx,%ecx
    3d55:	0f 85 45 fb ff ff    	jne    38a0 <parse_transform_no_compose+0x5e0>
    3d5b:	89 04 24             	mov    %eax,(%esp)
    3d5e:	ff 52 0c             	call   *0xc(%edx)
    3d61:	31 c9                	xor    %ecx,%ecx
    3d63:	e9 51 f7 ff ff       	jmp    34b9 <parse_transform_no_compose+0x1f9>
    3d68:	89 f0                	mov    %esi,%eax
    3d6a:	e8 31 e2 ff ff       	call   1fa0 <next_token>
    3d6f:	8b 0e                	mov    (%esi),%ecx
    3d71:	85 c9                	test   %ecx,%ecx
    3d73:	75 90                	jne    3d05 <parse_transform_no_compose+0xa45>
    3d75:	8b 45 dc             	mov    -0x24(%ebp),%eax
    3d78:	8d 5d dc             	lea    -0x24(%ebp),%ebx
    3d7b:	89 44 24 04          	mov    %eax,0x4(%esp)
    3d7f:	89 1c 24             	mov    %ebx,(%esp)
    3d82:	e8 e9 85 00 00       	call   c370 <bithenge_partial_transform>
    3d87:	85 c0                	test   %eax,%eax
    3d89:	0f 85 6c 04 00 00    	jne    41fb <parse_transform_no_compose+0xf3b>
    3d8f:	8b 7d d4             	mov    -0x2c(%ebp),%edi
    3d92:	85 ff                	test   %edi,%edi
    3d94:	74 3b                	je     3dd1 <parse_transform_no_compose+0xb11>
    3d96:	c7 04 24 08 00 00 00 	movl   $0x8,(%esp)
    3d9d:	e8 2e c3 01 00       	call   200d0 <malloc>
    3da2:	85 c0                	test   %eax,%eax
    3da4:	0f 84 34 05 00 00    	je     42de <parse_transform_no_compose+0x101e>
    3daa:	8b 55 dc             	mov    -0x24(%ebp),%edx
    3dad:	89 10                	mov    %edx,(%eax)
    3daf:	8b 55 d4             	mov    -0x2c(%ebp),%edx
    3db2:	89 50 04             	mov    %edx,0x4(%eax)
    3db5:	c7 44 24 08 02 00 00 	movl   $0x2,0x8(%esp)
    3dbc:	00 
    3dbd:	89 44 24 04          	mov    %eax,0x4(%esp)
    3dc1:	89 1c 24             	mov    %ebx,(%esp)
    3dc4:	e8 17 83 00 00       	call   c0e0 <bithenge_new_composed_transform>
    3dc9:	85 c0                	test   %eax,%eax
    3dcb:	0f 85 1c fc ff ff    	jne    39ed <parse_transform_no_compose+0x72d>
    3dd1:	8b 4d dc             	mov    -0x24(%ebp),%ecx
    3dd4:	e9 e0 f6 ff ff       	jmp    34b9 <parse_transform_no_compose+0x1f9>
    3dd9:	89 f0                	mov    %esi,%eax
    3ddb:	e8 c0 e1 ff ff       	call   1fa0 <next_token>
    3de0:	e9 03 ff ff ff       	jmp    3ce8 <parse_transform_no_compose+0xa28>
    3de5:	8b 4d d0             	mov    -0x30(%ebp),%ecx
    3de8:	85 c9                	test   %ecx,%ecx
    3dea:	0f 84 a4 05 00 00    	je     4394 <parse_transform_no_compose+0x10d4>
    3df0:	3b 59 08             	cmp    0x8(%ecx),%ebx
    3df3:	74 19                	je     3e0e <parse_transform_no_compose+0xb4e>
    3df5:	89 f0                	mov    %esi,%eax
    3df7:	ba e4 cf 02 00       	mov    $0x2cfe4,%edx
    3dfc:	e8 9f e0 ff ff       	call   1ea0 <syntax_error.part.2>
    3e01:	8b 06                	mov    (%esi),%eax
    3e03:	85 c0                	test   %eax,%eax
    3e05:	0f 85 41 fb ff ff    	jne    394c <parse_transform_no_compose+0x68c>
    3e0b:	8b 4d d0             	mov    -0x30(%ebp),%ecx
    3e0e:	85 db                	test   %ebx,%ebx
    3e10:	0f 84 a3 f6 ff ff    	je     34b9 <parse_transform_no_compose+0x1f9>
    3e16:	8d 45 d0             	lea    -0x30(%ebp),%eax
    3e19:	89 7c 24 08          	mov    %edi,0x8(%esp)
    3e1d:	89 4c 24 04          	mov    %ecx,0x4(%esp)
    3e21:	89 04 24             	mov    %eax,(%esp)
    3e24:	e8 47 9b 00 00       	call   d970 <bithenge_param_wrapper>
    3e29:	85 c0                	test   %eax,%eax
    3e2b:	0f 85 76 02 00 00    	jne    40a7 <parse_transform_no_compose+0xde7>
    3e31:	8b 4d d0             	mov    -0x30(%ebp),%ecx
    3e34:	e9 80 f6 ff ff       	jmp    34b9 <parse_transform_no_compose+0x1f9>
    3e39:	8d b4 26 00 00 00 00 	lea    0x0(%esi,%eiz,1),%esi
    3e40:	89 f0                	mov    %esi,%eax
    3e42:	31 ff                	xor    %edi,%edi
    3e44:	e8 57 e1 ff ff       	call   1fa0 <next_token>
    3e49:	8b 86 20 10 00 00    	mov    0x1020(%esi),%eax
    3e4f:	83 f8 28             	cmp    $0x28,%eax
    3e52:	0f 84 79 02 00 00    	je     40d1 <parse_transform_no_compose+0xe11>
    3e58:	83 f8 7b             	cmp    $0x7b,%eax
    3e5b:	74 67                	je     3ec4 <parse_transform_no_compose+0xc04>
    3e5d:	8b 06                	mov    (%esi),%eax
    3e5f:	85 c0                	test   %eax,%eax
    3e61:	75 0c                	jne    3e6f <parse_transform_no_compose+0xbaf>
    3e63:	ba 4a cf 02 00       	mov    $0x2cf4a,%edx
    3e68:	89 f0                	mov    %esi,%eax
    3e6a:	e8 31 e0 ff ff       	call   1ea0 <syntax_error.part.2>
    3e6f:	89 f0                	mov    %esi,%eax
    3e71:	e8 3a 05 00 00       	call   43b0 <parse_transform>
    3e76:	83 be 20 10 00 00 7d 	cmpl   $0x7d,0x1020(%esi)
    3e7d:	89 c3                	mov    %eax,%ebx
    3e7f:	74 4c                	je     3ecd <parse_transform_no_compose+0xc0d>
    3e81:	8b 06                	mov    (%esi),%eax
    3e83:	85 c0                	test   %eax,%eax
    3e85:	0f 85 35 fd ff ff    	jne    3bc0 <parse_transform_no_compose+0x900>
    3e8b:	ba 4a cf 02 00       	mov    $0x2cf4a,%edx
    3e90:	89 f0                	mov    %esi,%eax
    3e92:	e8 09 e0 ff ff       	call   1ea0 <syntax_error.part.2>
    3e97:	8b 0e                	mov    (%esi),%ecx
    3e99:	85 c9                	test   %ecx,%ecx
    3e9b:	0f 85 1f fd ff ff    	jne    3bc0 <parse_transform_no_compose+0x900>
    3ea1:	8d 45 e4             	lea    -0x1c(%ebp),%eax
    3ea4:	89 7c 24 08          	mov    %edi,0x8(%esp)
    3ea8:	89 5c 24 04          	mov    %ebx,0x4(%esp)
    3eac:	89 04 24             	mov    %eax,(%esp)
    3eaf:	e8 8c 37 00 00       	call   7640 <bithenge_repeat_transform>
    3eb4:	8b 4d e4             	mov    -0x1c(%ebp),%ecx
    3eb7:	85 c0                	test   %eax,%eax
    3eb9:	0f 84 fa f5 ff ff    	je     34b9 <parse_transform_no_compose+0x1f9>
    3ebf:	e9 29 fb ff ff       	jmp    39ed <parse_transform_no_compose+0x72d>
    3ec4:	89 f0                	mov    %esi,%eax
    3ec6:	e8 d5 e0 ff ff       	call   1fa0 <next_token>
    3ecb:	eb a2                	jmp    3e6f <parse_transform_no_compose+0xbaf>
    3ecd:	89 f0                	mov    %esi,%eax
    3ecf:	e8 cc e0 ff ff       	call   1fa0 <next_token>
    3ed4:	eb c1                	jmp    3e97 <parse_transform_no_compose+0xbd7>
    3ed6:	ba 4a cf 02 00       	mov    $0x2cf4a,%edx
    3edb:	89 f0                	mov    %esi,%eax
    3edd:	e8 be df ff ff       	call   1ea0 <syntax_error.part.2>
    3ee2:	e9 3d fd ff ff       	jmp    3c24 <parse_transform_no_compose+0x964>
    3ee7:	8b 75 c0             	mov    -0x40(%ebp),%esi
    3eea:	8b 0e                	mov    (%esi),%ecx
    3eec:	c7 45 d0 00 00 00 00 	movl   $0x0,-0x30(%ebp)
    3ef3:	85 c9                	test   %ecx,%ecx
    3ef5:	0f 85 2f fa ff ff    	jne    392a <parse_transform_no_compose+0x66a>
    3efb:	ba 83 cf 02 00       	mov    $0x2cf83,%edx
    3f00:	89 f0                	mov    %esi,%eax
    3f02:	e8 99 df ff ff       	call   1ea0 <syntax_error.part.2>
    3f07:	e9 1e fa ff ff       	jmp    392a <parse_transform_no_compose+0x66a>
    3f0c:	89 f0                	mov    %esi,%eax
    3f0e:	89 4d b0             	mov    %ecx,-0x50(%ebp)
    3f11:	e8 8a e0 ff ff       	call   1fa0 <next_token>
    3f16:	8b 4d b0             	mov    -0x50(%ebp),%ecx
    3f19:	e9 9b f5 ff ff       	jmp    34b9 <parse_transform_no_compose+0x1f9>
    3f1e:	89 f0                	mov    %esi,%eax
    3f20:	e8 7b e0 ff ff       	call   1fa0 <next_token>
    3f25:	e9 14 fb ff ff       	jmp    3a3e <parse_transform_no_compose+0x77e>
    3f2a:	89 f0                	mov    %esi,%eax
    3f2c:	e8 6f e0 ff ff       	call   1fa0 <next_token>
    3f31:	31 d2                	xor    %edx,%edx
    3f33:	89 f0                	mov    %esi,%eax
    3f35:	e8 36 e9 ff ff       	call   2870 <parse_expression_precedence>
    3f3a:	83 be 20 10 00 00 29 	cmpl   $0x29,0x1020(%esi)
    3f41:	89 45 d8             	mov    %eax,-0x28(%ebp)
    3f44:	0f 84 e6 01 00 00    	je     4130 <parse_transform_no_compose+0xe70>
    3f4a:	8b 3e                	mov    (%esi),%edi
    3f4c:	85 ff                	test   %edi,%edi
    3f4e:	75 0c                	jne    3f5c <parse_transform_no_compose+0xc9c>
    3f50:	ba 4a cf 02 00       	mov    $0x2cf4a,%edx
    3f55:	89 f0                	mov    %esi,%eax
    3f57:	e8 44 df ff ff       	call   1ea0 <syntax_error.part.2>
    3f5c:	8d 45 dc             	lea    -0x24(%ebp),%eax
    3f5f:	89 04 24             	mov    %eax,(%esp)
    3f62:	e8 c9 97 00 00       	call   d730 <bithenge_in_node_expression>
    3f67:	85 c0                	test   %eax,%eax
    3f69:	0f 85 cd 01 00 00    	jne    413c <parse_transform_no_compose+0xe7c>
    3f6f:	8b 0e                	mov    (%esi),%ecx
    3f71:	85 c9                	test   %ecx,%ecx
    3f73:	0f 85 e2 01 00 00    	jne    415b <parse_transform_no_compose+0xe9b>
    3f79:	8b 45 d8             	mov    -0x28(%ebp),%eax
    3f7c:	c7 44 24 10 01 00 00 	movl   $0x1,0x10(%esp)
    3f83:	00 
    3f84:	89 44 24 08          	mov    %eax,0x8(%esp)
    3f88:	8b 45 dc             	mov    -0x24(%ebp),%eax
    3f8b:	89 44 24 04          	mov    %eax,0x4(%esp)
    3f8f:	8d 45 d8             	lea    -0x28(%ebp),%eax
    3f92:	c7 44 24 0c 00 00 00 	movl   $0x0,0xc(%esp)
    3f99:	00 
    3f9a:	89 04 24             	mov    %eax,(%esp)
    3f9d:	e8 ce 98 00 00       	call   d870 <bithenge_subblob_expression>
    3fa2:	85 c0                	test   %eax,%eax
    3fa4:	0f 85 fd 00 00 00    	jne    40a7 <parse_transform_no_compose+0xde7>
    3faa:	8b 45 d8             	mov    -0x28(%ebp),%eax
    3fad:	89 44 24 04          	mov    %eax,0x4(%esp)
    3fb1:	8d 45 d4             	lea    -0x2c(%ebp),%eax
    3fb4:	89 04 24             	mov    %eax,(%esp)
    3fb7:	e8 24 9b 00 00       	call   dae0 <bithenge_expression_transform>
    3fbc:	85 c0                	test   %eax,%eax
    3fbe:	0f 85 e3 00 00 00    	jne    40a7 <parse_transform_no_compose+0xde7>
    3fc4:	8b 86 20 10 00 00    	mov    0x1020(%esi),%eax
    3fca:	e9 fe fc ff ff       	jmp    3ccd <parse_transform_no_compose+0xa0d>
    3fcf:	ba 4a cf 02 00       	mov    $0x2cf4a,%edx
    3fd4:	89 f0                	mov    %esi,%eax
    3fd6:	e8 c5 de ff ff       	call   1ea0 <syntax_error.part.2>
    3fdb:	e9 8f fd ff ff       	jmp    3d6f <parse_transform_no_compose+0xaaf>
    3fe0:	89 f0                	mov    %esi,%eax
    3fe2:	e8 b9 df ff ff       	call   1fa0 <next_token>
    3fe7:	8b 06                	mov    (%esi),%eax
    3fe9:	85 c0                	test   %eax,%eax
    3feb:	0f 85 af 02 00 00    	jne    42a0 <parse_transform_no_compose+0xfe0>
    3ff1:	31 d2                	xor    %edx,%edx
    3ff3:	31 db                	xor    %ebx,%ebx
    3ff5:	31 ff                	xor    %edi,%edi
    3ff7:	c7 45 c0 00 00 00 00 	movl   $0x0,-0x40(%ebp)
    3ffe:	83 be 20 10 00 00 29 	cmpl   $0x29,0x1020(%esi)
    4005:	74 7e                	je     4085 <parse_transform_no_compose+0xdc5>
    4007:	8d 4a 01             	lea    0x1(%edx),%ecx
    400a:	8b 5d c0             	mov    -0x40(%ebp),%ebx
    400d:	89 c8                	mov    %ecx,%eax
    400f:	89 1c 24             	mov    %ebx,(%esp)
    4012:	c1 e0 02             	shl    $0x2,%eax
    4015:	89 55 b0             	mov    %edx,-0x50(%ebp)
    4018:	89 44 24 04          	mov    %eax,0x4(%esp)
    401c:	89 4d c4             	mov    %ecx,-0x3c(%ebp)
    401f:	e8 0c c4 01 00       	call   20430 <realloc>
    4024:	8b 55 b0             	mov    -0x50(%ebp),%edx
    4027:	89 c7                	mov    %eax,%edi
    4029:	85 c0                	test   %eax,%eax
    402b:	0f 84 63 01 00 00    	je     4194 <parse_transform_no_compose+0xed4>
    4031:	8b 06                	mov    (%esi),%eax
    4033:	85 c0                	test   %eax,%eax
    4035:	0f 85 51 03 00 00    	jne    438c <parse_transform_no_compose+0x10cc>
    403b:	8d 1c 97             	lea    (%edi,%edx,4),%ebx
    403e:	89 f0                	mov    %esi,%eax
    4040:	31 d2                	xor    %edx,%edx
    4042:	e8 29 e8 ff ff       	call   2870 <parse_expression_precedence>
    4047:	89 03                	mov    %eax,(%ebx)
    4049:	8b 06                	mov    (%esi),%eax
    404b:	85 c0                	test   %eax,%eax
    404d:	75 26                	jne    4075 <parse_transform_no_compose+0xdb5>
    404f:	8b 86 20 10 00 00    	mov    0x1020(%esi),%eax
    4055:	83 f8 29             	cmp    $0x29,%eax
    4058:	0f 84 83 01 00 00    	je     41e1 <parse_transform_no_compose+0xf21>
    405e:	83 f8 2c             	cmp    $0x2c,%eax
    4061:	74 39                	je     409c <parse_transform_no_compose+0xddc>
    4063:	89 f0                	mov    %esi,%eax
    4065:	ba 4a cf 02 00       	mov    $0x2cf4a,%edx
    406a:	e8 31 de ff ff       	call   1ea0 <syntax_error.part.2>
    406f:	8b 06                	mov    (%esi),%eax
    4071:	85 c0                	test   %eax,%eax
    4073:	74 1c                	je     4091 <parse_transform_no_compose+0xdd1>
    4075:	8b 5d c4             	mov    -0x3c(%ebp),%ebx
    4078:	83 be 20 10 00 00 29 	cmpl   $0x29,0x1020(%esi)
    407f:	0f 85 c7 f8 ff ff    	jne    394c <parse_transform_no_compose+0x68c>
    4085:	89 f0                	mov    %esi,%eax
    4087:	e8 14 df ff ff       	call   1fa0 <next_token>
    408c:	e9 b1 f8 ff ff       	jmp    3942 <parse_transform_no_compose+0x682>
    4091:	89 7d c0             	mov    %edi,-0x40(%ebp)
    4094:	8b 55 c4             	mov    -0x3c(%ebp),%edx
    4097:	e9 6b ff ff ff       	jmp    4007 <parse_transform_no_compose+0xd47>
    409c:	89 f0                	mov    %esi,%eax
    409e:	e8 fd de ff ff       	call   1fa0 <next_token>
    40a3:	8b 06                	mov    (%esi),%eax
    40a5:	eb ca                	jmp    4071 <parse_transform_no_compose+0xdb1>
    40a7:	8b 16                	mov    (%esi),%edx
    40a9:	85 d2                	test   %edx,%edx
    40ab:	0f 85 ef f7 ff ff    	jne    38a0 <parse_transform_no_compose+0x5e0>
    40b1:	83 be 20 10 00 00 86 	cmpl   $0xffffff86,0x1020(%esi)
    40b8:	0f 84 c9 01 00 00    	je     4287 <parse_transform_no_compose+0xfc7>
    40be:	c7 86 20 10 00 00 80 	movl   $0xffffff80,0x1020(%esi)
    40c5:	ff ff ff 
    40c8:	89 06                	mov    %eax,(%esi)
    40ca:	31 c9                	xor    %ecx,%ecx
    40cc:	e9 e8 f3 ff ff       	jmp    34b9 <parse_transform_no_compose+0x1f9>
    40d1:	89 f0                	mov    %esi,%eax
    40d3:	e8 c8 de ff ff       	call   1fa0 <next_token>
    40d8:	31 d2                	xor    %edx,%edx
    40da:	89 f0                	mov    %esi,%eax
    40dc:	e8 8f e7 ff ff       	call   2870 <parse_expression_precedence>
    40e1:	89 c7                	mov    %eax,%edi
    40e3:	8b 86 20 10 00 00    	mov    0x1020(%esi),%eax
    40e9:	83 f8 29             	cmp    $0x29,%eax
    40ec:	0f 84 f7 00 00 00    	je     41e9 <parse_transform_no_compose+0xf29>
    40f2:	8b 16                	mov    (%esi),%edx
    40f4:	85 d2                	test   %edx,%edx
    40f6:	0f 85 5c fd ff ff    	jne    3e58 <parse_transform_no_compose+0xb98>
    40fc:	89 f0                	mov    %esi,%eax
    40fe:	ba 4a cf 02 00       	mov    $0x2cf4a,%edx
    4103:	e8 98 dd ff ff       	call   1ea0 <syntax_error.part.2>
    4108:	8b 86 20 10 00 00    	mov    0x1020(%esi),%eax
    410e:	e9 45 fd ff ff       	jmp    3e58 <parse_transform_no_compose+0xb98>
    4113:	89 3c 24             	mov    %edi,(%esp)
    4116:	e8 c5 c0 01 00       	call   201e0 <free>
    411b:	8b 45 d0             	mov    -0x30(%ebp),%eax
    411e:	85 c0                	test   %eax,%eax
    4120:	0f 85 14 fc ff ff    	jne    3d3a <parse_transform_no_compose+0xa7a>
    4126:	31 c9                	xor    %ecx,%ecx
    4128:	e9 8c f3 ff ff       	jmp    34b9 <parse_transform_no_compose+0x1f9>
    412d:	8d 76 00             	lea    0x0(%esi),%esi
    4130:	89 f0                	mov    %esi,%eax
    4132:	e8 69 de ff ff       	call   1fa0 <next_token>
    4137:	e9 20 fe ff ff       	jmp    3f5c <parse_transform_no_compose+0xc9c>
    413c:	8b 1e                	mov    (%esi),%ebx
    413e:	85 db                	test   %ebx,%ebx
    4140:	75 19                	jne    415b <parse_transform_no_compose+0xe9b>
    4142:	83 be 20 10 00 00 86 	cmpl   $0xffffff86,0x1020(%esi)
    4149:	0f 84 0b 02 00 00    	je     435a <parse_transform_no_compose+0x109a>
    414f:	c7 86 20 10 00 00 80 	movl   $0xffffff80,0x1020(%esi)
    4156:	ff ff ff 
    4159:	89 06                	mov    %eax,(%esi)
    415b:	8b 45 d8             	mov    -0x28(%ebp),%eax
    415e:	85 c0                	test   %eax,%eax
    4160:	0f 84 3a f7 ff ff    	je     38a0 <parse_transform_no_compose+0x5e0>
    4166:	8b 10                	mov    (%eax),%edx
    4168:	85 d2                	test   %edx,%edx
    416a:	0f 84 12 01 00 00    	je     4282 <parse_transform_no_compose+0xfc2>
    4170:	8b 48 04             	mov    0x4(%eax),%ecx
    4173:	85 c9                	test   %ecx,%ecx
    4175:	0f 84 eb 00 00 00    	je     4266 <parse_transform_no_compose+0xfa6>
    417b:	49                   	dec    %ecx
    417c:	89 48 04             	mov    %ecx,0x4(%eax)
    417f:	85 c9                	test   %ecx,%ecx
    4181:	0f 85 19 f7 ff ff    	jne    38a0 <parse_transform_no_compose+0x5e0>
    4187:	89 04 24             	mov    %eax,(%esp)
    418a:	ff 52 04             	call   *0x4(%edx)
    418d:	31 c9                	xor    %ecx,%ecx
    418f:	e9 25 f3 ff ff       	jmp    34b9 <parse_transform_no_compose+0x1f9>
    4194:	8b 06                	mov    (%esi),%eax
    4196:	85 c0                	test   %eax,%eax
    4198:	75 1d                	jne    41b7 <parse_transform_no_compose+0xef7>
    419a:	83 be 20 10 00 00 86 	cmpl   $0xffffff86,0x1020(%esi)
    41a1:	0f 84 02 01 00 00    	je     42a9 <parse_transform_no_compose+0xfe9>
    41a7:	c7 86 20 10 00 00 80 	movl   $0xffffff80,0x1020(%esi)
    41ae:	ff ff ff 
    41b1:	c7 06 fe ff ff ff    	movl   $0xfffffffe,(%esi)
    41b7:	89 d3                	mov    %edx,%ebx
    41b9:	8b 7d c0             	mov    -0x40(%ebp),%edi
    41bc:	e9 b7 fe ff ff       	jmp    4078 <parse_transform_no_compose+0xdb8>
    41c1:	8d b4 26 00 00 00 00 	lea    0x0(%esi,%eiz,1),%esi
    41c8:	8b 96 24 10 00 00    	mov    0x1024(%esi),%edx
    41ce:	89 45 ac             	mov    %eax,-0x54(%ebp)
    41d1:	89 14 24             	mov    %edx,(%esp)
    41d4:	e8 07 c0 01 00       	call   201e0 <free>
    41d9:	8b 45 ac             	mov    -0x54(%ebp),%eax
    41dc:	e9 07 f5 ff ff       	jmp    36e8 <parse_transform_no_compose+0x428>
    41e1:	8b 5d c4             	mov    -0x3c(%ebp),%ebx
    41e4:	e9 9c fe ff ff       	jmp    4085 <parse_transform_no_compose+0xdc5>
    41e9:	89 f0                	mov    %esi,%eax
    41eb:	e8 b0 dd ff ff       	call   1fa0 <next_token>
    41f0:	8b 86 20 10 00 00    	mov    0x1020(%esi),%eax
    41f6:	e9 5d fc ff ff       	jmp    3e58 <parse_transform_no_compose+0xb98>
    41fb:	8b 16                	mov    (%esi),%edx
    41fd:	85 d2                	test   %edx,%edx
    41ff:	75 19                	jne    421a <parse_transform_no_compose+0xf5a>
    4201:	83 be 20 10 00 00 86 	cmpl   $0xffffff86,0x1020(%esi)
    4208:	0f 84 65 01 00 00    	je     4373 <parse_transform_no_compose+0x10b3>
    420e:	c7 86 20 10 00 00 80 	movl   $0xffffff80,0x1020(%esi)
    4215:	ff ff ff 
    4218:	89 06                	mov    %eax,(%esi)
    421a:	8b 45 d4             	mov    -0x2c(%ebp),%eax
    421d:	85 c0                	test   %eax,%eax
    421f:	0f 85 15 fb ff ff    	jne    3d3a <parse_transform_no_compose+0xa7a>
    4225:	31 c9                	xor    %ecx,%ecx
    4227:	e9 8d f2 ff ff       	jmp    34b9 <parse_transform_no_compose+0x1f9>
    422c:	c7 44 24 08 75 00 00 	movl   $0x75,0x8(%esp)
    4233:	00 
    4234:	c7 44 24 04 ca ce 02 	movl   $0x2ceca,0x4(%esp)
    423b:	00 
    423c:	c7 04 24 c3 cc 02 00 	movl   $0x2ccc3,(%esp)
    4243:	e8 68 66 02 00       	call   2a8b0 <assert_abort>
    4248:	8b 96 24 10 00 00    	mov    0x1024(%esi),%edx
    424e:	89 45 ac             	mov    %eax,-0x54(%ebp)
    4251:	89 14 24             	mov    %edx,(%esp)
    4254:	e8 87 bf 01 00       	call   201e0 <free>
    4259:	8b 45 ac             	mov    -0x54(%ebp),%eax
    425c:	e9 a3 f7 ff ff       	jmp    3a04 <parse_transform_no_compose+0x744>
    4261:	e8 ba 19 00 00       	call   5c20 <bithenge_transform_dec_ref.part.8>
    4266:	c7 44 24 08 4c 00 00 	movl   $0x4c,0x8(%esp)
    426d:	00 
    426e:	c7 44 24 04 ac ce 02 	movl   $0x2ceac,0x4(%esp)
    4275:	00 
    4276:	c7 04 24 c3 cc 02 00 	movl   $0x2ccc3,(%esp)
    427d:	e8 2e 66 02 00       	call   2a8b0 <assert_abort>
    4282:	e8 55 19 00 00       	call   5bdc <bithenge_expression_dec_ref.part.4>
    4287:	8b 96 24 10 00 00    	mov    0x1024(%esi),%edx
    428d:	89 45 ac             	mov    %eax,-0x54(%ebp)
    4290:	89 14 24             	mov    %edx,(%esp)
    4293:	e8 48 bf 01 00       	call   201e0 <free>
    4298:	8b 45 ac             	mov    -0x54(%ebp),%eax
    429b:	e9 1e fe ff ff       	jmp    40be <parse_transform_no_compose+0xdfe>
    42a0:	31 db                	xor    %ebx,%ebx
    42a2:	31 ff                	xor    %edi,%edi
    42a4:	e9 cf fd ff ff       	jmp    4078 <parse_transform_no_compose+0xdb8>
    42a9:	8b 86 24 10 00 00    	mov    0x1024(%esi),%eax
    42af:	89 55 b0             	mov    %edx,-0x50(%ebp)
    42b2:	89 04 24             	mov    %eax,(%esp)
    42b5:	e8 26 bf 01 00       	call   201e0 <free>
    42ba:	8b 55 b0             	mov    -0x50(%ebp),%edx
    42bd:	e9 e5 fe ff ff       	jmp    41a7 <parse_transform_no_compose+0xee7>
    42c2:	c7 44 24 08 41 00 00 	movl   $0x41,0x8(%esp)
    42c9:	00 
    42ca:	c7 44 24 04 ac ce 02 	movl   $0x2ceac,0x4(%esp)
    42d1:	00 
    42d2:	c7 04 24 e7 ce 02 00 	movl   $0x2cee7,(%esp)
    42d9:	e8 d2 65 02 00       	call   2a8b0 <assert_abort>
    42de:	8b 0e                	mov    (%esi),%ecx
    42e0:	85 c9                	test   %ecx,%ecx
    42e2:	75 19                	jne    42fd <parse_transform_no_compose+0x103d>
    42e4:	83 be 20 10 00 00 86 	cmpl   $0xffffff86,0x1020(%esi)
    42eb:	74 47                	je     4334 <parse_transform_no_compose+0x1074>
    42ed:	c7 86 20 10 00 00 80 	movl   $0xffffff80,0x1020(%esi)
    42f4:	ff ff ff 
    42f7:	c7 06 fe ff ff ff    	movl   $0xfffffffe,(%esi)
    42fd:	8b 45 dc             	mov    -0x24(%ebp),%eax
    4300:	85 c0                	test   %eax,%eax
    4302:	0f 84 12 ff ff ff    	je     421a <parse_transform_no_compose+0xf5a>
    4308:	8b 10                	mov    (%eax),%edx
    430a:	85 d2                	test   %edx,%edx
    430c:	0f 84 4f ff ff ff    	je     4261 <parse_transform_no_compose+0xfa1>
    4312:	8b 48 04             	mov    0x4(%eax),%ecx
    4315:	85 c9                	test   %ecx,%ecx
    4317:	0f 84 0f ff ff ff    	je     422c <parse_transform_no_compose+0xf6c>
    431d:	49                   	dec    %ecx
    431e:	89 48 04             	mov    %ecx,0x4(%eax)
    4321:	85 c9                	test   %ecx,%ecx
    4323:	0f 85 f1 fe ff ff    	jne    421a <parse_transform_no_compose+0xf5a>
    4329:	89 04 24             	mov    %eax,(%esp)
    432c:	ff 52 0c             	call   *0xc(%edx)
    432f:	e9 e6 fe ff ff       	jmp    421a <parse_transform_no_compose+0xf5a>
    4334:	8b 86 24 10 00 00    	mov    0x1024(%esi),%eax
    433a:	89 04 24             	mov    %eax,(%esp)
    433d:	e8 9e be 01 00       	call   201e0 <free>
    4342:	eb a9                	jmp    42ed <parse_transform_no_compose+0x102d>
    4344:	89 55 b4             	mov    %edx,-0x4c(%ebp)
    4347:	89 45 bc             	mov    %eax,-0x44(%ebp)
    434a:	e9 7f f4 ff ff       	jmp    37ce <parse_transform_no_compose+0x50e>
    434f:	89 55 b4             	mov    %edx,-0x4c(%ebp)
    4352:	89 55 c0             	mov    %edx,-0x40(%ebp)
    4355:	e9 03 f2 ff ff       	jmp    355d <parse_transform_no_compose+0x29d>
    435a:	8b 96 24 10 00 00    	mov    0x1024(%esi),%edx
    4360:	89 45 ac             	mov    %eax,-0x54(%ebp)
    4363:	89 14 24             	mov    %edx,(%esp)
    4366:	e8 75 be 01 00       	call   201e0 <free>
    436b:	8b 45 ac             	mov    -0x54(%ebp),%eax
    436e:	e9 dc fd ff ff       	jmp    414f <parse_transform_no_compose+0xe8f>
    4373:	8b 96 24 10 00 00    	mov    0x1024(%esi),%edx
    4379:	89 45 ac             	mov    %eax,-0x54(%ebp)
    437c:	89 14 24             	mov    %edx,(%esp)
    437f:	e8 5c be 01 00       	call   201e0 <free>
    4384:	8b 45 ac             	mov    -0x54(%ebp),%eax
    4387:	e9 82 fe ff ff       	jmp    420e <parse_transform_no_compose+0xf4e>
    438c:	89 7d c0             	mov    %edi,-0x40(%ebp)
    438f:	e9 23 fe ff ff       	jmp    41b7 <parse_transform_no_compose+0xef7>
    4394:	c7 44 24 08 62 00 00 	movl   $0x62,0x8(%esp)
    439b:	00 
    439c:	c7 44 24 04 ca ce 02 	movl   $0x2ceca,0x4(%esp)
    43a3:	00 
    43a4:	c7 04 24 e7 ce 02 00 	movl   $0x2cee7,(%esp)
    43ab:	e8 00 65 02 00       	call   2a8b0 <assert_abort>

000043b0 <parse_transform>:
    43b0:	55                   	push   %ebp
    43b1:	89 e5                	mov    %esp,%ebp
    43b3:	57                   	push   %edi
    43b4:	56                   	push   %esi
    43b5:	53                   	push   %ebx
    43b6:	83 ec 3c             	sub    $0x3c,%esp
    43b9:	89 c3                	mov    %eax,%ebx
    43bb:	e8 00 ef ff ff       	call   32c0 <parse_transform_no_compose>
    43c0:	83 bb 20 10 00 00 89 	cmpl   $0xffffff89,0x1020(%ebx)
    43c7:	89 45 e4             	mov    %eax,-0x1c(%ebp)
    43ca:	0f 85 7a 01 00 00    	jne    454a <parse_transform+0x19a>
    43d0:	be 04 00 00 00       	mov    $0x4,%esi
    43d5:	ba 01 00 00 00       	mov    $0x1,%edx
    43da:	31 c9                	xor    %ecx,%ecx
    43dc:	8d 74 26 00          	lea    0x0(%esi,%eiz,1),%esi
    43e0:	89 d8                	mov    %ebx,%eax
    43e2:	89 55 d0             	mov    %edx,-0x30(%ebp)
    43e5:	89 4d cc             	mov    %ecx,-0x34(%ebp)
    43e8:	e8 b3 db ff ff       	call   1fa0 <next_token>
    43ed:	8b 55 d0             	mov    -0x30(%ebp),%edx
    43f0:	8b 0b                	mov    (%ebx),%ecx
    43f2:	8d 42 01             	lea    0x1(%edx),%eax
    43f5:	89 45 d4             	mov    %eax,-0x2c(%ebp)
    43f8:	c1 e0 02             	shl    $0x2,%eax
    43fb:	85 c9                	test   %ecx,%ecx
    43fd:	8b 4d cc             	mov    -0x34(%ebp),%ecx
    4400:	74 56                	je     4458 <parse_transform+0xa8>
    4402:	85 c9                	test   %ecx,%ecx
    4404:	0f 95 c3             	setne  %bl
    4407:	83 fa 01             	cmp    $0x1,%edx
    440a:	0f 86 c0 00 00 00    	jbe    44d0 <parse_transform+0x120>
    4410:	84 db                	test   %bl,%bl
    4412:	0f 84 b8 00 00 00    	je     44d0 <parse_transform+0x120>
    4418:	4a                   	dec    %edx
    4419:	8b 04 91             	mov    (%ecx,%edx,4),%eax
    441c:	85 c0                	test   %eax,%eax
    441e:	74 e7                	je     4407 <parse_transform+0x57>
    4420:	8b 38                	mov    (%eax),%edi
    4422:	85 ff                	test   %edi,%edi
    4424:	0f 84 f8 00 00 00    	je     4522 <parse_transform+0x172>
    442a:	8b 70 04             	mov    0x4(%eax),%esi
    442d:	85 f6                	test   %esi,%esi
    442f:	0f 84 f2 00 00 00    	je     4527 <parse_transform+0x177>
    4435:	4e                   	dec    %esi
    4436:	89 70 04             	mov    %esi,0x4(%eax)
    4439:	85 f6                	test   %esi,%esi
    443b:	75 ca                	jne    4407 <parse_transform+0x57>
    443d:	89 55 d0             	mov    %edx,-0x30(%ebp)
    4440:	89 4d cc             	mov    %ecx,-0x34(%ebp)
    4443:	89 04 24             	mov    %eax,(%esp)
    4446:	ff 57 0c             	call   *0xc(%edi)
    4449:	8b 4d cc             	mov    -0x34(%ebp),%ecx
    444c:	8b 55 d0             	mov    -0x30(%ebp),%edx
    444f:	eb b6                	jmp    4407 <parse_transform+0x57>
    4451:	8d b4 26 00 00 00 00 	lea    0x0(%esi,%eiz,1),%esi
    4458:	89 0c 24             	mov    %ecx,(%esp)
    445b:	89 44 24 04          	mov    %eax,0x4(%esp)
    445f:	e8 cc bf 01 00       	call   20430 <realloc>
    4464:	8b 55 d0             	mov    -0x30(%ebp),%edx
    4467:	89 c7                	mov    %eax,%edi
    4469:	85 c0                	test   %eax,%eax
    446b:	8b 4d cc             	mov    -0x34(%ebp),%ecx
    446e:	74 38                	je     44a8 <parse_transform+0xf8>
    4470:	8b 03                	mov    (%ebx),%eax
    4472:	85 c0                	test   %eax,%eax
    4474:	0f 85 c9 00 00 00    	jne    4543 <parse_transform+0x193>
    447a:	8d 14 37             	lea    (%edi,%esi,1),%edx
    447d:	89 d8                	mov    %ebx,%eax
    447f:	89 55 d0             	mov    %edx,-0x30(%ebp)
    4482:	e8 39 ee ff ff       	call   32c0 <parse_transform_no_compose>
    4487:	8b 55 d0             	mov    -0x30(%ebp),%edx
    448a:	83 c6 04             	add    $0x4,%esi
    448d:	83 bb 20 10 00 00 89 	cmpl   $0xffffff89,0x1020(%ebx)
    4494:	89 02                	mov    %eax,(%edx)
    4496:	8b 55 d4             	mov    -0x2c(%ebp),%edx
    4499:	0f 85 c1 00 00 00    	jne    4560 <parse_transform+0x1b0>
    449f:	89 f9                	mov    %edi,%ecx
    44a1:	e9 3a ff ff ff       	jmp    43e0 <parse_transform+0x30>
    44a6:	66 90                	xchg   %ax,%ax
    44a8:	8b 03                	mov    (%ebx),%eax
    44aa:	85 c0                	test   %eax,%eax
    44ac:	0f 85 50 ff ff ff    	jne    4402 <parse_transform+0x52>
    44b2:	83 bb 20 10 00 00 86 	cmpl   $0xffffff86,0x1020(%ebx)
    44b9:	74 43                	je     44fe <parse_transform+0x14e>
    44bb:	c7 83 20 10 00 00 80 	movl   $0xffffff80,0x1020(%ebx)
    44c2:	ff ff ff 
    44c5:	c7 03 fe ff ff ff    	movl   $0xfffffffe,(%ebx)
    44cb:	e9 32 ff ff ff       	jmp    4402 <parse_transform+0x52>
    44d0:	89 0c 24             	mov    %ecx,(%esp)
    44d3:	e8 08 bd 01 00       	call   201e0 <free>
    44d8:	8b 45 e4             	mov    -0x1c(%ebp),%eax
    44db:	85 c0                	test   %eax,%eax
    44dd:	74 15                	je     44f4 <parse_transform+0x144>
    44df:	8b 08                	mov    (%eax),%ecx
    44e1:	85 c9                	test   %ecx,%ecx
    44e3:	74 3d                	je     4522 <parse_transform+0x172>
    44e5:	8b 50 04             	mov    0x4(%eax),%edx
    44e8:	85 d2                	test   %edx,%edx
    44ea:	74 3b                	je     4527 <parse_transform+0x177>
    44ec:	4a                   	dec    %edx
    44ed:	89 50 04             	mov    %edx,0x4(%eax)
    44f0:	85 d2                	test   %edx,%edx
    44f2:	74 26                	je     451a <parse_transform+0x16a>
    44f4:	31 c0                	xor    %eax,%eax
    44f6:	83 c4 3c             	add    $0x3c,%esp
    44f9:	5b                   	pop    %ebx
    44fa:	5e                   	pop    %esi
    44fb:	5f                   	pop    %edi
    44fc:	5d                   	pop    %ebp
    44fd:	c3                   	ret    
    44fe:	8b 83 24 10 00 00    	mov    0x1024(%ebx),%eax
    4504:	89 55 d0             	mov    %edx,-0x30(%ebp)
    4507:	89 04 24             	mov    %eax,(%esp)
    450a:	89 4d cc             	mov    %ecx,-0x34(%ebp)
    450d:	e8 ce bc 01 00       	call   201e0 <free>
    4512:	8b 4d cc             	mov    -0x34(%ebp),%ecx
    4515:	8b 55 d0             	mov    -0x30(%ebp),%edx
    4518:	eb a1                	jmp    44bb <parse_transform+0x10b>
    451a:	89 04 24             	mov    %eax,(%esp)
    451d:	ff 51 0c             	call   *0xc(%ecx)
    4520:	eb d2                	jmp    44f4 <parse_transform+0x144>
    4522:	e8 f9 16 00 00       	call   5c20 <bithenge_transform_dec_ref.part.8>
    4527:	c7 44 24 08 75 00 00 	movl   $0x75,0x8(%esp)
    452e:	00 
    452f:	c7 44 24 04 ca ce 02 	movl   $0x2ceca,0x4(%esp)
    4536:	00 
    4537:	c7 04 24 c3 cc 02 00 	movl   $0x2ccc3,(%esp)
    453e:	e8 6d 63 02 00       	call   2a8b0 <assert_abort>
    4543:	89 f9                	mov    %edi,%ecx
    4545:	e9 b8 fe ff ff       	jmp    4402 <parse_transform+0x52>
    454a:	8b 0b                	mov    (%ebx),%ecx
    454c:	85 c9                	test   %ecx,%ecx
    454e:	74 a6                	je     44f6 <parse_transform+0x146>
    4550:	31 db                	xor    %ebx,%ebx
    4552:	ba 01 00 00 00       	mov    $0x1,%edx
    4557:	31 c9                	xor    %ecx,%ecx
    4559:	e9 a9 fe ff ff       	jmp    4407 <parse_transform+0x57>
    455e:	66 90                	xchg   %ax,%ax
    4560:	8b 03                	mov    (%ebx),%eax
    4562:	85 c0                	test   %eax,%eax
    4564:	75 63                	jne    45c9 <parse_transform+0x219>
    4566:	8b 45 e4             	mov    -0x1c(%ebp),%eax
    4569:	89 07                	mov    %eax,(%edi)
    456b:	8d 45 e4             	lea    -0x1c(%ebp),%eax
    456e:	89 54 24 08          	mov    %edx,0x8(%esp)
    4572:	89 7c 24 04          	mov    %edi,0x4(%esp)
    4576:	89 04 24             	mov    %eax,(%esp)
    4579:	e8 62 7b 00 00       	call   c0e0 <bithenge_new_composed_transform>
    457e:	85 c0                	test   %eax,%eax
    4580:	75 0b                	jne    458d <parse_transform+0x1dd>
    4582:	8b 45 e4             	mov    -0x1c(%ebp),%eax
    4585:	83 c4 3c             	add    $0x3c,%esp
    4588:	5b                   	pop    %ebx
    4589:	5e                   	pop    %esi
    458a:	5f                   	pop    %edi
    458b:	5d                   	pop    %ebp
    458c:	c3                   	ret    
    458d:	8b 33                	mov    (%ebx),%esi
    458f:	85 f6                	test   %esi,%esi
    4591:	0f 85 5d ff ff ff    	jne    44f4 <parse_transform+0x144>
    4597:	83 bb 20 10 00 00 86 	cmpl   $0xffffff86,0x1020(%ebx)
    459e:	74 13                	je     45b3 <parse_transform+0x203>
    45a0:	89 03                	mov    %eax,(%ebx)
    45a2:	c7 83 20 10 00 00 80 	movl   $0xffffff80,0x1020(%ebx)
    45a9:	ff ff ff 
    45ac:	31 c0                	xor    %eax,%eax
    45ae:	e9 43 ff ff ff       	jmp    44f6 <parse_transform+0x146>
    45b3:	8b 93 24 10 00 00    	mov    0x1024(%ebx),%edx
    45b9:	89 45 d0             	mov    %eax,-0x30(%ebp)
    45bc:	89 14 24             	mov    %edx,(%esp)
    45bf:	e8 1c bc 01 00       	call   201e0 <free>
    45c4:	8b 45 d0             	mov    -0x30(%ebp),%eax
    45c7:	eb d7                	jmp    45a0 <parse_transform+0x1f0>
    45c9:	b3 01                	mov    $0x1,%bl
    45cb:	89 f9                	mov    %edi,%ecx
    45cd:	e9 35 fe ff ff       	jmp    4407 <parse_transform+0x57>
    45d2:	8d b4 26 00 00 00 00 	lea    0x0(%esi,%eiz,1),%esi
    45d9:	8d bc 27 00 00 00 00 	lea    0x0(%edi,%eiz,1),%edi

000045e0 <parse_struct>:
    45e0:	55                   	push   %ebp
    45e1:	89 e5                	mov    %esp,%ebp
    45e3:	57                   	push   %edi
    45e4:	56                   	push   %esi
    45e5:	53                   	push   %ebx
    45e6:	83 ec 5c             	sub    $0x5c,%esp
    45e9:	89 c7                	mov    %eax,%edi
    45eb:	8b 10                	mov    (%eax),%edx
    45ed:	85 d2                	test   %edx,%edx
    45ef:	0f 85 33 08 00 00    	jne    4e28 <parse_struct+0x848>
    45f5:	c7 04 24 08 00 00 00 	movl   $0x8,(%esp)
    45fc:	e8 cf ba 01 00       	call   200d0 <malloc>
    4601:	8b 17                	mov    (%edi),%edx
    4603:	89 45 c0             	mov    %eax,-0x40(%ebp)
    4606:	85 c0                	test   %eax,%eax
    4608:	0f 84 99 08 00 00    	je     4ea7 <parse_struct+0x8c7>
    460e:	c7 45 d0 00 00 00 00 	movl   $0x0,-0x30(%ebp)
    4615:	c7 45 cc 01 00 00 00 	movl   $0x1,-0x34(%ebp)
    461c:	eb 41                	jmp    465f <parse_struct+0x7f>
    461e:	66 90                	xchg   %ax,%ax
    4620:	8b 07                	mov    (%edi),%eax
    4622:	85 c0                	test   %eax,%eax
    4624:	75 0c                	jne    4632 <parse_struct+0x52>
    4626:	ba 4a cf 02 00       	mov    $0x2cf4a,%edx
    462b:	89 f8                	mov    %edi,%eax
    462d:	e8 6e d8 ff ff       	call   1ea0 <syntax_error.part.2>
    4632:	89 f8                	mov    %edi,%eax
    4634:	e8 77 fd ff ff       	call   43b0 <parse_transform>
    4639:	83 bf 20 10 00 00 3b 	cmpl   $0x3b,0x1020(%edi)
    4640:	89 43 04             	mov    %eax,0x4(%ebx)
    4643:	74 73                	je     46b8 <parse_struct+0xd8>
    4645:	8b 17                	mov    (%edi),%edx
    4647:	85 d2                	test   %edx,%edx
    4649:	0f 84 a1 00 00 00    	je     46f0 <parse_struct+0x110>
    464f:	8b 45 cc             	mov    -0x34(%ebp),%eax
    4652:	40                   	inc    %eax
    4653:	89 45 cc             	mov    %eax,-0x34(%ebp)
    4656:	8b 45 d0             	mov    -0x30(%ebp),%eax
    4659:	83 c0 08             	add    $0x8,%eax
    465c:	89 45 d0             	mov    %eax,-0x30(%ebp)
    465f:	8b 4d cc             	mov    -0x34(%ebp),%ecx
    4662:	49                   	dec    %ecx
    4663:	85 d2                	test   %edx,%edx
    4665:	0f 85 ad 02 00 00    	jne    4918 <parse_struct+0x338>
    466b:	8b 87 20 10 00 00    	mov    0x1020(%edi),%eax
    4671:	83 f8 7d             	cmp    $0x7d,%eax
    4674:	0f 84 d6 06 00 00    	je     4d50 <parse_struct+0x770>
    467a:	83 f8 90             	cmp    $0xffffff90,%eax
    467d:	0f 84 7d 00 00 00    	je     4700 <parse_struct+0x120>
    4683:	83 f8 95             	cmp    $0xffffff95,%eax
    4686:	0f 84 9c 00 00 00    	je     4728 <parse_struct+0x148>
    468c:	83 f8 2e             	cmp    $0x2e,%eax
    468f:	0f 84 3b 02 00 00    	je     48d0 <parse_struct+0x2f0>
    4695:	8b 5d c0             	mov    -0x40(%ebp),%ebx
    4698:	8b 55 d0             	mov    -0x30(%ebp),%edx
    469b:	01 d3                	add    %edx,%ebx
    469d:	c7 03 00 00 00 00    	movl   $0x0,(%ebx)
    46a3:	83 f8 89             	cmp    $0xffffff89,%eax
    46a6:	0f 85 74 ff ff ff    	jne    4620 <parse_struct+0x40>
    46ac:	89 f8                	mov    %edi,%eax
    46ae:	e8 ed d8 ff ff       	call   1fa0 <next_token>
    46b3:	e9 7a ff ff ff       	jmp    4632 <parse_struct+0x52>
    46b8:	89 f8                	mov    %edi,%eax
    46ba:	e8 e1 d8 ff ff       	call   1fa0 <next_token>
    46bf:	8b 17                	mov    (%edi),%edx
    46c1:	85 d2                	test   %edx,%edx
    46c3:	75 8a                	jne    464f <parse_struct+0x6f>
    46c5:	8b 45 d0             	mov    -0x30(%ebp),%eax
    46c8:	83 c0 10             	add    $0x10,%eax
    46cb:	89 44 24 04          	mov    %eax,0x4(%esp)
    46cf:	8b 45 c0             	mov    -0x40(%ebp),%eax
    46d2:	89 04 24             	mov    %eax,(%esp)
    46d5:	e8 56 bd 01 00       	call   20430 <realloc>
    46da:	8b 17                	mov    (%edi),%edx
    46dc:	85 c0                	test   %eax,%eax
    46de:	0f 84 dc 06 00 00    	je     4dc0 <parse_struct+0x7e0>
    46e4:	89 45 c0             	mov    %eax,-0x40(%ebp)
    46e7:	e9 63 ff ff ff       	jmp    464f <parse_struct+0x6f>
    46ec:	8d 74 26 00          	lea    0x0(%esi,%eiz,1),%esi
    46f0:	ba 4a cf 02 00       	mov    $0x2cf4a,%edx
    46f5:	89 f8                	mov    %edi,%eax
    46f7:	e8 a4 d7 ff ff       	call   1ea0 <syntax_error.part.2>
    46fc:	8b 17                	mov    (%edi),%edx
    46fe:	eb c1                	jmp    46c1 <parse_struct+0xe1>
    4700:	ba 01 00 00 00       	mov    $0x1,%edx
    4705:	89 f8                	mov    %edi,%eax
    4707:	8b 5d c0             	mov    -0x40(%ebp),%ebx
    470a:	8b 75 d0             	mov    -0x30(%ebp),%esi
    470d:	e8 be 08 00 00       	call   4fd0 <parse_if>
    4712:	01 f3                	add    %esi,%ebx
    4714:	8b 17                	mov    (%edi),%edx
    4716:	89 43 04             	mov    %eax,0x4(%ebx)
    4719:	c7 03 00 00 00 00    	movl   $0x0,(%ebx)
    471f:	eb a0                	jmp    46c1 <parse_struct+0xe1>
    4721:	8d b4 26 00 00 00 00 	lea    0x0(%esi,%eiz,1),%esi
    4728:	8b 45 c0             	mov    -0x40(%ebp),%eax
    472b:	8b 5d d0             	mov    -0x30(%ebp),%ebx
    472e:	01 d8                	add    %ebx,%eax
    4730:	89 45 b4             	mov    %eax,-0x4c(%ebp)
    4733:	89 f8                	mov    %edi,%eax
    4735:	e8 66 d8 ff ff       	call   1fa0 <next_token>
    473a:	83 bf 20 10 00 00 28 	cmpl   $0x28,0x1020(%edi)
    4741:	0f 84 59 06 00 00    	je     4da0 <parse_struct+0x7c0>
    4747:	8b 0f                	mov    (%edi),%ecx
    4749:	85 c9                	test   %ecx,%ecx
    474b:	0f 84 97 03 00 00    	je     4ae8 <parse_struct+0x508>
    4751:	31 d2                	xor    %edx,%edx
    4753:	89 f8                	mov    %edi,%eax
    4755:	e8 16 e1 ff ff       	call   2870 <parse_expression_precedence>
    475a:	89 45 bc             	mov    %eax,-0x44(%ebp)
    475d:	8b 87 20 10 00 00    	mov    0x1020(%edi),%eax
    4763:	83 f8 29             	cmp    $0x29,%eax
    4766:	0f 84 1c 06 00 00    	je     4d88 <parse_struct+0x7a8>
    476c:	8b 17                	mov    (%edi),%edx
    476e:	85 d2                	test   %edx,%edx
    4770:	0f 84 4a 03 00 00    	je     4ac0 <parse_struct+0x4e0>
    4776:	83 f8 7b             	cmp    $0x7b,%eax
    4779:	0f 84 5c 03 00 00    	je     4adb <parse_struct+0x4fb>
    477f:	8b 37                	mov    (%edi),%esi
    4781:	85 f6                	test   %esi,%esi
    4783:	0f 84 ff 01 00 00    	je     4988 <parse_struct+0x3a8>
    4789:	31 db                	xor    %ebx,%ebx
    478b:	31 f6                	xor    %esi,%esi
    478d:	c7 45 b8 00 00 00 00 	movl   $0x0,-0x48(%ebp)
    4794:	8b 45 bc             	mov    -0x44(%ebp),%eax
    4797:	85 c0                	test   %eax,%eax
    4799:	74 28                	je     47c3 <parse_struct+0x1e3>
    479b:	8b 45 bc             	mov    -0x44(%ebp),%eax
    479e:	8b 10                	mov    (%eax),%edx
    47a0:	85 d2                	test   %edx,%edx
    47a2:	0f 84 a0 07 00 00    	je     4f48 <parse_struct+0x968>
    47a8:	89 c1                	mov    %eax,%ecx
    47aa:	8b 40 04             	mov    0x4(%eax),%eax
    47ad:	85 c0                	test   %eax,%eax
    47af:	0f 84 98 07 00 00    	je     4f4d <parse_struct+0x96d>
    47b5:	48                   	dec    %eax
    47b6:	89 41 04             	mov    %eax,0x4(%ecx)
    47b9:	85 c0                	test   %eax,%eax
    47bb:	75 06                	jne    47c3 <parse_struct+0x1e3>
    47bd:	89 0c 24             	mov    %ecx,(%esp)
    47c0:	ff 52 04             	call   *0x4(%edx)
    47c3:	8b 0d 38 03 03 00    	mov    0x30338,%ecx
    47c9:	c7 45 e4 34 03 03 00 	movl   $0x30334,-0x1c(%ebp)
    47d0:	41                   	inc    %ecx
    47d1:	8b 07                	mov    (%edi),%eax
    47d3:	89 0d 38 03 03 00    	mov    %ecx,0x30338
    47d9:	85 c0                	test   %eax,%eax
    47db:	75 3b                	jne    4818 <parse_struct+0x238>
    47dd:	85 db                	test   %ebx,%ebx
    47df:	0f 84 9f 00 00 00    	je     4884 <parse_struct+0x2a4>
    47e5:	4b                   	dec    %ebx
    47e6:	8b 45 e4             	mov    -0x1c(%ebp),%eax
    47e9:	89 44 24 0c          	mov    %eax,0xc(%esp)
    47ed:	8b 55 b8             	mov    -0x48(%ebp),%edx
    47f0:	8b 04 9e             	mov    (%esi,%ebx,4),%eax
    47f3:	8d 4d e4             	lea    -0x1c(%ebp),%ecx
    47f6:	89 44 24 08          	mov    %eax,0x8(%esp)
    47fa:	8b 04 9a             	mov    (%edx,%ebx,4),%eax
    47fd:	89 0c 24             	mov    %ecx,(%esp)
    4800:	89 44 24 04          	mov    %eax,0x4(%esp)
    4804:	e8 e7 79 00 00       	call   c1f0 <bithenge_if_transform>
    4809:	85 c0                	test   %eax,%eax
    480b:	0f 85 3f 04 00 00    	jne    4c50 <parse_struct+0x670>
    4811:	8b 07                	mov    (%edi),%eax
    4813:	85 c0                	test   %eax,%eax
    4815:	74 c6                	je     47dd <parse_struct+0x1fd>
    4817:	90                   	nop
    4818:	85 db                	test   %ebx,%ebx
    481a:	74 68                	je     4884 <parse_struct+0x2a4>
    481c:	89 7d d4             	mov    %edi,-0x2c(%ebp)
    481f:	8b 7d b8             	mov    -0x48(%ebp),%edi
    4822:	8d b6 00 00 00 00    	lea    0x0(%esi),%esi
    4828:	4b                   	dec    %ebx
    4829:	8b 04 9f             	mov    (%edi,%ebx,4),%eax
    482c:	85 c0                	test   %eax,%eax
    482e:	74 23                	je     4853 <parse_struct+0x273>
    4830:	8b 08                	mov    (%eax),%ecx
    4832:	85 c9                	test   %ecx,%ecx
    4834:	0f 84 0e 07 00 00    	je     4f48 <parse_struct+0x968>
    483a:	8b 50 04             	mov    0x4(%eax),%edx
    483d:	85 d2                	test   %edx,%edx
    483f:	0f 84 08 07 00 00    	je     4f4d <parse_struct+0x96d>
    4845:	4a                   	dec    %edx
    4846:	89 50 04             	mov    %edx,0x4(%eax)
    4849:	85 d2                	test   %edx,%edx
    484b:	75 06                	jne    4853 <parse_struct+0x273>
    484d:	89 04 24             	mov    %eax,(%esp)
    4850:	ff 51 04             	call   *0x4(%ecx)
    4853:	8b 04 9e             	mov    (%esi,%ebx,4),%eax
    4856:	85 c0                	test   %eax,%eax
    4858:	74 23                	je     487d <parse_struct+0x29d>
    485a:	8b 08                	mov    (%eax),%ecx
    485c:	85 c9                	test   %ecx,%ecx
    485e:	0f 84 df 06 00 00    	je     4f43 <parse_struct+0x963>
    4864:	8b 50 04             	mov    0x4(%eax),%edx
    4867:	85 d2                	test   %edx,%edx
    4869:	0f 84 b8 06 00 00    	je     4f27 <parse_struct+0x947>
    486f:	4a                   	dec    %edx
    4870:	89 50 04             	mov    %edx,0x4(%eax)
    4873:	85 d2                	test   %edx,%edx
    4875:	75 06                	jne    487d <parse_struct+0x29d>
    4877:	89 04 24             	mov    %eax,(%esp)
    487a:	ff 51 0c             	call   *0xc(%ecx)
    487d:	85 db                	test   %ebx,%ebx
    487f:	75 a7                	jne    4828 <parse_struct+0x248>
    4881:	8b 7d d4             	mov    -0x2c(%ebp),%edi
    4884:	8b 45 b8             	mov    -0x48(%ebp),%eax
    4887:	89 04 24             	mov    %eax,(%esp)
    488a:	e8 51 b9 01 00       	call   201e0 <free>
    488f:	89 34 24             	mov    %esi,(%esp)
    4892:	e8 49 b9 01 00       	call   201e0 <free>
    4897:	83 bf 20 10 00 00 7d 	cmpl   $0x7d,0x1020(%edi)
    489e:	0f 84 0c 05 00 00    	je     4db0 <parse_struct+0x7d0>
    48a4:	8b 17                	mov    (%edi),%edx
    48a6:	85 d2                	test   %edx,%edx
    48a8:	75 0e                	jne    48b8 <parse_struct+0x2d8>
    48aa:	ba 4a cf 02 00       	mov    $0x2cf4a,%edx
    48af:	89 f8                	mov    %edi,%eax
    48b1:	e8 ea d5 ff ff       	call   1ea0 <syntax_error.part.2>
    48b6:	8b 17                	mov    (%edi),%edx
    48b8:	8b 4d b4             	mov    -0x4c(%ebp),%ecx
    48bb:	8b 45 e4             	mov    -0x1c(%ebp),%eax
    48be:	89 41 04             	mov    %eax,0x4(%ecx)
    48c1:	c7 01 00 00 00 00    	movl   $0x0,(%ecx)
    48c7:	e9 f5 fd ff ff       	jmp    46c1 <parse_struct+0xe1>
    48cc:	8d 74 26 00          	lea    0x0(%esi,%eiz,1),%esi
    48d0:	89 f8                	mov    %edi,%eax
    48d2:	e8 c9 d6 ff ff       	call   1fa0 <next_token>
    48d7:	8b 5d c0             	mov    -0x40(%ebp),%ebx
    48da:	8b 75 d0             	mov    -0x30(%ebp),%esi
    48dd:	8b 87 20 10 00 00    	mov    0x1020(%edi),%eax
    48e3:	01 f3                	add    %esi,%ebx
    48e5:	83 f8 86             	cmp    $0xffffff86,%eax
    48e8:	0f 85 12 05 00 00    	jne    4e00 <parse_struct+0x820>
    48ee:	8b b7 24 10 00 00    	mov    0x1024(%edi),%esi
    48f4:	89 f8                	mov    %edi,%eax
    48f6:	c7 87 24 10 00 00 00 	movl   $0x0,0x1024(%edi)
    48fd:	00 00 00 
    4900:	e8 9b d6 ff ff       	call   1fa0 <next_token>
    4905:	8b 87 20 10 00 00    	mov    0x1020(%edi),%eax
    490b:	89 33                	mov    %esi,(%ebx)
    490d:	e9 91 fd ff ff       	jmp    46a3 <parse_struct+0xc3>
    4912:	8d b6 00 00 00 00    	lea    0x0(%esi),%esi
    4918:	8b 5d cc             	mov    -0x34(%ebp),%ebx
    491b:	8b 75 c0             	mov    -0x40(%ebp),%esi
    491e:	83 eb 02             	sub    $0x2,%ebx
    4921:	83 fb ff             	cmp    $0xffffffff,%ebx
    4924:	74 38                	je     495e <parse_struct+0x37e>
    4926:	66 90                	xchg   %ax,%ax
    4928:	8b 04 de             	mov    (%esi,%ebx,8),%eax
    492b:	89 04 24             	mov    %eax,(%esp)
    492e:	e8 ad b8 01 00       	call   201e0 <free>
    4933:	8b 44 de 04          	mov    0x4(%esi,%ebx,8),%eax
    4937:	85 c0                	test   %eax,%eax
    4939:	74 1d                	je     4958 <parse_struct+0x378>
    493b:	8b 08                	mov    (%eax),%ecx
    493d:	85 c9                	test   %ecx,%ecx
    493f:	0f 84 fe 05 00 00    	je     4f43 <parse_struct+0x963>
    4945:	8b 50 04             	mov    0x4(%eax),%edx
    4948:	85 d2                	test   %edx,%edx
    494a:	0f 84 d7 05 00 00    	je     4f27 <parse_struct+0x947>
    4950:	4a                   	dec    %edx
    4951:	89 50 04             	mov    %edx,0x4(%eax)
    4954:	85 d2                	test   %edx,%edx
    4956:	74 20                	je     4978 <parse_struct+0x398>
    4958:	4b                   	dec    %ebx
    4959:	83 fb ff             	cmp    $0xffffffff,%ebx
    495c:	75 ca                	jne    4928 <parse_struct+0x348>
    495e:	8b 45 c0             	mov    -0x40(%ebp),%eax
    4961:	89 04 24             	mov    %eax,(%esp)
    4964:	e8 77 b8 01 00       	call   201e0 <free>
    4969:	83 c4 5c             	add    $0x5c,%esp
    496c:	31 c0                	xor    %eax,%eax
    496e:	5b                   	pop    %ebx
    496f:	5e                   	pop    %esi
    4970:	5f                   	pop    %edi
    4971:	5d                   	pop    %ebp
    4972:	c3                   	ret    
    4973:	90                   	nop
    4974:	8d 74 26 00          	lea    0x0(%esi,%eiz,1),%esi
    4978:	89 04 24             	mov    %eax,(%esp)
    497b:	4b                   	dec    %ebx
    497c:	ff 51 0c             	call   *0xc(%ecx)
    497f:	eb d8                	jmp    4959 <parse_struct+0x379>
    4981:	8d b4 26 00 00 00 00 	lea    0x0(%esi,%eiz,1),%esi
    4988:	ba 4a cf 02 00       	mov    $0x2cf4a,%edx
    498d:	89 f8                	mov    %edi,%eax
    498f:	e8 0c d5 ff ff       	call   1ea0 <syntax_error.part.2>
    4994:	8b 1f                	mov    (%edi),%ebx
    4996:	85 db                	test   %ebx,%ebx
    4998:	0f 85 eb fd ff ff    	jne    4789 <parse_struct+0x1a9>
    499e:	8b 87 20 10 00 00    	mov    0x1020(%edi),%eax
    49a4:	83 f8 7d             	cmp    $0x7d,%eax
    49a7:	0f 84 dc fd ff ff    	je     4789 <parse_struct+0x1a9>
    49ad:	89 c1                	mov    %eax,%ecx
    49af:	31 f6                	xor    %esi,%esi
    49b1:	c7 45 c8 00 00 00 00 	movl   $0x0,-0x38(%ebp)
    49b8:	c7 45 d4 00 00 00 00 	movl   $0x0,-0x2c(%ebp)
    49bf:	83 f9 8e             	cmp    $0xffffff8e,%ecx
    49c2:	0f 84 10 02 00 00    	je     4bd8 <parse_struct+0x5f8>
    49c8:	31 d2                	xor    %edx,%edx
    49ca:	89 f8                	mov    %edi,%eax
    49cc:	e8 9f de ff ff       	call   2870 <parse_expression_precedence>
    49d1:	8b 17                	mov    (%edi),%edx
    49d3:	89 45 e0             	mov    %eax,-0x20(%ebp)
    49d6:	85 d2                	test   %edx,%edx
    49d8:	0f 84 a2 02 00 00    	je     4c80 <parse_struct+0x6a0>
    49de:	8b 87 20 10 00 00    	mov    0x1020(%edi),%eax
    49e4:	83 f8 3a             	cmp    $0x3a,%eax
    49e7:	0f 84 23 01 00 00    	je     4b10 <parse_struct+0x530>
    49ed:	8b 1f                	mov    (%edi),%ebx
    49ef:	85 db                	test   %ebx,%ebx
    49f1:	75 12                	jne    4a05 <parse_struct+0x425>
    49f3:	89 f8                	mov    %edi,%eax
    49f5:	ba 4a cf 02 00       	mov    $0x2cf4a,%edx
    49fa:	e8 a1 d4 ff ff       	call   1ea0 <syntax_error.part.2>
    49ff:	8b 87 20 10 00 00    	mov    0x1020(%edi),%eax
    4a05:	83 f8 7b             	cmp    $0x7b,%eax
    4a08:	0f 84 f2 00 00 00    	je     4b00 <parse_struct+0x520>
    4a0e:	8b 0f                	mov    (%edi),%ecx
    4a10:	85 c9                	test   %ecx,%ecx
    4a12:	75 0c                	jne    4a20 <parse_struct+0x440>
    4a14:	ba 4a cf 02 00       	mov    $0x2cf4a,%edx
    4a19:	89 f8                	mov    %edi,%eax
    4a1b:	e8 80 d4 ff ff       	call   1ea0 <syntax_error.part.2>
    4a20:	89 f8                	mov    %edi,%eax
    4a22:	e8 b9 fb ff ff       	call   45e0 <parse_struct>
    4a27:	89 c3                	mov    %eax,%ebx
    4a29:	8b 87 20 10 00 00    	mov    0x1020(%edi),%eax
    4a2f:	83 f8 7d             	cmp    $0x7d,%eax
    4a32:	0f 84 f0 00 00 00    	je     4b28 <parse_struct+0x548>
    4a38:	8b 17                	mov    (%edi),%edx
    4a3a:	85 d2                	test   %edx,%edx
    4a3c:	75 12                	jne    4a50 <parse_struct+0x470>
    4a3e:	89 f8                	mov    %edi,%eax
    4a40:	ba 4a cf 02 00       	mov    $0x2cf4a,%edx
    4a45:	e8 56 d4 ff ff       	call   1ea0 <syntax_error.part.2>
    4a4a:	8b 87 20 10 00 00    	mov    0x1020(%edi),%eax
    4a50:	83 f8 3b             	cmp    $0x3b,%eax
    4a53:	0f 84 e5 00 00 00    	je     4b3e <parse_struct+0x55e>
    4a59:	8b 07                	mov    (%edi),%eax
    4a5b:	85 c0                	test   %eax,%eax
    4a5d:	0f 84 d5 01 00 00    	je     4c38 <parse_struct+0x658>
    4a63:	8b 45 e0             	mov    -0x20(%ebp),%eax
    4a66:	85 c0                	test   %eax,%eax
    4a68:	74 21                	je     4a8b <parse_struct+0x4ab>
    4a6a:	8b 08                	mov    (%eax),%ecx
    4a6c:	85 c9                	test   %ecx,%ecx
    4a6e:	0f 84 d4 04 00 00    	je     4f48 <parse_struct+0x968>
    4a74:	8b 50 04             	mov    0x4(%eax),%edx
    4a77:	85 d2                	test   %edx,%edx
    4a79:	0f 84 ce 04 00 00    	je     4f4d <parse_struct+0x96d>
    4a7f:	4a                   	dec    %edx
    4a80:	89 50 04             	mov    %edx,0x4(%eax)
    4a83:	85 d2                	test   %edx,%edx
    4a85:	0f 84 ba 03 00 00    	je     4e45 <parse_struct+0x865>
    4a8b:	85 db                	test   %ebx,%ebx
    4a8d:	74 21                	je     4ab0 <parse_struct+0x4d0>
    4a8f:	8b 13                	mov    (%ebx),%edx
    4a91:	85 d2                	test   %edx,%edx
    4a93:	0f 84 aa 04 00 00    	je     4f43 <parse_struct+0x963>
    4a99:	8b 43 04             	mov    0x4(%ebx),%eax
    4a9c:	85 c0                	test   %eax,%eax
    4a9e:	0f 84 83 04 00 00    	je     4f27 <parse_struct+0x947>
    4aa4:	48                   	dec    %eax
    4aa5:	89 43 04             	mov    %eax,0x4(%ebx)
    4aa8:	85 c0                	test   %eax,%eax
    4aaa:	0f 84 84 03 00 00    	je     4e34 <parse_struct+0x854>
    4ab0:	8b 4d c8             	mov    -0x38(%ebp),%ecx
    4ab3:	89 4d b8             	mov    %ecx,-0x48(%ebp)
    4ab6:	8b 5d d4             	mov    -0x2c(%ebp),%ebx
    4ab9:	e9 d6 fc ff ff       	jmp    4794 <parse_struct+0x1b4>
    4abe:	66 90                	xchg   %ax,%ax
    4ac0:	89 f8                	mov    %edi,%eax
    4ac2:	ba 4a cf 02 00       	mov    $0x2cf4a,%edx
    4ac7:	e8 d4 d3 ff ff       	call   1ea0 <syntax_error.part.2>
    4acc:	8b 87 20 10 00 00    	mov    0x1020(%edi),%eax
    4ad2:	83 f8 7b             	cmp    $0x7b,%eax
    4ad5:	0f 85 a4 fc ff ff    	jne    477f <parse_struct+0x19f>
    4adb:	89 f8                	mov    %edi,%eax
    4add:	e8 be d4 ff ff       	call   1fa0 <next_token>
    4ae2:	e9 ad fe ff ff       	jmp    4994 <parse_struct+0x3b4>
    4ae7:	90                   	nop
    4ae8:	ba 4a cf 02 00       	mov    $0x2cf4a,%edx
    4aed:	89 f8                	mov    %edi,%eax
    4aef:	e8 ac d3 ff ff       	call   1ea0 <syntax_error.part.2>
    4af4:	e9 58 fc ff ff       	jmp    4751 <parse_struct+0x171>
    4af9:	8d b4 26 00 00 00 00 	lea    0x0(%esi,%eiz,1),%esi
    4b00:	89 f8                	mov    %edi,%eax
    4b02:	e8 99 d4 ff ff       	call   1fa0 <next_token>
    4b07:	e9 14 ff ff ff       	jmp    4a20 <parse_struct+0x440>
    4b0c:	8d 74 26 00          	lea    0x0(%esi,%eiz,1),%esi
    4b10:	89 f8                	mov    %edi,%eax
    4b12:	e8 89 d4 ff ff       	call   1fa0 <next_token>
    4b17:	8b 87 20 10 00 00    	mov    0x1020(%edi),%eax
    4b1d:	e9 e3 fe ff ff       	jmp    4a05 <parse_struct+0x425>
    4b22:	8d b6 00 00 00 00    	lea    0x0(%esi),%esi
    4b28:	89 f8                	mov    %edi,%eax
    4b2a:	e8 71 d4 ff ff       	call   1fa0 <next_token>
    4b2f:	8b 87 20 10 00 00    	mov    0x1020(%edi),%eax
    4b35:	83 f8 3b             	cmp    $0x3b,%eax
    4b38:	0f 85 1b ff ff ff    	jne    4a59 <parse_struct+0x479>
    4b3e:	89 f8                	mov    %edi,%eax
    4b40:	e8 5b d4 ff ff       	call   1fa0 <next_token>
    4b45:	8b 07                	mov    (%edi),%eax
    4b47:	85 c0                	test   %eax,%eax
    4b49:	0f 85 14 ff ff ff    	jne    4a63 <parse_struct+0x483>
    4b4f:	8b 4d d4             	mov    -0x2c(%ebp),%ecx
    4b52:	8b 45 c8             	mov    -0x38(%ebp),%eax
    4b55:	41                   	inc    %ecx
    4b56:	89 04 24             	mov    %eax,(%esp)
    4b59:	89 4d ac             	mov    %ecx,-0x54(%ebp)
    4b5c:	c1 e1 02             	shl    $0x2,%ecx
    4b5f:	89 4c 24 04          	mov    %ecx,0x4(%esp)
    4b63:	89 4d b0             	mov    %ecx,-0x50(%ebp)
    4b66:	e8 c5 b8 01 00       	call   20430 <realloc>
    4b6b:	8b 4d b0             	mov    -0x50(%ebp),%ecx
    4b6e:	89 c2                	mov    %eax,%edx
    4b70:	85 c0                	test   %eax,%eax
    4b72:	0f 84 a8 01 00 00    	je     4d20 <parse_struct+0x740>
    4b78:	8b 07                	mov    (%edi),%eax
    4b7a:	85 c0                	test   %eax,%eax
    4b7c:	0f 85 39 04 00 00    	jne    4fbb <parse_struct+0x9db>
    4b82:	89 4c 24 04          	mov    %ecx,0x4(%esp)
    4b86:	89 34 24             	mov    %esi,(%esp)
    4b89:	89 55 b0             	mov    %edx,-0x50(%ebp)
    4b8c:	e8 9f b8 01 00       	call   20430 <realloc>
    4b91:	8b 55 b0             	mov    -0x50(%ebp),%edx
    4b94:	85 c0                	test   %eax,%eax
    4b96:	0f 84 4c 01 00 00    	je     4ce8 <parse_struct+0x708>
    4b9c:	8b 0f                	mov    (%edi),%ecx
    4b9e:	85 c9                	test   %ecx,%ecx
    4ba0:	0f 85 0b 04 00 00    	jne    4fb1 <parse_struct+0x9d1>
    4ba6:	8b 4d d4             	mov    -0x2c(%ebp),%ecx
    4ba9:	8b 75 e0             	mov    -0x20(%ebp),%esi
    4bac:	c1 e1 02             	shl    $0x2,%ecx
    4baf:	89 34 0a             	mov    %esi,(%edx,%ecx,1)
    4bb2:	89 1c 08             	mov    %ebx,(%eax,%ecx,1)
    4bb5:	8b 8f 20 10 00 00    	mov    0x1020(%edi),%ecx
    4bbb:	83 f9 7d             	cmp    $0x7d,%ecx
    4bbe:	0f 84 2c 02 00 00    	je     4df0 <parse_struct+0x810>
    4bc4:	89 55 c8             	mov    %edx,-0x38(%ebp)
    4bc7:	8b 55 ac             	mov    -0x54(%ebp),%edx
    4bca:	89 c6                	mov    %eax,%esi
    4bcc:	89 55 d4             	mov    %edx,-0x2c(%ebp)
    4bcf:	83 f9 8e             	cmp    $0xffffff8e,%ecx
    4bd2:	0f 85 f0 fd ff ff    	jne    49c8 <parse_struct+0x3e8>
    4bd8:	89 f8                	mov    %edi,%eax
    4bda:	e8 c1 d3 ff ff       	call   1fa0 <next_token>
    4bdf:	8d 4d e4             	lea    -0x1c(%ebp),%ecx
    4be2:	c7 44 24 04 01 00 00 	movl   $0x1,0x4(%esp)
    4be9:	00 
    4bea:	89 0c 24             	mov    %ecx,(%esp)
    4bed:	e8 3e 5d 00 00       	call   a930 <bithenge_new_boolean_node>
    4bf2:	85 c0                	test   %eax,%eax
    4bf4:	75 1a                	jne    4c10 <parse_struct+0x630>
    4bf6:	8b 45 e4             	mov    -0x1c(%ebp),%eax
    4bf9:	89 44 24 04          	mov    %eax,0x4(%esp)
    4bfd:	8d 45 e0             	lea    -0x20(%ebp),%eax
    4c00:	89 04 24             	mov    %eax,(%esp)
    4c03:	e8 a8 8b 00 00       	call   d7b0 <bithenge_const_expression>
    4c08:	85 c0                	test   %eax,%eax
    4c0a:	0f 84 ce fd ff ff    	je     49de <parse_struct+0x3fe>
    4c10:	8b 0f                	mov    (%edi),%ecx
    4c12:	85 c9                	test   %ecx,%ecx
    4c14:	0f 85 96 fe ff ff    	jne    4ab0 <parse_struct+0x4d0>
    4c1a:	83 bf 20 10 00 00 86 	cmpl   $0xffffff86,0x1020(%edi)
    4c21:	0f 84 ab 02 00 00    	je     4ed2 <parse_struct+0x8f2>
    4c27:	c7 87 20 10 00 00 80 	movl   $0xffffff80,0x1020(%edi)
    4c2e:	ff ff ff 
    4c31:	89 07                	mov    %eax,(%edi)
    4c33:	e9 78 fe ff ff       	jmp    4ab0 <parse_struct+0x4d0>
    4c38:	ba 4a cf 02 00       	mov    $0x2cf4a,%edx
    4c3d:	89 f8                	mov    %edi,%eax
    4c3f:	e8 5c d2 ff ff       	call   1ea0 <syntax_error.part.2>
    4c44:	e9 fc fe ff ff       	jmp    4b45 <parse_struct+0x565>
    4c49:	8d b4 26 00 00 00 00 	lea    0x0(%esi,%eiz,1),%esi
    4c50:	8b 17                	mov    (%edi),%edx
    4c52:	c7 45 e4 00 00 00 00 	movl   $0x0,-0x1c(%ebp)
    4c59:	85 d2                	test   %edx,%edx
    4c5b:	0f 85 b7 fb ff ff    	jne    4818 <parse_struct+0x238>
    4c61:	83 bf 20 10 00 00 86 	cmpl   $0xffffff86,0x1020(%edi)
    4c68:	0f 84 fa 01 00 00    	je     4e68 <parse_struct+0x888>
    4c6e:	c7 87 20 10 00 00 80 	movl   $0xffffff80,0x1020(%edi)
    4c75:	ff ff ff 
    4c78:	89 07                	mov    %eax,(%edi)
    4c7a:	e9 5a fb ff ff       	jmp    47d9 <parse_struct+0x1f9>
    4c7f:	90                   	nop
    4c80:	8b 5d bc             	mov    -0x44(%ebp),%ebx
    4c83:	85 db                	test   %ebx,%ebx
    4c85:	0f 84 f7 02 00 00    	je     4f82 <parse_struct+0x9a2>
    4c8b:	8b 55 bc             	mov    -0x44(%ebp),%edx
    4c8e:	8b 4a 04             	mov    0x4(%edx),%ecx
    4c91:	41                   	inc    %ecx
    4c92:	89 4a 04             	mov    %ecx,0x4(%edx)
    4c95:	8d 4d e0             	lea    -0x20(%ebp),%ecx
    4c98:	89 44 24 0c          	mov    %eax,0xc(%esp)
    4c9c:	89 54 24 08          	mov    %edx,0x8(%esp)
    4ca0:	c7 44 24 04 0a 00 00 	movl   $0xa,0x4(%esp)
    4ca7:	00 
    4ca8:	89 0c 24             	mov    %ecx,(%esp)
    4cab:	e8 b0 89 00 00       	call   d660 <bithenge_binary_expression>
    4cb0:	85 c0                	test   %eax,%eax
    4cb2:	0f 84 26 fd ff ff    	je     49de <parse_struct+0x3fe>
    4cb8:	8b 17                	mov    (%edi),%edx
    4cba:	85 d2                	test   %edx,%edx
    4cbc:	0f 85 ee fd ff ff    	jne    4ab0 <parse_struct+0x4d0>
    4cc2:	83 bf 20 10 00 00 86 	cmpl   $0xffffff86,0x1020(%edi)
    4cc9:	0f 84 9a 02 00 00    	je     4f69 <parse_struct+0x989>
    4ccf:	8b 4d c8             	mov    -0x38(%ebp),%ecx
    4cd2:	c7 87 20 10 00 00 80 	movl   $0xffffff80,0x1020(%edi)
    4cd9:	ff ff ff 
    4cdc:	89 07                	mov    %eax,(%edi)
    4cde:	89 4d b8             	mov    %ecx,-0x48(%ebp)
    4ce1:	e9 d0 fd ff ff       	jmp    4ab6 <parse_struct+0x4d6>
    4ce6:	66 90                	xchg   %ax,%ax
    4ce8:	8b 07                	mov    (%edi),%eax
    4cea:	89 55 b8             	mov    %edx,-0x48(%ebp)
    4ced:	85 c0                	test   %eax,%eax
    4cef:	75 1d                	jne    4d0e <parse_struct+0x72e>
    4cf1:	83 bf 20 10 00 00 86 	cmpl   $0xffffff86,0x1020(%edi)
    4cf8:	0f 84 96 01 00 00    	je     4e94 <parse_struct+0x8b4>
    4cfe:	c7 87 20 10 00 00 80 	movl   $0xffffff80,0x1020(%edi)
    4d05:	ff ff ff 
    4d08:	c7 07 fe ff ff ff    	movl   $0xfffffffe,(%edi)
    4d0e:	8b 45 b8             	mov    -0x48(%ebp),%eax
    4d11:	89 45 c8             	mov    %eax,-0x38(%ebp)
    4d14:	e9 4a fd ff ff       	jmp    4a63 <parse_struct+0x483>
    4d19:	8d b4 26 00 00 00 00 	lea    0x0(%esi,%eiz,1),%esi
    4d20:	8b 07                	mov    (%edi),%eax
    4d22:	85 c0                	test   %eax,%eax
    4d24:	0f 85 39 fd ff ff    	jne    4a63 <parse_struct+0x483>
    4d2a:	83 bf 20 10 00 00 86 	cmpl   $0xffffff86,0x1020(%edi)
    4d31:	0f 84 4a 01 00 00    	je     4e81 <parse_struct+0x8a1>
    4d37:	c7 87 20 10 00 00 80 	movl   $0xffffff80,0x1020(%edi)
    4d3e:	ff ff ff 
    4d41:	c7 07 fe ff ff ff    	movl   $0xfffffffe,(%edi)
    4d47:	e9 17 fd ff ff       	jmp    4a63 <parse_struct+0x483>
    4d4c:	8d 74 26 00          	lea    0x0(%esi,%eiz,1),%esi
    4d50:	8b 55 c0             	mov    -0x40(%ebp),%edx
    4d53:	8d 04 ca             	lea    (%edx,%ecx,8),%eax
    4d56:	c7 00 00 00 00 00    	movl   $0x0,(%eax)
    4d5c:	c7 40 04 00 00 00 00 	movl   $0x0,0x4(%eax)
    4d63:	8d 45 e4             	lea    -0x1c(%ebp),%eax
    4d66:	89 54 24 04          	mov    %edx,0x4(%esp)
    4d6a:	89 04 24             	mov    %eax,(%esp)
    4d6d:	e8 9e 27 00 00       	call   7510 <bithenge_new_struct>
    4d72:	89 c3                	mov    %eax,%ebx
    4d74:	8b 45 e4             	mov    -0x1c(%ebp),%eax
    4d77:	85 db                	test   %ebx,%ebx
    4d79:	0f 85 6c 01 00 00    	jne    4eeb <parse_struct+0x90b>
    4d7f:	83 c4 5c             	add    $0x5c,%esp
    4d82:	5b                   	pop    %ebx
    4d83:	5e                   	pop    %esi
    4d84:	5f                   	pop    %edi
    4d85:	5d                   	pop    %ebp
    4d86:	c3                   	ret    
    4d87:	90                   	nop
    4d88:	89 f8                	mov    %edi,%eax
    4d8a:	e8 11 d2 ff ff       	call   1fa0 <next_token>
    4d8f:	8b 87 20 10 00 00    	mov    0x1020(%edi),%eax
    4d95:	e9 dc f9 ff ff       	jmp    4776 <parse_struct+0x196>
    4d9a:	8d b6 00 00 00 00    	lea    0x0(%esi),%esi
    4da0:	89 f8                	mov    %edi,%eax
    4da2:	e8 f9 d1 ff ff       	call   1fa0 <next_token>
    4da7:	e9 a5 f9 ff ff       	jmp    4751 <parse_struct+0x171>
    4dac:	8d 74 26 00          	lea    0x0(%esi,%eiz,1),%esi
    4db0:	89 f8                	mov    %edi,%eax
    4db2:	e8 e9 d1 ff ff       	call   1fa0 <next_token>
    4db7:	8b 17                	mov    (%edi),%edx
    4db9:	e9 fa fa ff ff       	jmp    48b8 <parse_struct+0x2d8>
    4dbe:	66 90                	xchg   %ax,%ax
    4dc0:	85 d2                	test   %edx,%edx
    4dc2:	0f 85 87 f8 ff ff    	jne    464f <parse_struct+0x6f>
    4dc8:	83 bf 20 10 00 00 86 	cmpl   $0xffffff86,0x1020(%edi)
    4dcf:	74 7f                	je     4e50 <parse_struct+0x870>
    4dd1:	c7 87 20 10 00 00 80 	movl   $0xffffff80,0x1020(%edi)
    4dd8:	ff ff ff 
    4ddb:	c7 07 fe ff ff ff    	movl   $0xfffffffe,(%edi)
    4de1:	ba fe ff ff ff       	mov    $0xfffffffe,%edx
    4de6:	e9 64 f8 ff ff       	jmp    464f <parse_struct+0x6f>
    4deb:	90                   	nop
    4dec:	8d 74 26 00          	lea    0x0(%esi,%eiz,1),%esi
    4df0:	8b 5d ac             	mov    -0x54(%ebp),%ebx
    4df3:	89 c6                	mov    %eax,%esi
    4df5:	89 55 b8             	mov    %edx,-0x48(%ebp)
    4df8:	e9 97 f9 ff ff       	jmp    4794 <parse_struct+0x1b4>
    4dfd:	8d 76 00             	lea    0x0(%esi),%esi
    4e00:	8b 0f                	mov    (%edi),%ecx
    4e02:	31 f6                	xor    %esi,%esi
    4e04:	85 c9                	test   %ecx,%ecx
    4e06:	0f 85 ff fa ff ff    	jne    490b <parse_struct+0x32b>
    4e0c:	89 f8                	mov    %edi,%eax
    4e0e:	ba c0 cf 02 00       	mov    $0x2cfc0,%edx
    4e13:	31 f6                	xor    %esi,%esi
    4e15:	e8 86 d0 ff ff       	call   1ea0 <syntax_error.part.2>
    4e1a:	8b 87 20 10 00 00    	mov    0x1020(%edi),%eax
    4e20:	89 33                	mov    %esi,(%ebx)
    4e22:	e9 7c f8 ff ff       	jmp    46a3 <parse_struct+0xc3>
    4e27:	90                   	nop
    4e28:	c7 45 c0 00 00 00 00 	movl   $0x0,-0x40(%ebp)
    4e2f:	e9 da f7 ff ff       	jmp    460e <parse_struct+0x2e>
    4e34:	89 1c 24             	mov    %ebx,(%esp)
    4e37:	ff 52 0c             	call   *0xc(%edx)
    4e3a:	8b 4d c8             	mov    -0x38(%ebp),%ecx
    4e3d:	89 4d b8             	mov    %ecx,-0x48(%ebp)
    4e40:	e9 71 fc ff ff       	jmp    4ab6 <parse_struct+0x4d6>
    4e45:	89 04 24             	mov    %eax,(%esp)
    4e48:	ff 51 04             	call   *0x4(%ecx)
    4e4b:	e9 3b fc ff ff       	jmp    4a8b <parse_struct+0x4ab>
    4e50:	8b 87 24 10 00 00    	mov    0x1024(%edi),%eax
    4e56:	89 04 24             	mov    %eax,(%esp)
    4e59:	e8 82 b3 01 00       	call   201e0 <free>
    4e5e:	e9 6e ff ff ff       	jmp    4dd1 <parse_struct+0x7f1>
    4e63:	90                   	nop
    4e64:	8d 74 26 00          	lea    0x0(%esi,%eiz,1),%esi
    4e68:	8b 97 24 10 00 00    	mov    0x1024(%edi),%edx
    4e6e:	89 45 b0             	mov    %eax,-0x50(%ebp)
    4e71:	89 14 24             	mov    %edx,(%esp)
    4e74:	e8 67 b3 01 00       	call   201e0 <free>
    4e79:	8b 45 b0             	mov    -0x50(%ebp),%eax
    4e7c:	e9 ed fd ff ff       	jmp    4c6e <parse_struct+0x68e>
    4e81:	8b 87 24 10 00 00    	mov    0x1024(%edi),%eax
    4e87:	89 04 24             	mov    %eax,(%esp)
    4e8a:	e8 51 b3 01 00       	call   201e0 <free>
    4e8f:	e9 a3 fe ff ff       	jmp    4d37 <parse_struct+0x757>
    4e94:	8b 87 24 10 00 00    	mov    0x1024(%edi),%eax
    4e9a:	89 04 24             	mov    %eax,(%esp)
    4e9d:	e8 3e b3 01 00       	call   201e0 <free>
    4ea2:	e9 57 fe ff ff       	jmp    4cfe <parse_struct+0x71e>
    4ea7:	85 d2                	test   %edx,%edx
    4ea9:	0f 85 5f f7 ff ff    	jne    460e <parse_struct+0x2e>
    4eaf:	83 bf 20 10 00 00 86 	cmpl   $0xffffff86,0x1020(%edi)
    4eb6:	74 5f                	je     4f17 <parse_struct+0x937>
    4eb8:	c7 87 20 10 00 00 80 	movl   $0xffffff80,0x1020(%edi)
    4ebf:	ff ff ff 
    4ec2:	c7 07 fe ff ff ff    	movl   $0xfffffffe,(%edi)
    4ec8:	ba fe ff ff ff       	mov    $0xfffffffe,%edx
    4ecd:	e9 3c f7 ff ff       	jmp    460e <parse_struct+0x2e>
    4ed2:	8b 97 24 10 00 00    	mov    0x1024(%edi),%edx
    4ed8:	89 45 b0             	mov    %eax,-0x50(%ebp)
    4edb:	89 14 24             	mov    %edx,(%esp)
    4ede:	e8 fd b2 01 00       	call   201e0 <free>
    4ee3:	8b 45 b0             	mov    -0x50(%ebp),%eax
    4ee6:	e9 3c fd ff ff       	jmp    4c27 <parse_struct+0x647>
    4eeb:	8b 37                	mov    (%edi),%esi
    4eed:	31 c0                	xor    %eax,%eax
    4eef:	85 f6                	test   %esi,%esi
    4ef1:	0f 85 88 fe ff ff    	jne    4d7f <parse_struct+0x79f>
    4ef7:	83 bf 20 10 00 00 86 	cmpl   $0xffffff86,0x1020(%edi)
    4efe:	0f 84 9a 00 00 00    	je     4f9e <parse_struct+0x9be>
    4f04:	c7 87 20 10 00 00 80 	movl   $0xffffff80,0x1020(%edi)
    4f0b:	ff ff ff 
    4f0e:	89 1f                	mov    %ebx,(%edi)
    4f10:	31 c0                	xor    %eax,%eax
    4f12:	e9 68 fe ff ff       	jmp    4d7f <parse_struct+0x79f>
    4f17:	8b 87 24 10 00 00    	mov    0x1024(%edi),%eax
    4f1d:	89 04 24             	mov    %eax,(%esp)
    4f20:	e8 bb b2 01 00       	call   201e0 <free>
    4f25:	eb 91                	jmp    4eb8 <parse_struct+0x8d8>
    4f27:	c7 44 24 08 75 00 00 	movl   $0x75,0x8(%esp)
    4f2e:	00 
    4f2f:	c7 44 24 04 ca ce 02 	movl   $0x2ceca,0x4(%esp)
    4f36:	00 
    4f37:	c7 04 24 c3 cc 02 00 	movl   $0x2ccc3,(%esp)
    4f3e:	e8 6d 59 02 00       	call   2a8b0 <assert_abort>
    4f43:	e8 d8 0c 00 00       	call   5c20 <bithenge_transform_dec_ref.part.8>
    4f48:	e8 8f 0c 00 00       	call   5bdc <bithenge_expression_dec_ref.part.4>
    4f4d:	c7 44 24 08 4c 00 00 	movl   $0x4c,0x8(%esp)
    4f54:	00 
    4f55:	c7 44 24 04 ac ce 02 	movl   $0x2ceac,0x4(%esp)
    4f5c:	00 
    4f5d:	c7 04 24 c3 cc 02 00 	movl   $0x2ccc3,(%esp)
    4f64:	e8 47 59 02 00       	call   2a8b0 <assert_abort>
    4f69:	8b 97 24 10 00 00    	mov    0x1024(%edi),%edx
    4f6f:	89 45 b0             	mov    %eax,-0x50(%ebp)
    4f72:	89 14 24             	mov    %edx,(%esp)
    4f75:	e8 66 b2 01 00       	call   201e0 <free>
    4f7a:	8b 45 b0             	mov    -0x50(%ebp),%eax
    4f7d:	e9 4d fd ff ff       	jmp    4ccf <parse_struct+0x6ef>
    4f82:	c7 44 24 08 41 00 00 	movl   $0x41,0x8(%esp)
    4f89:	00 
    4f8a:	c7 44 24 04 ac ce 02 	movl   $0x2ceac,0x4(%esp)
    4f91:	00 
    4f92:	c7 04 24 e7 ce 02 00 	movl   $0x2cee7,(%esp)
    4f99:	e8 12 59 02 00       	call   2a8b0 <assert_abort>
    4f9e:	8b 87 24 10 00 00    	mov    0x1024(%edi),%eax
    4fa4:	89 04 24             	mov    %eax,(%esp)
    4fa7:	e8 34 b2 01 00       	call   201e0 <free>
    4fac:	e9 53 ff ff ff       	jmp    4f04 <parse_struct+0x924>
    4fb1:	89 c6                	mov    %eax,%esi
    4fb3:	89 55 b8             	mov    %edx,-0x48(%ebp)
    4fb6:	e9 53 fd ff ff       	jmp    4d0e <parse_struct+0x72e>
    4fbb:	89 55 b8             	mov    %edx,-0x48(%ebp)
    4fbe:	89 55 c8             	mov    %edx,-0x38(%ebp)
    4fc1:	e9 9d fa ff ff       	jmp    4a63 <parse_struct+0x483>
    4fc6:	8d 76 00             	lea    0x0(%esi),%esi
    4fc9:	8d bc 27 00 00 00 00 	lea    0x0(%edi,%eiz,1),%edi

00004fd0 <parse_if>:
    4fd0:	55                   	push   %ebp
    4fd1:	89 e5                	mov    %esp,%ebp
    4fd3:	57                   	push   %edi
    4fd4:	56                   	push   %esi
    4fd5:	53                   	push   %ebx
    4fd6:	83 ec 3c             	sub    $0x3c,%esp
    4fd9:	89 c3                	mov    %eax,%ebx
    4fdb:	8b 80 20 10 00 00    	mov    0x1020(%eax),%eax
    4fe1:	89 d6                	mov    %edx,%esi
    4fe3:	83 f8 90             	cmp    $0xffffff90,%eax
    4fe6:	0f 84 d4 02 00 00    	je     52c0 <parse_if+0x2f0>
    4fec:	8b 3b                	mov    (%ebx),%edi
    4fee:	85 ff                	test   %edi,%edi
    4ff0:	0f 84 a2 02 00 00    	je     5298 <parse_if+0x2c8>
    4ff6:	83 f8 28             	cmp    $0x28,%eax
    4ff9:	0f 84 b4 02 00 00    	je     52b3 <parse_if+0x2e3>
    4fff:	8b 0b                	mov    (%ebx),%ecx
    5001:	85 c9                	test   %ecx,%ecx
    5003:	0f 84 77 02 00 00    	je     5280 <parse_if+0x2b0>
    5009:	31 d2                	xor    %edx,%edx
    500b:	89 d8                	mov    %ebx,%eax
