
blkdump:     file format elf32-i386


Disassembly of section .init:

00001094 <__entry>:
    1094:	66 8c d0             	mov    %ss,%ax
    1097:	8e d8                	mov    %eax,%ds
    1099:	8e c0                	mov    %eax,%es
    109b:	8e e0                	mov    %eax,%fs
    109d:	b8 01 00 00 00       	mov    $0x1,%eax
    10a2:	0f a2                	cpuid  
    10a4:	0f ba e2 0b          	bt     $0xb,%edx
    10a8:	73 0c                	jae    10b6 <__entry+0x22>
    10aa:	8d 05 d4 27 02 00    	lea    0x227d4,%eax
    10b0:	c7 00 97 d3 01 00    	movl   $0x1d397,(%eax)
    10b6:	6a 00                	push   $0x0
    10b8:	89 e5                	mov    %esp,%ebp
    10ba:	57                   	push   %edi
    10bb:	e8 40 1e 00 00       	call   2f00 <__main>

Disassembly of section .text:

000010c0 <syntax_print>:
    10c0:	55                   	push   %ebp
    10c1:	89 e5                	mov    %esp,%ebp
    10c3:	83 ec 18             	sub    $0x18,%esp
    10c6:	c7 04 24 d4 f8 01 00 	movl   $0x1f8d4,(%esp)
    10cd:	e8 de cd 00 00       	call   deb0 <printf>
    10d2:	c9                   	leave  
    10d3:	c3                   	ret    
    10d4:	66 90                	xchg   %ax,%ax
    10d6:	66 90                	xchg   %ax,%ax
    10d8:	66 90                	xchg   %ax,%ax
    10da:	66 90                	xchg   %ax,%ax
    10dc:	66 90                	xchg   %ax,%ax
    10de:	66 90                	xchg   %ax,%ax

000010e0 <main>:
    10e0:	55                   	push   %ebp
    10e1:	89 e5                	mov    %esp,%ebp
    10e3:	57                   	push   %edi
    10e4:	56                   	push   %esi
    10e5:	53                   	push   %ebx
    10e6:	83 e4 f0             	and    $0xfffffff0,%esp
    10e9:	83 ec 70             	sub    $0x70,%esp
    10ec:	8b 75 0c             	mov    0xc(%ebp),%esi
    10ef:	83 7d 08 01          	cmpl   $0x1,0x8(%ebp)
    10f3:	0f 8e be 01 00 00    	jle    12b7 <main+0x1d7>
    10f9:	c7 44 24 04 8c fb 01 	movl   $0x1fb8c,0x4(%esp)
    1100:	00 
    1101:	8b 7d 08             	mov    0x8(%ebp),%edi
    1104:	8b 46 04             	mov    0x4(%esi),%eax
    1107:	4f                   	dec    %edi
    1108:	89 04 24             	mov    %eax,(%esp)
    110b:	8d 5e 04             	lea    0x4(%esi),%ebx
    110e:	e8 1d 61 00 00       	call   7230 <str_cmp>
    1113:	c6 44 24 3f 00       	movb   $0x0,0x3f(%esp)
    1118:	85 c0                	test   %eax,%eax
    111a:	0f 84 d7 00 00 00    	je     11f7 <main+0x117>
    1120:	c7 44 24 04 97 fb 01 	movl   $0x1fb97,0x4(%esp)
    1127:	00 
    1128:	8b 03                	mov    (%ebx),%eax
    112a:	89 04 24             	mov    %eax,(%esp)
    112d:	e8 fe 60 00 00       	call   7230 <str_cmp>
    1132:	85 c0                	test   %eax,%eax
    1134:	0f 85 e2 00 00 00    	jne    121c <main+0x13c>
    113a:	8b 43 04             	mov    0x4(%ebx),%eax
    113d:	85 c0                	test   %eax,%eax
    113f:	0f 84 a8 01 00 00    	je     12ed <main+0x20d>
    1145:	8d 54 24 64          	lea    0x64(%esp),%edx
    1149:	c7 44 24 08 0a 00 00 	movl   $0xa,0x8(%esp)
    1150:	00 
    1151:	89 54 24 04          	mov    %edx,0x4(%esp)
    1155:	89 04 24             	mov    %eax,(%esp)
    1158:	e8 03 7b 00 00       	call   8c60 <strtol>
    115d:	89 c2                	mov    %eax,%edx
    115f:	89 44 24 40          	mov    %eax,0x40(%esp)
    1163:	c1 fa 1f             	sar    $0x1f,%edx
    1166:	8b 44 24 64          	mov    0x64(%esp),%eax
    116a:	89 54 24 44          	mov    %edx,0x44(%esp)
    116e:	80 38 00             	cmpb   $0x0,(%eax)
    1171:	0f 85 ef 00 00 00    	jne    1266 <main+0x186>
    1177:	83 ef 02             	sub    $0x2,%edi
    117a:	83 c3 08             	add    $0x8,%ebx
    117d:	c7 44 24 04 a0 fb 01 	movl   $0x1fba0,0x4(%esp)
    1184:	00 
    1185:	8b 03                	mov    (%ebx),%eax
    1187:	89 04 24             	mov    %eax,(%esp)
    118a:	e8 a1 60 00 00       	call   7230 <str_cmp>
    118f:	85 c0                	test   %eax,%eax
    1191:	75 77                	jne    120a <main+0x12a>
    1193:	8b 43 04             	mov    0x4(%ebx),%eax
    1196:	85 c0                	test   %eax,%eax
    1198:	0f 84 98 01 00 00    	je     1336 <main+0x256>
    119e:	8d 54 24 64          	lea    0x64(%esp),%edx
    11a2:	c7 44 24 08 0a 00 00 	movl   $0xa,0x8(%esp)
    11a9:	00 
    11aa:	89 54 24 04          	mov    %edx,0x4(%esp)
    11ae:	89 04 24             	mov    %eax,(%esp)
    11b1:	e8 aa 7a 00 00       	call   8c60 <strtol>
    11b6:	89 c2                	mov    %eax,%edx
    11b8:	89 44 24 28          	mov    %eax,0x28(%esp)
    11bc:	c1 fa 1f             	sar    $0x1f,%edx
    11bf:	8b 44 24 64          	mov    0x64(%esp),%eax
    11c3:	89 54 24 2c          	mov    %edx,0x2c(%esp)
    11c7:	80 38 00             	cmpb   $0x0,(%eax)
    11ca:	0f 85 02 01 00 00    	jne    12d2 <main+0x1f2>
    11d0:	83 ef 02             	sub    $0x2,%edi
    11d3:	83 c3 08             	add    $0x8,%ebx
    11d6:	4f                   	dec    %edi
    11d7:	74 58                	je     1231 <main+0x151>
    11d9:	c7 04 24 04 fa 01 00 	movl   $0x1fa04,(%esp)
    11e0:	e8 cb cc 00 00       	call   deb0 <printf>
    11e5:	e8 d6 fe ff ff       	call   10c0 <syntax_print>
    11ea:	b8 01 00 00 00       	mov    $0x1,%eax
    11ef:	8d 65 f4             	lea    -0xc(%ebp),%esp
    11f2:	5b                   	pop    %ebx
    11f3:	5e                   	pop    %esi
    11f4:	5f                   	pop    %edi
    11f5:	5d                   	pop    %ebp
    11f6:	c3                   	ret    
    11f7:	8b 7d 08             	mov    0x8(%ebp),%edi
    11fa:	8d 5e 08             	lea    0x8(%esi),%ebx
    11fd:	83 ef 02             	sub    $0x2,%edi
    1200:	c6 44 24 3f 01       	movb   $0x1,0x3f(%esp)
    1205:	e9 16 ff ff ff       	jmp    1120 <main+0x40>
    120a:	c7 44 24 28 01 00 00 	movl   $0x1,0x28(%esp)
    1211:	00 
    1212:	c7 44 24 2c 00 00 00 	movl   $0x0,0x2c(%esp)
    1219:	00 
    121a:	eb ba                	jmp    11d6 <main+0xf6>
    121c:	c7 44 24 40 00 00 00 	movl   $0x0,0x40(%esp)
    1223:	00 
    1224:	c7 44 24 44 00 00 00 	movl   $0x0,0x44(%esp)
    122b:	00 
    122c:	e9 4c ff ff ff       	jmp    117d <main+0x9d>
    1231:	8b 1b                	mov    (%ebx),%ebx
    1233:	8d 44 24 5c          	lea    0x5c(%esp),%eax
    1237:	c7 44 24 08 00 00 00 	movl   $0x0,0x8(%esp)
    123e:	00 
    123f:	89 44 24 04          	mov    %eax,0x4(%esp)
    1243:	89 1c 24             	mov    %ebx,(%esp)
    1246:	e8 e5 32 00 00       	call   4530 <loc_service_get_id>
    124b:	85 c0                	test   %eax,%eax
    124d:	74 32                	je     1281 <main+0x1a1>
    124f:	89 5c 24 04          	mov    %ebx,0x4(%esp)
    1253:	c7 04 24 2c fa 01 00 	movl   $0x1fa2c,(%esp)
    125a:	e8 51 cc 00 00       	call   deb0 <printf>
    125f:	b8 02 00 00 00       	mov    $0x2,%eax
    1264:	eb 89                	jmp    11ef <main+0x10f>
    1266:	c7 04 24 80 f9 01 00 	movl   $0x1f980,(%esp)
    126d:	e8 3e cc 00 00       	call   deb0 <printf>
    1272:	e8 49 fe ff ff       	call   10c0 <syntax_print>
    1277:	b8 01 00 00 00       	mov    $0x1,%eax
    127c:	e9 6e ff ff ff       	jmp    11ef <main+0x10f>
    1281:	8b 44 24 5c          	mov    0x5c(%esp),%eax
    1285:	c7 44 24 08 00 08 00 	movl   $0x800,0x8(%esp)
    128c:	00 
    128d:	89 44 24 04          	mov    %eax,0x4(%esp)
    1291:	c7 04 24 02 00 00 00 	movl   $0x2,(%esp)
    1298:	e8 43 04 00 00       	call   16e0 <block_init>
    129d:	85 c0                	test   %eax,%eax
    129f:	74 67                	je     1308 <main+0x228>
    12a1:	c7 04 24 54 fa 01 00 	movl   $0x1fa54,(%esp)
    12a8:	e8 03 cc 00 00       	call   deb0 <printf>
    12ad:	b8 02 00 00 00       	mov    $0x2,%eax
    12b2:	e9 38 ff ff ff       	jmp    11ef <main+0x10f>
    12b7:	c7 04 24 30 f9 01 00 	movl   $0x1f930,(%esp)
    12be:	e8 ed cb 00 00       	call   deb0 <printf>
    12c3:	e8 f8 fd ff ff       	call   10c0 <syntax_print>
    12c8:	b8 01 00 00 00       	mov    $0x1,%eax
    12cd:	e9 1d ff ff ff       	jmp    11ef <main+0x10f>
    12d2:	c7 04 24 d8 f9 01 00 	movl   $0x1f9d8,(%esp)
    12d9:	e8 d2 cb 00 00       	call   deb0 <printf>
    12de:	e8 dd fd ff ff       	call   10c0 <syntax_print>
    12e3:	b8 01 00 00 00       	mov    $0x1,%eax
    12e8:	e9 02 ff ff ff       	jmp    11ef <main+0x10f>
    12ed:	c7 04 24 54 f9 01 00 	movl   $0x1f954,(%esp)
    12f4:	e8 b7 cb 00 00       	call   deb0 <printf>
    12f9:	e8 c2 fd ff ff       	call   10c0 <syntax_print>
    12fe:	b8 01 00 00 00       	mov    $0x1,%eax
    1303:	e9 e7 fe ff ff       	jmp    11ef <main+0x10f>
    1308:	8d 44 24 60          	lea    0x60(%esp),%eax
    130c:	89 44 24 04          	mov    %eax,0x4(%esp)
    1310:	8b 44 24 5c          	mov    0x5c(%esp),%eax
    1314:	89 04 24             	mov    %eax,(%esp)
    1317:	e8 54 16 00 00       	call   2970 <block_get_bsize>
    131c:	85 c0                	test   %eax,%eax
    131e:	74 31                	je     1351 <main+0x271>
    1320:	c7 04 24 7c fa 01 00 	movl   $0x1fa7c,(%esp)
    1327:	e8 84 cb 00 00       	call   deb0 <printf>
    132c:	b8 02 00 00 00       	mov    $0x2,%eax
    1331:	e9 b9 fe ff ff       	jmp    11ef <main+0x10f>
    1336:	c7 04 24 ac f9 01 00 	movl   $0x1f9ac,(%esp)
    133d:	e8 6e cb 00 00       	call   deb0 <printf>
    1342:	e8 79 fd ff ff       	call   10c0 <syntax_print>
    1347:	b8 01 00 00 00       	mov    $0x1,%eax
    134c:	e9 9e fe ff ff       	jmp    11ef <main+0x10f>
    1351:	8d 44 24 68          	lea    0x68(%esp),%eax
    1355:	89 44 24 04          	mov    %eax,0x4(%esp)
    1359:	8b 44 24 5c          	mov    0x5c(%esp),%eax
    135d:	89 04 24             	mov    %eax,(%esp)
    1360:	e8 9b 16 00 00       	call   2a00 <block_get_nblocks>
    1365:	85 c0                	test   %eax,%eax
    1367:	0f 85 e1 02 00 00    	jne    164e <main+0x56e>
    136d:	8b 44 24 60          	mov    0x60(%esp),%eax
    1371:	8b 54 24 6c          	mov    0x6c(%esp),%edx
    1375:	89 44 24 10          	mov    %eax,0x10(%esp)
    1379:	8b 44 24 68          	mov    0x68(%esp),%eax
    137d:	89 54 24 0c          	mov    %edx,0xc(%esp)
    1381:	c7 44 24 14 00 00 00 	movl   $0x0,0x14(%esp)
    1388:	00 
    1389:	89 44 24 08          	mov    %eax,0x8(%esp)
    138d:	89 5c 24 04          	mov    %ebx,0x4(%esp)
    1391:	c7 04 24 e4 fa 01 00 	movl   $0x1fae4,(%esp)
    1398:	e8 13 cb 00 00       	call   deb0 <printf>
    139d:	8b 44 24 60          	mov    0x60(%esp),%eax
    13a1:	89 04 24             	mov    %eax,(%esp)
    13a4:	e8 87 17 01 00       	call   12b30 <malloc>
    13a9:	89 44 24 34          	mov    %eax,0x34(%esp)
    13ad:	85 c0                	test   %eax,%eax
    13af:	0f 84 aa 02 00 00    	je     165f <main+0x57f>
    13b5:	8b 44 24 28          	mov    0x28(%esp),%eax
    13b9:	8b 54 24 2c          	mov    0x2c(%esp),%edx
    13bd:	03 44 24 40          	add    0x40(%esp),%eax
    13c1:	13 54 24 44          	adc    0x44(%esp),%edx
    13c5:	89 44 24 28          	mov    %eax,0x28(%esp)
    13c9:	89 54 24 2c          	mov    %edx,0x2c(%esp)
    13cd:	8b 44 24 2c          	mov    0x2c(%esp),%eax
    13d1:	39 44 24 44          	cmp    %eax,0x44(%esp)
    13d5:	72 2b                	jb     1402 <main+0x322>
    13d7:	76 1f                	jbe    13f8 <main+0x318>
    13d9:	8b 44 24 34          	mov    0x34(%esp),%eax
    13dd:	89 04 24             	mov    %eax,(%esp)
    13e0:	e8 5b 18 01 00       	call   12c40 <free>
    13e5:	8b 44 24 5c          	mov    0x5c(%esp),%eax
    13e9:	89 04 24             	mov    %eax,(%esp)
    13ec:	e8 1f 09 00 00       	call   1d10 <block_fini>
    13f1:	31 c0                	xor    %eax,%eax
    13f3:	e9 f7 fd ff ff       	jmp    11ef <main+0x10f>
    13f8:	8b 54 24 28          	mov    0x28(%esp),%edx
    13fc:	39 54 24 40          	cmp    %edx,0x40(%esp)
    1400:	73 d7                	jae    13d9 <main+0x2f9>
    1402:	8b 44 24 34          	mov    0x34(%esp),%eax
    1406:	8b 54 24 44          	mov    0x44(%esp),%edx
    140a:	89 44 24 10          	mov    %eax,0x10(%esp)
    140e:	8b 44 24 40          	mov    0x40(%esp),%eax
    1412:	89 44 24 04          	mov    %eax,0x4(%esp)
    1416:	8b 44 24 5c          	mov    0x5c(%esp),%eax
    141a:	c7 44 24 0c 01 00 00 	movl   $0x1,0xc(%esp)
    1421:	00 
    1422:	89 54 24 08          	mov    %edx,0x8(%esp)
    1426:	89 04 24             	mov    %eax,(%esp)
    1429:	e8 62 13 00 00       	call   2790 <block_read_direct>
    142e:	85 c0                	test   %eax,%eax
    1430:	0f 85 e6 01 00 00    	jne    161c <main+0x53c>
    1436:	8b 44 24 60          	mov    0x60(%esp),%eax
    143a:	8b 4c 24 44          	mov    0x44(%esp),%ecx
    143e:	0f af c8             	imul   %eax,%ecx
    1441:	f7 64 24 40          	mull   0x40(%esp)
    1445:	01 ca                	add    %ecx,%edx
    1447:	89 44 24 0c          	mov    %eax,0xc(%esp)
    144b:	89 54 24 10          	mov    %edx,0x10(%esp)
    144f:	8b 44 24 40          	mov    0x40(%esp),%eax
    1453:	8b 54 24 44          	mov    0x44(%esp),%edx
    1457:	89 44 24 04          	mov    %eax,0x4(%esp)
    145b:	89 54 24 08          	mov    %edx,0x8(%esp)
    145f:	c7 04 24 6c fb 01 00 	movl   $0x1fb6c,(%esp)
    1466:	e8 45 ca 00 00       	call   deb0 <printf>
    146b:	8b 44 24 60          	mov    0x60(%esp),%eax
    146f:	85 c0                	test   %eax,%eax
    1471:	0f 84 3a 01 00 00    	je     15b1 <main+0x4d1>
    1477:	c7 44 24 48 00 00 00 	movl   $0x0,0x48(%esp)
    147e:	00 
    147f:	90                   	nop
    1480:	80 7c 24 3f 00       	cmpb   $0x0,0x3f(%esp)
    1485:	0f 84 61 01 00 00    	je     15ec <main+0x50c>
    148b:	8b 54 24 48          	mov    0x48(%esp),%edx
    148f:	c7 44 24 08 00 00 00 	movl   $0x0,0x8(%esp)
    1496:	00 
    1497:	89 54 24 04          	mov    %edx,0x4(%esp)
    149b:	c7 04 24 a8 fb 01 00 	movl   $0x1fba8,(%esp)
    14a2:	e8 09 ca 00 00       	call   deb0 <printf>
    14a7:	8b 74 24 60          	mov    0x60(%esp),%esi
    14ab:	8b 4c 24 48          	mov    0x48(%esp),%ecx
    14af:	8b 7c 24 34          	mov    0x34(%esp),%edi
    14b3:	8b 54 24 48          	mov    0x48(%esp),%edx
    14b7:	29 ce                	sub    %ecx,%esi
    14b9:	01 d7                	add    %edx,%edi
    14bb:	83 fe 10             	cmp    $0x10,%esi
    14be:	76 48                	jbe    1508 <main+0x428>
    14c0:	be 10 00 00 00       	mov    $0x10,%esi
    14c5:	89 f2                	mov    %esi,%edx
    14c7:	31 db                	xor    %ebx,%ebx
    14c9:	d1 ea                	shr    %edx
    14cb:	89 54 24 4c          	mov    %edx,0x4c(%esp)
    14cf:	eb 21                	jmp    14f2 <main+0x412>
    14d1:	8d b4 26 00 00 00 00 	lea    0x0(%esi,%eiz,1),%esi
    14d8:	31 c0                	xor    %eax,%eax
    14da:	8a 04 1f             	mov    (%edi,%ebx,1),%al
    14dd:	c7 04 24 b0 fb 01 00 	movl   $0x1fbb0,(%esp)
    14e4:	89 44 24 04          	mov    %eax,0x4(%esp)
    14e8:	43                   	inc    %ebx
    14e9:	e8 c2 c9 00 00       	call   deb0 <printf>
    14ee:	39 f3                	cmp    %esi,%ebx
    14f0:	74 56                	je     1548 <main+0x468>
    14f2:	3b 5c 24 4c          	cmp    0x4c(%esp),%ebx
    14f6:	75 e0                	jne    14d8 <main+0x3f8>
    14f8:	c7 04 24 ba fb 01 00 	movl   $0x1fbba,(%esp)
    14ff:	e8 ac c9 00 00       	call   deb0 <printf>
    1504:	eb d2                	jmp    14d8 <main+0x3f8>
    1506:	66 90                	xchg   %ax,%ax
    1508:	85 f6                	test   %esi,%esi
    150a:	75 b9                	jne    14c5 <main+0x3e5>
    150c:	89 f2                	mov    %esi,%edx
    150e:	89 f3                	mov    %esi,%ebx
    1510:	d1 ea                	shr    %edx
    1512:	89 74 24 38          	mov    %esi,0x38(%esp)
    1516:	89 54 24 4c          	mov    %edx,0x4c(%esp)
    151a:	89 d6                	mov    %edx,%esi
    151c:	eb 18                	jmp    1536 <main+0x456>
    151e:	66 90                	xchg   %ax,%ax
    1520:	c7 04 24 b8 fb 01 00 	movl   $0x1fbb8,(%esp)
    1527:	43                   	inc    %ebx
    1528:	e8 83 c9 00 00       	call   deb0 <printf>
    152d:	83 fb 0f             	cmp    $0xf,%ebx
    1530:	0f 87 a8 00 00 00    	ja     15de <main+0x4fe>
    1536:	39 de                	cmp    %ebx,%esi
    1538:	75 e6                	jne    1520 <main+0x440>
    153a:	c7 04 24 ba fb 01 00 	movl   $0x1fbba,(%esp)
    1541:	e8 6a c9 00 00       	call   deb0 <printf>
    1546:	eb d8                	jmp    1520 <main+0x440>
    1548:	83 fe 10             	cmp    $0x10,%esi
    154b:	75 bf                	jne    150c <main+0x42c>
    154d:	31 db                	xor    %ebx,%ebx
    154f:	eb 19                	jmp    156a <main+0x48a>
    1551:	8d b4 26 00 00 00 00 	lea    0x0(%esi,%eiz,1),%esi
    1558:	25 ff 00 00 00       	and    $0xff,%eax
    155d:	43                   	inc    %ebx
    155e:	89 04 24             	mov    %eax,(%esp)
    1561:	e8 8a c6 00 00       	call   dbf0 <putchar>
    1566:	39 f3                	cmp    %esi,%ebx
    1568:	74 22                	je     158c <main+0x4ac>
    156a:	39 5c 24 4c          	cmp    %ebx,0x4c(%esp)
    156e:	74 60                	je     15d0 <main+0x4f0>
    1570:	8a 04 1f             	mov    (%edi,%ebx,1),%al
    1573:	8d 48 e0             	lea    -0x20(%eax),%ecx
    1576:	80 f9 5f             	cmp    $0x5f,%cl
    1579:	76 dd                	jbe    1558 <main+0x478>
    157b:	c7 04 24 2e 00 00 00 	movl   $0x2e,(%esp)
    1582:	43                   	inc    %ebx
    1583:	e8 68 c6 00 00       	call   dbf0 <putchar>
    1588:	39 f3                	cmp    %esi,%ebx
    158a:	75 de                	jne    156a <main+0x48a>
    158c:	c7 04 24 3b 10 02 00 	movl   $0x2103b,(%esp)
    1593:	e8 18 c9 00 00       	call   deb0 <printf>
    1598:	8b 44 24 48          	mov    0x48(%esp),%eax
    159c:	83 c0 10             	add    $0x10,%eax
    159f:	89 44 24 48          	mov    %eax,0x48(%esp)
    15a3:	8b 44 24 60          	mov    0x60(%esp),%eax
    15a7:	3b 44 24 48          	cmp    0x48(%esp),%eax
    15ab:	0f 87 cf fe ff ff    	ja     1480 <main+0x3a0>
    15b1:	c7 04 24 3b 10 02 00 	movl   $0x2103b,(%esp)
    15b8:	e8 f3 c8 00 00       	call   deb0 <printf>
    15bd:	83 44 24 40 01       	addl   $0x1,0x40(%esp)
    15c2:	83 54 24 44 00       	adcl   $0x0,0x44(%esp)
    15c7:	e9 01 fe ff ff       	jmp    13cd <main+0x2ed>
    15cc:	8d 74 26 00          	lea    0x0(%esi,%eiz,1),%esi
    15d0:	c7 04 24 ba fb 01 00 	movl   $0x1fbba,(%esp)
    15d7:	e8 d4 c8 00 00       	call   deb0 <printf>
    15dc:	eb 92                	jmp    1570 <main+0x490>
    15de:	8b 74 24 38          	mov    0x38(%esp),%esi
    15e2:	85 f6                	test   %esi,%esi
    15e4:	0f 85 63 ff ff ff    	jne    154d <main+0x46d>
    15ea:	eb a0                	jmp    158c <main+0x4ac>
    15ec:	8b 4c 24 44          	mov    0x44(%esp),%ecx
    15f0:	31 db                	xor    %ebx,%ebx
    15f2:	0f af c8             	imul   %eax,%ecx
    15f5:	f7 64 24 40          	mull   0x40(%esp)
    15f9:	01 ca                	add    %ecx,%edx
    15fb:	8b 4c 24 48          	mov    0x48(%esp),%ecx
    15ff:	01 c1                	add    %eax,%ecx
    1601:	c7 04 24 a8 fb 01 00 	movl   $0x1fba8,(%esp)
    1608:	11 d3                	adc    %edx,%ebx
    160a:	89 4c 24 04          	mov    %ecx,0x4(%esp)
    160e:	89 5c 24 08          	mov    %ebx,0x8(%esp)
    1612:	e8 99 c8 00 00       	call   deb0 <printf>
    1617:	e9 8b fe ff ff       	jmp    14a7 <main+0x3c7>
    161c:	8b 54 24 44          	mov    0x44(%esp),%edx
    1620:	8b 44 24 40          	mov    0x40(%esp),%eax
    1624:	89 54 24 08          	mov    %edx,0x8(%esp)
    1628:	89 44 24 04          	mov    %eax,0x4(%esp)
    162c:	c7 04 24 44 fb 01 00 	movl   $0x1fb44,(%esp)
    1633:	e8 78 c8 00 00       	call   deb0 <printf>
    1638:	8b 44 24 34          	mov    0x34(%esp),%eax
    163c:	89 04 24             	mov    %eax,(%esp)
    163f:	e8 fc 15 01 00       	call   12c40 <free>
    1644:	b8 03 00 00 00       	mov    $0x3,%eax
    1649:	e9 a1 fb ff ff       	jmp    11ef <main+0x10f>
    164e:	c7 04 24 ac fa 01 00 	movl   $0x1faac,(%esp)
    1655:	e8 56 c8 00 00       	call   deb0 <printf>
    165a:	e9 0e fd ff ff       	jmp    136d <main+0x28d>
    165f:	8b 54 24 60          	mov    0x60(%esp),%edx
    1663:	c7 44 24 08 00 00 00 	movl   $0x0,0x8(%esp)
    166a:	00 
    166b:	89 54 24 04          	mov    %edx,0x4(%esp)
    166f:	c7 04 24 10 fb 01 00 	movl   $0x1fb10,(%esp)
    1676:	e8 35 c8 00 00       	call   deb0 <printf>
    167b:	8b 44 24 5c          	mov    0x5c(%esp),%eax
    167f:	89 04 24             	mov    %eax,(%esp)
    1682:	e8 89 06 00 00       	call   1d10 <block_fini>
    1687:	b8 03 00 00 00       	mov    $0x3,%eax
    168c:	e9 5e fb ff ff       	jmp    11ef <main+0x10f>
    1691:	66 90                	xchg   %ax,%ax
    1693:	66 90                	xchg   %ax,%ax
    1695:	66 90                	xchg   %ax,%ax
    1697:	66 90                	xchg   %ax,%ax
    1699:	66 90                	xchg   %ax,%ax
    169b:	66 90                	xchg   %ax,%ax
    169d:	66 90                	xchg   %ax,%ax
    169f:	90                   	nop

000016a0 <cache_key_hash>:
    16a0:	55                   	push   %ebp
    16a1:	89 e5                	mov    %esp,%ebp
    16a3:	8b 45 08             	mov    0x8(%ebp),%eax
    16a6:	5d                   	pop    %ebp
    16a7:	8b 00                	mov    (%eax),%eax
    16a9:	c3                   	ret    
    16aa:	8d b6 00 00 00 00    	lea    0x0(%esi),%esi

000016b0 <cache_hash>:
    16b0:	55                   	push   %ebp
    16b1:	89 e5                	mov    %esp,%ebp
    16b3:	8b 45 08             	mov    0x8(%ebp),%eax
    16b6:	5d                   	pop    %ebp
    16b7:	8b 40 e4             	mov    -0x1c(%eax),%eax
    16ba:	c3                   	ret    
    16bb:	90                   	nop
    16bc:	8d 74 26 00          	lea    0x0(%esi,%eiz,1),%esi

000016c0 <cache_key_equal>:
    16c0:	55                   	push   %ebp
    16c1:	89 e5                	mov    %esp,%ebp
    16c3:	8b 45 0c             	mov    0xc(%ebp),%eax
    16c6:	8b 4d 08             	mov    0x8(%ebp),%ecx
    16c9:	5d                   	pop    %ebp
    16ca:	8b 50 e4             	mov    -0x1c(%eax),%edx
    16cd:	8b 40 e8             	mov    -0x18(%eax),%eax
    16d0:	33 41 04             	xor    0x4(%ecx),%eax
    16d3:	33 11                	xor    (%ecx),%edx
    16d5:	09 c2                	or     %eax,%edx
    16d7:	0f 94 c0             	sete   %al
    16da:	c3                   	ret    
    16db:	90                   	nop
    16dc:	8d 74 26 00          	lea    0x0(%esi,%eiz,1),%esi

000016e0 <block_init>:
    16e0:	55                   	push   %ebp
    16e1:	89 e5                	mov    %esp,%ebp
    16e3:	57                   	push   %edi
    16e4:	56                   	push   %esi
    16e5:	53                   	push   %ebx
    16e6:	83 ec 3c             	sub    $0x3c,%esp
    16e9:	8b 5d 0c             	mov    0xc(%ebp),%ebx
    16ec:	8b 45 08             	mov    0x8(%ebp),%eax
    16ef:	c7 44 24 08 01 00 00 	movl   $0x1,0x8(%esp)
    16f6:	00 
    16f7:	89 5c 24 04          	mov    %ebx,0x4(%esp)
    16fb:	89 04 24             	mov    %eax,(%esp)
    16fe:	e8 1d 37 00 00       	call   4e20 <loc_service_connect>
    1703:	89 c6                	mov    %eax,%esi
    1705:	85 c0                	test   %eax,%eax
    1707:	0f 84 30 01 00 00    	je     183d <block_init+0x15d>
    170d:	8d 45 e0             	lea    -0x20(%ebp),%eax
    1710:	89 34 24             	mov    %esi,(%esp)
    1713:	89 44 24 04          	mov    %eax,0x4(%esp)
    1717:	e8 e4 18 00 00       	call   3000 <bd_open>
    171c:	89 c7                	mov    %eax,%edi
    171e:	85 c0                	test   %eax,%eax
    1720:	0f 85 d4 00 00 00    	jne    17fa <block_init+0x11a>
    1726:	8d 45 e4             	lea    -0x1c(%ebp),%eax
    1729:	89 44 24 04          	mov    %eax,0x4(%esp)
    172d:	8b 45 e0             	mov    -0x20(%ebp),%eax
    1730:	89 04 24             	mov    %eax,(%esp)
    1733:	e8 98 1b 00 00       	call   32d0 <bd_get_block_size>
    1738:	89 c7                	mov    %eax,%edi
    173a:	85 c0                	test   %eax,%eax
    173c:	0f 85 ad 00 00 00    	jne    17ef <block_init+0x10f>
    1742:	8b 55 e0             	mov    -0x20(%ebp),%edx
    1745:	c7 04 24 28 00 00 00 	movl   $0x28,(%esp)
    174c:	89 55 d4             	mov    %edx,-0x2c(%ebp)
    174f:	8b 55 e4             	mov    -0x1c(%ebp),%edx
    1752:	89 55 d0             	mov    %edx,-0x30(%ebp)
    1755:	e8 d6 13 01 00       	call   12b30 <malloc>
    175a:	85 c0                	test   %eax,%eax
    175c:	0f 84 e0 00 00 00    	je     1842 <block_init+0x162>
    1762:	8b 55 d4             	mov    -0x2c(%ebp),%edx
    1765:	c7 00 00 00 00 00    	movl   $0x0,(%eax)
    176b:	89 50 10             	mov    %edx,0x10(%eax)
    176e:	8b 55 d0             	mov    -0x30(%ebp),%edx
    1771:	89 50 20             	mov    %edx,0x20(%eax)
    1774:	c7 40 04 00 00 00 00 	movl   $0x0,0x4(%eax)
    177b:	89 58 08             	mov    %ebx,0x8(%eax)
    177e:	89 70 0c             	mov    %esi,0xc(%eax)
    1781:	c7 40 14 00 00 00 00 	movl   $0x0,0x14(%eax)
    1788:	c7 40 18 00 00 00 00 	movl   $0x0,0x18(%eax)
    178f:	c7 40 1c 00 00 00 00 	movl   $0x0,0x1c(%eax)
    1796:	c7 40 24 00 00 00 00 	movl   $0x0,0x24(%eax)
    179d:	c7 04 24 e0 25 02 00 	movl   $0x225e0,(%esp)
    17a4:	89 45 cc             	mov    %eax,-0x34(%ebp)
    17a7:	e8 74 87 00 00       	call   9f20 <fibril_mutex_lock>
    17ac:	8b 15 f4 25 02 00    	mov    0x225f4,%edx
    17b2:	81 fa f0 25 02 00    	cmp    $0x225f0,%edx
    17b8:	8b 45 cc             	mov    -0x34(%ebp),%eax
    17bb:	75 0e                	jne    17cb <block_init+0xeb>
    17bd:	eb 51                	jmp    1810 <block_init+0x130>
    17bf:	90                   	nop
    17c0:	8b 52 04             	mov    0x4(%edx),%edx
    17c3:	81 fa f0 25 02 00    	cmp    $0x225f0,%edx
    17c9:	74 45                	je     1810 <block_init+0x130>
    17cb:	3b 5a 08             	cmp    0x8(%edx),%ebx
    17ce:	75 f0                	jne    17c0 <block_init+0xe0>
    17d0:	c7 04 24 e0 25 02 00 	movl   $0x225e0,(%esp)
    17d7:	89 45 cc             	mov    %eax,-0x34(%ebp)
    17da:	e8 61 88 00 00       	call   a040 <fibril_mutex_unlock>
    17df:	8b 45 cc             	mov    -0x34(%ebp),%eax
    17e2:	89 04 24             	mov    %eax,(%esp)
    17e5:	bf fc fe ff ff       	mov    $0xfffffefc,%edi
    17ea:	e8 51 14 01 00       	call   12c40 <free>
    17ef:	8b 45 e0             	mov    -0x20(%ebp),%eax
    17f2:	89 04 24             	mov    %eax,(%esp)
    17f5:	e8 a6 18 00 00       	call   30a0 <bd_close>
    17fa:	89 34 24             	mov    %esi,(%esp)
    17fd:	e8 6e 47 01 00       	call   15f70 <async_hangup>
    1802:	83 c4 3c             	add    $0x3c,%esp
    1805:	89 f8                	mov    %edi,%eax
    1807:	5b                   	pop    %ebx
    1808:	5e                   	pop    %esi
    1809:	5f                   	pop    %edi
    180a:	5d                   	pop    %ebp
    180b:	c3                   	ret    
    180c:	8d 74 26 00          	lea    0x0(%esi,%eiz,1),%esi
    1810:	8b 15 f0 25 02 00    	mov    0x225f0,%edx
    1816:	c7 40 04 f0 25 02 00 	movl   $0x225f0,0x4(%eax)
    181d:	89 10                	mov    %edx,(%eax)
    181f:	a3 f0 25 02 00       	mov    %eax,0x225f0
    1824:	89 42 04             	mov    %eax,0x4(%edx)
    1827:	c7 04 24 e0 25 02 00 	movl   $0x225e0,(%esp)
    182e:	e8 0d 88 00 00       	call   a040 <fibril_mutex_unlock>
    1833:	83 c4 3c             	add    $0x3c,%esp
    1836:	89 f8                	mov    %edi,%eax
    1838:	5b                   	pop    %ebx
    1839:	5e                   	pop    %esi
    183a:	5f                   	pop    %edi
    183b:	5d                   	pop    %ebp
    183c:	c3                   	ret    
    183d:	83 cf ff             	or     $0xffffffff,%edi
    1840:	eb c0                	jmp    1802 <block_init+0x122>
    1842:	bf fe ff ff ff       	mov    $0xfffffffe,%edi
    1847:	eb a6                	jmp    17ef <block_init+0x10f>
    1849:	8d b4 26 00 00 00 00 	lea    0x0(%esi,%eiz,1),%esi

00001850 <block_bb_read>:
    1850:	55                   	push   %ebp
    1851:	89 e5                	mov    %esp,%ebp
    1853:	57                   	push   %edi
    1854:	56                   	push   %esi
    1855:	53                   	push   %ebx
    1856:	83 ec 3c             	sub    $0x3c,%esp
    1859:	8b 45 08             	mov    0x8(%ebp),%eax
    185c:	8b 75 0c             	mov    0xc(%ebp),%esi
    185f:	c7 04 24 e0 25 02 00 	movl   $0x225e0,(%esp)
    1866:	89 45 e4             	mov    %eax,-0x1c(%ebp)
    1869:	8b 7d 10             	mov    0x10(%ebp),%edi
    186c:	e8 af 86 00 00       	call   9f20 <fibril_mutex_lock>
    1871:	8b 1d f4 25 02 00    	mov    0x225f4,%ebx
    1877:	8b 45 e4             	mov    -0x1c(%ebp),%eax
    187a:	81 fb f0 25 02 00    	cmp    $0x225f0,%ebx
    1880:	75 15                	jne    1897 <block_bb_read+0x47>
    1882:	e9 91 00 00 00       	jmp    1918 <block_bb_read+0xc8>
    1887:	90                   	nop
    1888:	8b 5b 04             	mov    0x4(%ebx),%ebx
    188b:	81 fb f0 25 02 00    	cmp    $0x225f0,%ebx
    1891:	0f 84 81 00 00 00    	je     1918 <block_bb_read+0xc8>
    1897:	3b 43 08             	cmp    0x8(%ebx),%eax
    189a:	75 ec                	jne    1888 <block_bb_read+0x38>
    189c:	c7 04 24 e0 25 02 00 	movl   $0x225e0,(%esp)
    18a3:	e8 98 87 00 00       	call   a040 <fibril_mutex_unlock>
    18a8:	8b 43 14             	mov    0x14(%ebx),%eax
    18ab:	85 c0                	test   %eax,%eax
    18ad:	0f 85 d5 00 00 00    	jne    1988 <block_bb_read+0x138>
    18b3:	8b 43 20             	mov    0x20(%ebx),%eax
    18b6:	89 04 24             	mov    %eax,(%esp)
    18b9:	e8 72 12 01 00       	call   12b30 <malloc>
    18be:	89 c1                	mov    %eax,%ecx
    18c0:	85 c0                	test   %eax,%eax
    18c2:	0f 84 cf 00 00 00    	je     1997 <block_bb_read+0x147>
    18c8:	8b 43 20             	mov    0x20(%ebx),%eax
    18cb:	89 4c 24 10          	mov    %ecx,0x10(%esp)
    18cf:	89 44 24 14          	mov    %eax,0x14(%esp)
    18d3:	c7 44 24 0c 01 00 00 	movl   $0x1,0xc(%esp)
    18da:	00 
    18db:	c7 44 24 04 00 00 00 	movl   $0x0,0x4(%esp)
    18e2:	00 
    18e3:	c7 44 24 08 00 00 00 	movl   $0x0,0x8(%esp)
    18ea:	00 
    18eb:	8b 43 10             	mov    0x10(%ebx),%eax
    18ee:	89 4d e4             	mov    %ecx,-0x1c(%ebp)
    18f1:	89 04 24             	mov    %eax,(%esp)
    18f4:	e8 b7 17 00 00       	call   30b0 <bd_read_blocks>
    18f9:	8b 4d e4             	mov    -0x1c(%ebp),%ecx
    18fc:	89 c2                	mov    %eax,%edx
    18fe:	85 c0                	test   %eax,%eax
    1900:	75 36                	jne    1938 <block_bb_read+0xe8>
    1902:	89 4b 14             	mov    %ecx,0x14(%ebx)
    1905:	89 73 18             	mov    %esi,0x18(%ebx)
    1908:	89 7b 1c             	mov    %edi,0x1c(%ebx)
    190b:	83 c4 3c             	add    $0x3c,%esp
    190e:	89 d0                	mov    %edx,%eax
    1910:	5b                   	pop    %ebx
    1911:	5e                   	pop    %esi
    1912:	5f                   	pop    %edi
    1913:	5d                   	pop    %ebp
    1914:	c3                   	ret    
    1915:	8d 76 00             	lea    0x0(%esi),%esi
    1918:	c7 04 24 e0 25 02 00 	movl   $0x225e0,(%esp)
    191f:	e8 1c 87 00 00       	call   a040 <fibril_mutex_unlock>
    1924:	83 ca ff             	or     $0xffffffff,%edx
    1927:	83 c4 3c             	add    $0x3c,%esp
    192a:	89 d0                	mov    %edx,%eax
    192c:	5b                   	pop    %ebx
    192d:	5e                   	pop    %esi
    192e:	5f                   	pop    %edi
    192f:	5d                   	pop    %ebp
    1930:	c3                   	ret    
    1931:	8d b4 26 00 00 00 00 	lea    0x0(%esi,%eiz,1),%esi
    1938:	8b 43 08             	mov    0x8(%ebx),%eax
    193b:	89 54 24 04          	mov    %edx,0x4(%esp)
    193f:	89 44 24 14          	mov    %eax,0x14(%esp)
    1943:	c7 44 24 0c 00 00 00 	movl   $0x0,0xc(%esp)
    194a:	00 
    194b:	c7 44 24 10 00 00 00 	movl   $0x0,0x10(%esp)
    1952:	00 
    1953:	c7 44 24 08 01 00 00 	movl   $0x1,0x8(%esp)
    195a:	00 
    195b:	c7 04 24 0c fc 01 00 	movl   $0x1fc0c,(%esp)
    1962:	89 55 e0             	mov    %edx,-0x20(%ebp)
    1965:	e8 46 c5 00 00       	call   deb0 <printf>
    196a:	e8 01 b9 01 00       	call   1d270 <stacktrace_print>
    196f:	8b 4d e4             	mov    -0x1c(%ebp),%ecx
    1972:	89 0c 24             	mov    %ecx,(%esp)
    1975:	e8 c6 12 01 00       	call   12c40 <free>
    197a:	8b 55 e0             	mov    -0x20(%ebp),%edx
    197d:	83 c4 3c             	add    $0x3c,%esp
    1980:	89 d0                	mov    %edx,%eax
    1982:	5b                   	pop    %ebx
    1983:	5e                   	pop    %esi
    1984:	5f                   	pop    %edi
    1985:	5d                   	pop    %ebp
    1986:	c3                   	ret    
    1987:	90                   	nop
    1988:	83 c4 3c             	add    $0x3c,%esp
    198b:	ba fc fe ff ff       	mov    $0xfffffefc,%edx
    1990:	89 d0                	mov    %edx,%eax
    1992:	5b                   	pop    %ebx
    1993:	5e                   	pop    %esi
    1994:	5f                   	pop    %edi
    1995:	5d                   	pop    %ebp
    1996:	c3                   	ret    
    1997:	ba fe ff ff ff       	mov    $0xfffffffe,%edx
    199c:	eb 89                	jmp    1927 <block_bb_read+0xd7>
    199e:	66 90                	xchg   %ax,%ax

000019a0 <block_bb_get>:
    19a0:	55                   	push   %ebp
    19a1:	89 e5                	mov    %esp,%ebp
    19a3:	56                   	push   %esi
    19a4:	53                   	push   %ebx
    19a5:	83 ec 10             	sub    $0x10,%esp
    19a8:	8b 75 08             	mov    0x8(%ebp),%esi
    19ab:	c7 04 24 e0 25 02 00 	movl   $0x225e0,(%esp)
    19b2:	e8 69 85 00 00       	call   9f20 <fibril_mutex_lock>
    19b7:	8b 1d f4 25 02 00    	mov    0x225f4,%ebx
    19bd:	81 fb f0 25 02 00    	cmp    $0x225f0,%ebx
    19c3:	75 0e                	jne    19d3 <block_bb_get+0x33>
    19c5:	eb 29                	jmp    19f0 <block_bb_get+0x50>
    19c7:	90                   	nop
    19c8:	8b 5b 04             	mov    0x4(%ebx),%ebx
    19cb:	81 fb f0 25 02 00    	cmp    $0x225f0,%ebx
    19d1:	74 1d                	je     19f0 <block_bb_get+0x50>
    19d3:	3b 73 08             	cmp    0x8(%ebx),%esi
    19d6:	75 f0                	jne    19c8 <block_bb_get+0x28>
    19d8:	c7 04 24 e0 25 02 00 	movl   $0x225e0,(%esp)
    19df:	e8 5c 86 00 00       	call   a040 <fibril_mutex_unlock>
    19e4:	8b 43 14             	mov    0x14(%ebx),%eax
    19e7:	83 c4 10             	add    $0x10,%esp
    19ea:	5b                   	pop    %ebx
    19eb:	5e                   	pop    %esi
    19ec:	5d                   	pop    %ebp
    19ed:	c3                   	ret    
    19ee:	66 90                	xchg   %ax,%ax
    19f0:	c7 04 24 e0 25 02 00 	movl   $0x225e0,(%esp)
    19f7:	e8 44 86 00 00       	call   a040 <fibril_mutex_unlock>
    19fc:	c7 44 24 08 e5 00 00 	movl   $0xe5,0x8(%esp)
    1a03:	00 
    1a04:	c7 44 24 04 bc fb 01 	movl   $0x1fbbc,0x4(%esp)
    1a0b:	00 
    1a0c:	c7 04 24 c4 fb 01 00 	movl   $0x1fbc4,(%esp)
    1a13:	e8 f8 b8 01 00       	call   1d310 <assert_abort>
    1a18:	90                   	nop
    1a19:	8d b4 26 00 00 00 00 	lea    0x0(%esi,%eiz,1),%esi

00001a20 <block_cache_init>:
    1a20:	55                   	push   %ebp
    1a21:	89 e5                	mov    %esp,%ebp
    1a23:	56                   	push   %esi
    1a24:	53                   	push   %ebx
    1a25:	83 ec 10             	sub    $0x10,%esp
    1a28:	8b 75 08             	mov    0x8(%ebp),%esi
    1a2b:	c7 04 24 e0 25 02 00 	movl   $0x225e0,(%esp)
    1a32:	e8 e9 84 00 00       	call   9f20 <fibril_mutex_lock>
    1a37:	8b 1d f4 25 02 00    	mov    0x225f4,%ebx
    1a3d:	81 fb f0 25 02 00    	cmp    $0x225f0,%ebx
    1a43:	75 1a                	jne    1a5f <block_cache_init+0x3f>
    1a45:	e9 b6 00 00 00       	jmp    1b00 <block_cache_init+0xe0>
    1a4a:	8d b6 00 00 00 00    	lea    0x0(%esi),%esi
    1a50:	8b 5b 04             	mov    0x4(%ebx),%ebx
    1a53:	81 fb f0 25 02 00    	cmp    $0x225f0,%ebx
    1a59:	0f 84 a1 00 00 00    	je     1b00 <block_cache_init+0xe0>
    1a5f:	3b 73 08             	cmp    0x8(%ebx),%esi
    1a62:	75 ec                	jne    1a50 <block_cache_init+0x30>
    1a64:	c7 04 24 e0 25 02 00 	movl   $0x225e0,(%esp)
    1a6b:	e8 d0 85 00 00       	call   a040 <fibril_mutex_unlock>
    1a70:	8b 53 24             	mov    0x24(%ebx),%edx
    1a73:	85 d2                	test   %edx,%edx
    1a75:	0f 85 9d 00 00 00    	jne    1b18 <block_cache_init+0xf8>
    1a7b:	c7 04 24 48 00 00 00 	movl   $0x48,(%esp)
    1a82:	e8 a9 10 01 00       	call   12b30 <malloc>
    1a87:	89 c6                	mov    %eax,%esi
    1a89:	85 c0                	test   %eax,%eax
    1a8b:	0f 84 a2 00 00 00    	je     1b33 <block_cache_init+0x113>
    1a91:	89 04 24             	mov    %eax,(%esp)
    1a94:	e8 67 84 00 00       	call   9f00 <fibril_mutex_initialize>
    1a99:	8d 46 3c             	lea    0x3c(%esi),%eax
    1a9c:	89 46 3c             	mov    %eax,0x3c(%esi)
    1a9f:	89 46 40             	mov    %eax,0x40(%esi)
    1aa2:	8b 45 0c             	mov    0xc(%ebp),%eax
    1aa5:	31 d2                	xor    %edx,%edx
    1aa7:	89 46 10             	mov    %eax,0x10(%esi)
    1aaa:	8b 45 10             	mov    0x10(%ebp),%eax
    1aad:	89 46 18             	mov    %eax,0x18(%esi)
    1ab0:	8b 45 14             	mov    0x14(%ebp),%eax
    1ab3:	89 46 44             	mov    %eax,0x44(%esi)
    1ab6:	8b 45 0c             	mov    0xc(%ebp),%eax
    1ab9:	f7 73 20             	divl   0x20(%ebx)
    1abc:	c7 46 1c 00 00 00 00 	movl   $0x0,0x1c(%esi)
    1ac3:	85 d2                	test   %edx,%edx
    1ac5:	75 5d                	jne    1b24 <block_cache_init+0x104>
    1ac7:	89 46 14             	mov    %eax,0x14(%esi)
    1aca:	8d 46 20             	lea    0x20(%esi),%eax
    1acd:	c7 44 24 0c f8 25 02 	movl   $0x225f8,0xc(%esp)
    1ad4:	00 
    1ad5:	c7 44 24 08 00 00 00 	movl   $0x0,0x8(%esp)
    1adc:	00 
    1add:	c7 44 24 04 00 00 00 	movl   $0x0,0x4(%esp)
    1ae4:	00 
    1ae5:	89 04 24             	mov    %eax,(%esp)
    1ae8:	e8 e3 6c 01 00       	call   187d0 <hash_table_create>
    1aed:	84 c0                	test   %al,%al
    1aef:	74 49                	je     1b3a <block_cache_init+0x11a>
    1af1:	89 73 24             	mov    %esi,0x24(%ebx)
    1af4:	83 c4 10             	add    $0x10,%esp
    1af7:	31 c0                	xor    %eax,%eax
    1af9:	5b                   	pop    %ebx
    1afa:	5e                   	pop    %esi
    1afb:	5d                   	pop    %ebp
    1afc:	c3                   	ret    
    1afd:	8d 76 00             	lea    0x0(%esi),%esi
    1b00:	c7 04 24 e0 25 02 00 	movl   $0x225e0,(%esp)
    1b07:	e8 34 85 00 00       	call   a040 <fibril_mutex_unlock>
    1b0c:	83 c8 ff             	or     $0xffffffff,%eax
    1b0f:	83 c4 10             	add    $0x10,%esp
    1b12:	5b                   	pop    %ebx
    1b13:	5e                   	pop    %esi
    1b14:	5d                   	pop    %ebp
    1b15:	c3                   	ret    
    1b16:	66 90                	xchg   %ax,%ax
    1b18:	83 c4 10             	add    $0x10,%esp
    1b1b:	b8 fc fe ff ff       	mov    $0xfffffefc,%eax
    1b20:	5b                   	pop    %ebx
    1b21:	5e                   	pop    %esi
    1b22:	5d                   	pop    %ebp
    1b23:	c3                   	ret    
    1b24:	89 34 24             	mov    %esi,(%esp)
    1b27:	e8 14 11 01 00       	call   12c40 <free>
    1b2c:	b8 f5 ff ff ff       	mov    $0xfffffff5,%eax
    1b31:	eb dc                	jmp    1b0f <block_cache_init+0xef>
    1b33:	b8 fe ff ff ff       	mov    $0xfffffffe,%eax
    1b38:	eb d5                	jmp    1b0f <block_cache_init+0xef>
    1b3a:	89 34 24             	mov    %esi,(%esp)
    1b3d:	e8 fe 10 01 00       	call   12c40 <free>
    1b42:	b8 fe ff ff ff       	mov    $0xfffffffe,%eax
    1b47:	eb c6                	jmp    1b0f <block_cache_init+0xef>
    1b49:	8d b4 26 00 00 00 00 	lea    0x0(%esi,%eiz,1),%esi

00001b50 <block_cache_fini>:
    1b50:	55                   	push   %ebp
    1b51:	89 e5                	mov    %esp,%ebp
    1b53:	57                   	push   %edi
    1b54:	56                   	push   %esi
    1b55:	53                   	push   %ebx
    1b56:	83 ec 4c             	sub    $0x4c,%esp
    1b59:	8b 5d 08             	mov    0x8(%ebp),%ebx
    1b5c:	c7 04 24 e0 25 02 00 	movl   $0x225e0,(%esp)
    1b63:	e8 b8 83 00 00       	call   9f20 <fibril_mutex_lock>
    1b68:	8b 35 f4 25 02 00    	mov    0x225f4,%esi
    1b6e:	81 fe f0 25 02 00    	cmp    $0x225f0,%esi
    1b74:	75 19                	jne    1b8f <block_cache_fini+0x3f>
    1b76:	e9 1d 01 00 00       	jmp    1c98 <block_cache_fini+0x148>
    1b7b:	90                   	nop
    1b7c:	8d 74 26 00          	lea    0x0(%esi,%eiz,1),%esi
    1b80:	8b 76 04             	mov    0x4(%esi),%esi
    1b83:	81 fe f0 25 02 00    	cmp    $0x225f0,%esi
    1b89:	0f 84 09 01 00 00    	je     1c98 <block_cache_fini+0x148>
    1b8f:	3b 5e 08             	cmp    0x8(%esi),%ebx
    1b92:	75 ec                	jne    1b80 <block_cache_fini+0x30>
    1b94:	c7 04 24 e0 25 02 00 	movl   $0x225e0,(%esp)
    1b9b:	e8 a0 84 00 00       	call   a040 <fibril_mutex_unlock>
    1ba0:	8b 56 24             	mov    0x24(%esi),%edx
    1ba3:	89 55 e0             	mov    %edx,-0x20(%ebp)
    1ba6:	85 d2                	test   %edx,%edx
    1ba8:	0f 84 46 01 00 00    	je     1cf4 <block_cache_fini+0x1a4>
    1bae:	8b 5a 40             	mov    0x40(%edx),%ebx
    1bb1:	83 c2 3c             	add    $0x3c,%edx
    1bb4:	89 55 d4             	mov    %edx,-0x2c(%ebp)
    1bb7:	8b 55 e0             	mov    -0x20(%ebp),%edx
    1bba:	83 c2 20             	add    $0x20,%edx
    1bbd:	3b 5d d4             	cmp    -0x2c(%ebp),%ebx
    1bc0:	89 55 e4             	mov    %edx,-0x1c(%ebp)
    1bc3:	89 da                	mov    %ebx,%edx
    1bc5:	0f 84 2d 01 00 00    	je     1cf8 <block_cache_fini+0x1a8>
    1bcb:	90                   	nop
    1bcc:	8d 74 26 00          	lea    0x0(%esi,%eiz,1),%esi
    1bd0:	8d 5a bc             	lea    -0x44(%edx),%ebx
    1bd3:	8b 4b 44             	mov    0x44(%ebx),%ecx
    1bd6:	85 c9                	test   %ecx,%ecx
    1bd8:	74 0f                	je     1be9 <block_cache_fini+0x99>
    1bda:	8b 43 48             	mov    0x48(%ebx),%eax
    1bdd:	85 c0                	test   %eax,%eax
    1bdf:	74 08                	je     1be9 <block_cache_fini+0x99>
    1be1:	89 08                	mov    %ecx,(%eax)
    1be3:	8b 4b 44             	mov    0x44(%ebx),%ecx
    1be6:	89 41 04             	mov    %eax,0x4(%ecx)
    1be9:	c7 43 44 00 00 00 00 	movl   $0x0,0x44(%ebx)
    1bf0:	c7 43 48 00 00 00 00 	movl   $0x0,0x48(%ebx)
    1bf7:	80 7b 14 00          	cmpb   $0x0,0x14(%ebx)
    1bfb:	74 41                	je     1c3e <block_cache_fini+0xee>
    1bfd:	8b 43 38             	mov    0x38(%ebx),%eax
    1c00:	8b 55 e0             	mov    -0x20(%ebp),%edx
    1c03:	89 45 d8             	mov    %eax,-0x28(%ebp)
    1c06:	8b 43 40             	mov    0x40(%ebx),%eax
    1c09:	8b 7a 14             	mov    0x14(%edx),%edi
    1c0c:	8b 53 3c             	mov    0x3c(%ebx),%edx
    1c0f:	89 44 24 14          	mov    %eax,0x14(%esp)
    1c13:	89 55 dc             	mov    %edx,-0x24(%ebp)
    1c16:	8b 43 54             	mov    0x54(%ebx),%eax
    1c19:	8b 55 dc             	mov    -0x24(%ebp),%edx
    1c1c:	89 44 24 10          	mov    %eax,0x10(%esp)
    1c20:	8b 45 d8             	mov    -0x28(%ebp),%eax
    1c23:	89 7c 24 0c          	mov    %edi,0xc(%esp)
    1c27:	89 44 24 04          	mov    %eax,0x4(%esp)
    1c2b:	89 54 24 08          	mov    %edx,0x8(%esp)
    1c2f:	8b 46 10             	mov    0x10(%esi),%eax
    1c32:	89 04 24             	mov    %eax,(%esp)
    1c35:	e8 e6 15 00 00       	call   3220 <bd_write_blocks>
    1c3a:	85 c0                	test   %eax,%eax
    1c3c:	75 7a                	jne    1cb8 <block_cache_fini+0x168>
    1c3e:	8d 43 4c             	lea    0x4c(%ebx),%eax
    1c41:	8b 7d e4             	mov    -0x1c(%ebp),%edi
    1c44:	89 44 24 04          	mov    %eax,0x4(%esp)
    1c48:	89 3c 24             	mov    %edi,(%esp)
    1c4b:	e8 10 74 01 00       	call   19060 <hash_table_remove_item>
    1c50:	8b 43 54             	mov    0x54(%ebx),%eax
    1c53:	89 04 24             	mov    %eax,(%esp)
    1c56:	e8 e5 0f 01 00       	call   12c40 <free>
    1c5b:	89 1c 24             	mov    %ebx,(%esp)
    1c5e:	e8 dd 0f 01 00       	call   12c40 <free>
    1c63:	8b 45 e0             	mov    -0x20(%ebp),%eax
    1c66:	8b 50 40             	mov    0x40(%eax),%edx
    1c69:	3b 55 d4             	cmp    -0x2c(%ebp),%edx
    1c6c:	0f 85 5e ff ff ff    	jne    1bd0 <block_cache_fini+0x80>
    1c72:	89 3c 24             	mov    %edi,(%esp)
    1c75:	31 ff                	xor    %edi,%edi
    1c77:	e8 84 6c 01 00       	call   18900 <hash_table_destroy>
    1c7c:	8b 55 e0             	mov    -0x20(%ebp),%edx
    1c7f:	c7 46 24 00 00 00 00 	movl   $0x0,0x24(%esi)
    1c86:	89 14 24             	mov    %edx,(%esp)
    1c89:	e8 b2 0f 01 00       	call   12c40 <free>
    1c8e:	83 c4 4c             	add    $0x4c,%esp
    1c91:	89 f8                	mov    %edi,%eax
    1c93:	5b                   	pop    %ebx
    1c94:	5e                   	pop    %esi
    1c95:	5f                   	pop    %edi
    1c96:	5d                   	pop    %ebp
    1c97:	c3                   	ret    
    1c98:	c7 04 24 e0 25 02 00 	movl   $0x225e0,(%esp)
    1c9f:	83 cf ff             	or     $0xffffffff,%edi
    1ca2:	e8 99 83 00 00       	call   a040 <fibril_mutex_unlock>
    1ca7:	83 c4 4c             	add    $0x4c,%esp
    1caa:	89 f8                	mov    %edi,%eax
    1cac:	5b                   	pop    %ebx
    1cad:	5e                   	pop    %esi
    1cae:	5f                   	pop    %edi
    1caf:	5d                   	pop    %ebp
    1cb0:	c3                   	ret    
    1cb1:	8d b4 26 00 00 00 00 	lea    0x0(%esi,%eiz,1),%esi
    1cb8:	89 f9                	mov    %edi,%ecx
    1cba:	89 c7                	mov    %eax,%edi
    1cbc:	8b 46 08             	mov    0x8(%esi),%eax
    1cbf:	8b 55 dc             	mov    -0x24(%ebp),%edx
    1cc2:	89 44 24 14          	mov    %eax,0x14(%esp)
    1cc6:	8b 45 d8             	mov    -0x28(%ebp),%eax
    1cc9:	89 54 24 10          	mov    %edx,0x10(%esp)
    1ccd:	89 4c 24 08          	mov    %ecx,0x8(%esp)
    1cd1:	89 7c 24 04          	mov    %edi,0x4(%esp)
    1cd5:	89 44 24 0c          	mov    %eax,0xc(%esp)
    1cd9:	c7 04 24 58 fc 01 00 	movl   $0x1fc58,(%esp)
    1ce0:	e8 cb c1 00 00       	call   deb0 <printf>
    1ce5:	e8 86 b5 01 00       	call   1d270 <stacktrace_print>
    1cea:	83 c4 4c             	add    $0x4c,%esp
    1ced:	89 f8                	mov    %edi,%eax
    1cef:	5b                   	pop    %ebx
    1cf0:	5e                   	pop    %esi
    1cf1:	5f                   	pop    %edi
    1cf2:	5d                   	pop    %ebp
    1cf3:	c3                   	ret    
    1cf4:	31 ff                	xor    %edi,%edi
    1cf6:	eb af                	jmp    1ca7 <block_cache_fini+0x157>
    1cf8:	8b 55 e0             	mov    -0x20(%ebp),%edx
    1cfb:	8d 7a 20             	lea    0x20(%edx),%edi
    1cfe:	e9 6f ff ff ff       	jmp    1c72 <block_cache_fini+0x122>
    1d03:	8d b6 00 00 00 00    	lea    0x0(%esi),%esi
    1d09:	8d bc 27 00 00 00 00 	lea    0x0(%edi,%eiz,1),%edi

00001d10 <block_fini>:
    1d10:	55                   	push   %ebp
    1d11:	89 e5                	mov    %esp,%ebp
    1d13:	56                   	push   %esi
    1d14:	53                   	push   %ebx
    1d15:	83 ec 10             	sub    $0x10,%esp
    1d18:	8b 75 08             	mov    0x8(%ebp),%esi
    1d1b:	c7 04 24 e0 25 02 00 	movl   $0x225e0,(%esp)
    1d22:	e8 f9 81 00 00       	call   9f20 <fibril_mutex_lock>
    1d27:	8b 1d f4 25 02 00    	mov    0x225f4,%ebx
    1d2d:	81 fb f0 25 02 00    	cmp    $0x225f0,%ebx
    1d33:	75 1a                	jne    1d4f <block_fini+0x3f>
    1d35:	e9 a6 00 00 00       	jmp    1de0 <block_fini+0xd0>
    1d3a:	8d b6 00 00 00 00    	lea    0x0(%esi),%esi
    1d40:	8b 5b 04             	mov    0x4(%ebx),%ebx
    1d43:	81 fb f0 25 02 00    	cmp    $0x225f0,%ebx
    1d49:	0f 84 91 00 00 00    	je     1de0 <block_fini+0xd0>
    1d4f:	3b 73 08             	cmp    0x8(%ebx),%esi
    1d52:	75 ec                	jne    1d40 <block_fini+0x30>
    1d54:	c7 04 24 e0 25 02 00 	movl   $0x225e0,(%esp)
    1d5b:	e8 e0 82 00 00       	call   a040 <fibril_mutex_unlock>
    1d60:	8b 4b 24             	mov    0x24(%ebx),%ecx
    1d63:	85 c9                	test   %ecx,%ecx
    1d65:	74 08                	je     1d6f <block_fini+0x5f>
    1d67:	89 34 24             	mov    %esi,(%esp)
    1d6a:	e8 e1 fd ff ff       	call   1b50 <block_cache_fini>
    1d6f:	c7 04 24 e0 25 02 00 	movl   $0x225e0,(%esp)
    1d76:	e8 a5 81 00 00       	call   9f20 <fibril_mutex_lock>
    1d7b:	8b 13                	mov    (%ebx),%edx
    1d7d:	85 d2                	test   %edx,%edx
    1d7f:	74 0e                	je     1d8f <block_fini+0x7f>
    1d81:	8b 43 04             	mov    0x4(%ebx),%eax
    1d84:	85 c0                	test   %eax,%eax
    1d86:	74 07                	je     1d8f <block_fini+0x7f>
    1d88:	89 10                	mov    %edx,(%eax)
    1d8a:	8b 13                	mov    (%ebx),%edx
    1d8c:	89 42 04             	mov    %eax,0x4(%edx)
    1d8f:	c7 03 00 00 00 00    	movl   $0x0,(%ebx)
    1d95:	c7 43 04 00 00 00 00 	movl   $0x0,0x4(%ebx)
    1d9c:	c7 04 24 e0 25 02 00 	movl   $0x225e0,(%esp)
    1da3:	e8 98 82 00 00       	call   a040 <fibril_mutex_unlock>
    1da8:	8b 43 14             	mov    0x14(%ebx),%eax
    1dab:	85 c0                	test   %eax,%eax
    1dad:	74 08                	je     1db7 <block_fini+0xa7>
    1daf:	89 04 24             	mov    %eax,(%esp)
    1db2:	e8 89 0e 01 00       	call   12c40 <free>
    1db7:	8b 43 10             	mov    0x10(%ebx),%eax
    1dba:	89 04 24             	mov    %eax,(%esp)
    1dbd:	e8 de 12 00 00       	call   30a0 <bd_close>
    1dc2:	8b 43 0c             	mov    0xc(%ebx),%eax
    1dc5:	89 04 24             	mov    %eax,(%esp)
    1dc8:	e8 a3 41 01 00       	call   15f70 <async_hangup>
    1dcd:	89 5d 08             	mov    %ebx,0x8(%ebp)
    1dd0:	83 c4 10             	add    $0x10,%esp
    1dd3:	5b                   	pop    %ebx
    1dd4:	5e                   	pop    %esi
    1dd5:	5d                   	pop    %ebp
    1dd6:	e9 65 0e 01 00       	jmp    12c40 <free>
    1ddb:	90                   	nop
    1ddc:	8d 74 26 00          	lea    0x0(%esi,%eiz,1),%esi
    1de0:	c7 04 24 e0 25 02 00 	movl   $0x225e0,(%esp)
    1de7:	e8 54 82 00 00       	call   a040 <fibril_mutex_unlock>
    1dec:	c7 44 24 08 b8 00 00 	movl   $0xb8,0x8(%esp)
    1df3:	00 
    1df4:	c7 44 24 04 bc fb 01 	movl   $0x1fbbc,0x4(%esp)
    1dfb:	00 
    1dfc:	c7 04 24 c4 fb 01 00 	movl   $0x1fbc4,(%esp)
    1e03:	e8 08 b5 01 00       	call   1d310 <assert_abort>
    1e08:	90                   	nop
    1e09:	8d b4 26 00 00 00 00 	lea    0x0(%esi,%eiz,1),%esi

00001e10 <block_put>:
    1e10:	55                   	push   %ebp
    1e11:	89 e5                	mov    %esp,%ebp
    1e13:	57                   	push   %edi
    1e14:	56                   	push   %esi
    1e15:	53                   	push   %ebx
    1e16:	83 ec 3c             	sub    $0x3c,%esp
    1e19:	8b 7d 08             	mov    0x8(%ebp),%edi
    1e1c:	8b 5f 2c             	mov    0x2c(%edi),%ebx
    1e1f:	c7 04 24 e0 25 02 00 	movl   $0x225e0,(%esp)
    1e26:	e8 f5 80 00 00       	call   9f20 <fibril_mutex_lock>
    1e2b:	8b 35 f4 25 02 00    	mov    0x225f4,%esi
    1e31:	81 fe f0 25 02 00    	cmp    $0x225f0,%esi
    1e37:	75 16                	jne    1e4f <block_put+0x3f>
    1e39:	e9 fa 00 00 00       	jmp    1f38 <block_put+0x128>
    1e3e:	66 90                	xchg   %ax,%ax
    1e40:	8b 76 04             	mov    0x4(%esi),%esi
    1e43:	81 fe f0 25 02 00    	cmp    $0x225f0,%esi
    1e49:	0f 84 e9 00 00 00    	je     1f38 <block_put+0x128>
    1e4f:	3b 5e 08             	cmp    0x8(%esi),%ebx
    1e52:	75 ec                	jne    1e40 <block_put+0x30>
    1e54:	c7 04 24 e0 25 02 00 	movl   $0x225e0,(%esp)
    1e5b:	e8 e0 81 00 00       	call   a040 <fibril_mutex_unlock>
    1e60:	8b 5e 24             	mov    0x24(%esi),%ebx
    1e63:	85 db                	test   %ebx,%ebx
    1e65:	0f 84 10 02 00 00    	je     207b <block_put+0x26b>
    1e6b:	8b 47 10             	mov    0x10(%edi),%eax
    1e6e:	85 c0                	test   %eax,%eax
    1e70:	0f 84 21 02 00 00    	je     2097 <block_put+0x287>
    1e76:	c7 45 dc 00 00 00 00 	movl   $0x0,-0x24(%ebp)
    1e7d:	89 75 d8             	mov    %esi,-0x28(%ebp)
    1e80:	eb 7b                	jmp    1efd <block_put+0xed>
    1e82:	8d b6 00 00 00 00    	lea    0x0(%esi),%esi
    1e88:	80 7f 14 00          	cmpb   $0x0,0x14(%edi)
    1e8c:	74 0a                	je     1e98 <block_put+0x88>
    1e8e:	83 7f 10 01          	cmpl   $0x1,0x10(%edi)
    1e92:	0f 84 18 01 00 00    	je     1fb0 <block_put+0x1a0>
    1e98:	89 3c 24             	mov    %edi,(%esp)
    1e9b:	e8 a0 81 00 00       	call   a040 <fibril_mutex_unlock>
    1ea0:	89 1c 24             	mov    %ebx,(%esp)
    1ea3:	e8 78 80 00 00       	call   9f20 <fibril_mutex_lock>
    1ea8:	89 3c 24             	mov    %edi,(%esp)
    1eab:	e8 70 80 00 00       	call   9f20 <fibril_mutex_lock>
    1eb0:	8b 4f 10             	mov    0x10(%edi),%ecx
    1eb3:	8d 41 ff             	lea    -0x1(%ecx),%eax
    1eb6:	89 47 10             	mov    %eax,0x10(%edi)
    1eb9:	85 c0                	test   %eax,%eax
    1ebb:	0f 85 9f 01 00 00    	jne    2060 <block_put+0x250>
    1ec1:	83 7b 1c 14          	cmpl   $0x14,0x1c(%ebx)
    1ec5:	0f 87 95 00 00 00    	ja     1f60 <block_put+0x150>
    1ecb:	8b 45 dc             	mov    -0x24(%ebp),%eax
    1ece:	85 c0                	test   %eax,%eax
    1ed0:	0f 85 8a 00 00 00    	jne    1f60 <block_put+0x150>
    1ed6:	83 7b 44 01          	cmpl   $0x1,0x44(%ebx)
    1eda:	0f 84 68 01 00 00    	je     2048 <block_put+0x238>
    1ee0:	80 7f 14 00          	cmpb   $0x0,0x14(%edi)
    1ee4:	0f 84 5e 01 00 00    	je     2048 <block_put+0x238>
    1eea:	89 4f 10             	mov    %ecx,0x10(%edi)
    1eed:	89 3c 24             	mov    %edi,(%esp)
    1ef0:	e8 4b 81 00 00       	call   a040 <fibril_mutex_unlock>
    1ef5:	89 1c 24             	mov    %ebx,(%esp)
    1ef8:	e8 43 81 00 00       	call   a040 <fibril_mutex_unlock>
    1efd:	89 1c 24             	mov    %ebx,(%esp)
    1f00:	e8 1b 80 00 00       	call   9f20 <fibril_mutex_lock>
    1f05:	8b 43 1c             	mov    0x1c(%ebx),%eax
    1f08:	8b 73 44             	mov    0x44(%ebx),%esi
    1f0b:	89 1c 24             	mov    %ebx,(%esp)
    1f0e:	89 45 e0             	mov    %eax,-0x20(%ebp)
    1f11:	e8 2a 81 00 00       	call   a040 <fibril_mutex_unlock>
    1f16:	89 3c 24             	mov    %edi,(%esp)
    1f19:	e8 02 80 00 00       	call   9f20 <fibril_mutex_lock>
    1f1e:	80 7f 15 00          	cmpb   $0x0,0x15(%edi)
    1f22:	0f 84 60 ff ff ff    	je     1e88 <block_put+0x78>
    1f28:	c6 47 14 00          	movb   $0x0,0x14(%edi)
    1f2c:	e9 67 ff ff ff       	jmp    1e98 <block_put+0x88>
    1f31:	8d b4 26 00 00 00 00 	lea    0x0(%esi,%eiz,1),%esi
    1f38:	c7 04 24 e0 25 02 00 	movl   $0x225e0,(%esp)
    1f3f:	e8 fc 80 00 00       	call   a040 <fibril_mutex_unlock>
    1f44:	c7 44 24 08 2d 02 00 	movl   $0x22d,0x8(%esp)
    1f4b:	00 
    1f4c:	c7 44 24 04 bc fb 01 	movl   $0x1fbbc,0x4(%esp)
    1f53:	00 
    1f54:	c7 04 24 c4 fb 01 00 	movl   $0x1fbc4,(%esp)
    1f5b:	e8 b0 b3 01 00       	call   1d310 <assert_abort>
    1f60:	80 7f 14 00          	cmpb   $0x0,0x14(%edi)
    1f64:	75 84                	jne    1eea <block_put+0xda>
    1f66:	8d 47 4c             	lea    0x4c(%edi),%eax
    1f69:	89 44 24 04          	mov    %eax,0x4(%esp)
    1f6d:	8d 43 20             	lea    0x20(%ebx),%eax
    1f70:	89 04 24             	mov    %eax,(%esp)
    1f73:	e8 e8 70 01 00       	call   19060 <hash_table_remove_item>
    1f78:	89 3c 24             	mov    %edi,(%esp)
    1f7b:	e8 c0 80 00 00       	call   a040 <fibril_mutex_unlock>
    1f80:	8b 47 54             	mov    0x54(%edi),%eax
    1f83:	89 04 24             	mov    %eax,(%esp)
    1f86:	e8 b5 0c 01 00       	call   12c40 <free>
    1f8b:	89 3c 24             	mov    %edi,(%esp)
    1f8e:	e8 ad 0c 01 00       	call   12c40 <free>
    1f93:	8b 73 1c             	mov    0x1c(%ebx),%esi
    1f96:	4e                   	dec    %esi
    1f97:	89 73 1c             	mov    %esi,0x1c(%ebx)
    1f9a:	89 1c 24             	mov    %ebx,(%esp)
    1f9d:	e8 9e 80 00 00       	call   a040 <fibril_mutex_unlock>
    1fa2:	8b 45 dc             	mov    -0x24(%ebp),%eax
    1fa5:	83 c4 3c             	add    $0x3c,%esp
    1fa8:	5b                   	pop    %ebx
    1fa9:	5e                   	pop    %esi
    1faa:	5f                   	pop    %edi
    1fab:	5d                   	pop    %ebp
    1fac:	c3                   	ret    
    1fad:	8d 76 00             	lea    0x0(%esi),%esi
    1fb0:	4e                   	dec    %esi
    1fb1:	75 0a                	jne    1fbd <block_put+0x1ad>
    1fb3:	83 7d e0 14          	cmpl   $0x14,-0x20(%ebp)
    1fb7:	0f 86 db fe ff ff    	jbe    1e98 <block_put+0x88>
    1fbd:	8b 47 38             	mov    0x38(%edi),%eax
    1fc0:	8b 57 3c             	mov    0x3c(%edi),%edx
    1fc3:	89 45 e0             	mov    %eax,-0x20(%ebp)
    1fc6:	8b 47 40             	mov    0x40(%edi),%eax
    1fc9:	8b 73 14             	mov    0x14(%ebx),%esi
    1fcc:	89 55 e4             	mov    %edx,-0x1c(%ebp)
    1fcf:	89 44 24 14          	mov    %eax,0x14(%esp)
    1fd3:	8b 55 e4             	mov    -0x1c(%ebp),%edx
    1fd6:	8b 47 54             	mov    0x54(%edi),%eax
    1fd9:	89 54 24 08          	mov    %edx,0x8(%esp)
    1fdd:	89 44 24 10          	mov    %eax,0x10(%esp)
    1fe1:	8b 55 d8             	mov    -0x28(%ebp),%edx
    1fe4:	8b 45 e0             	mov    -0x20(%ebp),%eax
    1fe7:	89 74 24 0c          	mov    %esi,0xc(%esp)
    1feb:	89 44 24 04          	mov    %eax,0x4(%esp)
    1fef:	8b 42 10             	mov    0x10(%edx),%eax
    1ff2:	89 04 24             	mov    %eax,(%esp)
    1ff5:	e8 26 12 00 00       	call   3220 <bd_write_blocks>
    1ffa:	89 45 dc             	mov    %eax,-0x24(%ebp)
    1ffd:	85 c0                	test   %eax,%eax
    1fff:	0f 84 23 ff ff ff    	je     1f28 <block_put+0x118>
    2005:	8b 55 d8             	mov    -0x28(%ebp),%edx
    2008:	8b 42 08             	mov    0x8(%edx),%eax
    200b:	8b 55 e4             	mov    -0x1c(%ebp),%edx
    200e:	89 44 24 14          	mov    %eax,0x14(%esp)
    2012:	8b 45 e0             	mov    -0x20(%ebp),%eax
    2015:	89 44 24 0c          	mov    %eax,0xc(%esp)
    2019:	8b 45 dc             	mov    -0x24(%ebp),%eax
    201c:	89 54 24 10          	mov    %edx,0x10(%esp)
    2020:	89 74 24 08          	mov    %esi,0x8(%esp)
    2024:	89 44 24 04          	mov    %eax,0x4(%esp)
    2028:	c7 04 24 58 fc 01 00 	movl   $0x1fc58,(%esp)
    202f:	e8 7c be 00 00       	call   deb0 <printf>
    2034:	e8 37 b2 01 00       	call   1d270 <stacktrace_print>
    2039:	c6 47 14 00          	movb   $0x0,0x14(%edi)
    203d:	e9 56 fe ff ff       	jmp    1e98 <block_put+0x88>
    2042:	8d b6 00 00 00 00    	lea    0x0(%esi),%esi
    2048:	8d 4b 3c             	lea    0x3c(%ebx),%ecx
    204b:	8d 47 44             	lea    0x44(%edi),%eax
    204e:	89 4f 48             	mov    %ecx,0x48(%edi)
    2051:	8b 4b 3c             	mov    0x3c(%ebx),%ecx
    2054:	89 4f 44             	mov    %ecx,0x44(%edi)
    2057:	8b 4b 3c             	mov    0x3c(%ebx),%ecx
    205a:	89 43 3c             	mov    %eax,0x3c(%ebx)
    205d:	89 41 04             	mov    %eax,0x4(%ecx)
    2060:	89 3c 24             	mov    %edi,(%esp)
    2063:	e8 d8 7f 00 00       	call   a040 <fibril_mutex_unlock>
    2068:	89 1c 24             	mov    %ebx,(%esp)
    206b:	e8 d0 7f 00 00       	call   a040 <fibril_mutex_unlock>
    2070:	8b 45 dc             	mov    -0x24(%ebp),%eax
    2073:	83 c4 3c             	add    $0x3c,%esp
    2076:	5b                   	pop    %ebx
    2077:	5e                   	pop    %esi
    2078:	5f                   	pop    %edi
    2079:	5d                   	pop    %ebp
    207a:	c3                   	ret    
    207b:	c7 44 24 08 2e 02 00 	movl   $0x22e,0x8(%esp)
    2082:	00 
    2083:	c7 44 24 04 bc fb 01 	movl   $0x1fbbc,0x4(%esp)
    208a:	00 
    208b:	c7 04 24 cb fb 01 00 	movl   $0x1fbcb,(%esp)
    2092:	e8 79 b2 01 00       	call   1d310 <assert_abort>
    2097:	c7 44 24 08 2f 02 00 	movl   $0x22f,0x8(%esp)
    209e:	00 
    209f:	c7 44 24 04 bc fb 01 	movl   $0x1fbbc,0x4(%esp)
    20a6:	00 
    20a7:	c7 04 24 d9 fb 01 00 	movl   $0x1fbd9,(%esp)
    20ae:	e8 5d b2 01 00       	call   1d310 <assert_abort>
    20b3:	8d b6 00 00 00 00    	lea    0x0(%esi),%esi
    20b9:	8d bc 27 00 00 00 00 	lea    0x0(%edi,%eiz,1),%edi

000020c0 <block_get>:
    20c0:	55                   	push   %ebp
    20c1:	89 e5                	mov    %esp,%ebp
    20c3:	57                   	push   %edi
    20c4:	56                   	push   %esi
    20c5:	53                   	push   %ebx
    20c6:	83 ec 5c             	sub    $0x5c,%esp
    20c9:	8b 45 10             	mov    0x10(%ebp),%eax
    20cc:	89 45 e0             	mov    %eax,-0x20(%ebp)
    20cf:	c7 04 24 e0 25 02 00 	movl   $0x225e0,(%esp)
    20d6:	8b 45 14             	mov    0x14(%ebp),%eax
    20d9:	89 45 e4             	mov    %eax,-0x1c(%ebp)
    20dc:	e8 3f 7e 00 00       	call   9f20 <fibril_mutex_lock>
    20e1:	8b 35 f4 25 02 00    	mov    0x225f4,%esi
    20e7:	81 fe f0 25 02 00    	cmp    $0x225f0,%esi
    20ed:	74 21                	je     2110 <block_get+0x50>
    20ef:	8b 55 0c             	mov    0xc(%ebp),%edx
    20f2:	89 d0                	mov    %edx,%eax
    20f4:	3b 56 08             	cmp    0x8(%esi),%edx
    20f7:	75 0c                	jne    2105 <block_get+0x45>
    20f9:	eb 3d                	jmp    2138 <block_get+0x78>
    20fb:	90                   	nop
    20fc:	8d 74 26 00          	lea    0x0(%esi,%eiz,1),%esi
    2100:	3b 46 08             	cmp    0x8(%esi),%eax
    2103:	74 33                	je     2138 <block_get+0x78>
    2105:	8b 76 04             	mov    0x4(%esi),%esi
    2108:	81 fe f0 25 02 00    	cmp    $0x225f0,%esi
    210e:	75 f0                	jne    2100 <block_get+0x40>
    2110:	c7 04 24 e0 25 02 00 	movl   $0x225e0,(%esp)
    2117:	e8 24 7f 00 00       	call   a040 <fibril_mutex_unlock>
    211c:	c7 44 24 08 80 01 00 	movl   $0x180,0x8(%esp)
    2123:	00 
    2124:	c7 44 24 04 bc fb 01 	movl   $0x1fbbc,0x4(%esp)
    212b:	00 
    212c:	c7 04 24 c4 fb 01 00 	movl   $0x1fbc4,(%esp)
    2133:	e8 d8 b1 01 00       	call   1d310 <assert_abort>
    2138:	c7 04 24 e0 25 02 00 	movl   $0x225e0,(%esp)
    213f:	e8 fc 7e 00 00       	call   a040 <fibril_mutex_unlock>
    2144:	8b 5e 24             	mov    0x24(%esi),%ebx
    2147:	85 db                	test   %ebx,%ebx
    2149:	0f 84 36 04 00 00    	je     2585 <block_get+0x4c5>
    214f:	8d 4b 20             	lea    0x20(%ebx),%ecx
    2152:	8d 53 3c             	lea    0x3c(%ebx),%edx
    2155:	89 4d c8             	mov    %ecx,-0x38(%ebp)
    2158:	89 55 d8             	mov    %edx,-0x28(%ebp)
    215b:	89 75 cc             	mov    %esi,-0x34(%ebp)
    215e:	66 90                	xchg   %ax,%ax
    2160:	89 1c 24             	mov    %ebx,(%esp)
    2163:	e8 b8 7d 00 00       	call   9f20 <fibril_mutex_lock>
    2168:	8d 4d e0             	lea    -0x20(%ebp),%ecx
    216b:	89 4c 24 04          	mov    %ecx,0x4(%esp)
    216f:	8b 4d c8             	mov    -0x38(%ebp),%ecx
    2172:	89 0c 24             	mov    %ecx,(%esp)
    2175:	e8 66 6c 01 00       	call   18de0 <hash_table_find>
    217a:	85 c0                	test   %eax,%eax
    217c:	0f 85 9b 01 00 00    	jne    231d <block_get+0x25d>
    2182:	83 7b 1c 09          	cmpl   $0x9,0x1c(%ebx)
    2186:	0f 86 c4 00 00 00    	jbe    2250 <block_get+0x190>
    218c:	8b 53 40             	mov    0x40(%ebx),%edx
    218f:	3b 55 d8             	cmp    -0x28(%ebp),%edx
    2192:	0f 84 b8 00 00 00    	je     2250 <block_get+0x190>
    2198:	8d 72 bc             	lea    -0x44(%edx),%esi
    219b:	89 34 24             	mov    %esi,(%esp)
    219e:	e8 7d 7d 00 00       	call   9f20 <fibril_mutex_lock>
    21a3:	80 7e 14 00          	cmpb   $0x0,0x14(%esi)
    21a7:	0f 84 13 02 00 00    	je     23c0 <block_get+0x300>
    21ad:	8b 4e 44             	mov    0x44(%esi),%ecx
    21b0:	85 c9                	test   %ecx,%ecx
    21b2:	74 0f                	je     21c3 <block_get+0x103>
    21b4:	8b 46 48             	mov    0x48(%esi),%eax
    21b7:	85 c0                	test   %eax,%eax
    21b9:	74 08                	je     21c3 <block_get+0x103>
    21bb:	89 08                	mov    %ecx,(%eax)
    21bd:	8b 4e 44             	mov    0x44(%esi),%ecx
    21c0:	89 41 04             	mov    %eax,0x4(%ecx)
    21c3:	c7 46 44 00 00 00 00 	movl   $0x0,0x44(%esi)
    21ca:	8d 46 44             	lea    0x44(%esi),%eax
    21cd:	8b 4b 3c             	mov    0x3c(%ebx),%ecx
    21d0:	8b 55 d8             	mov    -0x28(%ebp),%edx
    21d3:	89 4e 44             	mov    %ecx,0x44(%esi)
    21d6:	89 56 48             	mov    %edx,0x48(%esi)
    21d9:	8b 4b 3c             	mov    0x3c(%ebx),%ecx
    21dc:	89 43 3c             	mov    %eax,0x3c(%ebx)
    21df:	89 41 04             	mov    %eax,0x4(%ecx)
    21e2:	89 1c 24             	mov    %ebx,(%esp)
    21e5:	e8 56 7e 00 00       	call   a040 <fibril_mutex_unlock>
    21ea:	8b 46 40             	mov    0x40(%esi),%eax
    21ed:	8b 4e 3c             	mov    0x3c(%esi),%ecx
    21f0:	8b 56 38             	mov    0x38(%esi),%edx
    21f3:	8b 7b 14             	mov    0x14(%ebx),%edi
    21f6:	89 44 24 14          	mov    %eax,0x14(%esp)
    21fa:	8b 46 54             	mov    0x54(%esi),%eax
    21fd:	89 4d d4             	mov    %ecx,-0x2c(%ebp)
    2200:	89 4c 24 08          	mov    %ecx,0x8(%esp)
    2204:	8b 4d cc             	mov    -0x34(%ebp),%ecx
    2207:	89 44 24 10          	mov    %eax,0x10(%esp)
    220b:	89 7c 24 0c          	mov    %edi,0xc(%esp)
    220f:	89 54 24 04          	mov    %edx,0x4(%esp)
    2213:	89 55 d0             	mov    %edx,-0x30(%ebp)
    2216:	8b 41 10             	mov    0x10(%ecx),%eax
    2219:	89 04 24             	mov    %eax,(%esp)
    221c:	e8 ff 0f 00 00       	call   3220 <bd_write_blocks>
    2221:	85 c0                	test   %eax,%eax
    2223:	0f 85 87 00 00 00    	jne    22b0 <block_get+0x1f0>
    2229:	c6 46 14 00          	movb   $0x0,0x14(%esi)
    222d:	89 1c 24             	mov    %ebx,(%esp)
    2230:	e8 bb 7d 00 00       	call   9ff0 <fibril_mutex_trylock>
    2235:	84 c0                	test   %al,%al
    2237:	0f 85 b3 00 00 00    	jne    22f0 <block_get+0x230>
    223d:	89 34 24             	mov    %esi,(%esp)
    2240:	e8 fb 7d 00 00       	call   a040 <fibril_mutex_unlock>
    2245:	e9 16 ff ff ff       	jmp    2160 <block_get+0xa0>
    224a:	8d b6 00 00 00 00    	lea    0x0(%esi),%esi
    2250:	c7 04 24 58 00 00 00 	movl   $0x58,(%esp)
    2257:	e8 d4 08 01 00       	call   12b30 <malloc>
    225c:	89 c6                	mov    %eax,%esi
    225e:	85 c0                	test   %eax,%eax
    2260:	74 1e                	je     2280 <block_get+0x1c0>
    2262:	8b 43 10             	mov    0x10(%ebx),%eax
    2265:	89 04 24             	mov    %eax,(%esp)
    2268:	e8 c3 08 01 00       	call   12b30 <malloc>
    226d:	89 46 54             	mov    %eax,0x54(%esi)
    2270:	85 c0                	test   %eax,%eax
    2272:	0f 85 c4 02 00 00    	jne    253c <block_get+0x47c>
    2278:	89 34 24             	mov    %esi,(%esp)
    227b:	e8 c0 09 01 00       	call   12c40 <free>
    2280:	8b 53 40             	mov    0x40(%ebx),%edx
    2283:	3b 55 d8             	cmp    -0x28(%ebp),%edx
    2286:	0f 85 0c ff ff ff    	jne    2198 <block_get+0xd8>
    228c:	89 1c 24             	mov    %ebx,(%esp)
    228f:	31 ff                	xor    %edi,%edi
    2291:	e8 aa 7d 00 00       	call   a040 <fibril_mutex_unlock>
    2296:	b9 fe ff ff ff       	mov    $0xfffffffe,%ecx
    229b:	8b 45 08             	mov    0x8(%ebp),%eax
    229e:	89 38                	mov    %edi,(%eax)
    22a0:	83 c4 5c             	add    $0x5c,%esp
    22a3:	89 c8                	mov    %ecx,%eax
    22a5:	5b                   	pop    %ebx
    22a6:	5e                   	pop    %esi
    22a7:	5f                   	pop    %edi
    22a8:	5d                   	pop    %ebp
    22a9:	c3                   	ret    
    22aa:	8d b6 00 00 00 00    	lea    0x0(%esi),%esi
    22b0:	8b 4d cc             	mov    -0x34(%ebp),%ecx
    22b3:	8b 51 08             	mov    0x8(%ecx),%edx
    22b6:	8b 4d d4             	mov    -0x2c(%ebp),%ecx
    22b9:	89 54 24 14          	mov    %edx,0x14(%esp)
    22bd:	8b 55 d0             	mov    -0x30(%ebp),%edx
    22c0:	89 54 24 0c          	mov    %edx,0xc(%esp)
    22c4:	89 4c 24 10          	mov    %ecx,0x10(%esp)
    22c8:	89 7c 24 08          	mov    %edi,0x8(%esp)
    22cc:	89 44 24 04          	mov    %eax,0x4(%esp)
    22d0:	c7 04 24 58 fc 01 00 	movl   $0x1fc58,(%esp)
    22d7:	e8 d4 bb 00 00       	call   deb0 <printf>
    22dc:	e8 8f af 01 00       	call   1d270 <stacktrace_print>
    22e1:	89 34 24             	mov    %esi,(%esp)
    22e4:	e8 57 7d 00 00       	call   a040 <fibril_mutex_unlock>
    22e9:	e9 72 fe ff ff       	jmp    2160 <block_get+0xa0>
    22ee:	66 90                	xchg   %ax,%ax
    22f0:	8d 4d e0             	lea    -0x20(%ebp),%ecx
    22f3:	89 f7                	mov    %esi,%edi
    22f5:	89 4c 24 04          	mov    %ecx,0x4(%esp)
    22f9:	8b 4d c8             	mov    -0x38(%ebp),%ecx
    22fc:	89 0c 24             	mov    %ecx,(%esp)
    22ff:	8b 75 cc             	mov    -0x34(%ebp),%esi
    2302:	e8 d9 6a 01 00       	call   18de0 <hash_table_find>
    2307:	85 c0                	test   %eax,%eax
    2309:	0f 84 b6 00 00 00    	je     23c5 <block_get+0x305>
    230f:	89 3c 24             	mov    %edi,(%esp)
    2312:	89 45 c0             	mov    %eax,-0x40(%ebp)
    2315:	e8 26 7d 00 00       	call   a040 <fibril_mutex_unlock>
    231a:	8b 45 c0             	mov    -0x40(%ebp),%eax
    231d:	8d 78 b4             	lea    -0x4c(%eax),%edi
    2320:	89 3c 24             	mov    %edi,(%esp)
    2323:	e8 f8 7b 00 00       	call   9f20 <fibril_mutex_lock>
    2328:	8b 47 10             	mov    0x10(%edi),%eax
    232b:	8d 50 01             	lea    0x1(%eax),%edx
    232e:	85 c0                	test   %eax,%eax
    2330:	89 57 10             	mov    %edx,0x10(%edi)
    2333:	75 24                	jne    2359 <block_get+0x299>
    2335:	8b 57 44             	mov    0x44(%edi),%edx
    2338:	85 d2                	test   %edx,%edx
    233a:	74 0f                	je     234b <block_get+0x28b>
    233c:	8b 47 48             	mov    0x48(%edi),%eax
    233f:	85 c0                	test   %eax,%eax
    2341:	74 08                	je     234b <block_get+0x28b>
    2343:	89 10                	mov    %edx,(%eax)
    2345:	8b 57 44             	mov    0x44(%edi),%edx
    2348:	89 42 04             	mov    %eax,0x4(%edx)
    234b:	c7 47 44 00 00 00 00 	movl   $0x0,0x44(%edi)
    2352:	c7 47 48 00 00 00 00 	movl   $0x0,0x48(%edi)
    2359:	80 7f 15 01          	cmpb   $0x1,0x15(%edi)
    235d:	19 c0                	sbb    %eax,%eax
    235f:	40                   	inc    %eax
    2360:	80 7f 15 01          	cmpb   $0x1,0x15(%edi)
    2364:	19 c9                	sbb    %ecx,%ecx
    2366:	89 3c 24             	mov    %edi,(%esp)
    2369:	83 f1 ff             	xor    $0xffffffff,%ecx
    236c:	88 45 c0             	mov    %al,-0x40(%ebp)
    236f:	81 e1 f7 fe ff ff    	and    $0xfffffef7,%ecx
    2375:	89 4d c4             	mov    %ecx,-0x3c(%ebp)
    2378:	e8 c3 7c 00 00       	call   a040 <fibril_mutex_unlock>
    237d:	89 1c 24             	mov    %ebx,(%esp)
    2380:	e8 bb 7c 00 00       	call   a040 <fibril_mutex_unlock>
    2385:	8a 45 c0             	mov    -0x40(%ebp),%al
    2388:	8b 4d c4             	mov    -0x3c(%ebp),%ecx
    238b:	84 c0                	test   %al,%al
    238d:	0f 84 08 ff ff ff    	je     229b <block_get+0x1db>
    2393:	80 7f 15 00          	cmpb   $0x0,0x15(%edi)
    2397:	0f 84 b0 01 00 00    	je     254d <block_get+0x48d>
    239d:	89 3c 24             	mov    %edi,(%esp)
    23a0:	89 4d c4             	mov    %ecx,-0x3c(%ebp)
    23a3:	e8 68 fa ff ff       	call   1e10 <block_put>
    23a8:	8b 45 08             	mov    0x8(%ebp),%eax
    23ab:	31 ff                	xor    %edi,%edi
    23ad:	8b 4d c4             	mov    -0x3c(%ebp),%ecx
    23b0:	89 38                	mov    %edi,(%eax)
    23b2:	83 c4 5c             	add    $0x5c,%esp
    23b5:	89 c8                	mov    %ecx,%eax
    23b7:	5b                   	pop    %ebx
    23b8:	5e                   	pop    %esi
    23b9:	5f                   	pop    %edi
    23ba:	5d                   	pop    %ebp
    23bb:	c3                   	ret    
    23bc:	8d 74 26 00          	lea    0x0(%esi,%eiz,1),%esi
    23c0:	89 f7                	mov    %esi,%edi
    23c2:	8b 75 cc             	mov    -0x34(%ebp),%esi
    23c5:	89 3c 24             	mov    %edi,(%esp)
    23c8:	e8 73 7c 00 00       	call   a040 <fibril_mutex_unlock>
    23cd:	8b 57 44             	mov    0x44(%edi),%edx
    23d0:	85 d2                	test   %edx,%edx
    23d2:	74 0f                	je     23e3 <block_get+0x323>
    23d4:	8b 47 48             	mov    0x48(%edi),%eax
    23d7:	85 c0                	test   %eax,%eax
    23d9:	74 08                	je     23e3 <block_get+0x323>
    23db:	89 10                	mov    %edx,(%eax)
    23dd:	8b 57 44             	mov    0x44(%edi),%edx
    23e0:	89 42 04             	mov    %eax,0x4(%edx)
    23e3:	8d 47 4c             	lea    0x4c(%edi),%eax
    23e6:	8b 4d c8             	mov    -0x38(%ebp),%ecx
    23e9:	c7 47 44 00 00 00 00 	movl   $0x0,0x44(%edi)
    23f0:	c7 47 48 00 00 00 00 	movl   $0x0,0x48(%edi)
    23f7:	89 44 24 04          	mov    %eax,0x4(%esp)
    23fb:	89 0c 24             	mov    %ecx,(%esp)
    23fe:	e8 5d 6c 01 00       	call   19060 <hash_table_remove_item>
    2403:	89 3c 24             	mov    %edi,(%esp)
    2406:	e8 f5 7a 00 00       	call   9f00 <fibril_mutex_initialize>
    240b:	8d 47 18             	lea    0x18(%edi),%eax
    240e:	c7 47 10 01 00 00 00 	movl   $0x1,0x10(%edi)
    2415:	c6 47 14 00          	movb   $0x0,0x14(%edi)
    2419:	c6 47 15 00          	movb   $0x0,0x15(%edi)
    241d:	89 04 24             	mov    %eax,(%esp)
    2420:	e8 6b 7d 00 00       	call   a190 <fibril_rwlock_initialize>
    2425:	8b 4d e0             	mov    -0x20(%ebp),%ecx
    2428:	8b 43 10             	mov    0x10(%ebx),%eax
    242b:	89 4d d8             	mov    %ecx,-0x28(%ebp)
    242e:	c7 47 44 00 00 00 00 	movl   $0x0,0x44(%edi)
    2435:	c7 47 48 00 00 00 00 	movl   $0x0,0x48(%edi)
    243c:	89 47 40             	mov    %eax,0x40(%edi)
    243f:	8b 45 d8             	mov    -0x28(%ebp),%eax
    2442:	8b 55 0c             	mov    0xc(%ebp),%edx
    2445:	8b 4d e4             	mov    -0x1c(%ebp),%ecx
    2448:	89 47 30             	mov    %eax,0x30(%edi)
    244b:	8b 46 24             	mov    0x24(%esi),%eax
    244e:	89 57 2c             	mov    %edx,0x2c(%edi)
    2451:	89 4f 34             	mov    %ecx,0x34(%edi)
    2454:	85 c0                	test   %eax,%eax
    2456:	0f 84 0d 01 00 00    	je     2569 <block_get+0x4a9>
    245c:	8b 40 14             	mov    0x14(%eax),%eax
    245f:	0f af c8             	imul   %eax,%ecx
    2462:	f7 65 d8             	mull   -0x28(%ebp)
    2465:	01 ca                	add    %ecx,%edx
    2467:	89 47 38             	mov    %eax,0x38(%edi)
    246a:	8b 4d c8             	mov    -0x38(%ebp),%ecx
    246d:	8d 47 4c             	lea    0x4c(%edi),%eax
    2470:	89 57 3c             	mov    %edx,0x3c(%edi)
    2473:	89 44 24 04          	mov    %eax,0x4(%esp)
    2477:	89 0c 24             	mov    %ecx,(%esp)
    247a:	e8 31 67 01 00       	call   18bb0 <hash_table_insert>
    247f:	89 3c 24             	mov    %edi,(%esp)
    2482:	e8 99 7a 00 00       	call   9f20 <fibril_mutex_lock>
    2487:	89 1c 24             	mov    %ebx,(%esp)
    248a:	e8 b1 7b 00 00       	call   a040 <fibril_mutex_unlock>
    248f:	f6 45 18 01          	testb  $0x1,0x18(%ebp)
    2493:	74 1d                	je     24b2 <block_get+0x3f2>
    2495:	31 c0                	xor    %eax,%eax
    2497:	31 c9                	xor    %ecx,%ecx
    2499:	89 3c 24             	mov    %edi,(%esp)
    249c:	88 45 c0             	mov    %al,-0x40(%ebp)
    249f:	89 4d c4             	mov    %ecx,-0x3c(%ebp)
    24a2:	e8 99 7b 00 00       	call   a040 <fibril_mutex_unlock>
    24a7:	8b 4d c4             	mov    -0x3c(%ebp),%ecx
    24aa:	8a 45 c0             	mov    -0x40(%ebp),%al
    24ad:	e9 d9 fe ff ff       	jmp    238b <block_get+0x2cb>
    24b2:	8b 53 14             	mov    0x14(%ebx),%edx
    24b5:	8b 4f 3c             	mov    0x3c(%edi),%ecx
    24b8:	8b 43 10             	mov    0x10(%ebx),%eax
    24bb:	89 55 d0             	mov    %edx,-0x30(%ebp)
    24be:	8b 57 38             	mov    0x38(%edi),%edx
    24c1:	89 4d dc             	mov    %ecx,-0x24(%ebp)
    24c4:	89 44 24 14          	mov    %eax,0x14(%esp)
    24c8:	8b 4d d0             	mov    -0x30(%ebp),%ecx
    24cb:	89 55 d8             	mov    %edx,-0x28(%ebp)
    24ce:	8b 47 54             	mov    0x54(%edi),%eax
    24d1:	8b 55 d8             	mov    -0x28(%ebp),%edx
    24d4:	89 4c 24 0c          	mov    %ecx,0xc(%esp)
    24d8:	8b 4d dc             	mov    -0x24(%ebp),%ecx
    24db:	89 44 24 10          	mov    %eax,0x10(%esp)
    24df:	89 4c 24 08          	mov    %ecx,0x8(%esp)
    24e3:	89 54 24 04          	mov    %edx,0x4(%esp)
    24e7:	8b 46 10             	mov    0x10(%esi),%eax
    24ea:	89 04 24             	mov    %eax,(%esp)
    24ed:	e8 be 0b 00 00       	call   30b0 <bd_read_blocks>
    24f2:	89 c1                	mov    %eax,%ecx
    24f4:	31 c0                	xor    %eax,%eax
    24f6:	85 c9                	test   %ecx,%ecx
    24f8:	74 9f                	je     2499 <block_get+0x3d9>
    24fa:	8b 46 08             	mov    0x8(%esi),%eax
    24fd:	8b 55 dc             	mov    -0x24(%ebp),%edx
    2500:	89 44 24 14          	mov    %eax,0x14(%esp)
    2504:	89 54 24 10          	mov    %edx,0x10(%esp)
    2508:	8b 45 d8             	mov    -0x28(%ebp),%eax
    250b:	8b 55 d0             	mov    -0x30(%ebp),%edx
    250e:	89 4c 24 04          	mov    %ecx,0x4(%esp)
    2512:	89 54 24 08          	mov    %edx,0x8(%esp)
    2516:	89 44 24 0c          	mov    %eax,0xc(%esp)
    251a:	c7 04 24 0c fc 01 00 	movl   $0x1fc0c,(%esp)
    2521:	89 4d c4             	mov    %ecx,-0x3c(%ebp)
    2524:	e8 87 b9 00 00       	call   deb0 <printf>
    2529:	e8 42 ad 01 00       	call   1d270 <stacktrace_print>
    252e:	c6 47 15 01          	movb   $0x1,0x15(%edi)
    2532:	b0 01                	mov    $0x1,%al
    2534:	8b 4d c4             	mov    -0x3c(%ebp),%ecx
    2537:	e9 5d ff ff ff       	jmp    2499 <block_get+0x3d9>
    253c:	8b 43 1c             	mov    0x1c(%ebx),%eax
    253f:	89 f7                	mov    %esi,%edi
    2541:	40                   	inc    %eax
    2542:	8b 75 cc             	mov    -0x34(%ebp),%esi
    2545:	89 43 1c             	mov    %eax,0x1c(%ebx)
    2548:	e9 b6 fe ff ff       	jmp    2403 <block_get+0x343>
    254d:	c7 44 24 08 15 02 00 	movl   $0x215,0x8(%esp)
    2554:	00 
    2555:	c7 44 24 04 bc fb 01 	movl   $0x1fbbc,0x4(%esp)
    255c:	00 
    255d:	c7 04 24 02 fc 01 00 	movl   $0x1fc02,(%esp)
    2564:	e8 a7 ad 01 00       	call   1d310 <assert_abort>
    2569:	c7 44 24 08 96 03 00 	movl   $0x396,0x8(%esp)
    2570:	00 
    2571:	c7 44 24 04 bc fb 01 	movl   $0x1fbbc,0x4(%esp)
    2578:	00 
    2579:	c7 04 24 ec fb 01 00 	movl   $0x1fbec,(%esp)
    2580:	e8 8b ad 01 00       	call   1d310 <assert_abort>
    2585:	c7 44 24 08 81 01 00 	movl   $0x181,0x8(%esp)
    258c:	00 
    258d:	c7 44 24 04 bc fb 01 	movl   $0x1fbbc,0x4(%esp)
    2594:	00 
    2595:	c7 04 24 cb fb 01 00 	movl   $0x1fbcb,(%esp)
    259c:	e8 6f ad 01 00       	call   1d310 <assert_abort>
    25a1:	eb 0d                	jmp    25b0 <block_seqread>
    25a3:	90                   	nop
    25a4:	90                   	nop
    25a5:	90                   	nop
    25a6:	90                   	nop
    25a7:	90                   	nop
    25a8:	90                   	nop
    25a9:	90                   	nop
    25aa:	90                   	nop
    25ab:	90                   	nop
    25ac:	90                   	nop
    25ad:	90                   	nop
    25ae:	90                   	nop
    25af:	90                   	nop

000025b0 <block_seqread>:
    25b0:	55                   	push   %ebp
    25b1:	89 e5                	mov    %esp,%ebp
    25b3:	57                   	push   %edi
    25b4:	56                   	push   %esi
    25b5:	53                   	push   %ebx
    25b6:	83 ec 3c             	sub    $0x3c,%esp
    25b9:	8b 5d 08             	mov    0x8(%ebp),%ebx
    25bc:	c7 04 24 e0 25 02 00 	movl   $0x225e0,(%esp)
    25c3:	e8 58 79 00 00       	call   9f20 <fibril_mutex_lock>
    25c8:	8b 0d f4 25 02 00    	mov    0x225f4,%ecx
    25ce:	81 f9 f0 25 02 00    	cmp    $0x225f0,%ecx
    25d4:	75 19                	jne    25ef <block_seqread+0x3f>
    25d6:	e9 45 01 00 00       	jmp    2720 <block_seqread+0x170>
    25db:	90                   	nop
    25dc:	8d 74 26 00          	lea    0x0(%esi,%eiz,1),%esi
    25e0:	8b 49 04             	mov    0x4(%ecx),%ecx
    25e3:	81 f9 f0 25 02 00    	cmp    $0x225f0,%ecx
    25e9:	0f 84 31 01 00 00    	je     2720 <block_seqread+0x170>
    25ef:	3b 59 08             	cmp    0x8(%ecx),%ebx
    25f2:	75 ec                	jne    25e0 <block_seqread+0x30>
    25f4:	c7 04 24 e0 25 02 00 	movl   $0x225e0,(%esp)
    25fb:	89 4d d8             	mov    %ecx,-0x28(%ebp)
    25fe:	e8 3d 7a 00 00       	call   a040 <fibril_mutex_unlock>
    2603:	8b 4d d8             	mov    -0x28(%ebp),%ecx
    2606:	8b 5d 20             	mov    0x20(%ebp),%ebx
    2609:	8b 71 20             	mov    0x20(%ecx),%esi
    260c:	89 75 dc             	mov    %esi,-0x24(%ebp)
    260f:	85 db                	test   %ebx,%ebx
    2611:	0f 84 f9 00 00 00    	je     2710 <block_seqread+0x160>
    2617:	8b 7d 14             	mov    0x14(%ebp),%edi
    261a:	89 4d e0             	mov    %ecx,-0x20(%ebp)
    261d:	8b 5d 20             	mov    0x20(%ebp),%ebx
    2620:	c7 45 e4 00 00 00 00 	movl   $0x0,-0x1c(%ebp)
    2627:	8b 07                	mov    (%edi),%eax
    2629:	8b 4d 10             	mov    0x10(%ebp),%ecx
    262c:	eb 18                	jmp    2646 <block_seqread+0x96>
    262e:	66 90                	xchg   %ax,%ax
    2630:	89 c7                	mov    %eax,%edi
    2632:	29 f7                	sub    %esi,%edi
    2634:	0f 85 4f 01 00 00    	jne    2789 <block_seqread+0x1d9>
    263a:	39 c6                	cmp    %eax,%esi
    263c:	74 5b                	je     2699 <block_seqread+0xe9>
    263e:	85 db                	test   %ebx,%ebx
    2640:	0f 84 ca 00 00 00    	je     2710 <block_seqread+0x160>
    2646:	8b 31                	mov    (%ecx),%esi
    2648:	8d 14 33             	lea    (%ebx,%esi,1),%edx
    264b:	39 c2                	cmp    %eax,%edx
    264d:	73 e1                	jae    2630 <block_seqread+0x80>
    264f:	89 df                	mov    %ebx,%edi
    2651:	31 db                	xor    %ebx,%ebx
    2653:	8b 45 0c             	mov    0xc(%ebp),%eax
    2656:	8b 55 e4             	mov    -0x1c(%ebp),%edx
    2659:	01 c6                	add    %eax,%esi
    265b:	8b 45 1c             	mov    0x1c(%ebp),%eax
    265e:	01 d0                	add    %edx,%eax
    2660:	89 7c 24 08          	mov    %edi,0x8(%esp)
    2664:	89 74 24 04          	mov    %esi,0x4(%esp)
    2668:	89 04 24             	mov    %eax,(%esp)
    266b:	89 4d d8             	mov    %ecx,-0x28(%ebp)
    266e:	e8 7d 38 00 00       	call   5ef0 <memcpy>
    2673:	8b 4d e4             	mov    -0x1c(%ebp),%ecx
    2676:	89 f8                	mov    %edi,%eax
    2678:	01 f9                	add    %edi,%ecx
    267a:	31 d2                	xor    %edx,%edx
    267c:	89 4d e4             	mov    %ecx,-0x1c(%ebp)
    267f:	8b 4d d8             	mov    -0x28(%ebp),%ecx
    2682:	8b 31                	mov    (%ecx),%esi
    2684:	01 fe                	add    %edi,%esi
    2686:	8b 7d 18             	mov    0x18(%ebp),%edi
    2689:	89 31                	mov    %esi,(%ecx)
    268b:	01 07                	add    %eax,(%edi)
    268d:	11 57 04             	adc    %edx,0x4(%edi)
    2690:	8b 7d 14             	mov    0x14(%ebp),%edi
    2693:	8b 07                	mov    (%edi),%eax
    2695:	39 c6                	cmp    %eax,%esi
    2697:	75 a5                	jne    263e <block_seqread+0x8e>
    2699:	8b 7d 18             	mov    0x18(%ebp),%edi
    269c:	8b 75 dc             	mov    -0x24(%ebp),%esi
    269f:	89 74 24 08          	mov    %esi,0x8(%esp)
    26a3:	c7 44 24 0c 00 00 00 	movl   $0x0,0xc(%esp)
    26aa:	00 
    26ab:	8b 07                	mov    (%edi),%eax
    26ad:	8b 57 04             	mov    0x4(%edi),%edx
    26b0:	89 54 24 04          	mov    %edx,0x4(%esp)
    26b4:	89 04 24             	mov    %eax,(%esp)
    26b7:	89 4d d8             	mov    %ecx,-0x28(%ebp)
    26ba:	e8 51 cb 01 00       	call   1f210 <__udivdi3>
    26bf:	89 d7                	mov    %edx,%edi
    26c1:	8b 55 e0             	mov    -0x20(%ebp),%edx
    26c4:	89 c6                	mov    %eax,%esi
    26c6:	8b 42 20             	mov    0x20(%edx),%eax
    26c9:	c7 44 24 0c 01 00 00 	movl   $0x1,0xc(%esp)
    26d0:	00 
    26d1:	89 44 24 14          	mov    %eax,0x14(%esp)
    26d5:	8b 45 0c             	mov    0xc(%ebp),%eax
    26d8:	89 44 24 10          	mov    %eax,0x10(%esp)
    26dc:	89 74 24 04          	mov    %esi,0x4(%esp)
    26e0:	89 7c 24 08          	mov    %edi,0x8(%esp)
    26e4:	8b 42 10             	mov    0x10(%edx),%eax
    26e7:	89 04 24             	mov    %eax,(%esp)
    26ea:	e8 c1 09 00 00       	call   30b0 <bd_read_blocks>
    26ef:	8b 4d d8             	mov    -0x28(%ebp),%ecx
    26f2:	85 c0                	test   %eax,%eax
    26f4:	75 52                	jne    2748 <block_seqread+0x198>
    26f6:	8b 75 14             	mov    0x14(%ebp),%esi
    26f9:	8b 7d dc             	mov    -0x24(%ebp),%edi
    26fc:	c7 01 00 00 00 00    	movl   $0x0,(%ecx)
    2702:	89 f8                	mov    %edi,%eax
    2704:	89 3e                	mov    %edi,(%esi)
    2706:	85 db                	test   %ebx,%ebx
    2708:	0f 85 38 ff ff ff    	jne    2646 <block_seqread+0x96>
    270e:	66 90                	xchg   %ax,%ax
    2710:	83 c4 3c             	add    $0x3c,%esp
    2713:	31 d2                	xor    %edx,%edx
    2715:	89 d0                	mov    %edx,%eax
    2717:	5b                   	pop    %ebx
    2718:	5e                   	pop    %esi
    2719:	5f                   	pop    %edi
    271a:	5d                   	pop    %ebp
    271b:	c3                   	ret    
    271c:	8d 74 26 00          	lea    0x0(%esi,%eiz,1),%esi
    2720:	c7 04 24 e0 25 02 00 	movl   $0x225e0,(%esp)
    2727:	e8 14 79 00 00       	call   a040 <fibril_mutex_unlock>
    272c:	c7 44 24 08 9c 02 00 	movl   $0x29c,0x8(%esp)
    2733:	00 
    2734:	c7 44 24 04 bc fb 01 	movl   $0x1fbbc,0x4(%esp)
    273b:	00 
    273c:	c7 04 24 c4 fb 01 00 	movl   $0x1fbc4,(%esp)
    2743:	e8 c8 ab 01 00       	call   1d310 <assert_abort>
    2748:	8b 4d e0             	mov    -0x20(%ebp),%ecx
    274b:	89 c2                	mov    %eax,%edx
    274d:	8b 41 08             	mov    0x8(%ecx),%eax
    2750:	89 54 24 04          	mov    %edx,0x4(%esp)
    2754:	89 74 24 0c          	mov    %esi,0xc(%esp)
    2758:	89 7c 24 10          	mov    %edi,0x10(%esp)
    275c:	89 44 24 14          	mov    %eax,0x14(%esp)
    2760:	c7 44 24 08 01 00 00 	movl   $0x1,0x8(%esp)
    2767:	00 
    2768:	c7 04 24 0c fc 01 00 	movl   $0x1fc0c,(%esp)
    276f:	89 55 d8             	mov    %edx,-0x28(%ebp)
    2772:	e8 39 b7 00 00       	call   deb0 <printf>
    2777:	e8 f4 aa 01 00       	call   1d270 <stacktrace_print>
    277c:	8b 55 d8             	mov    -0x28(%ebp),%edx
    277f:	83 c4 3c             	add    $0x3c,%esp
    2782:	89 d0                	mov    %edx,%eax
    2784:	5b                   	pop    %ebx
    2785:	5e                   	pop    %esi
    2786:	5f                   	pop    %edi
    2787:	5d                   	pop    %ebp
    2788:	c3                   	ret    
    2789:	29 fb                	sub    %edi,%ebx
    278b:	e9 c3 fe ff ff       	jmp    2653 <block_seqread+0xa3>

00002790 <block_read_direct>:
    2790:	55                   	push   %ebp
    2791:	89 e5                	mov    %esp,%ebp
    2793:	57                   	push   %edi
    2794:	56                   	push   %esi
    2795:	53                   	push   %ebx
    2796:	83 ec 3c             	sub    $0x3c,%esp
    2799:	8b 45 08             	mov    0x8(%ebp),%eax
    279c:	8b 75 0c             	mov    0xc(%ebp),%esi
    279f:	c7 04 24 e0 25 02 00 	movl   $0x225e0,(%esp)
    27a6:	89 45 e4             	mov    %eax,-0x1c(%ebp)
    27a9:	8b 7d 10             	mov    0x10(%ebp),%edi
    27ac:	e8 6f 77 00 00       	call   9f20 <fibril_mutex_lock>
    27b1:	8b 1d f4 25 02 00    	mov    0x225f4,%ebx
    27b7:	8b 45 e4             	mov    -0x1c(%ebp),%eax
    27ba:	81 fb f0 25 02 00    	cmp    $0x225f0,%ebx
    27c0:	75 15                	jne    27d7 <block_read_direct+0x47>
    27c2:	e9 91 00 00 00       	jmp    2858 <block_read_direct+0xc8>
    27c7:	90                   	nop
    27c8:	8b 5b 04             	mov    0x4(%ebx),%ebx
    27cb:	81 fb f0 25 02 00    	cmp    $0x225f0,%ebx
    27d1:	0f 84 81 00 00 00    	je     2858 <block_read_direct+0xc8>
    27d7:	3b 43 08             	cmp    0x8(%ebx),%eax
    27da:	75 ec                	jne    27c8 <block_read_direct+0x38>
    27dc:	c7 04 24 e0 25 02 00 	movl   $0x225e0,(%esp)
    27e3:	e8 58 78 00 00       	call   a040 <fibril_mutex_unlock>
    27e8:	8b 53 20             	mov    0x20(%ebx),%edx
    27eb:	8b 45 14             	mov    0x14(%ebp),%eax
    27ee:	89 74 24 04          	mov    %esi,0x4(%esp)
    27f2:	0f af c2             	imul   %edx,%eax
    27f5:	8b 55 14             	mov    0x14(%ebp),%edx
    27f8:	89 44 24 14          	mov    %eax,0x14(%esp)
    27fc:	8b 45 18             	mov    0x18(%ebp),%eax
    27ff:	89 54 24 0c          	mov    %edx,0xc(%esp)
    2803:	89 44 24 10          	mov    %eax,0x10(%esp)
    2807:	89 7c 24 08          	mov    %edi,0x8(%esp)
    280b:	8b 43 10             	mov    0x10(%ebx),%eax
    280e:	89 04 24             	mov    %eax,(%esp)
    2811:	e8 9a 08 00 00       	call   30b0 <bd_read_blocks>
    2816:	89 c2                	mov    %eax,%edx
    2818:	85 c0                	test   %eax,%eax
    281a:	74 31                	je     284d <block_read_direct+0xbd>
    281c:	8b 43 08             	mov    0x8(%ebx),%eax
    281f:	89 54 24 04          	mov    %edx,0x4(%esp)
    2823:	89 44 24 14          	mov    %eax,0x14(%esp)
    2827:	8b 45 14             	mov    0x14(%ebp),%eax
    282a:	89 74 24 0c          	mov    %esi,0xc(%esp)
    282e:	89 7c 24 10          	mov    %edi,0x10(%esp)
    2832:	89 44 24 08          	mov    %eax,0x8(%esp)
    2836:	c7 04 24 0c fc 01 00 	movl   $0x1fc0c,(%esp)
    283d:	89 55 e4             	mov    %edx,-0x1c(%ebp)
    2840:	e8 6b b6 00 00       	call   deb0 <printf>
    2845:	e8 26 aa 01 00       	call   1d270 <stacktrace_print>
    284a:	8b 55 e4             	mov    -0x1c(%ebp),%edx
    284d:	83 c4 3c             	add    $0x3c,%esp
    2850:	89 d0                	mov    %edx,%eax
    2852:	5b                   	pop    %ebx
    2853:	5e                   	pop    %esi
    2854:	5f                   	pop    %edi
    2855:	5d                   	pop    %ebp
    2856:	c3                   	ret    
    2857:	90                   	nop
    2858:	c7 04 24 e0 25 02 00 	movl   $0x225e0,(%esp)
    285f:	e8 dc 77 00 00       	call   a040 <fibril_mutex_unlock>
    2864:	c7 44 24 08 d3 02 00 	movl   $0x2d3,0x8(%esp)
    286b:	00 
    286c:	c7 44 24 04 bc fb 01 	movl   $0x1fbbc,0x4(%esp)
    2873:	00 
    2874:	c7 04 24 c4 fb 01 00 	movl   $0x1fbc4,(%esp)
    287b:	e8 90 aa 01 00       	call   1d310 <assert_abort>

00002880 <block_write_direct>:
    2880:	55                   	push   %ebp
    2881:	89 e5                	mov    %esp,%ebp
    2883:	57                   	push   %edi
    2884:	56                   	push   %esi
    2885:	53                   	push   %ebx
    2886:	83 ec 3c             	sub    $0x3c,%esp
    2889:	8b 45 08             	mov    0x8(%ebp),%eax
    288c:	8b 75 0c             	mov    0xc(%ebp),%esi
    288f:	c7 04 24 e0 25 02 00 	movl   $0x225e0,(%esp)
    2896:	89 45 e4             	mov    %eax,-0x1c(%ebp)
    2899:	8b 7d 10             	mov    0x10(%ebp),%edi
    289c:	e8 7f 76 00 00       	call   9f20 <fibril_mutex_lock>
    28a1:	8b 1d f4 25 02 00    	mov    0x225f4,%ebx
    28a7:	8b 45 e4             	mov    -0x1c(%ebp),%eax
    28aa:	81 fb f0 25 02 00    	cmp    $0x225f0,%ebx
    28b0:	75 15                	jne    28c7 <block_write_direct+0x47>
    28b2:	e9 91 00 00 00       	jmp    2948 <block_write_direct+0xc8>
    28b7:	90                   	nop
    28b8:	8b 5b 04             	mov    0x4(%ebx),%ebx
    28bb:	81 fb f0 25 02 00    	cmp    $0x225f0,%ebx
    28c1:	0f 84 81 00 00 00    	je     2948 <block_write_direct+0xc8>
    28c7:	3b 43 08             	cmp    0x8(%ebx),%eax
    28ca:	75 ec                	jne    28b8 <block_write_direct+0x38>
    28cc:	c7 04 24 e0 25 02 00 	movl   $0x225e0,(%esp)
    28d3:	e8 68 77 00 00       	call   a040 <fibril_mutex_unlock>
    28d8:	8b 4b 20             	mov    0x20(%ebx),%ecx
    28db:	8b 45 14             	mov    0x14(%ebp),%eax
    28de:	8b 55 14             	mov    0x14(%ebp),%edx
    28e1:	0f af c1             	imul   %ecx,%eax
    28e4:	89 44 24 14          	mov    %eax,0x14(%esp)
    28e8:	8b 45 18             	mov    0x18(%ebp),%eax
    28eb:	89 54 24 0c          	mov    %edx,0xc(%esp)
    28ef:	89 44 24 10          	mov    %eax,0x10(%esp)
    28f3:	89 74 24 04          	mov    %esi,0x4(%esp)
    28f7:	89 7c 24 08          	mov    %edi,0x8(%esp)
    28fb:	8b 43 10             	mov    0x10(%ebx),%eax
    28fe:	89 04 24             	mov    %eax,(%esp)
    2901:	e8 1a 09 00 00       	call   3220 <bd_write_blocks>
    2906:	89 c2                	mov    %eax,%edx
    2908:	85 c0                	test   %eax,%eax
    290a:	74 31                	je     293d <block_write_direct+0xbd>
    290c:	8b 43 08             	mov    0x8(%ebx),%eax
    290f:	89 54 24 04          	mov    %edx,0x4(%esp)
    2913:	89 44 24 14          	mov    %eax,0x14(%esp)
    2917:	8b 45 14             	mov    0x14(%ebp),%eax
    291a:	89 74 24 0c          	mov    %esi,0xc(%esp)
    291e:	89 7c 24 10          	mov    %edi,0x10(%esp)
    2922:	89 44 24 08          	mov    %eax,0x8(%esp)
    2926:	c7 04 24 58 fc 01 00 	movl   $0x1fc58,(%esp)
    292d:	89 55 e4             	mov    %edx,-0x1c(%ebp)
    2930:	e8 7b b5 00 00       	call   deb0 <printf>
    2935:	e8 36 a9 01 00       	call   1d270 <stacktrace_print>
    293a:	8b 55 e4             	mov    -0x1c(%ebp),%edx
    293d:	83 c4 3c             	add    $0x3c,%esp
    2940:	89 d0                	mov    %edx,%eax
    2942:	5b                   	pop    %ebx
    2943:	5e                   	pop    %esi
    2944:	5f                   	pop    %edi
    2945:	5d                   	pop    %ebp
    2946:	c3                   	ret    
    2947:	90                   	nop
    2948:	c7 04 24 e0 25 02 00 	movl   $0x225e0,(%esp)
    294f:	e8 ec 76 00 00       	call   a040 <fibril_mutex_unlock>
    2954:	c7 44 24 08 e7 02 00 	movl   $0x2e7,0x8(%esp)
    295b:	00 
    295c:	c7 44 24 04 bc fb 01 	movl   $0x1fbbc,0x4(%esp)
    2963:	00 
    2964:	c7 04 24 c4 fb 01 00 	movl   $0x1fbc4,(%esp)
    296b:	e8 a0 a9 01 00       	call   1d310 <assert_abort>

00002970 <block_get_bsize>:
    2970:	55                   	push   %ebp
    2971:	89 e5                	mov    %esp,%ebp
    2973:	57                   	push   %edi
    2974:	56                   	push   %esi
    2975:	53                   	push   %ebx
    2976:	83 ec 1c             	sub    $0x1c,%esp
    2979:	8b 75 08             	mov    0x8(%ebp),%esi
    297c:	8b 7d 0c             	mov    0xc(%ebp),%edi
    297f:	c7 04 24 e0 25 02 00 	movl   $0x225e0,(%esp)
    2986:	e8 95 75 00 00       	call   9f20 <fibril_mutex_lock>
    298b:	8b 1d f4 25 02 00    	mov    0x225f4,%ebx
    2991:	81 fb f0 25 02 00    	cmp    $0x225f0,%ebx
    2997:	75 12                	jne    29ab <block_get_bsize+0x3b>
    2999:	eb 3d                	jmp    29d8 <block_get_bsize+0x68>
    299b:	90                   	nop
    299c:	8d 74 26 00          	lea    0x0(%esi,%eiz,1),%esi
    29a0:	8b 5b 04             	mov    0x4(%ebx),%ebx
    29a3:	81 fb f0 25 02 00    	cmp    $0x225f0,%ebx
    29a9:	74 2d                	je     29d8 <block_get_bsize+0x68>
    29ab:	3b 73 08             	cmp    0x8(%ebx),%esi
    29ae:	75 f0                	jne    29a0 <block_get_bsize+0x30>
    29b0:	c7 04 24 e0 25 02 00 	movl   $0x225e0,(%esp)
    29b7:	e8 84 76 00 00       	call   a040 <fibril_mutex_unlock>
    29bc:	89 7d 0c             	mov    %edi,0xc(%ebp)
    29bf:	8b 43 10             	mov    0x10(%ebx),%eax
    29c2:	89 45 08             	mov    %eax,0x8(%ebp)
    29c5:	83 c4 1c             	add    $0x1c,%esp
    29c8:	5b                   	pop    %ebx
    29c9:	5e                   	pop    %esi
    29ca:	5f                   	pop    %edi
    29cb:	5d                   	pop    %ebp
    29cc:	e9 ff 08 00 00       	jmp    32d0 <bd_get_block_size>
    29d1:	8d b4 26 00 00 00 00 	lea    0x0(%esi,%eiz,1),%esi
    29d8:	c7 04 24 e0 25 02 00 	movl   $0x225e0,(%esp)
    29df:	e8 5c 76 00 00       	call   a040 <fibril_mutex_unlock>
    29e4:	c7 44 24 08 f8 02 00 	movl   $0x2f8,0x8(%esp)
    29eb:	00 
    29ec:	c7 44 24 04 bc fb 01 	movl   $0x1fbbc,0x4(%esp)
    29f3:	00 
    29f4:	c7 04 24 c4 fb 01 00 	movl   $0x1fbc4,(%esp)
    29fb:	e8 10 a9 01 00       	call   1d310 <assert_abort>

00002a00 <block_get_nblocks>:
    2a00:	55                   	push   %ebp
    2a01:	89 e5                	mov    %esp,%ebp
    2a03:	57                   	push   %edi
    2a04:	56                   	push   %esi
    2a05:	53                   	push   %ebx
    2a06:	83 ec 1c             	sub    $0x1c,%esp
    2a09:	8b 75 08             	mov    0x8(%ebp),%esi
    2a0c:	8b 7d 0c             	mov    0xc(%ebp),%edi
    2a0f:	c7 04 24 e0 25 02 00 	movl   $0x225e0,(%esp)
    2a16:	e8 05 75 00 00       	call   9f20 <fibril_mutex_lock>
    2a1b:	8b 1d f4 25 02 00    	mov    0x225f4,%ebx
    2a21:	81 fb f0 25 02 00    	cmp    $0x225f0,%ebx
    2a27:	75 12                	jne    2a3b <block_get_nblocks+0x3b>
    2a29:	eb 3d                	jmp    2a68 <block_get_nblocks+0x68>
    2a2b:	90                   	nop
    2a2c:	8d 74 26 00          	lea    0x0(%esi,%eiz,1),%esi
    2a30:	8b 5b 04             	mov    0x4(%ebx),%ebx
    2a33:	81 fb f0 25 02 00    	cmp    $0x225f0,%ebx
    2a39:	74 2d                	je     2a68 <block_get_nblocks+0x68>
    2a3b:	3b 73 08             	cmp    0x8(%ebx),%esi
    2a3e:	75 f0                	jne    2a30 <block_get_nblocks+0x30>
    2a40:	c7 04 24 e0 25 02 00 	movl   $0x225e0,(%esp)
    2a47:	e8 f4 75 00 00       	call   a040 <fibril_mutex_unlock>
    2a4c:	89 7d 0c             	mov    %edi,0xc(%ebp)
    2a4f:	8b 43 10             	mov    0x10(%ebx),%eax
    2a52:	89 45 08             	mov    %eax,0x8(%ebp)
    2a55:	83 c4 1c             	add    $0x1c,%esp
    2a58:	5b                   	pop    %ebx
    2a59:	5e                   	pop    %esi
    2a5a:	5f                   	pop    %edi
    2a5b:	5d                   	pop    %ebp
    2a5c:	e9 ff 08 00 00       	jmp    3360 <bd_get_num_blocks>
    2a61:	8d b4 26 00 00 00 00 	lea    0x0(%esi,%eiz,1),%esi
    2a68:	c7 04 24 e0 25 02 00 	movl   $0x225e0,(%esp)
    2a6f:	e8 cc 75 00 00       	call   a040 <fibril_mutex_unlock>
    2a74:	c7 44 24 08 07 03 00 	movl   $0x307,0x8(%esp)
    2a7b:	00 
    2a7c:	c7 44 24 04 bc fb 01 	movl   $0x1fbbc,0x4(%esp)
    2a83:	00 
    2a84:	c7 04 24 c4 fb 01 00 	movl   $0x1fbc4,(%esp)
    2a8b:	e8 80 a8 01 00       	call   1d310 <assert_abort>

00002a90 <block_read_bytes_direct>:
    2a90:	55                   	push   %ebp
    2a91:	89 e5                	mov    %esp,%ebp
    2a93:	57                   	push   %edi
    2a94:	56                   	push   %esi
    2a95:	53                   	push   %ebx
    2a96:	83 ec 5c             	sub    $0x5c,%esp
    2a99:	8b 45 0c             	mov    0xc(%ebp),%eax
    2a9c:	8b 55 10             	mov    0x10(%ebp),%edx
    2a9f:	c7 04 24 e0 25 02 00 	movl   $0x225e0,(%esp)
    2aa6:	8b 5d 08             	mov    0x8(%ebp),%ebx
    2aa9:	89 45 c8             	mov    %eax,-0x38(%ebp)
    2aac:	89 55 cc             	mov    %edx,-0x34(%ebp)
    2aaf:	e8 6c 74 00 00       	call   9f20 <fibril_mutex_lock>
    2ab4:	8b 35 f4 25 02 00    	mov    0x225f4,%esi
    2aba:	81 fe f0 25 02 00    	cmp    $0x225f0,%esi
    2ac0:	75 11                	jne    2ad3 <block_read_bytes_direct+0x43>
    2ac2:	eb 44                	jmp    2b08 <block_read_bytes_direct+0x78>
    2ac4:	8d 74 26 00          	lea    0x0(%esi,%eiz,1),%esi
    2ac8:	8b 76 04             	mov    0x4(%esi),%esi
    2acb:	81 fe f0 25 02 00    	cmp    $0x225f0,%esi
    2ad1:	74 35                	je     2b08 <block_read_bytes_direct+0x78>
    2ad3:	3b 5e 08             	cmp    0x8(%esi),%ebx
    2ad6:	75 f0                	jne    2ac8 <block_read_bytes_direct+0x38>
    2ad8:	c7 04 24 e0 25 02 00 	movl   $0x225e0,(%esp)
    2adf:	e8 5c 75 00 00       	call   a040 <fibril_mutex_unlock>
    2ae4:	8d 45 e4             	lea    -0x1c(%ebp),%eax
    2ae7:	89 44 24 04          	mov    %eax,0x4(%esp)
    2aeb:	8b 46 10             	mov    0x10(%esi),%eax
    2aee:	89 04 24             	mov    %eax,(%esp)
    2af1:	e8 da 07 00 00       	call   32d0 <bd_get_block_size>
    2af6:	89 c1                	mov    %eax,%ecx
    2af8:	85 c0                	test   %eax,%eax
    2afa:	74 34                	je     2b30 <block_read_bytes_direct+0xa0>
    2afc:	83 c4 5c             	add    $0x5c,%esp
    2aff:	89 c8                	mov    %ecx,%eax
    2b01:	5b                   	pop    %ebx
    2b02:	5e                   	pop    %esi
    2b03:	5f                   	pop    %edi
    2b04:	5d                   	pop    %ebp
    2b05:	c3                   	ret    
    2b06:	66 90                	xchg   %ax,%ax
    2b08:	c7 04 24 e0 25 02 00 	movl   $0x225e0,(%esp)
    2b0f:	e8 2c 75 00 00       	call   a040 <fibril_mutex_unlock>
    2b14:	c7 44 24 08 f8 02 00 	movl   $0x2f8,0x8(%esp)
    2b1b:	00 
    2b1c:	c7 44 24 04 bc fb 01 	movl   $0x1fbbc,0x4(%esp)
    2b23:	00 
    2b24:	c7 04 24 c4 fb 01 00 	movl   $0x1fbc4,(%esp)
    2b2b:	e8 e0 a7 01 00       	call   1d310 <assert_abort>
    2b30:	8b 4d e4             	mov    -0x1c(%ebp),%ecx
    2b33:	8b 45 c8             	mov    -0x38(%ebp),%eax
    2b36:	8b 55 cc             	mov    -0x34(%ebp),%edx
    2b39:	89 4c 24 08          	mov    %ecx,0x8(%esp)
    2b3d:	c7 44 24 0c 00 00 00 	movl   $0x0,0xc(%esp)
    2b44:	00 
    2b45:	89 04 24             	mov    %eax,(%esp)
    2b48:	89 54 24 04          	mov    %edx,0x4(%esp)
    2b4c:	89 4d c4             	mov    %ecx,-0x3c(%ebp)
    2b4f:	e8 bc c6 01 00       	call   1f210 <__udivdi3>
    2b54:	be 01 00 00 00       	mov    $0x1,%esi
    2b59:	29 c6                	sub    %eax,%esi
    2b5b:	8b 4d 14             	mov    0x14(%ebp),%ecx
    2b5e:	89 c7                	mov    %eax,%edi
    2b60:	8b 45 c8             	mov    -0x38(%ebp),%eax
    2b63:	89 4d d0             	mov    %ecx,-0x30(%ebp)
    2b66:	89 55 c0             	mov    %edx,-0x40(%ebp)
    2b69:	83 c0 ff             	add    $0xffffffff,%eax
    2b6c:	8b 55 cc             	mov    -0x34(%ebp),%edx
    2b6f:	83 d2 ff             	adc    $0xffffffff,%edx
    2b72:	03 45 d0             	add    -0x30(%ebp),%eax
    2b75:	c7 45 d4 00 00 00 00 	movl   $0x0,-0x2c(%ebp)
    2b7c:	8b 4d c4             	mov    -0x3c(%ebp),%ecx
    2b7f:	13 55 d4             	adc    -0x2c(%ebp),%edx
    2b82:	89 4c 24 08          	mov    %ecx,0x8(%esp)
    2b86:	c7 44 24 0c 00 00 00 	movl   $0x0,0xc(%esp)
    2b8d:	00 
    2b8e:	89 04 24             	mov    %eax,(%esp)
    2b91:	89 54 24 04          	mov    %edx,0x4(%esp)
    2b95:	e8 76 c6 01 00       	call   1f210 <__udivdi3>
    2b9a:	01 c6                	add    %eax,%esi
    2b9c:	8b 45 c4             	mov    -0x3c(%ebp),%eax
    2b9f:	0f af c6             	imul   %esi,%eax
    2ba2:	89 04 24             	mov    %eax,(%esp)
    2ba5:	e8 86 ff 00 00       	call   12b30 <malloc>
    2baa:	89 45 d0             	mov    %eax,-0x30(%ebp)
    2bad:	85 c0                	test   %eax,%eax
    2baf:	0f 84 59 01 00 00    	je     2d0e <block_read_bytes_direct+0x27e>
    2bb5:	c7 04 24 e0 25 02 00 	movl   $0x225e0,(%esp)
    2bbc:	e8 5f 73 00 00       	call   9f20 <fibril_mutex_lock>
    2bc1:	8b 15 f4 25 02 00    	mov    0x225f4,%edx
    2bc7:	81 fa f0 25 02 00    	cmp    $0x225f0,%edx
    2bcd:	75 18                	jne    2be7 <block_read_bytes_direct+0x157>
    2bcf:	e9 cc 00 00 00       	jmp    2ca0 <block_read_bytes_direct+0x210>
    2bd4:	8d 74 26 00          	lea    0x0(%esi,%eiz,1),%esi
    2bd8:	8b 52 04             	mov    0x4(%edx),%edx
    2bdb:	81 fa f0 25 02 00    	cmp    $0x225f0,%edx
    2be1:	0f 84 b9 00 00 00    	je     2ca0 <block_read_bytes_direct+0x210>
    2be7:	3b 5a 08             	cmp    0x8(%edx),%ebx
    2bea:	75 ec                	jne    2bd8 <block_read_bytes_direct+0x148>
    2bec:	c7 04 24 e0 25 02 00 	movl   $0x225e0,(%esp)
    2bf3:	89 55 bc             	mov    %edx,-0x44(%ebp)
    2bf6:	e8 45 74 00 00       	call   a040 <fibril_mutex_unlock>
    2bfb:	8b 55 bc             	mov    -0x44(%ebp),%edx
    2bfe:	8b 42 20             	mov    0x20(%edx),%eax
    2c01:	8b 4d c0             	mov    -0x40(%ebp),%ecx
    2c04:	0f af c6             	imul   %esi,%eax
    2c07:	89 44 24 14          	mov    %eax,0x14(%esp)
    2c0b:	8b 45 d0             	mov    -0x30(%ebp),%eax
    2c0e:	89 4c 24 08          	mov    %ecx,0x8(%esp)
    2c12:	89 44 24 10          	mov    %eax,0x10(%esp)
    2c16:	89 74 24 0c          	mov    %esi,0xc(%esp)
    2c1a:	89 7c 24 04          	mov    %edi,0x4(%esp)
    2c1e:	8b 42 10             	mov    0x10(%edx),%eax
    2c21:	89 04 24             	mov    %eax,(%esp)
    2c24:	e8 87 04 00 00       	call   30b0 <bd_read_blocks>
    2c29:	8b 55 bc             	mov    -0x44(%ebp),%edx
    2c2c:	89 c1                	mov    %eax,%ecx
    2c2e:	85 c0                	test   %eax,%eax
    2c30:	0f 85 92 00 00 00    	jne    2cc8 <block_read_bytes_direct+0x238>
    2c36:	8b 55 14             	mov    0x14(%ebp),%edx
    2c39:	8b 45 c4             	mov    -0x3c(%ebp),%eax
    2c3c:	89 54 24 08          	mov    %edx,0x8(%esp)
    2c40:	8b 55 cc             	mov    -0x34(%ebp),%edx
    2c43:	8b 74 24 08          	mov    0x8(%esp),%esi
    2c47:	89 44 24 08          	mov    %eax,0x8(%esp)
    2c4b:	8b 45 c8             	mov    -0x38(%ebp),%eax
    2c4e:	8b 7c 24 0c          	mov    0xc(%esp),%edi
    2c52:	89 04 24             	mov    %eax,(%esp)
    2c55:	c7 44 24 0c 00 00 00 	movl   $0x0,0xc(%esp)
    2c5c:	00 
    2c5d:	89 54 24 04          	mov    %edx,0x4(%esp)
    2c61:	89 4d bc             	mov    %ecx,-0x44(%ebp)
    2c64:	e8 27 c8 01 00       	call   1f490 <__umoddi3>
    2c69:	8b 5d d0             	mov    -0x30(%ebp),%ebx
    2c6c:	01 d8                	add    %ebx,%eax
    2c6e:	89 74 24 08          	mov    %esi,0x8(%esp)
    2c72:	89 44 24 04          	mov    %eax,0x4(%esp)
    2c76:	8b 45 18             	mov    0x18(%ebp),%eax
    2c79:	89 04 24             	mov    %eax,(%esp)
    2c7c:	89 7c 24 0c          	mov    %edi,0xc(%esp)
    2c80:	e8 6b 32 00 00       	call   5ef0 <memcpy>
    2c85:	8b 45 d0             	mov    -0x30(%ebp),%eax
    2c88:	89 04 24             	mov    %eax,(%esp)
    2c8b:	e8 b0 ff 00 00       	call   12c40 <free>
    2c90:	8b 4d bc             	mov    -0x44(%ebp),%ecx
    2c93:	83 c4 5c             	add    $0x5c,%esp
    2c96:	89 c8                	mov    %ecx,%eax
    2c98:	5b                   	pop    %ebx
    2c99:	5e                   	pop    %esi
    2c9a:	5f                   	pop    %edi
    2c9b:	5d                   	pop    %ebp
    2c9c:	c3                   	ret    
    2c9d:	8d 76 00             	lea    0x0(%esi),%esi
    2ca0:	c7 04 24 e0 25 02 00 	movl   $0x225e0,(%esp)
    2ca7:	e8 94 73 00 00       	call   a040 <fibril_mutex_unlock>
    2cac:	c7 44 24 08 d3 02 00 	movl   $0x2d3,0x8(%esp)
    2cb3:	00 
    2cb4:	c7 44 24 04 bc fb 01 	movl   $0x1fbbc,0x4(%esp)
    2cbb:	00 
    2cbc:	c7 04 24 c4 fb 01 00 	movl   $0x1fbc4,(%esp)
    2cc3:	e8 48 a6 01 00       	call   1d310 <assert_abort>
    2cc8:	8b 42 08             	mov    0x8(%edx),%eax
    2ccb:	89 4c 24 04          	mov    %ecx,0x4(%esp)
    2ccf:	89 44 24 14          	mov    %eax,0x14(%esp)
    2cd3:	8b 45 c0             	mov    -0x40(%ebp),%eax
    2cd6:	89 7c 24 0c          	mov    %edi,0xc(%esp)
    2cda:	89 74 24 08          	mov    %esi,0x8(%esp)
    2cde:	89 44 24 10          	mov    %eax,0x10(%esp)
    2ce2:	c7 04 24 0c fc 01 00 	movl   $0x1fc0c,(%esp)
    2ce9:	89 4d bc             	mov    %ecx,-0x44(%ebp)
    2cec:	e8 bf b1 00 00       	call   deb0 <printf>
    2cf1:	e8 7a a5 01 00       	call   1d270 <stacktrace_print>
    2cf6:	8b 45 d0             	mov    -0x30(%ebp),%eax
    2cf9:	89 04 24             	mov    %eax,(%esp)
    2cfc:	e8 3f ff 00 00       	call   12c40 <free>
    2d01:	8b 4d bc             	mov    -0x44(%ebp),%ecx
    2d04:	83 c4 5c             	add    $0x5c,%esp
    2d07:	89 c8                	mov    %ecx,%eax
    2d09:	5b                   	pop    %ebx
    2d0a:	5e                   	pop    %esi
    2d0b:	5f                   	pop    %edi
    2d0c:	5d                   	pop    %ebp
    2d0d:	c3                   	ret    
    2d0e:	b9 fe ff ff ff       	mov    $0xfffffffe,%ecx
    2d13:	e9 e4 fd ff ff       	jmp    2afc <block_read_bytes_direct+0x6c>
    2d18:	90                   	nop
    2d19:	8d b4 26 00 00 00 00 	lea    0x0(%esi,%eiz,1),%esi

00002d20 <block_get_toc>:
    2d20:	55                   	push   %ebp
    2d21:	89 e5                	mov    %esp,%ebp
    2d23:	57                   	push   %edi
    2d24:	56                   	push   %esi
    2d25:	53                   	push   %ebx
    2d26:	83 ec 1c             	sub    $0x1c,%esp
    2d29:	8b 75 08             	mov    0x8(%ebp),%esi
    2d2c:	c7 04 24 e0 25 02 00 	movl   $0x225e0,(%esp)
    2d33:	0f b6 7d 0c          	movzbl 0xc(%ebp),%edi
    2d37:	e8 e4 71 00 00       	call   9f20 <fibril_mutex_lock>
    2d3c:	8b 1d f4 25 02 00    	mov    0x225f4,%ebx
    2d42:	81 fb f0 25 02 00    	cmp    $0x225f0,%ebx
    2d48:	75 11                	jne    2d5b <block_get_toc+0x3b>
    2d4a:	eb 64                	jmp    2db0 <block_get_toc+0x90>
    2d4c:	8d 74 26 00          	lea    0x0(%esi,%eiz,1),%esi
    2d50:	8b 5b 04             	mov    0x4(%ebx),%ebx
    2d53:	81 fb f0 25 02 00    	cmp    $0x225f0,%ebx
    2d59:	74 55                	je     2db0 <block_get_toc+0x90>
    2d5b:	3b 73 08             	cmp    0x8(%ebx),%esi
    2d5e:	75 f0                	jne    2d50 <block_get_toc+0x30>
    2d60:	c7 04 24 e0 25 02 00 	movl   $0x225e0,(%esp)
    2d67:	e8 d4 72 00 00       	call   a040 <fibril_mutex_unlock>
    2d6c:	c7 04 24 0c 00 00 00 	movl   $0xc,(%esp)
    2d73:	e8 b8 fd 00 00       	call   12b30 <malloc>
    2d78:	89 c6                	mov    %eax,%esi
    2d7a:	85 c0                	test   %eax,%eax
    2d7c:	74 25                	je     2da3 <block_get_toc+0x83>
    2d7e:	81 e7 ff 00 00 00    	and    $0xff,%edi
    2d84:	c7 44 24 0c 0c 00 00 	movl   $0xc,0xc(%esp)
    2d8b:	00 
    2d8c:	89 44 24 08          	mov    %eax,0x8(%esp)
    2d90:	89 7c 24 04          	mov    %edi,0x4(%esp)
    2d94:	8b 43 10             	mov    0x10(%ebx),%eax
    2d97:	89 04 24             	mov    %eax,(%esp)
    2d9a:	e8 c1 03 00 00       	call   3160 <bd_read_toc>
    2d9f:	85 c0                	test   %eax,%eax
    2da1:	75 35                	jne    2dd8 <block_get_toc+0xb8>
    2da3:	83 c4 1c             	add    $0x1c,%esp
    2da6:	89 f0                	mov    %esi,%eax
    2da8:	5b                   	pop    %ebx
    2da9:	5e                   	pop    %esi
    2daa:	5f                   	pop    %edi
    2dab:	5d                   	pop    %ebp
    2dac:	c3                   	ret    
    2dad:	8d 76 00             	lea    0x0(%esi),%esi
    2db0:	c7 04 24 e0 25 02 00 	movl   $0x225e0,(%esp)
    2db7:	e8 84 72 00 00       	call   a040 <fibril_mutex_unlock>
    2dbc:	c7 44 24 08 4f 03 00 	movl   $0x34f,0x8(%esp)
    2dc3:	00 
    2dc4:	c7 44 24 04 bc fb 01 	movl   $0x1fbbc,0x4(%esp)
    2dcb:	00 
    2dcc:	c7 04 24 c4 fb 01 00 	movl   $0x1fbc4,(%esp)
    2dd3:	e8 38 a5 01 00       	call   1d310 <assert_abort>
    2dd8:	89 34 24             	mov    %esi,(%esp)
    2ddb:	31 f6                	xor    %esi,%esi
    2ddd:	e8 5e fe 00 00       	call   12c40 <free>
    2de2:	eb bf                	jmp    2da3 <block_get_toc+0x83>

00002de4 <write_blocks.part.1>:
    2de4:	55                   	push   %ebp
    2de5:	89 e5                	mov    %esp,%ebp
    2de7:	83 ec 18             	sub    $0x18,%esp
    2dea:	c7 44 24 08 85 03 00 	movl   $0x385,0x8(%esp)
    2df1:	00 
    2df2:	c7 44 24 04 bc fb 01 	movl   $0x1fbbc,0x4(%esp)
    2df9:	00 
    2dfa:	c7 04 24 c4 fb 01 00 	movl   $0x1fbc4,(%esp)
    2e01:	e8 0a a5 01 00       	call   1d310 <assert_abort>

00002e06 <read_blocks.part.2>:
    2e06:	55                   	push   %ebp
    2e07:	89 e5                	mov    %esp,%ebp
    2e09:	83 ec 18             	sub    $0x18,%esp
    2e0c:	c7 44 24 08 6a 03 00 	movl   $0x36a,0x8(%esp)
    2e13:	00 
    2e14:	c7 44 24 04 bc fb 01 	movl   $0x1fbbc,0x4(%esp)
    2e1b:	00 
    2e1c:	c7 04 24 c4 fb 01 00 	movl   $0x1fbc4,(%esp)
    2e23:	e8 e8 a4 01 00       	call   1d310 <assert_abort>
    2e28:	66 90                	xchg   %ax,%ax
    2e2a:	66 90                	xchg   %ax,%ax
    2e2c:	66 90                	xchg   %ax,%ax
    2e2e:	66 90                	xchg   %ax,%ax

00002e30 <exit>:
    2e30:	55                   	push   %ebp
    2e31:	89 e5                	mov    %esp,%ebp
    2e33:	83 ec 28             	sub    $0x28,%esp
    2e36:	80 3d 10 28 02 00 00 	cmpb   $0x0,0x22810
    2e3d:	75 3f                	jne    2e7e <exit+0x4e>
    2e3f:	c7 44 24 18 0a 00 00 	movl   $0xa,0x18(%esp)
    2e46:	00 
    2e47:	c7 44 24 14 00 00 00 	movl   $0x0,0x14(%esp)
    2e4e:	00 
    2e4f:	c7 44 24 10 00 00 00 	movl   $0x0,0x10(%esp)
    2e56:	00 
    2e57:	c7 44 24 0c 00 00 00 	movl   $0x0,0xc(%esp)
    2e5e:	00 
    2e5f:	c7 44 24 08 00 00 00 	movl   $0x0,0x8(%esp)
    2e66:	00 
    2e67:	c7 44 24 04 00 00 00 	movl   $0x0,0x4(%esp)
    2e6e:	00 
    2e6f:	c7 04 24 00 00 00 00 	movl   $0x0,(%esp)
    2e76:	ff 15 d4 27 02 00    	call   *0x227d4
    2e7c:	eb fe                	jmp    2e7c <exit+0x4c>
    2e7e:	e8 cd 8e 00 00       	call   bd50 <__stdio_done>
    2e83:	8b 45 08             	mov    0x8(%ebp),%eax
    2e86:	89 04 24             	mov    %eax,(%esp)
    2e89:	e8 e2 89 00 00       	call   b870 <task_retval>
    2e8e:	65 a1 00 00 00 00    	mov    %gs:0x0,%eax
    2e94:	8b 40 04             	mov    0x4(%eax),%eax
    2e97:	89 04 24             	mov    %eax,(%esp)
    2e9a:	e8 c1 67 00 00       	call   9660 <fibril_teardown>
    2e9f:	eb 9e                	jmp    2e3f <exit+0xf>
    2ea1:	eb 0d                	jmp    2eb0 <abort>
    2ea3:	90                   	nop
    2ea4:	90                   	nop
    2ea5:	90                   	nop
    2ea6:	90                   	nop
    2ea7:	90                   	nop
    2ea8:	90                   	nop
    2ea9:	90                   	nop
    2eaa:	90                   	nop
    2eab:	90                   	nop
    2eac:	90                   	nop
    2ead:	90                   	nop
    2eae:	90                   	nop
    2eaf:	90                   	nop

00002eb0 <abort>:
    2eb0:	55                   	push   %ebp
    2eb1:	89 e5                	mov    %esp,%ebp
    2eb3:	83 ec 28             	sub    $0x28,%esp
    2eb6:	c7 44 24 18 0a 00 00 	movl   $0xa,0x18(%esp)
    2ebd:	00 
    2ebe:	c7 44 24 14 00 00 00 	movl   $0x0,0x14(%esp)
    2ec5:	00 
    2ec6:	c7 44 24 10 00 00 00 	movl   $0x0,0x10(%esp)
    2ecd:	00 
    2ece:	c7 44 24 0c 00 00 00 	movl   $0x0,0xc(%esp)
    2ed5:	00 
    2ed6:	c7 44 24 08 00 00 00 	movl   $0x0,0x8(%esp)
    2edd:	00 
    2ede:	c7 44 24 04 00 00 00 	movl   $0x0,0x4(%esp)
    2ee5:	00 
    2ee6:	c7 04 24 01 00 00 00 	movl   $0x1,(%esp)
    2eed:	ff 15 d4 27 02 00    	call   *0x227d4
    2ef3:	eb fe                	jmp    2ef3 <abort+0x43>
    2ef5:	8d 74 26 00          	lea    0x0(%esi,%eiz,1),%esi
    2ef9:	8d bc 27 00 00 00 00 	lea    0x0(%edi,%eiz,1),%edi

00002f00 <__main>:
    2f00:	55                   	push   %ebp
    2f01:	89 e5                	mov    %esp,%ebp
    2f03:	57                   	push   %edi
    2f04:	56                   	push   %esi
    2f05:	53                   	push   %ebx
    2f06:	83 ec 2c             	sub    $0x2c,%esp
    2f09:	8b 5d 08             	mov    0x8(%ebp),%ebx
    2f0c:	e8 1f fb 00 00       	call   12a30 <__malloc_init>
    2f11:	e8 2a 1a 01 00       	call   14940 <__async_init>
    2f16:	e8 c5 66 00 00       	call   95e0 <fibril_setup>
    2f1b:	85 c0                	test   %eax,%eax
    2f1d:	0f 84 82 00 00 00    	je     2fa5 <__main+0xa5>
    2f23:	c7 44 24 18 01 00 00 	movl   $0x1,0x18(%esp)
    2f2a:	00 
    2f2b:	c7 44 24 14 00 00 00 	movl   $0x0,0x14(%esp)
    2f32:	00 
    2f33:	c7 44 24 10 00 00 00 	movl   $0x0,0x10(%esp)
    2f3a:	00 
    2f3b:	c7 44 24 0c 00 00 00 	movl   $0x0,0xc(%esp)
    2f42:	00 
    2f43:	c7 44 24 08 00 00 00 	movl   $0x0,0x8(%esp)
    2f4a:	00 
    2f4b:	c7 44 24 04 00 00 00 	movl   $0x0,0x4(%esp)
    2f52:	00 
    2f53:	8b 40 30             	mov    0x30(%eax),%eax
    2f56:	89 04 24             	mov    %eax,(%esp)
    2f59:	ff 15 d4 27 02 00    	call   *0x227d4
    2f5f:	89 1d 08 28 02 00    	mov    %ebx,0x22808
    2f65:	c6 05 10 28 02 00 01 	movb   $0x1,0x22810
    2f6c:	85 db                	test   %ebx,%ebx
    2f6e:	74 3a                	je     2faa <__main+0xaa>
    2f70:	8b 43 10             	mov    0x10(%ebx),%eax
    2f73:	8b 73 08             	mov    0x8(%ebx),%esi
    2f76:	8b 7b 0c             	mov    0xc(%ebx),%edi
    2f79:	89 04 24             	mov    %eax,(%esp)
    2f7c:	e8 3f 8b 00 00       	call   bac0 <__stdio_init>
    2f81:	a1 08 28 02 00       	mov    0x22808,%eax
    2f86:	8b 40 04             	mov    0x4(%eax),%eax
    2f89:	89 04 24             	mov    %eax,(%esp)
    2f8c:	e8 0f 97 01 00       	call   1c6a0 <chdir>
    2f91:	89 7c 24 04          	mov    %edi,0x4(%esp)
    2f95:	89 34 24             	mov    %esi,(%esp)
    2f98:	e8 43 e1 ff ff       	call   10e0 <main>
    2f9d:	89 04 24             	mov    %eax,(%esp)
    2fa0:	e8 8b fe ff ff       	call   2e30 <exit>
    2fa5:	e8 06 ff ff ff       	call   2eb0 <abort>
    2faa:	c7 04 24 00 00 00 00 	movl   $0x0,(%esp)
    2fb1:	31 ff                	xor    %edi,%edi
    2fb3:	e8 08 8b 00 00       	call   bac0 <__stdio_init>
    2fb8:	31 f6                	xor    %esi,%esi
    2fba:	eb d5                	jmp    2f91 <__main+0x91>
    2fbc:	66 90                	xchg   %ax,%ax
    2fbe:	66 90                	xchg   %ax,%ax

00002fc0 <bd_cb_conn>:
    2fc0:	55                   	push   %ebp
    2fc1:	89 e5                	mov    %esp,%ebp
    2fc3:	53                   	push   %ebx
    2fc4:	83 ec 44             	sub    $0x44,%esp
    2fc7:	8d 5d d4             	lea    -0x2c(%ebp),%ebx
    2fca:	eb 14                	jmp    2fe0 <bd_cb_conn+0x20>
    2fcc:	8d 74 26 00          	lea    0x0(%esi,%eiz,1),%esi
    2fd0:	c7 44 24 04 f5 ff ff 	movl   $0xfffffff5,0x4(%esp)
    2fd7:	ff 
    2fd8:	89 04 24             	mov    %eax,(%esp)
    2fdb:	e8 90 26 01 00       	call   15670 <async_answer_0>
    2fe0:	c7 44 24 04 00 00 00 	movl   $0x0,0x4(%esp)
    2fe7:	00 
    2fe8:	89 1c 24             	mov    %ebx,(%esp)
    2feb:	e8 50 10 01 00       	call   14040 <async_get_call_timeout>
    2ff0:	8b 55 d4             	mov    -0x2c(%ebp),%edx
    2ff3:	85 d2                	test   %edx,%edx
    2ff5:	75 d9                	jne    2fd0 <bd_cb_conn+0x10>
    2ff7:	83 c4 44             	add    $0x44,%esp
    2ffa:	5b                   	pop    %ebx
    2ffb:	5d                   	pop    %ebp
    2ffc:	c3                   	ret    
    2ffd:	8d 76 00             	lea    0x0(%esi),%esi

00003000 <bd_open>:
    3000:	55                   	push   %ebp
    3001:	89 e5                	mov    %esp,%ebp
    3003:	57                   	push   %edi
    3004:	56                   	push   %esi
    3005:	53                   	push   %ebx
    3006:	83 ec 3c             	sub    $0x3c,%esp
    3009:	8b 75 08             	mov    0x8(%ebp),%esi
    300c:	c7 44 24 04 04 00 00 	movl   $0x4,0x4(%esp)
    3013:	00 
    3014:	c7 04 24 01 00 00 00 	movl   $0x1,(%esp)
    301b:	e8 b0 fa 00 00       	call   12ad0 <calloc>
    3020:	89 c3                	mov    %eax,%ebx
    3022:	85 c0                	test   %eax,%eax
    3024:	74 72                	je     3098 <bd_open+0x98>
    3026:	89 30                	mov    %esi,(%eax)
    3028:	89 34 24             	mov    %esi,(%esp)
    302b:	e8 40 30 01 00       	call   16070 <async_exchange_begin>
    3030:	89 5c 24 14          	mov    %ebx,0x14(%esp)
    3034:	c7 44 24 10 c0 2f 00 	movl   $0x2fc0,0x10(%esp)
    303b:	00 
    303c:	c7 44 24 0c 00 00 00 	movl   $0x0,0xc(%esp)
    3043:	00 
    3044:	c7 44 24 08 00 00 00 	movl   $0x0,0x8(%esp)
    304b:	00 
    304c:	c7 44 24 04 00 00 00 	movl   $0x0,0x4(%esp)
    3053:	00 
    3054:	89 04 24             	mov    %eax,(%esp)
    3057:	89 c7                	mov    %eax,%edi
    3059:	e8 b2 27 01 00       	call   15810 <async_connect_to_me>
    305e:	89 3c 24             	mov    %edi,(%esp)
    3061:	89 45 e4             	mov    %eax,-0x1c(%ebp)
    3064:	e8 77 33 01 00       	call   163e0 <async_exchange_end>
    3069:	8b 45 e4             	mov    -0x1c(%ebp),%eax
    306c:	85 c0                	test   %eax,%eax
    306e:	74 18                	je     3088 <bd_open+0x88>
    3070:	89 1c 24             	mov    %ebx,(%esp)
    3073:	89 45 e4             	mov    %eax,-0x1c(%ebp)
    3076:	e8 c5 fb 00 00       	call   12c40 <free>
    307b:	8b 45 e4             	mov    -0x1c(%ebp),%eax
    307e:	83 c4 3c             	add    $0x3c,%esp
    3081:	5b                   	pop    %ebx
    3082:	5e                   	pop    %esi
    3083:	5f                   	pop    %edi
    3084:	5d                   	pop    %ebp
    3085:	c3                   	ret    
    3086:	66 90                	xchg   %ax,%ax
    3088:	8b 55 0c             	mov    0xc(%ebp),%edx
    308b:	89 1a                	mov    %ebx,(%edx)
    308d:	83 c4 3c             	add    $0x3c,%esp
    3090:	5b                   	pop    %ebx
    3091:	5e                   	pop    %esi
    3092:	5f                   	pop    %edi
    3093:	5d                   	pop    %ebp
    3094:	c3                   	ret    
    3095:	8d 76 00             	lea    0x0(%esi),%esi
    3098:	b8 fe ff ff ff       	mov    $0xfffffffe,%eax
    309d:	eb df                	jmp    307e <bd_open+0x7e>
    309f:	90                   	nop

000030a0 <bd_close>:
    30a0:	55                   	push   %ebp
    30a1:	89 e5                	mov    %esp,%ebp
    30a3:	5d                   	pop    %ebp
    30a4:	e9 97 fb 00 00       	jmp    12c40 <free>
    30a9:	8d b4 26 00 00 00 00 	lea    0x0(%esi,%eiz,1),%esi

000030b0 <bd_read_blocks>:
    30b0:	55                   	push   %ebp
    30b1:	89 e5                	mov    %esp,%ebp
    30b3:	57                   	push   %edi
    30b4:	56                   	push   %esi
    30b5:	53                   	push   %ebx
    30b6:	83 ec 5c             	sub    $0x5c,%esp
    30b9:	8b 45 08             	mov    0x8(%ebp),%eax
    30bc:	8b 75 0c             	mov    0xc(%ebp),%esi
    30bf:	8b 7d 10             	mov    0x10(%ebp),%edi
    30c2:	8b 00                	mov    (%eax),%eax
    30c4:	89 04 24             	mov    %eax,(%esp)
    30c7:	e8 a4 2f 01 00       	call   16070 <async_exchange_begin>
    30cc:	89 7c 24 0c          	mov    %edi,0xc(%esp)
    30d0:	89 c3                	mov    %eax,%ebx
    30d2:	8d 45 c4             	lea    -0x3c(%ebp),%eax
    30d5:	89 44 24 18          	mov    %eax,0x18(%esp)
    30d9:	8b 45 14             	mov    0x14(%ebp),%eax
    30dc:	89 74 24 08          	mov    %esi,0x8(%esp)
    30e0:	c7 44 24 14 00 00 00 	movl   $0x0,0x14(%esp)
    30e7:	00 
    30e8:	89 44 24 10          	mov    %eax,0x10(%esp)
    30ec:	c7 44 24 04 02 04 00 	movl   $0x402,0x4(%esp)
    30f3:	00 
    30f4:	89 1c 24             	mov    %ebx,(%esp)
    30f7:	e8 14 19 01 00       	call   14a10 <async_send_fast>
    30fc:	89 1c 24             	mov    %ebx,(%esp)
    30ff:	89 c7                	mov    %eax,%edi
    3101:	8b 45 1c             	mov    0x1c(%ebp),%eax
    3104:	89 44 24 08          	mov    %eax,0x8(%esp)
    3108:	8b 45 18             	mov    0x18(%ebp),%eax
    310b:	89 44 24 04          	mov    %eax,0x4(%esp)
    310f:	e8 2c 39 01 00       	call   16a40 <async_data_read_start>
    3114:	89 1c 24             	mov    %ebx,(%esp)
    3117:	89 c6                	mov    %eax,%esi
    3119:	e8 c2 32 01 00       	call   163e0 <async_exchange_end>
    311e:	85 f6                	test   %esi,%esi
    3120:	75 26                	jne    3148 <bd_read_blocks+0x98>
    3122:	8d 45 c0             	lea    -0x40(%ebp),%eax
    3125:	89 3c 24             	mov    %edi,(%esp)
    3128:	89 44 24 04          	mov    %eax,0x4(%esp)
    312c:	e8 af 1a 01 00       	call   14be0 <async_wait_for>
    3131:	8b 45 c0             	mov    -0x40(%ebp),%eax
    3134:	85 c0                	test   %eax,%eax
    3136:	74 02                	je     313a <bd_read_blocks+0x8a>
    3138:	89 c6                	mov    %eax,%esi
    313a:	83 c4 5c             	add    $0x5c,%esp
    313d:	89 f0                	mov    %esi,%eax
    313f:	5b                   	pop    %ebx
    3140:	5e                   	pop    %esi
    3141:	5f                   	pop    %edi
    3142:	5d                   	pop    %ebp
    3143:	c3                   	ret    
    3144:	8d 74 26 00          	lea    0x0(%esi,%eiz,1),%esi
    3148:	89 3c 24             	mov    %edi,(%esp)
    314b:	e8 e0 1c 01 00       	call   14e30 <async_forget>
    3150:	83 c4 5c             	add    $0x5c,%esp
    3153:	89 f0                	mov    %esi,%eax
    3155:	5b                   	pop    %ebx
    3156:	5e                   	pop    %esi
    3157:	5f                   	pop    %edi
    3158:	5d                   	pop    %ebp
    3159:	c3                   	ret    
    315a:	8d b6 00 00 00 00    	lea    0x0(%esi),%esi

00003160 <bd_read_toc>:
    3160:	55                   	push   %ebp
    3161:	89 e5                	mov    %esp,%ebp
    3163:	57                   	push   %edi
    3164:	56                   	push   %esi
    3165:	53                   	push   %ebx
    3166:	83 ec 5c             	sub    $0x5c,%esp
    3169:	8b 45 08             	mov    0x8(%ebp),%eax
    316c:	0f b6 75 0c          	movzbl 0xc(%ebp),%esi
    3170:	8b 00                	mov    (%eax),%eax
    3172:	81 e6 ff 00 00 00    	and    $0xff,%esi
    3178:	89 04 24             	mov    %eax,(%esp)
    317b:	e8 f0 2e 01 00       	call   16070 <async_exchange_begin>
    3180:	89 74 24 08          	mov    %esi,0x8(%esp)
    3184:	89 c3                	mov    %eax,%ebx
    3186:	8d 45 c4             	lea    -0x3c(%ebp),%eax
    3189:	89 44 24 18          	mov    %eax,0x18(%esp)
    318d:	c7 44 24 14 00 00 00 	movl   $0x0,0x14(%esp)
    3194:	00 
    3195:	c7 44 24 10 00 00 00 	movl   $0x0,0x10(%esp)
    319c:	00 
    319d:	c7 44 24 0c 00 00 00 	movl   $0x0,0xc(%esp)
    31a4:	00 
    31a5:	c7 44 24 04 04 04 00 	movl   $0x404,0x4(%esp)
    31ac:	00 
    31ad:	89 1c 24             	mov    %ebx,(%esp)
    31b0:	e8 5b 18 01 00       	call   14a10 <async_send_fast>
    31b5:	89 1c 24             	mov    %ebx,(%esp)
    31b8:	89 c7                	mov    %eax,%edi
    31ba:	8b 45 14             	mov    0x14(%ebp),%eax
    31bd:	89 44 24 08          	mov    %eax,0x8(%esp)
    31c1:	8b 45 10             	mov    0x10(%ebp),%eax
    31c4:	89 44 24 04          	mov    %eax,0x4(%esp)
    31c8:	e8 73 38 01 00       	call   16a40 <async_data_read_start>
    31cd:	89 1c 24             	mov    %ebx,(%esp)
    31d0:	89 c6                	mov    %eax,%esi
    31d2:	e8 09 32 01 00       	call   163e0 <async_exchange_end>
    31d7:	85 f6                	test   %esi,%esi
    31d9:	75 25                	jne    3200 <bd_read_toc+0xa0>
    31db:	8d 45 c0             	lea    -0x40(%ebp),%eax
    31de:	89 3c 24             	mov    %edi,(%esp)
    31e1:	89 44 24 04          	mov    %eax,0x4(%esp)
    31e5:	e8 f6 19 01 00       	call   14be0 <async_wait_for>
    31ea:	8b 45 c0             	mov    -0x40(%ebp),%eax
    31ed:	85 c0                	test   %eax,%eax
    31ef:	74 02                	je     31f3 <bd_read_toc+0x93>
    31f1:	89 c6                	mov    %eax,%esi
    31f3:	83 c4 5c             	add    $0x5c,%esp
    31f6:	89 f0                	mov    %esi,%eax
    31f8:	5b                   	pop    %ebx
    31f9:	5e                   	pop    %esi
    31fa:	5f                   	pop    %edi
    31fb:	5d                   	pop    %ebp
    31fc:	c3                   	ret    
    31fd:	8d 76 00             	lea    0x0(%esi),%esi
    3200:	89 3c 24             	mov    %edi,(%esp)
    3203:	e8 28 1c 01 00       	call   14e30 <async_forget>
    3208:	83 c4 5c             	add    $0x5c,%esp
    320b:	89 f0                	mov    %esi,%eax
    320d:	5b                   	pop    %ebx
    320e:	5e                   	pop    %esi
    320f:	5f                   	pop    %edi
    3210:	5d                   	pop    %ebp
    3211:	c3                   	ret    
    3212:	8d b4 26 00 00 00 00 	lea    0x0(%esi,%eiz,1),%esi
    3219:	8d bc 27 00 00 00 00 	lea    0x0(%edi,%eiz,1),%edi

00003220 <bd_write_blocks>:
    3220:	55                   	push   %ebp
    3221:	89 e5                	mov    %esp,%ebp
    3223:	57                   	push   %edi
    3224:	56                   	push   %esi
    3225:	53                   	push   %ebx
    3226:	83 ec 5c             	sub    $0x5c,%esp
    3229:	8b 45 08             	mov    0x8(%ebp),%eax
    322c:	8b 75 0c             	mov    0xc(%ebp),%esi
    322f:	8b 7d 10             	mov    0x10(%ebp),%edi
    3232:	8b 00                	mov    (%eax),%eax
    3234:	89 04 24             	mov    %eax,(%esp)
    3237:	e8 34 2e 01 00       	call   16070 <async_exchange_begin>
    323c:	89 7c 24 0c          	mov    %edi,0xc(%esp)
    3240:	89 c3                	mov    %eax,%ebx
    3242:	8d 45 c4             	lea    -0x3c(%ebp),%eax
    3245:	89 44 24 18          	mov    %eax,0x18(%esp)
    3249:	8b 45 14             	mov    0x14(%ebp),%eax
    324c:	89 74 24 08          	mov    %esi,0x8(%esp)
    3250:	c7 44 24 14 00 00 00 	movl   $0x0,0x14(%esp)
    3257:	00 
    3258:	89 44 24 10          	mov    %eax,0x10(%esp)
    325c:	c7 44 24 04 03 04 00 	movl   $0x403,0x4(%esp)
    3263:	00 
    3264:	89 1c 24             	mov    %ebx,(%esp)
    3267:	e8 a4 17 01 00       	call   14a10 <async_send_fast>
    326c:	89 1c 24             	mov    %ebx,(%esp)
    326f:	89 c7                	mov    %eax,%edi
    3271:	8b 45 1c             	mov    0x1c(%ebp),%eax
    3274:	89 44 24 08          	mov    %eax,0x8(%esp)
    3278:	8b 45 18             	mov    0x18(%ebp),%eax
    327b:	89 44 24 04          	mov    %eax,0x4(%esp)
    327f:	e8 dc 3c 01 00       	call   16f60 <async_data_write_start>
    3284:	89 1c 24             	mov    %ebx,(%esp)
    3287:	89 c6                	mov    %eax,%esi
    3289:	e8 52 31 01 00       	call   163e0 <async_exchange_end>
    328e:	85 f6                	test   %esi,%esi
    3290:	75 26                	jne    32b8 <bd_write_blocks+0x98>
    3292:	8d 45 c0             	lea    -0x40(%ebp),%eax
    3295:	89 3c 24             	mov    %edi,(%esp)
    3298:	89 44 24 04          	mov    %eax,0x4(%esp)
    329c:	e8 3f 19 01 00       	call   14be0 <async_wait_for>
    32a1:	8b 45 c0             	mov    -0x40(%ebp),%eax
    32a4:	85 c0                	test   %eax,%eax
    32a6:	74 02                	je     32aa <bd_write_blocks+0x8a>
    32a8:	89 c6                	mov    %eax,%esi
    32aa:	83 c4 5c             	add    $0x5c,%esp
    32ad:	89 f0                	mov    %esi,%eax
    32af:	5b                   	pop    %ebx
    32b0:	5e                   	pop    %esi
    32b1:	5f                   	pop    %edi
    32b2:	5d                   	pop    %ebp
    32b3:	c3                   	ret    
    32b4:	8d 74 26 00          	lea    0x0(%esi,%eiz,1),%esi
    32b8:	89 3c 24             	mov    %edi,(%esp)
    32bb:	e8 70 1b 01 00       	call   14e30 <async_forget>
    32c0:	83 c4 5c             	add    $0x5c,%esp
    32c3:	89 f0                	mov    %esi,%eax
    32c5:	5b                   	pop    %ebx
    32c6:	5e                   	pop    %esi
    32c7:	5f                   	pop    %edi
    32c8:	5d                   	pop    %ebp
    32c9:	c3                   	ret    
    32ca:	8d b6 00 00 00 00    	lea    0x0(%esi),%esi

000032d0 <bd_get_block_size>:
    32d0:	55                   	push   %ebp
    32d1:	89 e5                	mov    %esp,%ebp
    32d3:	53                   	push   %ebx
    32d4:	83 ec 54             	sub    $0x54,%esp
    32d7:	8b 45 08             	mov    0x8(%ebp),%eax
    32da:	8b 00                	mov    (%eax),%eax
    32dc:	89 04 24             	mov    %eax,(%esp)
    32df:	e8 8c 2d 01 00       	call   16070 <async_exchange_begin>
    32e4:	c7 44 24 28 00 00 00 	movl   $0x0,0x28(%esp)
    32eb:	00 
    32ec:	89 c3                	mov    %eax,%ebx
    32ee:	8d 45 f4             	lea    -0xc(%ebp),%eax
    32f1:	c7 44 24 24 00 00 00 	movl   $0x0,0x24(%esp)
    32f8:	00 
    32f9:	c7 44 24 20 00 00 00 	movl   $0x0,0x20(%esp)
    3300:	00 
    3301:	c7 44 24 1c 00 00 00 	movl   $0x0,0x1c(%esp)
    3308:	00 
    3309:	89 44 24 18          	mov    %eax,0x18(%esp)
    330d:	c7 44 24 14 00 00 00 	movl   $0x0,0x14(%esp)
    3314:	00 
    3315:	c7 44 24 10 00 00 00 	movl   $0x0,0x10(%esp)
    331c:	00 
    331d:	c7 44 24 0c 00 00 00 	movl   $0x0,0xc(%esp)
    3324:	00 
    3325:	c7 44 24 08 00 00 00 	movl   $0x0,0x8(%esp)
    332c:	00 
    332d:	c7 44 24 04 00 04 00 	movl   $0x400,0x4(%esp)
    3334:	00 
    3335:	89 1c 24             	mov    %ebx,(%esp)
    3338:	e8 e3 1c 01 00       	call   15020 <async_req_fast>
    333d:	89 1c 24             	mov    %ebx,(%esp)
    3340:	89 45 e4             	mov    %eax,-0x1c(%ebp)
    3343:	e8 98 30 01 00       	call   163e0 <async_exchange_end>
    3348:	8b 45 e4             	mov    -0x1c(%ebp),%eax
    334b:	85 c0                	test   %eax,%eax
    334d:	75 08                	jne    3357 <bd_get_block_size+0x87>
    334f:	8b 55 0c             	mov    0xc(%ebp),%edx
    3352:	8b 4d f4             	mov    -0xc(%ebp),%ecx
    3355:	89 0a                	mov    %ecx,(%edx)
    3357:	83 c4 54             	add    $0x54,%esp
    335a:	5b                   	pop    %ebx
    335b:	5d                   	pop    %ebp
    335c:	c3                   	ret    
    335d:	8d 76 00             	lea    0x0(%esi),%esi

00003360 <bd_get_num_blocks>:
    3360:	55                   	push   %ebp
    3361:	89 e5                	mov    %esp,%ebp
    3363:	57                   	push   %edi
    3364:	56                   	push   %esi
    3365:	53                   	push   %ebx
    3366:	83 ec 5c             	sub    $0x5c,%esp
    3369:	8b 45 08             	mov    0x8(%ebp),%eax
    336c:	8b 00                	mov    (%eax),%eax
    336e:	89 04 24             	mov    %eax,(%esp)
    3371:	e8 fa 2c 01 00       	call   16070 <async_exchange_begin>
    3376:	c7 44 24 28 00 00 00 	movl   $0x0,0x28(%esp)
    337d:	00 
    337e:	89 c3                	mov    %eax,%ebx
    3380:	8d 45 e4             	lea    -0x1c(%ebp),%eax
    3383:	89 44 24 1c          	mov    %eax,0x1c(%esp)
    3387:	8d 45 e0             	lea    -0x20(%ebp),%eax
    338a:	c7 44 24 24 00 00 00 	movl   $0x0,0x24(%esp)
    3391:	00 
    3392:	c7 44 24 20 00 00 00 	movl   $0x0,0x20(%esp)
    3399:	00 
    339a:	89 44 24 18          	mov    %eax,0x18(%esp)
    339e:	c7 44 24 14 00 00 00 	movl   $0x0,0x14(%esp)
    33a5:	00 
    33a6:	c7 44 24 10 00 00 00 	movl   $0x0,0x10(%esp)
    33ad:	00 
    33ae:	c7 44 24 0c 00 00 00 	movl   $0x0,0xc(%esp)
    33b5:	00 
    33b6:	c7 44 24 08 00 00 00 	movl   $0x0,0x8(%esp)
    33bd:	00 
    33be:	c7 44 24 04 01 04 00 	movl   $0x401,0x4(%esp)
    33c5:	00 
    33c6:	89 1c 24             	mov    %ebx,(%esp)
    33c9:	e8 52 1c 01 00       	call   15020 <async_req_fast>
    33ce:	89 1c 24             	mov    %ebx,(%esp)
    33d1:	89 45 d4             	mov    %eax,-0x2c(%ebp)
    33d4:	e8 07 30 01 00       	call   163e0 <async_exchange_end>
    33d9:	8b 45 d4             	mov    -0x2c(%ebp),%eax
    33dc:	85 c0                	test   %eax,%eax
    33de:	75 0e                	jne    33ee <bd_get_num_blocks+0x8e>
    33e0:	8b 55 0c             	mov    0xc(%ebp),%edx
    33e3:	8b 4d e4             	mov    -0x1c(%ebp),%ecx
    33e6:	8b 75 e0             	mov    -0x20(%ebp),%esi
    33e9:	89 32                	mov    %esi,(%edx)
    33eb:	89 4a 04             	mov    %ecx,0x4(%edx)
    33ee:	83 c4 5c             	add    $0x5c,%esp
    33f1:	5b                   	pop    %ebx
    33f2:	5e                   	pop    %esi
    33f3:	5f                   	pop    %edi
    33f4:	5d                   	pop    %ebp
    33f5:	c3                   	ret    
    33f6:	66 90                	xchg   %ax,%ax
    33f8:	66 90                	xchg   %ax,%ax
    33fa:	66 90                	xchg   %ax,%ax
    33fc:	66 90                	xchg   %ax,%ax
    33fe:	66 90                	xchg   %ax,%ax

00003400 <loc_cb_conn>:
    3400:	55                   	push   %ebp
    3401:	89 e5                	mov    %esp,%ebp
    3403:	56                   	push   %esi
    3404:	53                   	push   %ebx
    3405:	83 ec 50             	sub    $0x50,%esp
    3408:	8d 5d d4             	lea    -0x2c(%ebp),%ebx
    340b:	90                   	nop
    340c:	8d 74 26 00          	lea    0x0(%esi,%eiz,1),%esi
    3410:	c7 44 24 04 00 00 00 	movl   $0x0,0x4(%esp)
    3417:	00 
    3418:	89 1c 24             	mov    %ebx,(%esp)
    341b:	e8 20 0c 01 00       	call   14040 <async_get_call_timeout>
    3420:	8b 55 d4             	mov    -0x2c(%ebp),%edx
    3423:	85 d2                	test   %edx,%edx
    3425:	74 61                	je     3488 <loc_cb_conn+0x88>
    3427:	81 fa 00 04 00 00    	cmp    $0x400,%edx
    342d:	74 19                	je     3448 <loc_cb_conn+0x48>
    342f:	c7 44 24 04 f5 ff ff 	movl   $0xfffffff5,0x4(%esp)
    3436:	ff 
    3437:	89 04 24             	mov    %eax,(%esp)
    343a:	e8 31 22 01 00       	call   15670 <async_answer_0>
    343f:	eb cf                	jmp    3410 <loc_cb_conn+0x10>
    3441:	8d b4 26 00 00 00 00 	lea    0x0(%esi,%eiz,1),%esi
    3448:	c7 04 24 4c 26 02 00 	movl   $0x2264c,(%esp)
    344f:	89 45 c4             	mov    %eax,-0x3c(%ebp)
    3452:	e8 c9 6a 00 00       	call   9f20 <fibril_mutex_lock>
    3457:	c7 04 24 4c 26 02 00 	movl   $0x2264c,(%esp)
    345e:	8b 35 24 28 02 00    	mov    0x22824,%esi
    3464:	e8 d7 6b 00 00       	call   a040 <fibril_mutex_unlock>
    3469:	8b 45 c4             	mov    -0x3c(%ebp),%eax
    346c:	c7 44 24 04 00 00 00 	movl   $0x0,0x4(%esp)
    3473:	00 
    3474:	89 04 24             	mov    %eax,(%esp)
    3477:	e8 f4 21 01 00       	call   15670 <async_answer_0>
    347c:	85 f6                	test   %esi,%esi
    347e:	74 90                	je     3410 <loc_cb_conn+0x10>
    3480:	ff d6                	call   *%esi
    3482:	eb 8c                	jmp    3410 <loc_cb_conn+0x10>
    3484:	8d 74 26 00          	lea    0x0(%esi,%eiz,1),%esi
    3488:	83 c4 50             	add    $0x50,%esp
    348b:	5b                   	pop    %ebx
    348c:	5e                   	pop    %esi
    348d:	5d                   	pop    %ebp
    348e:	c3                   	ret    
    348f:	90                   	nop

00003490 <loc_exchange_begin.part.0>:
    3490:	55                   	push   %ebp
    3491:	89 e5                	mov    %esp,%ebp
    3493:	83 ec 18             	sub    $0x18,%esp
    3496:	c7 04 24 1c 26 02 00 	movl   $0x2261c,(%esp)
    349d:	e8 7e 6a 00 00       	call   9f20 <fibril_mutex_lock>
    34a2:	a1 14 28 02 00       	mov    0x22814,%eax
    34a7:	85 c0                	test   %eax,%eax
    34a9:	74 25                	je     34d0 <loc_exchange_begin.part.0+0x40>
    34ab:	c7 04 24 1c 26 02 00 	movl   $0x2261c,(%esp)
    34b2:	e8 89 6b 00 00       	call   a040 <fibril_mutex_unlock>
    34b7:	a1 14 28 02 00       	mov    0x22814,%eax
    34bc:	85 c0                	test   %eax,%eax
    34be:	74 40                	je     3500 <loc_exchange_begin.part.0+0x70>
    34c0:	89 04 24             	mov    %eax,(%esp)
    34c3:	e8 a8 2b 01 00       	call   16070 <async_exchange_begin>
    34c8:	c9                   	leave  
    34c9:	c3                   	ret    
    34ca:	8d b6 00 00 00 00    	lea    0x0(%esi),%esi
    34d0:	c7 44 24 0c 00 00 00 	movl   $0x0,0xc(%esp)
    34d7:	00 
    34d8:	c7 44 24 08 01 00 00 	movl   $0x1,0x8(%esp)
    34df:	00 
    34e0:	c7 44 24 04 6c 6f 63 	movl   $0x20636f6c,0x4(%esp)
    34e7:	20 
    34e8:	c7 04 24 02 00 00 00 	movl   $0x2,(%esp)
    34ef:	e8 4c fe 00 00       	call   13340 <service_connect>
    34f4:	a3 14 28 02 00       	mov    %eax,0x22814
    34f9:	eb b0                	jmp    34ab <loc_exchange_begin.part.0+0x1b>
    34fb:	90                   	nop
    34fc:	8d 74 26 00          	lea    0x0(%esi,%eiz,1),%esi
    3500:	31 c0                	xor    %eax,%eax
    3502:	c9                   	leave  
    3503:	c3                   	ret    
    3504:	8d b6 00 00 00 00    	lea    0x0(%esi),%esi
    350a:	8d bf 00 00 00 00    	lea    0x0(%edi),%edi

00003510 <loc_get_name_internal>:
    3510:	55                   	push   %ebp
    3511:	89 e5                	mov    %esp,%ebp
    3513:	57                   	push   %edi
    3514:	56                   	push   %esi
    3515:	53                   	push   %ebx
    3516:	81 ec 8c 01 00 00    	sub    $0x18c,%esp
    351c:	c7 01 00 00 00 00    	movl   $0x0,(%ecx)
    3522:	89 85 94 fe ff ff    	mov    %eax,-0x16c(%ebp)
    3528:	89 d7                	mov    %edx,%edi
    352a:	c7 04 24 2c 26 02 00 	movl   $0x2262c,(%esp)
    3531:	89 ce                	mov    %ecx,%esi
    3533:	e8 e8 69 00 00       	call   9f20 <fibril_mutex_lock>
    3538:	a1 20 28 02 00       	mov    0x22820,%eax
    353d:	85 c0                	test   %eax,%eax
    353f:	75 39                	jne    357a <loc_get_name_internal+0x6a>
    3541:	c7 04 24 3c 26 02 00 	movl   $0x2263c,(%esp)
    3548:	8b 1d 1c 28 02 00    	mov    0x2281c,%ebx
    354e:	e8 cd 69 00 00       	call   9f20 <fibril_mutex_lock>
    3553:	a1 20 28 02 00       	mov    0x22820,%eax
    3558:	85 c0                	test   %eax,%eax
    355a:	0f 84 40 01 00 00    	je     36a0 <loc_get_name_internal+0x190>
    3560:	c7 04 24 3c 26 02 00 	movl   $0x2263c,(%esp)
    3567:	e8 d4 6a 00 00       	call   a040 <fibril_mutex_unlock>
    356c:	8b 1d 20 28 02 00    	mov    0x22820,%ebx
    3572:	85 db                	test   %ebx,%ebx
    3574:	0f 84 3e 01 00 00    	je     36b8 <loc_get_name_internal+0x1a8>
    357a:	c7 04 24 2c 26 02 00 	movl   $0x2262c,(%esp)
    3581:	e8 ba 6a 00 00       	call   a040 <fibril_mutex_unlock>
    3586:	c7 04 24 3c 26 02 00 	movl   $0x2263c,(%esp)
    358d:	8b 1d 20 28 02 00    	mov    0x22820,%ebx
    3593:	e8 88 69 00 00       	call   9f20 <fibril_mutex_lock>
    3598:	8b 0d 1c 28 02 00    	mov    0x2281c,%ecx
    359e:	85 c9                	test   %ecx,%ecx
    35a0:	0f 84 62 01 00 00    	je     3708 <loc_get_name_internal+0x1f8>
    35a6:	c7 04 24 3c 26 02 00 	movl   $0x2263c,(%esp)
    35ad:	e8 8e 6a 00 00       	call   a040 <fibril_mutex_unlock>
    35b2:	a1 20 28 02 00       	mov    0x22820,%eax
    35b7:	89 04 24             	mov    %eax,(%esp)
    35ba:	e8 b1 2a 01 00       	call   16070 <async_exchange_begin>
    35bf:	89 7c 24 08          	mov    %edi,0x8(%esp)
    35c3:	89 c3                	mov    %eax,%ebx
    35c5:	8d 85 c4 fe ff ff    	lea    -0x13c(%ebp),%eax
    35cb:	89 44 24 18          	mov    %eax,0x18(%esp)
    35cf:	8b 85 94 fe ff ff    	mov    -0x16c(%ebp),%eax
    35d5:	c7 44 24 14 00 00 00 	movl   $0x0,0x14(%esp)
    35dc:	00 
    35dd:	c7 44 24 10 00 00 00 	movl   $0x0,0x10(%esp)
    35e4:	00 
    35e5:	c7 44 24 0c 00 00 00 	movl   $0x0,0xc(%esp)
    35ec:	00 
    35ed:	89 44 24 04          	mov    %eax,0x4(%esp)
    35f1:	89 1c 24             	mov    %ebx,(%esp)
    35f4:	e8 17 14 01 00       	call   14a10 <async_send_fast>
    35f9:	c7 44 24 08 ff 00 00 	movl   $0xff,0x8(%esp)
    3600:	00 
    3601:	89 c7                	mov    %eax,%edi
    3603:	8d 85 a0 fe ff ff    	lea    -0x160(%ebp),%eax
    3609:	89 44 24 0c          	mov    %eax,0xc(%esp)
    360d:	8d 85 e8 fe ff ff    	lea    -0x118(%ebp),%eax
    3613:	89 44 24 04          	mov    %eax,0x4(%esp)
    3617:	89 1c 24             	mov    %ebx,(%esp)
    361a:	e8 41 33 01 00       	call   16960 <async_data_read>
    361f:	8d 8d 98 fe ff ff    	lea    -0x168(%ebp),%ecx
    3625:	89 4c 24 04          	mov    %ecx,0x4(%esp)
    3629:	89 04 24             	mov    %eax,(%esp)
    362c:	e8 af 15 01 00       	call   14be0 <async_wait_for>
    3631:	89 1c 24             	mov    %ebx,(%esp)
    3634:	e8 a7 2d 01 00       	call   163e0 <async_exchange_end>
    3639:	8b 95 98 fe ff ff    	mov    -0x168(%ebp),%edx
    363f:	85 d2                	test   %edx,%edx
    3641:	0f 85 a1 00 00 00    	jne    36e8 <loc_get_name_internal+0x1d8>
    3647:	8d 85 9c fe ff ff    	lea    -0x164(%ebp),%eax
    364d:	89 3c 24             	mov    %edi,(%esp)
    3650:	89 44 24 04          	mov    %eax,0x4(%esp)
    3654:	e8 87 15 01 00       	call   14be0 <async_wait_for>
    3659:	8b 85 9c fe ff ff    	mov    -0x164(%ebp),%eax
    365f:	85 c0                	test   %eax,%eax
    3661:	75 31                	jne    3694 <loc_get_name_internal+0x184>
    3663:	8b 85 a8 fe ff ff    	mov    -0x158(%ebp),%eax
    3669:	3d ff 00 00 00       	cmp    $0xff,%eax
    366e:	0f 87 a7 00 00 00    	ja     371b <loc_get_name_internal+0x20b>
    3674:	c6 84 05 e8 fe ff ff 	movb   $0x0,-0x118(%ebp,%eax,1)
    367b:	00 
    367c:	8d 85 e8 fe ff ff    	lea    -0x118(%ebp),%eax
    3682:	89 04 24             	mov    %eax,(%esp)
    3685:	e8 16 56 00 00       	call   8ca0 <str_dup>
    368a:	83 f8 01             	cmp    $0x1,%eax
    368d:	89 06                	mov    %eax,(%esi)
    368f:	19 c0                	sbb    %eax,%eax
    3691:	83 e0 fe             	and    $0xfffffffe,%eax
    3694:	81 c4 8c 01 00 00    	add    $0x18c,%esp
    369a:	5b                   	pop    %ebx
    369b:	5e                   	pop    %esi
    369c:	5f                   	pop    %edi
    369d:	5d                   	pop    %ebp
    369e:	c3                   	ret    
    369f:	90                   	nop
    36a0:	85 db                	test   %ebx,%ebx
    36a2:	0f 84 b8 fe ff ff    	je     3560 <loc_get_name_internal+0x50>
    36a8:	89 1d 20 28 02 00    	mov    %ebx,0x22820
    36ae:	e9 ad fe ff ff       	jmp    3560 <loc_get_name_internal+0x50>
    36b3:	90                   	nop
    36b4:	8d 74 26 00          	lea    0x0(%esi,%eiz,1),%esi
    36b8:	c7 44 24 0c 00 00 00 	movl   $0x0,0xc(%esp)
    36bf:	00 
    36c0:	c7 44 24 08 02 00 00 	movl   $0x2,0x8(%esp)
    36c7:	00 
    36c8:	c7 44 24 04 6c 6f 63 	movl   $0x20636f6c,0x4(%esp)
    36cf:	20 
    36d0:	c7 04 24 02 00 00 00 	movl   $0x2,(%esp)
    36d7:	e8 e4 fc 00 00       	call   133c0 <service_connect_blocking>
    36dc:	a3 20 28 02 00       	mov    %eax,0x22820
    36e1:	e9 57 fe ff ff       	jmp    353d <loc_get_name_internal+0x2d>
    36e6:	66 90                	xchg   %ax,%ax
    36e8:	89 3c 24             	mov    %edi,(%esp)
    36eb:	e8 40 17 01 00       	call   14e30 <async_forget>
    36f0:	8b 85 98 fe ff ff    	mov    -0x168(%ebp),%eax
    36f6:	81 c4 8c 01 00 00    	add    $0x18c,%esp
    36fc:	5b                   	pop    %ebx
    36fd:	5e                   	pop    %esi
    36fe:	5f                   	pop    %edi
    36ff:	5d                   	pop    %ebp
    3700:	c3                   	ret    
    3701:	8d b4 26 00 00 00 00 	lea    0x0(%esi,%eiz,1),%esi
    3708:	85 db                	test   %ebx,%ebx
    370a:	0f 84 96 fe ff ff    	je     35a6 <loc_get_name_internal+0x96>
    3710:	89 1d 1c 28 02 00    	mov    %ebx,0x2281c
    3716:	e9 8b fe ff ff       	jmp    35a6 <loc_get_name_internal+0x96>
    371b:	c7 44 24 08 9e 01 00 	movl   $0x19e,0x8(%esp)
    3722:	00 
    3723:	c7 44 24 04 a0 fc 01 	movl   $0x1fca0,0x4(%esp)
    372a:	00 
    372b:	c7 04 24 ae fc 01 00 	movl   $0x1fcae,(%esp)
    3732:	e8 d9 9b 01 00       	call   1d310 <assert_abort>
    3737:	89 f6                	mov    %esi,%esi
    3739:	8d bc 27 00 00 00 00 	lea    0x0(%edi,%eiz,1),%edi

00003740 <loc_get_ids_internal>:
    3740:	55                   	push   %ebp
    3741:	89 e5                	mov    %esp,%ebp
    3743:	57                   	push   %edi
    3744:	56                   	push   %esi
    3745:	53                   	push   %ebx
    3746:	83 ec 7c             	sub    $0x7c,%esp
    3749:	89 55 ac             	mov    %edx,-0x54(%ebp)
    374c:	8b 55 08             	mov    0x8(%ebp),%edx
    374f:	c7 01 00 00 00 00    	movl   $0x0,(%ecx)
    3755:	89 45 b0             	mov    %eax,-0x50(%ebp)
    3758:	89 4d a8             	mov    %ecx,-0x58(%ebp)
    375b:	c7 02 00 00 00 00    	movl   $0x0,(%edx)
    3761:	c7 04 24 2c 26 02 00 	movl   $0x2262c,(%esp)
    3768:	e8 b3 67 00 00       	call   9f20 <fibril_mutex_lock>
    376d:	a1 20 28 02 00       	mov    0x22820,%eax
    3772:	85 c0                	test   %eax,%eax
    3774:	75 39                	jne    37af <loc_get_ids_internal+0x6f>
    3776:	c7 04 24 3c 26 02 00 	movl   $0x2263c,(%esp)
    377d:	8b 1d 1c 28 02 00    	mov    0x2281c,%ebx
    3783:	e8 98 67 00 00       	call   9f20 <fibril_mutex_lock>
    3788:	8b 15 20 28 02 00    	mov    0x22820,%edx
    378e:	85 d2                	test   %edx,%edx
    3790:	0f 84 5a 02 00 00    	je     39f0 <loc_get_ids_internal+0x2b0>
    3796:	c7 04 24 3c 26 02 00 	movl   $0x2263c,(%esp)
    379d:	e8 9e 68 00 00       	call   a040 <fibril_mutex_unlock>
    37a2:	a1 20 28 02 00       	mov    0x22820,%eax
    37a7:	85 c0                	test   %eax,%eax
    37a9:	0f 84 59 02 00 00    	je     3a08 <loc_get_ids_internal+0x2c8>
    37af:	c7 04 24 2c 26 02 00 	movl   $0x2262c,(%esp)
    37b6:	e8 85 68 00 00       	call   a040 <fibril_mutex_unlock>
    37bb:	c7 04 24 3c 26 02 00 	movl   $0x2263c,(%esp)
    37c2:	8b 1d 20 28 02 00    	mov    0x22820,%ebx
    37c8:	e8 53 67 00 00       	call   9f20 <fibril_mutex_lock>
    37cd:	a1 1c 28 02 00       	mov    0x2281c,%eax
    37d2:	85 c0                	test   %eax,%eax
    37d4:	0f 84 d5 02 00 00    	je     3aaf <loc_get_ids_internal+0x36f>
    37da:	c7 04 24 3c 26 02 00 	movl   $0x2263c,(%esp)
    37e1:	e8 5a 68 00 00       	call   a040 <fibril_mutex_unlock>
    37e6:	a1 20 28 02 00       	mov    0x22820,%eax
    37eb:	89 04 24             	mov    %eax,(%esp)
    37ee:	e8 7d 28 01 00       	call   16070 <async_exchange_begin>
    37f3:	8b 55 ac             	mov    -0x54(%ebp),%edx
    37f6:	89 c6                	mov    %eax,%esi
    37f8:	8d 45 c4             	lea    -0x3c(%ebp),%eax
    37fb:	89 44 24 18          	mov    %eax,0x18(%esp)
    37ff:	8b 45 b0             	mov    -0x50(%ebp),%eax
    3802:	89 54 24 08          	mov    %edx,0x8(%esp)
    3806:	c7 44 24 14 00 00 00 	movl   $0x0,0x14(%esp)
    380d:	00 
    380e:	c7 44 24 10 00 00 00 	movl   $0x0,0x10(%esp)
    3815:	00 
    3816:	c7 44 24 0c 00 00 00 	movl   $0x0,0xc(%esp)
    381d:	00 
    381e:	89 44 24 04          	mov    %eax,0x4(%esp)
    3822:	89 34 24             	mov    %esi,(%esp)
    3825:	e8 e6 11 01 00       	call   14a10 <async_send_fast>
    382a:	c7 44 24 08 00 00 00 	movl   $0x0,0x8(%esp)
    3831:	00 
    3832:	c7 44 24 04 00 00 00 	movl   $0x0,0x4(%esp)
    3839:	00 
    383a:	89 34 24             	mov    %esi,(%esp)
    383d:	89 c3                	mov    %eax,%ebx
    383f:	e8 fc 31 01 00       	call   16a40 <async_data_read_start>
    3844:	89 34 24             	mov    %esi,(%esp)
    3847:	89 c7                	mov    %eax,%edi
    3849:	e8 92 2b 01 00       	call   163e0 <async_exchange_end>
    384e:	85 ff                	test   %edi,%edi
    3850:	0f 85 3d 02 00 00    	jne    3a93 <loc_get_ids_internal+0x353>
    3856:	8d 55 c0             	lea    -0x40(%ebp),%edx
    3859:	89 1c 24             	mov    %ebx,(%esp)
    385c:	89 54 24 04          	mov    %edx,0x4(%esp)
    3860:	e8 7b 13 01 00       	call   14be0 <async_wait_for>
    3865:	8b 45 c0             	mov    -0x40(%ebp),%eax
    3868:	85 c0                	test   %eax,%eax
    386a:	0f 85 72 01 00 00    	jne    39e2 <loc_get_ids_internal+0x2a2>
    3870:	8b 7d c8             	mov    -0x38(%ebp),%edi
    3873:	89 3c 24             	mov    %edi,(%esp)
    3876:	e8 b5 f2 00 00       	call   12b30 <malloc>
    387b:	89 c6                	mov    %eax,%esi
    387d:	85 c0                	test   %eax,%eax
    387f:	0f 85 0a 01 00 00    	jne    398f <loc_get_ids_internal+0x24f>
    3885:	e9 1b 02 00 00       	jmp    3aa5 <loc_get_ids_internal+0x365>
    388a:	8d b6 00 00 00 00    	lea    0x0(%esi),%esi
    3890:	c7 04 24 3c 26 02 00 	movl   $0x2263c,(%esp)
    3897:	e8 a4 67 00 00       	call   a040 <fibril_mutex_unlock>
    389c:	a1 20 28 02 00       	mov    0x22820,%eax
    38a1:	85 c0                	test   %eax,%eax
    38a3:	0f 84 8f 01 00 00    	je     3a38 <loc_get_ids_internal+0x2f8>
    38a9:	c7 04 24 2c 26 02 00 	movl   $0x2262c,(%esp)
    38b0:	e8 8b 67 00 00       	call   a040 <fibril_mutex_unlock>
    38b5:	c7 04 24 3c 26 02 00 	movl   $0x2263c,(%esp)
    38bc:	8b 1d 20 28 02 00    	mov    0x22820,%ebx
    38c2:	e8 59 66 00 00       	call   9f20 <fibril_mutex_lock>
    38c7:	a1 1c 28 02 00       	mov    0x2281c,%eax
    38cc:	85 c0                	test   %eax,%eax
    38ce:	0f 84 ac 01 00 00    	je     3a80 <loc_get_ids_internal+0x340>
    38d4:	c7 04 24 3c 26 02 00 	movl   $0x2263c,(%esp)
    38db:	e8 60 67 00 00       	call   a040 <fibril_mutex_unlock>
    38e0:	a1 20 28 02 00       	mov    0x22820,%eax
    38e5:	89 04 24             	mov    %eax,(%esp)
    38e8:	e8 83 27 01 00       	call   16070 <async_exchange_begin>
    38ed:	8b 55 ac             	mov    -0x54(%ebp),%edx
    38f0:	89 c3                	mov    %eax,%ebx
    38f2:	8d 45 c4             	lea    -0x3c(%ebp),%eax
    38f5:	89 44 24 18          	mov    %eax,0x18(%esp)
    38f9:	8b 45 b0             	mov    -0x50(%ebp),%eax
    38fc:	89 54 24 08          	mov    %edx,0x8(%esp)
    3900:	c7 44 24 14 00 00 00 	movl   $0x0,0x14(%esp)
    3907:	00 
    3908:	c7 44 24 10 00 00 00 	movl   $0x0,0x10(%esp)
    390f:	00 
    3910:	c7 44 24 0c 00 00 00 	movl   $0x0,0xc(%esp)
    3917:	00 
    3918:	89 44 24 04          	mov    %eax,0x4(%esp)
    391c:	89 1c 24             	mov    %ebx,(%esp)
    391f:	e8 ec 10 01 00       	call   14a10 <async_send_fast>
    3924:	89 7c 24 08          	mov    %edi,0x8(%esp)
    3928:	89 74 24 04          	mov    %esi,0x4(%esp)
    392c:	89 1c 24             	mov    %ebx,(%esp)
    392f:	89 45 b4             	mov    %eax,-0x4c(%ebp)
    3932:	e8 09 31 01 00       	call   16a40 <async_data_read_start>
    3937:	89 1c 24             	mov    %ebx,(%esp)
    393a:	89 45 a4             	mov    %eax,-0x5c(%ebp)
    393d:	e8 9e 2a 01 00       	call   163e0 <async_exchange_end>
    3942:	8b 45 a4             	mov    -0x5c(%ebp),%eax
    3945:	85 c0                	test   %eax,%eax
    3947:	0f 85 1b 01 00 00    	jne    3a68 <loc_get_ids_internal+0x328>
    394d:	8d 55 c0             	lea    -0x40(%ebp),%edx
    3950:	89 45 a4             	mov    %eax,-0x5c(%ebp)
    3953:	89 54 24 04          	mov    %edx,0x4(%esp)
    3957:	8b 55 b4             	mov    -0x4c(%ebp),%edx
    395a:	89 14 24             	mov    %edx,(%esp)
    395d:	e8 7e 12 01 00       	call   14be0 <async_wait_for>
    3962:	8b 55 c0             	mov    -0x40(%ebp),%edx
    3965:	85 d2                	test   %edx,%edx
    3967:	8b 45 a4             	mov    -0x5c(%ebp),%eax
    396a:	75 74                	jne    39e0 <loc_get_ids_internal+0x2a0>
    396c:	8b 5d c8             	mov    -0x38(%ebp),%ebx
    396f:	39 df                	cmp    %ebx,%edi
    3971:	0f 83 4b 01 00 00    	jae    3ac2 <loc_get_ids_internal+0x382>
    3977:	89 34 24             	mov    %esi,(%esp)
    397a:	89 5c 24 04          	mov    %ebx,0x4(%esp)
    397e:	e8 0d f5 00 00       	call   12e90 <realloc>
    3983:	89 df                	mov    %ebx,%edi
    3985:	89 c6                	mov    %eax,%esi
    3987:	85 c0                	test   %eax,%eax
    3989:	0f 84 16 01 00 00    	je     3aa5 <loc_get_ids_internal+0x365>
    398f:	c7 04 24 2c 26 02 00 	movl   $0x2262c,(%esp)
    3996:	e8 85 65 00 00       	call   9f20 <fibril_mutex_lock>
    399b:	a1 20 28 02 00       	mov    0x22820,%eax
    39a0:	85 c0                	test   %eax,%eax
    39a2:	0f 85 01 ff ff ff    	jne    38a9 <loc_get_ids_internal+0x169>
    39a8:	c7 04 24 3c 26 02 00 	movl   $0x2263c,(%esp)
    39af:	8b 1d 1c 28 02 00    	mov    0x2281c,%ebx
    39b5:	e8 66 65 00 00       	call   9f20 <fibril_mutex_lock>
    39ba:	a1 20 28 02 00       	mov    0x22820,%eax
    39bf:	85 c0                	test   %eax,%eax
    39c1:	0f 85 c9 fe ff ff    	jne    3890 <loc_get_ids_internal+0x150>
    39c7:	85 db                	test   %ebx,%ebx
    39c9:	0f 84 c1 fe ff ff    	je     3890 <loc_get_ids_internal+0x150>
    39cf:	89 1d 20 28 02 00    	mov    %ebx,0x22820
    39d5:	e9 b6 fe ff ff       	jmp    3890 <loc_get_ids_internal+0x150>
    39da:	8d b6 00 00 00 00    	lea    0x0(%esi),%esi
    39e0:	89 d0                	mov    %edx,%eax
    39e2:	89 c7                	mov    %eax,%edi
    39e4:	83 c4 7c             	add    $0x7c,%esp
    39e7:	89 f8                	mov    %edi,%eax
    39e9:	5b                   	pop    %ebx
    39ea:	5e                   	pop    %esi
    39eb:	5f                   	pop    %edi
    39ec:	5d                   	pop    %ebp
    39ed:	c3                   	ret    
    39ee:	66 90                	xchg   %ax,%ax
    39f0:	85 db                	test   %ebx,%ebx
    39f2:	0f 84 9e fd ff ff    	je     3796 <loc_get_ids_internal+0x56>
    39f8:	89 1d 20 28 02 00    	mov    %ebx,0x22820
    39fe:	e9 93 fd ff ff       	jmp    3796 <loc_get_ids_internal+0x56>
    3a03:	90                   	nop
    3a04:	8d 74 26 00          	lea    0x0(%esi,%eiz,1),%esi
    3a08:	c7 44 24 0c 00 00 00 	movl   $0x0,0xc(%esp)
    3a0f:	00 
    3a10:	c7 44 24 08 02 00 00 	movl   $0x2,0x8(%esp)
    3a17:	00 
    3a18:	c7 44 24 04 6c 6f 63 	movl   $0x20636f6c,0x4(%esp)
    3a1f:	20 
    3a20:	c7 04 24 02 00 00 00 	movl   $0x2,(%esp)
    3a27:	e8 94 f9 00 00       	call   133c0 <service_connect_blocking>
    3a2c:	a3 20 28 02 00       	mov    %eax,0x22820
    3a31:	e9 3c fd ff ff       	jmp    3772 <loc_get_ids_internal+0x32>
    3a36:	66 90                	xchg   %ax,%ax
    3a38:	c7 44 24 0c 00 00 00 	movl   $0x0,0xc(%esp)
    3a3f:	00 
    3a40:	c7 44 24 08 02 00 00 	movl   $0x2,0x8(%esp)
    3a47:	00 
    3a48:	c7 44 24 04 6c 6f 63 	movl   $0x20636f6c,0x4(%esp)
    3a4f:	20 
    3a50:	c7 04 24 02 00 00 00 	movl   $0x2,(%esp)
    3a57:	e8 64 f9 00 00       	call   133c0 <service_connect_blocking>
    3a5c:	a3 20 28 02 00       	mov    %eax,0x22820
    3a61:	e9 3a ff ff ff       	jmp    39a0 <loc_get_ids_internal+0x260>
    3a66:	66 90                	xchg   %ax,%ax
    3a68:	89 c7                	mov    %eax,%edi
    3a6a:	8b 45 b4             	mov    -0x4c(%ebp),%eax
    3a6d:	89 04 24             	mov    %eax,(%esp)
    3a70:	e8 bb 13 01 00       	call   14e30 <async_forget>
    3a75:	83 c4 7c             	add    $0x7c,%esp
    3a78:	89 f8                	mov    %edi,%eax
    3a7a:	5b                   	pop    %ebx
    3a7b:	5e                   	pop    %esi
    3a7c:	5f                   	pop    %edi
    3a7d:	5d                   	pop    %ebp
    3a7e:	c3                   	ret    
    3a7f:	90                   	nop
    3a80:	85 db                	test   %ebx,%ebx
    3a82:	0f 84 4c fe ff ff    	je     38d4 <loc_get_ids_internal+0x194>
    3a88:	89 1d 1c 28 02 00    	mov    %ebx,0x2281c
    3a8e:	e9 41 fe ff ff       	jmp    38d4 <loc_get_ids_internal+0x194>
    3a93:	89 1c 24             	mov    %ebx,(%esp)
    3a96:	e8 95 13 01 00       	call   14e30 <async_forget>
    3a9b:	83 c4 7c             	add    $0x7c,%esp
    3a9e:	89 f8                	mov    %edi,%eax
    3aa0:	5b                   	pop    %ebx
    3aa1:	5e                   	pop    %esi
    3aa2:	5f                   	pop    %edi
    3aa3:	5d                   	pop    %ebp
    3aa4:	c3                   	ret    
    3aa5:	bf fe ff ff ff       	mov    $0xfffffffe,%edi
    3aaa:	e9 35 ff ff ff       	jmp    39e4 <loc_get_ids_internal+0x2a4>
    3aaf:	85 db                	test   %ebx,%ebx
    3ab1:	0f 84 23 fd ff ff    	je     37da <loc_get_ids_internal+0x9a>
    3ab7:	89 1d 1c 28 02 00    	mov    %ebx,0x2281c
    3abd:	e9 18 fd ff ff       	jmp    37da <loc_get_ids_internal+0x9a>
    3ac2:	89 c7                	mov    %eax,%edi
    3ac4:	8b 55 08             	mov    0x8(%ebp),%edx
    3ac7:	c1 eb 02             	shr    $0x2,%ebx
    3aca:	8b 45 a8             	mov    -0x58(%ebp),%eax
    3acd:	89 1a                	mov    %ebx,(%edx)
    3acf:	89 30                	mov    %esi,(%eax)
    3ad1:	e9 0e ff ff ff       	jmp    39e4 <loc_get_ids_internal+0x2a4>
    3ad6:	8d 76 00             	lea    0x0(%esi),%esi
    3ad9:	8d bc 27 00 00 00 00 	lea    0x0(%edi,%eiz,1),%edi

00003ae0 <loc_exchange_begin_blocking>:
    3ae0:	55                   	push   %ebp
    3ae1:	89 e5                	mov    %esp,%ebp
    3ae3:	53                   	push   %ebx
    3ae4:	83 ec 14             	sub    $0x14,%esp
    3ae7:	8b 45 08             	mov    0x8(%ebp),%eax
    3aea:	83 f8 01             	cmp    $0x1,%eax
    3aed:	74 11                	je     3b00 <loc_exchange_begin_blocking+0x20>
    3aef:	83 f8 02             	cmp    $0x2,%eax
    3af2:	0f 84 b0 00 00 00    	je     3ba8 <loc_exchange_begin_blocking+0xc8>
    3af8:	83 c4 14             	add    $0x14,%esp
    3afb:	31 c0                	xor    %eax,%eax
    3afd:	5b                   	pop    %ebx
    3afe:	5d                   	pop    %ebp
    3aff:	c3                   	ret    
    3b00:	c7 04 24 0c 26 02 00 	movl   $0x2260c,(%esp)
    3b07:	e8 14 64 00 00       	call   9f20 <fibril_mutex_lock>
    3b0c:	a1 18 28 02 00       	mov    0x22818,%eax
    3b11:	85 c0                	test   %eax,%eax
    3b13:	75 34                	jne    3b49 <loc_exchange_begin_blocking+0x69>
    3b15:	c7 04 24 1c 26 02 00 	movl   $0x2261c,(%esp)
    3b1c:	8b 1d 14 28 02 00    	mov    0x22814,%ebx
    3b22:	e8 f9 63 00 00       	call   9f20 <fibril_mutex_lock>
    3b27:	a1 18 28 02 00       	mov    0x22818,%eax
    3b2c:	85 c0                	test   %eax,%eax
    3b2e:	74 68                	je     3b98 <loc_exchange_begin_blocking+0xb8>
    3b30:	c7 04 24 1c 26 02 00 	movl   $0x2261c,(%esp)
    3b37:	e8 04 65 00 00       	call   a040 <fibril_mutex_unlock>
    3b3c:	a1 18 28 02 00       	mov    0x22818,%eax
    3b41:	85 c0                	test   %eax,%eax
    3b43:	0f 84 07 01 00 00    	je     3c50 <loc_exchange_begin_blocking+0x170>
    3b49:	c7 04 24 0c 26 02 00 	movl   $0x2260c,(%esp)
    3b50:	e8 eb 64 00 00       	call   a040 <fibril_mutex_unlock>
    3b55:	c7 04 24 1c 26 02 00 	movl   $0x2261c,(%esp)
    3b5c:	8b 1d 18 28 02 00    	mov    0x22818,%ebx
    3b62:	e8 b9 63 00 00       	call   9f20 <fibril_mutex_lock>
    3b67:	a1 14 28 02 00       	mov    0x22814,%eax
    3b6c:	85 c0                	test   %eax,%eax
    3b6e:	0f 84 3c 01 00 00    	je     3cb0 <loc_exchange_begin_blocking+0x1d0>
    3b74:	c7 04 24 1c 26 02 00 	movl   $0x2261c,(%esp)
    3b7b:	e8 c0 64 00 00       	call   a040 <fibril_mutex_unlock>
    3b80:	a1 18 28 02 00       	mov    0x22818,%eax
    3b85:	89 45 08             	mov    %eax,0x8(%ebp)
    3b88:	83 c4 14             	add    $0x14,%esp
    3b8b:	5b                   	pop    %ebx
    3b8c:	5d                   	pop    %ebp
    3b8d:	e9 de 24 01 00       	jmp    16070 <async_exchange_begin>
    3b92:	8d b6 00 00 00 00    	lea    0x0(%esi),%esi
    3b98:	85 db                	test   %ebx,%ebx
    3b9a:	74 94                	je     3b30 <loc_exchange_begin_blocking+0x50>
    3b9c:	89 1d 18 28 02 00    	mov    %ebx,0x22818
    3ba2:	eb 8c                	jmp    3b30 <loc_exchange_begin_blocking+0x50>
    3ba4:	8d 74 26 00          	lea    0x0(%esi,%eiz,1),%esi
    3ba8:	c7 04 24 2c 26 02 00 	movl   $0x2262c,(%esp)
    3baf:	e8 6c 63 00 00       	call   9f20 <fibril_mutex_lock>
    3bb4:	a1 20 28 02 00       	mov    0x22820,%eax
    3bb9:	85 c0                	test   %eax,%eax
    3bbb:	75 35                	jne    3bf2 <loc_exchange_begin_blocking+0x112>
    3bbd:	c7 04 24 3c 26 02 00 	movl   $0x2263c,(%esp)
    3bc4:	8b 1d 1c 28 02 00    	mov    0x2281c,%ebx
    3bca:	e8 51 63 00 00       	call   9f20 <fibril_mutex_lock>
    3bcf:	a1 20 28 02 00       	mov    0x22820,%eax
    3bd4:	85 c0                	test   %eax,%eax
    3bd6:	74 68                	je     3c40 <loc_exchange_begin_blocking+0x160>
    3bd8:	c7 04 24 3c 26 02 00 	movl   $0x2263c,(%esp)
    3bdf:	e8 5c 64 00 00       	call   a040 <fibril_mutex_unlock>
    3be4:	8b 1d 20 28 02 00    	mov    0x22820,%ebx
    3bea:	85 db                	test   %ebx,%ebx
    3bec:	0f 84 8e 00 00 00    	je     3c80 <loc_exchange_begin_blocking+0x1a0>
    3bf2:	c7 04 24 2c 26 02 00 	movl   $0x2262c,(%esp)
    3bf9:	e8 42 64 00 00       	call   a040 <fibril_mutex_unlock>
    3bfe:	c7 04 24 3c 26 02 00 	movl   $0x2263c,(%esp)
    3c05:	8b 1d 20 28 02 00    	mov    0x22820,%ebx
    3c0b:	e8 10 63 00 00       	call   9f20 <fibril_mutex_lock>
    3c10:	8b 0d 1c 28 02 00    	mov    0x2281c,%ecx
    3c16:	85 c9                	test   %ecx,%ecx
    3c18:	0f 84 aa 00 00 00    	je     3cc8 <loc_exchange_begin_blocking+0x1e8>
    3c1e:	c7 04 24 3c 26 02 00 	movl   $0x2263c,(%esp)
    3c25:	e8 16 64 00 00       	call   a040 <fibril_mutex_unlock>
    3c2a:	a1 20 28 02 00       	mov    0x22820,%eax
    3c2f:	89 45 08             	mov    %eax,0x8(%ebp)
    3c32:	83 c4 14             	add    $0x14,%esp
    3c35:	5b                   	pop    %ebx
    3c36:	5d                   	pop    %ebp
    3c37:	e9 34 24 01 00       	jmp    16070 <async_exchange_begin>
    3c3c:	8d 74 26 00          	lea    0x0(%esi,%eiz,1),%esi
    3c40:	85 db                	test   %ebx,%ebx
    3c42:	74 94                	je     3bd8 <loc_exchange_begin_blocking+0xf8>
    3c44:	89 1d 20 28 02 00    	mov    %ebx,0x22820
    3c4a:	eb 8c                	jmp    3bd8 <loc_exchange_begin_blocking+0xf8>
    3c4c:	8d 74 26 00          	lea    0x0(%esi,%eiz,1),%esi
    3c50:	c7 44 24 0c 00 00 00 	movl   $0x0,0xc(%esp)
    3c57:	00 
    3c58:	c7 44 24 08 01 00 00 	movl   $0x1,0x8(%esp)
    3c5f:	00 
    3c60:	c7 44 24 04 6c 6f 63 	movl   $0x20636f6c,0x4(%esp)
    3c67:	20 
    3c68:	c7 04 24 02 00 00 00 	movl   $0x2,(%esp)
    3c6f:	e8 4c f7 00 00       	call   133c0 <service_connect_blocking>
    3c74:	a3 18 28 02 00       	mov    %eax,0x22818
    3c79:	e9 93 fe ff ff       	jmp    3b11 <loc_exchange_begin_blocking+0x31>
    3c7e:	66 90                	xchg   %ax,%ax
    3c80:	c7 44 24 0c 00 00 00 	movl   $0x0,0xc(%esp)
    3c87:	00 
    3c88:	c7 44 24 08 02 00 00 	movl   $0x2,0x8(%esp)
    3c8f:	00 
    3c90:	c7 44 24 04 6c 6f 63 	movl   $0x20636f6c,0x4(%esp)
    3c97:	20 
    3c98:	c7 04 24 02 00 00 00 	movl   $0x2,(%esp)
    3c9f:	e8 1c f7 00 00       	call   133c0 <service_connect_blocking>
    3ca4:	a3 20 28 02 00       	mov    %eax,0x22820
    3ca9:	e9 0b ff ff ff       	jmp    3bb9 <loc_exchange_begin_blocking+0xd9>
    3cae:	66 90                	xchg   %ax,%ax
    3cb0:	85 db                	test   %ebx,%ebx
    3cb2:	0f 84 bc fe ff ff    	je     3b74 <loc_exchange_begin_blocking+0x94>
    3cb8:	89 1d 14 28 02 00    	mov    %ebx,0x22814
    3cbe:	e9 b1 fe ff ff       	jmp    3b74 <loc_exchange_begin_blocking+0x94>
    3cc3:	90                   	nop
    3cc4:	8d 74 26 00          	lea    0x0(%esi,%eiz,1),%esi
    3cc8:	85 db                	test   %ebx,%ebx
    3cca:	0f 84 4e ff ff ff    	je     3c1e <loc_exchange_begin_blocking+0x13e>
    3cd0:	89 1d 1c 28 02 00    	mov    %ebx,0x2281c
    3cd6:	e9 43 ff ff ff       	jmp    3c1e <loc_exchange_begin_blocking+0x13e>
    3cdb:	90                   	nop
    3cdc:	8d 74 26 00          	lea    0x0(%esi,%eiz,1),%esi

00003ce0 <loc_exchange_begin>:
    3ce0:	55                   	push   %ebp
    3ce1:	89 e5                	mov    %esp,%ebp
    3ce3:	83 ec 18             	sub    $0x18,%esp
    3ce6:	8b 45 08             	mov    0x8(%ebp),%eax
    3ce9:	83 f8 01             	cmp    $0x1,%eax
    3cec:	74 0a                	je     3cf8 <loc_exchange_begin+0x18>
    3cee:	83 f8 02             	cmp    $0x2,%eax
    3cf1:	74 3d                	je     3d30 <loc_exchange_begin+0x50>
    3cf3:	31 c0                	xor    %eax,%eax
    3cf5:	c9                   	leave  
    3cf6:	c3                   	ret    
    3cf7:	90                   	nop
    3cf8:	c7 04 24 1c 26 02 00 	movl   $0x2261c,(%esp)
    3cff:	e8 1c 62 00 00       	call   9f20 <fibril_mutex_lock>
    3d04:	a1 14 28 02 00       	mov    0x22814,%eax
    3d09:	85 c0                	test   %eax,%eax
    3d0b:	74 5b                	je     3d68 <loc_exchange_begin+0x88>
    3d0d:	c7 04 24 1c 26 02 00 	movl   $0x2261c,(%esp)
    3d14:	e8 27 63 00 00       	call   a040 <fibril_mutex_unlock>
    3d19:	a1 14 28 02 00       	mov    0x22814,%eax
    3d1e:	85 c0                	test   %eax,%eax
    3d20:	74 d1                	je     3cf3 <loc_exchange_begin+0x13>
    3d22:	89 45 08             	mov    %eax,0x8(%ebp)
    3d25:	c9                   	leave  
    3d26:	e9 45 23 01 00       	jmp    16070 <async_exchange_begin>
    3d2b:	90                   	nop
    3d2c:	8d 74 26 00          	lea    0x0(%esi,%eiz,1),%esi
    3d30:	c7 04 24 3c 26 02 00 	movl   $0x2263c,(%esp)
    3d37:	e8 e4 61 00 00       	call   9f20 <fibril_mutex_lock>
    3d3c:	a1 1c 28 02 00       	mov    0x2281c,%eax
    3d41:	85 c0                	test   %eax,%eax
    3d43:	74 53                	je     3d98 <loc_exchange_begin+0xb8>
    3d45:	c7 04 24 3c 26 02 00 	movl   $0x2263c,(%esp)
    3d4c:	e8 ef 62 00 00       	call   a040 <fibril_mutex_unlock>
    3d51:	a1 1c 28 02 00       	mov    0x2281c,%eax
    3d56:	85 c0                	test   %eax,%eax
    3d58:	74 99                	je     3cf3 <loc_exchange_begin+0x13>
    3d5a:	89 45 08             	mov    %eax,0x8(%ebp)
    3d5d:	c9                   	leave  
    3d5e:	e9 0d 23 01 00       	jmp    16070 <async_exchange_begin>
    3d63:	90                   	nop
    3d64:	8d 74 26 00          	lea    0x0(%esi,%eiz,1),%esi
    3d68:	c7 44 24 0c 00 00 00 	movl   $0x0,0xc(%esp)
    3d6f:	00 
    3d70:	c7 44 24 08 01 00 00 	movl   $0x1,0x8(%esp)
    3d77:	00 
    3d78:	c7 44 24 04 6c 6f 63 	movl   $0x20636f6c,0x4(%esp)
    3d7f:	20 
    3d80:	c7 04 24 02 00 00 00 	movl   $0x2,(%esp)
    3d87:	e8 b4 f5 00 00       	call   13340 <service_connect>
    3d8c:	a3 14 28 02 00       	mov    %eax,0x22814
    3d91:	e9 77 ff ff ff       	jmp    3d0d <loc_exchange_begin+0x2d>
    3d96:	66 90                	xchg   %ax,%ax
    3d98:	c7 44 24 0c 00 00 00 	movl   $0x0,0xc(%esp)
    3d9f:	00 
    3da0:	c7 44 24 08 02 00 00 	movl   $0x2,0x8(%esp)
    3da7:	00 
    3da8:	c7 44 24 04 6c 6f 63 	movl   $0x20636f6c,0x4(%esp)
    3daf:	20 
    3db0:	c7 04 24 02 00 00 00 	movl   $0x2,(%esp)
    3db7:	e8 84 f5 00 00       	call   13340 <service_connect>
    3dbc:	a3 1c 28 02 00       	mov    %eax,0x2281c
    3dc1:	eb 82                	jmp    3d45 <loc_exchange_begin+0x65>
    3dc3:	8d b6 00 00 00 00    	lea    0x0(%esi),%esi
    3dc9:	8d bc 27 00 00 00 00 	lea    0x0(%edi,%eiz,1),%edi

00003dd0 <loc_exchange_end>:
    3dd0:	55                   	push   %ebp
    3dd1:	89 e5                	mov    %esp,%ebp
    3dd3:	5d                   	pop    %ebp
    3dd4:	e9 07 26 01 00       	jmp    163e0 <async_exchange_end>
    3dd9:	8d b4 26 00 00 00 00 	lea    0x0(%esi,%eiz,1),%esi

00003de0 <loc_server_register>:
    3de0:	55                   	push   %ebp
    3de1:	89 e5                	mov    %esp,%ebp
    3de3:	57                   	push   %edi
    3de4:	56                   	push   %esi
    3de5:	53                   	push   %ebx
    3de6:	83 ec 5c             	sub    $0x5c,%esp
    3de9:	8b 75 08             	mov    0x8(%ebp),%esi
    3dec:	c7 04 24 0c 26 02 00 	movl   $0x2260c,(%esp)
    3df3:	e8 28 61 00 00       	call   9f20 <fibril_mutex_lock>
    3df8:	a1 18 28 02 00       	mov    0x22818,%eax
    3dfd:	85 c0                	test   %eax,%eax
    3dff:	75 38                	jne    3e39 <loc_server_register+0x59>
    3e01:	c7 04 24 1c 26 02 00 	movl   $0x2261c,(%esp)
    3e08:	8b 1d 14 28 02 00    	mov    0x22814,%ebx
    3e0e:	e8 0d 61 00 00       	call   9f20 <fibril_mutex_lock>
    3e13:	a1 18 28 02 00       	mov    0x22818,%eax
    3e18:	85 c0                	test   %eax,%eax
    3e1a:	0f 84 58 01 00 00    	je     3f78 <loc_server_register+0x198>
    3e20:	c7 04 24 1c 26 02 00 	movl   $0x2261c,(%esp)
    3e27:	e8 14 62 00 00       	call   a040 <fibril_mutex_unlock>
    3e2c:	a1 18 28 02 00       	mov    0x22818,%eax
    3e31:	85 c0                	test   %eax,%eax
    3e33:	0f 84 57 01 00 00    	je     3f90 <loc_server_register+0x1b0>
    3e39:	c7 04 24 0c 26 02 00 	movl   $0x2260c,(%esp)
    3e40:	e8 fb 61 00 00       	call   a040 <fibril_mutex_unlock>
    3e45:	c7 04 24 1c 26 02 00 	movl   $0x2261c,(%esp)
    3e4c:	8b 1d 18 28 02 00    	mov    0x22818,%ebx
    3e52:	e8 c9 60 00 00       	call   9f20 <fibril_mutex_lock>
    3e57:	8b 3d 14 28 02 00    	mov    0x22814,%edi
    3e5d:	85 ff                	test   %edi,%edi
    3e5f:	0f 84 73 01 00 00    	je     3fd8 <loc_server_register+0x1f8>
    3e65:	c7 04 24 1c 26 02 00 	movl   $0x2261c,(%esp)
    3e6c:	e8 cf 61 00 00       	call   a040 <fibril_mutex_unlock>
    3e71:	a1 18 28 02 00       	mov    0x22818,%eax
    3e76:	89 04 24             	mov    %eax,(%esp)
    3e79:	e8 f2 21 01 00       	call   16070 <async_exchange_begin>
    3e7e:	c7 44 24 14 00 00 00 	movl   $0x0,0x14(%esp)
    3e85:	00 
    3e86:	89 c3                	mov    %eax,%ebx
    3e88:	8d 45 c4             	lea    -0x3c(%ebp),%eax
    3e8b:	89 44 24 18          	mov    %eax,0x18(%esp)
    3e8f:	c7 44 24 10 00 00 00 	movl   $0x0,0x10(%esp)
    3e96:	00 
    3e97:	c7 44 24 0c 00 00 00 	movl   $0x0,0xc(%esp)
    3e9e:	00 
    3e9f:	c7 44 24 08 00 00 00 	movl   $0x0,0x8(%esp)
    3ea6:	00 
    3ea7:	c7 44 24 04 00 04 00 	movl   $0x400,0x4(%esp)
    3eae:	00 
    3eaf:	89 1c 24             	mov    %ebx,(%esp)
    3eb2:	e8 59 0b 01 00       	call   14a10 <async_send_fast>
    3eb7:	89 34 24             	mov    %esi,(%esp)
    3eba:	89 c7                	mov    %eax,%edi
    3ebc:	e8 3f 2e 00 00       	call   6d00 <str_size>
    3ec1:	89 74 24 04          	mov    %esi,0x4(%esp)
    3ec5:	89 44 24 08          	mov    %eax,0x8(%esp)
    3ec9:	89 1c 24             	mov    %ebx,(%esp)
    3ecc:	e8 8f 30 01 00       	call   16f60 <async_data_write_start>
    3ed1:	89 1c 24             	mov    %ebx,(%esp)
    3ed4:	89 45 c0             	mov    %eax,-0x40(%ebp)
    3ed7:	e8 04 25 01 00       	call   163e0 <async_exchange_end>
    3edc:	8b 4d c0             	mov    -0x40(%ebp),%ecx
    3edf:	85 c9                	test   %ecx,%ecx
    3ee1:	0f 85 d9 00 00 00    	jne    3fc0 <loc_server_register+0x1e0>
    3ee7:	c7 04 24 1c 26 02 00 	movl   $0x2261c,(%esp)
    3eee:	e8 2d 60 00 00       	call   9f20 <fibril_mutex_lock>
    3ef3:	8b 15 14 28 02 00    	mov    0x22814,%edx
    3ef9:	85 d2                	test   %edx,%edx
    3efb:	0f 84 ea 00 00 00    	je     3feb <loc_server_register+0x20b>
    3f01:	c7 04 24 1c 26 02 00 	movl   $0x2261c,(%esp)
    3f08:	e8 33 61 00 00       	call   a040 <fibril_mutex_unlock>
    3f0d:	a1 14 28 02 00       	mov    0x22814,%eax
    3f12:	85 c0                	test   %eax,%eax
    3f14:	0f 84 ff 00 00 00    	je     4019 <loc_server_register+0x239>
    3f1a:	89 04 24             	mov    %eax,(%esp)
    3f1d:	e8 4e 21 01 00       	call   16070 <async_exchange_begin>
    3f22:	89 c3                	mov    %eax,%ebx
    3f24:	89 1c 24             	mov    %ebx,(%esp)
    3f27:	c7 44 24 14 00 00 00 	movl   $0x0,0x14(%esp)
    3f2e:	00 
    3f2f:	c7 44 24 10 00 00 00 	movl   $0x0,0x10(%esp)
    3f36:	00 
    3f37:	c7 44 24 0c 00 00 00 	movl   $0x0,0xc(%esp)
    3f3e:	00 
    3f3f:	c7 44 24 08 00 00 00 	movl   $0x0,0x8(%esp)
    3f46:	00 
    3f47:	c7 44 24 04 00 00 00 	movl   $0x0,0x4(%esp)
    3f4e:	00 
    3f4f:	e8 bc 18 01 00       	call   15810 <async_connect_to_me>
    3f54:	89 1c 24             	mov    %ebx,(%esp)
    3f57:	e8 84 24 01 00       	call   163e0 <async_exchange_end>
    3f5c:	8d 45 c0             	lea    -0x40(%ebp),%eax
    3f5f:	89 44 24 04          	mov    %eax,0x4(%esp)
    3f63:	89 3c 24             	mov    %edi,(%esp)
    3f66:	e8 75 0c 01 00       	call   14be0 <async_wait_for>
    3f6b:	8b 45 c0             	mov    -0x40(%ebp),%eax
    3f6e:	83 c4 5c             	add    $0x5c,%esp
    3f71:	5b                   	pop    %ebx
    3f72:	5e                   	pop    %esi
    3f73:	5f                   	pop    %edi
    3f74:	5d                   	pop    %ebp
    3f75:	c3                   	ret    
    3f76:	66 90                	xchg   %ax,%ax
    3f78:	85 db                	test   %ebx,%ebx
    3f7a:	0f 84 a0 fe ff ff    	je     3e20 <loc_server_register+0x40>
    3f80:	89 1d 18 28 02 00    	mov    %ebx,0x22818
    3f86:	e9 95 fe ff ff       	jmp    3e20 <loc_server_register+0x40>
    3f8b:	90                   	nop
    3f8c:	8d 74 26 00          	lea    0x0(%esi,%eiz,1),%esi
    3f90:	c7 44 24 0c 00 00 00 	movl   $0x0,0xc(%esp)
    3f97:	00 
    3f98:	c7 44 24 08 01 00 00 	movl   $0x1,0x8(%esp)
    3f9f:	00 
    3fa0:	c7 44 24 04 6c 6f 63 	movl   $0x20636f6c,0x4(%esp)
    3fa7:	20 
    3fa8:	c7 04 24 02 00 00 00 	movl   $0x2,(%esp)
    3faf:	e8 0c f4 00 00       	call   133c0 <service_connect_blocking>
    3fb4:	a3 18 28 02 00       	mov    %eax,0x22818
    3fb9:	e9 3f fe ff ff       	jmp    3dfd <loc_server_register+0x1d>
    3fbe:	66 90                	xchg   %ax,%ax
    3fc0:	89 3c 24             	mov    %edi,(%esp)
    3fc3:	e8 68 0e 01 00       	call   14e30 <async_forget>
    3fc8:	8b 45 c0             	mov    -0x40(%ebp),%eax
    3fcb:	83 c4 5c             	add    $0x5c,%esp
    3fce:	5b                   	pop    %ebx
    3fcf:	5e                   	pop    %esi
    3fd0:	5f                   	pop    %edi
    3fd1:	5d                   	pop    %ebp
    3fd2:	c3                   	ret    
    3fd3:	90                   	nop
    3fd4:	8d 74 26 00          	lea    0x0(%esi,%eiz,1),%esi
    3fd8:	85 db                	test   %ebx,%ebx
    3fda:	0f 84 85 fe ff ff    	je     3e65 <loc_server_register+0x85>
    3fe0:	89 1d 14 28 02 00    	mov    %ebx,0x22814
    3fe6:	e9 7a fe ff ff       	jmp    3e65 <loc_server_register+0x85>
    3feb:	c7 44 24 0c 00 00 00 	movl   $0x0,0xc(%esp)
    3ff2:	00 
    3ff3:	c7 44 24 08 01 00 00 	movl   $0x1,0x8(%esp)
    3ffa:	00 
    3ffb:	c7 44 24 04 6c 6f 63 	movl   $0x20636f6c,0x4(%esp)
    4002:	20 
    4003:	c7 04 24 02 00 00 00 	movl   $0x2,(%esp)
    400a:	e8 31 f3 00 00       	call   13340 <service_connect>
    400f:	a3 14 28 02 00       	mov    %eax,0x22814
    4014:	e9 e8 fe ff ff       	jmp    3f01 <loc_server_register+0x121>
    4019:	31 db                	xor    %ebx,%ebx
    401b:	e9 04 ff ff ff       	jmp    3f24 <loc_server_register+0x144>

00004020 <loc_service_register_with_iface>:
    4020:	55                   	push   %ebp
    4021:	89 e5                	mov    %esp,%ebp
    4023:	57                   	push   %edi
    4024:	56                   	push   %esi
    4025:	53                   	push   %ebx
    4026:	83 ec 5c             	sub    $0x5c,%esp
    4029:	8b 75 08             	mov    0x8(%ebp),%esi
    402c:	c7 04 24 0c 26 02 00 	movl   $0x2260c,(%esp)
    4033:	e8 e8 5e 00 00       	call   9f20 <fibril_mutex_lock>
    4038:	a1 18 28 02 00       	mov    0x22818,%eax
    403d:	85 c0                	test   %eax,%eax
    403f:	75 38                	jne    4079 <loc_service_register_with_iface+0x59>
    4041:	c7 04 24 1c 26 02 00 	movl   $0x2261c,(%esp)
    4048:	8b 1d 14 28 02 00    	mov    0x22814,%ebx
    404e:	e8 cd 5e 00 00       	call   9f20 <fibril_mutex_lock>
    4053:	a1 18 28 02 00       	mov    0x22818,%eax
    4058:	85 c0                	test   %eax,%eax
    405a:	0f 84 f8 00 00 00    	je     4158 <loc_service_register_with_iface+0x138>
    4060:	c7 04 24 1c 26 02 00 	movl   $0x2261c,(%esp)
    4067:	e8 d4 5f 00 00       	call   a040 <fibril_mutex_unlock>
    406c:	a1 18 28 02 00       	mov    0x22818,%eax
    4071:	85 c0                	test   %eax,%eax
    4073:	0f 84 f7 00 00 00    	je     4170 <loc_service_register_with_iface+0x150>
    4079:	c7 04 24 0c 26 02 00 	movl   $0x2260c,(%esp)
    4080:	e8 bb 5f 00 00       	call   a040 <fibril_mutex_unlock>
    4085:	c7 04 24 1c 26 02 00 	movl   $0x2261c,(%esp)
    408c:	8b 1d 18 28 02 00    	mov    0x22818,%ebx
    4092:	e8 89 5e 00 00       	call   9f20 <fibril_mutex_lock>
    4097:	8b 3d 14 28 02 00    	mov    0x22814,%edi
    409d:	85 ff                	test   %edi,%edi
    409f:	0f 84 33 01 00 00    	je     41d8 <loc_service_register_with_iface+0x1b8>
    40a5:	c7 04 24 1c 26 02 00 	movl   $0x2261c,(%esp)
    40ac:	e8 8f 5f 00 00       	call   a040 <fibril_mutex_unlock>
    40b1:	a1 18 28 02 00       	mov    0x22818,%eax
    40b6:	89 04 24             	mov    %eax,(%esp)
    40b9:	e8 b2 1f 01 00       	call   16070 <async_exchange_begin>
    40be:	c7 44 24 14 00 00 00 	movl   $0x0,0x14(%esp)
    40c5:	00 
    40c6:	89 c7                	mov    %eax,%edi
    40c8:	8d 45 c4             	lea    -0x3c(%ebp),%eax
    40cb:	89 44 24 18          	mov    %eax,0x18(%esp)
    40cf:	8b 45 10             	mov    0x10(%ebp),%eax
    40d2:	c7 44 24 10 00 00 00 	movl   $0x0,0x10(%esp)
    40d9:	00 
    40da:	c7 44 24 0c 00 00 00 	movl   $0x0,0xc(%esp)
    40e1:	00 
    40e2:	89 44 24 08          	mov    %eax,0x8(%esp)
    40e6:	c7 44 24 04 03 04 00 	movl   $0x403,0x4(%esp)
    40ed:	00 
    40ee:	89 3c 24             	mov    %edi,(%esp)
    40f1:	e8 1a 09 01 00       	call   14a10 <async_send_fast>
    40f6:	89 34 24             	mov    %esi,(%esp)
    40f9:	89 c3                	mov    %eax,%ebx
    40fb:	e8 00 2c 00 00       	call   6d00 <str_size>
    4100:	89 74 24 04          	mov    %esi,0x4(%esp)
    4104:	89 44 24 08          	mov    %eax,0x8(%esp)
    4108:	89 3c 24             	mov    %edi,(%esp)
    410b:	e8 50 2e 01 00       	call   16f60 <async_data_write_start>
    4110:	89 3c 24             	mov    %edi,(%esp)
    4113:	89 45 c0             	mov    %eax,-0x40(%ebp)
    4116:	e8 c5 22 01 00       	call   163e0 <async_exchange_end>
    411b:	8b 4d c0             	mov    -0x40(%ebp),%ecx
    411e:	85 c9                	test   %ecx,%ecx
    4120:	0f 85 9a 00 00 00    	jne    41c0 <loc_service_register_with_iface+0x1a0>
    4126:	8d 45 c0             	lea    -0x40(%ebp),%eax
    4129:	89 1c 24             	mov    %ebx,(%esp)
    412c:	89 44 24 04          	mov    %eax,0x4(%esp)
    4130:	e8 ab 0a 01 00       	call   14be0 <async_wait_for>
    4135:	8b 45 c0             	mov    -0x40(%ebp),%eax
    4138:	85 c0                	test   %eax,%eax
    413a:	74 64                	je     41a0 <loc_service_register_with_iface+0x180>
    413c:	8b 55 0c             	mov    0xc(%ebp),%edx
    413f:	85 d2                	test   %edx,%edx
    4141:	74 09                	je     414c <loc_service_register_with_iface+0x12c>
    4143:	8b 55 0c             	mov    0xc(%ebp),%edx
    4146:	c7 02 ff ff ff ff    	movl   $0xffffffff,(%edx)
    414c:	83 c4 5c             	add    $0x5c,%esp
    414f:	5b                   	pop    %ebx
    4150:	5e                   	pop    %esi
    4151:	5f                   	pop    %edi
    4152:	5d                   	pop    %ebp
    4153:	c3                   	ret    
    4154:	8d 74 26 00          	lea    0x0(%esi,%eiz,1),%esi
    4158:	85 db                	test   %ebx,%ebx
    415a:	0f 84 00 ff ff ff    	je     4060 <loc_service_register_with_iface+0x40>
    4160:	89 1d 18 28 02 00    	mov    %ebx,0x22818
    4166:	e9 f5 fe ff ff       	jmp    4060 <loc_service_register_with_iface+0x40>
    416b:	90                   	nop
    416c:	8d 74 26 00          	lea    0x0(%esi,%eiz,1),%esi
    4170:	c7 44 24 0c 00 00 00 	movl   $0x0,0xc(%esp)
    4177:	00 
    4178:	c7 44 24 08 01 00 00 	movl   $0x1,0x8(%esp)
    417f:	00 
    4180:	c7 44 24 04 6c 6f 63 	movl   $0x20636f6c,0x4(%esp)
    4187:	20 
    4188:	c7 04 24 02 00 00 00 	movl   $0x2,(%esp)
    418f:	e8 2c f2 00 00       	call   133c0 <service_connect_blocking>
    4194:	a3 18 28 02 00       	mov    %eax,0x22818
    4199:	e9 9f fe ff ff       	jmp    403d <loc_service_register_with_iface+0x1d>
    419e:	66 90                	xchg   %ax,%ax
    41a0:	8b 45 0c             	mov    0xc(%ebp),%eax
    41a3:	85 c0                	test   %eax,%eax
    41a5:	74 08                	je     41af <loc_service_register_with_iface+0x18f>
    41a7:	8b 55 0c             	mov    0xc(%ebp),%edx
    41aa:	8b 45 c8             	mov    -0x38(%ebp),%eax
    41ad:	89 02                	mov    %eax,(%edx)
    41af:	83 c4 5c             	add    $0x5c,%esp
    41b2:	31 c0                	xor    %eax,%eax
    41b4:	5b                   	pop    %ebx
    41b5:	5e                   	pop    %esi
    41b6:	5f                   	pop    %edi
    41b7:	5d                   	pop    %ebp
    41b8:	c3                   	ret    
    41b9:	8d b4 26 00 00 00 00 	lea    0x0(%esi,%eiz,1),%esi
    41c0:	89 1c 24             	mov    %ebx,(%esp)
    41c3:	e8 68 0c 01 00       	call   14e30 <async_forget>
    41c8:	8b 45 c0             	mov    -0x40(%ebp),%eax
    41cb:	83 c4 5c             	add    $0x5c,%esp
    41ce:	5b                   	pop    %ebx
    41cf:	5e                   	pop    %esi
    41d0:	5f                   	pop    %edi
    41d1:	5d                   	pop    %ebp
    41d2:	c3                   	ret    
    41d3:	90                   	nop
    41d4:	8d 74 26 00          	lea    0x0(%esi,%eiz,1),%esi
    41d8:	85 db                	test   %ebx,%ebx
    41da:	0f 84 c5 fe ff ff    	je     40a5 <loc_service_register_with_iface+0x85>
    41e0:	89 1d 14 28 02 00    	mov    %ebx,0x22814
    41e6:	e9 ba fe ff ff       	jmp    40a5 <loc_service_register_with_iface+0x85>
    41eb:	90                   	nop
    41ec:	8d 74 26 00          	lea    0x0(%esi,%eiz,1),%esi

000041f0 <loc_service_register>:
    41f0:	55                   	push   %ebp
    41f1:	89 e5                	mov    %esp,%ebp
    41f3:	57                   	push   %edi
    41f4:	56                   	push   %esi
    41f5:	53                   	push   %ebx
    41f6:	83 ec 5c             	sub    $0x5c,%esp
    41f9:	8b 75 08             	mov    0x8(%ebp),%esi
    41fc:	c7 04 24 0c 26 02 00 	movl   $0x2260c,(%esp)
    4203:	e8 18 5d 00 00       	call   9f20 <fibril_mutex_lock>
    4208:	a1 18 28 02 00       	mov    0x22818,%eax
    420d:	85 c0                	test   %eax,%eax
    420f:	75 38                	jne    4249 <loc_service_register+0x59>
    4211:	c7 04 24 1c 26 02 00 	movl   $0x2261c,(%esp)
    4218:	8b 1d 14 28 02 00    	mov    0x22814,%ebx
    421e:	e8 fd 5c 00 00       	call   9f20 <fibril_mutex_lock>
    4223:	a1 18 28 02 00       	mov    0x22818,%eax
    4228:	85 c0                	test   %eax,%eax
    422a:	0f 84 f8 00 00 00    	je     4328 <loc_service_register+0x138>
    4230:	c7 04 24 1c 26 02 00 	movl   $0x2261c,(%esp)
    4237:	e8 04 5e 00 00       	call   a040 <fibril_mutex_unlock>
    423c:	a1 18 28 02 00       	mov    0x22818,%eax
    4241:	85 c0                	test   %eax,%eax
    4243:	0f 84 f7 00 00 00    	je     4340 <loc_service_register+0x150>
    4249:	c7 04 24 0c 26 02 00 	movl   $0x2260c,(%esp)
    4250:	e8 eb 5d 00 00       	call   a040 <fibril_mutex_unlock>
    4255:	c7 04 24 1c 26 02 00 	movl   $0x2261c,(%esp)
    425c:	8b 1d 18 28 02 00    	mov    0x22818,%ebx
    4262:	e8 b9 5c 00 00       	call   9f20 <fibril_mutex_lock>
    4267:	8b 3d 14 28 02 00    	mov    0x22814,%edi
    426d:	85 ff                	test   %edi,%edi
    426f:	0f 84 33 01 00 00    	je     43a8 <loc_service_register+0x1b8>
    4275:	c7 04 24 1c 26 02 00 	movl   $0x2261c,(%esp)
    427c:	e8 bf 5d 00 00       	call   a040 <fibril_mutex_unlock>
    4281:	a1 18 28 02 00       	mov    0x22818,%eax
    4286:	89 04 24             	mov    %eax,(%esp)
    4289:	e8 e2 1d 01 00       	call   16070 <async_exchange_begin>
    428e:	c7 44 24 14 00 00 00 	movl   $0x0,0x14(%esp)
    4295:	00 
    4296:	89 c7                	mov    %eax,%edi
    4298:	8d 45 c4             	lea    -0x3c(%ebp),%eax
    429b:	89 44 24 18          	mov    %eax,0x18(%esp)
    429f:	c7 44 24 10 00 00 00 	movl   $0x0,0x10(%esp)
    42a6:	00 
    42a7:	c7 44 24 0c 00 00 00 	movl   $0x0,0xc(%esp)
    42ae:	00 
    42af:	c7 44 24 08 00 00 00 	movl   $0x0,0x8(%esp)
    42b6:	00 
    42b7:	c7 44 24 04 03 04 00 	movl   $0x403,0x4(%esp)
    42be:	00 
    42bf:	89 3c 24             	mov    %edi,(%esp)
    42c2:	e8 49 07 01 00       	call   14a10 <async_send_fast>
    42c7:	89 34 24             	mov    %esi,(%esp)
    42ca:	89 c3                	mov    %eax,%ebx
    42cc:	e8 2f 2a 00 00       	call   6d00 <str_size>
    42d1:	89 74 24 04          	mov    %esi,0x4(%esp)
    42d5:	89 44 24 08          	mov    %eax,0x8(%esp)
    42d9:	89 3c 24             	mov    %edi,(%esp)
    42dc:	e8 7f 2c 01 00       	call   16f60 <async_data_write_start>
    42e1:	89 3c 24             	mov    %edi,(%esp)
    42e4:	89 45 c0             	mov    %eax,-0x40(%ebp)
    42e7:	e8 f4 20 01 00       	call   163e0 <async_exchange_end>
    42ec:	8b 4d c0             	mov    -0x40(%ebp),%ecx
    42ef:	85 c9                	test   %ecx,%ecx
    42f1:	0f 85 99 00 00 00    	jne    4390 <loc_service_register+0x1a0>
    42f7:	8d 45 c0             	lea    -0x40(%ebp),%eax
    42fa:	89 1c 24             	mov    %ebx,(%esp)
    42fd:	89 44 24 04          	mov    %eax,0x4(%esp)
    4301:	e8 da 08 01 00       	call   14be0 <async_wait_for>
    4306:	8b 45 c0             	mov    -0x40(%ebp),%eax
    4309:	85 c0                	test   %eax,%eax
    430b:	74 63                	je     4370 <loc_service_register+0x180>
    430d:	8b 55 0c             	mov    0xc(%ebp),%edx
    4310:	85 d2                	test   %edx,%edx
    4312:	74 09                	je     431d <loc_service_register+0x12d>
    4314:	8b 55 0c             	mov    0xc(%ebp),%edx
    4317:	c7 02 ff ff ff ff    	movl   $0xffffffff,(%edx)
    431d:	83 c4 5c             	add    $0x5c,%esp
    4320:	5b                   	pop    %ebx
    4321:	5e                   	pop    %esi
    4322:	5f                   	pop    %edi
    4323:	5d                   	pop    %ebp
    4324:	c3                   	ret    
    4325:	8d 76 00             	lea    0x0(%esi),%esi
    4328:	85 db                	test   %ebx,%ebx
    432a:	0f 84 00 ff ff ff    	je     4230 <loc_service_register+0x40>
    4330:	89 1d 18 28 02 00    	mov    %ebx,0x22818
    4336:	e9 f5 fe ff ff       	jmp    4230 <loc_service_register+0x40>
    433b:	90                   	nop
    433c:	8d 74 26 00          	lea    0x0(%esi,%eiz,1),%esi
    4340:	c7 44 24 0c 00 00 00 	movl   $0x0,0xc(%esp)
    4347:	00 
    4348:	c7 44 24 08 01 00 00 	movl   $0x1,0x8(%esp)
    434f:	00 
    4350:	c7 44 24 04 6c 6f 63 	movl   $0x20636f6c,0x4(%esp)
    4357:	20 
    4358:	c7 04 24 02 00 00 00 	movl   $0x2,(%esp)
    435f:	e8 5c f0 00 00       	call   133c0 <service_connect_blocking>
    4364:	a3 18 28 02 00       	mov    %eax,0x22818
    4369:	e9 9f fe ff ff       	jmp    420d <loc_service_register+0x1d>
    436e:	66 90                	xchg   %ax,%ax
    4370:	8b 45 0c             	mov    0xc(%ebp),%eax
    4373:	85 c0                	test   %eax,%eax
    4375:	74 08                	je     437f <loc_service_register+0x18f>
    4377:	8b 55 0c             	mov    0xc(%ebp),%edx
    437a:	8b 45 c8             	mov    -0x38(%ebp),%eax
    437d:	89 02                	mov    %eax,(%edx)
    437f:	83 c4 5c             	add    $0x5c,%esp
    4382:	31 c0                	xor    %eax,%eax
    4384:	5b                   	pop    %ebx
    4385:	5e                   	pop    %esi
    4386:	5f                   	pop    %edi
    4387:	5d                   	pop    %ebp
    4388:	c3                   	ret    
    4389:	8d b4 26 00 00 00 00 	lea    0x0(%esi,%eiz,1),%esi
    4390:	89 1c 24             	mov    %ebx,(%esp)
    4393:	e8 98 0a 01 00       	call   14e30 <async_forget>
    4398:	8b 45 c0             	mov    -0x40(%ebp),%eax
    439b:	83 c4 5c             	add    $0x5c,%esp
    439e:	5b                   	pop    %ebx
    439f:	5e                   	pop    %esi
    43a0:	5f                   	pop    %edi
    43a1:	5d                   	pop    %ebp
    43a2:	c3                   	ret    
    43a3:	90                   	nop
    43a4:	8d 74 26 00          	lea    0x0(%esi,%eiz,1),%esi
    43a8:	85 db                	test   %ebx,%ebx
    43aa:	0f 84 c5 fe ff ff    	je     4275 <loc_service_register+0x85>
    43b0:	89 1d 14 28 02 00    	mov    %ebx,0x22814
    43b6:	e9 ba fe ff ff       	jmp    4275 <loc_service_register+0x85>
    43bb:	90                   	nop
    43bc:	8d 74 26 00          	lea    0x0(%esi,%eiz,1),%esi

000043c0 <loc_service_unregister>:
    43c0:	55                   	push   %ebp
    43c1:	89 e5                	mov    %esp,%ebp
    43c3:	53                   	push   %ebx
    43c4:	83 ec 44             	sub    $0x44,%esp
    43c7:	c7 04 24 0c 26 02 00 	movl   $0x2260c,(%esp)
    43ce:	e8 4d 5b 00 00       	call   9f20 <fibril_mutex_lock>
    43d3:	a1 18 28 02 00       	mov    0x22818,%eax
    43d8:	85 c0                	test   %eax,%eax
    43da:	75 38                	jne    4414 <loc_service_unregister+0x54>
    43dc:	c7 04 24 1c 26 02 00 	movl   $0x2261c,(%esp)
    43e3:	8b 1d 14 28 02 00    	mov    0x22814,%ebx
    43e9:	e8 32 5b 00 00       	call   9f20 <fibril_mutex_lock>
    43ee:	a1 18 28 02 00       	mov    0x22818,%eax
    43f3:	85 c0                	test   %eax,%eax
    43f5:	0f 84 cd 00 00 00    	je     44c8 <loc_service_unregister+0x108>
    43fb:	c7 04 24 1c 26 02 00 	movl   $0x2261c,(%esp)
    4402:	e8 39 5c 00 00       	call   a040 <fibril_mutex_unlock>
    4407:	a1 18 28 02 00       	mov    0x22818,%eax
    440c:	85 c0                	test   %eax,%eax
    440e:	0f 84 cc 00 00 00    	je     44e0 <loc_service_unregister+0x120>
    4414:	c7 04 24 0c 26 02 00 	movl   $0x2260c,(%esp)
    441b:	e8 20 5c 00 00       	call   a040 <fibril_mutex_unlock>
    4420:	c7 04 24 1c 26 02 00 	movl   $0x2261c,(%esp)
    4427:	8b 1d 18 28 02 00    	mov    0x22818,%ebx
    442d:	e8 ee 5a 00 00       	call   9f20 <fibril_mutex_lock>
    4432:	a1 14 28 02 00       	mov    0x22814,%eax
    4437:	85 c0                	test   %eax,%eax
    4439:	0f 84 d1 00 00 00    	je     4510 <loc_service_unregister+0x150>
    443f:	c7 04 24 1c 26 02 00 	movl   $0x2261c,(%esp)
    4446:	e8 f5 5b 00 00       	call   a040 <fibril_mutex_unlock>
    444b:	a1 18 28 02 00       	mov    0x22818,%eax
    4450:	89 04 24             	mov    %eax,(%esp)
    4453:	e8 18 1c 01 00       	call   16070 <async_exchange_begin>
    4458:	c7 44 24 28 00 00 00 	movl   $0x0,0x28(%esp)
    445f:	00 
    4460:	89 c3                	mov    %eax,%ebx
    4462:	8b 45 08             	mov    0x8(%ebp),%eax
    4465:	89 1c 24             	mov    %ebx,(%esp)
    4468:	c7 44 24 24 00 00 00 	movl   $0x0,0x24(%esp)
    446f:	00 
    4470:	c7 44 24 20 00 00 00 	movl   $0x0,0x20(%esp)
    4477:	00 
    4478:	c7 44 24 1c 00 00 00 	movl   $0x0,0x1c(%esp)
    447f:	00 
    4480:	c7 44 24 18 00 00 00 	movl   $0x0,0x18(%esp)
    4487:	00 
    4488:	c7 44 24 14 00 00 00 	movl   $0x0,0x14(%esp)
    448f:	00 
    4490:	c7 44 24 10 00 00 00 	movl   $0x0,0x10(%esp)
    4497:	00 
    4498:	c7 44 24 0c 00 00 00 	movl   $0x0,0xc(%esp)
    449f:	00 
    44a0:	89 44 24 08          	mov    %eax,0x8(%esp)
    44a4:	c7 44 24 04 04 04 00 	movl   $0x404,0x4(%esp)
    44ab:	00 
    44ac:	e8 6f 0b 01 00       	call   15020 <async_req_fast>
    44b1:	89 1c 24             	mov    %ebx,(%esp)
    44b4:	89 45 f4             	mov    %eax,-0xc(%ebp)
    44b7:	e8 24 1f 01 00       	call   163e0 <async_exchange_end>
    44bc:	8b 45 f4             	mov    -0xc(%ebp),%eax
    44bf:	83 c4 44             	add    $0x44,%esp
    44c2:	5b                   	pop    %ebx
    44c3:	5d                   	pop    %ebp
    44c4:	c3                   	ret    
    44c5:	8d 76 00             	lea    0x0(%esi),%esi
    44c8:	85 db                	test   %ebx,%ebx
    44ca:	0f 84 2b ff ff ff    	je     43fb <loc_service_unregister+0x3b>
    44d0:	89 1d 18 28 02 00    	mov    %ebx,0x22818
    44d6:	e9 20 ff ff ff       	jmp    43fb <loc_service_unregister+0x3b>
    44db:	90                   	nop
    44dc:	8d 74 26 00          	lea    0x0(%esi,%eiz,1),%esi
    44e0:	c7 44 24 0c 00 00 00 	movl   $0x0,0xc(%esp)
    44e7:	00 
    44e8:	c7 44 24 08 01 00 00 	movl   $0x1,0x8(%esp)
    44ef:	00 
    44f0:	c7 44 24 04 6c 6f 63 	movl   $0x20636f6c,0x4(%esp)
    44f7:	20 
    44f8:	c7 04 24 02 00 00 00 	movl   $0x2,(%esp)
    44ff:	e8 bc ee 00 00       	call   133c0 <service_connect_blocking>
    4504:	a3 18 28 02 00       	mov    %eax,0x22818
    4509:	e9 ca fe ff ff       	jmp    43d8 <loc_service_unregister+0x18>
    450e:	66 90                	xchg   %ax,%ax
    4510:	85 db                	test   %ebx,%ebx
    4512:	0f 84 27 ff ff ff    	je     443f <loc_service_unregister+0x7f>
    4518:	89 1d 14 28 02 00    	mov    %ebx,0x22814
    451e:	e9 1c ff ff ff       	jmp    443f <loc_service_unregister+0x7f>
    4523:	8d b6 00 00 00 00    	lea    0x0(%esi),%esi
    4529:	8d bc 27 00 00 00 00 	lea    0x0(%edi,%eiz,1),%edi

00004530 <loc_service_get_id>:
    4530:	55                   	push   %ebp
    4531:	89 e5                	mov    %esp,%ebp
    4533:	57                   	push   %edi
    4534:	56                   	push   %esi
    4535:	53                   	push   %ebx
    4536:	83 ec 5c             	sub    $0x5c,%esp
    4539:	8b 75 10             	mov    0x10(%ebp),%esi
    453c:	8b 7d 08             	mov    0x8(%ebp),%edi
    453f:	f7 c6 01 00 00 00    	test   $0x1,%esi
    4545:	0f 84 45 01 00 00    	je     4690 <loc_service_get_id+0x160>
    454b:	c7 04 24 2c 26 02 00 	movl   $0x2262c,(%esp)
    4552:	e8 c9 59 00 00       	call   9f20 <fibril_mutex_lock>
    4557:	a1 20 28 02 00       	mov    0x22820,%eax
    455c:	85 c0                	test   %eax,%eax
    455e:	75 38                	jne    4598 <loc_service_get_id+0x68>
    4560:	c7 04 24 3c 26 02 00 	movl   $0x2263c,(%esp)
    4567:	8b 1d 1c 28 02 00    	mov    0x2281c,%ebx
    456d:	e8 ae 59 00 00       	call   9f20 <fibril_mutex_lock>
    4572:	a1 20 28 02 00       	mov    0x22820,%eax
    4577:	85 c0                	test   %eax,%eax
    4579:	0f 84 f9 00 00 00    	je     4678 <loc_service_get_id+0x148>
    457f:	c7 04 24 3c 26 02 00 	movl   $0x2263c,(%esp)
    4586:	e8 b5 5a 00 00       	call   a040 <fibril_mutex_unlock>
    458b:	a1 20 28 02 00       	mov    0x22820,%eax
    4590:	85 c0                	test   %eax,%eax
    4592:	0f 84 68 01 00 00    	je     4700 <loc_service_get_id+0x1d0>
    4598:	c7 04 24 2c 26 02 00 	movl   $0x2262c,(%esp)
    459f:	e8 9c 5a 00 00       	call   a040 <fibril_mutex_unlock>
    45a4:	c7 04 24 3c 26 02 00 	movl   $0x2263c,(%esp)
    45ab:	8b 1d 20 28 02 00    	mov    0x22820,%ebx
    45b1:	e8 6a 59 00 00       	call   9f20 <fibril_mutex_lock>
    45b6:	a1 1c 28 02 00       	mov    0x2281c,%eax
    45bb:	85 c0                	test   %eax,%eax
    45bd:	0f 84 85 01 00 00    	je     4748 <loc_service_get_id+0x218>
    45c3:	c7 04 24 3c 26 02 00 	movl   $0x2263c,(%esp)
    45ca:	e8 71 5a 00 00       	call   a040 <fibril_mutex_unlock>
    45cf:	a1 20 28 02 00       	mov    0x22820,%eax
    45d4:	89 04 24             	mov    %eax,(%esp)
    45d7:	e8 94 1a 01 00       	call   16070 <async_exchange_begin>
    45dc:	89 c3                	mov    %eax,%ebx
    45de:	8d 45 c4             	lea    -0x3c(%ebp),%eax
    45e1:	89 74 24 08          	mov    %esi,0x8(%esp)
    45e5:	89 44 24 18          	mov    %eax,0x18(%esp)
    45e9:	c7 44 24 14 00 00 00 	movl   $0x0,0x14(%esp)
    45f0:	00 
    45f1:	c7 44 24 10 00 00 00 	movl   $0x0,0x10(%esp)
    45f8:	00 
    45f9:	c7 44 24 0c 00 00 00 	movl   $0x0,0xc(%esp)
    4600:	00 
    4601:	c7 44 24 04 05 04 00 	movl   $0x405,0x4(%esp)
    4608:	00 
    4609:	89 1c 24             	mov    %ebx,(%esp)
    460c:	e8 ff 03 01 00       	call   14a10 <async_send_fast>
    4611:	89 3c 24             	mov    %edi,(%esp)
    4614:	89 c6                	mov    %eax,%esi
    4616:	e8 e5 26 00 00       	call   6d00 <str_size>
    461b:	89 7c 24 04          	mov    %edi,0x4(%esp)
    461f:	89 44 24 08          	mov    %eax,0x8(%esp)
    4623:	89 1c 24             	mov    %ebx,(%esp)
    4626:	e8 35 29 01 00       	call   16f60 <async_data_write_start>
    462b:	89 1c 24             	mov    %ebx,(%esp)
    462e:	89 45 c0             	mov    %eax,-0x40(%ebp)
    4631:	e8 aa 1d 01 00       	call   163e0 <async_exchange_end>
    4636:	8b 4d c0             	mov    -0x40(%ebp),%ecx
    4639:	85 c9                	test   %ecx,%ecx
    463b:	0f 85 ef 00 00 00    	jne    4730 <loc_service_get_id+0x200>
    4641:	8d 45 c0             	lea    -0x40(%ebp),%eax
    4644:	89 34 24             	mov    %esi,(%esp)
    4647:	89 44 24 04          	mov    %eax,0x4(%esp)
    464b:	e8 90 05 01 00       	call   14be0 <async_wait_for>
    4650:	8b 45 c0             	mov    -0x40(%ebp),%eax
    4653:	85 c0                	test   %eax,%eax
    4655:	0f 84 85 00 00 00    	je     46e0 <loc_service_get_id+0x1b0>
    465b:	8b 55 0c             	mov    0xc(%ebp),%edx
    465e:	85 d2                	test   %edx,%edx
    4660:	74 09                	je     466b <loc_service_get_id+0x13b>
    4662:	8b 55 0c             	mov    0xc(%ebp),%edx
    4665:	c7 02 ff ff ff ff    	movl   $0xffffffff,(%edx)
    466b:	83 c4 5c             	add    $0x5c,%esp
    466e:	5b                   	pop    %ebx
    466f:	5e                   	pop    %esi
    4670:	5f                   	pop    %edi
    4671:	5d                   	pop    %ebp
    4672:	c3                   	ret    
    4673:	90                   	nop
    4674:	8d 74 26 00          	lea    0x0(%esi,%eiz,1),%esi
    4678:	85 db                	test   %ebx,%ebx
    467a:	0f 84 ff fe ff ff    	je     457f <loc_service_get_id+0x4f>
    4680:	89 1d 20 28 02 00    	mov    %ebx,0x22820
    4686:	e9 f4 fe ff ff       	jmp    457f <loc_service_get_id+0x4f>
    468b:	90                   	nop
    468c:	8d 74 26 00          	lea    0x0(%esi,%eiz,1),%esi
    4690:	c7 04 24 3c 26 02 00 	movl   $0x2263c,(%esp)
    4697:	e8 84 58 00 00       	call   9f20 <fibril_mutex_lock>
    469c:	8b 1d 1c 28 02 00    	mov    0x2281c,%ebx
    46a2:	85 db                	test   %ebx,%ebx
    46a4:	0f 84 b1 00 00 00    	je     475b <loc_service_get_id+0x22b>
    46aa:	c7 04 24 3c 26 02 00 	movl   $0x2263c,(%esp)
    46b1:	e8 8a 59 00 00       	call   a040 <fibril_mutex_unlock>
    46b6:	a1 1c 28 02 00       	mov    0x2281c,%eax
    46bb:	85 c0                	test   %eax,%eax
    46bd:	74 12                	je     46d1 <loc_service_get_id+0x1a1>
    46bf:	89 04 24             	mov    %eax,(%esp)
    46c2:	e8 a9 19 01 00       	call   16070 <async_exchange_begin>
    46c7:	89 c3                	mov    %eax,%ebx
    46c9:	85 c0                	test   %eax,%eax
    46cb:	0f 85 0d ff ff ff    	jne    45de <loc_service_get_id+0xae>
    46d1:	e8 0a 96 01 00       	call   1dce0 <__errno>
    46d6:	8b 00                	mov    (%eax),%eax
    46d8:	eb 91                	jmp    466b <loc_service_get_id+0x13b>
    46da:	8d b6 00 00 00 00    	lea    0x0(%esi),%esi
    46e0:	8b 45 0c             	mov    0xc(%ebp),%eax
    46e3:	85 c0                	test   %eax,%eax
    46e5:	74 08                	je     46ef <loc_service_get_id+0x1bf>
    46e7:	8b 55 0c             	mov    0xc(%ebp),%edx
    46ea:	8b 45 c8             	mov    -0x38(%ebp),%eax
    46ed:	89 02                	mov    %eax,(%edx)
    46ef:	83 c4 5c             	add    $0x5c,%esp
    46f2:	31 c0                	xor    %eax,%eax
    46f4:	5b                   	pop    %ebx
    46f5:	5e                   	pop    %esi
    46f6:	5f                   	pop    %edi
    46f7:	5d                   	pop    %ebp
    46f8:	c3                   	ret    
    46f9:	8d b4 26 00 00 00 00 	lea    0x0(%esi,%eiz,1),%esi
    4700:	c7 44 24 0c 00 00 00 	movl   $0x0,0xc(%esp)
    4707:	00 
    4708:	c7 44 24 08 02 00 00 	movl   $0x2,0x8(%esp)
    470f:	00 
    4710:	c7 44 24 04 6c 6f 63 	movl   $0x20636f6c,0x4(%esp)
    4717:	20 
    4718:	c7 04 24 02 00 00 00 	movl   $0x2,(%esp)
    471f:	e8 9c ec 00 00       	call   133c0 <service_connect_blocking>
    4724:	a3 20 28 02 00       	mov    %eax,0x22820
    4729:	e9 2e fe ff ff       	jmp    455c <loc_service_get_id+0x2c>
    472e:	66 90                	xchg   %ax,%ax
    4730:	89 34 24             	mov    %esi,(%esp)
    4733:	e8 f8 06 01 00       	call   14e30 <async_forget>
    4738:	8b 45 c0             	mov    -0x40(%ebp),%eax
    473b:	83 c4 5c             	add    $0x5c,%esp
    473e:	5b                   	pop    %ebx
    473f:	5e                   	pop    %esi
    4740:	5f                   	pop    %edi
    4741:	5d                   	pop    %ebp
    4742:	c3                   	ret    
    4743:	90                   	nop
    4744:	8d 74 26 00          	lea    0x0(%esi,%eiz,1),%esi
    4748:	85 db                	test   %ebx,%ebx
    474a:	0f 84 73 fe ff ff    	je     45c3 <loc_service_get_id+0x93>
    4750:	89 1d 1c 28 02 00    	mov    %ebx,0x2281c
    4756:	e9 68 fe ff ff       	jmp    45c3 <loc_service_get_id+0x93>
    475b:	c7 44 24 0c 00 00 00 	movl   $0x0,0xc(%esp)
    4762:	00 
    4763:	c7 44 24 08 02 00 00 	movl   $0x2,0x8(%esp)
    476a:	00 
    476b:	c7 44 24 04 6c 6f 63 	movl   $0x20636f6c,0x4(%esp)
    4772:	20 
    4773:	c7 04 24 02 00 00 00 	movl   $0x2,(%esp)
    477a:	e8 c1 eb 00 00       	call   13340 <service_connect>
    477f:	a3 1c 28 02 00       	mov    %eax,0x2281c
    4784:	e9 21 ff ff ff       	jmp    46aa <loc_service_get_id+0x17a>
    4789:	8d b4 26 00 00 00 00 	lea    0x0(%esi,%eiz,1),%esi

00004790 <loc_category_get_name>:
    4790:	55                   	push   %ebp
    4791:	b8 0b 04 00 00       	mov    $0x40b,%eax
    4796:	89 e5                	mov    %esp,%ebp
    4798:	8b 4d 0c             	mov    0xc(%ebp),%ecx
    479b:	8b 55 08             	mov    0x8(%ebp),%edx
    479e:	5d                   	pop    %ebp
    479f:	e9 6c ed ff ff       	jmp    3510 <loc_get_name_internal>
    47a4:	8d b6 00 00 00 00    	lea    0x0(%esi),%esi
    47aa:	8d bf 00 00 00 00    	lea    0x0(%edi),%edi

000047b0 <loc_service_get_name>:
    47b0:	55                   	push   %ebp
    47b1:	b8 06 04 00 00       	mov    $0x406,%eax
    47b6:	89 e5                	mov    %esp,%ebp
    47b8:	8b 4d 0c             	mov    0xc(%ebp),%ecx
    47bb:	8b 55 08             	mov    0x8(%ebp),%edx
    47be:	5d                   	pop    %ebp
    47bf:	e9 4c ed ff ff       	jmp    3510 <loc_get_name_internal>
    47c4:	8d b6 00 00 00 00    	lea    0x0(%esi),%esi
    47ca:	8d bf 00 00 00 00    	lea    0x0(%edi),%edi

000047d0 <loc_service_get_server_name>:
    47d0:	55                   	push   %ebp
    47d1:	b8 07 04 00 00       	mov    $0x407,%eax
    47d6:	89 e5                	mov    %esp,%ebp
    47d8:	8b 4d 0c             	mov    0xc(%ebp),%ecx
    47db:	8b 55 08             	mov    0x8(%ebp),%edx
    47de:	5d                   	pop    %ebp
    47df:	e9 2c ed ff ff       	jmp    3510 <loc_get_name_internal>
    47e4:	8d b6 00 00 00 00    	lea    0x0(%esi),%esi
    47ea:	8d bf 00 00 00 00    	lea    0x0(%edi),%edi

000047f0 <loc_namespace_get_id>:
    47f0:	55                   	push   %ebp
    47f1:	89 e5                	mov    %esp,%ebp
    47f3:	57                   	push   %edi
    47f4:	56                   	push   %esi
    47f5:	53                   	push   %ebx
    47f6:	83 ec 5c             	sub    $0x5c,%esp
    47f9:	8b 75 10             	mov    0x10(%ebp),%esi
    47fc:	8b 7d 08             	mov    0x8(%ebp),%edi
    47ff:	f7 c6 01 00 00 00    	test   $0x1,%esi
    4805:	0f 84 45 01 00 00    	je     4950 <loc_namespace_get_id+0x160>
    480b:	c7 04 24 2c 26 02 00 	movl   $0x2262c,(%esp)
    4812:	e8 09 57 00 00       	call   9f20 <fibril_mutex_lock>
    4817:	a1 20 28 02 00       	mov    0x22820,%eax
    481c:	85 c0                	test   %eax,%eax
    481e:	75 38                	jne    4858 <loc_namespace_get_id+0x68>
    4820:	c7 04 24 3c 26 02 00 	movl   $0x2263c,(%esp)
    4827:	8b 1d 1c 28 02 00    	mov    0x2281c,%ebx
    482d:	e8 ee 56 00 00       	call   9f20 <fibril_mutex_lock>
    4832:	a1 20 28 02 00       	mov    0x22820,%eax
    4837:	85 c0                	test   %eax,%eax
    4839:	0f 84 f9 00 00 00    	je     4938 <loc_namespace_get_id+0x148>
    483f:	c7 04 24 3c 26 02 00 	movl   $0x2263c,(%esp)
    4846:	e8 f5 57 00 00       	call   a040 <fibril_mutex_unlock>
    484b:	a1 20 28 02 00       	mov    0x22820,%eax
    4850:	85 c0                	test   %eax,%eax
    4852:	0f 84 68 01 00 00    	je     49c0 <loc_namespace_get_id+0x1d0>
    4858:	c7 04 24 2c 26 02 00 	movl   $0x2262c,(%esp)
    485f:	e8 dc 57 00 00       	call   a040 <fibril_mutex_unlock>
    4864:	c7 04 24 3c 26 02 00 	movl   $0x2263c,(%esp)
    486b:	8b 1d 20 28 02 00    	mov    0x22820,%ebx
    4871:	e8 aa 56 00 00       	call   9f20 <fibril_mutex_lock>
    4876:	a1 1c 28 02 00       	mov    0x2281c,%eax
    487b:	85 c0                	test   %eax,%eax
    487d:	0f 84 85 01 00 00    	je     4a08 <loc_namespace_get_id+0x218>
    4883:	c7 04 24 3c 26 02 00 	movl   $0x2263c,(%esp)
    488a:	e8 b1 57 00 00       	call   a040 <fibril_mutex_unlock>
    488f:	a1 20 28 02 00       	mov    0x22820,%eax
    4894:	89 04 24             	mov    %eax,(%esp)
    4897:	e8 d4 17 01 00       	call   16070 <async_exchange_begin>
    489c:	89 c3                	mov    %eax,%ebx
    489e:	8d 45 c4             	lea    -0x3c(%ebp),%eax
    48a1:	89 74 24 08          	mov    %esi,0x8(%esp)
    48a5:	89 44 24 18          	mov    %eax,0x18(%esp)
    48a9:	c7 44 24 14 00 00 00 	movl   $0x0,0x14(%esp)
    48b0:	00 
    48b1:	c7 44 24 10 00 00 00 	movl   $0x0,0x10(%esp)
    48b8:	00 
    48b9:	c7 44 24 0c 00 00 00 	movl   $0x0,0xc(%esp)
    48c0:	00 
    48c1:	c7 44 24 04 08 04 00 	movl   $0x408,0x4(%esp)
    48c8:	00 
    48c9:	89 1c 24             	mov    %ebx,(%esp)
    48cc:	e8 3f 01 01 00       	call   14a10 <async_send_fast>
    48d1:	89 3c 24             	mov    %edi,(%esp)
    48d4:	89 c6                	mov    %eax,%esi
    48d6:	e8 25 24 00 00       	call   6d00 <str_size>
    48db:	89 7c 24 04          	mov    %edi,0x4(%esp)
    48df:	89 44 24 08          	mov    %eax,0x8(%esp)
    48e3:	89 1c 24             	mov    %ebx,(%esp)
    48e6:	e8 75 26 01 00       	call   16f60 <async_data_write_start>
    48eb:	89 1c 24             	mov    %ebx,(%esp)
    48ee:	89 45 c0             	mov    %eax,-0x40(%ebp)
    48f1:	e8 ea 1a 01 00       	call   163e0 <async_exchange_end>
    48f6:	8b 4d c0             	mov    -0x40(%ebp),%ecx
    48f9:	85 c9                	test   %ecx,%ecx
    48fb:	0f 85 ef 00 00 00    	jne    49f0 <loc_namespace_get_id+0x200>
    4901:	8d 45 c0             	lea    -0x40(%ebp),%eax
    4904:	89 34 24             	mov    %esi,(%esp)
    4907:	89 44 24 04          	mov    %eax,0x4(%esp)
    490b:	e8 d0 02 01 00       	call   14be0 <async_wait_for>
    4910:	8b 45 c0             	mov    -0x40(%ebp),%eax
    4913:	85 c0                	test   %eax,%eax
    4915:	0f 84 85 00 00 00    	je     49a0 <loc_namespace_get_id+0x1b0>
    491b:	8b 55 0c             	mov    0xc(%ebp),%edx
    491e:	85 d2                	test   %edx,%edx
    4920:	74 09                	je     492b <loc_namespace_get_id+0x13b>
    4922:	8b 55 0c             	mov    0xc(%ebp),%edx
    4925:	c7 02 ff ff ff ff    	movl   $0xffffffff,(%edx)
    492b:	83 c4 5c             	add    $0x5c,%esp
    492e:	5b                   	pop    %ebx
    492f:	5e                   	pop    %esi
    4930:	5f                   	pop    %edi
    4931:	5d                   	pop    %ebp
    4932:	c3                   	ret    
    4933:	90                   	nop
    4934:	8d 74 26 00          	lea    0x0(%esi,%eiz,1),%esi
    4938:	85 db                	test   %ebx,%ebx
    493a:	0f 84 ff fe ff ff    	je     483f <loc_namespace_get_id+0x4f>
    4940:	89 1d 20 28 02 00    	mov    %ebx,0x22820
    4946:	e9 f4 fe ff ff       	jmp    483f <loc_namespace_get_id+0x4f>
    494b:	90                   	nop
    494c:	8d 74 26 00          	lea    0x0(%esi,%eiz,1),%esi
    4950:	c7 04 24 3c 26 02 00 	movl   $0x2263c,(%esp)
    4957:	e8 c4 55 00 00       	call   9f20 <fibril_mutex_lock>
    495c:	8b 1d 1c 28 02 00    	mov    0x2281c,%ebx
    4962:	85 db                	test   %ebx,%ebx
    4964:	0f 84 b1 00 00 00    	je     4a1b <loc_namespace_get_id+0x22b>
    496a:	c7 04 24 3c 26 02 00 	movl   $0x2263c,(%esp)
    4971:	e8 ca 56 00 00       	call   a040 <fibril_mutex_unlock>
    4976:	a1 1c 28 02 00       	mov    0x2281c,%eax
    497b:	85 c0                	test   %eax,%eax
    497d:	74 12                	je     4991 <loc_namespace_get_id+0x1a1>
    497f:	89 04 24             	mov    %eax,(%esp)
    4982:	e8 e9 16 01 00       	call   16070 <async_exchange_begin>
    4987:	89 c3                	mov    %eax,%ebx
    4989:	85 c0                	test   %eax,%eax
    498b:	0f 85 0d ff ff ff    	jne    489e <loc_namespace_get_id+0xae>
    4991:	e8 4a 93 01 00       	call   1dce0 <__errno>
    4996:	8b 00                	mov    (%eax),%eax
    4998:	eb 91                	jmp    492b <loc_namespace_get_id+0x13b>
    499a:	8d b6 00 00 00 00    	lea    0x0(%esi),%esi
    49a0:	8b 45 0c             	mov    0xc(%ebp),%eax
    49a3:	85 c0                	test   %eax,%eax
    49a5:	74 08                	je     49af <loc_namespace_get_id+0x1bf>
    49a7:	8b 55 0c             	mov    0xc(%ebp),%edx
    49aa:	8b 45 c8             	mov    -0x38(%ebp),%eax
    49ad:	89 02                	mov    %eax,(%edx)
    49af:	83 c4 5c             	add    $0x5c,%esp
    49b2:	31 c0                	xor    %eax,%eax
    49b4:	5b                   	pop    %ebx
    49b5:	5e                   	pop    %esi
    49b6:	5f                   	pop    %edi
    49b7:	5d                   	pop    %ebp
    49b8:	c3                   	ret    
    49b9:	8d b4 26 00 00 00 00 	lea    0x0(%esi,%eiz,1),%esi
    49c0:	c7 44 24 0c 00 00 00 	movl   $0x0,0xc(%esp)
    49c7:	00 
    49c8:	c7 44 24 08 02 00 00 	movl   $0x2,0x8(%esp)
    49cf:	00 
    49d0:	c7 44 24 04 6c 6f 63 	movl   $0x20636f6c,0x4(%esp)
    49d7:	20 
    49d8:	c7 04 24 02 00 00 00 	movl   $0x2,(%esp)
    49df:	e8 dc e9 00 00       	call   133c0 <service_connect_blocking>
    49e4:	a3 20 28 02 00       	mov    %eax,0x22820
    49e9:	e9 2e fe ff ff       	jmp    481c <loc_namespace_get_id+0x2c>
    49ee:	66 90                	xchg   %ax,%ax
    49f0:	89 34 24             	mov    %esi,(%esp)
    49f3:	e8 38 04 01 00       	call   14e30 <async_forget>
    49f8:	8b 45 c0             	mov    -0x40(%ebp),%eax
    49fb:	83 c4 5c             	add    $0x5c,%esp
    49fe:	5b                   	pop    %ebx
    49ff:	5e                   	pop    %esi
    4a00:	5f                   	pop    %edi
    4a01:	5d                   	pop    %ebp
    4a02:	c3                   	ret    
    4a03:	90                   	nop
    4a04:	8d 74 26 00          	lea    0x0(%esi,%eiz,1),%esi
    4a08:	85 db                	test   %ebx,%ebx
    4a0a:	0f 84 73 fe ff ff    	je     4883 <loc_namespace_get_id+0x93>
    4a10:	89 1d 1c 28 02 00    	mov    %ebx,0x2281c
    4a16:	e9 68 fe ff ff       	jmp    4883 <loc_namespace_get_id+0x93>
    4a1b:	c7 44 24 0c 00 00 00 	movl   $0x0,0xc(%esp)
    4a22:	00 
    4a23:	c7 44 24 08 02 00 00 	movl   $0x2,0x8(%esp)
    4a2a:	00 
    4a2b:	c7 44 24 04 6c 6f 63 	movl   $0x20636f6c,0x4(%esp)
    4a32:	20 
    4a33:	c7 04 24 02 00 00 00 	movl   $0x2,(%esp)
    4a3a:	e8 01 e9 00 00       	call   13340 <service_connect>
    4a3f:	a3 1c 28 02 00       	mov    %eax,0x2281c
    4a44:	e9 21 ff ff ff       	jmp    496a <loc_namespace_get_id+0x17a>
    4a49:	8d b4 26 00 00 00 00 	lea    0x0(%esi,%eiz,1),%esi

00004a50 <loc_category_get_id>:
    4a50:	55                   	push   %ebp
    4a51:	89 e5                	mov    %esp,%ebp
    4a53:	57                   	push   %edi
    4a54:	56                   	push   %esi
    4a55:	53                   	push   %ebx
    4a56:	83 ec 5c             	sub    $0x5c,%esp
    4a59:	8b 75 08             	mov    0x8(%ebp),%esi
    4a5c:	f6 45 10 01          	testb  $0x1,0x10(%ebp)
    4a60:	0f 84 4a 01 00 00    	je     4bb0 <loc_category_get_id+0x160>
    4a66:	c7 04 24 2c 26 02 00 	movl   $0x2262c,(%esp)
    4a6d:	e8 ae 54 00 00       	call   9f20 <fibril_mutex_lock>
    4a72:	a1 20 28 02 00       	mov    0x22820,%eax
    4a77:	85 c0                	test   %eax,%eax
    4a79:	75 38                	jne    4ab3 <loc_category_get_id+0x63>
    4a7b:	c7 04 24 3c 26 02 00 	movl   $0x2263c,(%esp)
    4a82:	8b 1d 1c 28 02 00    	mov    0x2281c,%ebx
    4a88:	e8 93 54 00 00       	call   9f20 <fibril_mutex_lock>
    4a8d:	a1 20 28 02 00       	mov    0x22820,%eax
    4a92:	85 c0                	test   %eax,%eax
    4a94:	0f 84 fe 00 00 00    	je     4b98 <loc_category_get_id+0x148>
    4a9a:	c7 04 24 3c 26 02 00 	movl   $0x2263c,(%esp)
    4aa1:	e8 9a 55 00 00       	call   a040 <fibril_mutex_unlock>
    4aa6:	a1 20 28 02 00       	mov    0x22820,%eax
    4aab:	85 c0                	test   %eax,%eax
    4aad:	0f 84 6d 01 00 00    	je     4c20 <loc_category_get_id+0x1d0>
    4ab3:	c7 04 24 2c 26 02 00 	movl   $0x2262c,(%esp)
    4aba:	e8 81 55 00 00       	call   a040 <fibril_mutex_unlock>
    4abf:	c7 04 24 3c 26 02 00 	movl   $0x2263c,(%esp)
    4ac6:	8b 1d 20 28 02 00    	mov    0x22820,%ebx
    4acc:	e8 4f 54 00 00       	call   9f20 <fibril_mutex_lock>
    4ad1:	8b 3d 1c 28 02 00    	mov    0x2281c,%edi
    4ad7:	85 ff                	test   %edi,%edi
    4ad9:	0f 84 89 01 00 00    	je     4c68 <loc_category_get_id+0x218>
    4adf:	c7 04 24 3c 26 02 00 	movl   $0x2263c,(%esp)
    4ae6:	e8 55 55 00 00       	call   a040 <fibril_mutex_unlock>
    4aeb:	a1 20 28 02 00       	mov    0x22820,%eax
    4af0:	89 04 24             	mov    %eax,(%esp)
    4af3:	e8 78 15 01 00       	call   16070 <async_exchange_begin>
    4af8:	89 c3                	mov    %eax,%ebx
    4afa:	8d 45 c4             	lea    -0x3c(%ebp),%eax
    4afd:	c7 44 24 14 00 00 00 	movl   $0x0,0x14(%esp)
    4b04:	00 
    4b05:	89 44 24 18          	mov    %eax,0x18(%esp)
    4b09:	c7 44 24 10 00 00 00 	movl   $0x0,0x10(%esp)
    4b10:	00 
    4b11:	c7 44 24 0c 00 00 00 	movl   $0x0,0xc(%esp)
    4b18:	00 
    4b19:	c7 44 24 08 00 00 00 	movl   $0x0,0x8(%esp)
    4b20:	00 
    4b21:	c7 44 24 04 0a 04 00 	movl   $0x40a,0x4(%esp)
    4b28:	00 
    4b29:	89 1c 24             	mov    %ebx,(%esp)
    4b2c:	e8 df fe 00 00       	call   14a10 <async_send_fast>
    4b31:	89 34 24             	mov    %esi,(%esp)
    4b34:	89 c7                	mov    %eax,%edi
    4b36:	e8 c5 21 00 00       	call   6d00 <str_size>
    4b3b:	89 74 24 04          	mov    %esi,0x4(%esp)
    4b3f:	89 44 24 08          	mov    %eax,0x8(%esp)
    4b43:	89 1c 24             	mov    %ebx,(%esp)
    4b46:	e8 15 24 01 00       	call   16f60 <async_data_write_start>
    4b4b:	89 1c 24             	mov    %ebx,(%esp)
    4b4e:	89 45 c0             	mov    %eax,-0x40(%ebp)
    4b51:	e8 8a 18 01 00       	call   163e0 <async_exchange_end>
    4b56:	8b 4d c0             	mov    -0x40(%ebp),%ecx
    4b59:	85 c9                	test   %ecx,%ecx
    4b5b:	0f 85 ef 00 00 00    	jne    4c50 <loc_category_get_id+0x200>
    4b61:	8d 45 c0             	lea    -0x40(%ebp),%eax
    4b64:	89 3c 24             	mov    %edi,(%esp)
    4b67:	89 44 24 04          	mov    %eax,0x4(%esp)
    4b6b:	e8 70 00 01 00       	call   14be0 <async_wait_for>
    4b70:	8b 45 c0             	mov    -0x40(%ebp),%eax
    4b73:	85 c0                	test   %eax,%eax
    4b75:	0f 84 85 00 00 00    	je     4c00 <loc_category_get_id+0x1b0>
    4b7b:	8b 55 0c             	mov    0xc(%ebp),%edx
    4b7e:	85 d2                	test   %edx,%edx
    4b80:	74 09                	je     4b8b <loc_category_get_id+0x13b>
    4b82:	8b 55 0c             	mov    0xc(%ebp),%edx
    4b85:	c7 02 ff ff ff ff    	movl   $0xffffffff,(%edx)
    4b8b:	83 c4 5c             	add    $0x5c,%esp
    4b8e:	5b                   	pop    %ebx
    4b8f:	5e                   	pop    %esi
    4b90:	5f                   	pop    %edi
    4b91:	5d                   	pop    %ebp
    4b92:	c3                   	ret    
    4b93:	90                   	nop
    4b94:	8d 74 26 00          	lea    0x0(%esi,%eiz,1),%esi
    4b98:	85 db                	test   %ebx,%ebx
    4b9a:	0f 84 fa fe ff ff    	je     4a9a <loc_category_get_id+0x4a>
    4ba0:	89 1d 20 28 02 00    	mov    %ebx,0x22820
    4ba6:	e9 ef fe ff ff       	jmp    4a9a <loc_category_get_id+0x4a>
    4bab:	90                   	nop
    4bac:	8d 74 26 00          	lea    0x0(%esi,%eiz,1),%esi
    4bb0:	c7 04 24 3c 26 02 00 	movl   $0x2263c,(%esp)
    4bb7:	e8 64 53 00 00       	call   9f20 <fibril_mutex_lock>
    4bbc:	8b 1d 1c 28 02 00    	mov    0x2281c,%ebx
    4bc2:	85 db                	test   %ebx,%ebx
    4bc4:	0f 84 b1 00 00 00    	je     4c7b <loc_category_get_id+0x22b>
    4bca:	c7 04 24 3c 26 02 00 	movl   $0x2263c,(%esp)
    4bd1:	e8 6a 54 00 00       	call   a040 <fibril_mutex_unlock>
    4bd6:	a1 1c 28 02 00       	mov    0x2281c,%eax
    4bdb:	85 c0                	test   %eax,%eax
    4bdd:	74 12                	je     4bf1 <loc_category_get_id+0x1a1>
    4bdf:	89 04 24             	mov    %eax,(%esp)
    4be2:	e8 89 14 01 00       	call   16070 <async_exchange_begin>
    4be7:	89 c3                	mov    %eax,%ebx
    4be9:	85 c0                	test   %eax,%eax
    4beb:	0f 85 09 ff ff ff    	jne    4afa <loc_category_get_id+0xaa>
    4bf1:	e8 ea 90 01 00       	call   1dce0 <__errno>
    4bf6:	8b 00                	mov    (%eax),%eax
    4bf8:	eb 91                	jmp    4b8b <loc_category_get_id+0x13b>
    4bfa:	8d b6 00 00 00 00    	lea    0x0(%esi),%esi
    4c00:	8b 45 0c             	mov    0xc(%ebp),%eax
    4c03:	85 c0                	test   %eax,%eax
    4c05:	74 08                	je     4c0f <loc_category_get_id+0x1bf>
    4c07:	8b 55 0c             	mov    0xc(%ebp),%edx
    4c0a:	8b 45 c8             	mov    -0x38(%ebp),%eax
    4c0d:	89 02                	mov    %eax,(%edx)
    4c0f:	83 c4 5c             	add    $0x5c,%esp
    4c12:	31 c0                	xor    %eax,%eax
    4c14:	5b                   	pop    %ebx
    4c15:	5e                   	pop    %esi
    4c16:	5f                   	pop    %edi
    4c17:	5d                   	pop    %ebp
    4c18:	c3                   	ret    
    4c19:	8d b4 26 00 00 00 00 	lea    0x0(%esi,%eiz,1),%esi
    4c20:	c7 44 24 0c 00 00 00 	movl   $0x0,0xc(%esp)
    4c27:	00 
    4c28:	c7 44 24 08 02 00 00 	movl   $0x2,0x8(%esp)
    4c2f:	00 
    4c30:	c7 44 24 04 6c 6f 63 	movl   $0x20636f6c,0x4(%esp)
    4c37:	20 
    4c38:	c7 04 24 02 00 00 00 	movl   $0x2,(%esp)
    4c3f:	e8 7c e7 00 00       	call   133c0 <service_connect_blocking>
    4c44:	a3 20 28 02 00       	mov    %eax,0x22820
    4c49:	e9 29 fe ff ff       	jmp    4a77 <loc_category_get_id+0x27>
    4c4e:	66 90                	xchg   %ax,%ax
    4c50:	89 3c 24             	mov    %edi,(%esp)
    4c53:	e8 d8 01 01 00       	call   14e30 <async_forget>
    4c58:	8b 45 c0             	mov    -0x40(%ebp),%eax
    4c5b:	83 c4 5c             	add    $0x5c,%esp
    4c5e:	5b                   	pop    %ebx
    4c5f:	5e                   	pop    %esi
    4c60:	5f                   	pop    %edi
    4c61:	5d                   	pop    %ebp
    4c62:	c3                   	ret    
    4c63:	90                   	nop
    4c64:	8d 74 26 00          	lea    0x0(%esi,%eiz,1),%esi
    4c68:	85 db                	test   %ebx,%ebx
    4c6a:	0f 84 6f fe ff ff    	je     4adf <loc_category_get_id+0x8f>
    4c70:	89 1d 1c 28 02 00    	mov    %ebx,0x2281c
    4c76:	e9 64 fe ff ff       	jmp    4adf <loc_category_get_id+0x8f>
    4c7b:	c7 44 24 0c 00 00 00 	movl   $0x0,0xc(%esp)
    4c82:	00 
    4c83:	c7 44 24 08 02 00 00 	movl   $0x2,0x8(%esp)
    4c8a:	00 
    4c8b:	c7 44 24 04 6c 6f 63 	movl   $0x20636f6c,0x4(%esp)
    4c92:	20 
    4c93:	c7 04 24 02 00 00 00 	movl   $0x2,(%esp)
    4c9a:	e8 a1 e6 00 00       	call   13340 <service_connect>
    4c9f:	a3 1c 28 02 00       	mov    %eax,0x2281c
    4ca4:	e9 21 ff ff ff       	jmp    4bca <loc_category_get_id+0x17a>
    4ca9:	8d b4 26 00 00 00 00 	lea    0x0(%esi,%eiz,1),%esi

00004cb0 <loc_id_probe>:
    4cb0:	55                   	push   %ebp
    4cb1:	89 e5                	mov    %esp,%ebp
    4cb3:	56                   	push   %esi
    4cb4:	53                   	push   %ebx
    4cb5:	83 ec 40             	sub    $0x40,%esp
    4cb8:	c7 04 24 2c 26 02 00 	movl   $0x2262c,(%esp)
    4cbf:	e8 5c 52 00 00       	call   9f20 <fibril_mutex_lock>
    4cc4:	a1 20 28 02 00       	mov    0x22820,%eax
    4cc9:	85 c0                	test   %eax,%eax
    4ccb:	75 38                	jne    4d05 <loc_id_probe+0x55>
    4ccd:	c7 04 24 3c 26 02 00 	movl   $0x2263c,(%esp)
    4cd4:	8b 1d 1c 28 02 00    	mov    0x2281c,%ebx
    4cda:	e8 41 52 00 00       	call   9f20 <fibril_mutex_lock>
    4cdf:	a1 20 28 02 00       	mov    0x22820,%eax
    4ce4:	85 c0                	test   %eax,%eax
    4ce6:	0f 84 d4 00 00 00    	je     4dc0 <loc_id_probe+0x110>
    4cec:	c7 04 24 3c 26 02 00 	movl   $0x2263c,(%esp)
    4cf3:	e8 48 53 00 00       	call   a040 <fibril_mutex_unlock>
    4cf8:	a1 20 28 02 00       	mov    0x22820,%eax
    4cfd:	85 c0                	test   %eax,%eax
    4cff:	0f 84 d3 00 00 00    	je     4dd8 <loc_id_probe+0x128>
    4d05:	c7 04 24 2c 26 02 00 	movl   $0x2262c,(%esp)
    4d0c:	e8 2f 53 00 00       	call   a040 <fibril_mutex_unlock>
    4d11:	c7 04 24 3c 26 02 00 	movl   $0x2263c,(%esp)
    4d18:	8b 1d 20 28 02 00    	mov    0x22820,%ebx
    4d1e:	e8 fd 51 00 00       	call   9f20 <fibril_mutex_lock>
    4d23:	a1 1c 28 02 00       	mov    0x2281c,%eax
    4d28:	85 c0                	test   %eax,%eax
    4d2a:	0f 84 d8 00 00 00    	je     4e08 <loc_id_probe+0x158>
    4d30:	c7 04 24 3c 26 02 00 	movl   $0x2263c,(%esp)
    4d37:	e8 04 53 00 00       	call   a040 <fibril_mutex_unlock>
    4d3c:	a1 20 28 02 00       	mov    0x22820,%eax
    4d41:	89 04 24             	mov    %eax,(%esp)
    4d44:	e8 27 13 01 00       	call   16070 <async_exchange_begin>
    4d49:	c7 44 24 28 00 00 00 	movl   $0x0,0x28(%esp)
    4d50:	00 
    4d51:	89 c3                	mov    %eax,%ebx
    4d53:	8d 45 f4             	lea    -0xc(%ebp),%eax
    4d56:	89 44 24 18          	mov    %eax,0x18(%esp)
    4d5a:	8b 45 08             	mov    0x8(%ebp),%eax
    4d5d:	c7 44 24 24 00 00 00 	movl   $0x0,0x24(%esp)
    4d64:	00 
    4d65:	c7 44 24 20 00 00 00 	movl   $0x0,0x20(%esp)
    4d6c:	00 
    4d6d:	c7 44 24 1c 00 00 00 	movl   $0x0,0x1c(%esp)
    4d74:	00 
    4d75:	c7 44 24 14 00 00 00 	movl   $0x0,0x14(%esp)
    4d7c:	00 
    4d7d:	c7 44 24 10 00 00 00 	movl   $0x0,0x10(%esp)
    4d84:	00 
    4d85:	c7 44 24 0c 00 00 00 	movl   $0x0,0xc(%esp)
    4d8c:	00 
    4d8d:	89 44 24 08          	mov    %eax,0x8(%esp)
    4d91:	c7 44 24 04 0d 04 00 	movl   $0x40d,0x4(%esp)
    4d98:	00 
    4d99:	89 1c 24             	mov    %ebx,(%esp)
    4d9c:	e8 7f 02 01 00       	call   15020 <async_req_fast>
    4da1:	89 1c 24             	mov    %ebx,(%esp)
    4da4:	89 c6                	mov    %eax,%esi
    4da6:	e8 35 16 01 00       	call   163e0 <async_exchange_end>
    4dab:	31 c0                	xor    %eax,%eax
    4dad:	85 f6                	test   %esi,%esi
    4daf:	75 03                	jne    4db4 <loc_id_probe+0x104>
    4db1:	8b 45 f4             	mov    -0xc(%ebp),%eax
    4db4:	83 c4 40             	add    $0x40,%esp
    4db7:	5b                   	pop    %ebx
    4db8:	5e                   	pop    %esi
    4db9:	5d                   	pop    %ebp
    4dba:	c3                   	ret    
    4dbb:	90                   	nop
    4dbc:	8d 74 26 00          	lea    0x0(%esi,%eiz,1),%esi
    4dc0:	85 db                	test   %ebx,%ebx
    4dc2:	0f 84 24 ff ff ff    	je     4cec <loc_id_probe+0x3c>
    4dc8:	89 1d 20 28 02 00    	mov    %ebx,0x22820
    4dce:	e9 19 ff ff ff       	jmp    4cec <loc_id_probe+0x3c>
    4dd3:	90                   	nop
    4dd4:	8d 74 26 00          	lea    0x0(%esi,%eiz,1),%esi
    4dd8:	c7 44 24 0c 00 00 00 	movl   $0x0,0xc(%esp)
    4ddf:	00 
    4de0:	c7 44 24 08 02 00 00 	movl   $0x2,0x8(%esp)
    4de7:	00 
    4de8:	c7 44 24 04 6c 6f 63 	movl   $0x20636f6c,0x4(%esp)
    4def:	20 
    4df0:	c7 04 24 02 00 00 00 	movl   $0x2,(%esp)
    4df7:	e8 c4 e5 00 00       	call   133c0 <service_connect_blocking>
    4dfc:	a3 20 28 02 00       	mov    %eax,0x22820
    4e01:	e9 c3 fe ff ff       	jmp    4cc9 <loc_id_probe+0x19>
    4e06:	66 90                	xchg   %ax,%ax
    4e08:	85 db                	test   %ebx,%ebx
    4e0a:	0f 84 20 ff ff ff    	je     4d30 <loc_id_probe+0x80>
    4e10:	89 1d 1c 28 02 00    	mov    %ebx,0x2281c
    4e16:	e9 15 ff ff ff       	jmp    4d30 <loc_id_probe+0x80>
    4e1b:	90                   	nop
    4e1c:	8d 74 26 00          	lea    0x0(%esi,%eiz,1),%esi

00004e20 <loc_service_connect>:
    4e20:	55                   	push   %ebp
    4e21:	89 e5                	mov    %esp,%ebp
    4e23:	83 ec 18             	sub    $0x18,%esp
    4e26:	8b 45 08             	mov    0x8(%ebp),%eax
    4e29:	8b 55 0c             	mov    0xc(%ebp),%edx
    4e2c:	f6 45 10 01          	testb  $0x1,0x10(%ebp)
    4e30:	89 54 24 0c          	mov    %edx,0xc(%esp)
    4e34:	c7 44 24 08 03 00 00 	movl   $0x3,0x8(%esp)
    4e3b:	00 
    4e3c:	c7 44 24 04 6c 6f 63 	movl   $0x20636f6c,0x4(%esp)
    4e43:	20 
    4e44:	89 04 24             	mov    %eax,(%esp)
    4e47:	75 07                	jne    4e50 <loc_service_connect+0x30>
    4e49:	e8 f2 e4 00 00       	call   13340 <service_connect>
    4e4e:	c9                   	leave  
    4e4f:	c3                   	ret    
    4e50:	e8 6b e5 00 00       	call   133c0 <service_connect_blocking>
    4e55:	c9                   	leave  
    4e56:	c3                   	ret    
    4e57:	89 f6                	mov    %esi,%esi
    4e59:	8d bc 27 00 00 00 00 	lea    0x0(%edi,%eiz,1),%edi

00004e60 <loc_null_create>:
    4e60:	55                   	push   %ebp
    4e61:	89 e5                	mov    %esp,%ebp
    4e63:	56                   	push   %esi
    4e64:	53                   	push   %ebx
    4e65:	83 ec 40             	sub    $0x40,%esp
    4e68:	c7 04 24 2c 26 02 00 	movl   $0x2262c,(%esp)
    4e6f:	e8 ac 50 00 00       	call   9f20 <fibril_mutex_lock>
    4e74:	a1 20 28 02 00       	mov    0x22820,%eax
    4e79:	85 c0                	test   %eax,%eax
    4e7b:	75 3a                	jne    4eb7 <loc_null_create+0x57>
    4e7d:	c7 04 24 3c 26 02 00 	movl   $0x2263c,(%esp)
    4e84:	8b 1d 1c 28 02 00    	mov    0x2281c,%ebx
    4e8a:	e8 91 50 00 00       	call   9f20 <fibril_mutex_lock>
    4e8f:	8b 0d 20 28 02 00    	mov    0x22820,%ecx
    4e95:	85 c9                	test   %ecx,%ecx
    4e97:	0f 84 d3 00 00 00    	je     4f70 <loc_null_create+0x110>
    4e9d:	c7 04 24 3c 26 02 00 	movl   $0x2263c,(%esp)
    4ea4:	e8 97 51 00 00       	call   a040 <fibril_mutex_unlock>
    4ea9:	8b 15 20 28 02 00    	mov    0x22820,%edx
    4eaf:	85 d2                	test   %edx,%edx
    4eb1:	0f 84 d1 00 00 00    	je     4f88 <loc_null_create+0x128>
    4eb7:	c7 04 24 2c 26 02 00 	movl   $0x2262c,(%esp)
    4ebe:	e8 7d 51 00 00       	call   a040 <fibril_mutex_unlock>
    4ec3:	c7 04 24 3c 26 02 00 	movl   $0x2263c,(%esp)
    4eca:	8b 1d 20 28 02 00    	mov    0x22820,%ebx
    4ed0:	e8 4b 50 00 00       	call   9f20 <fibril_mutex_lock>
    4ed5:	a1 1c 28 02 00       	mov    0x2281c,%eax
    4eda:	85 c0                	test   %eax,%eax
    4edc:	0f 84 d6 00 00 00    	je     4fb8 <loc_null_create+0x158>
    4ee2:	c7 04 24 3c 26 02 00 	movl   $0x2263c,(%esp)
    4ee9:	e8 52 51 00 00       	call   a040 <fibril_mutex_unlock>
    4eee:	a1 20 28 02 00       	mov    0x22820,%eax
    4ef3:	89 04 24             	mov    %eax,(%esp)
    4ef6:	e8 75 11 01 00       	call   16070 <async_exchange_begin>
    4efb:	c7 44 24 28 00 00 00 	movl   $0x0,0x28(%esp)
    4f02:	00 
    4f03:	89 c3                	mov    %eax,%ebx
    4f05:	8d 45 f4             	lea    -0xc(%ebp),%eax
    4f08:	c7 44 24 24 00 00 00 	movl   $0x0,0x24(%esp)
    4f0f:	00 
    4f10:	c7 44 24 20 00 00 00 	movl   $0x0,0x20(%esp)
    4f17:	00 
    4f18:	c7 44 24 1c 00 00 00 	movl   $0x0,0x1c(%esp)
    4f1f:	00 
    4f20:	89 44 24 18          	mov    %eax,0x18(%esp)
    4f24:	c7 44 24 14 00 00 00 	movl   $0x0,0x14(%esp)
    4f2b:	00 
    4f2c:	c7 44 24 10 00 00 00 	movl   $0x0,0x10(%esp)
    4f33:	00 
    4f34:	c7 44 24 0c 00 00 00 	movl   $0x0,0xc(%esp)
    4f3b:	00 
    4f3c:	c7 44 24 08 00 00 00 	movl   $0x0,0x8(%esp)
    4f43:	00 
    4f44:	c7 44 24 04 0e 04 00 	movl   $0x40e,0x4(%esp)
    4f4b:	00 
    4f4c:	89 1c 24             	mov    %ebx,(%esp)
    4f4f:	e8 cc 00 01 00       	call   15020 <async_req_fast>
    4f54:	89 1c 24             	mov    %ebx,(%esp)
    4f57:	89 c6                	mov    %eax,%esi
    4f59:	e8 82 14 01 00       	call   163e0 <async_exchange_end>
    4f5e:	85 f6                	test   %esi,%esi
    4f60:	75 69                	jne    4fcb <loc_null_create+0x16b>
    4f62:	8b 45 f4             	mov    -0xc(%ebp),%eax
    4f65:	83 c4 40             	add    $0x40,%esp
    4f68:	5b                   	pop    %ebx
    4f69:	5e                   	pop    %esi
    4f6a:	5d                   	pop    %ebp
    4f6b:	c3                   	ret    
    4f6c:	8d 74 26 00          	lea    0x0(%esi,%eiz,1),%esi
    4f70:	85 db                	test   %ebx,%ebx
    4f72:	0f 84 25 ff ff ff    	je     4e9d <loc_null_create+0x3d>
    4f78:	89 1d 20 28 02 00    	mov    %ebx,0x22820
    4f7e:	e9 1a ff ff ff       	jmp    4e9d <loc_null_create+0x3d>
    4f83:	90                   	nop
    4f84:	8d 74 26 00          	lea    0x0(%esi,%eiz,1),%esi
    4f88:	c7 44 24 0c 00 00 00 	movl   $0x0,0xc(%esp)
    4f8f:	00 
    4f90:	c7 44 24 08 02 00 00 	movl   $0x2,0x8(%esp)
    4f97:	00 
    4f98:	c7 44 24 04 6c 6f 63 	movl   $0x20636f6c,0x4(%esp)
    4f9f:	20 
    4fa0:	c7 04 24 02 00 00 00 	movl   $0x2,(%esp)
    4fa7:	e8 14 e4 00 00       	call   133c0 <service_connect_blocking>
    4fac:	a3 20 28 02 00       	mov    %eax,0x22820
    4fb1:	e9 c3 fe ff ff       	jmp    4e79 <loc_null_create+0x19>
    4fb6:	66 90                	xchg   %ax,%ax
    4fb8:	85 db                	test   %ebx,%ebx
    4fba:	0f 84 22 ff ff ff    	je     4ee2 <loc_null_create+0x82>
    4fc0:	89 1d 1c 28 02 00    	mov    %ebx,0x2281c
    4fc6:	e9 17 ff ff ff       	jmp    4ee2 <loc_null_create+0x82>
    4fcb:	83 c8 ff             	or     $0xffffffff,%eax
    4fce:	eb 95                	jmp    4f65 <loc_null_create+0x105>

00004fd0 <loc_null_destroy>:
    4fd0:	55                   	push   %ebp
    4fd1:	89 e5                	mov    %esp,%ebp
    4fd3:	56                   	push   %esi
    4fd4:	53                   	push   %ebx
    4fd5:	83 ec 30             	sub    $0x30,%esp
    4fd8:	8b 75 08             	mov    0x8(%ebp),%esi
    4fdb:	c7 04 24 2c 26 02 00 	movl   $0x2262c,(%esp)
    4fe2:	e8 39 4f 00 00       	call   9f20 <fibril_mutex_lock>
    4fe7:	a1 20 28 02 00       	mov    0x22820,%eax
    4fec:	85 c0                	test   %eax,%eax
    4fee:	75 38                	jne    5028 <loc_null_destroy+0x58>
    4ff0:	c7 04 24 3c 26 02 00 	movl   $0x2263c,(%esp)
    4ff7:	8b 1d 1c 28 02 00    	mov    0x2281c,%ebx
    4ffd:	e8 1e 4f 00 00       	call   9f20 <fibril_mutex_lock>
    5002:	a1 20 28 02 00       	mov    0x22820,%eax
    5007:	85 c0                	test   %eax,%eax
    5009:	0f 84 c1 00 00 00    	je     50d0 <loc_null_destroy+0x100>
    500f:	c7 04 24 3c 26 02 00 	movl   $0x2263c,(%esp)
    5016:	e8 25 50 00 00       	call   a040 <fibril_mutex_unlock>
    501b:	a1 20 28 02 00       	mov    0x22820,%eax
    5020:	85 c0                	test   %eax,%eax
    5022:	0f 84 c0 00 00 00    	je     50e8 <loc_null_destroy+0x118>
    5028:	c7 04 24 2c 26 02 00 	movl   $0x2262c,(%esp)
    502f:	e8 0c 50 00 00       	call   a040 <fibril_mutex_unlock>
    5034:	c7 04 24 3c 26 02 00 	movl   $0x2263c,(%esp)
    503b:	8b 1d 20 28 02 00    	mov    0x22820,%ebx
    5041:	e8 da 4e 00 00       	call   9f20 <fibril_mutex_lock>
    5046:	a1 1c 28 02 00       	mov    0x2281c,%eax
    504b:	85 c0                	test   %eax,%eax
    504d:	0f 84 c5 00 00 00    	je     5118 <loc_null_destroy+0x148>
    5053:	c7 04 24 3c 26 02 00 	movl   $0x2263c,(%esp)
    505a:	e8 e1 4f 00 00       	call   a040 <fibril_mutex_unlock>
    505f:	a1 20 28 02 00       	mov    0x22820,%eax
    5064:	89 04 24             	mov    %eax,(%esp)
    5067:	e8 04 10 01 00       	call   16070 <async_exchange_begin>
    506c:	89 74 24 08          	mov    %esi,0x8(%esp)
    5070:	c7 44 24 28 00 00 00 	movl   $0x0,0x28(%esp)
    5077:	00 
    5078:	c7 44 24 24 00 00 00 	movl   $0x0,0x24(%esp)
    507f:	00 
    5080:	c7 44 24 20 00 00 00 	movl   $0x0,0x20(%esp)
    5087:	00 
    5088:	c7 44 24 1c 00 00 00 	movl   $0x0,0x1c(%esp)
    508f:	00 
    5090:	c7 44 24 18 00 00 00 	movl   $0x0,0x18(%esp)
    5097:	00 
    5098:	c7 44 24 14 00 00 00 	movl   $0x0,0x14(%esp)
    509f:	00 
    50a0:	c7 44 24 10 00 00 00 	movl   $0x0,0x10(%esp)
    50a7:	00 
    50a8:	c7 44 24 0c 00 00 00 	movl   $0x0,0xc(%esp)
    50af:	00 
    50b0:	c7 44 24 04 0f 04 00 	movl   $0x40f,0x4(%esp)
    50b7:	00 
    50b8:	89 04 24             	mov    %eax,(%esp)
    50bb:	89 c3                	mov    %eax,%ebx
    50bd:	e8 5e ff 00 00       	call   15020 <async_req_fast>
    50c2:	89 5d 08             	mov    %ebx,0x8(%ebp)
    50c5:	83 c4 30             	add    $0x30,%esp
    50c8:	5b                   	pop    %ebx
    50c9:	5e                   	pop    %esi
    50ca:	5d                   	pop    %ebp
    50cb:	e9 10 13 01 00       	jmp    163e0 <async_exchange_end>
    50d0:	85 db                	test   %ebx,%ebx
    50d2:	0f 84 37 ff ff ff    	je     500f <loc_null_destroy+0x3f>
    50d8:	89 1d 20 28 02 00    	mov    %ebx,0x22820
    50de:	e9 2c ff ff ff       	jmp    500f <loc_null_destroy+0x3f>
    50e3:	90                   	nop
    50e4:	8d 74 26 00          	lea    0x0(%esi,%eiz,1),%esi
    50e8:	c7 44 24 0c 00 00 00 	movl   $0x0,0xc(%esp)
    50ef:	00 
    50f0:	c7 44 24 08 02 00 00 	movl   $0x2,0x8(%esp)
    50f7:	00 
    50f8:	c7 44 24 04 6c 6f 63 	movl   $0x20636f6c,0x4(%esp)
    50ff:	20 
    5100:	c7 04 24 02 00 00 00 	movl   $0x2,(%esp)
    5107:	e8 b4 e2 00 00       	call   133c0 <service_connect_blocking>
    510c:	a3 20 28 02 00       	mov    %eax,0x22820
    5111:	e9 d6 fe ff ff       	jmp    4fec <loc_null_destroy+0x1c>
    5116:	66 90                	xchg   %ax,%ax
    5118:	85 db                	test   %ebx,%ebx
    511a:	0f 84 33 ff ff ff    	je     5053 <loc_null_destroy+0x83>
    5120:	89 1d 1c 28 02 00    	mov    %ebx,0x2281c
    5126:	e9 28 ff ff ff       	jmp    5053 <loc_null_destroy+0x83>
    512b:	90                   	nop
    512c:	8d 74 26 00          	lea    0x0(%esi,%eiz,1),%esi

00005130 <loc_service_add_to_cat>:
    5130:	55                   	push   %ebp
    5131:	89 e5                	mov    %esp,%ebp
    5133:	53                   	push   %ebx
    5134:	83 ec 44             	sub    $0x44,%esp
    5137:	c7 04 24 0c 26 02 00 	movl   $0x2260c,(%esp)
    513e:	e8 dd 4d 00 00       	call   9f20 <fibril_mutex_lock>
    5143:	a1 18 28 02 00       	mov    0x22818,%eax
    5148:	85 c0                	test   %eax,%eax
    514a:	75 38                	jne    5184 <loc_service_add_to_cat+0x54>
    514c:	c7 04 24 1c 26 02 00 	movl   $0x2261c,(%esp)
    5153:	8b 1d 14 28 02 00    	mov    0x22814,%ebx
    5159:	e8 c2 4d 00 00       	call   9f20 <fibril_mutex_lock>
    515e:	a1 18 28 02 00       	mov    0x22818,%eax
    5163:	85 c0                	test   %eax,%eax
    5165:	0f 84 cd 00 00 00    	je     5238 <loc_service_add_to_cat+0x108>
    516b:	c7 04 24 1c 26 02 00 	movl   $0x2261c,(%esp)
    5172:	e8 c9 4e 00 00       	call   a040 <fibril_mutex_unlock>
    5177:	a1 18 28 02 00       	mov    0x22818,%eax
    517c:	85 c0                	test   %eax,%eax
    517e:	0f 84 cc 00 00 00    	je     5250 <loc_service_add_to_cat+0x120>
    5184:	c7 04 24 0c 26 02 00 	movl   $0x2260c,(%esp)
    518b:	e8 b0 4e 00 00       	call   a040 <fibril_mutex_unlock>
    5190:	c7 04 24 1c 26 02 00 	movl   $0x2261c,(%esp)
    5197:	8b 1d 18 28 02 00    	mov    0x22818,%ebx
    519d:	e8 7e 4d 00 00       	call   9f20 <fibril_mutex_lock>
    51a2:	a1 14 28 02 00       	mov    0x22814,%eax
    51a7:	85 c0                	test   %eax,%eax
    51a9:	0f 84 d1 00 00 00    	je     5280 <loc_service_add_to_cat+0x150>
    51af:	c7 04 24 1c 26 02 00 	movl   $0x2261c,(%esp)
    51b6:	e8 85 4e 00 00       	call   a040 <fibril_mutex_unlock>
    51bb:	a1 18 28 02 00       	mov    0x22818,%eax
    51c0:	89 04 24             	mov    %eax,(%esp)
    51c3:	e8 a8 0e 01 00       	call   16070 <async_exchange_begin>
    51c8:	c7 44 24 28 00 00 00 	movl   $0x0,0x28(%esp)
    51cf:	00 
    51d0:	89 c3                	mov    %eax,%ebx
    51d2:	8b 45 0c             	mov    0xc(%ebp),%eax
    51d5:	89 44 24 0c          	mov    %eax,0xc(%esp)
    51d9:	8b 45 08             	mov    0x8(%ebp),%eax
    51dc:	89 1c 24             	mov    %ebx,(%esp)
    51df:	c7 44 24 24 00 00 00 	movl   $0x0,0x24(%esp)
    51e6:	00 
    51e7:	c7 44 24 20 00 00 00 	movl   $0x0,0x20(%esp)
    51ee:	00 
    51ef:	c7 44 24 1c 00 00 00 	movl   $0x0,0x1c(%esp)
    51f6:	00 
    51f7:	c7 44 24 18 00 00 00 	movl   $0x0,0x18(%esp)
    51fe:	00 
    51ff:	c7 44 24 14 00 00 00 	movl   $0x0,0x14(%esp)
    5206:	00 
    5207:	c7 44 24 10 00 00 00 	movl   $0x0,0x10(%esp)
    520e:	00 
    520f:	89 44 24 08          	mov    %eax,0x8(%esp)
    5213:	c7 44 24 04 02 04 00 	movl   $0x402,0x4(%esp)
    521a:	00 
    521b:	e8 00 fe 00 00       	call   15020 <async_req_fast>
    5220:	89 1c 24             	mov    %ebx,(%esp)
    5223:	89 45 f4             	mov    %eax,-0xc(%ebp)
    5226:	e8 b5 11 01 00       	call   163e0 <async_exchange_end>
    522b:	8b 45 f4             	mov    -0xc(%ebp),%eax
    522e:	83 c4 44             	add    $0x44,%esp
    5231:	5b                   	pop    %ebx
    5232:	5d                   	pop    %ebp
    5233:	c3                   	ret    
    5234:	8d 74 26 00          	lea    0x0(%esi,%eiz,1),%esi
    5238:	85 db                	test   %ebx,%ebx
    523a:	0f 84 2b ff ff ff    	je     516b <loc_service_add_to_cat+0x3b>
    5240:	89 1d 18 28 02 00    	mov    %ebx,0x22818
    5246:	e9 20 ff ff ff       	jmp    516b <loc_service_add_to_cat+0x3b>
    524b:	90                   	nop
    524c:	8d 74 26 00          	lea    0x0(%esi,%eiz,1),%esi
    5250:	c7 44 24 0c 00 00 00 	movl   $0x0,0xc(%esp)
    5257:	00 
    5258:	c7 44 24 08 01 00 00 	movl   $0x1,0x8(%esp)
    525f:	00 
    5260:	c7 44 24 04 6c 6f 63 	movl   $0x20636f6c,0x4(%esp)
    5267:	20 
    5268:	c7 04 24 02 00 00 00 	movl   $0x2,(%esp)
    526f:	e8 4c e1 00 00       	call   133c0 <service_connect_blocking>
    5274:	a3 18 28 02 00       	mov    %eax,0x22818
    5279:	e9 ca fe ff ff       	jmp    5148 <loc_service_add_to_cat+0x18>
    527e:	66 90                	xchg   %ax,%ax
    5280:	85 db                	test   %ebx,%ebx
    5282:	0f 84 27 ff ff ff    	je     51af <loc_service_add_to_cat+0x7f>
    5288:	89 1d 14 28 02 00    	mov    %ebx,0x22814
    528e:	e9 1c ff ff ff       	jmp    51af <loc_service_add_to_cat+0x7f>
    5293:	8d b6 00 00 00 00    	lea    0x0(%esi),%esi
    5299:	8d bc 27 00 00 00 00 	lea    0x0(%edi,%eiz,1),%edi

000052a0 <loc_count_namespaces>:
    52a0:	55                   	push   %ebp
    52a1:	89 e5                	mov    %esp,%ebp
    52a3:	56                   	push   %esi
    52a4:	53                   	push   %ebx
    52a5:	83 ec 40             	sub    $0x40,%esp
    52a8:	c7 04 24 2c 26 02 00 	movl   $0x2262c,(%esp)
    52af:	e8 6c 4c 00 00       	call   9f20 <fibril_mutex_lock>
    52b4:	a1 20 28 02 00       	mov    0x22820,%eax
    52b9:	85 c0                	test   %eax,%eax
    52bb:	75 3a                	jne    52f7 <loc_count_namespaces+0x57>
    52bd:	c7 04 24 3c 26 02 00 	movl   $0x2263c,(%esp)
    52c4:	8b 1d 1c 28 02 00    	mov    0x2281c,%ebx
    52ca:	e8 51 4c 00 00       	call   9f20 <fibril_mutex_lock>
    52cf:	8b 35 20 28 02 00    	mov    0x22820,%esi
    52d5:	85 f6                	test   %esi,%esi
    52d7:	0f 84 d3 00 00 00    	je     53b0 <loc_count_namespaces+0x110>
    52dd:	c7 04 24 3c 26 02 00 	movl   $0x2263c,(%esp)
    52e4:	e8 57 4d 00 00       	call   a040 <fibril_mutex_unlock>
    52e9:	8b 0d 20 28 02 00    	mov    0x22820,%ecx
    52ef:	85 c9                	test   %ecx,%ecx
    52f1:	0f 84 d1 00 00 00    	je     53c8 <loc_count_namespaces+0x128>
    52f7:	c7 04 24 2c 26 02 00 	movl   $0x2262c,(%esp)
    52fe:	e8 3d 4d 00 00       	call   a040 <fibril_mutex_unlock>
    5303:	c7 04 24 3c 26 02 00 	movl   $0x2263c,(%esp)
    530a:	8b 1d 20 28 02 00    	mov    0x22820,%ebx
    5310:	e8 0b 4c 00 00       	call   9f20 <fibril_mutex_lock>
    5315:	8b 15 1c 28 02 00    	mov    0x2281c,%edx
    531b:	85 d2                	test   %edx,%edx
    531d:	0f 84 d5 00 00 00    	je     53f8 <loc_count_namespaces+0x158>
    5323:	c7 04 24 3c 26 02 00 	movl   $0x2263c,(%esp)
    532a:	31 f6                	xor    %esi,%esi
    532c:	e8 0f 4d 00 00       	call   a040 <fibril_mutex_unlock>
    5331:	a1 20 28 02 00       	mov    0x22820,%eax
    5336:	89 04 24             	mov    %eax,(%esp)
    5339:	e8 32 0d 01 00       	call   16070 <async_exchange_begin>
    533e:	c7 44 24 28 00 00 00 	movl   $0x0,0x28(%esp)
    5345:	00 
    5346:	89 c3                	mov    %eax,%ebx
    5348:	8d 45 f4             	lea    -0xc(%ebp),%eax
    534b:	c7 44 24 24 00 00 00 	movl   $0x0,0x24(%esp)
    5352:	00 
    5353:	c7 44 24 20 00 00 00 	movl   $0x0,0x20(%esp)
    535a:	00 
    535b:	c7 44 24 1c 00 00 00 	movl   $0x0,0x1c(%esp)
    5362:	00 
    5363:	89 44 24 18          	mov    %eax,0x18(%esp)
    5367:	c7 44 24 14 00 00 00 	movl   $0x0,0x14(%esp)
    536e:	00 
    536f:	c7 44 24 10 00 00 00 	movl   $0x0,0x10(%esp)
    5376:	00 
    5377:	c7 44 24 0c 00 00 00 	movl   $0x0,0xc(%esp)
    537e:	00 
    537f:	c7 44 24 08 00 00 00 	movl   $0x0,0x8(%esp)
    5386:	00 
    5387:	c7 44 24 04 10 04 00 	movl   $0x410,0x4(%esp)
    538e:	00 
    538f:	89 1c 24             	mov    %ebx,(%esp)
    5392:	e8 89 fc 00 00       	call   15020 <async_req_fast>
    5397:	85 c0                	test   %eax,%eax
    5399:	75 03                	jne    539e <loc_count_namespaces+0xfe>
    539b:	8b 75 f4             	mov    -0xc(%ebp),%esi
    539e:	89 1c 24             	mov    %ebx,(%esp)
    53a1:	e8 3a 10 01 00       	call   163e0 <async_exchange_end>
    53a6:	83 c4 40             	add    $0x40,%esp
    53a9:	89 f0                	mov    %esi,%eax
    53ab:	5b                   	pop    %ebx
    53ac:	5e                   	pop    %esi
    53ad:	5d                   	pop    %ebp
    53ae:	c3                   	ret    
    53af:	90                   	nop
    53b0:	85 db                	test   %ebx,%ebx
    53b2:	0f 84 25 ff ff ff    	je     52dd <loc_count_namespaces+0x3d>
    53b8:	89 1d 20 28 02 00    	mov    %ebx,0x22820
    53be:	e9 1a ff ff ff       	jmp    52dd <loc_count_namespaces+0x3d>
    53c3:	90                   	nop
    53c4:	8d 74 26 00          	lea    0x0(%esi,%eiz,1),%esi
    53c8:	c7 44 24 0c 00 00 00 	movl   $0x0,0xc(%esp)
    53cf:	00 
    53d0:	c7 44 24 08 02 00 00 	movl   $0x2,0x8(%esp)
    53d7:	00 
    53d8:	c7 44 24 04 6c 6f 63 	movl   $0x20636f6c,0x4(%esp)
    53df:	20 
