
logset:     file format elf32-i386


Disassembly of section .init:

00001094 <__entry>:
    1094:	66 8c d0             	mov    %ss,%ax
    1097:	8e d8                	mov    %eax,%ds
    1099:	8e c0                	mov    %eax,%es
    109b:	8e e0                	mov    %eax,%fs
    109d:	b8 01 00 00 00       	mov    $0x1,%eax
    10a2:	0f a2                	cpuid  
    10a4:	0f ba e2 0b          	bt     $0xb,%edx
    10a8:	73 0c                	jae    10b6 <__entry+0x22>
    10aa:	8d 05 74 0d 02 00    	lea    0x20d74,%eax
    10b0:	c7 00 97 44 01 00    	movl   $0x14497,(%eax)
    10b6:	6a 00                	push   $0x0
    10b8:	89 e5                	mov    %esp,%ebp
    10ba:	57                   	push   %edi
    10bb:	e8 30 02 00 00       	call   12f0 <__main>

Disassembly of section .text:

000010c0 <parse_log_level_or_die>:
    10c0:	55                   	push   %ebp
    10c1:	89 e5                	mov    %esp,%ebp
    10c3:	53                   	push   %ebx
    10c4:	83 ec 24             	sub    $0x24,%esp
    10c7:	89 c3                	mov    %eax,%ebx
    10c9:	8d 45 f4             	lea    -0xc(%ebp),%eax
    10cc:	89 44 24 04          	mov    %eax,0x4(%esp)
    10d0:	89 1c 24             	mov    %ebx,(%esp)
    10d3:	e8 d8 37 00 00       	call   48b0 <log_level_from_str>
    10d8:	85 c0                	test   %eax,%eax
    10da:	75 09                	jne    10e5 <parse_log_level_or_die+0x25>
    10dc:	8b 45 f4             	mov    -0xc(%ebp),%eax
    10df:	83 c4 24             	add    $0x24,%esp
    10e2:	5b                   	pop    %ebx
    10e3:	5d                   	pop    %ebp
    10e4:	c3                   	ret    
    10e5:	89 04 24             	mov    %eax,(%esp)
    10e8:	e8 c3 02 00 00       	call   13b0 <str_error>
    10ed:	89 5c 24 08          	mov    %ebx,0x8(%esp)
    10f1:	89 44 24 0c          	mov    %eax,0xc(%esp)
    10f5:	a1 0c 0e 02 00       	mov    0x20e0c,%eax
    10fa:	c7 44 24 04 b4 df 01 	movl   $0x1dfb4,0x4(%esp)
    1101:	00 
    1102:	89 04 24             	mov    %eax,(%esp)
    1105:	e8 36 37 00 00       	call   4840 <fprintf>
    110a:	c7 04 24 02 00 00 00 	movl   $0x2,(%esp)
    1111:	e8 0a 01 00 00       	call   1220 <exit>
    1116:	66 90                	xchg   %ax,%ax
    1118:	66 90                	xchg   %ax,%ax
    111a:	66 90                	xchg   %ax,%ax
    111c:	66 90                	xchg   %ax,%ax
    111e:	66 90                	xchg   %ax,%ax

00001120 <main>:
    1120:	55                   	push   %ebp
    1121:	89 e5                	mov    %esp,%ebp
    1123:	53                   	push   %ebx
    1124:	83 e4 f0             	and    $0xfffffff0,%esp
    1127:	83 ec 10             	sub    $0x10,%esp
    112a:	8b 5d 0c             	mov    0xc(%ebp),%ebx
    112d:	83 7d 08 02          	cmpl   $0x2,0x8(%ebp)
    1131:	0f 84 a0 00 00 00    	je     11d7 <main+0xb7>
    1137:	83 7d 08 03          	cmpl   $0x3,0x8(%ebp)
    113b:	74 53                	je     1190 <main+0x70>
    113d:	a1 0c 0e 02 00       	mov    0x20e0c,%eax
    1142:	8b 1b                	mov    (%ebx),%ebx
    1144:	c7 44 24 04 51 e0 01 	movl   $0x1e051,0x4(%esp)
    114b:	00 
    114c:	89 04 24             	mov    %eax,(%esp)
    114f:	e8 ec 36 00 00       	call   4840 <fprintf>
    1154:	a1 0c 0e 02 00       	mov    0x20e0c,%eax
    1159:	89 5c 24 08          	mov    %ebx,0x8(%esp)
    115d:	c7 44 24 04 59 e0 01 	movl   $0x1e059,0x4(%esp)
    1164:	00 
    1165:	89 04 24             	mov    %eax,(%esp)
    1168:	e8 d3 36 00 00       	call   4840 <fprintf>
    116d:	a1 0c 0e 02 00       	mov    0x20e0c,%eax
    1172:	89 5c 24 08          	mov    %ebx,0x8(%esp)
    1176:	c7 44 24 04 30 e0 01 	movl   $0x1e030,0x4(%esp)
    117d:	00 
    117e:	89 04 24             	mov    %eax,(%esp)
    1181:	e8 ba 36 00 00       	call   4840 <fprintf>
    1186:	b8 01 00 00 00       	mov    $0x1,%eax
    118b:	8b 5d fc             	mov    -0x4(%ebp),%ebx
    118e:	c9                   	leave  
    118f:	c3                   	ret    
    1190:	8b 43 08             	mov    0x8(%ebx),%eax
    1193:	e8 28 ff ff ff       	call   10c0 <parse_log_level_or_die>
    1198:	89 44 24 04          	mov    %eax,0x4(%esp)
    119c:	8b 43 04             	mov    0x4(%ebx),%eax
    119f:	89 04 24             	mov    %eax,(%esp)
    11a2:	e8 89 3c 00 00       	call   4e30 <logctl_set_log_level>
    11a7:	85 c0                	test   %eax,%eax
    11a9:	75 04                	jne    11af <main+0x8f>
    11ab:	31 c0                	xor    %eax,%eax
    11ad:	eb dc                	jmp    118b <main+0x6b>
    11af:	89 04 24             	mov    %eax,(%esp)
    11b2:	e8 f9 01 00 00       	call   13b0 <str_error>
    11b7:	c7 44 24 04 08 e0 01 	movl   $0x1e008,0x4(%esp)
    11be:	00 
    11bf:	89 44 24 08          	mov    %eax,0x8(%esp)
    11c3:	a1 0c 0e 02 00       	mov    0x20e0c,%eax
    11c8:	89 04 24             	mov    %eax,(%esp)
    11cb:	e8 70 36 00 00       	call   4840 <fprintf>
    11d0:	b8 02 00 00 00       	mov    $0x2,%eax
    11d5:	eb b4                	jmp    118b <main+0x6b>
    11d7:	8b 43 04             	mov    0x4(%ebx),%eax
    11da:	e8 e1 fe ff ff       	call   10c0 <parse_log_level_or_die>
    11df:	89 04 24             	mov    %eax,(%esp)
    11e2:	e8 79 3b 00 00       	call   4d60 <logctl_set_default_level>
    11e7:	85 c0                	test   %eax,%eax
    11e9:	74 c0                	je     11ab <main+0x8b>
    11eb:	89 04 24             	mov    %eax,(%esp)
    11ee:	e8 bd 01 00 00       	call   13b0 <str_error>
    11f3:	c7 44 24 04 d8 df 01 	movl   $0x1dfd8,0x4(%esp)
    11fa:	00 
    11fb:	89 44 24 08          	mov    %eax,0x8(%esp)
    11ff:	a1 0c 0e 02 00       	mov    0x20e0c,%eax
    1204:	89 04 24             	mov    %eax,(%esp)
    1207:	e8 34 36 00 00       	call   4840 <fprintf>
    120c:	b8 02 00 00 00       	mov    $0x2,%eax
    1211:	e9 75 ff ff ff       	jmp    118b <main+0x6b>
    1216:	66 90                	xchg   %ax,%ax
    1218:	66 90                	xchg   %ax,%ax
    121a:	66 90                	xchg   %ax,%ax
    121c:	66 90                	xchg   %ax,%ax
    121e:	66 90                	xchg   %ax,%ax

00001220 <exit>:
    1220:	55                   	push   %ebp
    1221:	89 e5                	mov    %esp,%ebp
    1223:	83 ec 28             	sub    $0x28,%esp
    1226:	80 3d 00 0e 02 00 00 	cmpb   $0x0,0x20e00
    122d:	75 3f                	jne    126e <exit+0x4e>
    122f:	c7 44 24 18 0a 00 00 	movl   $0xa,0x18(%esp)
    1236:	00 
    1237:	c7 44 24 14 00 00 00 	movl   $0x0,0x14(%esp)
    123e:	00 
    123f:	c7 44 24 10 00 00 00 	movl   $0x0,0x10(%esp)
    1246:	00 
    1247:	c7 44 24 0c 00 00 00 	movl   $0x0,0xc(%esp)
    124e:	00 
    124f:	c7 44 24 08 00 00 00 	movl   $0x0,0x8(%esp)
    1256:	00 
    1257:	c7 44 24 04 00 00 00 	movl   $0x0,0x4(%esp)
    125e:	00 
    125f:	c7 04 24 00 00 00 00 	movl   $0x0,(%esp)
    1266:	ff 15 74 0d 02 00    	call   *0x20d74
    126c:	eb fe                	jmp    126c <exit+0x4c>
    126e:	e8 9d 14 00 00       	call   2710 <__stdio_done>
    1273:	8b 45 08             	mov    0x8(%ebp),%eax
    1276:	89 04 24             	mov    %eax,(%esp)
    1279:	e8 b2 0f 00 00       	call   2230 <task_retval>
    127e:	65 a1 00 00 00 00    	mov    %gs:0x0,%eax
    1284:	8b 40 04             	mov    0x4(%eax),%eax
    1287:	89 04 24             	mov    %eax,(%esp)
    128a:	e8 51 02 00 00       	call   14e0 <fibril_teardown>
    128f:	eb 9e                	jmp    122f <exit+0xf>
    1291:	eb 0d                	jmp    12a0 <abort>
    1293:	90                   	nop
    1294:	90                   	nop
    1295:	90                   	nop
    1296:	90                   	nop
    1297:	90                   	nop
    1298:	90                   	nop
    1299:	90                   	nop
    129a:	90                   	nop
    129b:	90                   	nop
    129c:	90                   	nop
    129d:	90                   	nop
    129e:	90                   	nop
    129f:	90                   	nop

000012a0 <abort>:
    12a0:	55                   	push   %ebp
    12a1:	89 e5                	mov    %esp,%ebp
    12a3:	83 ec 28             	sub    $0x28,%esp
    12a6:	c7 44 24 18 0a 00 00 	movl   $0xa,0x18(%esp)
    12ad:	00 
    12ae:	c7 44 24 14 00 00 00 	movl   $0x0,0x14(%esp)
    12b5:	00 
    12b6:	c7 44 24 10 00 00 00 	movl   $0x0,0x10(%esp)
    12bd:	00 
    12be:	c7 44 24 0c 00 00 00 	movl   $0x0,0xc(%esp)
    12c5:	00 
    12c6:	c7 44 24 08 00 00 00 	movl   $0x0,0x8(%esp)
    12cd:	00 
    12ce:	c7 44 24 04 00 00 00 	movl   $0x0,0x4(%esp)
    12d5:	00 
    12d6:	c7 04 24 01 00 00 00 	movl   $0x1,(%esp)
    12dd:	ff 15 74 0d 02 00    	call   *0x20d74
    12e3:	eb fe                	jmp    12e3 <abort+0x43>
    12e5:	8d 74 26 00          	lea    0x0(%esi,%eiz,1),%esi
    12e9:	8d bc 27 00 00 00 00 	lea    0x0(%edi,%eiz,1),%edi

000012f0 <__main>:
    12f0:	55                   	push   %ebp
    12f1:	89 e5                	mov    %esp,%ebp
    12f3:	57                   	push   %edi
    12f4:	56                   	push   %esi
    12f5:	53                   	push   %ebx
    12f6:	83 ec 2c             	sub    $0x2c,%esp
    12f9:	8b 5d 08             	mov    0x8(%ebp),%ebx
    12fc:	e8 6f 89 00 00       	call   9c70 <__malloc_init>
    1301:	e8 7a a8 00 00       	call   bb80 <__async_init>
    1306:	e8 55 01 00 00       	call   1460 <fibril_setup>
    130b:	85 c0                	test   %eax,%eax
    130d:	0f 84 82 00 00 00    	je     1395 <__main+0xa5>
    1313:	c7 44 24 18 01 00 00 	movl   $0x1,0x18(%esp)
    131a:	00 
    131b:	c7 44 24 14 00 00 00 	movl   $0x0,0x14(%esp)
    1322:	00 
    1323:	c7 44 24 10 00 00 00 	movl   $0x0,0x10(%esp)
    132a:	00 
    132b:	c7 44 24 0c 00 00 00 	movl   $0x0,0xc(%esp)
    1332:	00 
    1333:	c7 44 24 08 00 00 00 	movl   $0x0,0x8(%esp)
    133a:	00 
    133b:	c7 44 24 04 00 00 00 	movl   $0x0,0x4(%esp)
    1342:	00 
    1343:	8b 40 30             	mov    0x30(%eax),%eax
    1346:	89 04 24             	mov    %eax,(%esp)
    1349:	ff 15 74 0d 02 00    	call   *0x20d74
    134f:	89 1d f8 0d 02 00    	mov    %ebx,0x20df8
    1355:	c6 05 00 0e 02 00 01 	movb   $0x1,0x20e00
    135c:	85 db                	test   %ebx,%ebx
    135e:	74 3a                	je     139a <__main+0xaa>
    1360:	8b 43 10             	mov    0x10(%ebx),%eax
    1363:	8b 73 08             	mov    0x8(%ebx),%esi
    1366:	8b 7b 0c             	mov    0xc(%ebx),%edi
    1369:	89 04 24             	mov    %eax,(%esp)
    136c:	e8 0f 11 00 00       	call   2480 <__stdio_init>
    1371:	a1 f8 0d 02 00       	mov    0x20df8,%eax
    1376:	8b 40 04             	mov    0x4(%eax),%eax
    1379:	89 04 24             	mov    %eax,(%esp)
    137c:	e8 5f 25 01 00       	call   138e0 <chdir>
    1381:	89 7c 24 04          	mov    %edi,0x4(%esp)
    1385:	89 34 24             	mov    %esi,(%esp)
    1388:	e8 93 fd ff ff       	call   1120 <main>
    138d:	89 04 24             	mov    %eax,(%esp)
    1390:	e8 8b fe ff ff       	call   1220 <exit>
    1395:	e8 06 ff ff ff       	call   12a0 <abort>
    139a:	c7 04 24 00 00 00 00 	movl   $0x0,(%esp)
    13a1:	31 ff                	xor    %edi,%edi
    13a3:	e8 d8 10 00 00       	call   2480 <__stdio_init>
    13a8:	31 f6                	xor    %esi,%esi
    13aa:	eb d5                	jmp    1381 <__main+0x91>
    13ac:	66 90                	xchg   %ax,%ax
    13ae:	66 90                	xchg   %ax,%ax

000013b0 <str_error>:
    13b0:	55                   	push   %ebp
    13b1:	89 e5                	mov    %esp,%ebp
    13b3:	53                   	push   %ebx
    13b4:	83 ec 14             	sub    $0x14,%esp
    13b7:	8b 45 08             	mov    0x8(%ebp),%eax
    13ba:	8d 50 11             	lea    0x11(%eax),%edx
    13bd:	83 fa 11             	cmp    $0x11,%edx
    13c0:	76 1e                	jbe    13e0 <str_error+0x30>
    13c2:	3d d2 fe ff ff       	cmp    $0xfffffed2,%eax
    13c7:	74 67                	je     1430 <str_error+0x80>
    13c9:	7f 25                	jg     13f0 <str_error+0x40>
    13cb:	3d 06 d5 ff ff       	cmp    $0xffffd506,%eax
    13d0:	75 2c                	jne    13fe <str_error+0x4e>
    13d2:	83 c4 14             	add    $0x14,%esp
    13d5:	b8 08 e2 01 00       	mov    $0x1e208,%eax
    13da:	5b                   	pop    %ebx
    13db:	5d                   	pop    %ebp
    13dc:	c3                   	ret    
    13dd:	8d 76 00             	lea    0x0(%esi),%esi
    13e0:	f7 d8                	neg    %eax
    13e2:	8b 04 85 40 e2 01 00 	mov    0x1e240(,%eax,4),%eax
    13e9:	83 c4 14             	add    $0x14,%esp
    13ec:	5b                   	pop    %ebx
    13ed:	5d                   	pop    %ebp
    13ee:	c3                   	ret    
    13ef:	90                   	nop
    13f0:	3d d3 fe ff ff       	cmp    $0xfffffed3,%eax
    13f5:	74 49                	je     1440 <str_error+0x90>
    13f7:	3d d4 fe ff ff       	cmp    $0xfffffed4,%eax
    13fc:	74 52                	je     1450 <str_error+0xa0>
    13fe:	65 8b 1d 00 00 00 00 	mov    %gs:0x0,%ebx
    1405:	89 44 24 0c          	mov    %eax,0xc(%esp)
    1409:	81 c3 b4 ff ff ff    	add    $0xffffffb4,%ebx
    140f:	c7 44 24 08 a8 e0 01 	movl   $0x1e0a8,0x8(%esp)
    1416:	00 
    1417:	89 1c 24             	mov    %ebx,(%esp)
    141a:	c7 44 24 04 40 00 00 	movl   $0x40,0x4(%esp)
    1421:	00 
    1422:	e8 69 3d 00 00       	call   5190 <snprintf>
    1427:	83 c4 14             	add    $0x14,%esp
    142a:	89 d8                	mov    %ebx,%eax
    142c:	5b                   	pop    %ebx
    142d:	5d                   	pop    %ebp
    142e:	c3                   	ret    
    142f:	90                   	nop
    1430:	83 c4 14             	add    $0x14,%esp
    1433:	b8 96 e0 01 00       	mov    $0x1e096,%eax
    1438:	5b                   	pop    %ebx
    1439:	5d                   	pop    %ebp
    143a:	c3                   	ret    
    143b:	90                   	nop
    143c:	8d 74 26 00          	lea    0x0(%esi,%eiz,1),%esi
    1440:	83 c4 14             	add    $0x14,%esp
    1443:	b8 84 e0 01 00       	mov    $0x1e084,%eax
    1448:	5b                   	pop    %ebx
    1449:	5d                   	pop    %ebp
    144a:	c3                   	ret    
    144b:	90                   	nop
    144c:	8d 74 26 00          	lea    0x0(%esi,%eiz,1),%esi
    1450:	83 c4 14             	add    $0x14,%esp
    1453:	b8 77 e0 01 00       	mov    $0x1e077,%eax
    1458:	5b                   	pop    %ebx
    1459:	5d                   	pop    %ebp
    145a:	c3                   	ret    
    145b:	66 90                	xchg   %ax,%ax
    145d:	66 90                	xchg   %ax,%ax
    145f:	90                   	nop

00001460 <fibril_setup>:
    1460:	55                   	push   %ebp
    1461:	89 e5                	mov    %esp,%ebp
    1463:	53                   	push   %ebx
    1464:	83 ec 24             	sub    $0x24,%esp
    1467:	e8 04 07 00 00       	call   1b70 <__make_tls>
    146c:	89 c3                	mov    %eax,%ebx
    146e:	85 c0                	test   %eax,%eax
    1470:	74 4e                	je     14c0 <fibril_setup+0x60>
    1472:	c7 04 24 44 00 00 00 	movl   $0x44,(%esp)
    1479:	e8 f2 88 00 00       	call   9d70 <malloc>
    147e:	85 c0                	test   %eax,%eax
    1480:	74 42                	je     14c4 <fibril_setup+0x64>
    1482:	89 43 04             	mov    %eax,0x4(%ebx)
    1485:	89 58 30             	mov    %ebx,0x30(%eax)
    1488:	c7 40 2c 00 00 00 00 	movl   $0x0,0x2c(%eax)
    148f:	c7 40 28 00 00 00 00 	movl   $0x0,0x28(%eax)
    1496:	c7 40 24 00 00 00 00 	movl   $0x0,0x24(%eax)
    149d:	c7 40 34 00 00 00 00 	movl   $0x0,0x34(%eax)
    14a4:	c7 40 38 00 00 00 00 	movl   $0x0,0x38(%eax)
    14ab:	c7 40 3c 00 00 00 00 	movl   $0x0,0x3c(%eax)
    14b2:	c7 40 40 00 00 00 00 	movl   $0x0,0x40(%eax)
    14b9:	83 c4 24             	add    $0x24,%esp
    14bc:	5b                   	pop    %ebx
    14bd:	5d                   	pop    %ebp
    14be:	c3                   	ret    
    14bf:	90                   	nop
    14c0:	31 c0                	xor    %eax,%eax
    14c2:	eb f5                	jmp    14b9 <fibril_setup+0x59>
    14c4:	89 1c 24             	mov    %ebx,(%esp)
    14c7:	89 45 f4             	mov    %eax,-0xc(%ebp)
    14ca:	e8 21 07 00 00       	call   1bf0 <__free_tls>
    14cf:	8b 45 f4             	mov    -0xc(%ebp),%eax
    14d2:	eb e5                	jmp    14b9 <fibril_setup+0x59>
    14d4:	8d b6 00 00 00 00    	lea    0x0(%esi),%esi
    14da:	8d bf 00 00 00 00    	lea    0x0(%edi),%edi

000014e0 <fibril_teardown>:
    14e0:	55                   	push   %ebp
    14e1:	89 e5                	mov    %esp,%ebp
    14e3:	53                   	push   %ebx
    14e4:	83 ec 14             	sub    $0x14,%esp
    14e7:	8b 5d 08             	mov    0x8(%ebp),%ebx
    14ea:	8b 43 30             	mov    0x30(%ebx),%eax
    14ed:	89 04 24             	mov    %eax,(%esp)
    14f0:	e8 fb 06 00 00       	call   1bf0 <__free_tls>
    14f5:	89 5d 08             	mov    %ebx,0x8(%ebp)
    14f8:	83 c4 14             	add    $0x14,%esp
    14fb:	5b                   	pop    %ebx
    14fc:	5d                   	pop    %ebp
    14fd:	e9 7e 89 00 00       	jmp    9e80 <free>
    1502:	8d b4 26 00 00 00 00 	lea    0x0(%esi,%eiz,1),%esi
    1509:	8d bc 27 00 00 00 00 	lea    0x0(%edi,%eiz,1),%edi

00001510 <fibril_switch.constprop.0>:
    1510:	55                   	push   %ebp
    1511:	89 e5                	mov    %esp,%ebp
    1513:	53                   	push   %ebx
    1514:	83 ec 14             	sub    $0x14,%esp
    1517:	eb 18                	jmp    1531 <fibril_switch.constprop.0+0x21>
    1519:	8d b4 26 00 00 00 00 	lea    0x0(%esi,%eiz,1),%esi
    1520:	c7 04 24 00 0c 02 00 	movl   $0x20c00,(%esp)
    1527:	e8 24 0e 00 00       	call   2350 <futex_up>
    152c:	e8 0f a6 00 00       	call   bb40 <async_create_manager>
    1531:	c7 04 24 00 0c 02 00 	movl   $0x20c00,(%esp)
    1538:	e8 b3 0d 00 00       	call   22f0 <futex_down>
    153d:	8b 1d 18 0c 02 00    	mov    0x20c18,%ebx
    1543:	81 fb 14 0c 02 00    	cmp    $0x20c14,%ebx
    1549:	74 d5                	je     1520 <fibril_switch.constprop.0+0x10>
    154b:	65 a1 00 00 00 00    	mov    %gs:0x0,%eax
    1551:	8b 15 04 0e 02 00    	mov    0x20e04,%edx
    1557:	8b 40 04             	mov    0x4(%eax),%eax
    155a:	42                   	inc    %edx
    155b:	89 43 34             	mov    %eax,0x34(%ebx)
    155e:	8b 03                	mov    (%ebx),%eax
    1560:	89 15 04 0e 02 00    	mov    %edx,0x20e04
    1566:	85 c0                	test   %eax,%eax
    1568:	74 0e                	je     1578 <fibril_switch.constprop.0+0x68>
    156a:	8b 53 04             	mov    0x4(%ebx),%edx
    156d:	85 d2                	test   %edx,%edx
    156f:	74 07                	je     1578 <fibril_switch.constprop.0+0x68>
    1571:	89 02                	mov    %eax,(%edx)
    1573:	8b 03                	mov    (%ebx),%eax
    1575:	89 50 04             	mov    %edx,0x4(%eax)
    1578:	c7 03 00 00 00 00    	movl   $0x0,(%ebx)
    157e:	c7 43 04 00 00 00 00 	movl   $0x0,0x4(%ebx)
    1585:	c7 04 24 00 0c 02 00 	movl   $0x20c00,(%esp)
    158c:	83 c3 08             	add    $0x8,%ebx
    158f:	e8 bc 0d 00 00       	call   2350 <futex_up>
    1594:	89 1c 24             	mov    %ebx,(%esp)
    1597:	e8 55 2f 01 00       	call   144f1 <context_restore>
    159c:	8d 74 26 00          	lea    0x0(%esi,%eiz,1),%esi

000015a0 <fibril_main>:
    15a0:	55                   	push   %ebp
    15a1:	89 e5                	mov    %esp,%ebp
    15a3:	53                   	push   %ebx
    15a4:	83 ec 14             	sub    $0x14,%esp
    15a7:	65 a1 00 00 00 00    	mov    %gs:0x0,%eax
    15ad:	8b 58 04             	mov    0x4(%eax),%ebx
    15b0:	8b 43 28             	mov    0x28(%ebx),%eax
    15b3:	89 04 24             	mov    %eax,(%esp)
    15b6:	ff 53 2c             	call   *0x2c(%ebx)
    15b9:	89 43 38             	mov    %eax,0x38(%ebx)
    15bc:	e8 4f ff ff ff       	call   1510 <fibril_switch.constprop.0>
    15c1:	eb 0d                	jmp    15d0 <fibril_switch>
    15c3:	90                   	nop
    15c4:	90                   	nop
    15c5:	90                   	nop
    15c6:	90                   	nop
    15c7:	90                   	nop
    15c8:	90                   	nop
    15c9:	90                   	nop
    15ca:	90                   	nop
    15cb:	90                   	nop
    15cc:	90                   	nop
    15cd:	90                   	nop
    15ce:	90                   	nop
    15cf:	90                   	nop

000015d0 <fibril_switch>:
    15d0:	55                   	push   %ebp
    15d1:	89 e5                	mov    %esp,%ebp
    15d3:	53                   	push   %ebx
    15d4:	83 ec 24             	sub    $0x24,%esp
    15d7:	c7 04 24 00 0c 02 00 	movl   $0x20c00,(%esp)
    15de:	e8 0d 0d 00 00       	call   22f0 <futex_down>
    15e3:	8b 45 08             	mov    0x8(%ebp),%eax
    15e6:	85 c0                	test   %eax,%eax
    15e8:	0f 85 b2 00 00 00    	jne    16a0 <fibril_switch+0xd0>
    15ee:	81 3d 08 0c 02 00 04 	cmpl   $0x20c04,0x20c08
    15f5:	0c 02 00 
    15f8:	0f 84 da 00 00 00    	je     16d8 <fibril_switch+0x108>
    15fe:	8b 45 08             	mov    0x8(%ebp),%eax
    1601:	83 e0 fd             	and    $0xfffffffd,%eax
    1604:	48                   	dec    %eax
    1605:	0f 94 45 f3          	sete   -0xd(%ebp)
    1609:	83 7d 08 01          	cmpl   $0x1,0x8(%ebp)
    160d:	0f 94 45 f2          	sete   -0xe(%ebp)
    1611:	83 7d 08 03          	cmpl   $0x3,0x8(%ebp)
    1615:	0f 94 45 f1          	sete   -0xf(%ebp)
    1619:	65 a1 00 00 00 00    	mov    %gs:0x0,%eax
    161f:	8b 40 04             	mov    0x4(%eax),%eax
    1622:	89 45 f4             	mov    %eax,-0xc(%ebp)
    1625:	83 7d 08 03          	cmpl   $0x3,0x8(%ebp)
    1629:	0f 84 8e 01 00 00    	je     17bd <fibril_switch+0x1ed>
    162f:	83 c0 08             	add    $0x8,%eax
    1632:	89 04 24             	mov    %eax,(%esp)
    1635:	e8 92 2e 01 00       	call   144cc <context_save>
    163a:	85 c0                	test   %eax,%eax
    163c:	0f 85 07 02 00 00    	jne    1849 <fibril_switch+0x279>
    1642:	65 8b 1d f4 ff ff ff 	mov    %gs:0xfffffff4,%ebx
    1649:	85 db                	test   %ebx,%ebx
    164b:	0f 85 9f 00 00 00    	jne    16f0 <fibril_switch+0x120>
    1651:	8b 45 f4             	mov    -0xc(%ebp),%eax
    1654:	8b 58 34             	mov    0x34(%eax),%ebx
    1657:	85 db                	test   %ebx,%ebx
    1659:	0f 84 11 01 00 00    	je     1770 <fibril_switch+0x1a0>
    165f:	8b 43 24             	mov    0x24(%ebx),%eax
    1662:	85 c0                	test   %eax,%eax
    1664:	74 0e                	je     1674 <fibril_switch+0xa4>
    1666:	89 04 24             	mov    %eax,(%esp)
    1669:	e8 c2 34 01 00       	call   14b30 <as_area_destroy>
    166e:	8b 55 f4             	mov    -0xc(%ebp),%edx
    1671:	8b 5a 34             	mov    0x34(%edx),%ebx
    1674:	8b 43 30             	mov    0x30(%ebx),%eax
    1677:	89 04 24             	mov    %eax,(%esp)
    167a:	e8 71 05 00 00       	call   1bf0 <__free_tls>
    167f:	89 1c 24             	mov    %ebx,(%esp)
    1682:	e8 f9 87 00 00       	call   9e80 <free>
    1687:	8b 45 f4             	mov    -0xc(%ebp),%eax
    168a:	c7 40 34 00 00 00 00 	movl   $0x0,0x34(%eax)
    1691:	b8 01 00 00 00       	mov    $0x1,%eax
    1696:	83 c4 24             	add    $0x24,%esp
    1699:	5b                   	pop    %ebx
    169a:	5d                   	pop    %ebp
    169b:	c3                   	ret    
    169c:	8d 74 26 00          	lea    0x0(%esi,%eiz,1),%esi
    16a0:	83 7d 08 02          	cmpl   $0x2,0x8(%ebp)
    16a4:	75 62                	jne    1708 <fibril_switch+0x138>
    16a6:	81 3d 08 0c 02 00 04 	cmpl   $0x20c04,0x20c08
    16ad:	0c 02 00 
    16b0:	0f 84 c4 00 00 00    	je     177a <fibril_switch+0x1aa>
    16b6:	81 3d 10 0c 02 00 0c 	cmpl   $0x20c0c,0x20c10
    16bd:	0c 02 00 
    16c0:	0f 85 38 ff ff ff    	jne    15fe <fibril_switch+0x2e>
    16c6:	a1 08 0e 02 00       	mov    0x20e08,%eax
    16cb:	39 05 04 0e 02 00    	cmp    %eax,0x20e04
    16d1:	0f 8f 27 ff ff ff    	jg     15fe <fibril_switch+0x2e>
    16d7:	90                   	nop
    16d8:	c7 04 24 00 0c 02 00 	movl   $0x20c00,(%esp)
    16df:	e8 6c 0c 00 00       	call   2350 <futex_up>
    16e4:	83 c4 24             	add    $0x24,%esp
    16e7:	31 c0                	xor    %eax,%eax
    16e9:	5b                   	pop    %ebx
    16ea:	5d                   	pop    %ebp
    16eb:	c3                   	ret    
    16ec:	8d 74 26 00          	lea    0x0(%esi,%eiz,1),%esi
    16f0:	8b 55 f4             	mov    -0xc(%ebp),%edx
    16f3:	8b 4a 3c             	mov    0x3c(%edx),%ecx
    16f6:	83 e1 fe             	and    $0xfffffffe,%ecx
    16f9:	89 4a 3c             	mov    %ecx,0x3c(%edx)
    16fc:	e9 50 ff ff ff       	jmp    1651 <fibril_switch+0x81>
    1701:	8d b4 26 00 00 00 00 	lea    0x0(%esi,%eiz,1),%esi
    1708:	8b 45 08             	mov    0x8(%ebp),%eax
    170b:	83 7d 08 01          	cmpl   $0x1,0x8(%ebp)
    170f:	0f 94 45 f2          	sete   -0xe(%ebp)
    1713:	83 7d 08 03          	cmpl   $0x3,0x8(%ebp)
    1717:	0f 94 45 f1          	sete   -0xf(%ebp)
    171b:	83 e0 fd             	and    $0xfffffffd,%eax
    171e:	48                   	dec    %eax
    171f:	0f 85 5d 01 00 00    	jne    1882 <fibril_switch+0x2b2>
    1725:	81 3d 18 0c 02 00 14 	cmpl   $0x20c14,0x20c18
    172c:	0c 02 00 
    172f:	75 30                	jne    1761 <fibril_switch+0x191>
    1731:	8d b4 26 00 00 00 00 	lea    0x0(%esi,%eiz,1),%esi
    1738:	c7 04 24 00 0c 02 00 	movl   $0x20c00,(%esp)
    173f:	e8 0c 0c 00 00       	call   2350 <futex_up>
    1744:	e8 f7 a3 00 00       	call   bb40 <async_create_manager>
    1749:	c7 04 24 00 0c 02 00 	movl   $0x20c00,(%esp)
    1750:	e8 9b 0b 00 00       	call   22f0 <futex_down>
    1755:	81 3d 18 0c 02 00 14 	cmpl   $0x20c14,0x20c18
    175c:	0c 02 00 
    175f:	74 d7                	je     1738 <fibril_switch+0x168>
    1761:	c6 45 f3 01          	movb   $0x1,-0xd(%ebp)
    1765:	e9 af fe ff ff       	jmp    1619 <fibril_switch+0x49>
    176a:	8d b6 00 00 00 00    	lea    0x0(%esi),%esi
    1770:	b8 01 00 00 00       	mov    $0x1,%eax
    1775:	e9 1c ff ff ff       	jmp    1696 <fibril_switch+0xc6>
    177a:	81 3d 10 0c 02 00 0c 	cmpl   $0x20c0c,0x20c10
    1781:	0c 02 00 
    1784:	0f 85 74 fe ff ff    	jne    15fe <fibril_switch+0x2e>
    178a:	e9 49 ff ff ff       	jmp    16d8 <fibril_switch+0x108>
    178f:	83 7d 08 02          	cmpl   $0x2,0x8(%ebp)
    1793:	75 28                	jne    17bd <fibril_switch+0x1ed>
    1795:	8b 45 f4             	mov    -0xc(%ebp),%eax
    1798:	8b 55 f4             	mov    -0xc(%ebp),%edx
    179b:	ff 0d 04 0e 02 00    	decl   0x20e04
    17a1:	c7 40 04 14 0c 02 00 	movl   $0x20c14,0x4(%eax)
    17a8:	a1 14 0c 02 00       	mov    0x20c14,%eax
    17ad:	89 02                	mov    %eax,(%edx)
    17af:	a1 14 0c 02 00       	mov    0x20c14,%eax
    17b4:	89 15 14 0c 02 00    	mov    %edx,0x20c14
    17ba:	89 50 04             	mov    %edx,0x4(%eax)
    17bd:	80 7d f3 00          	cmpb   $0x0,-0xd(%ebp)
    17c1:	74 70                	je     1833 <fibril_switch+0x263>
    17c3:	8b 1d 18 0c 02 00    	mov    0x20c18,%ebx
    17c9:	81 fb 14 0c 02 00    	cmp    $0x20c14,%ebx
    17cf:	0f 95 c0             	setne  %al
    17d2:	25 ff 00 00 00       	and    $0xff,%eax
    17d7:	f7 d8                	neg    %eax
    17d9:	21 c3                	and    %eax,%ebx
    17db:	65 83 3d f4 ff ff ff 	cmpl   $0x0,%gs:0xfffffff4
    17e2:	00 
    17e3:	74 0a                	je     17ef <fibril_switch+0x21f>
    17e5:	80 7d f2 00          	cmpb   $0x0,-0xe(%ebp)
    17e9:	0f 85 b9 00 00 00    	jne    18a8 <fibril_switch+0x2d8>
    17ef:	ff 05 04 0e 02 00    	incl   0x20e04
    17f5:	80 7d f1 00          	cmpb   $0x0,-0xf(%ebp)
    17f9:	75 7c                	jne    1877 <fibril_switch+0x2a7>
    17fb:	8b 13                	mov    (%ebx),%edx
    17fd:	85 d2                	test   %edx,%edx
    17ff:	74 0e                	je     180f <fibril_switch+0x23f>
    1801:	8b 43 04             	mov    0x4(%ebx),%eax
    1804:	85 c0                	test   %eax,%eax
    1806:	74 07                	je     180f <fibril_switch+0x23f>
    1808:	89 10                	mov    %edx,(%eax)
    180a:	8b 13                	mov    (%ebx),%edx
    180c:	89 42 04             	mov    %eax,0x4(%edx)
    180f:	c7 03 00 00 00 00    	movl   $0x0,(%ebx)
    1815:	c7 43 04 00 00 00 00 	movl   $0x0,0x4(%ebx)
    181c:	c7 04 24 00 0c 02 00 	movl   $0x20c00,(%esp)
    1823:	83 c3 08             	add    $0x8,%ebx
    1826:	e8 25 0b 00 00       	call   2350 <futex_up>
    182b:	89 1c 24             	mov    %ebx,(%esp)
    182e:	e8 be 2c 01 00       	call   144f1 <context_restore>
    1833:	8b 1d 10 0c 02 00    	mov    0x20c10,%ebx
    1839:	81 fb 0c 0c 02 00    	cmp    $0x20c0c,%ebx
    183f:	74 4a                	je     188b <fibril_switch+0x2bb>
    1841:	ff 0d 08 0e 02 00    	decl   0x20e08
    1847:	eb b2                	jmp    17fb <fibril_switch+0x22b>
    1849:	83 7d 08 00          	cmpl   $0x0,0x8(%ebp)
    184d:	0f 85 3c ff ff ff    	jne    178f <fibril_switch+0x1bf>
    1853:	8b 55 f4             	mov    -0xc(%ebp),%edx
    1856:	a1 04 0c 02 00       	mov    0x20c04,%eax
    185b:	89 02                	mov    %eax,(%edx)
    185d:	c7 42 04 04 0c 02 00 	movl   $0x20c04,0x4(%edx)
    1864:	a1 04 0c 02 00       	mov    0x20c04,%eax
    1869:	89 15 04 0c 02 00    	mov    %edx,0x20c04
    186f:	89 50 04             	mov    %edx,0x4(%eax)
    1872:	e9 46 ff ff ff       	jmp    17bd <fibril_switch+0x1ed>
    1877:	8b 55 f4             	mov    -0xc(%ebp),%edx
    187a:	89 53 34             	mov    %edx,0x34(%ebx)
    187d:	e9 79 ff ff ff       	jmp    17fb <fibril_switch+0x22b>
    1882:	c6 45 f3 00          	movb   $0x0,-0xd(%ebp)
    1886:	e9 8e fd ff ff       	jmp    1619 <fibril_switch+0x49>
    188b:	8b 1d 08 0c 02 00    	mov    0x20c08,%ebx
    1891:	81 fb 04 0c 02 00    	cmp    $0x20c04,%ebx
    1897:	0f 95 c0             	setne  %al
    189a:	25 ff 00 00 00       	and    $0xff,%eax
    189f:	f7 d8                	neg    %eax
    18a1:	21 c3                	and    %eax,%ebx
    18a3:	e9 53 ff ff ff       	jmp    17fb <fibril_switch+0x22b>
    18a8:	8b 45 f4             	mov    -0xc(%ebp),%eax
    18ab:	ff 05 08 0e 02 00    	incl   0x20e08
    18b1:	83 48 3c 01          	orl    $0x1,0x3c(%eax)
    18b5:	ff 05 04 0e 02 00    	incl   0x20e04
    18bb:	e9 3b ff ff ff       	jmp    17fb <fibril_switch+0x22b>

000018c0 <fibril_create>:
    18c0:	55                   	push   %ebp
    18c1:	89 e5                	mov    %esp,%ebp
    18c3:	53                   	push   %ebx
    18c4:	83 ec 24             	sub    $0x24,%esp
    18c7:	e8 a4 02 00 00       	call   1b70 <__make_tls>
    18cc:	89 c3                	mov    %eax,%ebx
    18ce:	85 c0                	test   %eax,%eax
    18d0:	0f 84 ea 00 00 00    	je     19c0 <fibril_create+0x100>
    18d6:	c7 04 24 44 00 00 00 	movl   $0x44,(%esp)
    18dd:	e8 8e 84 00 00       	call   9d70 <malloc>
    18e2:	89 45 f4             	mov    %eax,-0xc(%ebp)
    18e5:	85 c0                	test   %eax,%eax
    18e7:	0f 84 c5 00 00 00    	je     19b2 <fibril_create+0xf2>
    18ed:	89 43 04             	mov    %eax,0x4(%ebx)
    18f0:	89 58 30             	mov    %ebx,0x30(%eax)
    18f3:	c7 40 2c 00 00 00 00 	movl   $0x0,0x2c(%eax)
    18fa:	c7 40 28 00 00 00 00 	movl   $0x0,0x28(%eax)
    1901:	c7 40 24 00 00 00 00 	movl   $0x0,0x24(%eax)
    1908:	c7 40 34 00 00 00 00 	movl   $0x0,0x34(%eax)
    190f:	c7 40 38 00 00 00 00 	movl   $0x0,0x38(%eax)
    1916:	c7 40 3c 00 00 00 00 	movl   $0x0,0x3c(%eax)
    191d:	c7 40 40 00 00 00 00 	movl   $0x0,0x40(%eax)
    1924:	e8 a7 2a 01 00       	call   143d0 <stack_size_get>
    1929:	c7 44 24 08 3b 00 00 	movl   $0x3b,0x8(%esp)
    1930:	00 
    1931:	89 44 24 04          	mov    %eax,0x4(%esp)
    1935:	c7 04 24 ff ff ff ff 	movl   $0xffffffff,(%esp)
    193c:	89 45 f0             	mov    %eax,-0x10(%ebp)
    193f:	e8 4c 31 01 00       	call   14a90 <as_area_create>
    1944:	8b 55 f4             	mov    -0xc(%ebp),%edx
    1947:	89 42 24             	mov    %eax,0x24(%edx)
    194a:	40                   	inc    %eax
    194b:	74 4b                	je     1998 <fibril_create+0xd8>
    194d:	8b 45 08             	mov    0x8(%ebp),%eax
    1950:	89 42 2c             	mov    %eax,0x2c(%edx)
    1953:	8b 45 0c             	mov    0xc(%ebp),%eax
    1956:	89 42 28             	mov    %eax,0x28(%edx)
    1959:	89 d0                	mov    %edx,%eax
    195b:	83 c0 08             	add    $0x8,%eax
    195e:	89 04 24             	mov    %eax,(%esp)
    1961:	e8 66 2b 01 00       	call   144cc <context_save>
    1966:	8b 45 f4             	mov    -0xc(%ebp),%eax
    1969:	8b 55 f0             	mov    -0x10(%ebp),%edx
    196c:	c7 40 0c a0 15 00 00 	movl   $0x15a0,0xc(%eax)
    1973:	8b 40 24             	mov    0x24(%eax),%eax
    1976:	8d 44 10 f4          	lea    -0xc(%eax,%edx,1),%eax
    197a:	8b 55 f4             	mov    -0xc(%ebp),%edx
    197d:	89 42 08             	mov    %eax,0x8(%edx)
    1980:	8b 42 30             	mov    0x30(%edx),%eax
    1983:	89 42 20             	mov    %eax,0x20(%edx)
    1986:	c7 42 1c 00 00 00 00 	movl   $0x0,0x1c(%edx)
    198d:	89 d0                	mov    %edx,%eax
    198f:	83 c4 24             	add    $0x24,%esp
    1992:	5b                   	pop    %ebx
    1993:	5d                   	pop    %ebp
    1994:	c3                   	ret    
    1995:	8d 76 00             	lea    0x0(%esi),%esi
    1998:	8b 42 30             	mov    0x30(%edx),%eax
    199b:	89 04 24             	mov    %eax,(%esp)
    199e:	e8 4d 02 00 00       	call   1bf0 <__free_tls>
    19a3:	8b 45 f4             	mov    -0xc(%ebp),%eax
    19a6:	89 04 24             	mov    %eax,(%esp)
    19a9:	e8 d2 84 00 00       	call   9e80 <free>
    19ae:	31 c0                	xor    %eax,%eax
    19b0:	eb dd                	jmp    198f <fibril_create+0xcf>
    19b2:	89 1c 24             	mov    %ebx,(%esp)
    19b5:	e8 36 02 00 00       	call   1bf0 <__free_tls>
    19ba:	8d b6 00 00 00 00    	lea    0x0(%esi),%esi
    19c0:	31 c0                	xor    %eax,%eax
    19c2:	eb cb                	jmp    198f <fibril_create+0xcf>
    19c4:	8d b6 00 00 00 00    	lea    0x0(%esi),%esi
    19ca:	8d bf 00 00 00 00    	lea    0x0(%edi),%edi

000019d0 <fibril_destroy>:
    19d0:	55                   	push   %ebp
    19d1:	89 e5                	mov    %esp,%ebp
    19d3:	53                   	push   %ebx
    19d4:	83 ec 14             	sub    $0x14,%esp
    19d7:	8b 5d 08             	mov    0x8(%ebp),%ebx
    19da:	8b 43 24             	mov    0x24(%ebx),%eax
    19dd:	89 04 24             	mov    %eax,(%esp)
    19e0:	e8 4b 31 01 00       	call   14b30 <as_area_destroy>
    19e5:	8b 43 30             	mov    0x30(%ebx),%eax
    19e8:	89 04 24             	mov    %eax,(%esp)
    19eb:	e8 00 02 00 00       	call   1bf0 <__free_tls>
    19f0:	89 5d 08             	mov    %ebx,0x8(%ebp)
    19f3:	83 c4 14             	add    $0x14,%esp
    19f6:	5b                   	pop    %ebx
    19f7:	5d                   	pop    %ebp
    19f8:	e9 83 84 00 00       	jmp    9e80 <free>
    19fd:	8d 76 00             	lea    0x0(%esi),%esi

00001a00 <fibril_add_ready>:
    1a00:	55                   	push   %ebp
    1a01:	89 e5                	mov    %esp,%ebp
    1a03:	53                   	push   %ebx
    1a04:	83 ec 14             	sub    $0x14,%esp
    1a07:	8b 5d 08             	mov    0x8(%ebp),%ebx
    1a0a:	c7 04 24 00 0c 02 00 	movl   $0x20c00,(%esp)
    1a11:	e8 da 08 00 00       	call   22f0 <futex_down>
    1a16:	f6 43 3c 01          	testb  $0x1,0x3c(%ebx)
    1a1a:	75 34                	jne    1a50 <fibril_add_ready+0x50>
    1a1c:	a1 04 0c 02 00       	mov    0x20c04,%eax
    1a21:	c7 43 04 04 0c 02 00 	movl   $0x20c04,0x4(%ebx)
    1a28:	89 03                	mov    %eax,(%ebx)
    1a2a:	a1 04 0c 02 00       	mov    0x20c04,%eax
    1a2f:	89 1d 04 0c 02 00    	mov    %ebx,0x20c04
    1a35:	89 58 04             	mov    %ebx,0x4(%eax)
    1a38:	c7 45 08 00 0c 02 00 	movl   $0x20c00,0x8(%ebp)
    1a3f:	83 c4 14             	add    $0x14,%esp
    1a42:	5b                   	pop    %ebx
    1a43:	5d                   	pop    %ebp
    1a44:	e9 07 09 00 00       	jmp    2350 <futex_up>
    1a49:	8d b4 26 00 00 00 00 	lea    0x0(%esi,%eiz,1),%esi
    1a50:	a1 0c 0c 02 00       	mov    0x20c0c,%eax
    1a55:	c7 43 04 0c 0c 02 00 	movl   $0x20c0c,0x4(%ebx)
    1a5c:	89 03                	mov    %eax,(%ebx)
    1a5e:	a1 0c 0c 02 00       	mov    0x20c0c,%eax
    1a63:	89 1d 0c 0c 02 00    	mov    %ebx,0x20c0c
    1a69:	89 58 04             	mov    %ebx,0x4(%eax)
    1a6c:	eb ca                	jmp    1a38 <fibril_add_ready+0x38>
    1a6e:	66 90                	xchg   %ax,%ax

00001a70 <fibril_add_manager>:
    1a70:	55                   	push   %ebp
    1a71:	89 e5                	mov    %esp,%ebp
    1a73:	53                   	push   %ebx
    1a74:	83 ec 14             	sub    $0x14,%esp
    1a77:	8b 5d 08             	mov    0x8(%ebp),%ebx
    1a7a:	c7 04 24 00 0c 02 00 	movl   $0x20c00,(%esp)
    1a81:	e8 6a 08 00 00       	call   22f0 <futex_down>
    1a86:	a1 14 0c 02 00       	mov    0x20c14,%eax
    1a8b:	89 03                	mov    %eax,(%ebx)
    1a8d:	c7 43 04 14 0c 02 00 	movl   $0x20c14,0x4(%ebx)
    1a94:	a1 14 0c 02 00       	mov    0x20c14,%eax
    1a99:	89 1d 14 0c 02 00    	mov    %ebx,0x20c14
    1a9f:	89 58 04             	mov    %ebx,0x4(%eax)
    1aa2:	c7 45 08 00 0c 02 00 	movl   $0x20c00,0x8(%ebp)
    1aa9:	83 c4 14             	add    $0x14,%esp
    1aac:	5b                   	pop    %ebx
    1aad:	5d                   	pop    %ebp
    1aae:	e9 9d 08 00 00       	jmp    2350 <futex_up>
    1ab3:	8d b6 00 00 00 00    	lea    0x0(%esi),%esi
    1ab9:	8d bc 27 00 00 00 00 	lea    0x0(%edi,%eiz,1),%edi

00001ac0 <fibril_remove_manager>:
    1ac0:	55                   	push   %ebp
    1ac1:	89 e5                	mov    %esp,%ebp
    1ac3:	83 ec 18             	sub    $0x18,%esp
    1ac6:	c7 04 24 00 0c 02 00 	movl   $0x20c00,(%esp)
    1acd:	e8 1e 08 00 00       	call   22f0 <futex_down>
    1ad2:	a1 18 0c 02 00       	mov    0x20c18,%eax
    1ad7:	3d 14 0c 02 00       	cmp    $0x20c14,%eax
    1adc:	74 21                	je     1aff <fibril_remove_manager+0x3f>
    1ade:	8b 08                	mov    (%eax),%ecx
    1ae0:	85 c9                	test   %ecx,%ecx
    1ae2:	74 0e                	je     1af2 <fibril_remove_manager+0x32>
    1ae4:	8b 50 04             	mov    0x4(%eax),%edx
    1ae7:	85 d2                	test   %edx,%edx
    1ae9:	74 07                	je     1af2 <fibril_remove_manager+0x32>
    1aeb:	89 0a                	mov    %ecx,(%edx)
    1aed:	8b 08                	mov    (%eax),%ecx
    1aef:	89 51 04             	mov    %edx,0x4(%ecx)
    1af2:	c7 00 00 00 00 00    	movl   $0x0,(%eax)
    1af8:	c7 40 04 00 00 00 00 	movl   $0x0,0x4(%eax)
    1aff:	c7 04 24 00 0c 02 00 	movl   $0x20c00,(%esp)
    1b06:	e8 45 08 00 00       	call   2350 <futex_up>
    1b0b:	c9                   	leave  
    1b0c:	c3                   	ret    
    1b0d:	8d 76 00             	lea    0x0(%esi),%esi

00001b10 <fibril_get_id>:
    1b10:	55                   	push   %ebp
    1b11:	89 e5                	mov    %esp,%ebp
    1b13:	5d                   	pop    %ebp
    1b14:	65 a1 00 00 00 00    	mov    %gs:0x0,%eax
    1b1a:	8b 40 04             	mov    0x4(%eax),%eax
    1b1d:	c3                   	ret    
    1b1e:	66 90                	xchg   %ax,%ax

00001b20 <fibril_inc_sercount>:
    1b20:	65 a1 f4 ff ff ff    	mov    %gs:0xfffffff4,%eax
    1b26:	55                   	push   %ebp
    1b27:	40                   	inc    %eax
    1b28:	89 e5                	mov    %esp,%ebp
    1b2a:	65 a3 f4 ff ff ff    	mov    %eax,%gs:0xfffffff4
    1b30:	5d                   	pop    %ebp
    1b31:	c3                   	ret    
    1b32:	8d b4 26 00 00 00 00 	lea    0x0(%esi,%eiz,1),%esi
    1b39:	8d bc 27 00 00 00 00 	lea    0x0(%edi,%eiz,1),%edi

00001b40 <fibril_dec_sercount>:
    1b40:	65 a1 f4 ff ff ff    	mov    %gs:0xfffffff4,%eax
    1b46:	55                   	push   %ebp
    1b47:	48                   	dec    %eax
    1b48:	89 e5                	mov    %esp,%ebp
    1b4a:	65 a3 f4 ff ff ff    	mov    %eax,%gs:0xfffffff4
    1b50:	5d                   	pop    %ebp
    1b51:	c3                   	ret    
    1b52:	8d b4 26 00 00 00 00 	lea    0x0(%esi,%eiz,1),%esi
    1b59:	8d bc 27 00 00 00 00 	lea    0x0(%edi,%eiz,1),%edi

00001b60 <fibril_get_sercount>:
    1b60:	55                   	push   %ebp
    1b61:	65 a1 f4 ff ff ff    	mov    %gs:0xfffffff4,%eax
    1b67:	89 e5                	mov    %esp,%ebp
    1b69:	5d                   	pop    %ebp
    1b6a:	c3                   	ret    
    1b6b:	90                   	nop
    1b6c:	66 90                	xchg   %ax,%ax
    1b6e:	66 90                	xchg   %ax,%ax

00001b70 <__make_tls>:
    1b70:	55                   	push   %ebp
    1b71:	89 e5                	mov    %esp,%ebp
    1b73:	56                   	push   %esi
    1b74:	53                   	push   %ebx
    1b75:	bb 44 0e 02 00       	mov    $0x20e44,%ebx
    1b7a:	83 ec 20             	sub    $0x20,%esp
    1b7d:	89 d8                	mov    %ebx,%eax
    1b7f:	2d f8 0d 02 00       	sub    $0x20df8,%eax
    1b84:	89 44 24 04          	mov    %eax,0x4(%esp)
    1b88:	8d 45 f4             	lea    -0xc(%ebp),%eax
    1b8b:	89 04 24             	mov    %eax,(%esp)
    1b8e:	e8 8d 29 01 00       	call   14520 <__alloc_tls>
    1b93:	89 c6                	mov    %eax,%esi
    1b95:	85 c0                	test   %eax,%eax
    1b97:	74 48                	je     1be1 <__make_tls+0x71>
    1b99:	ba f8 0d 02 00       	mov    $0x20df8,%edx
    1b9e:	8b 45 f4             	mov    -0xc(%ebp),%eax
    1ba1:	81 ea f8 0d 02 00    	sub    $0x20df8,%edx
    1ba7:	c7 44 24 04 f8 0d 02 	movl   $0x20df8,0x4(%esp)
    1bae:	00 
    1baf:	89 54 24 08          	mov    %edx,0x8(%esp)
    1bb3:	89 04 24             	mov    %eax,(%esp)
    1bb6:	e8 c5 5c 01 00       	call   17880 <memcpy>
    1bbb:	ba f8 0d 02 00       	mov    $0x20df8,%edx
    1bc0:	29 d3                	sub    %edx,%ebx
    1bc2:	8b 45 f4             	mov    -0xc(%ebp),%eax
    1bc5:	81 ea f8 0d 02 00    	sub    $0x20df8,%edx
    1bcb:	89 5c 24 08          	mov    %ebx,0x8(%esp)
    1bcf:	01 c2                	add    %eax,%edx
    1bd1:	c7 44 24 04 00 00 00 	movl   $0x0,0x4(%esp)
    1bd8:	00 
    1bd9:	89 14 24             	mov    %edx,(%esp)
    1bdc:	e8 1f 5b 01 00       	call   17700 <memset>
    1be1:	83 c4 20             	add    $0x20,%esp
    1be4:	89 f0                	mov    %esi,%eax
    1be6:	5b                   	pop    %ebx
    1be7:	5e                   	pop    %esi
    1be8:	5d                   	pop    %ebp
    1be9:	c3                   	ret    
    1bea:	8d b6 00 00 00 00    	lea    0x0(%esi),%esi

00001bf0 <__free_tls>:
    1bf0:	55                   	push   %ebp
    1bf1:	b8 44 0e 02 00       	mov    $0x20e44,%eax
    1bf6:	89 e5                	mov    %esp,%ebp
    1bf8:	83 ec 18             	sub    $0x18,%esp
    1bfb:	2d f8 0d 02 00       	sub    $0x20df8,%eax
    1c00:	89 44 24 04          	mov    %eax,0x4(%esp)
    1c04:	8b 45 08             	mov    0x8(%ebp),%eax
    1c07:	89 04 24             	mov    %eax,(%esp)
    1c0a:	e8 21 29 01 00       	call   14530 <__free_tls_arch>
    1c0f:	c9                   	leave  
    1c10:	c3                   	ret    
    1c11:	eb 0d                	jmp    1c20 <tls_alloc_variant_2>
    1c13:	90                   	nop
    1c14:	90                   	nop
    1c15:	90                   	nop
    1c16:	90                   	nop
    1c17:	90                   	nop
    1c18:	90                   	nop
    1c19:	90                   	nop
    1c1a:	90                   	nop
    1c1b:	90                   	nop
    1c1c:	90                   	nop
    1c1d:	90                   	nop
    1c1e:	90                   	nop
    1c1f:	90                   	nop

00001c20 <tls_alloc_variant_2>:
    1c20:	55                   	push   %ebp
    1c21:	b8 04 00 00 00       	mov    $0x4,%eax
    1c26:	89 e5                	mov    %esp,%ebp
    1c28:	53                   	push   %ebx
    1c29:	83 ec 14             	sub    $0x14,%esp
    1c2c:	8b 5d 0c             	mov    0xc(%ebp),%ebx
    1c2f:	f7 d8                	neg    %eax
    1c31:	81 c3 03 00 00 00    	add    $0x3,%ebx
    1c37:	c7 04 24 04 00 00 00 	movl   $0x4,(%esp)
    1c3e:	21 c3                	and    %eax,%ebx
    1c40:	8d 43 08             	lea    0x8(%ebx),%eax
    1c43:	89 44 24 04          	mov    %eax,0x4(%esp)
    1c47:	e8 64 81 00 00       	call   9db0 <memalign>
    1c4c:	8b 55 08             	mov    0x8(%ebp),%edx
    1c4f:	85 c0                	test   %eax,%eax
    1c51:	89 02                	mov    %eax,(%edx)
    1c53:	74 0b                	je     1c60 <tls_alloc_variant_2+0x40>
    1c55:	01 d8                	add    %ebx,%eax
    1c57:	89 00                	mov    %eax,(%eax)
    1c59:	83 c4 14             	add    $0x14,%esp
    1c5c:	5b                   	pop    %ebx
    1c5d:	5d                   	pop    %ebp
    1c5e:	c3                   	ret    
    1c5f:	90                   	nop
    1c60:	31 c0                	xor    %eax,%eax
    1c62:	eb f5                	jmp    1c59 <tls_alloc_variant_2+0x39>
    1c64:	8d b6 00 00 00 00    	lea    0x0(%esi),%esi
    1c6a:	8d bf 00 00 00 00    	lea    0x0(%edi),%edi

00001c70 <tls_free_variant_2>:
    1c70:	55                   	push   %ebp
    1c71:	ba 04 00 00 00       	mov    $0x4,%edx
    1c76:	89 e5                	mov    %esp,%ebp
    1c78:	f7 da                	neg    %edx
    1c7a:	8b 45 0c             	mov    0xc(%ebp),%eax
    1c7d:	05 03 00 00 00       	add    $0x3,%eax
    1c82:	21 d0                	and    %edx,%eax
    1c84:	8b 55 08             	mov    0x8(%ebp),%edx
    1c87:	29 c2                	sub    %eax,%edx
    1c89:	89 55 08             	mov    %edx,0x8(%ebp)
    1c8c:	5d                   	pop    %ebp
    1c8d:	e9 ee 81 00 00       	jmp    9e80 <free>
    1c92:	66 90                	xchg   %ax,%ax
    1c94:	66 90                	xchg   %ax,%ax
    1c96:	66 90                	xchg   %ax,%ax
    1c98:	66 90                	xchg   %ax,%ax
    1c9a:	66 90                	xchg   %ax,%ax
    1c9c:	66 90                	xchg   %ax,%ax
    1c9e:	66 90                	xchg   %ax,%ax

00001ca0 <task_get_id>:
    1ca0:	55                   	push   %ebp
    1ca1:	89 e5                	mov    %esp,%ebp
    1ca3:	83 ec 38             	sub    $0x38,%esp
    1ca6:	8d 45 f0             	lea    -0x10(%ebp),%eax
    1ca9:	c7 44 24 18 07 00 00 	movl   $0x7,0x18(%esp)
    1cb0:	00 
    1cb1:	c7 44 24 14 00 00 00 	movl   $0x0,0x14(%esp)
    1cb8:	00 
    1cb9:	c7 44 24 10 00 00 00 	movl   $0x0,0x10(%esp)
    1cc0:	00 
    1cc1:	c7 44 24 0c 00 00 00 	movl   $0x0,0xc(%esp)
    1cc8:	00 
    1cc9:	c7 44 24 08 00 00 00 	movl   $0x0,0x8(%esp)
    1cd0:	00 
    1cd1:	c7 44 24 04 00 00 00 	movl   $0x0,0x4(%esp)
    1cd8:	00 
    1cd9:	89 04 24             	mov    %eax,(%esp)
    1cdc:	ff 15 74 0d 02 00    	call   *0x20d74
    1ce2:	8b 45 f0             	mov    -0x10(%ebp),%eax
    1ce5:	8b 55 f4             	mov    -0xc(%ebp),%edx
    1ce8:	c9                   	leave  
    1ce9:	c3                   	ret    
    1cea:	8d b6 00 00 00 00    	lea    0x0(%esi),%esi

00001cf0 <task_set_name>:
    1cf0:	55                   	push   %ebp
    1cf1:	89 e5                	mov    %esp,%ebp
    1cf3:	56                   	push   %esi
    1cf4:	53                   	push   %ebx
    1cf5:	83 ec 20             	sub    $0x20,%esp
    1cf8:	8b 5d 08             	mov    0x8(%ebp),%ebx
    1cfb:	85 db                	test   %ebx,%ebx
    1cfd:	74 46                	je     1d45 <task_set_name+0x55>
    1cff:	89 1c 24             	mov    %ebx,(%esp)
    1d02:	8b 35 74 0d 02 00    	mov    0x20d74,%esi
    1d08:	e8 83 69 01 00       	call   18690 <str_size>
    1d0d:	89 1c 24             	mov    %ebx,(%esp)
    1d10:	c7 44 24 18 08 00 00 	movl   $0x8,0x18(%esp)
    1d17:	00 
    1d18:	c7 44 24 14 00 00 00 	movl   $0x0,0x14(%esp)
    1d1f:	00 
    1d20:	c7 44 24 10 00 00 00 	movl   $0x0,0x10(%esp)
    1d27:	00 
    1d28:	c7 44 24 0c 00 00 00 	movl   $0x0,0xc(%esp)
    1d2f:	00 
    1d30:	c7 44 24 08 00 00 00 	movl   $0x0,0x8(%esp)
    1d37:	00 
    1d38:	89 44 24 04          	mov    %eax,0x4(%esp)
    1d3c:	ff d6                	call   *%esi
    1d3e:	83 c4 20             	add    $0x20,%esp
    1d41:	5b                   	pop    %ebx
    1d42:	5e                   	pop    %esi
    1d43:	5d                   	pop    %ebp
    1d44:	c3                   	ret    
    1d45:	c7 44 24 08 49 00 00 	movl   $0x49,0x8(%esp)
    1d4c:	00 
    1d4d:	c7 44 24 04 88 e2 01 	movl   $0x1e288,0x4(%esp)
    1d54:	00 
    1d55:	c7 04 24 97 e2 01 00 	movl   $0x1e297,(%esp)
    1d5c:	e8 af 26 01 00       	call   14410 <assert_abort>
    1d61:	eb 0d                	jmp    1d70 <task_kill>
    1d63:	90                   	nop
    1d64:	90                   	nop
    1d65:	90                   	nop
    1d66:	90                   	nop
    1d67:	90                   	nop
    1d68:	90                   	nop
    1d69:	90                   	nop
    1d6a:	90                   	nop
    1d6b:	90                   	nop
    1d6c:	90                   	nop
    1d6d:	90                   	nop
    1d6e:	90                   	nop
    1d6f:	90                   	nop

00001d70 <task_kill>:
    1d70:	55                   	push   %ebp
    1d71:	89 e5                	mov    %esp,%ebp
    1d73:	83 ec 38             	sub    $0x38,%esp
    1d76:	8b 45 08             	mov    0x8(%ebp),%eax
    1d79:	c7 44 24 18 09 00 00 	movl   $0x9,0x18(%esp)
    1d80:	00 
    1d81:	89 45 f0             	mov    %eax,-0x10(%ebp)
    1d84:	8b 45 0c             	mov    0xc(%ebp),%eax
    1d87:	89 45 f4             	mov    %eax,-0xc(%ebp)
    1d8a:	8d 45 f0             	lea    -0x10(%ebp),%eax
    1d8d:	c7 44 24 14 00 00 00 	movl   $0x0,0x14(%esp)
    1d94:	00 
    1d95:	c7 44 24 10 00 00 00 	movl   $0x0,0x10(%esp)
    1d9c:	00 
    1d9d:	c7 44 24 0c 00 00 00 	movl   $0x0,0xc(%esp)
    1da4:	00 
    1da5:	c7 44 24 08 00 00 00 	movl   $0x0,0x8(%esp)
    1dac:	00 
    1dad:	c7 44 24 04 00 00 00 	movl   $0x0,0x4(%esp)
    1db4:	00 
    1db5:	89 04 24             	mov    %eax,(%esp)
    1db8:	ff 15 74 0d 02 00    	call   *0x20d74
    1dbe:	c9                   	leave  
    1dbf:	c3                   	ret    

00001dc0 <task_spawnvf>:
    1dc0:	55                   	push   %ebp
    1dc1:	89 e5                	mov    %esp,%ebp
    1dc3:	53                   	push   %ebx
    1dc4:	83 ec 34             	sub    $0x34,%esp
    1dc7:	e8 04 d4 00 00       	call   f1d0 <loader_connect>
    1dcc:	89 c3                	mov    %eax,%ebx
    1dce:	85 c0                	test   %eax,%eax
    1dd0:	0f 84 a2 00 00 00    	je     1e78 <task_spawnvf+0xb8>
    1dd6:	8d 45 f0             	lea    -0x10(%ebp),%eax
    1dd9:	89 1c 24             	mov    %ebx,(%esp)
    1ddc:	89 44 24 04          	mov    %eax,0x4(%esp)
    1de0:	e8 4b d4 00 00       	call   f230 <loader_get_task_id>
    1de5:	85 c0                	test   %eax,%eax
    1de7:	74 17                	je     1e00 <task_spawnvf+0x40>
    1de9:	89 1c 24             	mov    %ebx,(%esp)
    1dec:	89 45 e4             	mov    %eax,-0x1c(%ebp)
    1def:	e8 6c da 00 00       	call   f860 <loader_abort>
    1df4:	8b 45 e4             	mov    -0x1c(%ebp),%eax
    1df7:	83 c4 34             	add    $0x34,%esp
    1dfa:	5b                   	pop    %ebx
    1dfb:	5d                   	pop    %ebp
    1dfc:	c3                   	ret    
    1dfd:	8d 76 00             	lea    0x0(%esi),%esi
    1e00:	89 1c 24             	mov    %ebx,(%esp)
    1e03:	e8 d8 d4 00 00       	call   f2e0 <loader_set_cwd>
    1e08:	85 c0                	test   %eax,%eax
    1e0a:	75 dd                	jne    1de9 <task_spawnvf+0x29>
    1e0c:	8b 45 0c             	mov    0xc(%ebp),%eax
    1e0f:	89 1c 24             	mov    %ebx,(%esp)
    1e12:	89 44 24 04          	mov    %eax,0x4(%esp)
    1e16:	e8 e5 d5 00 00       	call   f400 <loader_set_pathname>
    1e1b:	85 c0                	test   %eax,%eax
    1e1d:	75 ca                	jne    1de9 <task_spawnvf+0x29>
    1e1f:	8b 45 10             	mov    0x10(%ebp),%eax
    1e22:	89 1c 24             	mov    %ebx,(%esp)
    1e25:	89 44 24 04          	mov    %eax,0x4(%esp)
    1e29:	e8 b2 d6 00 00       	call   f4e0 <loader_set_args>
    1e2e:	85 c0                	test   %eax,%eax
    1e30:	75 b7                	jne    1de9 <task_spawnvf+0x29>
    1e32:	8b 45 14             	mov    0x14(%ebp),%eax
    1e35:	89 1c 24             	mov    %ebx,(%esp)
    1e38:	89 44 24 04          	mov    %eax,0x4(%esp)
    1e3c:	e8 df d7 00 00       	call   f620 <loader_set_files>
    1e41:	85 c0                	test   %eax,%eax
    1e43:	75 a4                	jne    1de9 <task_spawnvf+0x29>
    1e45:	89 1c 24             	mov    %ebx,(%esp)
    1e48:	e8 e3 d8 00 00       	call   f730 <loader_load_program>
    1e4d:	85 c0                	test   %eax,%eax
    1e4f:	75 98                	jne    1de9 <task_spawnvf+0x29>
    1e51:	89 1c 24             	mov    %ebx,(%esp)
    1e54:	e8 67 d9 00 00       	call   f7c0 <loader_run>
    1e59:	85 c0                	test   %eax,%eax
    1e5b:	75 8c                	jne    1de9 <task_spawnvf+0x29>
    1e5d:	83 7d 08 00          	cmpl   $0x0,0x8(%ebp)
    1e61:	74 94                	je     1df7 <task_spawnvf+0x37>
    1e63:	8b 5d 08             	mov    0x8(%ebp),%ebx
    1e66:	8b 55 f0             	mov    -0x10(%ebp),%edx
    1e69:	8b 4d f4             	mov    -0xc(%ebp),%ecx
    1e6c:	89 13                	mov    %edx,(%ebx)
    1e6e:	89 4b 04             	mov    %ecx,0x4(%ebx)
    1e71:	eb 84                	jmp    1df7 <task_spawnvf+0x37>
    1e73:	90                   	nop
    1e74:	8d 74 26 00          	lea    0x0(%esi,%eiz,1),%esi
    1e78:	b8 fc ff ff ff       	mov    $0xfffffffc,%eax
    1e7d:	e9 75 ff ff ff       	jmp    1df7 <task_spawnvf+0x37>
    1e82:	8d b4 26 00 00 00 00 	lea    0x0(%esi,%eiz,1),%esi
    1e89:	8d bc 27 00 00 00 00 	lea    0x0(%edi,%eiz,1),%edi

00001e90 <task_spawnv>:
    1e90:	55                   	push   %ebp
    1e91:	89 e5                	mov    %esp,%ebp
    1e93:	53                   	push   %ebx
    1e94:	83 ec 34             	sub    $0x34,%esp
    1e97:	a1 14 0e 02 00       	mov    0x20e14,%eax
    1e9c:	85 c0                	test   %eax,%eax
    1e9e:	74 13                	je     1eb3 <task_spawnv+0x23>
    1ea0:	8d 5d dc             	lea    -0x24(%ebp),%ebx
    1ea3:	89 04 24             	mov    %eax,(%esp)
    1ea6:	89 5c 24 04          	mov    %ebx,0x4(%esp)
    1eaa:	e8 71 29 00 00       	call   4820 <fhandle>
    1eaf:	85 c0                	test   %eax,%eax
    1eb1:	74 7d                	je     1f30 <task_spawnv+0xa0>
    1eb3:	31 c0                	xor    %eax,%eax
    1eb5:	89 45 e8             	mov    %eax,-0x18(%ebp)
    1eb8:	a1 10 0e 02 00       	mov    0x20e10,%eax
    1ebd:	85 c0                	test   %eax,%eax
    1ebf:	74 13                	je     1ed4 <task_spawnv+0x44>
    1ec1:	8d 5d e0             	lea    -0x20(%ebp),%ebx
    1ec4:	89 04 24             	mov    %eax,(%esp)
    1ec7:	89 5c 24 04          	mov    %ebx,0x4(%esp)
    1ecb:	e8 50 29 00 00       	call   4820 <fhandle>
    1ed0:	85 c0                	test   %eax,%eax
    1ed2:	74 54                	je     1f28 <task_spawnv+0x98>
    1ed4:	31 c0                	xor    %eax,%eax
    1ed6:	89 45 ec             	mov    %eax,-0x14(%ebp)
    1ed9:	a1 0c 0e 02 00       	mov    0x20e0c,%eax
    1ede:	85 c0                	test   %eax,%eax
    1ee0:	74 13                	je     1ef5 <task_spawnv+0x65>
    1ee2:	8d 5d e4             	lea    -0x1c(%ebp),%ebx
    1ee5:	89 04 24             	mov    %eax,(%esp)
    1ee8:	89 5c 24 04          	mov    %ebx,0x4(%esp)
    1eec:	e8 2f 29 00 00       	call   4820 <fhandle>
    1ef1:	85 c0                	test   %eax,%eax
    1ef3:	74 43                	je     1f38 <task_spawnv+0xa8>
    1ef5:	31 c0                	xor    %eax,%eax
    1ef7:	89 45 f0             	mov    %eax,-0x10(%ebp)
    1efa:	8d 45 e8             	lea    -0x18(%ebp),%eax
    1efd:	89 44 24 0c          	mov    %eax,0xc(%esp)
    1f01:	8b 45 10             	mov    0x10(%ebp),%eax
    1f04:	89 44 24 08          	mov    %eax,0x8(%esp)
    1f08:	8b 45 0c             	mov    0xc(%ebp),%eax
    1f0b:	89 44 24 04          	mov    %eax,0x4(%esp)
    1f0f:	8b 45 08             	mov    0x8(%ebp),%eax
    1f12:	89 04 24             	mov    %eax,(%esp)
    1f15:	c7 45 f4 00 00 00 00 	movl   $0x0,-0xc(%ebp)
    1f1c:	e8 9f fe ff ff       	call   1dc0 <task_spawnvf>
    1f21:	83 c4 34             	add    $0x34,%esp
    1f24:	5b                   	pop    %ebx
    1f25:	5d                   	pop    %ebp
    1f26:	c3                   	ret    
    1f27:	90                   	nop
    1f28:	89 d8                	mov    %ebx,%eax
    1f2a:	eb aa                	jmp    1ed6 <task_spawnv+0x46>
    1f2c:	8d 74 26 00          	lea    0x0(%esi,%eiz,1),%esi
    1f30:	89 d8                	mov    %ebx,%eax
    1f32:	eb 81                	jmp    1eb5 <task_spawnv+0x25>
    1f34:	8d 74 26 00          	lea    0x0(%esi,%eiz,1),%esi
    1f38:	89 d8                	mov    %ebx,%eax
    1f3a:	eb bb                	jmp    1ef7 <task_spawnv+0x67>
    1f3c:	8d 74 26 00          	lea    0x0(%esi,%eiz,1),%esi

00001f40 <task_spawn>:
    1f40:	55                   	push   %ebp
    1f41:	89 e5                	mov    %esp,%ebp
    1f43:	56                   	push   %esi
    1f44:	53                   	push   %ebx
    1f45:	83 ec 40             	sub    $0x40,%esp
    1f48:	8b 45 10             	mov    0x10(%ebp),%eax
    1f4b:	8b 75 14             	mov    0x14(%ebp),%esi
    1f4e:	c1 e0 02             	shl    $0x2,%eax
    1f51:	89 04 24             	mov    %eax,(%esp)
    1f54:	e8 17 7e 00 00       	call   9d70 <malloc>
    1f59:	89 c3                	mov    %eax,%ebx
    1f5b:	85 c0                	test   %eax,%eax
    1f5d:	0f 84 c9 00 00 00    	je     202c <task_spawn+0xec>
    1f63:	31 d2                	xor    %edx,%edx
    1f65:	8d 76 00             	lea    0x0(%esi),%esi
    1f68:	8b 0c 96             	mov    (%esi,%edx,4),%ecx
    1f6b:	89 0c 93             	mov    %ecx,(%ebx,%edx,4)
    1f6e:	42                   	inc    %edx
    1f6f:	85 c9                	test   %ecx,%ecx
    1f71:	75 f5                	jne    1f68 <task_spawn+0x28>
    1f73:	a1 14 0e 02 00       	mov    0x20e14,%eax
    1f78:	85 c0                	test   %eax,%eax
    1f7a:	74 17                	je     1f93 <task_spawn+0x53>
    1f7c:	8d 75 dc             	lea    -0x24(%ebp),%esi
    1f7f:	89 04 24             	mov    %eax,(%esp)
    1f82:	89 74 24 04          	mov    %esi,0x4(%esp)
    1f86:	e8 95 28 00 00       	call   4820 <fhandle>
    1f8b:	85 c0                	test   %eax,%eax
    1f8d:	0f 84 8d 00 00 00    	je     2020 <task_spawn+0xe0>
    1f93:	31 c0                	xor    %eax,%eax
    1f95:	89 45 e8             	mov    %eax,-0x18(%ebp)
    1f98:	a1 10 0e 02 00       	mov    0x20e10,%eax
    1f9d:	85 c0                	test   %eax,%eax
    1f9f:	74 13                	je     1fb4 <task_spawn+0x74>
    1fa1:	8d 75 e0             	lea    -0x20(%ebp),%esi
    1fa4:	89 04 24             	mov    %eax,(%esp)
    1fa7:	89 74 24 04          	mov    %esi,0x4(%esp)
    1fab:	e8 70 28 00 00       	call   4820 <fhandle>
    1fb0:	85 c0                	test   %eax,%eax
    1fb2:	74 64                	je     2018 <task_spawn+0xd8>
    1fb4:	31 c0                	xor    %eax,%eax
    1fb6:	89 45 ec             	mov    %eax,-0x14(%ebp)
    1fb9:	a1 0c 0e 02 00       	mov    0x20e0c,%eax
    1fbe:	85 c0                	test   %eax,%eax
    1fc0:	74 13                	je     1fd5 <task_spawn+0x95>
    1fc2:	8d 75 e4             	lea    -0x1c(%ebp),%esi
    1fc5:	89 04 24             	mov    %eax,(%esp)
    1fc8:	89 74 24 04          	mov    %esi,0x4(%esp)
    1fcc:	e8 4f 28 00 00       	call   4820 <fhandle>
    1fd1:	85 c0                	test   %eax,%eax
    1fd3:	74 53                	je     2028 <task_spawn+0xe8>
    1fd5:	31 c0                	xor    %eax,%eax
    1fd7:	89 45 f0             	mov    %eax,-0x10(%ebp)
    1fda:	8d 45 e8             	lea    -0x18(%ebp),%eax
    1fdd:	89 44 24 0c          	mov    %eax,0xc(%esp)
    1fe1:	8b 45 0c             	mov    0xc(%ebp),%eax
    1fe4:	89 44 24 04          	mov    %eax,0x4(%esp)
    1fe8:	8b 45 08             	mov    0x8(%ebp),%eax
    1feb:	89 5c 24 08          	mov    %ebx,0x8(%esp)
    1fef:	89 04 24             	mov    %eax,(%esp)
    1ff2:	c7 45 f4 00 00 00 00 	movl   $0x0,-0xc(%ebp)
    1ff9:	e8 c2 fd ff ff       	call   1dc0 <task_spawnvf>
    1ffe:	89 1c 24             	mov    %ebx,(%esp)
    2001:	89 45 d4             	mov    %eax,-0x2c(%ebp)
    2004:	e8 77 7e 00 00       	call   9e80 <free>
    2009:	8b 45 d4             	mov    -0x2c(%ebp),%eax
    200c:	83 c4 40             	add    $0x40,%esp
    200f:	5b                   	pop    %ebx
    2010:	5e                   	pop    %esi
    2011:	5d                   	pop    %ebp
    2012:	c3                   	ret    
    2013:	90                   	nop
    2014:	8d 74 26 00          	lea    0x0(%esi,%eiz,1),%esi
    2018:	89 f0                	mov    %esi,%eax
    201a:	eb 9a                	jmp    1fb6 <task_spawn+0x76>
    201c:	8d 74 26 00          	lea    0x0(%esi,%eiz,1),%esi
    2020:	89 f0                	mov    %esi,%eax
    2022:	e9 6e ff ff ff       	jmp    1f95 <task_spawn+0x55>
    2027:	90                   	nop
    2028:	89 f0                	mov    %esi,%eax
    202a:	eb ab                	jmp    1fd7 <task_spawn+0x97>
    202c:	b8 fe ff ff ff       	mov    $0xfffffffe,%eax
    2031:	eb d9                	jmp    200c <task_spawn+0xcc>
    2033:	8d b6 00 00 00 00    	lea    0x0(%esi),%esi
    2039:	8d bc 27 00 00 00 00 	lea    0x0(%edi,%eiz,1),%edi

00002040 <task_spawnl>:
    2040:	55                   	push   %ebp
    2041:	31 d2                	xor    %edx,%edx
    2043:	89 e5                	mov    %esp,%ebp
    2045:	56                   	push   %esi
    2046:	53                   	push   %ebx
    2047:	83 ec 40             	sub    $0x40,%esp
    204a:	8d 45 10             	lea    0x10(%ebp),%eax
    204d:	8d 76 00             	lea    0x0(%esi),%esi
    2050:	83 c0 04             	add    $0x4,%eax
    2053:	42                   	inc    %edx
    2054:	8b 48 fc             	mov    -0x4(%eax),%ecx
    2057:	85 c9                	test   %ecx,%ecx
    2059:	75 f5                	jne    2050 <task_spawnl+0x10>
    205b:	c1 e2 02             	shl    $0x2,%edx
    205e:	89 14 24             	mov    %edx,(%esp)
    2061:	e8 0a 7d 00 00       	call   9d70 <malloc>
    2066:	89 c3                	mov    %eax,%ebx
    2068:	85 c0                	test   %eax,%eax
    206a:	0f 84 cc 00 00 00    	je     213c <task_spawnl+0xfc>
    2070:	31 d2                	xor    %edx,%edx
    2072:	8d b6 00 00 00 00    	lea    0x0(%esi),%esi
    2078:	8b 4c 95 10          	mov    0x10(%ebp,%edx,4),%ecx
    207c:	89 0c 93             	mov    %ecx,(%ebx,%edx,4)
    207f:	42                   	inc    %edx
    2080:	85 c9                	test   %ecx,%ecx
    2082:	75 f4                	jne    2078 <task_spawnl+0x38>
    2084:	a1 14 0e 02 00       	mov    0x20e14,%eax
    2089:	85 c0                	test   %eax,%eax
    208b:	74 17                	je     20a4 <task_spawnl+0x64>
    208d:	8d 75 dc             	lea    -0x24(%ebp),%esi
    2090:	89 04 24             	mov    %eax,(%esp)
    2093:	89 74 24 04          	mov    %esi,0x4(%esp)
    2097:	e8 84 27 00 00       	call   4820 <fhandle>
    209c:	85 c0                	test   %eax,%eax
    209e:	0f 84 8c 00 00 00    	je     2130 <task_spawnl+0xf0>
    20a4:	31 c0                	xor    %eax,%eax
    20a6:	89 45 e8             	mov    %eax,-0x18(%ebp)
    20a9:	a1 10 0e 02 00       	mov    0x20e10,%eax
    20ae:	85 c0                	test   %eax,%eax
    20b0:	74 13                	je     20c5 <task_spawnl+0x85>
    20b2:	8d 75 e0             	lea    -0x20(%ebp),%esi
    20b5:	89 04 24             	mov    %eax,(%esp)
    20b8:	89 74 24 04          	mov    %esi,0x4(%esp)
    20bc:	e8 5f 27 00 00       	call   4820 <fhandle>
    20c1:	85 c0                	test   %eax,%eax
    20c3:	74 63                	je     2128 <task_spawnl+0xe8>
    20c5:	31 c0                	xor    %eax,%eax
    20c7:	89 45 ec             	mov    %eax,-0x14(%ebp)
    20ca:	a1 0c 0e 02 00       	mov    0x20e0c,%eax
    20cf:	85 c0                	test   %eax,%eax
    20d1:	74 13                	je     20e6 <task_spawnl+0xa6>
    20d3:	8d 75 e4             	lea    -0x1c(%ebp),%esi
    20d6:	89 04 24             	mov    %eax,(%esp)
    20d9:	89 74 24 04          	mov    %esi,0x4(%esp)
    20dd:	e8 3e 27 00 00       	call   4820 <fhandle>
    20e2:	85 c0                	test   %eax,%eax
    20e4:	74 52                	je     2138 <task_spawnl+0xf8>
    20e6:	31 c0                	xor    %eax,%eax
    20e8:	89 45 f0             	mov    %eax,-0x10(%ebp)
    20eb:	8d 45 e8             	lea    -0x18(%ebp),%eax
    20ee:	89 44 24 0c          	mov    %eax,0xc(%esp)
    20f2:	8b 45 0c             	mov    0xc(%ebp),%eax
    20f5:	89 44 24 04          	mov    %eax,0x4(%esp)
    20f9:	8b 45 08             	mov    0x8(%ebp),%eax
    20fc:	89 5c 24 08          	mov    %ebx,0x8(%esp)
    2100:	89 04 24             	mov    %eax,(%esp)
    2103:	c7 45 f4 00 00 00 00 	movl   $0x0,-0xc(%ebp)
    210a:	e8 b1 fc ff ff       	call   1dc0 <task_spawnvf>
    210f:	89 1c 24             	mov    %ebx,(%esp)
    2112:	89 45 d4             	mov    %eax,-0x2c(%ebp)
    2115:	e8 66 7d 00 00       	call   9e80 <free>
    211a:	8b 45 d4             	mov    -0x2c(%ebp),%eax
    211d:	83 c4 40             	add    $0x40,%esp
    2120:	5b                   	pop    %ebx
    2121:	5e                   	pop    %esi
    2122:	5d                   	pop    %ebp
    2123:	c3                   	ret    
    2124:	8d 74 26 00          	lea    0x0(%esi,%eiz,1),%esi
    2128:	89 f0                	mov    %esi,%eax
    212a:	eb 9b                	jmp    20c7 <task_spawnl+0x87>
    212c:	8d 74 26 00          	lea    0x0(%esi,%eiz,1),%esi
    2130:	89 f0                	mov    %esi,%eax
    2132:	e9 6f ff ff ff       	jmp    20a6 <task_spawnl+0x66>
    2137:	90                   	nop
    2138:	89 f0                	mov    %esi,%eax
    213a:	eb ac                	jmp    20e8 <task_spawnl+0xa8>
    213c:	b8 fe ff ff ff       	mov    $0xfffffffe,%eax
    2141:	eb da                	jmp    211d <task_spawnl+0xdd>
    2143:	8d b6 00 00 00 00    	lea    0x0(%esi),%esi
    2149:	8d bc 27 00 00 00 00 	lea    0x0(%edi,%eiz,1),%edi

00002150 <task_wait>:
    2150:	55                   	push   %ebp
    2151:	89 e5                	mov    %esp,%ebp
    2153:	57                   	push   %edi
    2154:	56                   	push   %esi
    2155:	53                   	push   %ebx
    2156:	83 ec 5c             	sub    $0x5c,%esp
    2159:	8b 45 10             	mov    0x10(%ebp),%eax
    215c:	8b 75 08             	mov    0x8(%ebp),%esi
    215f:	8b 5d 0c             	mov    0xc(%ebp),%ebx
    2162:	85 c0                	test   %eax,%eax
    2164:	0f 84 8e 00 00 00    	je     21f8 <task_wait+0xa8>
    216a:	8b 7d 14             	mov    0x14(%ebp),%edi
    216d:	85 ff                	test   %edi,%edi
    216f:	0f 84 9f 00 00 00    	je     2214 <task_wait+0xc4>
    2175:	a1 fc 0d 02 00       	mov    0x20dfc,%eax
    217a:	89 04 24             	mov    %eax,(%esp)
    217d:	e8 2e b1 00 00       	call   d2b0 <async_exchange_begin>
    2182:	89 5c 24 0c          	mov    %ebx,0xc(%esp)
    2186:	89 c7                	mov    %eax,%edi
    2188:	8d 45 e4             	lea    -0x1c(%ebp),%eax
    218b:	89 44 24 1c          	mov    %eax,0x1c(%esp)
    218f:	8d 45 e0             	lea    -0x20(%ebp),%eax
    2192:	89 74 24 08          	mov    %esi,0x8(%esp)
    2196:	89 3c 24             	mov    %edi,(%esp)
    2199:	c7 44 24 28 00 00 00 	movl   $0x0,0x28(%esp)
    21a0:	00 
    21a1:	c7 44 24 24 00 00 00 	movl   $0x0,0x24(%esp)
    21a8:	00 
    21a9:	c7 44 24 20 00 00 00 	movl   $0x0,0x20(%esp)
    21b0:	00 
    21b1:	89 44 24 18          	mov    %eax,0x18(%esp)
    21b5:	c7 44 24 14 00 00 00 	movl   $0x0,0x14(%esp)
    21bc:	00 
    21bd:	c7 44 24 10 00 00 00 	movl   $0x0,0x10(%esp)
    21c4:	00 
    21c5:	c7 44 24 04 01 04 00 	movl   $0x401,0x4(%esp)
    21cc:	00 
    21cd:	e8 8e a0 00 00       	call   c260 <async_req_fast>
    21d2:	89 3c 24             	mov    %edi,(%esp)
    21d5:	89 45 d4             	mov    %eax,-0x2c(%ebp)
    21d8:	e8 43 b4 00 00       	call   d620 <async_exchange_end>
    21dd:	8b 4d 10             	mov    0x10(%ebp),%ecx
    21e0:	8b 55 e0             	mov    -0x20(%ebp),%edx
    21e3:	8b 45 d4             	mov    -0x2c(%ebp),%eax
    21e6:	89 11                	mov    %edx,(%ecx)
    21e8:	8b 4d 14             	mov    0x14(%ebp),%ecx
    21eb:	8b 55 e4             	mov    -0x1c(%ebp),%edx
    21ee:	89 11                	mov    %edx,(%ecx)
    21f0:	83 c4 5c             	add    $0x5c,%esp
    21f3:	5b                   	pop    %ebx
    21f4:	5e                   	pop    %esi
    21f5:	5f                   	pop    %edi
    21f6:	5d                   	pop    %ebp
    21f7:	c3                   	ret    
    21f8:	c7 44 24 08 10 01 00 	movl   $0x110,0x8(%esp)
    21ff:	00 
    2200:	c7 44 24 04 88 e2 01 	movl   $0x1e288,0x4(%esp)
    2207:	00 
    2208:	c7 04 24 9c e2 01 00 	movl   $0x1e29c,(%esp)
    220f:	e8 fc 21 01 00       	call   14410 <assert_abort>
    2214:	c7 44 24 08 11 01 00 	movl   $0x111,0x8(%esp)
    221b:	00 
    221c:	c7 44 24 04 88 e2 01 	movl   $0x1e288,0x4(%esp)
    2223:	00 
    2224:	c7 04 24 a2 e2 01 00 	movl   $0x1e2a2,(%esp)
    222b:	e8 e0 21 01 00       	call   14410 <assert_abort>

00002230 <task_retval>:
    2230:	55                   	push   %ebp
    2231:	89 e5                	mov    %esp,%ebp
    2233:	53                   	push   %ebx
    2234:	83 ec 44             	sub    $0x44,%esp
    2237:	a1 fc 0d 02 00       	mov    0x20dfc,%eax
    223c:	89 04 24             	mov    %eax,(%esp)
    223f:	e8 6c b0 00 00       	call   d2b0 <async_exchange_begin>
    2244:	c7 44 24 28 00 00 00 	movl   $0x0,0x28(%esp)
    224b:	00 
    224c:	89 c3                	mov    %eax,%ebx
    224e:	8b 45 08             	mov    0x8(%ebp),%eax
    2251:	89 1c 24             	mov    %ebx,(%esp)
    2254:	c7 44 24 24 00 00 00 	movl   $0x0,0x24(%esp)
    225b:	00 
    225c:	c7 44 24 20 00 00 00 	movl   $0x0,0x20(%esp)
    2263:	00 
    2264:	c7 44 24 1c 00 00 00 	movl   $0x0,0x1c(%esp)
    226b:	00 
    226c:	c7 44 24 18 00 00 00 	movl   $0x0,0x18(%esp)
    2273:	00 
    2274:	c7 44 24 14 00 00 00 	movl   $0x0,0x14(%esp)
    227b:	00 
    227c:	c7 44 24 10 00 00 00 	movl   $0x0,0x10(%esp)
    2283:	00 
    2284:	c7 44 24 0c 00 00 00 	movl   $0x0,0xc(%esp)
    228b:	00 
    228c:	89 44 24 08          	mov    %eax,0x8(%esp)
    2290:	c7 44 24 04 03 04 00 	movl   $0x403,0x4(%esp)
    2297:	00 
    2298:	e8 c3 9f 00 00       	call   c260 <async_req_fast>
    229d:	89 1c 24             	mov    %ebx,(%esp)
    22a0:	89 45 f4             	mov    %eax,-0xc(%ebp)
    22a3:	e8 78 b3 00 00       	call   d620 <async_exchange_end>
    22a8:	8b 45 f4             	mov    -0xc(%ebp),%eax
    22ab:	83 c4 44             	add    $0x44,%esp
    22ae:	5b                   	pop    %ebx
    22af:	5d                   	pop    %ebp
    22b0:	c3                   	ret    
    22b1:	66 90                	xchg   %ax,%ax
    22b3:	66 90                	xchg   %ax,%ax
    22b5:	66 90                	xchg   %ax,%ax
    22b7:	66 90                	xchg   %ax,%ax
    22b9:	66 90                	xchg   %ax,%ax
    22bb:	66 90                	xchg   %ax,%ax
    22bd:	66 90                	xchg   %ax,%ax
    22bf:	90                   	nop

000022c0 <futex_initialize>:
    22c0:	55                   	push   %ebp
    22c1:	89 e5                	mov    %esp,%ebp
    22c3:	8b 45 08             	mov    0x8(%ebp),%eax
    22c6:	8b 55 0c             	mov    0xc(%ebp),%edx
    22c9:	89 10                	mov    %edx,(%eax)
    22cb:	5d                   	pop    %ebp
    22cc:	c3                   	ret    
    22cd:	8d 76 00             	lea    0x0(%esi),%esi

000022d0 <futex_trydown>:
    22d0:	55                   	push   %ebp
    22d1:	31 c9                	xor    %ecx,%ecx
    22d3:	89 e5                	mov    %esp,%ebp
    22d5:	b8 01 00 00 00       	mov    $0x1,%eax
    22da:	8b 55 08             	mov    0x8(%ebp),%edx
    22dd:	f0 0f b1 0a          	lock cmpxchg %ecx,(%edx)
    22e1:	0f 94 c0             	sete   %al
    22e4:	25 ff 00 00 00       	and    $0xff,%eax
    22e9:	5d                   	pop    %ebp
    22ea:	c3                   	ret    
    22eb:	90                   	nop
    22ec:	8d 74 26 00          	lea    0x0(%esi,%eiz,1),%esi

000022f0 <futex_down>:
    22f0:	55                   	push   %ebp
    22f1:	83 ca ff             	or     $0xffffffff,%edx
    22f4:	89 e5                	mov    %esp,%ebp
    22f6:	83 ec 28             	sub    $0x28,%esp
    22f9:	8b 4d 08             	mov    0x8(%ebp),%ecx
    22fc:	f0 0f c1 11          	lock xadd %edx,(%ecx)
    2300:	31 c0                	xor    %eax,%eax
    2302:	4a                   	dec    %edx
    2303:	78 03                	js     2308 <futex_down+0x18>
    2305:	c9                   	leave  
    2306:	c3                   	ret    
    2307:	90                   	nop
    2308:	c7 44 24 18 0c 00 00 	movl   $0xc,0x18(%esp)
    230f:	00 
    2310:	c7 44 24 14 00 00 00 	movl   $0x0,0x14(%esp)
    2317:	00 
    2318:	c7 44 24 10 00 00 00 	movl   $0x0,0x10(%esp)
    231f:	00 
    2320:	c7 44 24 0c 00 00 00 	movl   $0x0,0xc(%esp)
    2327:	00 
    2328:	c7 44 24 08 00 00 00 	movl   $0x0,0x8(%esp)
    232f:	00 
    2330:	c7 44 24 04 00 00 00 	movl   $0x0,0x4(%esp)
    2337:	00 
    2338:	89 0c 24             	mov    %ecx,(%esp)
    233b:	ff 15 74 0d 02 00    	call   *0x20d74
    2341:	c9                   	leave  
    2342:	c3                   	ret    
    2343:	8d b6 00 00 00 00    	lea    0x0(%esi),%esi
    2349:	8d bc 27 00 00 00 00 	lea    0x0(%edi,%eiz,1),%edi

00002350 <futex_up>:
    2350:	55                   	push   %ebp
    2351:	ba 01 00 00 00       	mov    $0x1,%edx
    2356:	89 e5                	mov    %esp,%ebp
    2358:	83 ec 28             	sub    $0x28,%esp
    235b:	8b 4d 08             	mov    0x8(%ebp),%ecx
    235e:	f0 0f c1 11          	lock xadd %edx,(%ecx)
    2362:	31 c0                	xor    %eax,%eax
    2364:	85 d2                	test   %edx,%edx
    2366:	78 08                	js     2370 <futex_up+0x20>
    2368:	c9                   	leave  
    2369:	c3                   	ret    
    236a:	8d b6 00 00 00 00    	lea    0x0(%esi),%esi
    2370:	c7 44 24 18 0d 00 00 	movl   $0xd,0x18(%esp)
    2377:	00 
    2378:	c7 44 24 14 00 00 00 	movl   $0x0,0x14(%esp)
    237f:	00 
    2380:	c7 44 24 10 00 00 00 	movl   $0x0,0x10(%esp)
    2387:	00 
    2388:	c7 44 24 0c 00 00 00 	movl   $0x0,0xc(%esp)
    238f:	00 
    2390:	c7 44 24 08 00 00 00 	movl   $0x0,0x8(%esp)
    2397:	00 
    2398:	c7 44 24 04 00 00 00 	movl   $0x0,0x4(%esp)
    239f:	00 
    23a0:	89 0c 24             	mov    %ecx,(%esp)
    23a3:	ff 15 74 0d 02 00    	call   *0x20d74
    23a9:	c9                   	leave  
    23aa:	c3                   	ret    
    23ab:	66 90                	xchg   %ax,%ax
    23ad:	66 90                	xchg   %ax,%ax
    23af:	90                   	nop

000023b0 <_fwrite>:
    23b0:	55                   	push   %ebp
    23b1:	89 e5                	mov    %esp,%ebp
    23b3:	57                   	push   %edi
    23b4:	56                   	push   %esi
    23b5:	53                   	push   %ebx
    23b6:	83 ec 2c             	sub    $0x2c,%esp
    23b9:	89 45 e4             	mov    %eax,-0x1c(%ebp)
    23bc:	89 55 e0             	mov    %edx,-0x20(%ebp)
    23bf:	8b 7d 08             	mov    0x8(%ebp),%edi
    23c2:	85 c9                	test   %ecx,%ecx
    23c4:	0f 84 9e 00 00 00    	je     2468 <_fwrite+0xb8>
    23ca:	85 d2                	test   %edx,%edx
    23cc:	0f 84 96 00 00 00    	je     2468 <_fwrite+0xb8>
    23d2:	89 d6                	mov    %edx,%esi
    23d4:	0f af f1             	imul   %ecx,%esi
    23d7:	85 f6                	test   %esi,%esi
    23d9:	0f 84 93 00 00 00    	je     2472 <_fwrite+0xc2>
    23df:	8b 4f 0c             	mov    0xc(%edi),%ecx
    23e2:	85 c9                	test   %ecx,%ecx
    23e4:	0f 85 88 00 00 00    	jne    2472 <_fwrite+0xc2>
    23ea:	31 db                	xor    %ebx,%ebx
    23ec:	eb 26                	jmp    2414 <_fwrite+0x64>
    23ee:	66 90                	xchg   %ax,%ax
    23f0:	8b 45 e4             	mov    -0x1c(%ebp),%eax
    23f3:	89 74 24 04          	mov    %esi,0x4(%esp)
    23f7:	01 d8                	add    %ebx,%eax
    23f9:	89 04 24             	mov    %eax,(%esp)
    23fc:	e8 1f 2c 00 00       	call   5020 <klog_write>
    2401:	85 c0                	test   %eax,%eax
    2403:	7e 32                	jle    2437 <_fwrite+0x87>
    2405:	29 c6                	sub    %eax,%esi
    2407:	01 c3                	add    %eax,%ebx
    2409:	85 f6                	test   %esi,%esi
    240b:	74 3b                	je     2448 <_fwrite+0x98>
    240d:	8b 47 0c             	mov    0xc(%edi),%eax
    2410:	85 c0                	test   %eax,%eax
    2412:	75 34                	jne    2448 <_fwrite+0x98>
    2414:	8b 57 14             	mov    0x14(%edi),%edx
    2417:	85 d2                	test   %edx,%edx
    2419:	75 d5                	jne    23f0 <_fwrite+0x40>
    241b:	8b 45 e4             	mov    -0x1c(%ebp),%eax
    241e:	89 74 24 08          	mov    %esi,0x8(%esp)
    2422:	01 d8                	add    %ebx,%eax
    2424:	89 44 24 04          	mov    %eax,0x4(%esp)
    2428:	8b 47 08             	mov    0x8(%edi),%eax
    242b:	89 04 24             	mov    %eax,(%esp)
    242e:	e8 4d 04 01 00       	call   12880 <write>
    2433:	85 c0                	test   %eax,%eax
    2435:	7f ce                	jg     2405 <_fwrite+0x55>
    2437:	c7 47 0c 01 00 00 00 	movl   $0x1,0xc(%edi)
    243e:	85 f6                	test   %esi,%esi
    2440:	75 cb                	jne    240d <_fwrite+0x5d>
    2442:	8d b6 00 00 00 00    	lea    0x0(%esi),%esi
    2448:	89 d8                	mov    %ebx,%eax
    244a:	85 db                	test   %ebx,%ebx
    244c:	74 09                	je     2457 <_fwrite+0xa7>
    244e:	c7 47 1c 01 00 00 00 	movl   $0x1,0x1c(%edi)
    2455:	89 d8                	mov    %ebx,%eax
    2457:	31 d2                	xor    %edx,%edx
    2459:	f7 75 e0             	divl   -0x20(%ebp)
    245c:	83 c4 2c             	add    $0x2c,%esp
    245f:	5b                   	pop    %ebx
    2460:	5e                   	pop    %esi
    2461:	5f                   	pop    %edi
    2462:	5d                   	pop    %ebp
    2463:	c3                   	ret    
    2464:	8d 74 26 00          	lea    0x0(%esi,%eiz,1),%esi
    2468:	83 c4 2c             	add    $0x2c,%esp
    246b:	31 c0                	xor    %eax,%eax
    246d:	5b                   	pop    %ebx
    246e:	5e                   	pop    %esi
    246f:	5f                   	pop    %edi
    2470:	5d                   	pop    %ebp
    2471:	c3                   	ret    
    2472:	31 c0                	xor    %eax,%eax
    2474:	eb e1                	jmp    2457 <_fwrite+0xa7>
    2476:	8d 76 00             	lea    0x0(%esi),%esi
    2479:	8d bc 27 00 00 00 00 	lea    0x0(%edi,%eiz,1),%edi

00002480 <__stdio_init>:
    2480:	55                   	push   %ebp
    2481:	89 e5                	mov    %esp,%ebp
    2483:	56                   	push   %esi
    2484:	53                   	push   %ebx
    2485:	83 ec 10             	sub    $0x10,%esp
    2488:	8b 75 08             	mov    0x8(%ebp),%esi
    248b:	85 f6                	test   %esi,%esi
    248d:	0f 8e e5 01 00 00    	jle    2678 <__stdio_init+0x1f8>
    2493:	c7 04 24 38 00 00 00 	movl   $0x38,(%esp)
    249a:	e8 d1 78 00 00       	call   9d70 <malloc>
    249f:	89 c3                	mov    %eax,%ebx
    24a1:	85 c0                	test   %eax,%eax
    24a3:	0f 84 37 02 00 00    	je     26e0 <__stdio_init+0x260>
    24a9:	c7 40 08 00 00 00 00 	movl   $0x0,0x8(%eax)
    24b0:	c7 40 0c 00 00 00 00 	movl   $0x0,0xc(%eax)
    24b7:	c7 40 10 00 00 00 00 	movl   $0x0,0x10(%eax)
    24be:	c7 40 14 00 00 00 00 	movl   $0x0,0x14(%eax)
    24c5:	c7 40 18 00 00 00 00 	movl   $0x0,0x18(%eax)
    24cc:	c7 40 1c 00 00 00 00 	movl   $0x0,0x1c(%eax)
    24d3:	c7 40 20 00 00 00 00 	movl   $0x0,0x20(%eax)
    24da:	c7 40 24 00 00 00 00 	movl   $0x0,0x24(%eax)
    24e1:	c7 40 28 00 00 00 00 	movl   $0x0,0x28(%eax)
    24e8:	c7 40 30 00 00 00 00 	movl   $0x0,0x30(%eax)
    24ef:	c7 40 34 00 00 00 00 	movl   $0x0,0x34(%eax)
    24f6:	c7 40 2c 00 00 00 00 	movl   $0x0,0x2c(%eax)
    24fd:	c7 40 04 58 0c 02 00 	movl   $0x20c58,0x4(%eax)
    2504:	a1 58 0c 02 00       	mov    0x20c58,%eax
    2509:	89 03                	mov    %eax,(%ebx)
    250b:	89 1d 58 0c 02 00    	mov    %ebx,0x20c58
    2511:	89 58 04             	mov    %ebx,0x4(%eax)
    2514:	89 1d 14 0e 02 00    	mov    %ebx,0x20e14
    251a:	83 fe 01             	cmp    $0x1,%esi
    251d:	0f 84 dd 01 00 00    	je     2700 <__stdio_init+0x280>
    2523:	c7 04 24 38 00 00 00 	movl   $0x38,(%esp)
    252a:	e8 41 78 00 00       	call   9d70 <malloc>
    252f:	89 c3                	mov    %eax,%ebx
    2531:	85 c0                	test   %eax,%eax
    2533:	0f 84 b7 01 00 00    	je     26f0 <__stdio_init+0x270>
    2539:	c7 40 08 01 00 00 00 	movl   $0x1,0x8(%eax)
    2540:	c7 40 0c 00 00 00 00 	movl   $0x0,0xc(%eax)
    2547:	c7 40 10 00 00 00 00 	movl   $0x0,0x10(%eax)
    254e:	c7 40 14 00 00 00 00 	movl   $0x0,0x14(%eax)
    2555:	c7 40 18 00 00 00 00 	movl   $0x0,0x18(%eax)
    255c:	c7 40 1c 00 00 00 00 	movl   $0x0,0x1c(%eax)
    2563:	c7 40 20 01 00 00 00 	movl   $0x1,0x20(%eax)
    256a:	c7 40 24 00 00 00 00 	movl   $0x0,0x24(%eax)
    2571:	c7 40 28 00 10 00 00 	movl   $0x1000,0x28(%eax)
    2578:	c7 40 30 00 00 00 00 	movl   $0x0,0x30(%eax)
    257f:	c7 40 34 00 00 00 00 	movl   $0x0,0x34(%eax)
    2586:	c7 40 2c 00 00 00 00 	movl   $0x0,0x2c(%eax)
    258d:	c7 40 04 58 0c 02 00 	movl   $0x20c58,0x4(%eax)
    2594:	a1 58 0c 02 00       	mov    0x20c58,%eax
    2599:	89 03                	mov    %eax,(%ebx)
    259b:	89 1d 58 0c 02 00    	mov    %ebx,0x20c58
    25a1:	89 58 04             	mov    %ebx,0x4(%eax)
    25a4:	89 1d 10 0e 02 00    	mov    %ebx,0x20e10
    25aa:	a1 58 0c 02 00       	mov    0x20c58,%eax
    25af:	83 fe 02             	cmp    $0x2,%esi
    25b2:	75 34                	jne    25e8 <__stdio_init+0x168>
    25b4:	c7 05 a4 0c 02 00 58 	movl   $0x20c58,0x20ca4
    25bb:	0c 02 00 
    25be:	c7 05 0c 0e 02 00 a0 	movl   $0x20ca0,0x20e0c
    25c5:	0c 02 00 
    25c8:	c7 40 04 a0 0c 02 00 	movl   $0x20ca0,0x4(%eax)
    25cf:	a3 a0 0c 02 00       	mov    %eax,0x20ca0
    25d4:	c7 05 58 0c 02 00 a0 	movl   $0x20ca0,0x20c58
    25db:	0c 02 00 
    25de:	83 c4 10             	add    $0x10,%esp
    25e1:	5b                   	pop    %ebx
    25e2:	5e                   	pop    %esi
    25e3:	5d                   	pop    %ebp
    25e4:	c3                   	ret    
    25e5:	8d 76 00             	lea    0x0(%esi),%esi
    25e8:	c7 04 24 38 00 00 00 	movl   $0x38,(%esp)
    25ef:	e8 7c 77 00 00       	call   9d70 <malloc>
    25f4:	89 c3                	mov    %eax,%ebx
    25f6:	85 c0                	test   %eax,%eax
    25f8:	0f 84 ce 00 00 00    	je     26cc <__stdio_init+0x24c>
    25fe:	c7 40 08 02 00 00 00 	movl   $0x2,0x8(%eax)
    2605:	c7 40 0c 00 00 00 00 	movl   $0x0,0xc(%eax)
    260c:	c7 40 10 00 00 00 00 	movl   $0x0,0x10(%eax)
    2613:	c7 40 14 00 00 00 00 	movl   $0x0,0x14(%eax)
    261a:	c7 40 18 00 00 00 00 	movl   $0x0,0x18(%eax)
    2621:	c7 40 1c 00 00 00 00 	movl   $0x0,0x1c(%eax)
    2628:	c7 40 20 00 00 00 00 	movl   $0x0,0x20(%eax)
    262f:	c7 40 24 00 00 00 00 	movl   $0x0,0x24(%eax)
    2636:	c7 40 28 00 00 00 00 	movl   $0x0,0x28(%eax)
    263d:	c7 40 30 00 00 00 00 	movl   $0x0,0x30(%eax)
    2644:	c7 40 34 00 00 00 00 	movl   $0x0,0x34(%eax)
    264b:	c7 40 2c 00 00 00 00 	movl   $0x0,0x2c(%eax)
    2652:	c7 40 04 58 0c 02 00 	movl   $0x20c58,0x4(%eax)
    2659:	a1 58 0c 02 00       	mov    0x20c58,%eax
    265e:	89 03                	mov    %eax,(%ebx)
    2660:	89 1d 58 0c 02 00    	mov    %ebx,0x20c58
    2666:	89 58 04             	mov    %ebx,0x4(%eax)
    2669:	89 1d 0c 0e 02 00    	mov    %ebx,0x20e0c
    266f:	83 c4 10             	add    $0x10,%esp
    2672:	5b                   	pop    %ebx
    2673:	5e                   	pop    %esi
    2674:	5d                   	pop    %ebp
    2675:	c3                   	ret    
    2676:	66 90                	xchg   %ax,%ax
    2678:	a1 58 0c 02 00       	mov    0x20c58,%eax
    267d:	c7 05 24 0c 02 00 58 	movl   $0x20c58,0x20c24
    2684:	0c 02 00 
    2687:	a3 20 0c 02 00       	mov    %eax,0x20c20
    268c:	c7 05 14 0e 02 00 20 	movl   $0x20c20,0x20e14
    2693:	0c 02 00 
    2696:	c7 40 04 20 0c 02 00 	movl   $0x20c20,0x4(%eax)
    269d:	b8 20 0c 02 00       	mov    $0x20c20,%eax
    26a2:	c7 05 64 0c 02 00 58 	movl   $0x20c58,0x20c64
    26a9:	0c 02 00 
    26ac:	a3 60 0c 02 00       	mov    %eax,0x20c60
    26b1:	c7 40 04 60 0c 02 00 	movl   $0x20c60,0x4(%eax)
    26b8:	c7 05 10 0e 02 00 60 	movl   $0x20c60,0x20e10
    26bf:	0c 02 00 
    26c2:	b8 60 0c 02 00       	mov    $0x20c60,%eax
    26c7:	e9 e8 fe ff ff       	jmp    25b4 <__stdio_init+0x134>
    26cc:	e8 af 26 01 00       	call   14d80 <__errno>
    26d1:	c7 00 fe ff ff ff    	movl   $0xfffffffe,(%eax)
    26d7:	eb 90                	jmp    2669 <__stdio_init+0x1e9>
    26d9:	8d b4 26 00 00 00 00 	lea    0x0(%esi,%eiz,1),%esi
    26e0:	e8 9b 26 01 00       	call   14d80 <__errno>
    26e5:	c7 00 fe ff ff ff    	movl   $0xfffffffe,(%eax)
    26eb:	e9 24 fe ff ff       	jmp    2514 <__stdio_init+0x94>
    26f0:	e8 8b 26 01 00       	call   14d80 <__errno>
    26f5:	c7 00 fe ff ff ff    	movl   $0xfffffffe,(%eax)
    26fb:	e9 a4 fe ff ff       	jmp    25a4 <__stdio_init+0x124>
    2700:	a1 58 0c 02 00       	mov    0x20c58,%eax
    2705:	eb 9b                	jmp    26a2 <__stdio_init+0x222>
    2707:	89 f6                	mov    %esi,%esi
    2709:	8d bc 27 00 00 00 00 	lea    0x0(%edi,%eiz,1),%edi

00002710 <__stdio_done>:
    2710:	55                   	push   %ebp
    2711:	89 e5                	mov    %esp,%ebp
    2713:	57                   	push   %edi
    2714:	56                   	push   %esi
    2715:	53                   	push   %ebx
    2716:	83 ec 2c             	sub    $0x2c,%esp
    2719:	8d b4 26 00 00 00 00 	lea    0x0(%esi,%eiz,1),%esi
    2720:	8b 1d 5c 0c 02 00    	mov    0x20c5c,%ebx
    2726:	81 fb 58 0c 02 00    	cmp    $0x20c58,%ebx
    272c:	0f 84 e7 00 00 00    	je     2819 <__stdio_done+0x109>
    2732:	8b 43 24             	mov    0x24(%ebx),%eax
    2735:	85 c0                	test   %eax,%eax
    2737:	74 3b                	je     2774 <__stdio_done+0x64>
    2739:	8b 4b 20             	mov    0x20(%ebx),%ecx
    273c:	85 c9                	test   %ecx,%ecx
    273e:	74 34                	je     2774 <__stdio_done+0x64>
    2740:	8b 53 0c             	mov    0xc(%ebx),%edx
    2743:	85 d2                	test   %edx,%edx
    2745:	75 2d                	jne    2774 <__stdio_done+0x64>
    2747:	8b 4b 30             	mov    0x30(%ebx),%ecx
    274a:	89 cf                	mov    %ecx,%edi
    274c:	2b 7b 34             	sub    0x34(%ebx),%edi
    274f:	74 16                	je     2767 <__stdio_done+0x57>
    2751:	8b 43 2c             	mov    0x2c(%ebx),%eax
    2754:	83 f8 02             	cmp    $0x2,%eax
    2757:	0f 84 db 00 00 00    	je     2838 <__stdio_done+0x128>
    275d:	48                   	dec    %eax
    275e:	0f 84 04 01 00 00    	je     2868 <__stdio_done+0x158>
    2764:	8b 43 24             	mov    0x24(%ebx),%eax
    2767:	89 43 30             	mov    %eax,0x30(%ebx)
    276a:	89 43 34             	mov    %eax,0x34(%ebx)
    276d:	c7 43 2c 00 00 00 00 	movl   $0x0,0x2c(%ebx)
    2774:	8b 7b 14             	mov    0x14(%ebx),%edi
    2777:	85 ff                	test   %edi,%edi
    2779:	0f 85 a9 00 00 00    	jne    2828 <__stdio_done+0x118>
    277f:	8b 43 08             	mov    0x8(%ebx),%eax
    2782:	85 c0                	test   %eax,%eax
    2784:	78 16                	js     279c <__stdio_done+0x8c>
    2786:	8b 73 1c             	mov    0x1c(%ebx),%esi
    2789:	85 f6                	test   %esi,%esi
    278b:	74 0f                	je     279c <__stdio_done+0x8c>
    278d:	c7 43 1c 00 00 00 00 	movl   $0x0,0x1c(%ebx)
    2794:	89 04 24             	mov    %eax,(%esp)
    2797:	e8 c4 04 01 00       	call   12c60 <fsync>
    279c:	8b 43 18             	mov    0x18(%ebx),%eax
    279f:	85 c0                	test   %eax,%eax
    27a1:	74 08                	je     27ab <__stdio_done+0x9b>
    27a3:	89 04 24             	mov    %eax,(%esp)
    27a6:	e8 05 aa 00 00       	call   d1b0 <async_hangup>
    27ab:	8b 43 08             	mov    0x8(%ebx),%eax
    27ae:	85 c0                	test   %eax,%eax
    27b0:	78 08                	js     27ba <__stdio_done+0xaa>
    27b2:	89 04 24             	mov    %eax,(%esp)
    27b5:	e8 d6 fe 00 00       	call   12690 <close>
    27ba:	8b 13                	mov    (%ebx),%edx
    27bc:	85 d2                	test   %edx,%edx
    27be:	74 0e                	je     27ce <__stdio_done+0xbe>
    27c0:	8b 43 04             	mov    0x4(%ebx),%eax
    27c3:	85 c0                	test   %eax,%eax
    27c5:	74 07                	je     27ce <__stdio_done+0xbe>
    27c7:	89 10                	mov    %edx,(%eax)
    27c9:	8b 13                	mov    (%ebx),%edx
    27cb:	89 42 04             	mov    %eax,0x4(%edx)
    27ce:	c7 03 00 00 00 00    	movl   $0x0,(%ebx)
    27d4:	c7 43 04 00 00 00 00 	movl   $0x0,0x4(%ebx)
    27db:	81 fb 20 0c 02 00    	cmp    $0x20c20,%ebx
    27e1:	0f 84 39 ff ff ff    	je     2720 <__stdio_done+0x10>
    27e7:	81 fb 60 0c 02 00    	cmp    $0x20c60,%ebx
    27ed:	0f 84 2d ff ff ff    	je     2720 <__stdio_done+0x10>
    27f3:	81 fb a0 0c 02 00    	cmp    $0x20ca0,%ebx
    27f9:	0f 84 21 ff ff ff    	je     2720 <__stdio_done+0x10>
    27ff:	89 1c 24             	mov    %ebx,(%esp)
    2802:	e8 79 76 00 00       	call   9e80 <free>
    2807:	8b 1d 5c 0c 02 00    	mov    0x20c5c,%ebx
    280d:	81 fb 58 0c 02 00    	cmp    $0x20c58,%ebx
    2813:	0f 85 19 ff ff ff    	jne    2732 <__stdio_done+0x22>
    2819:	83 c4 2c             	add    $0x2c,%esp
    281c:	5b                   	pop    %ebx
    281d:	5e                   	pop    %esi
    281e:	5f                   	pop    %edi
    281f:	5d                   	pop    %ebp
    2820:	c3                   	ret    
    2821:	8d b4 26 00 00 00 00 	lea    0x0(%esi,%eiz,1),%esi
    2828:	e8 43 28 00 00       	call   5070 <klog_update>
    282d:	e9 6a ff ff ff       	jmp    279c <__stdio_done+0x8c>
    2832:	8d b6 00 00 00 00    	lea    0x0(%esi),%esi
    2838:	89 f8                	mov    %edi,%eax
    283a:	c7 44 24 0c 01 00 00 	movl   $0x1,0xc(%esp)
    2841:	00 
    2842:	f7 d8                	neg    %eax
    2844:	89 c2                	mov    %eax,%edx
    2846:	89 44 24 04          	mov    %eax,0x4(%esp)
    284a:	c1 fa 1f             	sar    $0x1f,%edx
    284d:	89 54 24 08          	mov    %edx,0x8(%esp)
    2851:	8b 43 08             	mov    0x8(%ebx),%eax
    2854:	89 04 24             	mov    %eax,(%esp)
    2857:	e8 e4 04 01 00       	call   12d40 <lseek>
    285c:	8b 43 2c             	mov    0x2c(%ebx),%eax
    285f:	48                   	dec    %eax
    2860:	0f 85 fe fe ff ff    	jne    2764 <__stdio_done+0x54>
    2866:	66 90                	xchg   %ax,%ax
    2868:	8b 53 34             	mov    0x34(%ebx),%edx
    286b:	31 f6                	xor    %esi,%esi
    286d:	89 55 e4             	mov    %edx,-0x1c(%ebp)
    2870:	eb 23                	jmp    2895 <__stdio_done+0x185>
    2872:	8d b6 00 00 00 00    	lea    0x0(%esi),%esi
    2878:	8b 45 e4             	mov    -0x1c(%ebp),%eax
    287b:	89 7c 24 04          	mov    %edi,0x4(%esp)
    287f:	01 f0                	add    %esi,%eax
    2881:	89 04 24             	mov    %eax,(%esp)
    2884:	e8 97 27 00 00       	call   5020 <klog_write>
    2889:	85 c0                	test   %eax,%eax
    288b:	7e 32                	jle    28bf <__stdio_done+0x1af>
    288d:	29 c7                	sub    %eax,%edi
    288f:	01 c6                	add    %eax,%esi
    2891:	85 ff                	test   %edi,%edi
    2893:	74 33                	je     28c8 <__stdio_done+0x1b8>
    2895:	8b 43 0c             	mov    0xc(%ebx),%eax
    2898:	85 c0                	test   %eax,%eax
    289a:	75 2c                	jne    28c8 <__stdio_done+0x1b8>
    289c:	8b 43 14             	mov    0x14(%ebx),%eax
    289f:	85 c0                	test   %eax,%eax
    28a1:	75 d5                	jne    2878 <__stdio_done+0x168>
    28a3:	8b 45 e4             	mov    -0x1c(%ebp),%eax
    28a6:	89 7c 24 08          	mov    %edi,0x8(%esp)
    28aa:	01 f0                	add    %esi,%eax
    28ac:	89 44 24 04          	mov    %eax,0x4(%esp)
    28b0:	8b 43 08             	mov    0x8(%ebx),%eax
    28b3:	89 04 24             	mov    %eax,(%esp)
    28b6:	e8 c5 ff 00 00       	call   12880 <write>
    28bb:	85 c0                	test   %eax,%eax
    28bd:	7f ce                	jg     288d <__stdio_done+0x17d>
    28bf:	c7 43 0c 01 00 00 00 	movl   $0x1,0xc(%ebx)
    28c6:	eb c9                	jmp    2891 <__stdio_done+0x181>
    28c8:	85 f6                	test   %esi,%esi
    28ca:	0f 84 94 fe ff ff    	je     2764 <__stdio_done+0x54>
    28d0:	c7 43 1c 01 00 00 00 	movl   $0x1,0x1c(%ebx)
    28d7:	e9 88 fe ff ff       	jmp    2764 <__stdio_done+0x54>
    28dc:	8d 74 26 00          	lea    0x0(%esi,%eiz,1),%esi

000028e0 <setvbuf>:
    28e0:	55                   	push   %ebp
    28e1:	89 e5                	mov    %esp,%ebp
    28e3:	8b 45 08             	mov    0x8(%ebp),%eax
    28e6:	8b 4d 10             	mov    0x10(%ebp),%ecx
    28e9:	8b 55 0c             	mov    0xc(%ebp),%edx
    28ec:	89 48 20             	mov    %ecx,0x20(%eax)
    28ef:	8b 4d 14             	mov    0x14(%ebp),%ecx
    28f2:	89 50 24             	mov    %edx,0x24(%eax)
    28f5:	89 48 28             	mov    %ecx,0x28(%eax)
    28f8:	89 50 30             	mov    %edx,0x30(%eax)
    28fb:	89 50 34             	mov    %edx,0x34(%eax)
    28fe:	c7 40 2c 00 00 00 00 	movl   $0x0,0x2c(%eax)
    2905:	5d                   	pop    %ebp
    2906:	c3                   	ret    
    2907:	89 f6                	mov    %esi,%esi
    2909:	8d bc 27 00 00 00 00 	lea    0x0(%edi,%eiz,1),%edi

00002910 <fopen>:
    2910:	55                   	push   %ebp
    2911:	89 e5                	mov    %esp,%ebp
    2913:	56                   	push   %esi
    2914:	53                   	push   %ebx
    2915:	83 ec 10             	sub    $0x10,%esp
    2918:	8b 45 0c             	mov    0xc(%ebp),%eax
    291b:	8a 08                	mov    (%eax),%cl
    291d:	84 c9                	test   %cl,%cl
    291f:	0f 84 0b 01 00 00    	je     2a30 <fopen+0x120>
    2925:	8a 50 01             	mov    0x1(%eax),%dl
    2928:	80 fa 74             	cmp    $0x74,%dl
    292b:	0f 85 17 01 00 00    	jne    2a48 <fopen+0x138>
    2931:	8a 50 02             	mov    0x2(%eax),%dl
    2934:	8d 58 02             	lea    0x2(%eax),%ebx
    2937:	31 c0                	xor    %eax,%eax
    2939:	80 fa 2b             	cmp    $0x2b,%dl
    293c:	0f 84 1d 01 00 00    	je     2a5f <fopen+0x14f>
    2942:	84 d2                	test   %dl,%dl
    2944:	0f 85 e6 00 00 00    	jne    2a30 <fopen+0x120>
    294a:	80 f9 72             	cmp    $0x72,%cl
    294d:	0f 84 6d 01 00 00    	je     2ac0 <fopen+0x1b0>
    2953:	80 f9 77             	cmp    $0x77,%cl
    2956:	0f 84 14 01 00 00    	je     2a70 <fopen+0x160>
    295c:	80 f9 61             	cmp    $0x61,%cl
    295f:	0f 85 cb 00 00 00    	jne    2a30 <fopen+0x120>
    2965:	be 49 00 00 00       	mov    $0x49,%esi
    296a:	84 c0                	test   %al,%al
    296c:	0f 85 5e 01 00 00    	jne    2ad0 <fopen+0x1c0>
    2972:	c7 04 24 38 00 00 00 	movl   $0x38,(%esp)
    2979:	e8 f2 73 00 00       	call   9d70 <malloc>
    297e:	89 c3                	mov    %eax,%ebx
    2980:	85 c0                	test   %eax,%eax
    2982:	0f 84 58 01 00 00    	je     2ae0 <fopen+0x1d0>
    2988:	8b 45 08             	mov    0x8(%ebp),%eax
    298b:	c7 44 24 08 b6 01 00 	movl   $0x1b6,0x8(%esp)
    2992:	00 
    2993:	89 74 24 04          	mov    %esi,0x4(%esp)
    2997:	89 04 24             	mov    %eax,(%esp)
    299a:	e8 b1 fb 00 00       	call   12550 <open>
    299f:	89 43 08             	mov    %eax,0x8(%ebx)
    29a2:	85 c0                	test   %eax,%eax
    29a4:	0f 88 46 01 00 00    	js     2af0 <fopen+0x1e0>
    29aa:	c7 43 0c 00 00 00 00 	movl   $0x0,0xc(%ebx)
    29b1:	c7 43 10 00 00 00 00 	movl   $0x0,0x10(%ebx)
    29b8:	c7 43 14 00 00 00 00 	movl   $0x0,0x14(%ebx)
    29bf:	c7 43 18 00 00 00 00 	movl   $0x0,0x18(%ebx)
    29c6:	c7 43 1c 00 00 00 00 	movl   $0x0,0x1c(%ebx)
    29cd:	83 f8 01             	cmp    $0x1,%eax
    29d0:	0f 84 aa 00 00 00    	je     2a80 <fopen+0x170>
    29d6:	83 f8 02             	cmp    $0x2,%eax
    29d9:	74 08                	je     29e3 <fopen+0xd3>
    29db:	85 c0                	test   %eax,%eax
    29dd:	0f 85 cd 00 00 00    	jne    2ab0 <fopen+0x1a0>
    29e3:	c7 43 20 00 00 00 00 	movl   $0x0,0x20(%ebx)
    29ea:	c7 43 24 00 00 00 00 	movl   $0x0,0x24(%ebx)
    29f1:	c7 43 28 00 00 00 00 	movl   $0x0,0x28(%ebx)
    29f8:	c7 43 30 00 00 00 00 	movl   $0x0,0x30(%ebx)
    29ff:	c7 43 34 00 00 00 00 	movl   $0x0,0x34(%ebx)
    2a06:	c7 43 2c 00 00 00 00 	movl   $0x0,0x2c(%ebx)
    2a0d:	a1 58 0c 02 00       	mov    0x20c58,%eax
    2a12:	c7 43 04 58 0c 02 00 	movl   $0x20c58,0x4(%ebx)
    2a19:	89 03                	mov    %eax,(%ebx)
    2a1b:	89 1d 58 0c 02 00    	mov    %ebx,0x20c58
    2a21:	89 58 04             	mov    %ebx,0x4(%eax)
    2a24:	83 c4 10             	add    $0x10,%esp
    2a27:	89 d8                	mov    %ebx,%eax
    2a29:	5b                   	pop    %ebx
    2a2a:	5e                   	pop    %esi
    2a2b:	5d                   	pop    %ebp
    2a2c:	c3                   	ret    
    2a2d:	8d 76 00             	lea    0x0(%esi),%esi
    2a30:	e8 4b 23 01 00       	call   14d80 <__errno>
    2a35:	c7 00 f2 ff ff ff    	movl   $0xfffffff2,(%eax)
    2a3b:	31 db                	xor    %ebx,%ebx
    2a3d:	83 c4 10             	add    $0x10,%esp
    2a40:	89 d8                	mov    %ebx,%eax
    2a42:	5b                   	pop    %ebx
    2a43:	5e                   	pop    %esi
    2a44:	5d                   	pop    %ebp
    2a45:	c3                   	ret    
    2a46:	66 90                	xchg   %ax,%ax
    2a48:	8d 58 01             	lea    0x1(%eax),%ebx
    2a4b:	80 fa 62             	cmp    $0x62,%dl
    2a4e:	0f 84 dd fe ff ff    	je     2931 <fopen+0x21>
    2a54:	31 c0                	xor    %eax,%eax
    2a56:	80 fa 2b             	cmp    $0x2b,%dl
    2a59:	0f 85 e3 fe ff ff    	jne    2942 <fopen+0x32>
    2a5f:	8a 53 01             	mov    0x1(%ebx),%dl
    2a62:	b0 01                	mov    $0x1,%al
    2a64:	e9 d9 fe ff ff       	jmp    2942 <fopen+0x32>
    2a69:	8d b4 26 00 00 00 00 	lea    0x0(%esi,%eiz,1),%esi
    2a70:	3c 01                	cmp    $0x1,%al
    2a72:	19 f6                	sbb    %esi,%esi
    2a74:	83 e6 20             	and    $0x20,%esi
    2a77:	83 c6 25             	add    $0x25,%esi
    2a7a:	e9 f3 fe ff ff       	jmp    2972 <fopen+0x62>
    2a7f:	90                   	nop
    2a80:	c7 43 20 01 00 00 00 	movl   $0x1,0x20(%ebx)
    2a87:	c7 43 24 00 00 00 00 	movl   $0x0,0x24(%ebx)
    2a8e:	c7 43 28 00 10 00 00 	movl   $0x1000,0x28(%ebx)
    2a95:	c7 43 30 00 00 00 00 	movl   $0x0,0x30(%ebx)
    2a9c:	c7 43 34 00 00 00 00 	movl   $0x0,0x34(%ebx)
    2aa3:	c7 43 2c 00 00 00 00 	movl   $0x0,0x2c(%ebx)
    2aaa:	e9 5e ff ff ff       	jmp    2a0d <fopen+0xfd>
    2aaf:	90                   	nop
    2ab0:	c7 43 20 02 00 00 00 	movl   $0x2,0x20(%ebx)
    2ab7:	eb ce                	jmp    2a87 <fopen+0x177>
    2ab9:	8d b4 26 00 00 00 00 	lea    0x0(%esi,%eiz,1),%esi
    2ac0:	3c 01                	cmp    $0x1,%al
    2ac2:	19 f6                	sbb    %esi,%esi
    2ac4:	83 e6 f0             	and    $0xfffffff0,%esi
    2ac7:	83 c6 20             	add    $0x20,%esi
    2aca:	e9 a3 fe ff ff       	jmp    2972 <fopen+0x62>
    2acf:	90                   	nop
    2ad0:	e8 ab 22 01 00       	call   14d80 <__errno>
    2ad5:	c7 00 f5 ff ff ff    	movl   $0xfffffff5,(%eax)
    2adb:	e9 5b ff ff ff       	jmp    2a3b <fopen+0x12b>
    2ae0:	e8 9b 22 01 00       	call   14d80 <__errno>
    2ae5:	c7 00 fe ff ff ff    	movl   $0xfffffffe,(%eax)
    2aeb:	e9 4d ff ff ff       	jmp    2a3d <fopen+0x12d>
    2af0:	89 1c 24             	mov    %ebx,(%esp)
    2af3:	31 db                	xor    %ebx,%ebx
    2af5:	e8 86 73 00 00       	call   9e80 <free>
    2afa:	e9 3e ff ff ff       	jmp    2a3d <fopen+0x12d>
    2aff:	90                   	nop

00002b00 <fdopen>:
    2b00:	55                   	push   %ebp
    2b01:	89 e5                	mov    %esp,%ebp
    2b03:	56                   	push   %esi
    2b04:	53                   	push   %ebx
    2b05:	83 ec 10             	sub    $0x10,%esp
    2b08:	8b 75 08             	mov    0x8(%ebp),%esi
    2b0b:	c7 04 24 38 00 00 00 	movl   $0x38,(%esp)
    2b12:	e8 59 72 00 00       	call   9d70 <malloc>
    2b17:	89 c3                	mov    %eax,%ebx
    2b19:	85 c0                	test   %eax,%eax
    2b1b:	0f 84 c7 00 00 00    	je     2be8 <fdopen+0xe8>
    2b21:	89 70 08             	mov    %esi,0x8(%eax)
    2b24:	c7 40 0c 00 00 00 00 	movl   $0x0,0xc(%eax)
    2b2b:	c7 40 10 00 00 00 00 	movl   $0x0,0x10(%eax)
    2b32:	c7 40 14 00 00 00 00 	movl   $0x0,0x14(%eax)
    2b39:	c7 40 18 00 00 00 00 	movl   $0x0,0x18(%eax)
    2b40:	c7 40 1c 00 00 00 00 	movl   $0x0,0x1c(%eax)
    2b47:	83 fe 01             	cmp    $0x1,%esi
    2b4a:	0f 84 88 00 00 00    	je     2bd8 <fdopen+0xd8>
    2b50:	83 fe 02             	cmp    $0x2,%esi
    2b53:	74 04                	je     2b59 <fdopen+0x59>
    2b55:	85 f6                	test   %esi,%esi
    2b57:	75 4f                	jne    2ba8 <fdopen+0xa8>
    2b59:	c7 43 20 00 00 00 00 	movl   $0x0,0x20(%ebx)
    2b60:	c7 43 24 00 00 00 00 	movl   $0x0,0x24(%ebx)
    2b67:	c7 43 28 00 00 00 00 	movl   $0x0,0x28(%ebx)
    2b6e:	c7 43 30 00 00 00 00 	movl   $0x0,0x30(%ebx)
    2b75:	c7 43 34 00 00 00 00 	movl   $0x0,0x34(%ebx)
    2b7c:	c7 43 2c 00 00 00 00 	movl   $0x0,0x2c(%ebx)
    2b83:	a1 58 0c 02 00       	mov    0x20c58,%eax
    2b88:	c7 43 04 58 0c 02 00 	movl   $0x20c58,0x4(%ebx)
    2b8f:	89 03                	mov    %eax,(%ebx)
    2b91:	89 1d 58 0c 02 00    	mov    %ebx,0x20c58
    2b97:	89 58 04             	mov    %ebx,0x4(%eax)
    2b9a:	83 c4 10             	add    $0x10,%esp
    2b9d:	89 d8                	mov    %ebx,%eax
    2b9f:	5b                   	pop    %ebx
    2ba0:	5e                   	pop    %esi
    2ba1:	5d                   	pop    %ebp
    2ba2:	c3                   	ret    
    2ba3:	90                   	nop
    2ba4:	8d 74 26 00          	lea    0x0(%esi,%eiz,1),%esi
    2ba8:	c7 40 20 02 00 00 00 	movl   $0x2,0x20(%eax)
    2baf:	c7 43 24 00 00 00 00 	movl   $0x0,0x24(%ebx)
    2bb6:	c7 43 28 00 10 00 00 	movl   $0x1000,0x28(%ebx)
    2bbd:	c7 43 30 00 00 00 00 	movl   $0x0,0x30(%ebx)
    2bc4:	c7 43 34 00 00 00 00 	movl   $0x0,0x34(%ebx)
    2bcb:	c7 43 2c 00 00 00 00 	movl   $0x0,0x2c(%ebx)
    2bd2:	eb af                	jmp    2b83 <fdopen+0x83>
    2bd4:	8d 74 26 00          	lea    0x0(%esi,%eiz,1),%esi
    2bd8:	c7 40 20 01 00 00 00 	movl   $0x1,0x20(%eax)
    2bdf:	eb ce                	jmp    2baf <fdopen+0xaf>
    2be1:	8d b4 26 00 00 00 00 	lea    0x0(%esi,%eiz,1),%esi
    2be8:	e8 93 21 01 00       	call   14d80 <__errno>
    2bed:	c7 00 fe ff ff ff    	movl   $0xfffffffe,(%eax)
    2bf3:	eb a5                	jmp    2b9a <fdopen+0x9a>
    2bf5:	8d 74 26 00          	lea    0x0(%esi,%eiz,1),%esi
    2bf9:	8d bc 27 00 00 00 00 	lea    0x0(%edi,%eiz,1),%edi

00002c00 <fclose>:
    2c00:	55                   	push   %ebp
    2c01:	89 e5                	mov    %esp,%ebp
    2c03:	57                   	push   %edi
    2c04:	56                   	push   %esi
    2c05:	53                   	push   %ebx
    2c06:	83 ec 2c             	sub    $0x2c,%esp
    2c09:	8b 5d 08             	mov    0x8(%ebp),%ebx
    2c0c:	8b 43 24             	mov    0x24(%ebx),%eax
    2c0f:	85 c0                	test   %eax,%eax
    2c11:	74 3b                	je     2c4e <fclose+0x4e>
    2c13:	8b 4b 20             	mov    0x20(%ebx),%ecx
    2c16:	85 c9                	test   %ecx,%ecx
    2c18:	74 34                	je     2c4e <fclose+0x4e>
    2c1a:	8b 53 0c             	mov    0xc(%ebx),%edx
    2c1d:	85 d2                	test   %edx,%edx
    2c1f:	75 2d                	jne    2c4e <fclose+0x4e>
    2c21:	8b 4b 30             	mov    0x30(%ebx),%ecx
    2c24:	89 cf                	mov    %ecx,%edi
    2c26:	2b 7b 34             	sub    0x34(%ebx),%edi
    2c29:	74 16                	je     2c41 <fclose+0x41>
    2c2b:	8b 43 2c             	mov    0x2c(%ebx),%eax
    2c2e:	83 f8 02             	cmp    $0x2,%eax
    2c31:	0f 84 c9 00 00 00    	je     2d00 <fclose+0x100>
    2c37:	48                   	dec    %eax
    2c38:	0f 84 f2 00 00 00    	je     2d30 <fclose+0x130>
    2c3e:	8b 43 24             	mov    0x24(%ebx),%eax
    2c41:	89 43 30             	mov    %eax,0x30(%ebx)
    2c44:	89 43 34             	mov    %eax,0x34(%ebx)
    2c47:	c7 43 2c 00 00 00 00 	movl   $0x0,0x2c(%ebx)
    2c4e:	8b 7b 14             	mov    0x14(%ebx),%edi
    2c51:	85 ff                	test   %edi,%edi
    2c53:	0f 85 97 00 00 00    	jne    2cf0 <fclose+0xf0>
    2c59:	8b 43 08             	mov    0x8(%ebx),%eax
    2c5c:	85 c0                	test   %eax,%eax
    2c5e:	78 16                	js     2c76 <fclose+0x76>
    2c60:	8b 73 1c             	mov    0x1c(%ebx),%esi
    2c63:	85 f6                	test   %esi,%esi
    2c65:	74 0f                	je     2c76 <fclose+0x76>
    2c67:	c7 43 1c 00 00 00 00 	movl   $0x0,0x1c(%ebx)
    2c6e:	89 04 24             	mov    %eax,(%esp)
    2c71:	e8 ea ff 00 00       	call   12c60 <fsync>
    2c76:	8b 43 18             	mov    0x18(%ebx),%eax
    2c79:	85 c0                	test   %eax,%eax
    2c7b:	74 08                	je     2c85 <fclose+0x85>
    2c7d:	89 04 24             	mov    %eax,(%esp)
    2c80:	e8 2b a5 00 00       	call   d1b0 <async_hangup>
    2c85:	8b 43 08             	mov    0x8(%ebx),%eax
    2c88:	31 f6                	xor    %esi,%esi
    2c8a:	85 c0                	test   %eax,%eax
    2c8c:	78 0a                	js     2c98 <fclose+0x98>
    2c8e:	89 04 24             	mov    %eax,(%esp)
    2c91:	e8 fa f9 00 00       	call   12690 <close>
    2c96:	89 c6                	mov    %eax,%esi
    2c98:	8b 0b                	mov    (%ebx),%ecx
    2c9a:	85 c9                	test   %ecx,%ecx
    2c9c:	74 0e                	je     2cac <fclose+0xac>
    2c9e:	8b 53 04             	mov    0x4(%ebx),%edx
    2ca1:	85 d2                	test   %edx,%edx
    2ca3:	74 07                	je     2cac <fclose+0xac>
    2ca5:	89 0a                	mov    %ecx,(%edx)
    2ca7:	8b 03                	mov    (%ebx),%eax
    2ca9:	89 50 04             	mov    %edx,0x4(%eax)
    2cac:	c7 03 00 00 00 00    	movl   $0x0,(%ebx)
    2cb2:	c7 43 04 00 00 00 00 	movl   $0x0,0x4(%ebx)
    2cb9:	81 fb 20 0c 02 00    	cmp    $0x20c20,%ebx
    2cbf:	74 18                	je     2cd9 <fclose+0xd9>
    2cc1:	81 fb 60 0c 02 00    	cmp    $0x20c60,%ebx
    2cc7:	74 10                	je     2cd9 <fclose+0xd9>
    2cc9:	81 fb a0 0c 02 00    	cmp    $0x20ca0,%ebx
    2ccf:	74 08                	je     2cd9 <fclose+0xd9>
    2cd1:	89 1c 24             	mov    %ebx,(%esp)
    2cd4:	e8 a7 71 00 00       	call   9e80 <free>
    2cd9:	83 fe 01             	cmp    $0x1,%esi
    2cdc:	19 c0                	sbb    %eax,%eax
    2cde:	83 c4 2c             	add    $0x2c,%esp
    2ce1:	83 f0 ff             	xor    $0xffffffff,%eax
    2ce4:	5b                   	pop    %ebx
    2ce5:	5e                   	pop    %esi
    2ce6:	5f                   	pop    %edi
    2ce7:	5d                   	pop    %ebp
    2ce8:	c3                   	ret    
    2ce9:	8d b4 26 00 00 00 00 	lea    0x0(%esi,%eiz,1),%esi
    2cf0:	e8 7b 23 00 00       	call   5070 <klog_update>
    2cf5:	e9 7c ff ff ff       	jmp    2c76 <fclose+0x76>
    2cfa:	8d b6 00 00 00 00    	lea    0x0(%esi),%esi
    2d00:	89 f8                	mov    %edi,%eax
    2d02:	c7 44 24 0c 01 00 00 	movl   $0x1,0xc(%esp)
    2d09:	00 
    2d0a:	f7 d8                	neg    %eax
    2d0c:	89 c2                	mov    %eax,%edx
    2d0e:	89 44 24 04          	mov    %eax,0x4(%esp)
    2d12:	c1 fa 1f             	sar    $0x1f,%edx
    2d15:	89 54 24 08          	mov    %edx,0x8(%esp)
    2d19:	8b 43 08             	mov    0x8(%ebx),%eax
    2d1c:	89 04 24             	mov    %eax,(%esp)
    2d1f:	e8 1c 00 01 00       	call   12d40 <lseek>
    2d24:	8b 43 2c             	mov    0x2c(%ebx),%eax
    2d27:	e9 0b ff ff ff       	jmp    2c37 <fclose+0x37>
    2d2c:	8d 74 26 00          	lea    0x0(%esi,%eiz,1),%esi
    2d30:	8b 53 34             	mov    0x34(%ebx),%edx
    2d33:	31 f6                	xor    %esi,%esi
    2d35:	89 55 e4             	mov    %edx,-0x1c(%ebp)
    2d38:	eb 23                	jmp    2d5d <fclose+0x15d>
    2d3a:	8d b6 00 00 00 00    	lea    0x0(%esi),%esi
    2d40:	8b 45 e4             	mov    -0x1c(%ebp),%eax
    2d43:	89 7c 24 04          	mov    %edi,0x4(%esp)
    2d47:	01 f0                	add    %esi,%eax
    2d49:	89 04 24             	mov    %eax,(%esp)
    2d4c:	e8 cf 22 00 00       	call   5020 <klog_write>
    2d51:	85 c0                	test   %eax,%eax
    2d53:	7e 33                	jle    2d88 <fclose+0x188>
    2d55:	29 c7                	sub    %eax,%edi
    2d57:	01 c6                	add    %eax,%esi
    2d59:	85 ff                	test   %edi,%edi
    2d5b:	74 3b                	je     2d98 <fclose+0x198>
    2d5d:	8b 43 0c             	mov    0xc(%ebx),%eax
    2d60:	85 c0                	test   %eax,%eax
    2d62:	75 34                	jne    2d98 <fclose+0x198>
    2d64:	8b 43 14             	mov    0x14(%ebx),%eax
    2d67:	85 c0                	test   %eax,%eax
    2d69:	75 d5                	jne    2d40 <fclose+0x140>
    2d6b:	8b 45 e4             	mov    -0x1c(%ebp),%eax
    2d6e:	89 7c 24 08          	mov    %edi,0x8(%esp)
    2d72:	01 f0                	add    %esi,%eax
    2d74:	89 44 24 04          	mov    %eax,0x4(%esp)
    2d78:	8b 43 08             	mov    0x8(%ebx),%eax
    2d7b:	89 04 24             	mov    %eax,(%esp)
    2d7e:	e8 fd fa 00 00       	call   12880 <write>
    2d83:	eb cc                	jmp    2d51 <fclose+0x151>
    2d85:	8d 76 00             	lea    0x0(%esi),%esi
    2d88:	c7 43 0c 01 00 00 00 	movl   $0x1,0xc(%ebx)
    2d8f:	eb c8                	jmp    2d59 <fclose+0x159>
    2d91:	8d b4 26 00 00 00 00 	lea    0x0(%esi,%eiz,1),%esi
    2d98:	85 f6                	test   %esi,%esi
    2d9a:	0f 84 9e fe ff ff    	je     2c3e <fclose+0x3e>
    2da0:	c7 43 1c 01 00 00 00 	movl   $0x1,0x1c(%ebx)
    2da7:	e9 92 fe ff ff       	jmp    2c3e <fclose+0x3e>
    2dac:	8d 74 26 00          	lea    0x0(%esi,%eiz,1),%esi

00002db0 <fread>:
    2db0:	55                   	push   %ebp
    2db1:	89 e5                	mov    %esp,%ebp
    2db3:	57                   	push   %edi
    2db4:	56                   	push   %esi
    2db5:	53                   	push   %ebx
    2db6:	83 ec 2c             	sub    $0x2c,%esp
    2db9:	8b 7d 10             	mov    0x10(%ebp),%edi
    2dbc:	8b 5d 14             	mov    0x14(%ebp),%ebx
    2dbf:	85 ff                	test   %edi,%edi
    2dc1:	0f 84 c9 00 00 00    	je     2e90 <fread+0xe0>
    2dc7:	8b 45 0c             	mov    0xc(%ebp),%eax
    2dca:	85 c0                	test   %eax,%eax
    2dcc:	0f 84 be 00 00 00    	je     2e90 <fread+0xe0>
    2dd2:	8b 43 20             	mov    0x20(%ebx),%eax
    2dd5:	85 c0                	test   %eax,%eax
    2dd7:	0f 84 08 01 00 00    	je     2ee5 <fread+0x135>
    2ddd:	83 7b 2c 01          	cmpl   $0x1,0x2c(%ebx)
    2de1:	8b 53 24             	mov    0x24(%ebx),%edx
    2de4:	0f 84 69 01 00 00    	je     2f53 <fread+0x1a3>
    2dea:	85 d2                	test   %edx,%edx
    2dec:	0f 84 b0 01 00 00    	je     2fa2 <fread+0x1f2>
    2df2:	8b 43 0c             	mov    0xc(%ebx),%eax
    2df5:	8b 75 0c             	mov    0xc(%ebp),%esi
    2df8:	0f af fe             	imul   %esi,%edi
    2dfb:	85 c0                	test   %eax,%eax
    2dfd:	0f 85 93 01 00 00    	jne    2f96 <fread+0x1e6>
    2e03:	8b 4b 10             	mov    0x10(%ebx),%ecx
    2e06:	85 c9                	test   %ecx,%ecx
    2e08:	0f 85 88 01 00 00    	jne    2f96 <fread+0x1e6>
    2e0e:	85 ff                	test   %edi,%edi
    2e10:	0f 84 80 01 00 00    	je     2f96 <fread+0x1e6>
    2e16:	8b 53 34             	mov    0x34(%ebx),%edx
    2e19:	8b 75 08             	mov    0x8(%ebp),%esi
    2e1c:	c7 45 e4 00 00 00 00 	movl   $0x0,-0x1c(%ebp)
    2e23:	90                   	nop
    2e24:	8d 74 26 00          	lea    0x0(%esi,%eiz,1),%esi
    2e28:	39 53 30             	cmp    %edx,0x30(%ebx)
    2e2b:	74 72                	je     2e9f <fread+0xef>
    2e2d:	8b 43 10             	mov    0x10(%ebx),%eax
    2e30:	85 c0                	test   %eax,%eax
    2e32:	75 4c                	jne    2e80 <fread+0xd0>
    2e34:	8b 53 34             	mov    0x34(%ebx),%edx
    2e37:	8b 43 30             	mov    0x30(%ebx),%eax
    2e3a:	29 d0                	sub    %edx,%eax
    2e3c:	89 f9                	mov    %edi,%ecx
    2e3e:	39 c7                	cmp    %eax,%edi
    2e40:	76 02                	jbe    2e44 <fread+0x94>
    2e42:	89 c1                	mov    %eax,%ecx
    2e44:	85 c9                	test   %ecx,%ecx
    2e46:	74 52                	je     2e9a <fread+0xea>
    2e48:	31 c0                	xor    %eax,%eax
    2e4a:	eb 07                	jmp    2e53 <fread+0xa3>
    2e4c:	8d 74 26 00          	lea    0x0(%esi,%eiz,1),%esi
    2e50:	8b 53 34             	mov    0x34(%ebx),%edx
    2e53:	8a 14 02             	mov    (%edx,%eax,1),%dl
    2e56:	88 14 06             	mov    %dl,(%esi,%eax,1)
    2e59:	40                   	inc    %eax
    2e5a:	39 c8                	cmp    %ecx,%eax
    2e5c:	75 f2                	jne    2e50 <fread+0xa0>
    2e5e:	8b 53 34             	mov    0x34(%ebx),%edx
    2e61:	8b 4b 0c             	mov    0xc(%ebx),%ecx
    2e64:	01 c2                	add    %eax,%edx
    2e66:	01 c6                	add    %eax,%esi
    2e68:	29 c7                	sub    %eax,%edi
    2e6a:	01 45 e4             	add    %eax,-0x1c(%ebp)
    2e6d:	89 53 34             	mov    %edx,0x34(%ebx)
    2e70:	85 c9                	test   %ecx,%ecx
    2e72:	75 0c                	jne    2e80 <fread+0xd0>
    2e74:	8b 43 10             	mov    0x10(%ebx),%eax
    2e77:	85 c0                	test   %eax,%eax
    2e79:	75 05                	jne    2e80 <fread+0xd0>
    2e7b:	85 ff                	test   %edi,%edi
    2e7d:	75 a9                	jne    2e28 <fread+0x78>
    2e7f:	90                   	nop
    2e80:	8b 45 e4             	mov    -0x1c(%ebp),%eax
    2e83:	31 d2                	xor    %edx,%edx
    2e85:	f7 75 0c             	divl   0xc(%ebp)
    2e88:	83 c4 2c             	add    $0x2c,%esp
    2e8b:	5b                   	pop    %ebx
    2e8c:	5e                   	pop    %esi
    2e8d:	5f                   	pop    %edi
    2e8e:	5d                   	pop    %ebp
    2e8f:	c3                   	ret    
    2e90:	31 c0                	xor    %eax,%eax
    2e92:	83 c4 2c             	add    $0x2c,%esp
    2e95:	5b                   	pop    %ebx
    2e96:	5e                   	pop    %esi
    2e97:	5f                   	pop    %edi
    2e98:	5d                   	pop    %ebp
    2e99:	c3                   	ret    
    2e9a:	89 53 34             	mov    %edx,0x34(%ebx)
    2e9d:	eb d5                	jmp    2e74 <fread+0xc4>
    2e9f:	8b 43 24             	mov    0x24(%ebx),%eax
    2ea2:	8b 53 28             	mov    0x28(%ebx),%edx
    2ea5:	89 43 34             	mov    %eax,0x34(%ebx)
    2ea8:	89 43 30             	mov    %eax,0x30(%ebx)
    2eab:	89 54 24 08          	mov    %edx,0x8(%esp)
    2eaf:	89 44 24 04          	mov    %eax,0x4(%esp)
    2eb3:	8b 43 08             	mov    0x8(%ebx),%eax
    2eb6:	89 04 24             	mov    %eax,(%esp)
    2eb9:	e8 b2 f8 00 00       	call   12770 <read>
    2ebe:	83 f8 00             	cmp    $0x0,%eax
    2ec1:	0f 8c c3 00 00 00    	jl     2f8a <fread+0x1da>
    2ec7:	74 6f                	je     2f38 <fread+0x188>
    2ec9:	8b 53 30             	mov    0x30(%ebx),%edx
    2ecc:	c7 43 2c 02 00 00 00 	movl   $0x2,0x2c(%ebx)
    2ed3:	01 c2                	add    %eax,%edx
    2ed5:	8b 4b 0c             	mov    0xc(%ebx),%ecx
    2ed8:	89 53 30             	mov    %edx,0x30(%ebx)
    2edb:	85 c9                	test   %ecx,%ecx
    2edd:	0f 84 4a ff ff ff    	je     2e2d <fread+0x7d>
    2ee3:	eb 9b                	jmp    2e80 <fread+0xd0>
    2ee5:	8b 45 0c             	mov    0xc(%ebp),%eax
    2ee8:	31 f6                	xor    %esi,%esi
    2eea:	0f af f8             	imul   %eax,%edi
    2eed:	8d 76 00             	lea    0x0(%esi),%esi
    2ef0:	85 ff                	test   %edi,%edi
    2ef2:	74 38                	je     2f2c <fread+0x17c>
    2ef4:	8b 43 0c             	mov    0xc(%ebx),%eax
    2ef7:	85 c0                	test   %eax,%eax
    2ef9:	75 31                	jne    2f2c <fread+0x17c>
    2efb:	8b 43 10             	mov    0x10(%ebx),%eax
    2efe:	85 c0                	test   %eax,%eax
    2f00:	75 2a                	jne    2f2c <fread+0x17c>
    2f02:	8b 45 08             	mov    0x8(%ebp),%eax
    2f05:	89 7c 24 08          	mov    %edi,0x8(%esp)
    2f09:	01 f0                	add    %esi,%eax
    2f0b:	89 44 24 04          	mov    %eax,0x4(%esp)
    2f0f:	8b 43 08             	mov    0x8(%ebx),%eax
    2f12:	89 04 24             	mov    %eax,(%esp)
    2f15:	e8 56 f8 00 00       	call   12770 <read>
    2f1a:	83 f8 00             	cmp    $0x0,%eax
    2f1d:	7c 2b                	jl     2f4a <fread+0x19a>
    2f1f:	75 23                	jne    2f44 <fread+0x194>
    2f21:	c7 43 10 01 00 00 00 	movl   $0x1,0x10(%ebx)
    2f28:	85 ff                	test   %edi,%edi
    2f2a:	75 c8                	jne    2ef4 <fread+0x144>
    2f2c:	89 f0                	mov    %esi,%eax
    2f2e:	31 d2                	xor    %edx,%edx
    2f30:	f7 75 0c             	divl   0xc(%ebp)
    2f33:	e9 5a ff ff ff       	jmp    2e92 <fread+0xe2>
    2f38:	c7 43 10 01 00 00 00 	movl   $0x1,0x10(%ebx)
    2f3f:	8b 4b 0c             	mov    0xc(%ebx),%ecx
    2f42:	eb 97                	jmp    2edb <fread+0x12b>
    2f44:	29 c7                	sub    %eax,%edi
    2f46:	01 c6                	add    %eax,%esi
    2f48:	eb a6                	jmp    2ef0 <fread+0x140>
    2f4a:	c7 43 0c 01 00 00 00 	movl   $0x1,0xc(%ebx)
    2f51:	eb 9d                	jmp    2ef0 <fread+0x140>
    2f53:	85 d2                	test   %edx,%edx
    2f55:	74 4b                	je     2fa2 <fread+0x1f2>
    2f57:	8b 43 0c             	mov    0xc(%ebx),%eax
    2f5a:	85 c0                	test   %eax,%eax
    2f5c:	75 38                	jne    2f96 <fread+0x1e6>
    2f5e:	8b 43 34             	mov    0x34(%ebx),%eax
    2f61:	8b 4b 30             	mov    0x30(%ebx),%ecx
    2f64:	29 c1                	sub    %eax,%ecx
    2f66:	74 10                	je     2f78 <fread+0x1c8>
    2f68:	ba 01 00 00 00       	mov    $0x1,%edx
    2f6d:	89 1c 24             	mov    %ebx,(%esp)
    2f70:	e8 3b f4 ff ff       	call   23b0 <_fwrite>
    2f75:	8b 53 24             	mov    0x24(%ebx),%edx
    2f78:	89 53 30             	mov    %edx,0x30(%ebx)
    2f7b:	89 53 34             	mov    %edx,0x34(%ebx)
    2f7e:	c7 43 2c 00 00 00 00 	movl   $0x0,0x2c(%ebx)
    2f85:	e9 60 fe ff ff       	jmp    2dea <fread+0x3a>
    2f8a:	c7 43 0c 01 00 00 00 	movl   $0x1,0xc(%ebx)
    2f91:	e9 ea fe ff ff       	jmp    2e80 <fread+0xd0>
    2f96:	c7 45 e4 00 00 00 00 	movl   $0x0,-0x1c(%ebp)
    2f9d:	e9 de fe ff ff       	jmp    2e80 <fread+0xd0>
    2fa2:	8b 43 28             	mov    0x28(%ebx),%eax
    2fa5:	89 04 24             	mov    %eax,(%esp)
    2fa8:	e8 c3 6d 00 00       	call   9d70 <malloc>
    2fad:	89 43 24             	mov    %eax,0x24(%ebx)
    2fb0:	85 c0                	test   %eax,%eax
    2fb2:	74 0b                	je     2fbf <fread+0x20f>
    2fb4:	89 43 30             	mov    %eax,0x30(%ebx)
    2fb7:	89 43 34             	mov    %eax,0x34(%ebx)
    2fba:	e9 33 fe ff ff       	jmp    2df2 <fread+0x42>
    2fbf:	e8 bc 1d 01 00       	call   14d80 <__errno>
    2fc4:	c7 00 fe ff ff ff    	movl   $0xfffffffe,(%eax)
    2fca:	31 c0                	xor    %eax,%eax
    2fcc:	e9 c1 fe ff ff       	jmp    2e92 <fread+0xe2>
    2fd1:	eb 0d                	jmp    2fe0 <fgetc>
    2fd3:	90                   	nop
    2fd4:	90                   	nop
    2fd5:	90                   	nop
    2fd6:	90                   	nop
    2fd7:	90                   	nop
    2fd8:	90                   	nop
    2fd9:	90                   	nop
    2fda:	90                   	nop
    2fdb:	90                   	nop
    2fdc:	90                   	nop
    2fdd:	90                   	nop
    2fde:	90                   	nop
    2fdf:	90                   	nop

00002fe0 <fgetc>:
    2fe0:	55                   	push   %ebp
    2fe1:	89 e5                	mov    %esp,%ebp
    2fe3:	57                   	push   %edi
    2fe4:	56                   	push   %esi
    2fe5:	53                   	push   %ebx
    2fe6:	83 ec 3c             	sub    $0x3c,%esp
    2fe9:	8b 1d 10 0e 02 00    	mov    0x20e10,%ebx
    2fef:	85 db                	test   %ebx,%ebx
    2ff1:	74 6a                	je     305d <fgetc+0x7d>
    2ff3:	8b 43 24             	mov    0x24(%ebx),%eax
    2ff6:	85 c0                	test   %eax,%eax
    2ff8:	74 3b                	je     3035 <fgetc+0x55>
    2ffa:	8b 4b 20             	mov    0x20(%ebx),%ecx
    2ffd:	85 c9                	test   %ecx,%ecx
    2fff:	74 34                	je     3035 <fgetc+0x55>
    3001:	8b 53 0c             	mov    0xc(%ebx),%edx
    3004:	85 d2                	test   %edx,%edx
    3006:	75 2d                	jne    3035 <fgetc+0x55>
    3008:	8b 4b 30             	mov    0x30(%ebx),%ecx
    300b:	89 cf                	mov    %ecx,%edi
    300d:	2b 7b 34             	sub    0x34(%ebx),%edi
    3010:	74 16                	je     3028 <fgetc+0x48>
    3012:	8b 43 2c             	mov    0x2c(%ebx),%eax
    3015:	83 f8 02             	cmp    $0x2,%eax
    3018:	0f 84 eb 01 00 00    	je     3209 <fgetc+0x229>
    301e:	48                   	dec    %eax
    301f:	0f 84 88 01 00 00    	je     31ad <fgetc+0x1cd>
    3025:	8b 43 24             	mov    0x24(%ebx),%eax
    3028:	89 43 30             	mov    %eax,0x30(%ebx)
    302b:	89 43 34             	mov    %eax,0x34(%ebx)
    302e:	c7 43 2c 00 00 00 00 	movl   $0x0,0x2c(%ebx)
    3035:	8b 7b 14             	mov    0x14(%ebx),%edi
    3038:	85 ff                	test   %edi,%edi
    303a:	0f 85 c8 00 00 00    	jne    3108 <fgetc+0x128>
    3040:	8b 43 08             	mov    0x8(%ebx),%eax
    3043:	85 c0                	test   %eax,%eax
    3045:	78 16                	js     305d <fgetc+0x7d>
    3047:	8b 73 1c             	mov    0x1c(%ebx),%esi
    304a:	85 f6                	test   %esi,%esi
    304c:	74 0f                	je     305d <fgetc+0x7d>
    304e:	c7 43 1c 00 00 00 00 	movl   $0x0,0x1c(%ebx)
    3055:	89 04 24             	mov    %eax,(%esp)
    3058:	e8 03 fc 00 00       	call   12c60 <fsync>
    305d:	8b 1d 0c 0e 02 00    	mov    0x20e0c,%ebx
    3063:	85 db                	test   %ebx,%ebx
    3065:	74 66                	je     30cd <fgetc+0xed>
    3067:	8b 43 24             	mov    0x24(%ebx),%eax
    306a:	85 c0                	test   %eax,%eax
    306c:	74 3b                	je     30a9 <fgetc+0xc9>
    306e:	8b 4b 20             	mov    0x20(%ebx),%ecx
    3071:	85 c9                	test   %ecx,%ecx
    3073:	74 34                	je     30a9 <fgetc+0xc9>
    3075:	8b 53 0c             	mov    0xc(%ebx),%edx
    3078:	85 d2                	test   %edx,%edx
    307a:	75 2d                	jne    30a9 <fgetc+0xc9>
    307c:	8b 4b 30             	mov    0x30(%ebx),%ecx
    307f:	89 cf                	mov    %ecx,%edi
    3081:	2b 7b 34             	sub    0x34(%ebx),%edi
    3084:	74 16                	je     309c <fgetc+0xbc>
    3086:	8b 43 2c             	mov    0x2c(%ebx),%eax
    3089:	83 f8 02             	cmp    $0x2,%eax
    308c:	0f 84 ef 00 00 00    	je     3181 <fgetc+0x1a1>
    3092:	48                   	dec    %eax
    3093:	0f 84 84 00 00 00    	je     311d <fgetc+0x13d>
    3099:	8b 43 24             	mov    0x24(%ebx),%eax
    309c:	89 43 30             	mov    %eax,0x30(%ebx)
    309f:	89 43 34             	mov    %eax,0x34(%ebx)
    30a2:	c7 43 2c 00 00 00 00 	movl   $0x0,0x2c(%ebx)
    30a9:	8b 4b 14             	mov    0x14(%ebx),%ecx
    30ac:	85 c9                	test   %ecx,%ecx
    30ae:	75 50                	jne    3100 <fgetc+0x120>
    30b0:	8b 43 08             	mov    0x8(%ebx),%eax
    30b3:	85 c0                	test   %eax,%eax
    30b5:	78 16                	js     30cd <fgetc+0xed>
    30b7:	8b 53 1c             	mov    0x1c(%ebx),%edx
    30ba:	85 d2                	test   %edx,%edx
    30bc:	74 0f                	je     30cd <fgetc+0xed>
    30be:	c7 43 1c 00 00 00 00 	movl   $0x0,0x1c(%ebx)
    30c5:	89 04 24             	mov    %eax,(%esp)
    30c8:	e8 93 fb 00 00       	call   12c60 <fsync>
    30cd:	8b 45 08             	mov    0x8(%ebp),%eax
    30d0:	c7 44 24 08 01 00 00 	movl   $0x1,0x8(%esp)
    30d7:	00 
    30d8:	89 44 24 0c          	mov    %eax,0xc(%esp)
    30dc:	8d 45 e4             	lea    -0x1c(%ebp),%eax
    30df:	c7 44 24 04 01 00 00 	movl   $0x1,0x4(%esp)
    30e6:	00 
    30e7:	89 04 24             	mov    %eax,(%esp)
    30ea:	e8 c1 fc ff ff       	call   2db0 <fread>
    30ef:	85 c0                	test   %eax,%eax
    30f1:	74 25                	je     3118 <fgetc+0x138>
    30f3:	0f be 45 e4          	movsbl -0x1c(%ebp),%eax
    30f7:	83 c4 3c             	add    $0x3c,%esp
    30fa:	5b                   	pop    %ebx
    30fb:	5e                   	pop    %esi
    30fc:	5f                   	pop    %edi
    30fd:	5d                   	pop    %ebp
    30fe:	c3                   	ret    
    30ff:	90                   	nop
    3100:	e8 6b 1f 00 00       	call   5070 <klog_update>
    3105:	eb c6                	jmp    30cd <fgetc+0xed>
    3107:	90                   	nop
    3108:	e8 63 1f 00 00       	call   5070 <klog_update>
    310d:	e9 4b ff ff ff       	jmp    305d <fgetc+0x7d>
    3112:	8d b6 00 00 00 00    	lea    0x0(%esi),%esi
    3118:	83 c8 ff             	or     $0xffffffff,%eax
    311b:	eb da                	jmp    30f7 <fgetc+0x117>
    311d:	8b 53 34             	mov    0x34(%ebx),%edx
    3120:	31 f6                	xor    %esi,%esi
    3122:	89 55 d4             	mov    %edx,-0x2c(%ebp)
    3125:	eb 22                	jmp    3149 <fgetc+0x169>
    3127:	90                   	nop
    3128:	8b 45 d4             	mov    -0x2c(%ebp),%eax
    312b:	89 7c 24 04          	mov    %edi,0x4(%esp)
    312f:	01 f0                	add    %esi,%eax
    3131:	89 04 24             	mov    %eax,(%esp)
    3134:	e8 e7 1e 00 00       	call   5020 <klog_write>
    3139:	85 c0                	test   %eax,%eax
    313b:	7e 3b                	jle    3178 <fgetc+0x198>
    313d:	29 c7                	sub    %eax,%edi
    313f:	01 c6                	add    %eax,%esi
    3141:	85 ff                	test   %edi,%edi
    3143:	0f 84 00 01 00 00    	je     3249 <fgetc+0x269>
    3149:	8b 43 0c             	mov    0xc(%ebx),%eax
    314c:	85 c0                	test   %eax,%eax
    314e:	0f 85 f5 00 00 00    	jne    3249 <fgetc+0x269>
    3154:	8b 43 14             	mov    0x14(%ebx),%eax
    3157:	85 c0                	test   %eax,%eax
    3159:	75 cd                	jne    3128 <fgetc+0x148>
    315b:	8b 45 d4             	mov    -0x2c(%ebp),%eax
    315e:	89 7c 24 08          	mov    %edi,0x8(%esp)
    3162:	01 f0                	add    %esi,%eax
    3164:	89 44 24 04          	mov    %eax,0x4(%esp)
    3168:	8b 43 08             	mov    0x8(%ebx),%eax
    316b:	89 04 24             	mov    %eax,(%esp)
    316e:	e8 0d f7 00 00       	call   12880 <write>
    3173:	eb c4                	jmp    3139 <fgetc+0x159>
    3175:	8d 76 00             	lea    0x0(%esi),%esi
    3178:	c7 43 0c 01 00 00 00 	movl   $0x1,0xc(%ebx)
    317f:	eb c0                	jmp    3141 <fgetc+0x161>
    3181:	89 f8                	mov    %edi,%eax
    3183:	c7 44 24 0c 01 00 00 	movl   $0x1,0xc(%esp)
    318a:	00 
    318b:	f7 d8                	neg    %eax
    318d:	89 c2                	mov    %eax,%edx
    318f:	89 44 24 04          	mov    %eax,0x4(%esp)
    3193:	c1 fa 1f             	sar    $0x1f,%edx
    3196:	89 54 24 08          	mov    %edx,0x8(%esp)
    319a:	8b 43 08             	mov    0x8(%ebx),%eax
    319d:	89 04 24             	mov    %eax,(%esp)
    31a0:	e8 9b fb 00 00       	call   12d40 <lseek>
    31a5:	8b 43 2c             	mov    0x2c(%ebx),%eax
    31a8:	e9 e5 fe ff ff       	jmp    3092 <fgetc+0xb2>
    31ad:	8b 53 34             	mov    0x34(%ebx),%edx
    31b0:	31 f6                	xor    %esi,%esi
    31b2:	89 55 d4             	mov    %edx,-0x2c(%ebp)
    31b5:	eb 1e                	jmp    31d5 <fgetc+0x1f5>
    31b7:	90                   	nop
    31b8:	8b 45 d4             	mov    -0x2c(%ebp),%eax
    31bb:	89 7c 24 04          	mov    %edi,0x4(%esp)
    31bf:	01 f0                	add    %esi,%eax
    31c1:	89 04 24             	mov    %eax,(%esp)
    31c4:	e8 57 1e 00 00       	call   5020 <klog_write>
    31c9:	85 c0                	test   %eax,%eax
    31cb:	7e 33                	jle    3200 <fgetc+0x220>
    31cd:	29 c7                	sub    %eax,%edi
    31cf:	01 c6                	add    %eax,%esi
    31d1:	85 ff                	test   %edi,%edi
    31d3:	74 60                	je     3235 <fgetc+0x255>
    31d5:	8b 43 0c             	mov    0xc(%ebx),%eax
    31d8:	85 c0                	test   %eax,%eax
    31da:	75 59                	jne    3235 <fgetc+0x255>
    31dc:	8b 43 14             	mov    0x14(%ebx),%eax
    31df:	85 c0                	test   %eax,%eax
    31e1:	75 d5                	jne    31b8 <fgetc+0x1d8>
    31e3:	8b 45 d4             	mov    -0x2c(%ebp),%eax
    31e6:	89 7c 24 08          	mov    %edi,0x8(%esp)
    31ea:	01 f0                	add    %esi,%eax
    31ec:	89 44 24 04          	mov    %eax,0x4(%esp)
    31f0:	8b 43 08             	mov    0x8(%ebx),%eax
    31f3:	89 04 24             	mov    %eax,(%esp)
    31f6:	e8 85 f6 00 00       	call   12880 <write>
    31fb:	eb cc                	jmp    31c9 <fgetc+0x1e9>
    31fd:	8d 76 00             	lea    0x0(%esi),%esi
    3200:	c7 43 0c 01 00 00 00 	movl   $0x1,0xc(%ebx)
    3207:	eb c8                	jmp    31d1 <fgetc+0x1f1>
    3209:	89 f8                	mov    %edi,%eax
    320b:	c7 44 24 0c 01 00 00 	movl   $0x1,0xc(%esp)
    3212:	00 
    3213:	f7 d8                	neg    %eax
    3215:	89 c2                	mov    %eax,%edx
    3217:	89 44 24 04          	mov    %eax,0x4(%esp)
    321b:	c1 fa 1f             	sar    $0x1f,%edx
    321e:	89 54 24 08          	mov    %edx,0x8(%esp)
    3222:	8b 43 08             	mov    0x8(%ebx),%eax
    3225:	89 04 24             	mov    %eax,(%esp)
    3228:	e8 13 fb 00 00       	call   12d40 <lseek>
    322d:	8b 43 2c             	mov    0x2c(%ebx),%eax
    3230:	e9 e9 fd ff ff       	jmp    301e <fgetc+0x3e>
    3235:	85 f6                	test   %esi,%esi
    3237:	0f 84 e8 fd ff ff    	je     3025 <fgetc+0x45>
    323d:	c7 43 1c 01 00 00 00 	movl   $0x1,0x1c(%ebx)
    3244:	e9 dc fd ff ff       	jmp    3025 <fgetc+0x45>
    3249:	85 f6                	test   %esi,%esi
    324b:	0f 84 48 fe ff ff    	je     3099 <fgetc+0xb9>
    3251:	c7 43 1c 01 00 00 00 	movl   $0x1,0x1c(%ebx)
    3258:	e9 3c fe ff ff       	jmp    3099 <fgetc+0xb9>
    325d:	8d 76 00             	lea    0x0(%esi),%esi

00003260 <fgets>:
    3260:	55                   	push   %ebp
    3261:	89 e5                	mov    %esp,%ebp
    3263:	57                   	push   %edi
    3264:	56                   	push   %esi
    3265:	53                   	push   %ebx
    3266:	83 ec 4c             	sub    $0x4c,%esp
    3269:	31 f6                	xor    %esi,%esi
    326b:	8b 45 0c             	mov    0xc(%ebp),%eax
    326e:	8d 7d e4             	lea    -0x1c(%ebp),%edi
    3271:	48                   	dec    %eax
    3272:	89 45 d4             	mov    %eax,-0x2c(%ebp)
    3275:	e9 cf 00 00 00       	jmp    3349 <fgets+0xe9>
    327a:	8d b6 00 00 00 00    	lea    0x0(%esi),%esi
    3280:	8b 43 08             	mov    0x8(%ebx),%eax
    3283:	85 c0                	test   %eax,%eax
    3285:	78 16                	js     329d <fgets+0x3d>
    3287:	8b 53 1c             	mov    0x1c(%ebx),%edx
    328a:	85 d2                	test   %edx,%edx
    328c:	74 0f                	je     329d <fgets+0x3d>
    328e:	c7 43 1c 00 00 00 00 	movl   $0x0,0x1c(%ebx)
    3295:	89 04 24             	mov    %eax,(%esp)
    3298:	e8 c3 f9 00 00       	call   12c60 <fsync>
    329d:	8b 1d 0c 0e 02 00    	mov    0x20e0c,%ebx
    32a3:	85 db                	test   %ebx,%ebx
    32a5:	74 68                	je     330f <fgets+0xaf>
    32a7:	8b 43 24             	mov    0x24(%ebx),%eax
    32aa:	85 c0                	test   %eax,%eax
    32ac:	74 39                	je     32e7 <fgets+0x87>
    32ae:	8b 4b 20             	mov    0x20(%ebx),%ecx
    32b1:	85 c9                	test   %ecx,%ecx
    32b3:	74 32                	je     32e7 <fgets+0x87>
    32b5:	8b 53 0c             	mov    0xc(%ebx),%edx
    32b8:	85 d2                	test   %edx,%edx
    32ba:	75 2b                	jne    32e7 <fgets+0x87>
    32bc:	8b 4b 30             	mov    0x30(%ebx),%ecx
    32bf:	2b 4b 34             	sub    0x34(%ebx),%ecx
    32c2:	74 16                	je     32da <fgets+0x7a>
    32c4:	8b 43 2c             	mov    0x2c(%ebx),%eax
    32c7:	83 f8 02             	cmp    $0x2,%eax
    32ca:	0f 84 e0 01 00 00    	je     34b0 <fgets+0x250>
    32d0:	48                   	dec    %eax
    32d1:	0f 84 11 02 00 00    	je     34e8 <fgets+0x288>
    32d7:	8b 43 24             	mov    0x24(%ebx),%eax
    32da:	89 43 30             	mov    %eax,0x30(%ebx)
    32dd:	89 43 34             	mov    %eax,0x34(%ebx)
    32e0:	c7 43 2c 00 00 00 00 	movl   $0x0,0x2c(%ebx)
    32e7:	8b 4b 14             	mov    0x14(%ebx),%ecx
    32ea:	85 c9                	test   %ecx,%ecx
    32ec:	0f 85 de 00 00 00    	jne    33d0 <fgets+0x170>
    32f2:	8b 43 08             	mov    0x8(%ebx),%eax
    32f5:	85 c0                	test   %eax,%eax
    32f7:	78 16                	js     330f <fgets+0xaf>
    32f9:	8b 53 1c             	mov    0x1c(%ebx),%edx
    32fc:	85 d2                	test   %edx,%edx
    32fe:	74 0f                	je     330f <fgets+0xaf>
    3300:	c7 43 1c 00 00 00 00 	movl   $0x0,0x1c(%ebx)
    3307:	89 04 24             	mov    %eax,(%esp)
    330a:	e8 51 f9 00 00       	call   12c60 <fsync>
    330f:	8b 4d 10             	mov    0x10(%ebp),%ecx
    3312:	c7 44 24 08 01 00 00 	movl   $0x1,0x8(%esp)
    3319:	00 
    331a:	89 4c 24 0c          	mov    %ecx,0xc(%esp)
    331e:	c7 44 24 04 01 00 00 	movl   $0x1,0x4(%esp)
    3325:	00 
    3326:	89 3c 24             	mov    %edi,(%esp)
    3329:	e8 82 fa ff ff       	call   2db0 <fread>
    332e:	85 c0                	test   %eax,%eax
    3330:	74 7e                	je     33b0 <fgets+0x150>
    3332:	8a 45 e4             	mov    -0x1c(%ebp),%al
    3335:	0f be d0             	movsbl %al,%edx
    3338:	83 fa ff             	cmp    $0xffffffff,%edx
    333b:	74 73                	je     33b0 <fgets+0x150>
    333d:	8b 4d 08             	mov    0x8(%ebp),%ecx
    3340:	88 04 31             	mov    %al,(%ecx,%esi,1)
    3343:	46                   	inc    %esi
    3344:	83 fa 0a             	cmp    $0xa,%edx
    3347:	74 67                	je     33b0 <fgets+0x150>
    3349:	3b 75 d4             	cmp    -0x2c(%ebp),%esi
    334c:	7d 62                	jge    33b0 <fgets+0x150>
    334e:	8b 1d 10 0e 02 00    	mov    0x20e10,%ebx
    3354:	85 db                	test   %ebx,%ebx
    3356:	0f 84 41 ff ff ff    	je     329d <fgets+0x3d>
    335c:	8b 43 24             	mov    0x24(%ebx),%eax
    335f:	85 c0                	test   %eax,%eax
    3361:	74 35                	je     3398 <fgets+0x138>
    3363:	8b 4b 20             	mov    0x20(%ebx),%ecx
    3366:	85 c9                	test   %ecx,%ecx
    3368:	74 2e                	je     3398 <fgets+0x138>
    336a:	8b 53 0c             	mov    0xc(%ebx),%edx
    336d:	85 d2                	test   %edx,%edx
    336f:	75 27                	jne    3398 <fgets+0x138>
    3371:	8b 4b 30             	mov    0x30(%ebx),%ecx
    3374:	2b 4b 34             	sub    0x34(%ebx),%ecx
    3377:	74 12                	je     338b <fgets+0x12b>
    3379:	8b 43 2c             	mov    0x2c(%ebx),%eax
    337c:	83 f8 02             	cmp    $0x2,%eax
    337f:	74 77                	je     33f8 <fgets+0x198>
    3381:	48                   	dec    %eax
    3382:	0f 84 a8 00 00 00    	je     3430 <fgets+0x1d0>
    3388:	8b 43 24             	mov    0x24(%ebx),%eax
    338b:	89 43 30             	mov    %eax,0x30(%ebx)
    338e:	89 43 34             	mov    %eax,0x34(%ebx)
    3391:	c7 43 2c 00 00 00 00 	movl   $0x0,0x2c(%ebx)
    3398:	8b 4b 14             	mov    0x14(%ebx),%ecx
    339b:	85 c9                	test   %ecx,%ecx
    339d:	0f 84 dd fe ff ff    	je     3280 <fgets+0x20>
    33a3:	e8 c8 1c 00 00       	call   5070 <klog_update>
    33a8:	e9 f0 fe ff ff       	jmp    329d <fgets+0x3d>
    33ad:	8d 76 00             	lea    0x0(%esi),%esi
    33b0:	8b 4d 10             	mov    0x10(%ebp),%ecx
    33b3:	8b 59 0c             	mov    0xc(%ecx),%ebx
    33b6:	85 db                	test   %ebx,%ebx
    33b8:	75 26                	jne    33e0 <fgets+0x180>
    33ba:	85 f6                	test   %esi,%esi
    33bc:	74 22                	je     33e0 <fgets+0x180>
    33be:	8b 45 08             	mov    0x8(%ebp),%eax
    33c1:	c6 04 30 00          	movb   $0x0,(%eax,%esi,1)
    33c5:	83 c4 4c             	add    $0x4c,%esp
    33c8:	5b                   	pop    %ebx
    33c9:	5e                   	pop    %esi
    33ca:	5f                   	pop    %edi
    33cb:	5d                   	pop    %ebp
    33cc:	c3                   	ret    
    33cd:	8d 76 00             	lea    0x0(%esi),%esi
    33d0:	e8 9b 1c 00 00       	call   5070 <klog_update>
    33d5:	e9 35 ff ff ff       	jmp    330f <fgets+0xaf>
    33da:	8d b6 00 00 00 00    	lea    0x0(%esi),%esi
    33e0:	c7 45 08 00 00 00 00 	movl   $0x0,0x8(%ebp)
    33e7:	8b 45 08             	mov    0x8(%ebp),%eax
    33ea:	83 c4 4c             	add    $0x4c,%esp
    33ed:	5b                   	pop    %ebx
    33ee:	5e                   	pop    %esi
    33ef:	5f                   	pop    %edi
    33f0:	5d                   	pop    %ebp
    33f1:	c3                   	ret    
    33f2:	8d b6 00 00 00 00    	lea    0x0(%esi),%esi
    33f8:	89 c8                	mov    %ecx,%eax
    33fa:	c7 44 24 0c 01 00 00 	movl   $0x1,0xc(%esp)
    3401:	00 
    3402:	f7 d8                	neg    %eax
    3404:	89 c2                	mov    %eax,%edx
    3406:	89 44 24 04          	mov    %eax,0x4(%esp)
    340a:	c1 fa 1f             	sar    $0x1f,%edx
    340d:	89 54 24 08          	mov    %edx,0x8(%esp)
    3411:	8b 43 08             	mov    0x8(%ebx),%eax
    3414:	89 4d c4             	mov    %ecx,-0x3c(%ebp)
    3417:	89 04 24             	mov    %eax,(%esp)
    341a:	e8 21 f9 00 00       	call   12d40 <lseek>
    341f:	8b 43 2c             	mov    0x2c(%ebx),%eax
    3422:	8b 4d c4             	mov    -0x3c(%ebp),%ecx
    3425:	e9 57 ff ff ff       	jmp    3381 <fgets+0x121>
    342a:	8d b6 00 00 00 00    	lea    0x0(%esi),%esi
    3430:	8b 53 34             	mov    0x34(%ebx),%edx
    3433:	89 75 c8             	mov    %esi,-0x38(%ebp)
    3436:	89 55 cc             	mov    %edx,-0x34(%ebp)
    3439:	c7 45 d0 00 00 00 00 	movl   $0x0,-0x30(%ebp)
    3440:	89 ce                	mov    %ecx,%esi
    3442:	eb 2e                	jmp    3472 <fgets+0x212>
    3444:	8d 74 26 00          	lea    0x0(%esi,%eiz,1),%esi
    3448:	8b 45 cc             	mov    -0x34(%ebp),%eax
    344b:	8b 55 d0             	mov    -0x30(%ebp),%edx
    344e:	01 d0                	add    %edx,%eax
    3450:	89 74 24 04          	mov    %esi,0x4(%esp)
    3454:	89 04 24             	mov    %eax,(%esp)
    3457:	e8 c4 1b 00 00       	call   5020 <klog_write>
    345c:	85 c0                	test   %eax,%eax
    345e:	7e 43                	jle    34a3 <fgets+0x243>
    3460:	8b 55 d0             	mov    -0x30(%ebp),%edx
    3463:	29 c6                	sub    %eax,%esi
    3465:	01 c2                	add    %eax,%edx
    3467:	89 55 d0             	mov    %edx,-0x30(%ebp)
    346a:	85 f6                	test   %esi,%esi
    346c:	0f 84 04 01 00 00    	je     3576 <fgets+0x316>
    3472:	8b 43 0c             	mov    0xc(%ebx),%eax
    3475:	85 c0                	test   %eax,%eax
    3477:	0f 85 f9 00 00 00    	jne    3576 <fgets+0x316>
    347d:	8b 4b 14             	mov    0x14(%ebx),%ecx
    3480:	85 c9                	test   %ecx,%ecx
    3482:	75 c4                	jne    3448 <fgets+0x1e8>
    3484:	8b 45 cc             	mov    -0x34(%ebp),%eax
    3487:	8b 4d d0             	mov    -0x30(%ebp),%ecx
    348a:	01 c8                	add    %ecx,%eax
    348c:	89 74 24 08          	mov    %esi,0x8(%esp)
    3490:	89 44 24 04          	mov    %eax,0x4(%esp)
    3494:	8b 43 08             	mov    0x8(%ebx),%eax
    3497:	89 04 24             	mov    %eax,(%esp)
    349a:	e8 e1 f3 00 00       	call   12880 <write>
    349f:	85 c0                	test   %eax,%eax
    34a1:	7f bd                	jg     3460 <fgets+0x200>
    34a3:	c7 43 0c 01 00 00 00 	movl   $0x1,0xc(%ebx)
    34aa:	eb be                	jmp    346a <fgets+0x20a>
    34ac:	8d 74 26 00          	lea    0x0(%esi,%eiz,1),%esi
    34b0:	89 c8                	mov    %ecx,%eax
    34b2:	c7 44 24 0c 01 00 00 	movl   $0x1,0xc(%esp)
    34b9:	00 
    34ba:	f7 d8                	neg    %eax
    34bc:	89 c2                	mov    %eax,%edx
    34be:	89 44 24 04          	mov    %eax,0x4(%esp)
    34c2:	c1 fa 1f             	sar    $0x1f,%edx
    34c5:	89 54 24 08          	mov    %edx,0x8(%esp)
    34c9:	8b 43 08             	mov    0x8(%ebx),%eax
    34cc:	89 4d c4             	mov    %ecx,-0x3c(%ebp)
    34cf:	89 04 24             	mov    %eax,(%esp)
    34d2:	e8 69 f8 00 00       	call   12d40 <lseek>
    34d7:	8b 43 2c             	mov    0x2c(%ebx),%eax
    34da:	8b 4d c4             	mov    -0x3c(%ebp),%ecx
    34dd:	e9 ee fd ff ff       	jmp    32d0 <fgets+0x70>
    34e2:	8d b6 00 00 00 00    	lea    0x0(%esi),%esi
    34e8:	8b 53 34             	mov    0x34(%ebx),%edx
    34eb:	89 75 c8             	mov    %esi,-0x38(%ebp)
    34ee:	89 55 cc             	mov    %edx,-0x34(%ebp)
    34f1:	c7 45 d0 00 00 00 00 	movl   $0x0,-0x30(%ebp)
    34f8:	89 ce                	mov    %ecx,%esi
    34fa:	eb 2a                	jmp    3526 <fgets+0x2c6>
    34fc:	8d 74 26 00          	lea    0x0(%esi,%eiz,1),%esi
    3500:	8b 45 cc             	mov    -0x34(%ebp),%eax
    3503:	8b 55 d0             	mov    -0x30(%ebp),%edx
    3506:	01 d0                	add    %edx,%eax
    3508:	89 74 24 04          	mov    %esi,0x4(%esp)
    350c:	89 04 24             	mov    %eax,(%esp)
    350f:	e8 0c 1b 00 00       	call   5020 <klog_write>
    3514:	85 c0                	test   %eax,%eax
    3516:	7e 3b                	jle    3553 <fgets+0x2f3>
    3518:	8b 55 d0             	mov    -0x30(%ebp),%edx
    351b:	29 c6                	sub    %eax,%esi
    351d:	01 c2                	add    %eax,%edx
    351f:	89 55 d0             	mov    %edx,-0x30(%ebp)
    3522:	85 f6                	test   %esi,%esi
    3524:	74 36                	je     355c <fgets+0x2fc>
    3526:	8b 43 0c             	mov    0xc(%ebx),%eax
    3529:	85 c0                	test   %eax,%eax
    352b:	75 2f                	jne    355c <fgets+0x2fc>
    352d:	8b 4b 14             	mov    0x14(%ebx),%ecx
    3530:	85 c9                	test   %ecx,%ecx
    3532:	75 cc                	jne    3500 <fgets+0x2a0>
    3534:	8b 45 cc             	mov    -0x34(%ebp),%eax
    3537:	8b 4d d0             	mov    -0x30(%ebp),%ecx
    353a:	01 c8                	add    %ecx,%eax
    353c:	89 74 24 08          	mov    %esi,0x8(%esp)
    3540:	89 44 24 04          	mov    %eax,0x4(%esp)
    3544:	8b 43 08             	mov    0x8(%ebx),%eax
    3547:	89 04 24             	mov    %eax,(%esp)
    354a:	e8 31 f3 00 00       	call   12880 <write>
    354f:	85 c0                	test   %eax,%eax
    3551:	7f c5                	jg     3518 <fgets+0x2b8>
    3553:	c7 43 0c 01 00 00 00 	movl   $0x1,0xc(%ebx)
    355a:	eb c6                	jmp    3522 <fgets+0x2c2>
    355c:	8b 45 d0             	mov    -0x30(%ebp),%eax
    355f:	8b 75 c8             	mov    -0x38(%ebp),%esi
    3562:	85 c0                	test   %eax,%eax
    3564:	0f 84 6d fd ff ff    	je     32d7 <fgets+0x77>
    356a:	c7 43 1c 01 00 00 00 	movl   $0x1,0x1c(%ebx)
    3571:	e9 61 fd ff ff       	jmp    32d7 <fgets+0x77>
    3576:	8b 45 d0             	mov    -0x30(%ebp),%eax
    3579:	8b 75 c8             	mov    -0x38(%ebp),%esi
    357c:	85 c0                	test   %eax,%eax
    357e:	0f 84 04 fe ff ff    	je     3388 <fgets+0x128>
    3584:	c7 43 1c 01 00 00 00 	movl   $0x1,0x1c(%ebx)
    358b:	e9 f8 fd ff ff       	jmp    3388 <fgets+0x128>

00003590 <getchar>:
    3590:	55                   	push   %ebp
    3591:	89 e5                	mov    %esp,%ebp
    3593:	57                   	push   %edi
    3594:	56                   	push   %esi
    3595:	53                   	push   %ebx
    3596:	83 ec 3c             	sub    $0x3c,%esp
    3599:	8b 1d 10 0e 02 00    	mov    0x20e10,%ebx
    359f:	8b 35 14 0e 02 00    	mov    0x20e14,%esi
    35a5:	85 db                	test   %ebx,%ebx
    35a7:	74 6a                	je     3613 <getchar+0x83>
    35a9:	8b 43 24             	mov    0x24(%ebx),%eax
    35ac:	85 c0                	test   %eax,%eax
    35ae:	74 3b                	je     35eb <getchar+0x5b>
    35b0:	8b 53 20             	mov    0x20(%ebx),%edx
    35b3:	85 d2                	test   %edx,%edx
    35b5:	74 34                	je     35eb <getchar+0x5b>
    35b7:	8b 7b 0c             	mov    0xc(%ebx),%edi
    35ba:	85 ff                	test   %edi,%edi
    35bc:	75 2d                	jne    35eb <getchar+0x5b>
    35be:	8b 4b 30             	mov    0x30(%ebx),%ecx
    35c1:	89 cf                	mov    %ecx,%edi
    35c3:	2b 7b 34             	sub    0x34(%ebx),%edi
    35c6:	74 16                	je     35de <getchar+0x4e>
    35c8:	8b 43 2c             	mov    0x2c(%ebx),%eax
    35cb:	83 f8 02             	cmp    $0x2,%eax
    35ce:	0f 84 1d 02 00 00    	je     37f1 <getchar+0x261>
    35d4:	48                   	dec    %eax
    35d5:	0f 84 a2 01 00 00    	je     377d <getchar+0x1ed>
    35db:	8b 43 24             	mov    0x24(%ebx),%eax
    35de:	89 43 30             	mov    %eax,0x30(%ebx)
    35e1:	89 43 34             	mov    %eax,0x34(%ebx)
    35e4:	c7 43 2c 00 00 00 00 	movl   $0x0,0x2c(%ebx)
    35eb:	8b 7b 14             	mov    0x14(%ebx),%edi
    35ee:	85 ff                	test   %edi,%edi
    35f0:	0f 85 ca 00 00 00    	jne    36c0 <getchar+0x130>
    35f6:	8b 43 08             	mov    0x8(%ebx),%eax
    35f9:	85 c0                	test   %eax,%eax
    35fb:	78 16                	js     3613 <getchar+0x83>
    35fd:	8b 4b 1c             	mov    0x1c(%ebx),%ecx
    3600:	85 c9                	test   %ecx,%ecx
    3602:	74 0f                	je     3613 <getchar+0x83>
    3604:	c7 43 1c 00 00 00 00 	movl   $0x0,0x1c(%ebx)
    360b:	89 04 24             	mov    %eax,(%esp)
    360e:	e8 4d f6 00 00       	call   12c60 <fsync>
    3613:	8b 1d 0c 0e 02 00    	mov    0x20e0c,%ebx
    3619:	85 db                	test   %ebx,%ebx
    361b:	74 66                	je     3683 <getchar+0xf3>
    361d:	8b 43 24             	mov    0x24(%ebx),%eax
    3620:	85 c0                	test   %eax,%eax
    3622:	74 3b                	je     365f <getchar+0xcf>
    3624:	8b 53 20             	mov    0x20(%ebx),%edx
    3627:	85 d2                	test   %edx,%edx
    3629:	74 34                	je     365f <getchar+0xcf>
    362b:	8b 7b 0c             	mov    0xc(%ebx),%edi
    362e:	85 ff                	test   %edi,%edi
    3630:	75 2d                	jne    365f <getchar+0xcf>
    3632:	8b 4b 30             	mov    0x30(%ebx),%ecx
    3635:	89 cf                	mov    %ecx,%edi
    3637:	2b 7b 34             	sub    0x34(%ebx),%edi
    363a:	74 16                	je     3652 <getchar+0xc2>
    363c:	8b 43 2c             	mov    0x2c(%ebx),%eax
    363f:	83 f8 02             	cmp    $0x2,%eax
    3642:	0f 84 09 01 00 00    	je     3751 <getchar+0x1c1>
    3648:	48                   	dec    %eax
    3649:	0f 84 86 00 00 00    	je     36d5 <getchar+0x145>
    364f:	8b 43 24             	mov    0x24(%ebx),%eax
    3652:	89 43 30             	mov    %eax,0x30(%ebx)
    3655:	89 43 34             	mov    %eax,0x34(%ebx)
    3658:	c7 43 2c 00 00 00 00 	movl   $0x0,0x2c(%ebx)
    365f:	8b 43 14             	mov    0x14(%ebx),%eax
    3662:	85 c0                	test   %eax,%eax
    3664:	75 52                	jne    36b8 <getchar+0x128>
    3666:	8b 43 08             	mov    0x8(%ebx),%eax
    3669:	85 c0                	test   %eax,%eax
    366b:	78 16                	js     3683 <getchar+0xf3>
    366d:	8b 7b 1c             	mov    0x1c(%ebx),%edi
    3670:	85 ff                	test   %edi,%edi
    3672:	74 0f                	je     3683 <getchar+0xf3>
    3674:	c7 43 1c 00 00 00 00 	movl   $0x0,0x1c(%ebx)
    367b:	89 04 24             	mov    %eax,(%esp)
    367e:	e8 dd f5 00 00       	call   12c60 <fsync>
    3683:	8d 45 e4             	lea    -0x1c(%ebp),%eax
    3686:	89 74 24 0c          	mov    %esi,0xc(%esp)
    368a:	c7 44 24 08 01 00 00 	movl   $0x1,0x8(%esp)
    3691:	00 
    3692:	c7 44 24 04 01 00 00 	movl   $0x1,0x4(%esp)
    3699:	00 
    369a:	89 04 24             	mov    %eax,(%esp)
    369d:	e8 0e f7 ff ff       	call   2db0 <fread>
    36a2:	85 c0                	test   %eax,%eax
    36a4:	74 2a                	je     36d0 <getchar+0x140>
    36a6:	0f be 45 e4          	movsbl -0x1c(%ebp),%eax
    36aa:	83 c4 3c             	add    $0x3c,%esp
    36ad:	5b                   	pop    %ebx
    36ae:	5e                   	pop    %esi
    36af:	5f                   	pop    %edi
    36b0:	5d                   	pop    %ebp
    36b1:	c3                   	ret    
    36b2:	8d b6 00 00 00 00    	lea    0x0(%esi),%esi
    36b8:	e8 b3 19 00 00       	call   5070 <klog_update>
    36bd:	eb c4                	jmp    3683 <getchar+0xf3>
    36bf:	90                   	nop
    36c0:	e8 ab 19 00 00       	call   5070 <klog_update>
    36c5:	e9 49 ff ff ff       	jmp    3613 <getchar+0x83>
    36ca:	8d b6 00 00 00 00    	lea    0x0(%esi),%esi
    36d0:	83 c8 ff             	or     $0xffffffff,%eax
    36d3:	eb d5                	jmp    36aa <getchar+0x11a>
    36d5:	8b 53 34             	mov    0x34(%ebx),%edx
    36d8:	c7 45 d4 00 00 00 00 	movl   $0x0,-0x2c(%ebp)
    36df:	89 55 d0             	mov    %edx,-0x30(%ebp)
    36e2:	eb 2e                	jmp    3712 <getchar+0x182>
    36e4:	8d 74 26 00          	lea    0x0(%esi,%eiz,1),%esi
    36e8:	8b 45 d0             	mov    -0x30(%ebp),%eax
    36eb:	8b 55 d4             	mov    -0x2c(%ebp),%edx
    36ee:	01 d0                	add    %edx,%eax
    36f0:	89 7c 24 04          	mov    %edi,0x4(%esp)
    36f4:	89 04 24             	mov    %eax,(%esp)
    36f7:	e8 24 19 00 00       	call   5020 <klog_write>
    36fc:	85 c0                	test   %eax,%eax
    36fe:	7e 48                	jle    3748 <getchar+0x1b8>
    3700:	8b 55 d4             	mov    -0x2c(%ebp),%edx
    3703:	29 c7                	sub    %eax,%edi
    3705:	01 c2                	add    %eax,%edx
    3707:	89 55 d4             	mov    %edx,-0x2c(%ebp)
    370a:	85 ff                	test   %edi,%edi
    370c:	0f 84 22 01 00 00    	je     3834 <getchar+0x2a4>
    3712:	8b 43 0c             	mov    0xc(%ebx),%eax
    3715:	85 c0                	test   %eax,%eax
    3717:	0f 85 17 01 00 00    	jne    3834 <getchar+0x2a4>
    371d:	8b 4b 14             	mov    0x14(%ebx),%ecx
    3720:	85 c9                	test   %ecx,%ecx
    3722:	75 c4                	jne    36e8 <getchar+0x158>
    3724:	8b 45 d0             	mov    -0x30(%ebp),%eax
    3727:	8b 4d d4             	mov    -0x2c(%ebp),%ecx
    372a:	01 c8                	add    %ecx,%eax
    372c:	89 7c 24 08          	mov    %edi,0x8(%esp)
    3730:	89 44 24 04          	mov    %eax,0x4(%esp)
    3734:	8b 43 08             	mov    0x8(%ebx),%eax
    3737:	89 04 24             	mov    %eax,(%esp)
    373a:	e8 41 f1 00 00       	call   12880 <write>
    373f:	eb bb                	jmp    36fc <getchar+0x16c>
    3741:	8d b4 26 00 00 00 00 	lea    0x0(%esi,%eiz,1),%esi
    3748:	c7 43 0c 01 00 00 00 	movl   $0x1,0xc(%ebx)
    374f:	eb b9                	jmp    370a <getchar+0x17a>
    3751:	89 f8                	mov    %edi,%eax
    3753:	c7 44 24 0c 01 00 00 	movl   $0x1,0xc(%esp)
    375a:	00 
    375b:	f7 d8                	neg    %eax
    375d:	89 c2                	mov    %eax,%edx
    375f:	89 44 24 04          	mov    %eax,0x4(%esp)
    3763:	c1 fa 1f             	sar    $0x1f,%edx
    3766:	89 54 24 08          	mov    %edx,0x8(%esp)
    376a:	8b 43 08             	mov    0x8(%ebx),%eax
    376d:	89 04 24             	mov    %eax,(%esp)
    3770:	e8 cb f5 00 00       	call   12d40 <lseek>
    3775:	8b 43 2c             	mov    0x2c(%ebx),%eax
    3778:	e9 cb fe ff ff       	jmp    3648 <getchar+0xb8>
    377d:	8b 53 34             	mov    0x34(%ebx),%edx
    3780:	c7 45 d4 00 00 00 00 	movl   $0x0,-0x2c(%ebp)
    3787:	89 55 d0             	mov    %edx,-0x30(%ebp)
    378a:	eb 2a                	jmp    37b6 <getchar+0x226>
    378c:	8d 74 26 00          	lea    0x0(%esi,%eiz,1),%esi
    3790:	8b 45 d0             	mov    -0x30(%ebp),%eax
    3793:	8b 55 d4             	mov    -0x2c(%ebp),%edx
    3796:	01 d0                	add    %edx,%eax
    3798:	89 7c 24 04          	mov    %edi,0x4(%esp)
    379c:	89 04 24             	mov    %eax,(%esp)
    379f:	e8 7c 18 00 00       	call   5020 <klog_write>
    37a4:	85 c0                	test   %eax,%eax
    37a6:	7e 40                	jle    37e8 <getchar+0x258>
    37a8:	8b 55 d4             	mov    -0x2c(%ebp),%edx
    37ab:	29 c7                	sub    %eax,%edi
    37ad:	01 c2                	add    %eax,%edx
    37af:	89 55 d4             	mov    %edx,-0x2c(%ebp)
    37b2:	85 ff                	test   %edi,%edi
    37b4:	74 67                	je     381d <getchar+0x28d>
    37b6:	8b 43 0c             	mov    0xc(%ebx),%eax
    37b9:	85 c0                	test   %eax,%eax
    37bb:	75 60                	jne    381d <getchar+0x28d>
    37bd:	8b 4b 14             	mov    0x14(%ebx),%ecx
    37c0:	85 c9                	test   %ecx,%ecx
    37c2:	75 cc                	jne    3790 <getchar+0x200>
    37c4:	8b 45 d0             	mov    -0x30(%ebp),%eax
    37c7:	8b 4d d4             	mov    -0x2c(%ebp),%ecx
    37ca:	01 c8                	add    %ecx,%eax
    37cc:	89 7c 24 08          	mov    %edi,0x8(%esp)
    37d0:	89 44 24 04          	mov    %eax,0x4(%esp)
    37d4:	8b 43 08             	mov    0x8(%ebx),%eax
    37d7:	89 04 24             	mov    %eax,(%esp)
    37da:	e8 a1 f0 00 00       	call   12880 <write>
    37df:	eb c3                	jmp    37a4 <getchar+0x214>
    37e1:	8d b4 26 00 00 00 00 	lea    0x0(%esi,%eiz,1),%esi
    37e8:	c7 43 0c 01 00 00 00 	movl   $0x1,0xc(%ebx)
    37ef:	eb c1                	jmp    37b2 <getchar+0x222>
    37f1:	89 f8                	mov    %edi,%eax
    37f3:	c7 44 24 0c 01 00 00 	movl   $0x1,0xc(%esp)
    37fa:	00 
    37fb:	f7 d8                	neg    %eax
    37fd:	89 c2                	mov    %eax,%edx
    37ff:	89 44 24 04          	mov    %eax,0x4(%esp)
    3803:	c1 fa 1f             	sar    $0x1f,%edx
    3806:	89 54 24 08          	mov    %edx,0x8(%esp)
    380a:	8b 43 08             	mov    0x8(%ebx),%eax
    380d:	89 04 24             	mov    %eax,(%esp)
    3810:	e8 2b f5 00 00       	call   12d40 <lseek>
    3815:	8b 43 2c             	mov    0x2c(%ebx),%eax
    3818:	e9 b7 fd ff ff       	jmp    35d4 <getchar+0x44>
    381d:	8b 45 d4             	mov    -0x2c(%ebp),%eax
    3820:	85 c0                	test   %eax,%eax
    3822:	0f 84 b3 fd ff ff    	je     35db <getchar+0x4b>
    3828:	c7 43 1c 01 00 00 00 	movl   $0x1,0x1c(%ebx)
    382f:	e9 a7 fd ff ff       	jmp    35db <getchar+0x4b>
    3834:	8b 45 d4             	mov    -0x2c(%ebp),%eax
    3837:	85 c0                	test   %eax,%eax
    3839:	0f 84 10 fe ff ff    	je     364f <getchar+0xbf>
    383f:	c7 43 1c 01 00 00 00 	movl   $0x1,0x1c(%ebx)
    3846:	e9 04 fe ff ff       	jmp    364f <getchar+0xbf>
    384b:	90                   	nop
    384c:	8d 74 26 00          	lea    0x0(%esi,%eiz,1),%esi

00003850 <fseek>:
    3850:	55                   	push   %ebp
    3851:	89 e5                	mov    %esp,%ebp
    3853:	57                   	push   %edi
    3854:	56                   	push   %esi
    3855:	53                   	push   %ebx
    3856:	83 ec 3c             	sub    $0x3c,%esp
    3859:	8b 5d 08             	mov    0x8(%ebp),%ebx
    385c:	8b 75 0c             	mov    0xc(%ebp),%esi
    385f:	8b 7d 10             	mov    0x10(%ebp),%edi
    3862:	8b 43 24             	mov    0x24(%ebx),%eax
    3865:	85 c0                	test   %eax,%eax
    3867:	74 31                	je     389a <fseek+0x4a>
    3869:	8b 4b 20             	mov    0x20(%ebx),%ecx
    386c:	85 c9                	test   %ecx,%ecx
    386e:	74 2a                	je     389a <fseek+0x4a>
    3870:	8b 53 0c             	mov    0xc(%ebx),%edx
    3873:	85 d2                	test   %edx,%edx
    3875:	75 23                	jne    389a <fseek+0x4a>
    3877:	8b 4b 30             	mov    0x30(%ebx),%ecx
    387a:	2b 4b 34             	sub    0x34(%ebx),%ecx
    387d:	74 0e                	je     388d <fseek+0x3d>
    387f:	8b 43 2c             	mov    0x2c(%ebx),%eax
    3882:	83 f8 02             	cmp    $0x2,%eax
    3885:	74 49                	je     38d0 <fseek+0x80>
    3887:	48                   	dec    %eax
    3888:	74 76                	je     3900 <fseek+0xb0>
    388a:	8b 43 24             	mov    0x24(%ebx),%eax
    388d:	89 43 30             	mov    %eax,0x30(%ebx)
    3890:	89 43 34             	mov    %eax,0x34(%ebx)
    3893:	c7 43 2c 00 00 00 00 	movl   $0x0,0x2c(%ebx)
    389a:	8b 45 14             	mov    0x14(%ebp),%eax
    389d:	89 74 24 04          	mov    %esi,0x4(%esp)
    38a1:	89 44 24 0c          	mov    %eax,0xc(%esp)
    38a5:	89 7c 24 08          	mov    %edi,0x8(%esp)
    38a9:	8b 43 08             	mov    0x8(%ebx),%eax
    38ac:	89 04 24             	mov    %eax,(%esp)
    38af:	e8 8c f4 00 00       	call   12d40 <lseek>
    38b4:	21 d0                	and    %edx,%eax
    38b6:	40                   	inc    %eax
    38b7:	0f 84 ac 00 00 00    	je     3969 <fseek+0x119>
    38bd:	c7 43 10 00 00 00 00 	movl   $0x0,0x10(%ebx)
    38c4:	31 c0                	xor    %eax,%eax
    38c6:	83 c4 3c             	add    $0x3c,%esp
    38c9:	5b                   	pop    %ebx
    38ca:	5e                   	pop    %esi
    38cb:	5f                   	pop    %edi
    38cc:	5d                   	pop    %ebp
    38cd:	c3                   	ret    
    38ce:	66 90                	xchg   %ax,%ax
    38d0:	89 c8                	mov    %ecx,%eax
    38d2:	c7 44 24 0c 01 00 00 	movl   $0x1,0xc(%esp)
    38d9:	00 
    38da:	f7 d8                	neg    %eax
    38dc:	89 c2                	mov    %eax,%edx
    38de:	89 44 24 04          	mov    %eax,0x4(%esp)
    38e2:	c1 fa 1f             	sar    $0x1f,%edx
    38e5:	89 54 24 08          	mov    %edx,0x8(%esp)
    38e9:	8b 43 08             	mov    0x8(%ebx),%eax
    38ec:	89 4d d4             	mov    %ecx,-0x2c(%ebp)
    38ef:	89 04 24             	mov    %eax,(%esp)
    38f2:	e8 49 f4 00 00       	call   12d40 <lseek>
    38f7:	8b 43 2c             	mov    0x2c(%ebx),%eax
    38fa:	8b 4d d4             	mov    -0x2c(%ebp),%ecx
    38fd:	eb 88                	jmp    3887 <fseek+0x37>
    38ff:	90                   	nop
    3900:	8b 53 34             	mov    0x34(%ebx),%edx
    3903:	89 75 d8             	mov    %esi,-0x28(%ebp)
    3906:	89 55 e4             	mov    %edx,-0x1c(%ebp)
    3909:	31 d2                	xor    %edx,%edx
    390b:	89 7d dc             	mov    %edi,-0x24(%ebp)
    390e:	89 d6                	mov    %edx,%esi
    3910:	89 df                	mov    %ebx,%edi
    3912:	89 cb                	mov    %ecx,%ebx
    3914:	eb 1f                	jmp    3935 <fseek+0xe5>
    3916:	66 90                	xchg   %ax,%ax
    3918:	8b 45 e4             	mov    -0x1c(%ebp),%eax
    391b:	89 5c 24 04          	mov    %ebx,0x4(%esp)
    391f:	01 f0                	add    %esi,%eax
    3921:	89 04 24             	mov    %eax,(%esp)
    3924:	e8 f7 16 00 00       	call   5020 <klog_write>
    3929:	85 c0                	test   %eax,%eax
    392b:	7e 33                	jle    3960 <fseek+0x110>
    392d:	29 c3                	sub    %eax,%ebx
    392f:	01 c6                	add    %eax,%esi
    3931:	85 db                	test   %ebx,%ebx
    3933:	74 3c                	je     3971 <fseek+0x121>
    3935:	8b 4f 0c             	mov    0xc(%edi),%ecx
    3938:	85 c9                	test   %ecx,%ecx
    393a:	75 35                	jne    3971 <fseek+0x121>
    393c:	8b 47 14             	mov    0x14(%edi),%eax
    393f:	85 c0                	test   %eax,%eax
    3941:	75 d5                	jne    3918 <fseek+0xc8>
    3943:	8b 45 e4             	mov    -0x1c(%ebp),%eax
    3946:	89 5c 24 08          	mov    %ebx,0x8(%esp)
    394a:	01 f0                	add    %esi,%eax
    394c:	89 44 24 04          	mov    %eax,0x4(%esp)
    3950:	8b 47 08             	mov    0x8(%edi),%eax
    3953:	89 04 24             	mov    %eax,(%esp)
    3956:	e8 25 ef 00 00       	call   12880 <write>
    395b:	eb cc                	jmp    3929 <fseek+0xd9>
    395d:	8d 76 00             	lea    0x0(%esi),%esi
    3960:	c7 47 0c 01 00 00 00 	movl   $0x1,0xc(%edi)
    3967:	eb c8                	jmp    3931 <fseek+0xe1>
    3969:	83 c8 ff             	or     $0xffffffff,%eax
    396c:	e9 55 ff ff ff       	jmp    38c6 <fseek+0x76>
    3971:	89 f2                	mov    %esi,%edx
    3973:	89 fb                	mov    %edi,%ebx
    3975:	8b 75 d8             	mov    -0x28(%ebp),%esi
    3978:	8b 7d dc             	mov    -0x24(%ebp),%edi
    397b:	85 d2                	test   %edx,%edx
    397d:	0f 84 07 ff ff ff    	je     388a <fseek+0x3a>
    3983:	c7 43 1c 01 00 00 00 	movl   $0x1,0x1c(%ebx)
    398a:	e9 fb fe ff ff       	jmp    388a <fseek+0x3a>
    398f:	90                   	nop

00003990 <ftell>:
    3990:	55                   	push   %ebp
    3991:	89 e5                	mov    %esp,%ebp
    3993:	57                   	push   %edi
    3994:	56                   	push   %esi
    3995:	53                   	push   %ebx
    3996:	83 ec 2c             	sub    $0x2c,%esp
    3999:	8b 5d 08             	mov    0x8(%ebp),%ebx
    399c:	8b 43 24             	mov    0x24(%ebx),%eax
    399f:	85 c0                	test   %eax,%eax
    39a1:	74 33                	je     39d6 <ftell+0x46>
    39a3:	8b 4b 20             	mov    0x20(%ebx),%ecx
    39a6:	85 c9                	test   %ecx,%ecx
    39a8:	74 2c                	je     39d6 <ftell+0x46>
    39aa:	8b 53 0c             	mov    0xc(%ebx),%edx
    39ad:	85 d2                	test   %edx,%edx
    39af:	75 25                	jne    39d6 <ftell+0x46>
    39b1:	8b 4b 30             	mov    0x30(%ebx),%ecx
    39b4:	89 cf                	mov    %ecx,%edi
    39b6:	2b 7b 34             	sub    0x34(%ebx),%edi
    39b9:	74 0e                	je     39c9 <ftell+0x39>
    39bb:	8b 43 2c             	mov    0x2c(%ebx),%eax
    39be:	83 f8 02             	cmp    $0x2,%eax
    39c1:	74 45                	je     3a08 <ftell+0x78>
    39c3:	48                   	dec    %eax
    39c4:	74 72                	je     3a38 <ftell+0xa8>
    39c6:	8b 43 24             	mov    0x24(%ebx),%eax
    39c9:	89 43 30             	mov    %eax,0x30(%ebx)
    39cc:	89 43 34             	mov    %eax,0x34(%ebx)
    39cf:	c7 43 2c 00 00 00 00 	movl   $0x0,0x2c(%ebx)
    39d6:	c7 44 24 0c 01 00 00 	movl   $0x1,0xc(%esp)
    39dd:	00 
    39de:	c7 44 24 04 00 00 00 	movl   $0x0,0x4(%esp)
    39e5:	00 
    39e6:	c7 44 24 08 00 00 00 	movl   $0x0,0x8(%esp)
    39ed:	00 
    39ee:	8b 43 08             	mov    0x8(%ebx),%eax
    39f1:	89 04 24             	mov    %eax,(%esp)
    39f4:	e8 47 f3 00 00       	call   12d40 <lseek>
    39f9:	83 c4 2c             	add    $0x2c,%esp
    39fc:	5b                   	pop    %ebx
    39fd:	5e                   	pop    %esi
    39fe:	5f                   	pop    %edi
    39ff:	5d                   	pop    %ebp
    3a00:	c3                   	ret    
    3a01:	8d b4 26 00 00 00 00 	lea    0x0(%esi,%eiz,1),%esi
    3a08:	89 f8                	mov    %edi,%eax
    3a0a:	c7 44 24 0c 01 00 00 	movl   $0x1,0xc(%esp)
    3a11:	00 
    3a12:	f7 d8                	neg    %eax
    3a14:	89 c2                	mov    %eax,%edx
    3a16:	89 44 24 04          	mov    %eax,0x4(%esp)
    3a1a:	c1 fa 1f             	sar    $0x1f,%edx
    3a1d:	89 54 24 08          	mov    %edx,0x8(%esp)
    3a21:	8b 43 08             	mov    0x8(%ebx),%eax
    3a24:	89 04 24             	mov    %eax,(%esp)
    3a27:	e8 14 f3 00 00       	call   12d40 <lseek>
    3a2c:	8b 43 2c             	mov    0x2c(%ebx),%eax
    3a2f:	eb 92                	jmp    39c3 <ftell+0x33>
    3a31:	8d b4 26 00 00 00 00 	lea    0x0(%esi,%eiz,1),%esi
    3a38:	8b 53 34             	mov    0x34(%ebx),%edx
    3a3b:	31 f6                	xor    %esi,%esi
    3a3d:	89 55 e4             	mov    %edx,-0x1c(%ebp)
    3a40:	eb 23                	jmp    3a65 <ftell+0xd5>
    3a42:	8d b6 00 00 00 00    	lea    0x0(%esi),%esi
    3a48:	8b 45 e4             	mov    -0x1c(%ebp),%eax
    3a4b:	89 7c 24 04          	mov    %edi,0x4(%esp)
    3a4f:	01 f0                	add    %esi,%eax
    3a51:	89 04 24             	mov    %eax,(%esp)
    3a54:	e8 c7 15 00 00       	call   5020 <klog_write>
    3a59:	85 c0                	test   %eax,%eax
    3a5b:	7e 33                	jle    3a90 <ftell+0x100>
    3a5d:	29 c7                	sub    %eax,%edi
    3a5f:	01 c6                	add    %eax,%esi
    3a61:	85 ff                	test   %edi,%edi
    3a63:	74 3b                	je     3aa0 <ftell+0x110>
    3a65:	8b 43 0c             	mov    0xc(%ebx),%eax
    3a68:	85 c0                	test   %eax,%eax
    3a6a:	75 34                	jne    3aa0 <ftell+0x110>
    3a6c:	8b 43 14             	mov    0x14(%ebx),%eax
    3a6f:	85 c0                	test   %eax,%eax
    3a71:	75 d5                	jne    3a48 <ftell+0xb8>
    3a73:	8b 45 e4             	mov    -0x1c(%ebp),%eax
    3a76:	89 7c 24 08          	mov    %edi,0x8(%esp)
    3a7a:	01 f0                	add    %esi,%eax
    3a7c:	89 44 24 04          	mov    %eax,0x4(%esp)
    3a80:	8b 43 08             	mov    0x8(%ebx),%eax
    3a83:	89 04 24             	mov    %eax,(%esp)
    3a86:	e8 f5 ed 00 00       	call   12880 <write>
    3a8b:	eb cc                	jmp    3a59 <ftell+0xc9>
    3a8d:	8d 76 00             	lea    0x0(%esi),%esi
    3a90:	c7 43 0c 01 00 00 00 	movl   $0x1,0xc(%ebx)
    3a97:	eb c8                	jmp    3a61 <ftell+0xd1>
    3a99:	8d b4 26 00 00 00 00 	lea    0x0(%esi,%eiz,1),%esi
    3aa0:	85 f6                	test   %esi,%esi
    3aa2:	0f 84 1e ff ff ff    	je     39c6 <ftell+0x36>
    3aa8:	c7 43 1c 01 00 00 00 	movl   $0x1,0x1c(%ebx)
    3aaf:	e9 12 ff ff ff       	jmp    39c6 <ftell+0x36>
    3ab4:	8d b6 00 00 00 00    	lea    0x0(%esi),%esi
    3aba:	8d bf 00 00 00 00    	lea    0x0(%edi),%edi

00003ac0 <rewind>:
    3ac0:	55                   	push   %ebp
    3ac1:	89 e5                	mov    %esp,%ebp
    3ac3:	57                   	push   %edi
    3ac4:	56                   	push   %esi
    3ac5:	53                   	push   %ebx
    3ac6:	83 ec 2c             	sub    $0x2c,%esp
    3ac9:	8b 5d 08             	mov    0x8(%ebp),%ebx
    3acc:	8b 43 24             	mov    0x24(%ebx),%eax
    3acf:	85 c0                	test   %eax,%eax
    3ad1:	74 33                	je     3b06 <rewind+0x46>
    3ad3:	8b 4b 20             	mov    0x20(%ebx),%ecx
    3ad6:	85 c9                	test   %ecx,%ecx
    3ad8:	74 2c                	je     3b06 <rewind+0x46>
    3ada:	8b 53 0c             	mov    0xc(%ebx),%edx
    3add:	85 d2                	test   %edx,%edx
    3adf:	75 25                	jne    3b06 <rewind+0x46>
    3ae1:	8b 4b 30             	mov    0x30(%ebx),%ecx
    3ae4:	89 cf                	mov    %ecx,%edi
    3ae6:	2b 7b 34             	sub    0x34(%ebx),%edi
    3ae9:	74 0e                	je     3af9 <rewind+0x39>
    3aeb:	8b 43 2c             	mov    0x2c(%ebx),%eax
    3aee:	83 f8 02             	cmp    $0x2,%eax
    3af1:	74 4d                	je     3b40 <rewind+0x80>
    3af3:	48                   	dec    %eax
    3af4:	74 7a                	je     3b70 <rewind+0xb0>
    3af6:	8b 43 24             	mov    0x24(%ebx),%eax
    3af9:	89 43 30             	mov    %eax,0x30(%ebx)
    3afc:	89 43 34             	mov    %eax,0x34(%ebx)
    3aff:	c7 43 2c 00 00 00 00 	movl   $0x0,0x2c(%ebx)
    3b06:	c7 44 24 0c 00 00 00 	movl   $0x0,0xc(%esp)
    3b0d:	00 
    3b0e:	c7 44 24 04 00 00 00 	movl   $0x0,0x4(%esp)
    3b15:	00 
    3b16:	c7 44 24 08 00 00 00 	movl   $0x0,0x8(%esp)
    3b1d:	00 
    3b1e:	8b 43 08             	mov    0x8(%ebx),%eax
    3b21:	89 04 24             	mov    %eax,(%esp)
    3b24:	e8 17 f2 00 00       	call   12d40 <lseek>
    3b29:	21 d0                	and    %edx,%eax
    3b2b:	40                   	inc    %eax
    3b2c:	74 07                	je     3b35 <rewind+0x75>
    3b2e:	c7 43 10 00 00 00 00 	movl   $0x0,0x10(%ebx)
    3b35:	83 c4 2c             	add    $0x2c,%esp
    3b38:	5b                   	pop    %ebx
    3b39:	5e                   	pop    %esi
    3b3a:	5f                   	pop    %edi
    3b3b:	5d                   	pop    %ebp
    3b3c:	c3                   	ret    
    3b3d:	8d 76 00             	lea    0x0(%esi),%esi
    3b40:	89 f8                	mov    %edi,%eax
    3b42:	c7 44 24 0c 01 00 00 	movl   $0x1,0xc(%esp)
    3b49:	00 
    3b4a:	f7 d8                	neg    %eax
    3b4c:	89 c2                	mov    %eax,%edx
    3b4e:	89 44 24 04          	mov    %eax,0x4(%esp)
    3b52:	c1 fa 1f             	sar    $0x1f,%edx
    3b55:	89 54 24 08          	mov    %edx,0x8(%esp)
    3b59:	8b 43 08             	mov    0x8(%ebx),%eax
    3b5c:	89 04 24             	mov    %eax,(%esp)
    3b5f:	e8 dc f1 00 00       	call   12d40 <lseek>
    3b64:	8b 43 2c             	mov    0x2c(%ebx),%eax
    3b67:	eb 8a                	jmp    3af3 <rewind+0x33>
    3b69:	8d b4 26 00 00 00 00 	lea    0x0(%esi,%eiz,1),%esi
    3b70:	8b 53 34             	mov    0x34(%ebx),%edx
    3b73:	31 f6                	xor    %esi,%esi
    3b75:	89 55 e4             	mov    %edx,-0x1c(%ebp)
    3b78:	eb 23                	jmp    3b9d <rewind+0xdd>
    3b7a:	8d b6 00 00 00 00    	lea    0x0(%esi),%esi
    3b80:	8b 45 e4             	mov    -0x1c(%ebp),%eax
    3b83:	89 7c 24 04          	mov    %edi,0x4(%esp)
    3b87:	01 f0                	add    %esi,%eax
    3b89:	89 04 24             	mov    %eax,(%esp)
    3b8c:	e8 8f 14 00 00       	call   5020 <klog_write>
    3b91:	85 c0                	test   %eax,%eax
    3b93:	7e 33                	jle    3bc8 <rewind+0x108>
    3b95:	29 c7                	sub    %eax,%edi
    3b97:	01 c6                	add    %eax,%esi
    3b99:	85 ff                	test   %edi,%edi
    3b9b:	74 3b                	je     3bd8 <rewind+0x118>
    3b9d:	8b 43 0c             	mov    0xc(%ebx),%eax
    3ba0:	85 c0                	test   %eax,%eax
    3ba2:	75 34                	jne    3bd8 <rewind+0x118>
    3ba4:	8b 43 14             	mov    0x14(%ebx),%eax
    3ba7:	85 c0                	test   %eax,%eax
    3ba9:	75 d5                	jne    3b80 <rewind+0xc0>
    3bab:	8b 45 e4             	mov    -0x1c(%ebp),%eax
    3bae:	89 7c 24 08          	mov    %edi,0x8(%esp)
    3bb2:	01 f0                	add    %esi,%eax
    3bb4:	89 44 24 04          	mov    %eax,0x4(%esp)
    3bb8:	8b 43 08             	mov    0x8(%ebx),%eax
    3bbb:	89 04 24             	mov    %eax,(%esp)
    3bbe:	e8 bd ec 00 00       	call   12880 <write>
    3bc3:	eb cc                	jmp    3b91 <rewind+0xd1>
    3bc5:	8d 76 00             	lea    0x0(%esi),%esi
    3bc8:	c7 43 0c 01 00 00 00 	movl   $0x1,0xc(%ebx)
    3bcf:	eb c8                	jmp    3b99 <rewind+0xd9>
    3bd1:	8d b4 26 00 00 00 00 	lea    0x0(%esi,%eiz,1),%esi
    3bd8:	85 f6                	test   %esi,%esi
    3bda:	0f 84 16 ff ff ff    	je     3af6 <rewind+0x36>
    3be0:	c7 43 1c 01 00 00 00 	movl   $0x1,0x1c(%ebx)
    3be7:	e9 0a ff ff ff       	jmp    3af6 <rewind+0x36>
    3bec:	8d 74 26 00          	lea    0x0(%esi,%eiz,1),%esi

00003bf0 <fflush>:
    3bf0:	55                   	push   %ebp
    3bf1:	89 e5                	mov    %esp,%ebp
    3bf3:	57                   	push   %edi
    3bf4:	56                   	push   %esi
    3bf5:	53                   	push   %ebx
    3bf6:	83 ec 2c             	sub    $0x2c,%esp
    3bf9:	8b 5d 08             	mov    0x8(%ebp),%ebx
    3bfc:	8b 43 24             	mov    0x24(%ebx),%eax
    3bff:	85 c0                	test   %eax,%eax
    3c01:	74 37                	je     3c3a <fflush+0x4a>
    3c03:	8b 4b 20             	mov    0x20(%ebx),%ecx
    3c06:	85 c9                	test   %ecx,%ecx
    3c08:	74 30                	je     3c3a <fflush+0x4a>
    3c0a:	8b 53 0c             	mov    0xc(%ebx),%edx
    3c0d:	85 d2                	test   %edx,%edx
    3c0f:	75 29                	jne    3c3a <fflush+0x4a>
    3c11:	8b 4b 30             	mov    0x30(%ebx),%ecx
    3c14:	89 cf                	mov    %ecx,%edi
    3c16:	2b 7b 34             	sub    0x34(%ebx),%edi
    3c19:	74 12                	je     3c2d <fflush+0x3d>
    3c1b:	8b 43 2c             	mov    0x2c(%ebx),%eax
    3c1e:	83 f8 02             	cmp    $0x2,%eax
    3c21:	74 5d                	je     3c80 <fflush+0x90>
    3c23:	48                   	dec    %eax
    3c24:	0f 84 86 00 00 00    	je     3cb0 <fflush+0xc0>
    3c2a:	8b 43 24             	mov    0x24(%ebx),%eax
    3c2d:	89 43 30             	mov    %eax,0x30(%ebx)
    3c30:	89 43 34             	mov    %eax,0x34(%ebx)
    3c33:	c7 43 2c 00 00 00 00 	movl   $0x0,0x2c(%ebx)
    3c3a:	8b 7b 14             	mov    0x14(%ebx),%edi
    3c3d:	85 ff                	test   %edi,%edi
    3c3f:	75 27                	jne    3c68 <fflush+0x78>
    3c41:	8b 43 08             	mov    0x8(%ebx),%eax
    3c44:	85 c0                	test   %eax,%eax
    3c46:	78 30                	js     3c78 <fflush+0x88>
    3c48:	8b 73 1c             	mov    0x1c(%ebx),%esi
    3c4b:	85 f6                	test   %esi,%esi
    3c4d:	74 29                	je     3c78 <fflush+0x88>
    3c4f:	c7 43 1c 00 00 00 00 	movl   $0x0,0x1c(%ebx)
    3c56:	89 45 08             	mov    %eax,0x8(%ebp)
    3c59:	83 c4 2c             	add    $0x2c,%esp
    3c5c:	5b                   	pop    %ebx
    3c5d:	5e                   	pop    %esi
    3c5e:	5f                   	pop    %edi
    3c5f:	5d                   	pop    %ebp
    3c60:	e9 fb ef 00 00       	jmp    12c60 <fsync>
    3c65:	8d 76 00             	lea    0x0(%esi),%esi
    3c68:	e8 03 14 00 00       	call   5070 <klog_update>
    3c6d:	31 c0                	xor    %eax,%eax
    3c6f:	83 c4 2c             	add    $0x2c,%esp
    3c72:	5b                   	pop    %ebx
    3c73:	5e                   	pop    %esi
    3c74:	5f                   	pop    %edi
    3c75:	5d                   	pop    %ebp
    3c76:	c3                   	ret    
    3c77:	90                   	nop
    3c78:	83 c8 ff             	or     $0xffffffff,%eax
    3c7b:	eb f2                	jmp    3c6f <fflush+0x7f>
    3c7d:	8d 76 00             	lea    0x0(%esi),%esi
    3c80:	89 f8                	mov    %edi,%eax
    3c82:	c7 44 24 0c 01 00 00 	movl   $0x1,0xc(%esp)
    3c89:	00 
    3c8a:	f7 d8                	neg    %eax
    3c8c:	89 c2                	mov    %eax,%edx
    3c8e:	89 44 24 04          	mov    %eax,0x4(%esp)
    3c92:	c1 fa 1f             	sar    $0x1f,%edx
    3c95:	89 54 24 08          	mov    %edx,0x8(%esp)
    3c99:	8b 43 08             	mov    0x8(%ebx),%eax
    3c9c:	89 04 24             	mov    %eax,(%esp)
    3c9f:	e8 9c f0 00 00       	call   12d40 <lseek>
    3ca4:	8b 43 2c             	mov    0x2c(%ebx),%eax
    3ca7:	e9 77 ff ff ff       	jmp    3c23 <fflush+0x33>
    3cac:	8d 74 26 00          	lea    0x0(%esi,%eiz,1),%esi
    3cb0:	8b 53 34             	mov    0x34(%ebx),%edx
    3cb3:	31 f6                	xor    %esi,%esi
    3cb5:	89 55 e4             	mov    %edx,-0x1c(%ebp)
    3cb8:	eb 23                	jmp    3cdd <fflush+0xed>
    3cba:	8d b6 00 00 00 00    	lea    0x0(%esi),%esi
    3cc0:	8b 45 e4             	mov    -0x1c(%ebp),%eax
    3cc3:	89 7c 24 04          	mov    %edi,0x4(%esp)
    3cc7:	01 f0                	add    %esi,%eax
    3cc9:	89 04 24             	mov    %eax,(%esp)
    3ccc:	e8 4f 13 00 00       	call   5020 <klog_write>
    3cd1:	85 c0                	test   %eax,%eax
    3cd3:	7e 33                	jle    3d08 <fflush+0x118>
    3cd5:	29 c7                	sub    %eax,%edi
    3cd7:	01 c6                	add    %eax,%esi
    3cd9:	85 ff                	test   %edi,%edi
    3cdb:	74 3b                	je     3d18 <fflush+0x128>
    3cdd:	8b 43 0c             	mov    0xc(%ebx),%eax
    3ce0:	85 c0                	test   %eax,%eax
    3ce2:	75 34                	jne    3d18 <fflush+0x128>
    3ce4:	8b 43 14             	mov    0x14(%ebx),%eax
    3ce7:	85 c0                	test   %eax,%eax
    3ce9:	75 d5                	jne    3cc0 <fflush+0xd0>
    3ceb:	8b 45 e4             	mov    -0x1c(%ebp),%eax
    3cee:	89 7c 24 08          	mov    %edi,0x8(%esp)
    3cf2:	01 f0                	add    %esi,%eax
    3cf4:	89 44 24 04          	mov    %eax,0x4(%esp)
    3cf8:	8b 43 08             	mov    0x8(%ebx),%eax
    3cfb:	89 04 24             	mov    %eax,(%esp)
    3cfe:	e8 7d eb 00 00       	call   12880 <write>
    3d03:	eb cc                	jmp    3cd1 <fflush+0xe1>
    3d05:	8d 76 00             	lea    0x0(%esi),%esi
    3d08:	c7 43 0c 01 00 00 00 	movl   $0x1,0xc(%ebx)
    3d0f:	eb c8                	jmp    3cd9 <fflush+0xe9>
    3d11:	8d b4 26 00 00 00 00 	lea    0x0(%esi,%eiz,1),%esi
    3d18:	85 f6                	test   %esi,%esi
    3d1a:	0f 84 0a ff ff ff    	je     3c2a <fflush+0x3a>
    3d20:	c7 43 1c 01 00 00 00 	movl   $0x1,0x1c(%ebx)
    3d27:	e9 fe fe ff ff       	jmp    3c2a <fflush+0x3a>
    3d2c:	8d 74 26 00          	lea    0x0(%esi,%eiz,1),%esi

00003d30 <fwrite.part.5>:
    3d30:	55                   	push   %ebp
    3d31:	89 e5                	mov    %esp,%ebp
    3d33:	57                   	push   %edi
    3d34:	89 c7                	mov    %eax,%edi
    3d36:	89 c8                	mov    %ecx,%eax
    3d38:	0f af c2             	imul   %edx,%eax
    3d3b:	56                   	push   %esi
    3d3c:	53                   	push   %ebx
    3d3d:	83 ec 3c             	sub    $0x3c,%esp
    3d40:	89 55 d4             	mov    %edx,-0x2c(%ebp)
    3d43:	8b 5d 08             	mov    0x8(%ebp),%ebx
    3d46:	89 45 e0             	mov    %eax,-0x20(%ebp)
    3d49:	c6 45 d8 00          	movb   $0x0,-0x28(%ebp)
    3d4d:	c7 45 dc 00 00 00 00 	movl   $0x0,-0x24(%ebp)
    3d54:	8b 53 0c             	mov    0xc(%ebx),%edx
    3d57:	90                   	nop
    3d58:	85 d2                	test   %edx,%edx
    3d5a:	0f 85 00 01 00 00    	jne    3e60 <fwrite.part.5+0x130>
    3d60:	8b 75 e0             	mov    -0x20(%ebp),%esi
    3d63:	85 f6                	test   %esi,%esi
    3d65:	0f 84 f5 00 00 00    	je     3e60 <fwrite.part.5+0x130>
    3d6b:	8b 4b 30             	mov    0x30(%ebx),%ecx
    3d6e:	8b 43 24             	mov    0x24(%ebx),%eax
    3d71:	29 c8                	sub    %ecx,%eax
    3d73:	89 45 e4             	mov    %eax,-0x1c(%ebp)
    3d76:	8b 43 28             	mov    0x28(%ebx),%eax
    3d79:	8b 75 e4             	mov    -0x1c(%ebp),%esi
    3d7c:	01 c6                	add    %eax,%esi
    3d7e:	89 75 e4             	mov    %esi,-0x1c(%ebp)
    3d81:	8b 75 e0             	mov    -0x20(%ebp),%esi
    3d84:	8b 45 e4             	mov    -0x1c(%ebp),%eax
    3d87:	39 c6                	cmp    %eax,%esi
    3d89:	76 02                	jbe    3d8d <fwrite.part.5+0x5d>
    3d8b:	89 c6                	mov    %eax,%esi
    3d8d:	85 f6                	test   %esi,%esi
    3d8f:	74 32                	je     3dc3 <fwrite.part.5+0x93>
    3d91:	31 c0                	xor    %eax,%eax
    3d93:	eb 0b                	jmp    3da0 <fwrite.part.5+0x70>
    3d95:	8d 76 00             	lea    0x0(%esi),%esi
    3d98:	40                   	inc    %eax
    3d99:	8b 4b 30             	mov    0x30(%ebx),%ecx
    3d9c:	39 f0                	cmp    %esi,%eax
    3d9e:	74 20                	je     3dc0 <fwrite.part.5+0x90>
    3da0:	8a 14 07             	mov    (%edi,%eax,1),%dl
    3da3:	88 14 01             	mov    %dl,(%ecx,%eax,1)
    3da6:	80 fa 0a             	cmp    $0xa,%dl
    3da9:	75 ed                	jne    3d98 <fwrite.part.5+0x68>
    3dab:	83 7b 20 01          	cmpl   $0x1,0x20(%ebx)
    3daf:	75 e7                	jne    3d98 <fwrite.part.5+0x68>
    3db1:	40                   	inc    %eax
    3db2:	c6 45 d8 01          	movb   $0x1,-0x28(%ebp)
    3db6:	8b 4b 30             	mov    0x30(%ebx),%ecx
    3db9:	39 f0                	cmp    %esi,%eax
    3dbb:	75 e3                	jne    3da0 <fwrite.part.5+0x70>
    3dbd:	8d 76 00             	lea    0x0(%esi),%esi
    3dc0:	8b 53 0c             	mov    0xc(%ebx),%edx
    3dc3:	8b 45 e0             	mov    -0x20(%ebp),%eax
    3dc6:	01 f1                	add    %esi,%ecx
    3dc8:	29 f0                	sub    %esi,%eax
    3dca:	01 f7                	add    %esi,%edi
    3dcc:	89 45 e0             	mov    %eax,-0x20(%ebp)
    3dcf:	8b 45 dc             	mov    -0x24(%ebp),%eax
    3dd2:	01 f0                	add    %esi,%eax
    3dd4:	89 4b 30             	mov    %ecx,0x30(%ebx)
    3dd7:	89 45 dc             	mov    %eax,-0x24(%ebp)
    3dda:	c7 43 2c 01 00 00 00 	movl   $0x1,0x2c(%ebx)
    3de1:	39 75 e4             	cmp    %esi,-0x1c(%ebp)
    3de4:	0f 85 6e ff ff ff    	jne    3d58 <fwrite.part.5+0x28>
    3dea:	8b 43 24             	mov    0x24(%ebx),%eax
    3ded:	c6 45 d8 00          	movb   $0x0,-0x28(%ebp)
    3df1:	85 c0                	test   %eax,%eax
    3df3:	0f 84 5f ff ff ff    	je     3d58 <fwrite.part.5+0x28>
    3df9:	8b 73 20             	mov    0x20(%ebx),%esi
    3dfc:	85 f6                	test   %esi,%esi
    3dfe:	0f 84 54 ff ff ff    	je     3d58 <fwrite.part.5+0x28>
    3e04:	85 d2                	test   %edx,%edx
    3e06:	0f 85 4c ff ff ff    	jne    3d58 <fwrite.part.5+0x28>
    3e0c:	8b 73 34             	mov    0x34(%ebx),%esi
    3e0f:	29 f1                	sub    %esi,%ecx
    3e11:	89 4d e4             	mov    %ecx,-0x1c(%ebp)
    3e14:	74 7f                	je     3e95 <fwrite.part.5+0x165>
    3e16:	31 c9                	xor    %ecx,%ecx
    3e18:	89 7d d8             	mov    %edi,-0x28(%ebp)
    3e1b:	89 cf                	mov    %ecx,%edi
    3e1d:	8b 53 14             	mov    0x14(%ebx),%edx
    3e20:	8b 45 e4             	mov    -0x1c(%ebp),%eax
    3e23:	85 d2                	test   %edx,%edx
    3e25:	0f 85 98 00 00 00    	jne    3ec3 <fwrite.part.5+0x193>
    3e2b:	89 44 24 08          	mov    %eax,0x8(%esp)
    3e2f:	8d 04 3e             	lea    (%esi,%edi,1),%eax
    3e32:	89 44 24 04          	mov    %eax,0x4(%esp)
    3e36:	8b 43 08             	mov    0x8(%ebx),%eax
    3e39:	89 04 24             	mov    %eax,(%esp)
    3e3c:	e8 3f ea 00 00       	call   12880 <write>
    3e41:	85 c0                	test   %eax,%eax
    3e43:	7e 31                	jle    3e76 <fwrite.part.5+0x146>
    3e45:	01 c7                	add    %eax,%edi
    3e47:	29 45 e4             	sub    %eax,-0x1c(%ebp)
    3e4a:	8b 53 0c             	mov    0xc(%ebx),%edx
    3e4d:	74 04                	je     3e53 <fwrite.part.5+0x123>
    3e4f:	85 d2                	test   %edx,%edx
    3e51:	74 ca                	je     3e1d <fwrite.part.5+0xed>
    3e53:	89 f9                	mov    %edi,%ecx
    3e55:	8b 7d d8             	mov    -0x28(%ebp),%edi
    3e58:	eb 2d                	jmp    3e87 <fwrite.part.5+0x157>
    3e5a:	8d b6 00 00 00 00    	lea    0x0(%esi),%esi
    3e60:	80 7d d8 00          	cmpb   $0x0,-0x28(%ebp)
    3e64:	75 45                	jne    3eab <fwrite.part.5+0x17b>
    3e66:	8b 45 dc             	mov    -0x24(%ebp),%eax
    3e69:	31 d2                	xor    %edx,%edx
    3e6b:	f7 75 d4             	divl   -0x2c(%ebp)
    3e6e:	83 c4 3c             	add    $0x3c,%esp
    3e71:	5b                   	pop    %ebx
    3e72:	5e                   	pop    %esi
    3e73:	5f                   	pop    %edi
    3e74:	5d                   	pop    %ebp
    3e75:	c3                   	ret    
    3e76:	89 f9                	mov    %edi,%ecx
    3e78:	c7 43 0c 01 00 00 00 	movl   $0x1,0xc(%ebx)
    3e7f:	8b 7d d8             	mov    -0x28(%ebp),%edi
    3e82:	ba 01 00 00 00       	mov    $0x1,%edx
    3e87:	85 c9                	test   %ecx,%ecx
    3e89:	74 07                	je     3e92 <fwrite.part.5+0x162>
    3e8b:	c7 43 1c 01 00 00 00 	movl   $0x1,0x1c(%ebx)
    3e92:	8b 43 24             	mov    0x24(%ebx),%eax
    3e95:	89 43 30             	mov    %eax,0x30(%ebx)
    3e98:	89 43 34             	mov    %eax,0x34(%ebx)
    3e9b:	c7 43 2c 00 00 00 00 	movl   $0x0,0x2c(%ebx)
    3ea2:	c6 45 d8 00          	movb   $0x0,-0x28(%ebp)
    3ea6:	e9 ad fe ff ff       	jmp    3d58 <fwrite.part.5+0x28>
    3eab:	89 1c 24             	mov    %ebx,(%esp)
    3eae:	e8 3d fd ff ff       	call   3bf0 <fflush>
    3eb3:	8b 45 dc             	mov    -0x24(%ebp),%eax
    3eb6:	31 d2                	xor    %edx,%edx
    3eb8:	f7 75 d4             	divl   -0x2c(%ebp)
    3ebb:	83 c4 3c             	add    $0x3c,%esp
    3ebe:	5b                   	pop    %ebx
    3ebf:	5e                   	pop    %esi
    3ec0:	5f                   	pop    %edi
    3ec1:	5d                   	pop    %ebp
    3ec2:	c3                   	ret    
    3ec3:	89 44 24 04          	mov    %eax,0x4(%esp)
    3ec7:	8d 04 3e             	lea    (%esi,%edi,1),%eax
    3eca:	89 04 24             	mov    %eax,(%esp)
    3ecd:	e8 4e 11 00 00       	call   5020 <klog_write>
    3ed2:	e9 6a ff ff ff       	jmp    3e41 <fwrite.part.5+0x111>
    3ed7:	89 f6                	mov    %esi,%esi
    3ed9:	8d bc 27 00 00 00 00 	lea    0x0(%edi,%eiz,1),%edi

00003ee0 <fwrite>:
    3ee0:	55                   	push   %ebp
    3ee1:	89 e5                	mov    %esp,%ebp
    3ee3:	57                   	push   %edi
    3ee4:	56                   	push   %esi
    3ee5:	53                   	push   %ebx
    3ee6:	83 ec 2c             	sub    $0x2c,%esp
    3ee9:	8b 55 0c             	mov    0xc(%ebp),%edx
    3eec:	8b 75 10             	mov    0x10(%ebp),%esi
    3eef:	8b 7d 08             	mov    0x8(%ebp),%edi
    3ef2:	89 55 e4             	mov    %edx,-0x1c(%ebp)
    3ef5:	8b 5d 14             	mov    0x14(%ebp),%ebx
    3ef8:	85 f6                	test   %esi,%esi
    3efa:	74 3c                	je     3f38 <fwrite+0x58>
    3efc:	85 d2                	test   %edx,%edx
    3efe:	74 38                	je     3f38 <fwrite+0x58>
    3f00:	8b 43 20             	mov    0x20(%ebx),%eax
    3f03:	85 c0                	test   %eax,%eax
    3f05:	74 41                	je     3f48 <fwrite+0x68>
    3f07:	83 7b 2c 02          	cmpl   $0x2,0x2c(%ebx)
    3f0b:	8b 43 24             	mov    0x24(%ebx),%eax
    3f0e:	0f 84 cc 00 00 00    	je     3fe0 <fwrite+0x100>
    3f14:	85 c0                	test   %eax,%eax
    3f16:	0f 84 34 01 00 00    	je     4050 <fwrite+0x170>
    3f1c:	89 5d 08             	mov    %ebx,0x8(%ebp)
    3f1f:	8b 55 e4             	mov    -0x1c(%ebp),%edx
    3f22:	83 c4 2c             	add    $0x2c,%esp
    3f25:	89 f1                	mov    %esi,%ecx
    3f27:	89 f8                	mov    %edi,%eax
    3f29:	5b                   	pop    %ebx
    3f2a:	5e                   	pop    %esi
    3f2b:	5f                   	pop    %edi
    3f2c:	5d                   	pop    %ebp
    3f2d:	e9 fe fd ff ff       	jmp    3d30 <fwrite.part.5>
    3f32:	8d b6 00 00 00 00    	lea    0x0(%esi),%esi
    3f38:	31 f6                	xor    %esi,%esi
    3f3a:	83 c4 2c             	add    $0x2c,%esp
    3f3d:	89 f0                	mov    %esi,%eax
    3f3f:	5b                   	pop    %ebx
    3f40:	5e                   	pop    %esi
    3f41:	5f                   	pop    %edi
    3f42:	5d                   	pop    %ebp
    3f43:	c3                   	ret    
    3f44:	8d 74 26 00          	lea    0x0(%esi,%eiz,1),%esi
    3f48:	0f af f2             	imul   %edx,%esi
    3f4b:	85 f6                	test   %esi,%esi
    3f4d:	0f 84 1a 01 00 00    	je     406d <fwrite+0x18d>
    3f53:	8b 43 0c             	mov    0xc(%ebx),%eax
    3f56:	85 c0                	test   %eax,%eax
    3f58:	0f 85 0f 01 00 00    	jne    406d <fwrite+0x18d>
    3f5e:	31 d2                	xor    %edx,%edx
    3f60:	89 7d e0             	mov    %edi,-0x20(%ebp)
    3f63:	89 d7                	mov    %edx,%edi
    3f65:	eb 25                	jmp    3f8c <fwrite+0xac>
    3f67:	90                   	nop
    3f68:	8b 45 e0             	mov    -0x20(%ebp),%eax
    3f6b:	89 74 24 04          	mov    %esi,0x4(%esp)
    3f6f:	01 f8                	add    %edi,%eax
    3f71:	89 04 24             	mov    %eax,(%esp)
    3f74:	e8 a7 10 00 00       	call   5020 <klog_write>
    3f79:	85 c0                	test   %eax,%eax
    3f7b:	7e 32                	jle    3faf <fwrite+0xcf>
    3f7d:	29 c6                	sub    %eax,%esi
    3f7f:	01 c7                	add    %eax,%edi
    3f81:	85 f6                	test   %esi,%esi
    3f83:	74 33                	je     3fb8 <fwrite+0xd8>
    3f85:	8b 4b 0c             	mov    0xc(%ebx),%ecx
    3f88:	85 c9                	test   %ecx,%ecx
    3f8a:	75 2c                	jne    3fb8 <fwrite+0xd8>
    3f8c:	8b 43 14             	mov    0x14(%ebx),%eax
    3f8f:	85 c0                	test   %eax,%eax
    3f91:	75 d5                	jne    3f68 <fwrite+0x88>
    3f93:	8b 45 e0             	mov    -0x20(%ebp),%eax
    3f96:	89 74 24 08          	mov    %esi,0x8(%esp)
    3f9a:	01 f8                	add    %edi,%eax
    3f9c:	89 44 24 04          	mov    %eax,0x4(%esp)
    3fa0:	8b 43 08             	mov    0x8(%ebx),%eax
    3fa3:	89 04 24             	mov    %eax,(%esp)
    3fa6:	e8 d5 e8 00 00       	call   12880 <write>
    3fab:	85 c0                	test   %eax,%eax
    3fad:	7f ce                	jg     3f7d <fwrite+0x9d>
    3faf:	c7 43 0c 01 00 00 00 	movl   $0x1,0xc(%ebx)
    3fb6:	eb c9                	jmp    3f81 <fwrite+0xa1>
    3fb8:	89 f8                	mov    %edi,%eax
    3fba:	85 ff                	test   %edi,%edi
    3fbc:	74 09                	je     3fc7 <fwrite+0xe7>
    3fbe:	c7 43 1c 01 00 00 00 	movl   $0x1,0x1c(%ebx)
    3fc5:	89 f8                	mov    %edi,%eax
    3fc7:	31 d2                	xor    %edx,%edx
    3fc9:	89 1c 24             	mov    %ebx,(%esp)
    3fcc:	f7 75 e4             	divl   -0x1c(%ebp)
    3fcf:	89 c6                	mov    %eax,%esi
    3fd1:	e8 1a fc ff ff       	call   3bf0 <fflush>
    3fd6:	e9 5f ff ff ff       	jmp    3f3a <fwrite+0x5a>
    3fdb:	90                   	nop
    3fdc:	8d 74 26 00          	lea    0x0(%esi,%eiz,1),%esi
    3fe0:	85 c0                	test   %eax,%eax
    3fe2:	74 6c                	je     4050 <fwrite+0x170>
    3fe4:	8b 53 0c             	mov    0xc(%ebx),%edx
    3fe7:	85 d2                	test   %edx,%edx
    3fe9:	0f 85 2d ff ff ff    	jne    3f1c <fwrite+0x3c>
    3fef:	8b 4b 30             	mov    0x30(%ebx),%ecx
    3ff2:	2b 4b 34             	sub    0x34(%ebx),%ecx
    3ff5:	74 43                	je     403a <fwrite+0x15a>
    3ff7:	89 c8                	mov    %ecx,%eax
    3ff9:	c7 44 24 0c 01 00 00 	movl   $0x1,0xc(%esp)
    4000:	00 
    4001:	f7 d8                	neg    %eax
    4003:	89 c2                	mov    %eax,%edx
    4005:	89 44 24 04          	mov    %eax,0x4(%esp)
    4009:	c1 fa 1f             	sar    $0x1f,%edx
    400c:	89 54 24 08          	mov    %edx,0x8(%esp)
    4010:	8b 43 08             	mov    0x8(%ebx),%eax
    4013:	89 4d dc             	mov    %ecx,-0x24(%ebp)
    4016:	89 04 24             	mov    %eax,(%esp)
    4019:	e8 22 ed 00 00       	call   12d40 <lseek>
    401e:	8b 4d dc             	mov    -0x24(%ebp),%ecx
    4021:	83 7b 2c 01          	cmpl   $0x1,0x2c(%ebx)
    4025:	75 10                	jne    4037 <fwrite+0x157>
    4027:	8b 43 34             	mov    0x34(%ebx),%eax
    402a:	ba 01 00 00 00       	mov    $0x1,%edx
    402f:	89 1c 24             	mov    %ebx,(%esp)
    4032:	e8 79 e3 ff ff       	call   23b0 <_fwrite>
    4037:	8b 43 24             	mov    0x24(%ebx),%eax
    403a:	89 43 30             	mov    %eax,0x30(%ebx)
    403d:	89 43 34             	mov    %eax,0x34(%ebx)
    4040:	c7 43 2c 00 00 00 00 	movl   $0x0,0x2c(%ebx)
    4047:	e9 c8 fe ff ff       	jmp    3f14 <fwrite+0x34>
    404c:	8d 74 26 00          	lea    0x0(%esi,%eiz,1),%esi
    4050:	8b 43 28             	mov    0x28(%ebx),%eax
    4053:	89 04 24             	mov    %eax,(%esp)
    4056:	e8 15 5d 00 00       	call   9d70 <malloc>
    405b:	89 43 24             	mov    %eax,0x24(%ebx)
    405e:	85 c0                	test   %eax,%eax
    4060:	74 12                	je     4074 <fwrite+0x194>
    4062:	89 43 30             	mov    %eax,0x30(%ebx)
    4065:	89 43 34             	mov    %eax,0x34(%ebx)
    4068:	e9 af fe ff ff       	jmp    3f1c <fwrite+0x3c>
    406d:	31 c0                	xor    %eax,%eax
    406f:	e9 53 ff ff ff       	jmp    3fc7 <fwrite+0xe7>
    4074:	e8 07 0d 01 00       	call   14d80 <__errno>
    4079:	31 f6                	xor    %esi,%esi
    407b:	c7 00 fe ff ff ff    	movl   $0xfffffffe,(%eax)
    4081:	e9 b4 fe ff ff       	jmp    3f3a <fwrite+0x5a>
    4086:	8d 76 00             	lea    0x0(%esi),%esi
    4089:	8d bc 27 00 00 00 00 	lea    0x0(%edi,%eiz,1),%edi

00004090 <fputs>:
    4090:	55                   	push   %ebp
    4091:	89 e5                	mov    %esp,%ebp
    4093:	57                   	push   %edi
    4094:	56                   	push   %esi
    4095:	53                   	push   %ebx
    4096:	83 ec 2c             	sub    $0x2c,%esp
    4099:	8b 75 08             	mov    0x8(%ebp),%esi
    409c:	8b 5d 0c             	mov    0xc(%ebp),%ebx
    409f:	89 34 24             	mov    %esi,(%esp)
    40a2:	e8 e9 45 01 00       	call   18690 <str_size>
    40a7:	89 c7                	mov    %eax,%edi
    40a9:	85 c0                	test   %eax,%eax
    40ab:	74 3b                	je     40e8 <fputs+0x58>
    40ad:	8b 43 20             	mov    0x20(%ebx),%eax
    40b0:	85 c0                	test   %eax,%eax
    40b2:	74 44                	je     40f8 <fputs+0x68>
    40b4:	83 7b 2c 02          	cmpl   $0x2,0x2c(%ebx)
    40b8:	8b 43 24             	mov    0x24(%ebx),%eax
    40bb:	0f 84 d7 00 00 00    	je     4198 <fputs+0x108>
    40c1:	85 c0                	test   %eax,%eax
    40c3:	0f 84 3f 01 00 00    	je     4208 <fputs+0x178>
    40c9:	89 5d 08             	mov    %ebx,0x8(%ebp)
    40cc:	83 c4 2c             	add    $0x2c,%esp
    40cf:	89 fa                	mov    %edi,%edx
    40d1:	89 f0                	mov    %esi,%eax
    40d3:	b9 01 00 00 00       	mov    $0x1,%ecx
    40d8:	5b                   	pop    %ebx
    40d9:	5e                   	pop    %esi
    40da:	5f                   	pop    %edi
    40db:	5d                   	pop    %ebp
    40dc:	e9 4f fc ff ff       	jmp    3d30 <fwrite.part.5>
    40e1:	8d b4 26 00 00 00 00 	lea    0x0(%esi,%eiz,1),%esi
    40e8:	31 c0                	xor    %eax,%eax
    40ea:	83 c4 2c             	add    $0x2c,%esp
    40ed:	5b                   	pop    %ebx
    40ee:	5e                   	pop    %esi
    40ef:	5f                   	pop    %edi
    40f0:	5d                   	pop    %ebp
    40f1:	c3                   	ret    
    40f2:	8d b6 00 00 00 00    	lea    0x0(%esi),%esi
    40f8:	89 fa                	mov    %edi,%edx
    40fa:	c7 45 e4 00 00 00 00 	movl   $0x0,-0x1c(%ebp)
    4101:	eb 2e                	jmp    4131 <fputs+0xa1>
    4103:	90                   	nop
    4104:	8d 74 26 00          	lea    0x0(%esi,%eiz,1),%esi
    4108:	8b 45 e4             	mov    -0x1c(%ebp),%eax
    410b:	89 54 24 04          	mov    %edx,0x4(%esp)
    410f:	01 f0                	add    %esi,%eax
    4111:	89 55 e0             	mov    %edx,-0x20(%ebp)
    4114:	89 04 24             	mov    %eax,(%esp)
    4117:	e8 04 0f 00 00       	call   5020 <klog_write>
    411c:	8b 55 e0             	mov    -0x20(%ebp),%edx
    411f:	85 c0                	test   %eax,%eax
    4121:	7e 3e                	jle    4161 <fputs+0xd1>
    4123:	8b 4d e4             	mov    -0x1c(%ebp),%ecx
    4126:	29 c2                	sub    %eax,%edx
    4128:	01 c1                	add    %eax,%ecx
    412a:	89 4d e4             	mov    %ecx,-0x1c(%ebp)
    412d:	85 d2                	test   %edx,%edx
    412f:	74 3f                	je     4170 <fputs+0xe0>
    4131:	8b 43 0c             	mov    0xc(%ebx),%eax
    4134:	85 c0                	test   %eax,%eax
    4136:	75 38                	jne    4170 <fputs+0xe0>
    4138:	8b 43 14             	mov    0x14(%ebx),%eax
    413b:	85 c0                	test   %eax,%eax
    413d:	75 c9                	jne    4108 <fputs+0x78>
    413f:	8b 45 e4             	mov    -0x1c(%ebp),%eax
    4142:	89 54 24 08          	mov    %edx,0x8(%esp)
    4146:	01 f0                	add    %esi,%eax
    4148:	89 44 24 04          	mov    %eax,0x4(%esp)
    414c:	8b 43 08             	mov    0x8(%ebx),%eax
    414f:	89 55 e0             	mov    %edx,-0x20(%ebp)
    4152:	89 04 24             	mov    %eax,(%esp)
    4155:	e8 26 e7 00 00       	call   12880 <write>
    415a:	8b 55 e0             	mov    -0x20(%ebp),%edx
    415d:	85 c0                	test   %eax,%eax
    415f:	7f c2                	jg     4123 <fputs+0x93>
    4161:	c7 43 0c 01 00 00 00 	movl   $0x1,0xc(%ebx)
    4168:	eb c3                	jmp    412d <fputs+0x9d>
    416a:	8d b6 00 00 00 00    	lea    0x0(%esi),%esi
    4170:	8b 4d e4             	mov    -0x1c(%ebp),%ecx
    4173:	85 c9                	test   %ecx,%ecx
    4175:	74 07                	je     417e <fputs+0xee>
    4177:	c7 43 1c 01 00 00 00 	movl   $0x1,0x1c(%ebx)
    417e:	8b 45 e4             	mov    -0x1c(%ebp),%eax
    4181:	31 d2                	xor    %edx,%edx
    4183:	f7 f7                	div    %edi
    4185:	89 c6                	mov    %eax,%esi
    4187:	89 1c 24             	mov    %ebx,(%esp)
    418a:	e8 61 fa ff ff       	call   3bf0 <fflush>
    418f:	89 f0                	mov    %esi,%eax
    4191:	e9 54 ff ff ff       	jmp    40ea <fputs+0x5a>
    4196:	66 90                	xchg   %ax,%ax
    4198:	85 c0                	test   %eax,%eax
    419a:	74 6c                	je     4208 <fputs+0x178>
    419c:	8b 53 0c             	mov    0xc(%ebx),%edx
    419f:	85 d2                	test   %edx,%edx
    41a1:	0f 85 22 ff ff ff    	jne    40c9 <fputs+0x39>
    41a7:	8b 4b 30             	mov    0x30(%ebx),%ecx
    41aa:	2b 4b 34             	sub    0x34(%ebx),%ecx
    41ad:	74 43                	je     41f2 <fputs+0x162>
    41af:	89 c8                	mov    %ecx,%eax
    41b1:	c7 44 24 0c 01 00 00 	movl   $0x1,0xc(%esp)
    41b8:	00 
    41b9:	f7 d8                	neg    %eax
    41bb:	89 c2                	mov    %eax,%edx
    41bd:	89 44 24 04          	mov    %eax,0x4(%esp)
    41c1:	c1 fa 1f             	sar    $0x1f,%edx
    41c4:	89 54 24 08          	mov    %edx,0x8(%esp)
    41c8:	8b 43 08             	mov    0x8(%ebx),%eax
    41cb:	89 4d e0             	mov    %ecx,-0x20(%ebp)
    41ce:	89 04 24             	mov    %eax,(%esp)
    41d1:	e8 6a eb 00 00       	call   12d40 <lseek>
    41d6:	8b 4d e0             	mov    -0x20(%ebp),%ecx
    41d9:	83 7b 2c 01          	cmpl   $0x1,0x2c(%ebx)
    41dd:	75 10                	jne    41ef <fputs+0x15f>
    41df:	8b 43 34             	mov    0x34(%ebx),%eax
    41e2:	ba 01 00 00 00       	mov    $0x1,%edx
    41e7:	89 1c 24             	mov    %ebx,(%esp)
    41ea:	e8 c1 e1 ff ff       	call   23b0 <_fwrite>
    41ef:	8b 43 24             	mov    0x24(%ebx),%eax
    41f2:	89 43 30             	mov    %eax,0x30(%ebx)
    41f5:	89 43 34             	mov    %eax,0x34(%ebx)
    41f8:	c7 43 2c 00 00 00 00 	movl   $0x0,0x2c(%ebx)
    41ff:	e9 bd fe ff ff       	jmp    40c1 <fputs+0x31>
    4204:	8d 74 26 00          	lea    0x0(%esi,%eiz,1),%esi
    4208:	8b 43 28             	mov    0x28(%ebx),%eax
    420b:	89 04 24             	mov    %eax,(%esp)
    420e:	e8 5d 5b 00 00       	call   9d70 <malloc>
    4213:	89 43 24             	mov    %eax,0x24(%ebx)
    4216:	85 c0                	test   %eax,%eax
    4218:	74 0b                	je     4225 <fputs+0x195>
    421a:	89 43 30             	mov    %eax,0x30(%ebx)
    421d:	89 43 34             	mov    %eax,0x34(%ebx)
    4220:	e9 a4 fe ff ff       	jmp    40c9 <fputs+0x39>
    4225:	e8 56 0b 01 00       	call   14d80 <__errno>
    422a:	c7 00 fe ff ff ff    	movl   $0xfffffffe,(%eax)
    4230:	31 c0                	xor    %eax,%eax
    4232:	e9 b3 fe ff ff       	jmp    40ea <fputs+0x5a>
    4237:	89 f6                	mov    %esi,%esi
    4239:	8d bc 27 00 00 00 00 	lea    0x0(%edi,%eiz,1),%edi

00004240 <puts>:
    4240:	55                   	push   %ebp
    4241:	89 e5                	mov    %esp,%ebp
    4243:	57                   	push   %edi
    4244:	56                   	push   %esi
    4245:	53                   	push   %ebx
    4246:	83 ec 2c             	sub    $0x2c,%esp
    4249:	8b 75 08             	mov    0x8(%ebp),%esi
    424c:	8b 1d 10 0e 02 00    	mov    0x20e10,%ebx
    4252:	89 34 24             	mov    %esi,(%esp)
    4255:	e8 36 44 01 00       	call   18690 <str_size>
    425a:	89 c7                	mov    %eax,%edi
    425c:	85 c0                	test   %eax,%eax
    425e:	74 38                	je     4298 <puts+0x58>
    4260:	8b 43 20             	mov    0x20(%ebx),%eax
    4263:	85 c0                	test   %eax,%eax
    4265:	74 41                	je     42a8 <puts+0x68>
    4267:	83 7b 2c 02          	cmpl   $0x2,0x2c(%ebx)
    426b:	8b 43 24             	mov    0x24(%ebx),%eax
    426e:	0f 84 d4 00 00 00    	je     4348 <puts+0x108>
    4274:	85 c0                	test   %eax,%eax
    4276:	0f 84 3c 01 00 00    	je     43b8 <puts+0x178>
    427c:	89 5d 08             	mov    %ebx,0x8(%ebp)
    427f:	83 c4 2c             	add    $0x2c,%esp
    4282:	89 fa                	mov    %edi,%edx
    4284:	89 f0                	mov    %esi,%eax
    4286:	b9 01 00 00 00       	mov    $0x1,%ecx
    428b:	5b                   	pop    %ebx
    428c:	5e                   	pop    %esi
    428d:	5f                   	pop    %edi
    428e:	5d                   	pop    %ebp
    428f:	e9 9c fa ff ff       	jmp    3d30 <fwrite.part.5>
    4294:	8d 74 26 00          	lea    0x0(%esi,%eiz,1),%esi
    4298:	31 c0                	xor    %eax,%eax
    429a:	83 c4 2c             	add    $0x2c,%esp
    429d:	5b                   	pop    %ebx
    429e:	5e                   	pop    %esi
    429f:	5f                   	pop    %edi
    42a0:	5d                   	pop    %ebp
    42a1:	c3                   	ret    
    42a2:	8d b6 00 00 00 00    	lea    0x0(%esi),%esi
    42a8:	89 fa                	mov    %edi,%edx
    42aa:	c7 45 e4 00 00 00 00 	movl   $0x0,-0x1c(%ebp)
    42b1:	eb 2e                	jmp    42e1 <puts+0xa1>
    42b3:	90                   	nop
    42b4:	8d 74 26 00          	lea    0x0(%esi,%eiz,1),%esi
    42b8:	8b 45 e4             	mov    -0x1c(%ebp),%eax
    42bb:	89 54 24 04          	mov    %edx,0x4(%esp)
    42bf:	01 f0                	add    %esi,%eax
    42c1:	89 55 e0             	mov    %edx,-0x20(%ebp)
    42c4:	89 04 24             	mov    %eax,(%esp)
    42c7:	e8 54 0d 00 00       	call   5020 <klog_write>
    42cc:	8b 55 e0             	mov    -0x20(%ebp),%edx
    42cf:	85 c0                	test   %eax,%eax
    42d1:	7e 3e                	jle    4311 <puts+0xd1>
    42d3:	8b 4d e4             	mov    -0x1c(%ebp),%ecx
    42d6:	29 c2                	sub    %eax,%edx
    42d8:	01 c1                	add    %eax,%ecx
    42da:	89 4d e4             	mov    %ecx,-0x1c(%ebp)
    42dd:	85 d2                	test   %edx,%edx
    42df:	74 3f                	je     4320 <puts+0xe0>
    42e1:	8b 43 0c             	mov    0xc(%ebx),%eax
    42e4:	85 c0                	test   %eax,%eax
    42e6:	75 38                	jne    4320 <puts+0xe0>
    42e8:	8b 43 14             	mov    0x14(%ebx),%eax
    42eb:	85 c0                	test   %eax,%eax
    42ed:	75 c9                	jne    42b8 <puts+0x78>
    42ef:	8b 45 e4             	mov    -0x1c(%ebp),%eax
    42f2:	89 54 24 08          	mov    %edx,0x8(%esp)
    42f6:	01 f0                	add    %esi,%eax
    42f8:	89 44 24 04          	mov    %eax,0x4(%esp)
    42fc:	8b 43 08             	mov    0x8(%ebx),%eax
    42ff:	89 55 e0             	mov    %edx,-0x20(%ebp)
    4302:	89 04 24             	mov    %eax,(%esp)
    4305:	e8 76 e5 00 00       	call   12880 <write>
    430a:	8b 55 e0             	mov    -0x20(%ebp),%edx
    430d:	85 c0                	test   %eax,%eax
    430f:	7f c2                	jg     42d3 <puts+0x93>
    4311:	c7 43 0c 01 00 00 00 	movl   $0x1,0xc(%ebx)
    4318:	eb c3                	jmp    42dd <puts+0x9d>
    431a:	8d b6 00 00 00 00    	lea    0x0(%esi),%esi
    4320:	8b 4d e4             	mov    -0x1c(%ebp),%ecx
    4323:	85 c9                	test   %ecx,%ecx
    4325:	74 07                	je     432e <puts+0xee>
    4327:	c7 43 1c 01 00 00 00 	movl   $0x1,0x1c(%ebx)
    432e:	8b 45 e4             	mov    -0x1c(%ebp),%eax
    4331:	31 d2                	xor    %edx,%edx
    4333:	f7 f7                	div    %edi
    4335:	89 c6                	mov    %eax,%esi
    4337:	89 1c 24             	mov    %ebx,(%esp)
    433a:	e8 b1 f8 ff ff       	call   3bf0 <fflush>
    433f:	89 f0                	mov    %esi,%eax
    4341:	e9 54 ff ff ff       	jmp    429a <puts+0x5a>
    4346:	66 90                	xchg   %ax,%ax
    4348:	85 c0                	test   %eax,%eax
    434a:	74 6c                	je     43b8 <puts+0x178>
    434c:	8b 53 0c             	mov    0xc(%ebx),%edx
    434f:	85 d2                	test   %edx,%edx
    4351:	0f 85 25 ff ff ff    	jne    427c <puts+0x3c>
    4357:	8b 4b 30             	mov    0x30(%ebx),%ecx
    435a:	2b 4b 34             	sub    0x34(%ebx),%ecx
    435d:	74 43                	je     43a2 <puts+0x162>
    435f:	89 c8                	mov    %ecx,%eax
    4361:	c7 44 24 0c 01 00 00 	movl   $0x1,0xc(%esp)
    4368:	00 
    4369:	f7 d8                	neg    %eax
    436b:	89 c2                	mov    %eax,%edx
    436d:	89 44 24 04          	mov    %eax,0x4(%esp)
    4371:	c1 fa 1f             	sar    $0x1f,%edx
    4374:	89 54 24 08          	mov    %edx,0x8(%esp)
    4378:	8b 43 08             	mov    0x8(%ebx),%eax
    437b:	89 4d e0             	mov    %ecx,-0x20(%ebp)
    437e:	89 04 24             	mov    %eax,(%esp)
    4381:	e8 ba e9 00 00       	call   12d40 <lseek>
    4386:	8b 4d e0             	mov    -0x20(%ebp),%ecx
    4389:	83 7b 2c 01          	cmpl   $0x1,0x2c(%ebx)
    438d:	75 10                	jne    439f <puts+0x15f>
    438f:	8b 43 34             	mov    0x34(%ebx),%eax
    4392:	ba 01 00 00 00       	mov    $0x1,%edx
    4397:	89 1c 24             	mov    %ebx,(%esp)
    439a:	e8 11 e0 ff ff       	call   23b0 <_fwrite>
    439f:	8b 43 24             	mov    0x24(%ebx),%eax
    43a2:	89 43 30             	mov    %eax,0x30(%ebx)
    43a5:	89 43 34             	mov    %eax,0x34(%ebx)
    43a8:	c7 43 2c 00 00 00 00 	movl   $0x0,0x2c(%ebx)
    43af:	e9 c0 fe ff ff       	jmp    4274 <puts+0x34>
    43b4:	8d 74 26 00          	lea    0x0(%esi,%eiz,1),%esi
    43b8:	8b 43 28             	mov    0x28(%ebx),%eax
    43bb:	89 04 24             	mov    %eax,(%esp)
    43be:	e8 ad 59 00 00       	call   9d70 <malloc>
    43c3:	89 43 24             	mov    %eax,0x24(%ebx)
    43c6:	85 c0                	test   %eax,%eax
    43c8:	74 0b                	je     43d5 <puts+0x195>
    43ca:	89 43 30             	mov    %eax,0x30(%ebx)
    43cd:	89 43 34             	mov    %eax,0x34(%ebx)
    43d0:	e9 a7 fe ff ff       	jmp    427c <puts+0x3c>
    43d5:	e8 a6 09 01 00       	call   14d80 <__errno>
    43da:	c7 00 fe ff ff ff    	movl   $0xfffffffe,(%eax)
    43e0:	31 c0                	xor    %eax,%eax
    43e2:	e9 b3 fe ff ff       	jmp    429a <puts+0x5a>
    43e7:	89 f6                	mov    %esi,%esi
    43e9:	8d bc 27 00 00 00 00 	lea    0x0(%edi,%eiz,1),%edi

000043f0 <fputc>:
    43f0:	55                   	push   %ebp
    43f1:	89 e5                	mov    %esp,%ebp
    43f3:	57                   	push   %edi
    43f4:	56                   	push   %esi
    43f5:	53                   	push   %ebx
    43f6:	83 ec 3c             	sub    $0x3c,%esp
    43f9:	8d 45 e0             	lea    -0x20(%ebp),%eax
    43fc:	8d 7d e4             	lea    -0x1c(%ebp),%edi
    43ff:	8b 5d 0c             	mov    0xc(%ebp),%ebx
    4402:	89 44 24 08          	mov    %eax,0x8(%esp)
    4406:	8b 45 08             	mov    0x8(%ebp),%eax
    4409:	c7 44 24 0c 04 00 00 	movl   $0x4,0xc(%esp)
    4410:	00 
    4411:	89 7c 24 04          	mov    %edi,0x4(%esp)
    4415:	89 04 24             	mov    %eax,(%esp)
    4418:	c7 45 e0 00 00 00 00 	movl   $0x0,-0x20(%ebp)
    441f:	e8 7c 41 01 00       	call   185a0 <chr_encode>
    4424:	85 c0                	test   %eax,%eax
    4426:	0f 85 ac 00 00 00    	jne    44d8 <fputc+0xe8>
    442c:	8b 75 e0             	mov    -0x20(%ebp),%esi
    442f:	85 f6                	test   %esi,%esi
    4431:	74 34                	je     4467 <fputc+0x77>
    4433:	8b 43 20             	mov    0x20(%ebx),%eax
    4436:	85 c0                	test   %eax,%eax
    4438:	74 3e                	je     4478 <fputc+0x88>
    443a:	83 7b 2c 02          	cmpl   $0x2,0x2c(%ebx)
    443e:	8b 43 24             	mov    0x24(%ebx),%eax
    4441:	0f 84 c9 00 00 00    	je     4510 <fputc+0x120>
    4447:	85 c0                	test   %eax,%eax
    4449:	0f 84 31 01 00 00    	je     4580 <fputc+0x190>
    444f:	ba 01 00 00 00       	mov    $0x1,%edx
    4454:	89 1c 24             	mov    %ebx,(%esp)
    4457:	89 f1                	mov    %esi,%ecx
    4459:	89 f8                	mov    %edi,%eax
    445b:	e8 d0 f8 ff ff       	call   3d30 <fwrite.part.5>
    4460:	89 c2                	mov    %eax,%edx
    4462:	39 55 e0             	cmp    %edx,-0x20(%ebp)
    4465:	77 71                	ja     44d8 <fputc+0xe8>
    4467:	8b 45 08             	mov    0x8(%ebp),%eax
    446a:	83 c4 3c             	add    $0x3c,%esp
    446d:	5b                   	pop    %ebx
    446e:	5e                   	pop    %esi
    446f:	5f                   	pop    %edi
    4470:	5d                   	pop    %ebp
    4471:	c3                   	ret    
    4472:	8d b6 00 00 00 00    	lea    0x0(%esi),%esi
    4478:	31 d2                	xor    %edx,%edx
    447a:	eb 25                	jmp    44a1 <fputc+0xb1>
    447c:	8d 74 26 00          	lea    0x0(%esi,%eiz,1),%esi
    4480:	8d 04 17             	lea    (%edi,%edx,1),%eax
    4483:	89 74 24 04          	mov    %esi,0x4(%esp)
    4487:	89 04 24             	mov    %eax,(%esp)
    448a:	89 55 d4             	mov    %edx,-0x2c(%ebp)
    448d:	e8 8e 0b 00 00       	call   5020 <klog_write>
    4492:	8b 55 d4             	mov    -0x2c(%ebp),%edx
    4495:	85 c0                	test   %eax,%eax
    4497:	7e 36                	jle    44cf <fputc+0xdf>
    4499:	29 c6                	sub    %eax,%esi
    449b:	01 c2                	add    %eax,%edx
    449d:	85 f6                	test   %esi,%esi
    449f:	74 4f                	je     44f0 <fputc+0x100>
    44a1:	8b 4b 0c             	mov    0xc(%ebx),%ecx
    44a4:	85 c9                	test   %ecx,%ecx
    44a6:	75 48                	jne    44f0 <fputc+0x100>
    44a8:	8b 43 14             	mov    0x14(%ebx),%eax
    44ab:	85 c0                	test   %eax,%eax
    44ad:	75 d1                	jne    4480 <fputc+0x90>
    44af:	8d 04 17             	lea    (%edi,%edx,1),%eax
    44b2:	89 74 24 08          	mov    %esi,0x8(%esp)
    44b6:	89 44 24 04          	mov    %eax,0x4(%esp)
    44ba:	8b 43 08             	mov    0x8(%ebx),%eax
    44bd:	89 55 d4             	mov    %edx,-0x2c(%ebp)
    44c0:	89 04 24             	mov    %eax,(%esp)
    44c3:	e8 b8 e3 00 00       	call   12880 <write>
    44c8:	8b 55 d4             	mov    -0x2c(%ebp),%edx
    44cb:	85 c0                	test   %eax,%eax
    44cd:	7f ca                	jg     4499 <fputc+0xa9>
    44cf:	c7 43 0c 01 00 00 00 	movl   $0x1,0xc(%ebx)
    44d6:	eb c5                	jmp    449d <fputc+0xad>
    44d8:	c7 45 08 ff ff ff ff 	movl   $0xffffffff,0x8(%ebp)
    44df:	8b 45 08             	mov    0x8(%ebp),%eax
    44e2:	83 c4 3c             	add    $0x3c,%esp
    44e5:	5b                   	pop    %ebx
    44e6:	5e                   	pop    %esi
    44e7:	5f                   	pop    %edi
    44e8:	5d                   	pop    %ebp
    44e9:	c3                   	ret    
    44ea:	8d b6 00 00 00 00    	lea    0x0(%esi),%esi
    44f0:	85 d2                	test   %edx,%edx
    44f2:	74 07                	je     44fb <fputc+0x10b>
    44f4:	c7 43 1c 01 00 00 00 	movl   $0x1,0x1c(%ebx)
    44fb:	89 1c 24             	mov    %ebx,(%esp)
    44fe:	89 55 d4             	mov    %edx,-0x2c(%ebp)
    4501:	e8 ea f6 ff ff       	call   3bf0 <fflush>
    4506:	8b 55 d4             	mov    -0x2c(%ebp),%edx
    4509:	e9 54 ff ff ff       	jmp    4462 <fputc+0x72>
    450e:	66 90                	xchg   %ax,%ax
    4510:	85 c0                	test   %eax,%eax
    4512:	74 6c                	je     4580 <fputc+0x190>
    4514:	8b 53 0c             	mov    0xc(%ebx),%edx
    4517:	85 d2                	test   %edx,%edx
    4519:	0f 85 30 ff ff ff    	jne    444f <fputc+0x5f>
    451f:	8b 4b 30             	mov    0x30(%ebx),%ecx
    4522:	2b 4b 34             	sub    0x34(%ebx),%ecx
    4525:	74 43                	je     456a <fputc+0x17a>
    4527:	89 c8                	mov    %ecx,%eax
    4529:	c7 44 24 0c 01 00 00 	movl   $0x1,0xc(%esp)
    4530:	00 
    4531:	f7 d8                	neg    %eax
    4533:	89 c2                	mov    %eax,%edx
    4535:	89 44 24 04          	mov    %eax,0x4(%esp)
    4539:	c1 fa 1f             	sar    $0x1f,%edx
    453c:	89 54 24 08          	mov    %edx,0x8(%esp)
    4540:	8b 43 08             	mov    0x8(%ebx),%eax
    4543:	89 4d d4             	mov    %ecx,-0x2c(%ebp)
    4546:	89 04 24             	mov    %eax,(%esp)
    4549:	e8 f2 e7 00 00       	call   12d40 <lseek>
    454e:	8b 4d d4             	mov    -0x2c(%ebp),%ecx
    4551:	83 7b 2c 01          	cmpl   $0x1,0x2c(%ebx)
    4555:	75 10                	jne    4567 <fputc+0x177>
    4557:	8b 43 34             	mov    0x34(%ebx),%eax
    455a:	ba 01 00 00 00       	mov    $0x1,%edx
    455f:	89 1c 24             	mov    %ebx,(%esp)
    4562:	e8 49 de ff ff       	call   23b0 <_fwrite>
    4567:	8b 43 24             	mov    0x24(%ebx),%eax
    456a:	89 43 30             	mov    %eax,0x30(%ebx)
    456d:	89 43 34             	mov    %eax,0x34(%ebx)
    4570:	c7 43 2c 00 00 00 00 	movl   $0x0,0x2c(%ebx)
    4577:	e9 cb fe ff ff       	jmp    4447 <fputc+0x57>
    457c:	8d 74 26 00          	lea    0x0(%esi,%eiz,1),%esi
    4580:	8b 43 28             	mov    0x28(%ebx),%eax
    4583:	89 04 24             	mov    %eax,(%esp)
    4586:	e8 e5 57 00 00       	call   9d70 <malloc>
    458b:	89 43 24             	mov    %eax,0x24(%ebx)
    458e:	85 c0                	test   %eax,%eax
    4590:	74 0b                	je     459d <fputc+0x1ad>
    4592:	89 43 30             	mov    %eax,0x30(%ebx)
    4595:	89 43 34             	mov    %eax,0x34(%ebx)
    4598:	e9 b2 fe ff ff       	jmp    444f <fputc+0x5f>
    459d:	e8 de 07 01 00       	call   14d80 <__errno>
    45a2:	31 d2                	xor    %edx,%edx
    45a4:	c7 00 fe ff ff ff    	movl   $0xfffffffe,(%eax)
    45aa:	e9 b3 fe ff ff       	jmp    4462 <fputc+0x72>
    45af:	90                   	nop

000045b0 <putchar>:
    45b0:	55                   	push   %ebp
    45b1:	89 e5                	mov    %esp,%ebp
    45b3:	57                   	push   %edi
    45b4:	56                   	push   %esi
    45b5:	53                   	push   %ebx
    45b6:	83 ec 3c             	sub    $0x3c,%esp
    45b9:	8d 45 e0             	lea    -0x20(%ebp),%eax
    45bc:	8d 7d e4             	lea    -0x1c(%ebp),%edi
    45bf:	8b 1d 10 0e 02 00    	mov    0x20e10,%ebx
    45c5:	89 44 24 08          	mov    %eax,0x8(%esp)
    45c9:	8b 45 08             	mov    0x8(%ebp),%eax
    45cc:	c7 44 24 0c 04 00 00 	movl   $0x4,0xc(%esp)
    45d3:	00 
    45d4:	89 7c 24 04          	mov    %edi,0x4(%esp)
    45d8:	89 04 24             	mov    %eax,(%esp)
    45db:	c7 45 e0 00 00 00 00 	movl   $0x0,-0x20(%ebp)
    45e2:	e8 b9 3f 01 00       	call   185a0 <chr_encode>
    45e7:	85 c0                	test   %eax,%eax
    45e9:	0f 85 a9 00 00 00    	jne    4698 <putchar+0xe8>
    45ef:	8b 75 e0             	mov    -0x20(%ebp),%esi
    45f2:	85 f6                	test   %esi,%esi
    45f4:	74 34                	je     462a <putchar+0x7a>
    45f6:	8b 43 20             	mov    0x20(%ebx),%eax
    45f9:	85 c0                	test   %eax,%eax
    45fb:	74 3b                	je     4638 <putchar+0x88>
    45fd:	83 7b 2c 02          	cmpl   $0x2,0x2c(%ebx)
    4601:	8b 43 24             	mov    0x24(%ebx),%eax
    4604:	0f 84 c6 00 00 00    	je     46d0 <putchar+0x120>
    460a:	85 c0                	test   %eax,%eax
    460c:	0f 84 2e 01 00 00    	je     4740 <putchar+0x190>
    4612:	ba 01 00 00 00       	mov    $0x1,%edx
    4617:	89 1c 24             	mov    %ebx,(%esp)
    461a:	89 f1                	mov    %esi,%ecx
    461c:	89 f8                	mov    %edi,%eax
    461e:	e8 0d f7 ff ff       	call   3d30 <fwrite.part.5>
    4623:	89 c2                	mov    %eax,%edx
    4625:	39 55 e0             	cmp    %edx,-0x20(%ebp)
    4628:	77 6e                	ja     4698 <putchar+0xe8>
    462a:	8b 45 08             	mov    0x8(%ebp),%eax
    462d:	83 c4 3c             	add    $0x3c,%esp
    4630:	5b                   	pop    %ebx
    4631:	5e                   	pop    %esi
    4632:	5f                   	pop    %edi
    4633:	5d                   	pop    %ebp
    4634:	c3                   	ret    
    4635:	8d 76 00             	lea    0x0(%esi),%esi
    4638:	31 d2                	xor    %edx,%edx
    463a:	eb 25                	jmp    4661 <putchar+0xb1>
    463c:	8d 74 26 00          	lea    0x0(%esi,%eiz,1),%esi
    4640:	8d 04 17             	lea    (%edi,%edx,1),%eax
    4643:	89 74 24 04          	mov    %esi,0x4(%esp)
    4647:	89 04 24             	mov    %eax,(%esp)
    464a:	89 55 d4             	mov    %edx,-0x2c(%ebp)
    464d:	e8 ce 09 00 00       	call   5020 <klog_write>
    4652:	8b 55 d4             	mov    -0x2c(%ebp),%edx
    4655:	85 c0                	test   %eax,%eax
    4657:	7e 36                	jle    468f <putchar+0xdf>
    4659:	29 c6                	sub    %eax,%esi
    465b:	01 c2                	add    %eax,%edx
    465d:	85 f6                	test   %esi,%esi
    465f:	74 4f                	je     46b0 <putchar+0x100>
    4661:	8b 4b 0c             	mov    0xc(%ebx),%ecx
    4664:	85 c9                	test   %ecx,%ecx
    4666:	75 48                	jne    46b0 <putchar+0x100>
    4668:	8b 43 14             	mov    0x14(%ebx),%eax
    466b:	85 c0                	test   %eax,%eax
    466d:	75 d1                	jne    4640 <putchar+0x90>
    466f:	8d 04 17             	lea    (%edi,%edx,1),%eax
    4672:	89 74 24 08          	mov    %esi,0x8(%esp)
    4676:	89 44 24 04          	mov    %eax,0x4(%esp)
    467a:	8b 43 08             	mov    0x8(%ebx),%eax
    467d:	89 55 d4             	mov    %edx,-0x2c(%ebp)
    4680:	89 04 24             	mov    %eax,(%esp)
    4683:	e8 f8 e1 00 00       	call   12880 <write>
    4688:	8b 55 d4             	mov    -0x2c(%ebp),%edx
    468b:	85 c0                	test   %eax,%eax
    468d:	7f ca                	jg     4659 <putchar+0xa9>
    468f:	c7 43 0c 01 00 00 00 	movl   $0x1,0xc(%ebx)
    4696:	eb c5                	jmp    465d <putchar+0xad>
    4698:	c7 45 08 ff ff ff ff 	movl   $0xffffffff,0x8(%ebp)
    469f:	8b 45 08             	mov    0x8(%ebp),%eax
    46a2:	83 c4 3c             	add    $0x3c,%esp
    46a5:	5b                   	pop    %ebx
    46a6:	5e                   	pop    %esi
    46a7:	5f                   	pop    %edi
    46a8:	5d                   	pop    %ebp
    46a9:	c3                   	ret    
    46aa:	8d b6 00 00 00 00    	lea    0x0(%esi),%esi
    46b0:	85 d2                	test   %edx,%edx
    46b2:	74 07                	je     46bb <putchar+0x10b>
    46b4:	c7 43 1c 01 00 00 00 	movl   $0x1,0x1c(%ebx)
    46bb:	89 1c 24             	mov    %ebx,(%esp)
    46be:	89 55 d4             	mov    %edx,-0x2c(%ebp)
    46c1:	e8 2a f5 ff ff       	call   3bf0 <fflush>
    46c6:	8b 55 d4             	mov    -0x2c(%ebp),%edx
    46c9:	e9 57 ff ff ff       	jmp    4625 <putchar+0x75>
    46ce:	66 90                	xchg   %ax,%ax
    46d0:	85 c0                	test   %eax,%eax
    46d2:	74 6c                	je     4740 <putchar+0x190>
    46d4:	8b 53 0c             	mov    0xc(%ebx),%edx
    46d7:	85 d2                	test   %edx,%edx
    46d9:	0f 85 33 ff ff ff    	jne    4612 <putchar+0x62>
    46df:	8b 4b 30             	mov    0x30(%ebx),%ecx
    46e2:	2b 4b 34             	sub    0x34(%ebx),%ecx
    46e5:	74 43                	je     472a <putchar+0x17a>
    46e7:	89 c8                	mov    %ecx,%eax
    46e9:	c7 44 24 0c 01 00 00 	movl   $0x1,0xc(%esp)
    46f0:	00 
    46f1:	f7 d8                	neg    %eax
    46f3:	89 c2                	mov    %eax,%edx
    46f5:	89 44 24 04          	mov    %eax,0x4(%esp)
    46f9:	c1 fa 1f             	sar    $0x1f,%edx
    46fc:	89 54 24 08          	mov    %edx,0x8(%esp)
    4700:	8b 43 08             	mov    0x8(%ebx),%eax
    4703:	89 4d d4             	mov    %ecx,-0x2c(%ebp)
    4706:	89 04 24             	mov    %eax,(%esp)
    4709:	e8 32 e6 00 00       	call   12d40 <lseek>
    470e:	8b 4d d4             	mov    -0x2c(%ebp),%ecx
    4711:	83 7b 2c 01          	cmpl   $0x1,0x2c(%ebx)
    4715:	75 10                	jne    4727 <putchar+0x177>
    4717:	8b 43 34             	mov    0x34(%ebx),%eax
    471a:	ba 01 00 00 00       	mov    $0x1,%edx
    471f:	89 1c 24             	mov    %ebx,(%esp)
    4722:	e8 89 dc ff ff       	call   23b0 <_fwrite>
    4727:	8b 43 24             	mov    0x24(%ebx),%eax
    472a:	89 43 30             	mov    %eax,0x30(%ebx)
    472d:	89 43 34             	mov    %eax,0x34(%ebx)
    4730:	c7 43 2c 00 00 00 00 	movl   $0x0,0x2c(%ebx)
    4737:	e9 ce fe ff ff       	jmp    460a <putchar+0x5a>
    473c:	8d 74 26 00          	lea    0x0(%esi,%eiz,1),%esi
    4740:	8b 43 28             	mov    0x28(%ebx),%eax
    4743:	89 04 24             	mov    %eax,(%esp)
    4746:	e8 25 56 00 00       	call   9d70 <malloc>
    474b:	89 43 24             	mov    %eax,0x24(%ebx)
    474e:	85 c0                	test   %eax,%eax
    4750:	74 0b                	je     475d <putchar+0x1ad>
    4752:	89 43 30             	mov    %eax,0x30(%ebx)
    4755:	89 43 34             	mov    %eax,0x34(%ebx)
    4758:	e9 b5 fe ff ff       	jmp    4612 <putchar+0x62>
    475d:	e8 1e 06 01 00       	call   14d80 <__errno>
    4762:	31 d2                	xor    %edx,%edx
    4764:	c7 00 fe ff ff ff    	movl   $0xfffffffe,(%eax)
    476a:	e9 b6 fe ff ff       	jmp    4625 <putchar+0x75>
    476f:	90                   	nop

00004770 <feof>:
    4770:	55                   	push   %ebp
    4771:	89 e5                	mov    %esp,%ebp
    4773:	8b 45 08             	mov    0x8(%ebp),%eax
    4776:	5d                   	pop    %ebp
    4777:	8b 40 10             	mov    0x10(%eax),%eax
    477a:	c3                   	ret    
    477b:	90                   	nop
    477c:	8d 74 26 00          	lea    0x0(%esi,%eiz,1),%esi

00004780 <ferror>:
    4780:	55                   	push   %ebp
    4781:	89 e5                	mov    %esp,%ebp
    4783:	8b 45 08             	mov    0x8(%ebp),%eax
    4786:	5d                   	pop    %ebp
    4787:	8b 40 0c             	mov    0xc(%eax),%eax
    478a:	c3                   	ret    
    478b:	90                   	nop
    478c:	8d 74 26 00          	lea    0x0(%esi,%eiz,1),%esi

00004790 <clearerr>:
    4790:	55                   	push   %ebp
    4791:	89 e5                	mov    %esp,%ebp
    4793:	8b 45 08             	mov    0x8(%ebp),%eax
    4796:	c7 40 10 00 00 00 00 	movl   $0x0,0x10(%eax)
    479d:	c7 40 0c 00 00 00 00 	movl   $0x0,0xc(%eax)
    47a4:	5d                   	pop    %ebp
    47a5:	c3                   	ret    
    47a6:	8d 76 00             	lea    0x0(%esi),%esi
    47a9:	8d bc 27 00 00 00 00 	lea    0x0(%edi,%eiz,1),%edi

000047b0 <fileno>:
    47b0:	55                   	push   %ebp
    47b1:	89 e5                	mov    %esp,%ebp
    47b3:	83 ec 08             	sub    $0x8,%esp
    47b6:	8b 45 08             	mov    0x8(%ebp),%eax
    47b9:	8b 50 14             	mov    0x14(%eax),%edx
    47bc:	85 d2                	test   %edx,%edx
    47be:	75 08                	jne    47c8 <fileno+0x18>
    47c0:	8b 40 08             	mov    0x8(%eax),%eax
    47c3:	c9                   	leave  
    47c4:	c3                   	ret    
    47c5:	8d 76 00             	lea    0x0(%esi),%esi
    47c8:	e8 b3 05 01 00       	call   14d80 <__errno>
    47cd:	c7 00 fa fe ff ff    	movl   $0xfffffefa,(%eax)
    47d3:	83 c8 ff             	or     $0xffffffff,%eax
    47d6:	c9                   	leave  
    47d7:	c3                   	ret    
    47d8:	90                   	nop
    47d9:	8d b4 26 00 00 00 00 	lea    0x0(%esi,%eiz,1),%esi

000047e0 <fsession>:
    47e0:	55                   	push   %ebp
    47e1:	89 e5                	mov    %esp,%ebp
    47e3:	53                   	push   %ebx
    47e4:	83 ec 14             	sub    $0x14,%esp
    47e7:	8b 5d 0c             	mov    0xc(%ebp),%ebx
    47ea:	8b 53 08             	mov    0x8(%ebx),%edx
    47ed:	85 d2                	test   %edx,%edx
    47ef:	78 27                	js     4818 <fsession+0x38>
    47f1:	8b 43 18             	mov    0x18(%ebx),%eax
    47f4:	85 c0                	test   %eax,%eax
    47f6:	74 08                	je     4800 <fsession+0x20>
    47f8:	83 c4 14             	add    $0x14,%esp
    47fb:	5b                   	pop    %ebx
    47fc:	5d                   	pop    %ebp
    47fd:	c3                   	ret    
    47fe:	66 90                	xchg   %ax,%ax
    4800:	8b 45 08             	mov    0x8(%ebp),%eax
    4803:	89 54 24 04          	mov    %edx,0x4(%esp)
    4807:	89 04 24             	mov    %eax,(%esp)
    480a:	e8 b1 f3 00 00       	call   13bc0 <fd_session>
    480f:	89 43 18             	mov    %eax,0x18(%ebx)
    4812:	eb e4                	jmp    47f8 <fsession+0x18>
    4814:	8d 74 26 00          	lea    0x0(%esi,%eiz,1),%esi
    4818:	31 c0                	xor    %eax,%eax
    481a:	eb dc                	jmp    47f8 <fsession+0x18>
    481c:	8d 74 26 00          	lea    0x0(%esi,%eiz,1),%esi

00004820 <fhandle>:
    4820:	55                   	push   %ebp
    4821:	89 e5                	mov    %esp,%ebp
    4823:	8b 45 08             	mov    0x8(%ebp),%eax
    4826:	8b 40 08             	mov    0x8(%eax),%eax
    4829:	85 c0                	test   %eax,%eax
    482b:	78 0b                	js     4838 <fhandle+0x18>
    482d:	8b 55 0c             	mov    0xc(%ebp),%edx
    4830:	89 02                	mov    %eax,(%edx)
    4832:	31 c0                	xor    %eax,%eax
    4834:	5d                   	pop    %ebp
    4835:	c3                   	ret    
    4836:	66 90                	xchg   %ax,%ax
    4838:	83 c8 ff             	or     $0xffffffff,%eax
    483b:	5d                   	pop    %ebp
    483c:	c3                   	ret    
    483d:	66 90                	xchg   %ax,%ax
    483f:	90                   	nop

00004840 <fprintf>:
    4840:	55                   	push   %ebp
    4841:	89 e5                	mov    %esp,%ebp
    4843:	83 ec 18             	sub    $0x18,%esp
    4846:	8d 45 10             	lea    0x10(%ebp),%eax
    4849:	89 44 24 08          	mov    %eax,0x8(%esp)
    484d:	8b 45 0c             	mov    0xc(%ebp),%eax
    4850:	89 44 24 04          	mov    %eax,0x4(%esp)
    4854:	8b 45 08             	mov    0x8(%ebp),%eax
    4857:	89 04 24             	mov    %eax,(%esp)
    485a:	e8 f1 09 00 00       	call   5250 <vfprintf>
    485f:	c9                   	leave  
    4860:	c3                   	ret    
    4861:	eb 0d                	jmp    4870 <printf>
    4863:	90                   	nop
    4864:	90                   	nop
    4865:	90                   	nop
    4866:	90                   	nop
    4867:	90                   	nop
    4868:	90                   	nop
    4869:	90                   	nop
    486a:	90                   	nop
    486b:	90                   	nop
    486c:	90                   	nop
    486d:	90                   	nop
    486e:	90                   	nop
    486f:	90                   	nop

00004870 <printf>:
    4870:	55                   	push   %ebp
    4871:	89 e5                	mov    %esp,%ebp
    4873:	83 ec 18             	sub    $0x18,%esp
    4876:	8d 45 0c             	lea    0xc(%ebp),%eax
    4879:	89 44 24 04          	mov    %eax,0x4(%esp)
    487d:	8b 45 08             	mov    0x8(%ebp),%eax
    4880:	89 04 24             	mov    %eax,(%esp)
    4883:	e8 28 0a 00 00       	call   52b0 <vprintf>
    4888:	c9                   	leave  
    4889:	c3                   	ret    
    488a:	66 90                	xchg   %ax,%ax
    488c:	66 90                	xchg   %ax,%ax
    488e:	66 90                	xchg   %ax,%ax

00004890 <log_level_str>:
    4890:	55                   	push   %ebp
    4891:	b8 a9 e2 01 00       	mov    $0x1e2a9,%eax
    4896:	89 e5                	mov    %esp,%ebp
    4898:	8b 55 08             	mov    0x8(%ebp),%edx
    489b:	83 fa 05             	cmp    $0x5,%edx
    489e:	77 07                	ja     48a7 <log_level_str+0x17>
    48a0:	8b 04 95 f4 e2 01 00 	mov    0x1e2f4(,%edx,4),%eax
    48a7:	5d                   	pop    %ebp
    48a8:	c3                   	ret    
    48a9:	8d b4 26 00 00 00 00 	lea    0x0(%esi,%eiz,1),%esi

000048b0 <log_level_from_str>:
    48b0:	55                   	push   %ebp
    48b1:	b8 b1 e2 01 00       	mov    $0x1e2b1,%eax
    48b6:	89 e5                	mov    %esp,%ebp
    48b8:	57                   	push   %edi
    48b9:	56                   	push   %esi
    48ba:	53                   	push   %ebx
    48bb:	83 ec 2c             	sub    $0x2c,%esp
    48be:	31 ff                	xor    %edi,%edi
    48c0:	8b 5d 08             	mov    0x8(%ebp),%ebx
    48c3:	8b 75 0c             	mov    0xc(%ebp),%esi
    48c6:	eb 0c                	jmp    48d4 <log_level_from_str+0x24>
    48c8:	47                   	inc    %edi
    48c9:	8b 04 bd f4 e2 01 00 	mov    0x1e2f4(,%edi,4),%eax
    48d0:	85 c0                	test   %eax,%eax
    48d2:	74 24                	je     48f8 <log_level_from_str+0x48>
    48d4:	89 44 24 04          	mov    %eax,0x4(%esp)
    48d8:	89 1c 24             	mov    %ebx,(%esp)
    48db:	e8 e0 42 01 00       	call   18bc0 <str_cmp>
    48e0:	85 c0                	test   %eax,%eax
    48e2:	75 e4                	jne    48c8 <log_level_from_str+0x18>
    48e4:	85 f6                	test   %esi,%esi
    48e6:	74 02                	je     48ea <log_level_from_str+0x3a>
    48e8:	89 3e                	mov    %edi,(%esi)
    48ea:	83 c4 2c             	add    $0x2c,%esp
    48ed:	31 c0                	xor    %eax,%eax
    48ef:	5b                   	pop    %ebx
    48f0:	5e                   	pop    %esi
    48f1:	5f                   	pop    %edi
    48f2:	5d                   	pop    %ebp
    48f3:	c3                   	ret    
    48f4:	8d 74 26 00          	lea    0x0(%esi,%eiz,1),%esi
    48f8:	8d 45 e4             	lea    -0x1c(%ebp),%eax
    48fb:	c7 44 24 08 00 00 00 	movl   $0x0,0x8(%esp)
    4902:	00 
    4903:	89 44 24 04          	mov    %eax,0x4(%esp)
    4907:	89 1c 24             	mov    %ebx,(%esp)
    490a:	e8 e1 5c 01 00       	call   1a5f0 <strtol>
    490f:	89 c7                	mov    %eax,%edi
    4911:	8b 45 e4             	mov    -0x1c(%ebp),%eax
    4914:	39 d8                	cmp    %ebx,%eax
    4916:	74 23                	je     493b <log_level_from_str+0x8b>
    4918:	89 04 24             	mov    %eax,(%esp)
    491b:	e8 50 3f 01 00       	call   18870 <str_length>
    4920:	85 c0                	test   %eax,%eax
    4922:	75 17                	jne    493b <log_level_from_str+0x8b>
    4924:	85 ff                	test   %edi,%edi
    4926:	78 1a                	js     4942 <log_level_from_str+0x92>
    4928:	83 ff 05             	cmp    $0x5,%edi
    492b:	7f 15                	jg     4942 <log_level_from_str+0x92>
    492d:	85 f6                	test   %esi,%esi
    492f:	74 b9                	je     48ea <log_level_from_str+0x3a>
    4931:	89 3e                	mov    %edi,(%esi)
    4933:	83 c4 2c             	add    $0x2c,%esp
    4936:	5b                   	pop    %ebx
    4937:	5e                   	pop    %esi
    4938:	5f                   	pop    %edi
    4939:	5d                   	pop    %ebp
    493a:	c3                   	ret    
    493b:	b8 f2 ff ff ff       	mov    $0xfffffff2,%eax
    4940:	eb f1                	jmp    4933 <log_level_from_str+0x83>
    4942:	b8 f9 fe ff ff       	mov    $0xfffffef9,%eax
    4947:	eb ea                	jmp    4933 <log_level_from_str+0x83>
    4949:	8d b4 26 00 00 00 00 	lea    0x0(%esi,%eiz,1),%esi

00004950 <log_init>:
    4950:	55                   	push   %ebp
    4951:	89 e5                	mov    %esp,%ebp
    4953:	57                   	push   %edi
    4954:	56                   	push   %esi
    4955:	53                   	push   %ebx
    4956:	83 ec 5c             	sub    $0x5c,%esp
    4959:	8b 75 08             	mov    0x8(%ebp),%esi
    495c:	89 34 24             	mov    %esi,(%esp)
    495f:	e8 cc 5c 01 00       	call   1a630 <str_dup>
    4964:	a3 18 0e 02 00       	mov    %eax,0x20e18
    4969:	85 c0                	test   %eax,%eax
    496b:	0f 84 d7 00 00 00    	je     4a48 <log_init+0xf8>
    4971:	c7 44 24 0c 00 00 00 	movl   $0x0,0xc(%esp)
    4978:	00 
    4979:	c7 44 24 08 01 00 00 	movl   $0x1,0x8(%esp)
    4980:	00 
    4981:	c7 44 24 04 6c 6f 67 	movl   $0x67676f6c,0x4(%esp)
    4988:	67 
    4989:	c7 04 24 02 00 00 00 	movl   $0x2,(%esp)
    4990:	e8 6b 5c 00 00       	call   a600 <service_connect_blocking>
    4995:	a3 1c 0e 02 00       	mov    %eax,0x20e1c
    499a:	85 c0                	test   %eax,%eax
    499c:	0f 84 a6 00 00 00    	je     4a48 <log_init+0xf8>
    49a2:	89 04 24             	mov    %eax,(%esp)
    49a5:	e8 06 89 00 00       	call   d2b0 <async_exchange_begin>
    49aa:	89 c3                	mov    %eax,%ebx
    49ac:	85 c0                	test   %eax,%eax
    49ae:	0f 84 7c 00 00 00    	je     4a30 <log_init+0xe0>
    49b4:	8d 45 c4             	lea    -0x3c(%ebp),%eax
    49b7:	c7 44 24 14 00 00 00 	movl   $0x0,0x14(%esp)
    49be:	00 
    49bf:	89 44 24 18          	mov    %eax,0x18(%esp)
    49c3:	c7 44 24 10 00 00 00 	movl   $0x0,0x10(%esp)
    49ca:	00 
    49cb:	c7 44 24 0c 00 00 00 	movl   $0x0,0xc(%esp)
    49d2:	00 
    49d3:	c7 44 24 08 00 00 00 	movl   $0x0,0x8(%esp)
    49da:	00 
    49db:	c7 44 24 04 00 04 00 	movl   $0x400,0x4(%esp)
    49e2:	00 
    49e3:	89 1c 24             	mov    %ebx,(%esp)
    49e6:	e8 65 72 00 00       	call   bc50 <async_send_fast>
    49eb:	89 34 24             	mov    %esi,(%esp)
    49ee:	89 c7                	mov    %eax,%edi
    49f0:	e8 9b 3c 01 00       	call   18690 <str_size>
    49f5:	89 74 24 04          	mov    %esi,0x4(%esp)
    49f9:	89 44 24 08          	mov    %eax,0x8(%esp)
    49fd:	89 1c 24             	mov    %ebx,(%esp)
    4a00:	e8 9b 97 00 00       	call   e1a0 <async_data_write_start>
    4a05:	89 3c 24             	mov    %edi,(%esp)
    4a08:	89 c6                	mov    %eax,%esi
    4a0a:	8d 45 c0             	lea    -0x40(%ebp),%eax
    4a0d:	89 44 24 04          	mov    %eax,0x4(%esp)
    4a11:	e8 0a 74 00 00       	call   be20 <async_wait_for>
    4a16:	89 1c 24             	mov    %ebx,(%esp)
    4a19:	e8 02 8c 00 00       	call   d620 <async_exchange_end>
    4a1e:	85 f6                	test   %esi,%esi
    4a20:	75 0e                	jne    4a30 <log_init+0xe0>
    4a22:	8b 45 c0             	mov    -0x40(%ebp),%eax
    4a25:	85 c0                	test   %eax,%eax
    4a27:	75 07                	jne    4a30 <log_init+0xe0>
    4a29:	8b 45 c8             	mov    -0x38(%ebp),%eax
    4a2c:	eb 04                	jmp    4a32 <log_init+0xe2>
    4a2e:	66 90                	xchg   %ax,%ax
    4a30:	31 c0                	xor    %eax,%eax
    4a32:	a3 20 0e 02 00       	mov    %eax,0x20e20
    4a37:	31 c0                	xor    %eax,%eax
    4a39:	83 c4 5c             	add    $0x5c,%esp
    4a3c:	5b                   	pop    %ebx
    4a3d:	5e                   	pop    %esi
    4a3e:	5f                   	pop    %edi
    4a3f:	5d                   	pop    %ebp
    4a40:	c3                   	ret    
    4a41:	8d b4 26 00 00 00 00 	lea    0x0(%esi,%eiz,1),%esi
    4a48:	b8 fe ff ff ff       	mov    $0xfffffffe,%eax
    4a4d:	eb ea                	jmp    4a39 <log_init+0xe9>
    4a4f:	90                   	nop

00004a50 <log_create>:
    4a50:	55                   	push   %ebp
    4a51:	89 e5                	mov    %esp,%ebp
    4a53:	57                   	push   %edi
    4a54:	56                   	push   %esi
    4a55:	53                   	push   %ebx
    4a56:	83 ec 5c             	sub    $0x5c,%esp
    4a59:	a1 1c 0e 02 00       	mov    0x20e1c,%eax
    4a5e:	8b 7d 08             	mov    0x8(%ebp),%edi
    4a61:	89 04 24             	mov    %eax,(%esp)
    4a64:	e8 47 88 00 00       	call   d2b0 <async_exchange_begin>
    4a69:	89 c3                	mov    %eax,%ebx
    4a6b:	85 c0                	test   %eax,%eax
    4a6d:	0f 84 84 00 00 00    	je     4af7 <log_create+0xa7>
    4a73:	83 7d 0c ff          	cmpl   $0xffffffff,0xc(%ebp)
    4a77:	0f 84 8b 00 00 00    	je     4b08 <log_create+0xb8>
    4a7d:	8d 45 c4             	lea    -0x3c(%ebp),%eax
    4a80:	c7 44 24 14 00 00 00 	movl   $0x0,0x14(%esp)
    4a87:	00 
    4a88:	89 44 24 18          	mov    %eax,0x18(%esp)
    4a8c:	8b 45 0c             	mov    0xc(%ebp),%eax
    4a8f:	c7 44 24 10 00 00 00 	movl   $0x0,0x10(%esp)
    4a96:	00 
    4a97:	c7 44 24 0c 00 00 00 	movl   $0x0,0xc(%esp)
    4a9e:	00 
    4a9f:	89 44 24 08          	mov    %eax,0x8(%esp)
    4aa3:	c7 44 24 04 00 04 00 	movl   $0x400,0x4(%esp)
    4aaa:	00 
    4aab:	89 1c 24             	mov    %ebx,(%esp)
    4aae:	e8 9d 71 00 00       	call   bc50 <async_send_fast>
    4ab3:	89 3c 24             	mov    %edi,(%esp)
    4ab6:	89 c6                	mov    %eax,%esi
    4ab8:	e8 d3 3b 01 00       	call   18690 <str_size>
    4abd:	89 7c 24 04          	mov    %edi,0x4(%esp)
    4ac1:	89 44 24 08          	mov    %eax,0x8(%esp)
    4ac5:	89 1c 24             	mov    %ebx,(%esp)
    4ac8:	e8 d3 96 00 00       	call   e1a0 <async_data_write_start>
    4acd:	89 34 24             	mov    %esi,(%esp)
    4ad0:	89 c7                	mov    %eax,%edi
    4ad2:	8d 45 c0             	lea    -0x40(%ebp),%eax
    4ad5:	89 44 24 04          	mov    %eax,0x4(%esp)
    4ad9:	e8 42 73 00 00       	call   be20 <async_wait_for>
    4ade:	89 1c 24             	mov    %ebx,(%esp)
    4ae1:	e8 3a 8b 00 00       	call   d620 <async_exchange_end>
    4ae6:	85 ff                	test   %edi,%edi
    4ae8:	75 0d                	jne    4af7 <log_create+0xa7>
    4aea:	8b 55 c0             	mov    -0x40(%ebp),%edx
    4aed:	85 d2                	test   %edx,%edx
    4aef:	75 06                	jne    4af7 <log_create+0xa7>
    4af1:	8b 45 c8             	mov    -0x38(%ebp),%eax
    4af4:	89 45 0c             	mov    %eax,0xc(%ebp)
    4af7:	8b 45 0c             	mov    0xc(%ebp),%eax
    4afa:	83 c4 5c             	add    $0x5c,%esp
    4afd:	5b                   	pop    %ebx
    4afe:	5e                   	pop    %esi
    4aff:	5f                   	pop    %edi
    4b00:	5d                   	pop    %ebp
    4b01:	c3                   	ret    
    4b02:	8d b6 00 00 00 00    	lea    0x0(%esi),%esi
    4b08:	a1 20 0e 02 00       	mov    0x20e20,%eax
    4b0d:	89 45 0c             	mov    %eax,0xc(%ebp)
    4b10:	e9 68 ff ff ff       	jmp    4a7d <log_create+0x2d>
    4b15:	8d 74 26 00          	lea    0x0(%esi,%eiz,1),%esi
    4b19:	8d bc 27 00 00 00 00 	lea    0x0(%edi,%eiz,1),%edi

00004b20 <log_msg>:
    4b20:	55                   	push   %ebp
    4b21:	89 e5                	mov    %esp,%ebp
    4b23:	57                   	push   %edi
    4b24:	56                   	push   %esi
    4b25:	53                   	push   %ebx
    4b26:	83 ec 3c             	sub    $0x3c,%esp
    4b29:	8b 7d 08             	mov    0x8(%ebp),%edi
    4b2c:	83 7d 0c 05          	cmpl   $0x5,0xc(%ebp)
    4b30:	0f 87 e5 00 00 00    	ja     4c1b <log_msg+0xfb>
    4b36:	c7 04 24 00 10 00 00 	movl   $0x1000,(%esp)
    4b3d:	e8 2e 52 00 00       	call   9d70 <malloc>
    4b42:	89 c3                	mov    %eax,%ebx
    4b44:	85 c0                	test   %eax,%eax
    4b46:	0f 84 b6 00 00 00    	je     4c02 <log_msg+0xe2>
    4b4c:	8d 45 14             	lea    0x14(%ebp),%eax
    4b4f:	c7 44 24 04 00 10 00 	movl   $0x1000,0x4(%esp)
    4b56:	00 
    4b57:	89 44 24 0c          	mov    %eax,0xc(%esp)
    4b5b:	8b 45 10             	mov    0x10(%ebp),%eax
    4b5e:	89 44 24 08          	mov    %eax,0x8(%esp)
    4b62:	89 1c 24             	mov    %ebx,(%esp)
    4b65:	e8 26 09 00 00       	call   5490 <vsnprintf>
    4b6a:	a1 1c 0e 02 00       	mov    0x20e1c,%eax
    4b6f:	89 04 24             	mov    %eax,(%esp)
    4b72:	e8 39 87 00 00       	call   d2b0 <async_exchange_begin>
    4b77:	89 c6                	mov    %eax,%esi
    4b79:	85 c0                	test   %eax,%eax
    4b7b:	74 7d                	je     4bfa <log_msg+0xda>
    4b7d:	83 ff ff             	cmp    $0xffffffff,%edi
    4b80:	0f 84 8a 00 00 00    	je     4c10 <log_msg+0xf0>
    4b86:	c7 44 24 04 0a 00 00 	movl   $0xa,0x4(%esp)
    4b8d:	00 
    4b8e:	89 1c 24             	mov    %ebx,(%esp)
    4b91:	e8 9a 55 01 00       	call   1a130 <str_rtrim>
    4b96:	8b 45 0c             	mov    0xc(%ebp),%eax
    4b99:	89 7c 24 08          	mov    %edi,0x8(%esp)
    4b9d:	c7 44 24 18 00 00 00 	movl   $0x0,0x18(%esp)
    4ba4:	00 
    4ba5:	c7 44 24 14 00 00 00 	movl   $0x0,0x14(%esp)
    4bac:	00 
    4bad:	c7 44 24 10 00 00 00 	movl   $0x0,0x10(%esp)
    4bb4:	00 
    4bb5:	89 44 24 0c          	mov    %eax,0xc(%esp)
    4bb9:	c7 44 24 04 01 04 00 	movl   $0x401,0x4(%esp)
    4bc0:	00 
    4bc1:	89 34 24             	mov    %esi,(%esp)
    4bc4:	e8 87 70 00 00       	call   bc50 <async_send_fast>
    4bc9:	89 1c 24             	mov    %ebx,(%esp)
    4bcc:	89 c7                	mov    %eax,%edi
    4bce:	e8 bd 3a 01 00       	call   18690 <str_size>
    4bd3:	89 5c 24 04          	mov    %ebx,0x4(%esp)
    4bd7:	89 44 24 08          	mov    %eax,0x8(%esp)
    4bdb:	89 34 24             	mov    %esi,(%esp)
    4bde:	e8 bd 95 00 00       	call   e1a0 <async_data_write_start>
    4be3:	8d 45 e4             	lea    -0x1c(%ebp),%eax
    4be6:	89 44 24 04          	mov    %eax,0x4(%esp)
    4bea:	89 3c 24             	mov    %edi,(%esp)
    4bed:	e8 2e 72 00 00       	call   be20 <async_wait_for>
    4bf2:	89 34 24             	mov    %esi,(%esp)
    4bf5:	e8 26 8a 00 00       	call   d620 <async_exchange_end>
    4bfa:	89 1c 24             	mov    %ebx,(%esp)
    4bfd:	e8 7e 52 00 00       	call   9e80 <free>
    4c02:	83 c4 3c             	add    $0x3c,%esp
    4c05:	5b                   	pop    %ebx
    4c06:	5e                   	pop    %esi
    4c07:	5f                   	pop    %edi
    4c08:	5d                   	pop    %ebp
    4c09:	c3                   	ret    
    4c0a:	8d b6 00 00 00 00    	lea    0x0(%esi),%esi
    4c10:	8b 3d 20 0e 02 00    	mov    0x20e20,%edi
    4c16:	e9 6b ff ff ff       	jmp    4b86 <log_msg+0x66>
    4c1b:	c7 44 24 08 ee 00 00 	movl   $0xee,0x8(%esp)
    4c22:	00 
    4c23:	c7 44 24 04 b7 e2 01 	movl   $0x1e2b7,0x4(%esp)
    4c2a:	00 
    4c2b:	c7 04 24 c8 e2 01 00 	movl   $0x1e2c8,(%esp)
    4c32:	e8 d9 f7 00 00       	call   14410 <assert_abort>
    4c37:	89 f6                	mov    %esi,%esi
    4c39:	8d bc 27 00 00 00 00 	lea    0x0(%edi,%eiz,1),%edi

00004c40 <log_msgv>:
    4c40:	55                   	push   %ebp
    4c41:	89 e5                	mov    %esp,%ebp
    4c43:	57                   	push   %edi
    4c44:	56                   	push   %esi
    4c45:	53                   	push   %ebx
    4c46:	83 ec 3c             	sub    $0x3c,%esp
    4c49:	8b 7d 08             	mov    0x8(%ebp),%edi
    4c4c:	83 7d 0c 05          	cmpl   $0x5,0xc(%ebp)
    4c50:	0f 87 e5 00 00 00    	ja     4d3b <log_msgv+0xfb>
    4c56:	c7 04 24 00 10 00 00 	movl   $0x1000,(%esp)
    4c5d:	e8 0e 51 00 00       	call   9d70 <malloc>
    4c62:	89 c3                	mov    %eax,%ebx
    4c64:	85 c0                	test   %eax,%eax
    4c66:	0f 84 b6 00 00 00    	je     4d22 <log_msgv+0xe2>
    4c6c:	8b 45 14             	mov    0x14(%ebp),%eax
    4c6f:	c7 44 24 04 00 10 00 	movl   $0x1000,0x4(%esp)
    4c76:	00 
    4c77:	89 44 24 0c          	mov    %eax,0xc(%esp)
    4c7b:	8b 45 10             	mov    0x10(%ebp),%eax
    4c7e:	89 44 24 08          	mov    %eax,0x8(%esp)
    4c82:	89 1c 24             	mov    %ebx,(%esp)
    4c85:	e8 06 08 00 00       	call   5490 <vsnprintf>
    4c8a:	a1 1c 0e 02 00       	mov    0x20e1c,%eax
    4c8f:	89 04 24             	mov    %eax,(%esp)
    4c92:	e8 19 86 00 00       	call   d2b0 <async_exchange_begin>
    4c97:	89 c6                	mov    %eax,%esi
    4c99:	85 c0                	test   %eax,%eax
    4c9b:	74 7d                	je     4d1a <log_msgv+0xda>
    4c9d:	83 ff ff             	cmp    $0xffffffff,%edi
    4ca0:	0f 84 8a 00 00 00    	je     4d30 <log_msgv+0xf0>
    4ca6:	c7 44 24 04 0a 00 00 	movl   $0xa,0x4(%esp)
    4cad:	00 
    4cae:	89 1c 24             	mov    %ebx,(%esp)
    4cb1:	e8 7a 54 01 00       	call   1a130 <str_rtrim>
    4cb6:	8b 45 0c             	mov    0xc(%ebp),%eax
    4cb9:	89 7c 24 08          	mov    %edi,0x8(%esp)
    4cbd:	c7 44 24 18 00 00 00 	movl   $0x0,0x18(%esp)
    4cc4:	00 
    4cc5:	c7 44 24 14 00 00 00 	movl   $0x0,0x14(%esp)
    4ccc:	00 
    4ccd:	c7 44 24 10 00 00 00 	movl   $0x0,0x10(%esp)
    4cd4:	00 
    4cd5:	89 44 24 0c          	mov    %eax,0xc(%esp)
    4cd9:	c7 44 24 04 01 04 00 	movl   $0x401,0x4(%esp)
    4ce0:	00 
    4ce1:	89 34 24             	mov    %esi,(%esp)
    4ce4:	e8 67 6f 00 00       	call   bc50 <async_send_fast>
    4ce9:	89 1c 24             	mov    %ebx,(%esp)
    4cec:	89 c7                	mov    %eax,%edi
    4cee:	e8 9d 39 01 00       	call   18690 <str_size>
    4cf3:	89 5c 24 04          	mov    %ebx,0x4(%esp)
    4cf7:	89 44 24 08          	mov    %eax,0x8(%esp)
    4cfb:	89 34 24             	mov    %esi,(%esp)
    4cfe:	e8 9d 94 00 00       	call   e1a0 <async_data_write_start>
    4d03:	8d 45 e4             	lea    -0x1c(%ebp),%eax
    4d06:	89 44 24 04          	mov    %eax,0x4(%esp)
    4d0a:	89 3c 24             	mov    %edi,(%esp)
    4d0d:	e8 0e 71 00 00       	call   be20 <async_wait_for>
    4d12:	89 34 24             	mov    %esi,(%esp)
    4d15:	e8 06 89 00 00       	call   d620 <async_exchange_end>
    4d1a:	89 1c 24             	mov    %ebx,(%esp)
    4d1d:	e8 5e 51 00 00       	call   9e80 <free>
    4d22:	83 c4 3c             	add    $0x3c,%esp
    4d25:	5b                   	pop    %ebx
