
vfs:     file format elf32-i386


Disassembly of section .init:

00001094 <__entry>:
    1094:	66 8c d0             	mov    %ss,%ax
    1097:	8e d8                	mov    %eax,%ds
    1099:	8e c0                	mov    %eax,%es
    109b:	8e e0                	mov    %eax,%fs
    109d:	b8 01 00 00 00       	mov    $0x1,%eax
    10a2:	0f a2                	cpuid  
    10a4:	0f ba e2 0b          	bt     $0xb,%edx
    10a8:	73 0c                	jae    10b6 <__entry+0x22>
    10aa:	8d 05 34 4a 02 00    	lea    0x24a34,%eax
    10b0:	c7 00 97 cf 01 00    	movl   $0x1cf97,(%eax)
    10b6:	6a 00                	push   $0x0
    10b8:	89 e5                	mov    %esp,%ebp
    10ba:	57                   	push   %edi
    10bb:	e8 20 45 00 00       	call   55e0 <__main>

Disassembly of section .text:

000010c0 <vfs_connection>:
    10c0:	55                   	push   %ebp
    10c1:	89 e5                	mov    %esp,%ebp
    10c3:	53                   	push   %ebx
    10c4:	83 ec 44             	sub    $0x44,%esp
    10c7:	8b 45 08             	mov    0x8(%ebp),%eax
    10ca:	8d 5d d4             	lea    -0x2c(%ebp),%ebx
    10cd:	c7 44 24 04 00 00 00 	movl   $0x0,0x4(%esp)
    10d4:	00 
    10d5:	89 04 24             	mov    %eax,(%esp)
    10d8:	e8 93 41 01 00       	call   15270 <async_answer_0>
    10dd:	8d 76 00             	lea    0x0(%esi),%esi
    10e0:	c7 44 24 04 00 00 00 	movl   $0x0,0x4(%esp)
    10e7:	00 
    10e8:	89 1c 24             	mov    %ebx,(%esp)
    10eb:	e8 50 2b 01 00       	call   13c40 <async_get_call_timeout>
    10f0:	8b 55 d4             	mov    -0x2c(%ebp),%edx
    10f3:	85 d2                	test   %edx,%edx
    10f5:	0f 84 b9 00 00 00    	je     11b4 <vfs_connection+0xf4>
    10fb:	81 ea 00 04 00 00    	sub    $0x400,%edx
    1101:	83 fa 12             	cmp    $0x12,%edx
    1104:	76 12                	jbe    1118 <vfs_connection+0x58>
    1106:	c7 44 24 04 f5 ff ff 	movl   $0xfffffff5,0x4(%esp)
    110d:	ff 
    110e:	89 04 24             	mov    %eax,(%esp)
    1111:	e8 5a 41 01 00       	call   15270 <async_answer_0>
    1116:	eb c8                	jmp    10e0 <vfs_connection+0x20>
    1118:	ff 24 95 b4 1c 02 00 	jmp    *0x21cb4(,%edx,4)
    111f:	90                   	nop
    1120:	89 5c 24 04          	mov    %ebx,0x4(%esp)
    1124:	89 04 24             	mov    %eax,(%esp)
    1127:	e8 34 3a 00 00       	call   4b60 <vfs_get_mtab>
    112c:	eb b2                	jmp    10e0 <vfs_connection+0x20>
    112e:	66 90                	xchg   %ax,%ax
    1130:	89 5c 24 04          	mov    %ebx,0x4(%esp)
    1134:	89 04 24             	mov    %eax,(%esp)
    1137:	e8 f4 39 00 00       	call   4b30 <vfs_wait_handle>
    113c:	eb a2                	jmp    10e0 <vfs_connection+0x20>
    113e:	66 90                	xchg   %ax,%ax
    1140:	89 5c 24 04          	mov    %ebx,0x4(%esp)
    1144:	89 04 24             	mov    %eax,(%esp)
    1147:	e8 14 39 00 00       	call   4a60 <vfs_dup>
    114c:	eb 92                	jmp    10e0 <vfs_connection+0x20>
    114e:	66 90                	xchg   %ax,%ax
    1150:	89 5c 24 04          	mov    %ebx,0x4(%esp)
    1154:	89 04 24             	mov    %eax,(%esp)
    1157:	e8 f4 2f 00 00       	call   4150 <vfs_stat>
    115c:	eb 82                	jmp    10e0 <vfs_connection+0x20>
    115e:	66 90                	xchg   %ax,%ax
    1160:	89 5c 24 04          	mov    %ebx,0x4(%esp)
    1164:	89 04 24             	mov    %eax,(%esp)
    1167:	e8 e4 33 00 00       	call   4550 <vfs_rename>
    116c:	e9 6f ff ff ff       	jmp    10e0 <vfs_connection+0x20>
    1171:	8d b4 26 00 00 00 00 	lea    0x0(%esi,%eiz,1),%esi
    1178:	89 5c 24 04          	mov    %ebx,0x4(%esp)
    117c:	89 04 24             	mov    %eax,(%esp)
    117f:	e8 ac 32 00 00       	call   4430 <vfs_unlink>
    1184:	e9 57 ff ff ff       	jmp    10e0 <vfs_connection+0x20>
    1189:	8d b4 26 00 00 00 00 	lea    0x0(%esi,%eiz,1),%esi
    1190:	89 5c 24 04          	mov    %ebx,0x4(%esp)
    1194:	89 04 24             	mov    %eax,(%esp)
    1197:	e8 d4 31 00 00       	call   4370 <vfs_mkdir>
    119c:	e9 3f ff ff ff       	jmp    10e0 <vfs_connection+0x20>
    11a1:	8d b4 26 00 00 00 00 	lea    0x0(%esi,%eiz,1),%esi
    11a8:	89 5c 24 04          	mov    %ebx,0x4(%esp)
    11ac:	89 04 24             	mov    %eax,(%esp)
    11af:	e8 8c 3e 00 00       	call   5040 <vfs_register>
    11b4:	83 c4 44             	add    $0x44,%esp
    11b7:	5b                   	pop    %ebx
    11b8:	5d                   	pop    %ebp
    11b9:	c3                   	ret    
    11ba:	8d b6 00 00 00 00    	lea    0x0(%esi),%esi
    11c0:	89 5c 24 04          	mov    %ebx,0x4(%esp)
    11c4:	89 04 24             	mov    %eax,(%esp)
    11c7:	e8 e4 25 00 00       	call   37b0 <vfs_sync>
    11cc:	e9 0f ff ff ff       	jmp    10e0 <vfs_connection+0x20>
    11d1:	8d b4 26 00 00 00 00 	lea    0x0(%esi,%eiz,1),%esi
    11d8:	89 5c 24 04          	mov    %ebx,0x4(%esp)
    11dc:	89 04 24             	mov    %eax,(%esp)
    11df:	e8 fc 1d 00 00       	call   2fe0 <vfs_unmount>
    11e4:	e9 f7 fe ff ff       	jmp    10e0 <vfs_connection+0x20>
    11e9:	8d b4 26 00 00 00 00 	lea    0x0(%esi,%eiz,1),%esi
    11f0:	89 5c 24 04          	mov    %ebx,0x4(%esp)
    11f4:	89 04 24             	mov    %eax,(%esp)
    11f7:	e8 14 15 00 00       	call   2710 <vfs_mount>
    11fc:	e9 df fe ff ff       	jmp    10e0 <vfs_connection+0x20>
    1201:	8d b4 26 00 00 00 00 	lea    0x0(%esi,%eiz,1),%esi
    1208:	89 5c 24 04          	mov    %ebx,0x4(%esp)
    120c:	89 04 24             	mov    %eax,(%esp)
    120f:	e8 7c 26 00 00       	call   3890 <vfs_close>
    1214:	e9 c7 fe ff ff       	jmp    10e0 <vfs_connection+0x20>
    1219:	8d b4 26 00 00 00 00 	lea    0x0(%esi,%eiz,1),%esi
    1220:	89 5c 24 04          	mov    %ebx,0x4(%esp)
    1224:	89 04 24             	mov    %eax,(%esp)
    1227:	e8 d4 2d 00 00       	call   4000 <vfs_fstat>
    122c:	e9 af fe ff ff       	jmp    10e0 <vfs_connection+0x20>
    1231:	8d b4 26 00 00 00 00 	lea    0x0(%esi,%eiz,1),%esi
    1238:	89 5c 24 04          	mov    %ebx,0x4(%esp)
    123c:	89 04 24             	mov    %eax,(%esp)
    123f:	e8 8c 2c 00 00       	call   3ed0 <vfs_truncate>
    1244:	e9 97 fe ff ff       	jmp    10e0 <vfs_connection+0x20>
    1249:	8d b4 26 00 00 00 00 	lea    0x0(%esi,%eiz,1),%esi
    1250:	89 5c 24 04          	mov    %ebx,0x4(%esp)
    1254:	89 04 24             	mov    %eax,(%esp)
    1257:	e8 e4 29 00 00       	call   3c40 <vfs_seek>
    125c:	e9 7f fe ff ff       	jmp    10e0 <vfs_connection+0x20>
    1261:	8d b4 26 00 00 00 00 	lea    0x0(%esi,%eiz,1),%esi
    1268:	89 5c 24 04          	mov    %ebx,0x4(%esp)
    126c:	89 04 24             	mov    %eax,(%esp)
    126f:	e8 bc 27 00 00       	call   3a30 <vfs_write>
    1274:	e9 67 fe ff ff       	jmp    10e0 <vfs_connection+0x20>
    1279:	8d b4 26 00 00 00 00 	lea    0x0(%esi,%eiz,1),%esi
    1280:	89 5c 24 04          	mov    %ebx,0x4(%esp)
    1284:	89 04 24             	mov    %eax,(%esp)
    1287:	e8 c4 21 00 00       	call   3450 <vfs_open>
    128c:	e9 4f fe ff ff       	jmp    10e0 <vfs_connection+0x20>
    1291:	8d b4 26 00 00 00 00 	lea    0x0(%esi,%eiz,1),%esi
    1298:	89 5c 24 04          	mov    %ebx,0x4(%esp)
    129c:	89 04 24             	mov    %eax,(%esp)
    129f:	e8 1c 26 00 00       	call   38c0 <vfs_read>
    12a4:	e9 37 fe ff ff       	jmp    10e0 <vfs_connection+0x20>
    12a9:	8d b4 26 00 00 00 00 	lea    0x0(%esi,%eiz,1),%esi

000012b0 <notification_received>:
    12b0:	55                   	push   %ebp
    12b1:	89 e5                	mov    %esp,%ebp
    12b3:	53                   	push   %ebx
    12b4:	83 ec 24             	sub    $0x24,%esp
    12b7:	8b 4d 0c             	mov    0xc(%ebp),%ecx
    12ba:	8b 11                	mov    (%ecx),%edx
    12bc:	85 d2                	test   %edx,%edx
    12be:	75 07                	jne    12c7 <notification_received+0x17>
    12c0:	8b 41 04             	mov    0x4(%ecx),%eax
    12c3:	85 c0                	test   %eax,%eax
    12c5:	74 09                	je     12d0 <notification_received+0x20>
    12c7:	83 c4 24             	add    $0x24,%esp
    12ca:	5b                   	pop    %ebx
    12cb:	5d                   	pop    %ebp
    12cc:	c3                   	ret    
    12cd:	8d 76 00             	lea    0x0(%esi),%esi
    12d0:	8b 41 08             	mov    0x8(%ecx),%eax
    12d3:	89 44 24 10          	mov    %eax,0x10(%esp)
    12d7:	8b 41 18             	mov    0x18(%ecx),%eax
    12da:	8b 51 1c             	mov    0x1c(%ecx),%edx
    12dd:	89 54 24 0c          	mov    %edx,0xc(%esp)
    12e1:	89 44 24 08          	mov    %eax,0x8(%esp)
    12e5:	8b 41 14             	mov    0x14(%ecx),%eax
    12e8:	8b 49 10             	mov    0x10(%ecx),%ecx
    12eb:	89 0c 24             	mov    %ecx,(%esp)
    12ee:	89 44 24 04          	mov    %eax,0x4(%esp)
    12f2:	e8 d9 0e 00 00       	call   21d0 <vfs_pass_handle>
    12f7:	83 c4 24             	add    $0x24,%esp
    12fa:	5b                   	pop    %ebx
    12fb:	5d                   	pop    %ebp
    12fc:	c3                   	ret    
    12fd:	66 90                	xchg   %ax,%ax
    12ff:	90                   	nop

00001300 <main>:
    1300:	55                   	push   %ebp
    1301:	89 e5                	mov    %esp,%ebp
    1303:	53                   	push   %ebx
    1304:	83 e4 f0             	and    $0xfffffff0,%esp
    1307:	83 ec 10             	sub    $0x10,%esp
    130a:	c7 44 24 04 00 1d 02 	movl   $0x21d00,0x4(%esp)
    1311:	00 
    1312:	c7 04 24 04 1d 02 00 	movl   $0x21d04,(%esp)
    1319:	e8 92 c7 00 00       	call   dab0 <printf>
    131e:	e8 fd 01 00 00       	call   1520 <vfs_nodes_init>
    1323:	84 c0                	test   %al,%al
    1325:	0f 84 cd 00 00 00    	je     13f8 <main+0xf8>
    132b:	c7 44 24 08 0b 00 00 	movl   $0xb,0x8(%esp)
    1332:	00 
    1333:	c7 44 24 04 00 00 02 	movl   $0x20000,0x4(%esp)
    133a:	00 
    133b:	c7 04 24 ff ff ff ff 	movl   $0xffffffff,(%esp)
    1342:	e8 59 43 00 00       	call   56a0 <as_area_create>
    1347:	a3 e8 4a 02 00       	mov    %eax,0x24ae8
    134c:	83 f8 ff             	cmp    $0xffffffff,%eax
    134f:	0f 84 be 00 00 00    	je     1413 <main+0x113>
    1355:	c7 44 24 08 00 00 02 	movl   $0x20000,0x8(%esp)
    135c:	00 
    135d:	c7 44 24 04 00 00 00 	movl   $0x0,0x4(%esp)
    1364:	00 
    1365:	89 04 24             	mov    %eax,(%esp)
    1368:	e8 03 46 00 00       	call   5970 <memset>
    136d:	c7 04 24 e0 19 00 00 	movl   $0x19e0,(%esp)
    1374:	e8 27 26 01 00       	call   139a0 <async_set_client_data_constructor>
    1379:	c7 04 24 30 1a 00 00 	movl   $0x1a30,(%esp)
    1380:	e8 5b 26 01 00       	call   139e0 <async_set_client_data_destructor>
    1385:	c7 04 24 c0 10 00 00 	movl   $0x10c0,(%esp)
    138c:	e8 8f 26 01 00       	call   13a20 <async_set_client_connection>
    1391:	c7 04 24 b0 12 00 00 	movl   $0x12b0,(%esp)
    1398:	e8 c3 26 01 00       	call   13a60 <async_set_interrupt_received>
    139d:	c7 44 24 04 00 00 00 	movl   $0x0,0x4(%esp)
    13a4:	00 
    13a5:	c7 04 24 03 00 00 00 	movl   $0x3,(%esp)
    13ac:	e8 cf 44 00 00       	call   5880 <event_task_subscribe>
    13b1:	c7 04 24 76 66 73 20 	movl   $0x20736676,(%esp)
    13b8:	e8 23 1b 01 00       	call   12ee0 <service_register>
    13bd:	c7 44 24 04 00 1d 02 	movl   $0x21d00,0x4(%esp)
    13c4:	00 
    13c5:	89 c3                	mov    %eax,%ebx
    13c7:	85 c0                	test   %eax,%eax
    13c9:	75 1f                	jne    13ea <main+0xea>
    13cb:	c7 04 24 1c 1d 02 00 	movl   $0x21d1c,(%esp)
    13d2:	e8 d9 c6 00 00       	call   dab0 <printf>
    13d7:	c7 04 24 01 00 00 00 	movl   $0x1,(%esp)
    13de:	e8 6d 7f 00 00       	call   9350 <fibril_switch>
    13e3:	89 d8                	mov    %ebx,%eax
    13e5:	8b 5d fc             	mov    -0x4(%ebp),%ebx
    13e8:	c9                   	leave  
    13e9:	c3                   	ret    
    13ea:	c7 04 24 90 1d 02 00 	movl   $0x21d90,(%esp)
    13f1:	e8 ba c6 00 00       	call   dab0 <printf>
    13f6:	eb eb                	jmp    13e3 <main+0xe3>
    13f8:	c7 44 24 04 00 1d 02 	movl   $0x21d00,0x4(%esp)
    13ff:	00 
    1400:	c7 04 24 38 1d 02 00 	movl   $0x21d38,(%esp)
    1407:	e8 a4 c6 00 00       	call   dab0 <printf>
    140c:	bb fe ff ff ff       	mov    $0xfffffffe,%ebx
    1411:	eb d0                	jmp    13e3 <main+0xe3>
    1413:	c7 44 24 04 00 1d 02 	movl   $0x21d00,0x4(%esp)
    141a:	00 
    141b:	c7 04 24 68 1d 02 00 	movl   $0x21d68,(%esp)
    1422:	e8 89 c6 00 00       	call   dab0 <printf>
    1427:	bb fe ff ff ff       	mov    $0xfffffffe,%ebx
    142c:	eb b5                	jmp    13e3 <main+0xe3>
    142e:	66 90                	xchg   %ax,%ax

00001430 <refcnt_visitor>:
    1430:	55                   	push   %ebp
    1431:	89 e5                	mov    %esp,%ebp
    1433:	53                   	push   %ebx
    1434:	8b 55 0c             	mov    0xc(%ebp),%edx
    1437:	8b 45 08             	mov    0x8(%ebp),%eax
    143a:	8b 5a 04             	mov    0x4(%edx),%ebx
    143d:	8d 48 ec             	lea    -0x14(%eax),%ecx
    1440:	66 39 58 ec          	cmp    %bx,-0x14(%eax)
    1444:	74 0a                	je     1450 <refcnt_visitor+0x20>
    1446:	b0 01                	mov    $0x1,%al
    1448:	5b                   	pop    %ebx
    1449:	5d                   	pop    %ebp
    144a:	c3                   	ret    
    144b:	90                   	nop
    144c:	8d 74 26 00          	lea    0x0(%esi,%eiz,1),%esi
    1450:	8b 42 08             	mov    0x8(%edx),%eax
    1453:	39 41 04             	cmp    %eax,0x4(%ecx)
    1456:	75 ee                	jne    1446 <refcnt_visitor+0x16>
    1458:	8b 41 0c             	mov    0xc(%ecx),%eax
    145b:	8b 0a                	mov    (%edx),%ecx
    145d:	01 c1                	add    %eax,%ecx
    145f:	b0 01                	mov    $0x1,%al
    1461:	89 0a                	mov    %ecx,(%edx)
    1463:	5b                   	pop    %ebx
    1464:	5d                   	pop    %ebp
    1465:	c3                   	ret    
    1466:	8d 76 00             	lea    0x0(%esi),%esi
    1469:	8d bc 27 00 00 00 00 	lea    0x0(%edi,%eiz,1),%edi

00001470 <nodes_key_hash>:
    1470:	55                   	push   %ebp
    1471:	89 e5                	mov    %esp,%ebp
    1473:	53                   	push   %ebx
    1474:	8b 45 08             	mov    0x8(%ebp),%eax
    1477:	0f bf 08             	movswl (%eax),%ecx
    147a:	89 ca                	mov    %ecx,%edx
    147c:	8b 58 08             	mov    0x8(%eax),%ebx
    147f:	c1 ca 1b             	ror    $0x1b,%edx
    1482:	8d 94 13 b9 79 37 9e 	lea    -0x61c88647(%ebx,%edx,1),%edx
    1489:	5b                   	pop    %ebx
    148a:	31 ca                	xor    %ecx,%edx
    148c:	8b 48 04             	mov    0x4(%eax),%ecx
    148f:	89 d0                	mov    %edx,%eax
    1491:	5d                   	pop    %ebp
    1492:	c1 c8 1b             	ror    $0x1b,%eax
    1495:	8d 84 01 b9 79 37 9e 	lea    -0x61c88647(%ecx,%eax,1),%eax
    149c:	31 d0                	xor    %edx,%eax
    149e:	c3                   	ret    
    149f:	90                   	nop

000014a0 <nodes_hash>:
    14a0:	55                   	push   %ebp
    14a1:	89 e5                	mov    %esp,%ebp
    14a3:	53                   	push   %ebx
    14a4:	8b 55 08             	mov    0x8(%ebp),%edx
    14a7:	0f bf 4a ec          	movswl -0x14(%edx),%ecx
    14ab:	8d 42 ec             	lea    -0x14(%edx),%eax
    14ae:	89 ca                	mov    %ecx,%edx
    14b0:	c1 ca 1b             	ror    $0x1b,%edx
    14b3:	8b 58 08             	mov    0x8(%eax),%ebx
    14b6:	8d 94 13 b9 79 37 9e 	lea    -0x61c88647(%ebx,%edx,1),%edx
    14bd:	5b                   	pop    %ebx
    14be:	31 ca                	xor    %ecx,%edx
    14c0:	8b 48 04             	mov    0x4(%eax),%ecx
    14c3:	89 d0                	mov    %edx,%eax
    14c5:	5d                   	pop    %ebp
    14c6:	c1 c8 1b             	ror    $0x1b,%eax
    14c9:	8d 84 01 b9 79 37 9e 	lea    -0x61c88647(%ecx,%eax,1),%eax
    14d0:	31 d0                	xor    %edx,%eax
    14d2:	c3                   	ret    
    14d3:	8d b6 00 00 00 00    	lea    0x0(%esi),%esi
    14d9:	8d bc 27 00 00 00 00 	lea    0x0(%edi,%eiz,1),%edi

000014e0 <nodes_key_equal>:
    14e0:	55                   	push   %ebp
    14e1:	31 c0                	xor    %eax,%eax
    14e3:	89 e5                	mov    %esp,%ebp
    14e5:	56                   	push   %esi
    14e6:	53                   	push   %ebx
    14e7:	8b 4d 08             	mov    0x8(%ebp),%ecx
    14ea:	8b 55 0c             	mov    0xc(%ebp),%edx
    14ed:	8b 31                	mov    (%ecx),%esi
    14ef:	8d 5a ec             	lea    -0x14(%edx),%ebx
    14f2:	66 39 72 ec          	cmp    %si,-0x14(%edx)
    14f6:	74 08                	je     1500 <nodes_key_equal+0x20>
    14f8:	5b                   	pop    %ebx
    14f9:	5e                   	pop    %esi
    14fa:	5d                   	pop    %ebp
    14fb:	c3                   	ret    
    14fc:	8d 74 26 00          	lea    0x0(%esi,%eiz,1),%esi
    1500:	8b 51 04             	mov    0x4(%ecx),%edx
    1503:	39 53 04             	cmp    %edx,0x4(%ebx)
    1506:	75 f0                	jne    14f8 <nodes_key_equal+0x18>
    1508:	8b 71 08             	mov    0x8(%ecx),%esi
    150b:	39 73 08             	cmp    %esi,0x8(%ebx)
    150e:	0f 94 c0             	sete   %al
    1511:	eb e5                	jmp    14f8 <nodes_key_equal+0x18>
    1513:	8d b6 00 00 00 00    	lea    0x0(%esi),%esi
    1519:	8d bc 27 00 00 00 00 	lea    0x0(%edi,%eiz,1),%edi

00001520 <vfs_nodes_init>:
    1520:	55                   	push   %ebp
    1521:	89 e5                	mov    %esp,%ebp
    1523:	83 ec 18             	sub    $0x18,%esp
    1526:	c7 44 24 0c 20 48 02 	movl   $0x24820,0xc(%esp)
    152d:	00 
    152e:	c7 44 24 08 00 00 00 	movl   $0x0,0x8(%esp)
    1535:	00 
    1536:	c7 44 24 04 00 00 00 	movl   $0x0,0x4(%esp)
    153d:	00 
    153e:	c7 04 24 b8 4a 02 00 	movl   $0x24ab8,(%esp)
    1545:	e8 86 6e 01 00       	call   183d0 <hash_table_create>
    154a:	c9                   	leave  
    154b:	c3                   	ret    
    154c:	8d 74 26 00          	lea    0x0(%esi,%eiz,1),%esi

00001550 <vfs_node_addref>:
    1550:	55                   	push   %ebp
    1551:	89 e5                	mov    %esp,%ebp
    1553:	53                   	push   %ebx
    1554:	83 ec 14             	sub    $0x14,%esp
    1557:	8b 5d 08             	mov    0x8(%ebp),%ebx
    155a:	c7 04 24 34 48 02 00 	movl   $0x24834,(%esp)
    1561:	e8 ba 85 00 00       	call   9b20 <fibril_mutex_lock>
    1566:	8b 43 0c             	mov    0xc(%ebx),%eax
    1569:	40                   	inc    %eax
    156a:	89 43 0c             	mov    %eax,0xc(%ebx)
    156d:	c7 45 08 34 48 02 00 	movl   $0x24834,0x8(%ebp)
    1574:	83 c4 14             	add    $0x14,%esp
    1577:	5b                   	pop    %ebx
    1578:	5d                   	pop    %ebp
    1579:	e9 c2 86 00 00       	jmp    9c40 <fibril_mutex_unlock>
    157e:	66 90                	xchg   %ax,%ax

00001580 <vfs_node_delref>:
    1580:	55                   	push   %ebp
    1581:	89 e5                	mov    %esp,%ebp
    1583:	56                   	push   %esi
    1584:	53                   	push   %ebx
    1585:	83 ec 30             	sub    $0x30,%esp
    1588:	8b 5d 08             	mov    0x8(%ebp),%ebx
    158b:	c7 04 24 34 48 02 00 	movl   $0x24834,(%esp)
    1592:	e8 89 85 00 00       	call   9b20 <fibril_mutex_lock>
    1597:	8b 43 0c             	mov    0xc(%ebx),%eax
    159a:	8d 50 ff             	lea    -0x1(%eax),%edx
    159d:	48                   	dec    %eax
    159e:	89 53 0c             	mov    %edx,0xc(%ebx)
    15a1:	74 15                	je     15b8 <vfs_node_delref+0x38>
    15a3:	c7 45 08 34 48 02 00 	movl   $0x24834,0x8(%ebp)
    15aa:	83 c4 30             	add    $0x30,%esp
    15ad:	5b                   	pop    %ebx
    15ae:	5e                   	pop    %esi
    15af:	5d                   	pop    %ebp
    15b0:	e9 8b 86 00 00       	jmp    9c40 <fibril_mutex_unlock>
    15b5:	8d 76 00             	lea    0x0(%esi),%esi
    15b8:	8d 43 14             	lea    0x14(%ebx),%eax
    15bb:	c7 04 24 b8 4a 02 00 	movl   $0x24ab8,(%esp)
    15c2:	89 44 24 04          	mov    %eax,0x4(%esp)
    15c6:	e8 95 76 01 00       	call   18c60 <hash_table_remove_item>
    15cb:	8b 43 10             	mov    0x10(%ebx),%eax
    15ce:	85 c0                	test   %eax,%eax
    15d0:	0f 85 8a 00 00 00    	jne    1660 <vfs_node_delref+0xe0>
    15d6:	c7 04 24 34 48 02 00 	movl   $0x24834,(%esp)
    15dd:	e8 5e 86 00 00       	call   9c40 <fibril_mutex_unlock>
    15e2:	0f bf 03             	movswl (%ebx),%eax
    15e5:	89 04 24             	mov    %eax,(%esp)
    15e8:	e8 73 3d 00 00       	call   5360 <vfs_exchange_grab>
    15ed:	c7 44 24 28 00 00 00 	movl   $0x0,0x28(%esp)
    15f4:	00 
    15f5:	c7 44 24 24 00 00 00 	movl   $0x0,0x24(%esp)
    15fc:	00 
    15fd:	c7 44 24 20 00 00 00 	movl   $0x0,0x20(%esp)
    1604:	00 
    1605:	c7 44 24 1c 00 00 00 	movl   $0x0,0x1c(%esp)
    160c:	00 
    160d:	c7 44 24 18 00 00 00 	movl   $0x0,0x18(%esp)
    1614:	00 
    1615:	c7 44 24 14 00 00 00 	movl   $0x0,0x14(%esp)
    161c:	00 
    161d:	c7 44 24 10 00 00 00 	movl   $0x0,0x10(%esp)
    1624:	00 
    1625:	89 c6                	mov    %eax,%esi
    1627:	8b 43 08             	mov    0x8(%ebx),%eax
    162a:	89 44 24 0c          	mov    %eax,0xc(%esp)
    162e:	8b 43 04             	mov    0x4(%ebx),%eax
    1631:	c7 44 24 04 0c 04 00 	movl   $0x40c,0x4(%esp)
    1638:	00 
    1639:	89 44 24 08          	mov    %eax,0x8(%esp)
    163d:	89 34 24             	mov    %esi,(%esp)
    1640:	e8 db 35 01 00       	call   14c20 <async_req_fast>
    1645:	85 c0                	test   %eax,%eax
    1647:	75 25                	jne    166e <vfs_node_delref+0xee>
    1649:	89 34 24             	mov    %esi,(%esp)
    164c:	e8 bf 3d 00 00       	call   5410 <vfs_exchange_release>
    1651:	89 5d 08             	mov    %ebx,0x8(%ebp)
    1654:	83 c4 30             	add    $0x30,%esp
    1657:	5b                   	pop    %ebx
    1658:	5e                   	pop    %esi
    1659:	5d                   	pop    %ebp
    165a:	e9 e1 11 01 00       	jmp    12840 <free>
    165f:	90                   	nop
    1660:	c7 04 24 34 48 02 00 	movl   $0x24834,(%esp)
    1667:	e8 d4 85 00 00       	call   9c40 <fibril_mutex_unlock>
    166c:	eb e3                	jmp    1651 <vfs_node_delref+0xd1>
    166e:	c7 44 24 08 8c 00 00 	movl   $0x8c,0x8(%esp)
    1675:	00 
    1676:	c7 44 24 04 b1 1d 02 	movl   $0x21db1,0x4(%esp)
    167d:	00 
    167e:	c7 04 24 bc 1d 02 00 	movl   $0x21dbc,(%esp)
    1685:	e8 86 b8 01 00       	call   1cf10 <assert_abort>
    168a:	8d b6 00 00 00 00    	lea    0x0(%esi),%esi

00001690 <vfs_node_forget>:
    1690:	55                   	push   %ebp
    1691:	89 e5                	mov    %esp,%ebp
    1693:	53                   	push   %ebx
    1694:	83 ec 14             	sub    $0x14,%esp
    1697:	8b 5d 08             	mov    0x8(%ebp),%ebx
    169a:	c7 04 24 34 48 02 00 	movl   $0x24834,(%esp)
    16a1:	e8 7a 84 00 00       	call   9b20 <fibril_mutex_lock>
    16a6:	8d 43 14             	lea    0x14(%ebx),%eax
    16a9:	89 44 24 04          	mov    %eax,0x4(%esp)
    16ad:	c7 04 24 b8 4a 02 00 	movl   $0x24ab8,(%esp)
    16b4:	e8 a7 75 01 00       	call   18c60 <hash_table_remove_item>
    16b9:	c7 04 24 34 48 02 00 	movl   $0x24834,(%esp)
    16c0:	e8 7b 85 00 00       	call   9c40 <fibril_mutex_unlock>
    16c5:	89 5d 08             	mov    %ebx,0x8(%ebp)
    16c8:	83 c4 14             	add    $0x14,%esp
    16cb:	5b                   	pop    %ebx
    16cc:	5d                   	pop    %ebp
    16cd:	e9 6e 11 01 00       	jmp    12840 <free>
    16d2:	8d b4 26 00 00 00 00 	lea    0x0(%esi,%eiz,1),%esi
    16d9:	8d bc 27 00 00 00 00 	lea    0x0(%edi,%eiz,1),%edi

000016e0 <vfs_node_get>:
    16e0:	55                   	push   %ebp
    16e1:	89 e5                	mov    %esp,%ebp
    16e3:	56                   	push   %esi
    16e4:	53                   	push   %ebx
    16e5:	83 ec 10             	sub    $0x10,%esp
    16e8:	8b 75 08             	mov    0x8(%ebp),%esi
    16eb:	c7 04 24 34 48 02 00 	movl   $0x24834,(%esp)
    16f2:	e8 29 84 00 00       	call   9b20 <fibril_mutex_lock>
    16f7:	89 74 24 04          	mov    %esi,0x4(%esp)
    16fb:	c7 04 24 b8 4a 02 00 	movl   $0x24ab8,(%esp)
    1702:	e8 d9 72 01 00       	call   189e0 <hash_table_find>
    1707:	85 c0                	test   %eax,%eax
    1709:	74 75                	je     1780 <vfs_node_get+0xa0>
    170b:	8d 58 ec             	lea    -0x14(%eax),%ebx
    170e:	8b 43 1c             	mov    0x1c(%ebx),%eax
    1711:	85 c0                	test   %eax,%eax
    1713:	74 5b                	je     1770 <vfs_node_get+0x90>
    1715:	8b 4e 14             	mov    0x14(%esi),%ecx
    1718:	8b 53 24             	mov    0x24(%ebx),%edx
    171b:	31 ca                	xor    %ecx,%edx
    171d:	8b 43 20             	mov    0x20(%ebx),%eax
    1720:	8b 4e 10             	mov    0x10(%esi),%ecx
    1723:	31 c8                	xor    %ecx,%eax
    1725:	09 c2                	or     %eax,%edx
    1727:	74 0a                	je     1733 <vfs_node_get+0x53>
    1729:	83 7b 1c 01          	cmpl   $0x1,0x1c(%ebx)
    172d:	0f 84 fb 00 00 00    	je     182e <vfs_node_get+0x14e>
    1733:	8b 56 18             	mov    0x18(%esi),%edx
    1736:	39 53 10             	cmp    %edx,0x10(%ebx)
    1739:	0f 85 b7 00 00 00    	jne    17f6 <vfs_node_get+0x116>
    173f:	8b 46 0c             	mov    0xc(%esi),%eax
    1742:	39 43 1c             	cmp    %eax,0x1c(%ebx)
    1745:	74 08                	je     174f <vfs_node_get+0x6f>
    1747:	85 c0                	test   %eax,%eax
    1749:	0f 85 c3 00 00 00    	jne    1812 <vfs_node_get+0x132>
    174f:	8b 43 0c             	mov    0xc(%ebx),%eax
    1752:	40                   	inc    %eax
    1753:	89 43 0c             	mov    %eax,0xc(%ebx)
    1756:	c7 04 24 34 48 02 00 	movl   $0x24834,(%esp)
    175d:	e8 de 84 00 00       	call   9c40 <fibril_mutex_unlock>
    1762:	83 c4 10             	add    $0x10,%esp
    1765:	89 d8                	mov    %ebx,%eax
    1767:	5b                   	pop    %ebx
    1768:	5e                   	pop    %esi
    1769:	5d                   	pop    %ebp
    176a:	c3                   	ret    
    176b:	90                   	nop
    176c:	8d 74 26 00          	lea    0x0(%esi,%eiz,1),%esi
    1770:	8b 46 0c             	mov    0xc(%esi),%eax
    1773:	85 c0                	test   %eax,%eax
    1775:	74 9e                	je     1715 <vfs_node_get+0x35>
    1777:	89 43 1c             	mov    %eax,0x1c(%ebx)
    177a:	eb 99                	jmp    1715 <vfs_node_get+0x35>
    177c:	8d 74 26 00          	lea    0x0(%esi,%eiz,1),%esi
    1780:	c7 04 24 3c 00 00 00 	movl   $0x3c,(%esp)
    1787:	e8 a4 0f 01 00       	call   12730 <malloc>
    178c:	89 c3                	mov    %eax,%ebx
    178e:	85 c0                	test   %eax,%eax
    1790:	74 c4                	je     1756 <vfs_node_get+0x76>
    1792:	c7 44 24 08 3c 00 00 	movl   $0x3c,0x8(%esp)
    1799:	00 
    179a:	c7 44 24 04 00 00 00 	movl   $0x0,0x4(%esp)
    17a1:	00 
    17a2:	89 04 24             	mov    %eax,(%esp)
    17a5:	e8 c6 41 00 00       	call   5970 <memset>
    17aa:	8b 06                	mov    (%esi),%eax
    17ac:	66 89 03             	mov    %ax,(%ebx)
    17af:	8b 46 04             	mov    0x4(%esi),%eax
    17b2:	89 43 04             	mov    %eax,0x4(%ebx)
    17b5:	8b 46 08             	mov    0x8(%esi),%eax
    17b8:	89 43 08             	mov    %eax,0x8(%ebx)
    17bb:	8b 46 10             	mov    0x10(%esi),%eax
    17be:	8b 56 14             	mov    0x14(%esi),%edx
    17c1:	89 43 20             	mov    %eax,0x20(%ebx)
    17c4:	8b 46 18             	mov    0x18(%esi),%eax
    17c7:	89 53 24             	mov    %edx,0x24(%ebx)
    17ca:	89 43 10             	mov    %eax,0x10(%ebx)
    17cd:	8b 46 0c             	mov    0xc(%esi),%eax
    17d0:	89 43 1c             	mov    %eax,0x1c(%ebx)
    17d3:	8d 43 28             	lea    0x28(%ebx),%eax
    17d6:	89 04 24             	mov    %eax,(%esp)
    17d9:	e8 b2 85 00 00       	call   9d90 <fibril_rwlock_initialize>
    17de:	8d 43 14             	lea    0x14(%ebx),%eax
    17e1:	89 44 24 04          	mov    %eax,0x4(%esp)
    17e5:	c7 04 24 b8 4a 02 00 	movl   $0x24ab8,(%esp)
    17ec:	e8 bf 6f 01 00       	call   187b0 <hash_table_insert>
    17f1:	e9 1f ff ff ff       	jmp    1715 <vfs_node_get+0x35>
    17f6:	c7 44 24 08 ce 00 00 	movl   $0xce,0x8(%esp)
    17fd:	00 
    17fe:	c7 44 24 04 b1 1d 02 	movl   $0x21db1,0x4(%esp)
    1805:	00 
    1806:	c7 04 24 04 1e 02 00 	movl   $0x21e04,(%esp)
    180d:	e8 fe b6 01 00       	call   1cf10 <assert_abort>
    1812:	c7 44 24 08 cf 00 00 	movl   $0xcf,0x8(%esp)
    1819:	00 
    181a:	c7 44 24 04 b1 1d 02 	movl   $0x21db1,0x4(%esp)
    1821:	00 
    1822:	c7 04 24 24 1e 02 00 	movl   $0x21e24,(%esp)
    1829:	e8 e2 b6 01 00       	call   1cf10 <assert_abort>
    182e:	c7 44 24 08 cd 00 00 	movl   $0xcd,0x8(%esp)
    1835:	00 
    1836:	c7 44 24 04 b1 1d 02 	movl   $0x21db1,0x4(%esp)
    183d:	00 
    183e:	c7 04 24 c8 1d 02 00 	movl   $0x21dc8,(%esp)
    1845:	e8 c6 b6 01 00       	call   1cf10 <assert_abort>
    184a:	8d b6 00 00 00 00    	lea    0x0(%esi),%esi

00001850 <vfs_node_put>:
    1850:	55                   	push   %ebp
    1851:	89 e5                	mov    %esp,%ebp
    1853:	5d                   	pop    %ebp
    1854:	e9 27 fd ff ff       	jmp    1580 <vfs_node_delref>
    1859:	8d b4 26 00 00 00 00 	lea    0x0(%esi,%eiz,1),%esi

00001860 <vfs_nodes_refcount_sum_get>:
    1860:	55                   	push   %ebp
    1861:	89 e5                	mov    %esp,%ebp
    1863:	83 ec 28             	sub    $0x28,%esp
    1866:	8b 45 08             	mov    0x8(%ebp),%eax
    1869:	c7 04 24 34 48 02 00 	movl   $0x24834,(%esp)
    1870:	66 89 45 f0          	mov    %ax,-0x10(%ebp)
    1874:	8b 45 0c             	mov    0xc(%ebp),%eax
    1877:	89 45 f4             	mov    %eax,-0xc(%ebp)
    187a:	c7 45 ec 00 00 00 00 	movl   $0x0,-0x14(%ebp)
    1881:	e8 9a 82 00 00       	call   9b20 <fibril_mutex_lock>
    1886:	8d 45 ec             	lea    -0x14(%ebp),%eax
    1889:	89 44 24 08          	mov    %eax,0x8(%esp)
    188d:	c7 44 24 04 30 14 00 	movl   $0x1430,0x4(%esp)
    1894:	00 
    1895:	c7 04 24 b8 4a 02 00 	movl   $0x24ab8,(%esp)
    189c:	e8 9f 74 01 00       	call   18d40 <hash_table_apply>
    18a1:	c7 04 24 34 48 02 00 	movl   $0x24834,(%esp)
    18a8:	e8 93 83 00 00       	call   9c40 <fibril_mutex_unlock>
    18ad:	8b 45 ec             	mov    -0x14(%ebp),%eax
    18b0:	c9                   	leave  
    18b1:	c3                   	ret    
    18b2:	8d b4 26 00 00 00 00 	lea    0x0(%esi,%eiz,1),%esi
    18b9:	8d bc 27 00 00 00 00 	lea    0x0(%edi,%eiz,1),%edi

000018c0 <vfs_open_node_remote>:
    18c0:	55                   	push   %ebp
    18c1:	89 e5                	mov    %esp,%ebp
    18c3:	56                   	push   %esi
    18c4:	53                   	push   %ebx
    18c5:	83 ec 50             	sub    $0x50,%esp
    18c8:	8b 5d 08             	mov    0x8(%ebp),%ebx
    18cb:	0f bf 03             	movswl (%ebx),%eax
    18ce:	89 04 24             	mov    %eax,(%esp)
    18d1:	e8 8a 3a 00 00       	call   5360 <vfs_exchange_grab>
    18d6:	c7 44 24 14 00 00 00 	movl   $0x0,0x14(%esp)
    18dd:	00 
    18de:	89 c6                	mov    %eax,%esi
    18e0:	8d 45 d4             	lea    -0x2c(%ebp),%eax
    18e3:	89 44 24 18          	mov    %eax,0x18(%esp)
    18e7:	c7 44 24 10 00 00 00 	movl   $0x0,0x10(%esp)
    18ee:	00 
    18ef:	8b 43 08             	mov    0x8(%ebx),%eax
    18f2:	89 44 24 0c          	mov    %eax,0xc(%esp)
    18f6:	8b 43 04             	mov    0x4(%ebx),%eax
    18f9:	89 34 24             	mov    %esi,(%esp)
    18fc:	89 44 24 08          	mov    %eax,0x8(%esp)
    1900:	c7 44 24 04 00 04 00 	movl   $0x400,0x4(%esp)
    1907:	00 
    1908:	e8 03 2d 01 00       	call   14610 <async_send_fast>
    190d:	89 34 24             	mov    %esi,(%esp)
    1910:	89 c3                	mov    %eax,%ebx
    1912:	e8 f9 3a 00 00       	call   5410 <vfs_exchange_release>
    1917:	8d 45 d0             	lea    -0x30(%ebp),%eax
    191a:	89 1c 24             	mov    %ebx,(%esp)
    191d:	89 44 24 04          	mov    %eax,0x4(%esp)
    1921:	e8 ba 2e 01 00       	call   147e0 <async_wait_for>
    1926:	8b 45 d0             	mov    -0x30(%ebp),%eax
    1929:	83 c4 50             	add    $0x50,%esp
    192c:	5b                   	pop    %ebx
    192d:	5e                   	pop    %esi
    192e:	5d                   	pop    %ebp
    192f:	c3                   	ret    

00001930 <_vfs_file_get>:
    1930:	55                   	push   %ebp
    1931:	89 e5                	mov    %esp,%ebp
    1933:	56                   	push   %esi
    1934:	53                   	push   %ebx
    1935:	89 c3                	mov    %eax,%ebx
    1937:	83 ec 10             	sub    $0x10,%esp
    193a:	89 d6                	mov    %edx,%esi
    193c:	89 04 24             	mov    %eax,(%esp)
    193f:	e8 dc 81 00 00       	call   9b20 <fibril_mutex_lock>
    1944:	8b 53 20             	mov    0x20(%ebx),%edx
    1947:	85 d2                	test   %edx,%edx
    1949:	74 45                	je     1990 <_vfs_file_get+0x60>
    194b:	89 1c 24             	mov    %ebx,(%esp)
    194e:	e8 ed 82 00 00       	call   9c40 <fibril_mutex_unlock>
    1953:	89 1c 24             	mov    %ebx,(%esp)
    1956:	e8 c5 81 00 00       	call   9b20 <fibril_mutex_lock>
    195b:	83 fe 7f             	cmp    $0x7f,%esi
    195e:	77 60                	ja     19c0 <_vfs_file_get+0x90>
    1960:	8b 43 20             	mov    0x20(%ebx),%eax
    1963:	8b 34 b0             	mov    (%eax,%esi,4),%esi
    1966:	85 f6                	test   %esi,%esi
    1968:	74 56                	je     19c0 <_vfs_file_get+0x90>
    196a:	89 1c 24             	mov    %ebx,(%esp)
    196d:	e8 de 83 00 00       	call   9d50 <fibril_mutex_is_locked>
    1972:	84 c0                	test   %al,%al
    1974:	74 56                	je     19cc <_vfs_file_get+0x9c>
    1976:	8b 46 14             	mov    0x14(%esi),%eax
    1979:	40                   	inc    %eax
    197a:	89 46 14             	mov    %eax,0x14(%esi)
    197d:	89 1c 24             	mov    %ebx,(%esp)
    1980:	e8 bb 82 00 00       	call   9c40 <fibril_mutex_unlock>
    1985:	83 c4 10             	add    $0x10,%esp
    1988:	89 f0                	mov    %esi,%eax
    198a:	5b                   	pop    %ebx
    198b:	5e                   	pop    %esi
    198c:	5d                   	pop    %ebp
    198d:	c3                   	ret    
    198e:	66 90                	xchg   %ax,%ax
    1990:	c7 04 24 00 02 00 00 	movl   $0x200,(%esp)
    1997:	e8 94 0d 01 00       	call   12730 <malloc>
    199c:	89 43 20             	mov    %eax,0x20(%ebx)
    199f:	85 c0                	test   %eax,%eax
    19a1:	74 1d                	je     19c0 <_vfs_file_get+0x90>
    19a3:	c7 44 24 08 00 02 00 	movl   $0x200,0x8(%esp)
    19aa:	00 
    19ab:	c7 44 24 04 00 00 00 	movl   $0x0,0x4(%esp)
    19b2:	00 
    19b3:	89 04 24             	mov    %eax,(%esp)
    19b6:	e8 b5 3f 00 00       	call   5970 <memset>
    19bb:	eb 8e                	jmp    194b <_vfs_file_get+0x1b>
    19bd:	8d 76 00             	lea    0x0(%esi),%esi
    19c0:	89 1c 24             	mov    %ebx,(%esp)
    19c3:	31 f6                	xor    %esi,%esi
    19c5:	e8 76 82 00 00       	call   9c40 <fibril_mutex_unlock>
    19ca:	eb b9                	jmp    1985 <_vfs_file_get+0x55>
    19cc:	e8 11 0d 00 00       	call   26e2 <vfs_file_addref.isra.0.part.1>
    19d1:	eb 0d                	jmp    19e0 <vfs_client_data_create>
    19d3:	90                   	nop
    19d4:	90                   	nop
    19d5:	90                   	nop
    19d6:	90                   	nop
    19d7:	90                   	nop
    19d8:	90                   	nop
    19d9:	90                   	nop
    19da:	90                   	nop
    19db:	90                   	nop
    19dc:	90                   	nop
    19dd:	90                   	nop
    19de:	90                   	nop
    19df:	90                   	nop

000019e0 <vfs_client_data_create>:
    19e0:	55                   	push   %ebp
    19e1:	89 e5                	mov    %esp,%ebp
    19e3:	53                   	push   %ebx
    19e4:	83 ec 14             	sub    $0x14,%esp
    19e7:	c7 04 24 24 00 00 00 	movl   $0x24,(%esp)
    19ee:	e8 3d 0d 01 00       	call   12730 <malloc>
    19f3:	89 c3                	mov    %eax,%ebx
    19f5:	85 c0                	test   %eax,%eax
    19f7:	74 23                	je     1a1c <vfs_client_data_create+0x3c>
    19f9:	89 04 24             	mov    %eax,(%esp)
    19fc:	e8 ff 80 00 00       	call   9b00 <fibril_mutex_initialize>
    1a01:	8d 43 10             	lea    0x10(%ebx),%eax
    1a04:	89 04 24             	mov    %eax,(%esp)
    1a07:	e8 84 87 00 00       	call   a190 <fibril_condvar_initialize>
    1a0c:	8d 43 18             	lea    0x18(%ebx),%eax
    1a0f:	89 43 18             	mov    %eax,0x18(%ebx)
    1a12:	89 43 1c             	mov    %eax,0x1c(%ebx)
    1a15:	c7 43 20 00 00 00 00 	movl   $0x0,0x20(%ebx)
    1a1c:	83 c4 14             	add    $0x14,%esp
    1a1f:	89 d8                	mov    %ebx,%eax
    1a21:	5b                   	pop    %ebx
    1a22:	5d                   	pop    %ebp
    1a23:	c3                   	ret    
    1a24:	8d b6 00 00 00 00    	lea    0x0(%esi),%esi
    1a2a:	8d bf 00 00 00 00    	lea    0x0(%edi),%edi

00001a30 <vfs_client_data_destroy>:
    1a30:	55                   	push   %ebp
    1a31:	89 e5                	mov    %esp,%ebp
    1a33:	57                   	push   %edi
    1a34:	56                   	push   %esi
    1a35:	53                   	push   %ebx
    1a36:	83 ec 6c             	sub    $0x6c,%esp
    1a39:	31 f6                	xor    %esi,%esi
    1a3b:	8b 5d 08             	mov    0x8(%ebp),%ebx
    1a3e:	8b 43 20             	mov    0x20(%ebx),%eax
    1a41:	85 c0                	test   %eax,%eax
    1a43:	75 2f                	jne    1a74 <vfs_client_data_destroy+0x44>
    1a45:	e9 86 01 00 00       	jmp    1bd0 <vfs_client_data_destroy+0x1a0>
    1a4a:	8d b6 00 00 00 00    	lea    0x0(%esi),%esi
    1a50:	8b 43 20             	mov    0x20(%ebx),%eax
    1a53:	c7 04 30 00 00 00 00 	movl   $0x0,(%eax,%esi,1)
    1a5a:	89 1c 24             	mov    %ebx,(%esp)
    1a5d:	e8 de 81 00 00       	call   9c40 <fibril_mutex_unlock>
    1a62:	8b 43 20             	mov    0x20(%ebx),%eax
    1a65:	83 c6 04             	add    $0x4,%esi
    1a68:	81 fe 00 02 00 00    	cmp    $0x200,%esi
    1a6e:	0f 84 14 01 00 00    	je     1b88 <vfs_client_data_destroy+0x158>
    1a74:	8b 3c 30             	mov    (%eax,%esi,1),%edi
    1a77:	85 ff                	test   %edi,%edi
    1a79:	74 ea                	je     1a65 <vfs_client_data_destroy+0x35>
    1a7b:	89 1c 24             	mov    %ebx,(%esp)
    1a7e:	e8 9d 80 00 00       	call   9b20 <fibril_mutex_lock>
    1a83:	8b 4b 20             	mov    0x20(%ebx),%ecx
    1a86:	85 c9                	test   %ecx,%ecx
    1a88:	0f 84 c2 00 00 00    	je     1b50 <vfs_client_data_destroy+0x120>
    1a8e:	89 1c 24             	mov    %ebx,(%esp)
    1a91:	e8 aa 81 00 00       	call   9c40 <fibril_mutex_unlock>
    1a96:	89 1c 24             	mov    %ebx,(%esp)
    1a99:	e8 82 80 00 00       	call   9b20 <fibril_mutex_lock>
    1a9e:	8b 43 20             	mov    0x20(%ebx),%eax
    1aa1:	8b 3c 30             	mov    (%eax,%esi,1),%edi
    1aa4:	89 1c 24             	mov    %ebx,(%esp)
    1aa7:	85 ff                	test   %edi,%edi
    1aa9:	74 b2                	je     1a5d <vfs_client_data_destroy+0x2d>
    1aab:	e8 a0 82 00 00       	call   9d50 <fibril_mutex_is_locked>
    1ab0:	84 c0                	test   %al,%al
    1ab2:	0f 84 28 01 00 00    	je     1be0 <vfs_client_data_destroy+0x1b0>
    1ab8:	8b 47 14             	mov    0x14(%edi),%eax
    1abb:	8d 50 ff             	lea    -0x1(%eax),%edx
    1abe:	48                   	dec    %eax
    1abf:	89 57 14             	mov    %edx,0x14(%edi)
    1ac2:	75 8c                	jne    1a50 <vfs_client_data_destroy+0x20>
    1ac4:	85 d2                	test   %edx,%edx
    1ac6:	0f 85 30 01 00 00    	jne    1bfc <vfs_client_data_destroy+0x1cc>
    1acc:	8b 47 10             	mov    0x10(%edi),%eax
    1acf:	0f bf 00             	movswl (%eax),%eax
    1ad2:	89 04 24             	mov    %eax,(%esp)
    1ad5:	e8 86 38 00 00       	call   5360 <vfs_exchange_grab>
    1ada:	8d 4d c4             	lea    -0x3c(%ebp),%ecx
    1add:	89 c2                	mov    %eax,%edx
    1adf:	8b 47 10             	mov    0x10(%edi),%eax
    1ae2:	89 4c 24 18          	mov    %ecx,0x18(%esp)
    1ae6:	c7 44 24 14 00 00 00 	movl   $0x0,0x14(%esp)
    1aed:	00 
    1aee:	c7 44 24 10 00 00 00 	movl   $0x0,0x10(%esp)
    1af5:	00 
    1af6:	8b 48 08             	mov    0x8(%eax),%ecx
    1af9:	89 4c 24 0c          	mov    %ecx,0xc(%esp)
    1afd:	8b 40 04             	mov    0x4(%eax),%eax
    1b00:	89 14 24             	mov    %edx,(%esp)
    1b03:	89 44 24 08          	mov    %eax,0x8(%esp)
    1b07:	c7 44 24 04 04 04 00 	movl   $0x404,0x4(%esp)
    1b0e:	00 
    1b0f:	89 55 b4             	mov    %edx,-0x4c(%ebp)
    1b12:	e8 f9 2a 01 00       	call   14610 <async_send_fast>
    1b17:	8b 55 b4             	mov    -0x4c(%ebp),%edx
    1b1a:	89 45 b4             	mov    %eax,-0x4c(%ebp)
    1b1d:	89 14 24             	mov    %edx,(%esp)
    1b20:	e8 eb 38 00 00       	call   5410 <vfs_exchange_release>
    1b25:	8d 55 c0             	lea    -0x40(%ebp),%edx
    1b28:	8b 45 b4             	mov    -0x4c(%ebp),%eax
    1b2b:	89 54 24 04          	mov    %edx,0x4(%esp)
    1b2f:	89 04 24             	mov    %eax,(%esp)
    1b32:	e8 a9 2c 01 00       	call   147e0 <async_wait_for>
    1b37:	8b 47 10             	mov    0x10(%edi),%eax
    1b3a:	89 04 24             	mov    %eax,(%esp)
    1b3d:	e8 3e fa ff ff       	call   1580 <vfs_node_delref>
    1b42:	89 3c 24             	mov    %edi,(%esp)
    1b45:	e8 f6 0c 01 00       	call   12840 <free>
    1b4a:	e9 01 ff ff ff       	jmp    1a50 <vfs_client_data_destroy+0x20>
    1b4f:	90                   	nop
    1b50:	c7 04 24 00 02 00 00 	movl   $0x200,(%esp)
    1b57:	e8 d4 0b 01 00       	call   12730 <malloc>
    1b5c:	89 43 20             	mov    %eax,0x20(%ebx)
    1b5f:	85 c0                	test   %eax,%eax
    1b61:	0f 84 f3 fe ff ff    	je     1a5a <vfs_client_data_destroy+0x2a>
    1b67:	c7 44 24 08 00 02 00 	movl   $0x200,0x8(%esp)
    1b6e:	00 
    1b6f:	c7 44 24 04 00 00 00 	movl   $0x0,0x4(%esp)
    1b76:	00 
    1b77:	89 04 24             	mov    %eax,(%esp)
    1b7a:	e8 f1 3d 00 00       	call   5970 <memset>
    1b7f:	e9 0a ff ff ff       	jmp    1a8e <vfs_client_data_destroy+0x5e>
    1b84:	8d 74 26 00          	lea    0x0(%esi,%eiz,1),%esi
    1b88:	89 04 24             	mov    %eax,(%esp)
    1b8b:	8d 73 18             	lea    0x18(%ebx),%esi
    1b8e:	e8 ad 0c 01 00       	call   12840 <free>
    1b93:	8b 43 1c             	mov    0x1c(%ebx),%eax
    1b96:	39 f0                	cmp    %esi,%eax
    1b98:	74 36                	je     1bd0 <vfs_client_data_destroy+0x1a0>
    1b9a:	8d b6 00 00 00 00    	lea    0x0(%esi),%esi
    1ba0:	8b 08                	mov    (%eax),%ecx
    1ba2:	85 c9                	test   %ecx,%ecx
    1ba4:	74 0e                	je     1bb4 <vfs_client_data_destroy+0x184>
    1ba6:	8b 50 04             	mov    0x4(%eax),%edx
    1ba9:	85 d2                	test   %edx,%edx
    1bab:	74 07                	je     1bb4 <vfs_client_data_destroy+0x184>
    1bad:	89 0a                	mov    %ecx,(%edx)
    1baf:	8b 08                	mov    (%eax),%ecx
    1bb1:	89 51 04             	mov    %edx,0x4(%ecx)
    1bb4:	c7 00 00 00 00 00    	movl   $0x0,(%eax)
    1bba:	c7 40 04 00 00 00 00 	movl   $0x0,0x4(%eax)
    1bc1:	89 04 24             	mov    %eax,(%esp)
    1bc4:	e8 77 0c 01 00       	call   12840 <free>
    1bc9:	8b 43 1c             	mov    0x1c(%ebx),%eax
    1bcc:	39 f0                	cmp    %esi,%eax
    1bce:	75 d0                	jne    1ba0 <vfs_client_data_destroy+0x170>
    1bd0:	89 1c 24             	mov    %ebx,(%esp)
    1bd3:	e8 68 0c 01 00       	call   12840 <free>
    1bd8:	83 c4 6c             	add    $0x6c,%esp
    1bdb:	5b                   	pop    %ebx
    1bdc:	5e                   	pop    %esi
    1bdd:	5f                   	pop    %edi
    1bde:	5d                   	pop    %ebp
    1bdf:	c3                   	ret    
    1be0:	c7 44 24 08 ac 00 00 	movl   $0xac,0x8(%esp)
    1be7:	00 
    1be8:	c7 44 24 04 63 1e 02 	movl   $0x21e63,0x4(%esp)
    1bef:	00 
    1bf0:	c7 04 24 90 1e 02 00 	movl   $0x21e90,(%esp)
    1bf7:	e8 14 b3 01 00       	call   1cf10 <assert_abort>
    1bfc:	c7 44 24 08 87 00 00 	movl   $0x87,0x8(%esp)
    1c03:	00 
    1c04:	c7 44 24 04 63 1e 02 	movl   $0x21e63,0x4(%esp)
    1c0b:	00 
    1c0c:	c7 04 24 6e 1e 02 00 	movl   $0x21e6e,(%esp)
    1c13:	e8 f8 b2 01 00       	call   1cf10 <assert_abort>
    1c18:	90                   	nop
    1c19:	8d b4 26 00 00 00 00 	lea    0x0(%esi,%eiz,1),%esi

00001c20 <vfs_fd_alloc>:
    1c20:	55                   	push   %ebp
    1c21:	89 e5                	mov    %esp,%ebp
    1c23:	57                   	push   %edi
    1c24:	56                   	push   %esi
    1c25:	53                   	push   %ebx
    1c26:	83 ec 2c             	sub    $0x2c,%esp
    1c29:	8a 5d 08             	mov    0x8(%ebp),%bl
    1c2c:	e8 2f 22 01 00       	call   13e60 <async_get_client_data>
    1c31:	89 04 24             	mov    %eax,(%esp)
    1c34:	89 45 e4             	mov    %eax,-0x1c(%ebp)
    1c37:	e8 e4 7e 00 00       	call   9b20 <fibril_mutex_lock>
    1c3c:	8b 4d e4             	mov    -0x1c(%ebp),%ecx
    1c3f:	8b 41 20             	mov    0x20(%ecx),%eax
    1c42:	85 c0                	test   %eax,%eax
    1c44:	0f 84 3e 01 00 00    	je     1d88 <vfs_fd_alloc+0x168>
    1c4a:	89 0c 24             	mov    %ecx,(%esp)
    1c4d:	89 4d e4             	mov    %ecx,-0x1c(%ebp)
    1c50:	e8 eb 7f 00 00       	call   9c40 <fibril_mutex_unlock>
    1c55:	84 db                	test   %bl,%bl
    1c57:	8b 4d e4             	mov    -0x1c(%ebp),%ecx
    1c5a:	0f 84 c8 00 00 00    	je     1d28 <vfs_fd_alloc+0x108>
    1c60:	89 0c 24             	mov    %ecx,(%esp)
    1c63:	89 4d e4             	mov    %ecx,-0x1c(%ebp)
    1c66:	e8 b5 7e 00 00       	call   9b20 <fibril_mutex_lock>
    1c6b:	8b 4d e4             	mov    -0x1c(%ebp),%ecx
    1c6e:	8b 51 20             	mov    0x20(%ecx),%edx
    1c71:	bb 7f 00 00 00       	mov    $0x7f,%ebx
    1c76:	8d 82 fc 01 00 00    	lea    0x1fc(%edx),%eax
    1c7c:	89 c6                	mov    %eax,%esi
    1c7e:	89 c7                	mov    %eax,%edi
    1c80:	29 d6                	sub    %edx,%esi
    1c82:	83 38 00             	cmpl   $0x0,(%eax)
    1c85:	74 18                	je     1c9f <vfs_fd_alloc+0x7f>
    1c87:	90                   	nop
    1c88:	85 db                	test   %ebx,%ebx
    1c8a:	0f 84 e0 00 00 00    	je     1d70 <vfs_fd_alloc+0x150>
    1c90:	83 e8 04             	sub    $0x4,%eax
    1c93:	4b                   	dec    %ebx
    1c94:	89 c6                	mov    %eax,%esi
    1c96:	89 c7                	mov    %eax,%edi
    1c98:	29 d6                	sub    %edx,%esi
    1c9a:	83 38 00             	cmpl   $0x0,(%eax)
    1c9d:	75 e9                	jne    1c88 <vfs_fd_alloc+0x68>
    1c9f:	c7 04 24 24 00 00 00 	movl   $0x24,(%esp)
    1ca6:	89 4d e4             	mov    %ecx,-0x1c(%ebp)
    1ca9:	e8 82 0a 01 00       	call   12730 <malloc>
    1cae:	8b 4d e4             	mov    -0x1c(%ebp),%ecx
    1cb1:	89 07                	mov    %eax,(%edi)
    1cb3:	8b 41 20             	mov    0x20(%ecx),%eax
    1cb6:	8b 04 30             	mov    (%eax,%esi,1),%eax
    1cb9:	85 c0                	test   %eax,%eax
    1cbb:	0f 84 00 01 00 00    	je     1dc1 <vfs_fd_alloc+0x1a1>
    1cc1:	c7 44 24 08 24 00 00 	movl   $0x24,0x8(%esp)
    1cc8:	00 
    1cc9:	c7 44 24 04 00 00 00 	movl   $0x0,0x4(%esp)
    1cd0:	00 
    1cd1:	89 04 24             	mov    %eax,(%esp)
    1cd4:	89 4d e4             	mov    %ecx,-0x1c(%ebp)
    1cd7:	e8 94 3c 00 00       	call   5970 <memset>
    1cdc:	8b 4d e4             	mov    -0x1c(%ebp),%ecx
    1cdf:	8b 41 20             	mov    0x20(%ecx),%eax
    1ce2:	8b 04 30             	mov    (%eax,%esi,1),%eax
    1ce5:	89 04 24             	mov    %eax,(%esp)
    1ce8:	e8 13 7e 00 00       	call   9b00 <fibril_mutex_initialize>
    1ced:	8b 4d e4             	mov    -0x1c(%ebp),%ecx
    1cf0:	8b 41 20             	mov    0x20(%ecx),%eax
    1cf3:	8b 34 30             	mov    (%eax,%esi,1),%esi
    1cf6:	89 0c 24             	mov    %ecx,(%esp)
    1cf9:	e8 52 80 00 00       	call   9d50 <fibril_mutex_is_locked>
    1cfe:	8b 4d e4             	mov    -0x1c(%ebp),%ecx
    1d01:	84 c0                	test   %al,%al
    1d03:	0f 84 ca 00 00 00    	je     1dd3 <vfs_fd_alloc+0x1b3>
    1d09:	8b 46 14             	mov    0x14(%esi),%eax
    1d0c:	40                   	inc    %eax
    1d0d:	89 46 14             	mov    %eax,0x14(%esi)
    1d10:	89 0c 24             	mov    %ecx,(%esp)
    1d13:	e8 28 7f 00 00       	call   9c40 <fibril_mutex_unlock>
    1d18:	89 d8                	mov    %ebx,%eax
    1d1a:	83 c4 2c             	add    $0x2c,%esp
    1d1d:	5b                   	pop    %ebx
    1d1e:	5e                   	pop    %esi
    1d1f:	5f                   	pop    %edi
    1d20:	5d                   	pop    %ebp
    1d21:	c3                   	ret    
    1d22:	8d b6 00 00 00 00    	lea    0x0(%esi),%esi
    1d28:	89 0c 24             	mov    %ecx,(%esp)
    1d2b:	89 4d e4             	mov    %ecx,-0x1c(%ebp)
    1d2e:	e8 ed 7d 00 00       	call   9b20 <fibril_mutex_lock>
    1d33:	8b 4d e4             	mov    -0x1c(%ebp),%ecx
    1d36:	8b 41 20             	mov    0x20(%ecx),%eax
    1d39:	31 db                	xor    %ebx,%ebx
    1d3b:	89 c2                	mov    %eax,%edx
    1d3d:	89 d6                	mov    %edx,%esi
    1d3f:	89 d7                	mov    %edx,%edi
    1d41:	29 c6                	sub    %eax,%esi
    1d43:	83 3a 00             	cmpl   $0x0,(%edx)
    1d46:	0f 84 53 ff ff ff    	je     1c9f <vfs_fd_alloc+0x7f>
    1d4c:	83 fb 7f             	cmp    $0x7f,%ebx
    1d4f:	74 1f                	je     1d70 <vfs_fd_alloc+0x150>
    1d51:	8d b4 26 00 00 00 00 	lea    0x0(%esi,%eiz,1),%esi
    1d58:	83 c2 04             	add    $0x4,%edx
    1d5b:	43                   	inc    %ebx
    1d5c:	89 d6                	mov    %edx,%esi
    1d5e:	89 d7                	mov    %edx,%edi
    1d60:	29 c6                	sub    %eax,%esi
    1d62:	83 3a 00             	cmpl   $0x0,(%edx)
    1d65:	0f 84 34 ff ff ff    	je     1c9f <vfs_fd_alloc+0x7f>
    1d6b:	83 fb 7f             	cmp    $0x7f,%ebx
    1d6e:	75 e8                	jne    1d58 <vfs_fd_alloc+0x138>
    1d70:	89 0c 24             	mov    %ecx,(%esp)
    1d73:	e8 c8 7e 00 00       	call   9c40 <fibril_mutex_unlock>
    1d78:	83 c4 2c             	add    $0x2c,%esp
    1d7b:	b8 ee ff ff ff       	mov    $0xffffffee,%eax
    1d80:	5b                   	pop    %ebx
    1d81:	5e                   	pop    %esi
    1d82:	5f                   	pop    %edi
    1d83:	5d                   	pop    %ebp
    1d84:	c3                   	ret    
    1d85:	8d 76 00             	lea    0x0(%esi),%esi
    1d88:	c7 04 24 00 02 00 00 	movl   $0x200,(%esp)
    1d8f:	e8 9c 09 01 00       	call   12730 <malloc>
    1d94:	8b 4d e4             	mov    -0x1c(%ebp),%ecx
    1d97:	85 c0                	test   %eax,%eax
    1d99:	89 41 20             	mov    %eax,0x20(%ecx)
    1d9c:	74 23                	je     1dc1 <vfs_fd_alloc+0x1a1>
    1d9e:	c7 44 24 08 00 02 00 	movl   $0x200,0x8(%esp)
    1da5:	00 
    1da6:	c7 44 24 04 00 00 00 	movl   $0x0,0x4(%esp)
    1dad:	00 
    1dae:	89 04 24             	mov    %eax,(%esp)
    1db1:	89 4d e4             	mov    %ecx,-0x1c(%ebp)
    1db4:	e8 b7 3b 00 00       	call   5970 <memset>
    1db9:	8b 4d e4             	mov    -0x1c(%ebp),%ecx
    1dbc:	e9 89 fe ff ff       	jmp    1c4a <vfs_fd_alloc+0x2a>
    1dc1:	89 0c 24             	mov    %ecx,(%esp)
    1dc4:	e8 77 7e 00 00       	call   9c40 <fibril_mutex_unlock>
    1dc9:	b8 fe ff ff ff       	mov    $0xfffffffe,%eax
    1dce:	e9 47 ff ff ff       	jmp    1d1a <vfs_fd_alloc+0xfa>
    1dd3:	e8 0a 09 00 00       	call   26e2 <vfs_file_addref.isra.0.part.1>
    1dd8:	90                   	nop
    1dd9:	8d b4 26 00 00 00 00 	lea    0x0(%esi,%eiz,1),%esi

00001de0 <vfs_fd_free>:
    1de0:	55                   	push   %ebp
    1de1:	89 e5                	mov    %esp,%ebp
    1de3:	57                   	push   %edi
    1de4:	56                   	push   %esi
    1de5:	53                   	push   %ebx
    1de6:	83 ec 6c             	sub    $0x6c,%esp
    1de9:	e8 72 20 01 00       	call   13e60 <async_get_client_data>
    1dee:	89 c3                	mov    %eax,%ebx
    1df0:	89 04 24             	mov    %eax,(%esp)
    1df3:	e8 28 7d 00 00       	call   9b20 <fibril_mutex_lock>
    1df8:	8b 53 20             	mov    0x20(%ebx),%edx
    1dfb:	85 d2                	test   %edx,%edx
    1dfd:	0f 84 05 01 00 00    	je     1f08 <vfs_fd_free+0x128>
    1e03:	89 1c 24             	mov    %ebx,(%esp)
    1e06:	e8 35 7e 00 00       	call   9c40 <fibril_mutex_unlock>
    1e0b:	89 1c 24             	mov    %ebx,(%esp)
    1e0e:	e8 0d 7d 00 00       	call   9b20 <fibril_mutex_lock>
    1e13:	83 7d 08 7f          	cmpl   $0x7f,0x8(%ebp)
    1e17:	0f 87 1b 01 00 00    	ja     1f38 <vfs_fd_free+0x158>
    1e1d:	8b 7d 08             	mov    0x8(%ebp),%edi
    1e20:	8b 43 20             	mov    0x20(%ebx),%eax
    1e23:	c1 e7 02             	shl    $0x2,%edi
    1e26:	8b 34 38             	mov    (%eax,%edi,1),%esi
    1e29:	85 f6                	test   %esi,%esi
    1e2b:	0f 84 07 01 00 00    	je     1f38 <vfs_fd_free+0x158>
    1e31:	89 1c 24             	mov    %ebx,(%esp)
    1e34:	e8 17 7f 00 00       	call   9d50 <fibril_mutex_is_locked>
    1e39:	84 c0                	test   %al,%al
    1e3b:	0f 84 21 01 00 00    	je     1f62 <vfs_fd_free+0x182>
    1e41:	8b 56 14             	mov    0x14(%esi),%edx
    1e44:	31 c0                	xor    %eax,%eax
    1e46:	8d 4a ff             	lea    -0x1(%edx),%ecx
    1e49:	4a                   	dec    %edx
    1e4a:	89 4e 14             	mov    %ecx,0x14(%esi)
    1e4d:	74 21                	je     1e70 <vfs_fd_free+0x90>
    1e4f:	8b 53 20             	mov    0x20(%ebx),%edx
    1e52:	c7 04 3a 00 00 00 00 	movl   $0x0,(%edx,%edi,1)
    1e59:	89 1c 24             	mov    %ebx,(%esp)
    1e5c:	89 45 b4             	mov    %eax,-0x4c(%ebp)
    1e5f:	e8 dc 7d 00 00       	call   9c40 <fibril_mutex_unlock>
    1e64:	8b 45 b4             	mov    -0x4c(%ebp),%eax
    1e67:	83 c4 6c             	add    $0x6c,%esp
    1e6a:	5b                   	pop    %ebx
    1e6b:	5e                   	pop    %esi
    1e6c:	5f                   	pop    %edi
    1e6d:	5d                   	pop    %ebp
    1e6e:	c3                   	ret    
    1e6f:	90                   	nop
    1e70:	85 c9                	test   %ecx,%ecx
    1e72:	0f 85 06 01 00 00    	jne    1f7e <vfs_fd_free+0x19e>
    1e78:	8b 46 10             	mov    0x10(%esi),%eax
    1e7b:	0f bf 00             	movswl (%eax),%eax
    1e7e:	89 04 24             	mov    %eax,(%esp)
    1e81:	e8 da 34 00 00       	call   5360 <vfs_exchange_grab>
    1e86:	8d 4d c4             	lea    -0x3c(%ebp),%ecx
    1e89:	89 c2                	mov    %eax,%edx
    1e8b:	8b 46 10             	mov    0x10(%esi),%eax
    1e8e:	89 4c 24 18          	mov    %ecx,0x18(%esp)
    1e92:	c7 44 24 14 00 00 00 	movl   $0x0,0x14(%esp)
    1e99:	00 
    1e9a:	c7 44 24 10 00 00 00 	movl   $0x0,0x10(%esp)
    1ea1:	00 
    1ea2:	8b 48 08             	mov    0x8(%eax),%ecx
    1ea5:	89 4c 24 0c          	mov    %ecx,0xc(%esp)
    1ea9:	8b 40 04             	mov    0x4(%eax),%eax
    1eac:	89 14 24             	mov    %edx,(%esp)
    1eaf:	89 44 24 08          	mov    %eax,0x8(%esp)
    1eb3:	c7 44 24 04 04 04 00 	movl   $0x404,0x4(%esp)
    1eba:	00 
    1ebb:	89 55 b4             	mov    %edx,-0x4c(%ebp)
    1ebe:	e8 4d 27 01 00       	call   14610 <async_send_fast>
    1ec3:	8b 55 b4             	mov    -0x4c(%ebp),%edx
    1ec6:	89 45 b4             	mov    %eax,-0x4c(%ebp)
    1ec9:	89 14 24             	mov    %edx,(%esp)
    1ecc:	e8 3f 35 00 00       	call   5410 <vfs_exchange_release>
    1ed1:	8d 55 c0             	lea    -0x40(%ebp),%edx
    1ed4:	8b 45 b4             	mov    -0x4c(%ebp),%eax
    1ed7:	89 54 24 04          	mov    %edx,0x4(%esp)
    1edb:	89 04 24             	mov    %eax,(%esp)
    1ede:	e8 fd 28 01 00       	call   147e0 <async_wait_for>
    1ee3:	8b 56 10             	mov    0x10(%esi),%edx
    1ee6:	8b 45 c8             	mov    -0x38(%ebp),%eax
    1ee9:	89 14 24             	mov    %edx,(%esp)
    1eec:	89 45 b4             	mov    %eax,-0x4c(%ebp)
    1eef:	e8 8c f6 ff ff       	call   1580 <vfs_node_delref>
    1ef4:	89 34 24             	mov    %esi,(%esp)
    1ef7:	e8 44 09 01 00       	call   12840 <free>
    1efc:	8b 45 b4             	mov    -0x4c(%ebp),%eax
    1eff:	e9 4b ff ff ff       	jmp    1e4f <vfs_fd_free+0x6f>
    1f04:	8d 74 26 00          	lea    0x0(%esi,%eiz,1),%esi
    1f08:	c7 04 24 00 02 00 00 	movl   $0x200,(%esp)
    1f0f:	e8 1c 08 01 00       	call   12730 <malloc>
    1f14:	89 43 20             	mov    %eax,0x20(%ebx)
    1f17:	85 c0                	test   %eax,%eax
    1f19:	74 35                	je     1f50 <vfs_fd_free+0x170>
    1f1b:	c7 44 24 08 00 02 00 	movl   $0x200,0x8(%esp)
    1f22:	00 
    1f23:	c7 44 24 04 00 00 00 	movl   $0x0,0x4(%esp)
    1f2a:	00 
    1f2b:	89 04 24             	mov    %eax,(%esp)
    1f2e:	e8 3d 3a 00 00       	call   5970 <memset>
    1f33:	e9 cb fe ff ff       	jmp    1e03 <vfs_fd_free+0x23>
    1f38:	89 1c 24             	mov    %ebx,(%esp)
    1f3b:	e8 00 7d 00 00       	call   9c40 <fibril_mutex_unlock>
    1f40:	b8 fa fe ff ff       	mov    $0xfffffefa,%eax
    1f45:	e9 1d ff ff ff       	jmp    1e67 <vfs_fd_free+0x87>
    1f4a:	8d b6 00 00 00 00    	lea    0x0(%esi),%esi
    1f50:	89 1c 24             	mov    %ebx,(%esp)
    1f53:	e8 e8 7c 00 00       	call   9c40 <fibril_mutex_unlock>
    1f58:	b8 fe ff ff ff       	mov    $0xfffffffe,%eax
    1f5d:	e9 05 ff ff ff       	jmp    1e67 <vfs_fd_free+0x87>
    1f62:	c7 44 24 08 ac 00 00 	movl   $0xac,0x8(%esp)
    1f69:	00 
    1f6a:	c7 44 24 04 63 1e 02 	movl   $0x21e63,0x4(%esp)
    1f71:	00 
    1f72:	c7 04 24 90 1e 02 00 	movl   $0x21e90,(%esp)
    1f79:	e8 92 af 01 00       	call   1cf10 <assert_abort>
    1f7e:	c7 44 24 08 87 00 00 	movl   $0x87,0x8(%esp)
    1f85:	00 
    1f86:	c7 44 24 04 63 1e 02 	movl   $0x21e63,0x4(%esp)
    1f8d:	00 
    1f8e:	c7 04 24 6e 1e 02 00 	movl   $0x21e6e,(%esp)
    1f95:	e8 76 af 01 00       	call   1cf10 <assert_abort>
    1f9a:	8d b6 00 00 00 00    	lea    0x0(%esi),%esi

00001fa0 <vfs_fd_assign>:
    1fa0:	55                   	push   %ebp
    1fa1:	89 e5                	mov    %esp,%ebp
    1fa3:	53                   	push   %ebx
    1fa4:	83 ec 14             	sub    $0x14,%esp
    1fa7:	e8 b4 1e 01 00       	call   13e60 <async_get_client_data>
    1fac:	89 c3                	mov    %eax,%ebx
    1fae:	89 04 24             	mov    %eax,(%esp)
    1fb1:	e8 6a 7b 00 00       	call   9b20 <fibril_mutex_lock>
    1fb6:	8b 43 20             	mov    0x20(%ebx),%eax
    1fb9:	85 c0                	test   %eax,%eax
    1fbb:	0f 84 8f 00 00 00    	je     2050 <vfs_fd_assign+0xb0>
    1fc1:	89 1c 24             	mov    %ebx,(%esp)
    1fc4:	e8 77 7c 00 00       	call   9c40 <fibril_mutex_unlock>
    1fc9:	e8 92 1e 01 00       	call   13e60 <async_get_client_data>
    1fce:	89 04 24             	mov    %eax,(%esp)
    1fd1:	e8 4a 7b 00 00       	call   9b20 <fibril_mutex_lock>
    1fd6:	83 7d 0c 7f          	cmpl   $0x7f,0xc(%ebp)
    1fda:	77 5c                	ja     2038 <vfs_fd_assign+0x98>
    1fdc:	e8 7f 1e 01 00       	call   13e60 <async_get_client_data>
    1fe1:	8b 5d 0c             	mov    0xc(%ebp),%ebx
    1fe4:	c1 e3 02             	shl    $0x2,%ebx
    1fe7:	8b 40 20             	mov    0x20(%eax),%eax
    1fea:	8b 04 18             	mov    (%eax,%ebx,1),%eax
    1fed:	85 c0                	test   %eax,%eax
    1fef:	75 47                	jne    2038 <vfs_fd_assign+0x98>
    1ff1:	e8 6a 1e 01 00       	call   13e60 <async_get_client_data>
    1ff6:	8b 55 08             	mov    0x8(%ebp),%edx
    1ff9:	8b 40 20             	mov    0x20(%eax),%eax
    1ffc:	89 14 18             	mov    %edx,(%eax,%ebx,1)
    1fff:	e8 5c 1e 01 00       	call   13e60 <async_get_client_data>
    2004:	8b 40 20             	mov    0x20(%eax),%eax
    2007:	8b 1c 18             	mov    (%eax,%ebx,1),%ebx
    200a:	e8 51 1e 01 00       	call   13e60 <async_get_client_data>
    200f:	89 04 24             	mov    %eax,(%esp)
    2012:	e8 39 7d 00 00       	call   9d50 <fibril_mutex_is_locked>
    2017:	84 c0                	test   %al,%al
    2019:	74 74                	je     208f <vfs_fd_assign+0xef>
    201b:	8b 4b 14             	mov    0x14(%ebx),%ecx
    201e:	41                   	inc    %ecx
    201f:	89 4b 14             	mov    %ecx,0x14(%ebx)
    2022:	e8 39 1e 01 00       	call   13e60 <async_get_client_data>
    2027:	89 04 24             	mov    %eax,(%esp)
    202a:	e8 11 7c 00 00       	call   9c40 <fibril_mutex_unlock>
    202f:	31 c0                	xor    %eax,%eax
    2031:	83 c4 14             	add    $0x14,%esp
    2034:	5b                   	pop    %ebx
    2035:	5d                   	pop    %ebp
    2036:	c3                   	ret    
    2037:	90                   	nop
    2038:	e8 23 1e 01 00       	call   13e60 <async_get_client_data>
    203d:	89 04 24             	mov    %eax,(%esp)
    2040:	e8 fb 7b 00 00       	call   9c40 <fibril_mutex_unlock>
    2045:	83 c4 14             	add    $0x14,%esp
    2048:	b8 f2 ff ff ff       	mov    $0xfffffff2,%eax
    204d:	5b                   	pop    %ebx
    204e:	5d                   	pop    %ebp
    204f:	c3                   	ret    
    2050:	c7 04 24 00 02 00 00 	movl   $0x200,(%esp)
    2057:	e8 d4 06 01 00       	call   12730 <malloc>
    205c:	89 43 20             	mov    %eax,0x20(%ebx)
    205f:	85 c0                	test   %eax,%eax
    2061:	74 1d                	je     2080 <vfs_fd_assign+0xe0>
    2063:	c7 44 24 08 00 02 00 	movl   $0x200,0x8(%esp)
    206a:	00 
    206b:	c7 44 24 04 00 00 00 	movl   $0x0,0x4(%esp)
    2072:	00 
    2073:	89 04 24             	mov    %eax,(%esp)
    2076:	e8 f5 38 00 00       	call   5970 <memset>
    207b:	e9 41 ff ff ff       	jmp    1fc1 <vfs_fd_assign+0x21>
    2080:	89 1c 24             	mov    %ebx,(%esp)
    2083:	e8 b8 7b 00 00       	call   9c40 <fibril_mutex_unlock>
    2088:	b8 fe ff ff ff       	mov    $0xfffffffe,%eax
    208d:	eb a2                	jmp    2031 <vfs_fd_assign+0x91>
    208f:	e8 4e 06 00 00       	call   26e2 <vfs_file_addref.isra.0.part.1>
    2094:	8d b6 00 00 00 00    	lea    0x0(%esi),%esi
    209a:	8d bf 00 00 00 00    	lea    0x0(%edi),%edi

000020a0 <vfs_file_get>:
    20a0:	55                   	push   %ebp
    20a1:	89 e5                	mov    %esp,%ebp
    20a3:	53                   	push   %ebx
    20a4:	50                   	push   %eax
    20a5:	8b 5d 08             	mov    0x8(%ebp),%ebx
    20a8:	e8 b3 1d 01 00       	call   13e60 <async_get_client_data>
    20ad:	89 da                	mov    %ebx,%edx
    20af:	59                   	pop    %ecx
    20b0:	5b                   	pop    %ebx
    20b1:	5d                   	pop    %ebp
    20b2:	e9 79 f8 ff ff       	jmp    1930 <_vfs_file_get>
    20b7:	89 f6                	mov    %esi,%esi
    20b9:	8d bc 27 00 00 00 00 	lea    0x0(%edi,%eiz,1),%edi

000020c0 <vfs_file_put>:
    20c0:	55                   	push   %ebp
    20c1:	89 e5                	mov    %esp,%ebp
    20c3:	57                   	push   %edi
    20c4:	56                   	push   %esi
    20c5:	53                   	push   %ebx
    20c6:	83 ec 6c             	sub    $0x6c,%esp
    20c9:	8b 75 08             	mov    0x8(%ebp),%esi
    20cc:	e8 8f 1d 01 00       	call   13e60 <async_get_client_data>
    20d1:	89 c3                	mov    %eax,%ebx
    20d3:	89 04 24             	mov    %eax,(%esp)
    20d6:	e8 45 7a 00 00       	call   9b20 <fibril_mutex_lock>
    20db:	89 1c 24             	mov    %ebx,(%esp)
    20de:	e8 6d 7c 00 00       	call   9d50 <fibril_mutex_is_locked>
    20e3:	84 c0                	test   %al,%al
    20e5:	0f 84 ad 00 00 00    	je     2198 <vfs_file_put+0xd8>
    20eb:	8b 46 14             	mov    0x14(%esi),%eax
    20ee:	8d 50 ff             	lea    -0x1(%eax),%edx
    20f1:	48                   	dec    %eax
    20f2:	89 56 14             	mov    %edx,0x14(%esi)
    20f5:	74 11                	je     2108 <vfs_file_put+0x48>
    20f7:	89 1c 24             	mov    %ebx,(%esp)
    20fa:	e8 41 7b 00 00       	call   9c40 <fibril_mutex_unlock>
    20ff:	83 c4 6c             	add    $0x6c,%esp
    2102:	5b                   	pop    %ebx
    2103:	5e                   	pop    %esi
    2104:	5f                   	pop    %edi
    2105:	5d                   	pop    %ebp
    2106:	c3                   	ret    
    2107:	90                   	nop
    2108:	85 d2                	test   %edx,%edx
    210a:	0f 85 a4 00 00 00    	jne    21b4 <vfs_file_put+0xf4>
    2110:	8b 46 10             	mov    0x10(%esi),%eax
    2113:	0f bf 00             	movswl (%eax),%eax
    2116:	89 04 24             	mov    %eax,(%esp)
    2119:	e8 42 32 00 00       	call   5360 <vfs_exchange_grab>
    211e:	8d 55 c4             	lea    -0x3c(%ebp),%edx
    2121:	89 c7                	mov    %eax,%edi
    2123:	8b 46 10             	mov    0x10(%esi),%eax
    2126:	89 54 24 18          	mov    %edx,0x18(%esp)
    212a:	c7 44 24 14 00 00 00 	movl   $0x0,0x14(%esp)
    2131:	00 
    2132:	c7 44 24 10 00 00 00 	movl   $0x0,0x10(%esp)
    2139:	00 
    213a:	8b 50 08             	mov    0x8(%eax),%edx
    213d:	89 54 24 0c          	mov    %edx,0xc(%esp)
    2141:	8b 40 04             	mov    0x4(%eax),%eax
    2144:	89 3c 24             	mov    %edi,(%esp)
    2147:	89 44 24 08          	mov    %eax,0x8(%esp)
    214b:	c7 44 24 04 04 04 00 	movl   $0x404,0x4(%esp)
    2152:	00 
    2153:	e8 b8 24 01 00       	call   14610 <async_send_fast>
    2158:	89 3c 24             	mov    %edi,(%esp)
    215b:	89 45 b4             	mov    %eax,-0x4c(%ebp)
    215e:	e8 ad 32 00 00       	call   5410 <vfs_exchange_release>
    2163:	8d 55 c0             	lea    -0x40(%ebp),%edx
    2166:	8b 45 b4             	mov    -0x4c(%ebp),%eax
    2169:	89 54 24 04          	mov    %edx,0x4(%esp)
    216d:	89 04 24             	mov    %eax,(%esp)
    2170:	e8 6b 26 01 00       	call   147e0 <async_wait_for>
    2175:	8b 46 10             	mov    0x10(%esi),%eax
    2178:	89 04 24             	mov    %eax,(%esp)
    217b:	e8 00 f4 ff ff       	call   1580 <vfs_node_delref>
    2180:	89 34 24             	mov    %esi,(%esp)
    2183:	e8 b8 06 01 00       	call   12840 <free>
    2188:	89 1c 24             	mov    %ebx,(%esp)
    218b:	e8 b0 7a 00 00       	call   9c40 <fibril_mutex_unlock>
    2190:	83 c4 6c             	add    $0x6c,%esp
    2193:	5b                   	pop    %ebx
    2194:	5e                   	pop    %esi
    2195:	5f                   	pop    %edi
    2196:	5d                   	pop    %ebp
    2197:	c3                   	ret    
    2198:	c7 44 24 08 ac 00 00 	movl   $0xac,0x8(%esp)
    219f:	00 
    21a0:	c7 44 24 04 63 1e 02 	movl   $0x21e63,0x4(%esp)
    21a7:	00 
    21a8:	c7 04 24 90 1e 02 00 	movl   $0x21e90,(%esp)
    21af:	e8 5c ad 01 00       	call   1cf10 <assert_abort>
    21b4:	c7 44 24 08 87 00 00 	movl   $0x87,0x8(%esp)
    21bb:	00 
    21bc:	c7 44 24 04 63 1e 02 	movl   $0x21e63,0x4(%esp)
    21c3:	00 
    21c4:	c7 04 24 6e 1e 02 00 	movl   $0x21e6e,(%esp)
    21cb:	e8 40 ad 01 00       	call   1cf10 <assert_abort>

000021d0 <vfs_pass_handle>:
    21d0:	55                   	push   %ebp
    21d1:	89 e5                	mov    %esp,%ebp
    21d3:	57                   	push   %edi
    21d4:	56                   	push   %esi
    21d5:	53                   	push   %ebx
    21d6:	81 ec 8c 00 00 00    	sub    $0x8c,%esp
    21dc:	8b 55 0c             	mov    0xc(%ebp),%edx
    21df:	8b 4d 14             	mov    0x14(%ebp),%ecx
    21e2:	89 55 a4             	mov    %edx,-0x5c(%ebp)
    21e5:	8b 55 10             	mov    0x10(%ebp),%edx
    21e8:	8b 45 08             	mov    0x8(%ebp),%eax
    21eb:	89 14 24             	mov    %edx,(%esp)
    21ee:	89 4c 24 04          	mov    %ecx,0x4(%esp)
    21f2:	89 45 a0             	mov    %eax,-0x60(%ebp)
    21f5:	89 55 a8             	mov    %edx,-0x58(%ebp)
    21f8:	89 4d ac             	mov    %ecx,-0x54(%ebp)
    21fb:	e8 a0 1c 01 00       	call   13ea0 <async_get_client_data_by_id>
    2200:	89 c6                	mov    %eax,%esi
    2202:	85 c0                	test   %eax,%eax
    2204:	0f 84 50 02 00 00    	je     245a <vfs_pass_handle+0x28a>
    220a:	c7 04 24 0c 00 00 00 	movl   $0xc,(%esp)
    2211:	e8 1a 05 01 00       	call   12730 <malloc>
    2216:	89 c7                	mov    %eax,%edi
    2218:	85 c0                	test   %eax,%eax
    221a:	0f 84 17 04 00 00    	je     2637 <vfs_pass_handle+0x467>
    2220:	c7 00 00 00 00 00    	movl   $0x0,(%eax)
    2226:	c7 40 04 00 00 00 00 	movl   $0x0,0x4(%eax)
    222d:	c7 40 08 ff ff ff ff 	movl   $0xffffffff,0x8(%eax)
    2234:	8b 55 a4             	mov    -0x5c(%ebp),%edx
    2237:	8b 45 a0             	mov    -0x60(%ebp),%eax
    223a:	89 54 24 04          	mov    %edx,0x4(%esp)
    223e:	89 04 24             	mov    %eax,(%esp)
    2241:	e8 5a 1c 01 00       	call   13ea0 <async_get_client_data_by_id>
    2246:	89 45 b0             	mov    %eax,-0x50(%ebp)
    2249:	85 c0                	test   %eax,%eax
    224b:	0f 84 17 02 00 00    	je     2468 <vfs_pass_handle+0x298>
    2251:	8b 55 18             	mov    0x18(%ebp),%edx
    2254:	e8 d7 f6 ff ff       	call   1930 <_vfs_file_get>
    2259:	89 45 b4             	mov    %eax,-0x4c(%ebp)
    225c:	85 c0                	test   %eax,%eax
    225e:	0f 84 04 02 00 00    	je     2468 <vfs_pass_handle+0x298>
    2264:	89 34 24             	mov    %esi,(%esp)
    2267:	e8 b4 78 00 00       	call   9b20 <fibril_mutex_lock>
    226c:	8b 5e 20             	mov    0x20(%esi),%ebx
    226f:	85 db                	test   %ebx,%ebx
    2271:	0f 84 2a 03 00 00    	je     25a1 <vfs_pass_handle+0x3d1>
    2277:	89 34 24             	mov    %esi,(%esp)
    227a:	e8 c1 79 00 00       	call   9c40 <fibril_mutex_unlock>
    227f:	89 34 24             	mov    %esi,(%esp)
    2282:	e8 99 78 00 00       	call   9b20 <fibril_mutex_lock>
    2287:	8b 56 20             	mov    0x20(%esi),%edx
    228a:	8b 0a                	mov    (%edx),%ecx
    228c:	85 c9                	test   %ecx,%ecx
    228e:	0f 84 41 03 00 00    	je     25d5 <vfs_pass_handle+0x405>
    2294:	8d 42 04             	lea    0x4(%edx),%eax
    2297:	31 db                	xor    %ebx,%ebx
    2299:	eb 11                	jmp    22ac <vfs_pass_handle+0xdc>
    229b:	90                   	nop
    229c:	8d 74 26 00          	lea    0x0(%esi,%eiz,1),%esi
    22a0:	83 c0 04             	add    $0x4,%eax
    22a3:	83 fb 7f             	cmp    $0x7f,%ebx
    22a6:	0f 84 cc 01 00 00    	je     2478 <vfs_pass_handle+0x2a8>
    22ac:	43                   	inc    %ebx
    22ad:	89 c2                	mov    %eax,%edx
    22af:	83 38 00             	cmpl   $0x0,(%eax)
    22b2:	8d 0c 9d 00 00 00 00 	lea    0x0(,%ebx,4),%ecx
    22b9:	75 e5                	jne    22a0 <vfs_pass_handle+0xd0>
    22bb:	c7 04 24 24 00 00 00 	movl   $0x24,(%esp)
    22c2:	89 55 94             	mov    %edx,-0x6c(%ebp)
    22c5:	89 4d 98             	mov    %ecx,-0x68(%ebp)
    22c8:	e8 63 04 01 00       	call   12730 <malloc>
    22cd:	8b 55 94             	mov    -0x6c(%ebp),%edx
    22d0:	8b 4d 98             	mov    -0x68(%ebp),%ecx
    22d3:	89 02                	mov    %eax,(%edx)
    22d5:	8b 46 20             	mov    0x20(%esi),%eax
    22d8:	8b 04 08             	mov    (%eax,%ecx,1),%eax
    22db:	85 c0                	test   %eax,%eax
    22dd:	0f 84 95 01 00 00    	je     2478 <vfs_pass_handle+0x2a8>
    22e3:	c7 44 24 08 24 00 00 	movl   $0x24,0x8(%esp)
    22ea:	00 
    22eb:	c7 44 24 04 00 00 00 	movl   $0x0,0x4(%esp)
    22f2:	00 
    22f3:	89 04 24             	mov    %eax,(%esp)
    22f6:	89 4d 98             	mov    %ecx,-0x68(%ebp)
    22f9:	e8 72 36 00 00       	call   5970 <memset>
    22fe:	8b 46 20             	mov    0x20(%esi),%eax
    2301:	8b 4d 98             	mov    -0x68(%ebp),%ecx
    2304:	8b 04 08             	mov    (%eax,%ecx,1),%eax
    2307:	89 04 24             	mov    %eax,(%esp)
    230a:	e8 f1 77 00 00       	call   9b00 <fibril_mutex_initialize>
    230f:	8b 46 20             	mov    0x20(%esi),%eax
    2312:	8b 4d 98             	mov    -0x68(%ebp),%ecx
    2315:	8b 14 08             	mov    (%eax,%ecx,1),%edx
    2318:	89 34 24             	mov    %esi,(%esp)
    231b:	89 55 94             	mov    %edx,-0x6c(%ebp)
    231e:	e8 2d 7a 00 00       	call   9d50 <fibril_mutex_is_locked>
    2323:	8b 55 94             	mov    -0x6c(%ebp),%edx
    2326:	84 c0                	test   %al,%al
    2328:	0f 84 04 03 00 00    	je     2632 <vfs_pass_handle+0x462>
    232e:	8b 42 14             	mov    0x14(%edx),%eax
    2331:	40                   	inc    %eax
    2332:	89 42 14             	mov    %eax,0x14(%edx)
    2335:	89 34 24             	mov    %esi,(%esp)
    2338:	e8 03 79 00 00       	call   9c40 <fibril_mutex_unlock>
    233d:	8b 55 b4             	mov    -0x4c(%ebp),%edx
    2340:	8b 42 10             	mov    0x10(%edx),%eax
    2343:	89 5f 08             	mov    %ebx,0x8(%edi)
    2346:	89 04 24             	mov    %eax,(%esp)
    2349:	e8 02 f2 ff ff       	call   1550 <vfs_node_addref>
    234e:	8b 4d b4             	mov    -0x4c(%ebp),%ecx
    2351:	8b 41 10             	mov    0x10(%ecx),%eax
    2354:	89 04 24             	mov    %eax,(%esp)
    2357:	e8 64 f5 ff ff       	call   18c0 <vfs_open_node_remote>
    235c:	89 da                	mov    %ebx,%edx
    235e:	89 f0                	mov    %esi,%eax
    2360:	e8 cb f5 ff ff       	call   1930 <_vfs_file_get>
    2365:	89 c3                	mov    %eax,%ebx
    2367:	85 c0                	test   %eax,%eax
    2369:	0f 84 8b 02 00 00    	je     25fa <vfs_pass_handle+0x42a>
    236f:	8b 55 b4             	mov    -0x4c(%ebp),%edx
    2372:	8b 42 10             	mov    0x10(%edx),%eax
    2375:	8a 4a 18             	mov    0x18(%edx),%cl
    2378:	89 43 10             	mov    %eax,0x10(%ebx)
    237b:	8b 42 1c             	mov    0x1c(%edx),%eax
    237e:	8b 52 20             	mov    0x20(%edx),%edx
    2381:	88 4b 18             	mov    %cl,0x18(%ebx)
    2384:	89 43 1c             	mov    %eax,0x1c(%ebx)
    2387:	89 53 20             	mov    %edx,0x20(%ebx)
    238a:	89 34 24             	mov    %esi,(%esp)
    238d:	e8 8e 77 00 00       	call   9b20 <fibril_mutex_lock>
    2392:	8d 46 18             	lea    0x18(%esi),%eax
    2395:	89 47 04             	mov    %eax,0x4(%edi)
    2398:	8b 46 18             	mov    0x18(%esi),%eax
    239b:	89 07                	mov    %eax,(%edi)
    239d:	8b 46 18             	mov    0x18(%esi),%eax
    23a0:	89 7e 18             	mov    %edi,0x18(%esi)
    23a3:	89 78 04             	mov    %edi,0x4(%eax)
    23a6:	8d 46 10             	lea    0x10(%esi),%eax
    23a9:	89 04 24             	mov    %eax,(%esp)
    23ac:	e8 8f 84 00 00       	call   a840 <fibril_condvar_broadcast>
    23b1:	89 34 24             	mov    %esi,(%esp)
    23b4:	e8 87 78 00 00       	call   9c40 <fibril_mutex_unlock>
    23b9:	8b 45 b0             	mov    -0x50(%ebp),%eax
    23bc:	85 c0                	test   %eax,%eax
    23be:	74 12                	je     23d2 <vfs_pass_handle+0x202>
    23c0:	8b 45 a0             	mov    -0x60(%ebp),%eax
    23c3:	8b 55 a4             	mov    -0x5c(%ebp),%edx
    23c6:	89 04 24             	mov    %eax,(%esp)
    23c9:	89 54 24 04          	mov    %edx,0x4(%esp)
    23cd:	e8 ae 1b 01 00       	call   13f80 <async_put_client_data_by_id>
    23d2:	8b 55 a8             	mov    -0x58(%ebp),%edx
    23d5:	8b 4d ac             	mov    -0x54(%ebp),%ecx
    23d8:	89 14 24             	mov    %edx,(%esp)
    23db:	89 4c 24 04          	mov    %ecx,0x4(%esp)
    23df:	e8 9c 1b 01 00       	call   13f80 <async_put_client_data_by_id>
    23e4:	8b 7d b4             	mov    -0x4c(%ebp),%edi
    23e7:	85 ff                	test   %edi,%edi
    23e9:	74 3f                	je     242a <vfs_pass_handle+0x25a>
    23eb:	8b 45 b0             	mov    -0x50(%ebp),%eax
    23ee:	89 04 24             	mov    %eax,(%esp)
    23f1:	e8 2a 77 00 00       	call   9b20 <fibril_mutex_lock>
    23f6:	8b 45 b0             	mov    -0x50(%ebp),%eax
    23f9:	89 04 24             	mov    %eax,(%esp)
    23fc:	e8 4f 79 00 00       	call   9d50 <fibril_mutex_is_locked>
    2401:	84 c0                	test   %al,%al
    2403:	0f 84 0d 02 00 00    	je     2616 <vfs_pass_handle+0x446>
    2409:	8b 55 b4             	mov    -0x4c(%ebp),%edx
    240c:	8b 4d b4             	mov    -0x4c(%ebp),%ecx
    240f:	8b 42 14             	mov    0x14(%edx),%eax
    2412:	8d 50 ff             	lea    -0x1(%eax),%edx
    2415:	48                   	dec    %eax
    2416:	89 51 14             	mov    %edx,0x14(%ecx)
    2419:	0f 84 f1 00 00 00    	je     2510 <vfs_pass_handle+0x340>
    241f:	8b 45 b0             	mov    -0x50(%ebp),%eax
    2422:	89 04 24             	mov    %eax,(%esp)
    2425:	e8 16 78 00 00       	call   9c40 <fibril_mutex_unlock>
    242a:	85 db                	test   %ebx,%ebx
    242c:	74 2c                	je     245a <vfs_pass_handle+0x28a>
    242e:	89 34 24             	mov    %esi,(%esp)
    2431:	e8 ea 76 00 00       	call   9b20 <fibril_mutex_lock>
    2436:	89 34 24             	mov    %esi,(%esp)
    2439:	e8 12 79 00 00       	call   9d50 <fibril_mutex_is_locked>
    243e:	84 c0                	test   %al,%al
    2440:	0f 84 d0 01 00 00    	je     2616 <vfs_pass_handle+0x446>
    2446:	8b 43 14             	mov    0x14(%ebx),%eax
    2449:	8d 50 ff             	lea    -0x1(%eax),%edx
    244c:	48                   	dec    %eax
    244d:	89 53 14             	mov    %edx,0x14(%ebx)
    2450:	74 36                	je     2488 <vfs_pass_handle+0x2b8>
    2452:	89 34 24             	mov    %esi,(%esp)
    2455:	e8 e6 77 00 00       	call   9c40 <fibril_mutex_unlock>
    245a:	81 c4 8c 00 00 00    	add    $0x8c,%esp
    2460:	5b                   	pop    %ebx
    2461:	5e                   	pop    %esi
    2462:	5f                   	pop    %edi
    2463:	5d                   	pop    %ebp
    2464:	c3                   	ret    
    2465:	8d 76 00             	lea    0x0(%esi),%esi
    2468:	31 db                	xor    %ebx,%ebx
    246a:	c7 45 b4 00 00 00 00 	movl   $0x0,-0x4c(%ebp)
    2471:	e9 14 ff ff ff       	jmp    238a <vfs_pass_handle+0x1ba>
    2476:	66 90                	xchg   %ax,%ax
    2478:	89 34 24             	mov    %esi,(%esp)
    247b:	31 db                	xor    %ebx,%ebx
    247d:	e8 be 77 00 00       	call   9c40 <fibril_mutex_unlock>
    2482:	e9 03 ff ff ff       	jmp    238a <vfs_pass_handle+0x1ba>
    2487:	90                   	nop
    2488:	85 d2                	test   %edx,%edx
    248a:	0f 85 4e 01 00 00    	jne    25de <vfs_pass_handle+0x40e>
    2490:	8b 43 10             	mov    0x10(%ebx),%eax
    2493:	0f bf 00             	movswl (%eax),%eax
    2496:	89 04 24             	mov    %eax,(%esp)
    2499:	e8 c2 2e 00 00       	call   5360 <vfs_exchange_grab>
    249e:	8d 55 c4             	lea    -0x3c(%ebp),%edx
    24a1:	89 c7                	mov    %eax,%edi
    24a3:	8b 43 10             	mov    0x10(%ebx),%eax
    24a6:	89 54 24 18          	mov    %edx,0x18(%esp)
    24aa:	c7 44 24 14 00 00 00 	movl   $0x0,0x14(%esp)
    24b1:	00 
    24b2:	c7 44 24 10 00 00 00 	movl   $0x0,0x10(%esp)
    24b9:	00 
    24ba:	8b 50 08             	mov    0x8(%eax),%edx
    24bd:	89 54 24 0c          	mov    %edx,0xc(%esp)
    24c1:	8b 40 04             	mov    0x4(%eax),%eax
    24c4:	c7 44 24 04 04 04 00 	movl   $0x404,0x4(%esp)
    24cb:	00 
    24cc:	89 44 24 08          	mov    %eax,0x8(%esp)
    24d0:	89 3c 24             	mov    %edi,(%esp)
    24d3:	e8 38 21 01 00       	call   14610 <async_send_fast>
    24d8:	89 3c 24             	mov    %edi,(%esp)
    24db:	89 45 98             	mov    %eax,-0x68(%ebp)
    24de:	e8 2d 2f 00 00       	call   5410 <vfs_exchange_release>
    24e3:	8d 55 c0             	lea    -0x40(%ebp),%edx
    24e6:	8b 45 98             	mov    -0x68(%ebp),%eax
    24e9:	89 54 24 04          	mov    %edx,0x4(%esp)
    24ed:	89 04 24             	mov    %eax,(%esp)
    24f0:	e8 eb 22 01 00       	call   147e0 <async_wait_for>
    24f5:	8b 43 10             	mov    0x10(%ebx),%eax
    24f8:	89 04 24             	mov    %eax,(%esp)
    24fb:	e8 80 f0 ff ff       	call   1580 <vfs_node_delref>
    2500:	89 1c 24             	mov    %ebx,(%esp)
    2503:	e8 38 03 01 00       	call   12840 <free>
    2508:	e9 45 ff ff ff       	jmp    2452 <vfs_pass_handle+0x282>
    250d:	8d 76 00             	lea    0x0(%esi),%esi
    2510:	85 d2                	test   %edx,%edx
    2512:	0f 85 c6 00 00 00    	jne    25de <vfs_pass_handle+0x40e>
    2518:	8b 55 b4             	mov    -0x4c(%ebp),%edx
    251b:	8b 42 10             	mov    0x10(%edx),%eax
    251e:	0f bf 00             	movswl (%eax),%eax
    2521:	89 04 24             	mov    %eax,(%esp)
    2524:	e8 37 2e 00 00       	call   5360 <vfs_exchange_grab>
    2529:	8b 4d b4             	mov    -0x4c(%ebp),%ecx
    252c:	89 c7                	mov    %eax,%edi
    252e:	8d 55 c4             	lea    -0x3c(%ebp),%edx
    2531:	8b 41 10             	mov    0x10(%ecx),%eax
    2534:	89 54 24 18          	mov    %edx,0x18(%esp)
    2538:	c7 44 24 14 00 00 00 	movl   $0x0,0x14(%esp)
    253f:	00 
    2540:	c7 44 24 10 00 00 00 	movl   $0x0,0x10(%esp)
    2547:	00 
    2548:	8b 50 08             	mov    0x8(%eax),%edx
    254b:	89 54 24 0c          	mov    %edx,0xc(%esp)
    254f:	8b 40 04             	mov    0x4(%eax),%eax
    2552:	c7 44 24 04 04 04 00 	movl   $0x404,0x4(%esp)
    2559:	00 
    255a:	89 44 24 08          	mov    %eax,0x8(%esp)
    255e:	89 3c 24             	mov    %edi,(%esp)
    2561:	e8 aa 20 01 00       	call   14610 <async_send_fast>
    2566:	89 3c 24             	mov    %edi,(%esp)
    2569:	89 45 98             	mov    %eax,-0x68(%ebp)
    256c:	e8 9f 2e 00 00       	call   5410 <vfs_exchange_release>
    2571:	8d 55 c0             	lea    -0x40(%ebp),%edx
    2574:	8b 45 98             	mov    -0x68(%ebp),%eax
    2577:	89 54 24 04          	mov    %edx,0x4(%esp)
    257b:	89 04 24             	mov    %eax,(%esp)
    257e:	e8 5d 22 01 00       	call   147e0 <async_wait_for>
    2583:	8b 55 b4             	mov    -0x4c(%ebp),%edx
    2586:	8b 42 10             	mov    0x10(%edx),%eax
    2589:	89 04 24             	mov    %eax,(%esp)
    258c:	e8 ef ef ff ff       	call   1580 <vfs_node_delref>
    2591:	8b 45 b4             	mov    -0x4c(%ebp),%eax
    2594:	89 04 24             	mov    %eax,(%esp)
    2597:	e8 a4 02 01 00       	call   12840 <free>
    259c:	e9 7e fe ff ff       	jmp    241f <vfs_pass_handle+0x24f>
    25a1:	c7 04 24 00 02 00 00 	movl   $0x200,(%esp)
    25a8:	e8 83 01 01 00       	call   12730 <malloc>
    25ad:	89 46 20             	mov    %eax,0x20(%esi)
    25b0:	85 c0                	test   %eax,%eax
    25b2:	0f 84 c0 fe ff ff    	je     2478 <vfs_pass_handle+0x2a8>
    25b8:	c7 44 24 08 00 02 00 	movl   $0x200,0x8(%esp)
    25bf:	00 
    25c0:	c7 44 24 04 00 00 00 	movl   $0x0,0x4(%esp)
    25c7:	00 
    25c8:	89 04 24             	mov    %eax,(%esp)
    25cb:	e8 a0 33 00 00       	call   5970 <memset>
    25d0:	e9 a2 fc ff ff       	jmp    2277 <vfs_pass_handle+0xa7>
    25d5:	31 c9                	xor    %ecx,%ecx
    25d7:	31 db                	xor    %ebx,%ebx
    25d9:	e9 dd fc ff ff       	jmp    22bb <vfs_pass_handle+0xeb>
    25de:	c7 44 24 08 87 00 00 	movl   $0x87,0x8(%esp)
    25e5:	00 
    25e6:	c7 44 24 04 63 1e 02 	movl   $0x21e63,0x4(%esp)
    25ed:	00 
    25ee:	c7 04 24 6e 1e 02 00 	movl   $0x21e6e,(%esp)
    25f5:	e8 16 a9 01 00       	call   1cf10 <assert_abort>
    25fa:	c7 44 24 08 85 01 00 	movl   $0x185,0x8(%esp)
    2601:	00 
    2602:	c7 44 24 04 63 1e 02 	movl   $0x21e63,0x4(%esp)
    2609:	00 
    260a:	c7 04 24 7f 1e 02 00 	movl   $0x21e7f,(%esp)
    2611:	e8 fa a8 01 00       	call   1cf10 <assert_abort>
    2616:	c7 44 24 08 ac 00 00 	movl   $0xac,0x8(%esp)
    261d:	00 
    261e:	c7 44 24 04 63 1e 02 	movl   $0x21e63,0x4(%esp)
    2625:	00 
    2626:	c7 04 24 90 1e 02 00 	movl   $0x21e90,(%esp)
    262d:	e8 de a8 01 00       	call   1cf10 <assert_abort>
    2632:	e8 ab 00 00 00       	call   26e2 <vfs_file_addref.isra.0.part.1>
    2637:	c7 44 24 08 6b 01 00 	movl   $0x16b,0x8(%esp)
    263e:	00 
    263f:	c7 44 24 04 63 1e 02 	movl   $0x21e63,0x4(%esp)
    2646:	00 
    2647:	c7 04 24 7c 1e 02 00 	movl   $0x21e7c,(%esp)
    264e:	e8 bd a8 01 00       	call   1cf10 <assert_abort>
    2653:	8d b6 00 00 00 00    	lea    0x0(%esi),%esi
    2659:	8d bc 27 00 00 00 00 	lea    0x0(%edi,%eiz,1),%edi

00002660 <vfs_wait_handle_internal>:
    2660:	55                   	push   %ebp
    2661:	89 e5                	mov    %esp,%ebp
    2663:	57                   	push   %edi
    2664:	56                   	push   %esi
    2665:	53                   	push   %ebx
    2666:	83 ec 2c             	sub    $0x2c,%esp
    2669:	e8 f2 17 01 00       	call   13e60 <async_get_client_data>
    266e:	89 c6                	mov    %eax,%esi
    2670:	89 04 24             	mov    %eax,(%esp)
    2673:	e8 a8 74 00 00       	call   9b20 <fibril_mutex_lock>
    2678:	8b 46 1c             	mov    0x1c(%esi),%eax
    267b:	8d 56 18             	lea    0x18(%esi),%edx
    267e:	89 45 e4             	mov    %eax,-0x1c(%ebp)
    2681:	39 d0                	cmp    %edx,%eax
    2683:	75 59                	jne    26de <vfs_wait_handle_internal+0x7e>
    2685:	8d 7e 10             	lea    0x10(%esi),%edi
    2688:	89 74 24 04          	mov    %esi,0x4(%esp)
    268c:	89 3c 24             	mov    %edi,(%esp)
    268f:	e8 dc 80 00 00       	call   a770 <fibril_condvar_wait>
    2694:	8b 5e 1c             	mov    0x1c(%esi),%ebx
    2697:	3b 5d e4             	cmp    -0x1c(%ebp),%ebx
    269a:	74 ec                	je     2688 <vfs_wait_handle_internal+0x28>
    269c:	8b 0b                	mov    (%ebx),%ecx
    269e:	85 c9                	test   %ecx,%ecx
    26a0:	74 0e                	je     26b0 <vfs_wait_handle_internal+0x50>
    26a2:	8b 53 04             	mov    0x4(%ebx),%edx
    26a5:	85 d2                	test   %edx,%edx
    26a7:	74 07                	je     26b0 <vfs_wait_handle_internal+0x50>
    26a9:	89 0a                	mov    %ecx,(%edx)
    26ab:	8b 0b                	mov    (%ebx),%ecx
    26ad:	89 51 04             	mov    %edx,0x4(%ecx)
    26b0:	c7 03 00 00 00 00    	movl   $0x0,(%ebx)
    26b6:	c7 43 04 00 00 00 00 	movl   $0x0,0x4(%ebx)
    26bd:	89 34 24             	mov    %esi,(%esp)
    26c0:	e8 7b 75 00 00       	call   9c40 <fibril_mutex_unlock>
    26c5:	8b 43 08             	mov    0x8(%ebx),%eax
    26c8:	89 1c 24             	mov    %ebx,(%esp)
    26cb:	89 45 e0             	mov    %eax,-0x20(%ebp)
    26ce:	e8 6d 01 01 00       	call   12840 <free>
    26d3:	8b 45 e0             	mov    -0x20(%ebp),%eax
    26d6:	83 c4 2c             	add    $0x2c,%esp
    26d9:	5b                   	pop    %ebx
    26da:	5e                   	pop    %esi
    26db:	5f                   	pop    %edi
    26dc:	5d                   	pop    %ebp
    26dd:	c3                   	ret    
    26de:	89 c3                	mov    %eax,%ebx
    26e0:	eb ba                	jmp    269c <vfs_wait_handle_internal+0x3c>

000026e2 <vfs_file_addref.isra.0.part.1>:
    26e2:	55                   	push   %ebp
    26e3:	89 e5                	mov    %esp,%ebp
    26e5:	83 ec 18             	sub    $0x18,%esp
    26e8:	c7 44 24 08 9e 00 00 	movl   $0x9e,0x8(%esp)
    26ef:	00 
    26f0:	c7 44 24 04 63 1e 02 	movl   $0x21e63,0x4(%esp)
    26f7:	00 
    26f8:	c7 04 24 90 1e 02 00 	movl   $0x21e90,(%esp)
    26ff:	e8 0c a8 01 00       	call   1cf10 <assert_abort>
    2704:	66 90                	xchg   %ax,%ax
    2706:	66 90                	xchg   %ax,%ax
    2708:	66 90                	xchg   %ax,%ax
    270a:	66 90                	xchg   %ax,%ax
    270c:	66 90                	xchg   %ax,%ax
    270e:	66 90                	xchg   %ax,%ax

00002710 <vfs_mount>:
    2710:	55                   	push   %ebp
    2711:	89 e5                	mov    %esp,%ebp
    2713:	57                   	push   %edi
    2714:	56                   	push   %esi
    2715:	53                   	push   %ebx
    2716:	81 ec ec 00 00 00    	sub    $0xec,%esp
    271c:	8b 45 0c             	mov    0xc(%ebp),%eax
    271f:	8b 78 04             	mov    0x4(%eax),%edi
    2722:	8b 70 08             	mov    0x8(%eax),%esi
    2725:	8b 58 0c             	mov    0xc(%eax),%ebx
    2728:	8d 85 58 ff ff ff    	lea    -0xa8(%ebp),%eax
    272e:	c7 44 24 14 00 00 00 	movl   $0x0,0x14(%esp)
    2735:	00 
    2736:	c7 44 24 10 00 00 00 	movl   $0x0,0x10(%esp)
    273d:	00 
    273e:	c7 44 24 0c 00 00 01 	movl   $0x10000,0xc(%esp)
    2745:	00 
    2746:	c7 44 24 08 00 00 00 	movl   $0x0,0x8(%esp)
    274d:	00 
    274e:	c7 44 24 04 01 00 00 	movl   $0x1,0x4(%esp)
    2755:	00 
    2756:	89 04 24             	mov    %eax,(%esp)
    2759:	e8 32 46 01 00       	call   16d90 <async_data_write_accept>
    275e:	85 c0                	test   %eax,%eax
    2760:	75 54                	jne    27b6 <vfs_mount+0xa6>
    2762:	8d 85 5c ff ff ff    	lea    -0xa4(%ebp),%eax
    2768:	c7 44 24 14 00 00 00 	movl   $0x0,0x14(%esp)
    276f:	00 
    2770:	c7 44 24 10 00 00 00 	movl   $0x0,0x10(%esp)
    2777:	00 
    2778:	c7 44 24 0c 00 01 00 	movl   $0x100,0xc(%esp)
    277f:	00 
    2780:	c7 44 24 08 00 00 00 	movl   $0x0,0x8(%esp)
    2787:	00 
    2788:	c7 44 24 04 01 00 00 	movl   $0x1,0x4(%esp)
    278f:	00 
    2790:	89 04 24             	mov    %eax,(%esp)
    2793:	e8 f8 45 01 00       	call   16d90 <async_data_write_accept>
    2798:	85 c0                	test   %eax,%eax
    279a:	74 34                	je     27d0 <vfs_mount+0xc0>
    279c:	8b 95 58 ff ff ff    	mov    -0xa8(%ebp),%edx
    27a2:	89 85 38 ff ff ff    	mov    %eax,-0xc8(%ebp)
    27a8:	89 14 24             	mov    %edx,(%esp)
    27ab:	e8 90 00 01 00       	call   12840 <free>
    27b0:	8b 85 38 ff ff ff    	mov    -0xc8(%ebp),%eax
    27b6:	8b 55 08             	mov    0x8(%ebp),%edx
    27b9:	89 44 24 04          	mov    %eax,0x4(%esp)
    27bd:	89 14 24             	mov    %edx,(%esp)
    27c0:	e8 ab 2a 01 00       	call   15270 <async_answer_0>
    27c5:	81 c4 ec 00 00 00    	add    $0xec,%esp
    27cb:	5b                   	pop    %ebx
    27cc:	5e                   	pop    %esi
    27cd:	5f                   	pop    %edi
    27ce:	5d                   	pop    %ebp
    27cf:	c3                   	ret    
    27d0:	8d 85 60 ff ff ff    	lea    -0xa0(%ebp),%eax
    27d6:	c7 44 24 14 00 00 00 	movl   $0x0,0x14(%esp)
    27dd:	00 
    27de:	c7 44 24 10 00 00 00 	movl   $0x0,0x10(%esp)
    27e5:	00 
    27e6:	c7 44 24 0c 14 00 00 	movl   $0x14,0xc(%esp)
    27ed:	00 
    27ee:	c7 44 24 08 00 00 00 	movl   $0x0,0x8(%esp)
    27f5:	00 
    27f6:	c7 44 24 04 01 00 00 	movl   $0x1,0x4(%esp)
    27fd:	00 
    27fe:	89 04 24             	mov    %eax,(%esp)
    2801:	e8 8a 45 01 00       	call   16d90 <async_data_write_accept>
    2806:	85 c0                	test   %eax,%eax
    2808:	75 76                	jne    2880 <vfs_mount+0x170>
    280a:	8d 45 a0             	lea    -0x60(%ebp),%eax
    280d:	c7 44 24 04 00 00 00 	movl   $0x0,0x4(%esp)
    2814:	00 
    2815:	89 04 24             	mov    %eax,(%esp)
    2818:	e8 23 14 01 00       	call   13c40 <async_get_call_timeout>
    281d:	81 7d a0 07 04 00 00 	cmpl   $0x407,-0x60(%ebp)
    2824:	89 85 54 ff ff ff    	mov    %eax,-0xac(%ebp)
    282a:	74 7c                	je     28a8 <vfs_mount+0x198>
    282c:	c7 44 24 04 f5 ff ff 	movl   $0xfffffff5,0x4(%esp)
    2833:	ff 
    2834:	89 04 24             	mov    %eax,(%esp)
    2837:	e8 34 2a 01 00       	call   15270 <async_answer_0>
    283c:	8b 55 08             	mov    0x8(%ebp),%edx
    283f:	c7 44 24 04 f5 ff ff 	movl   $0xfffffff5,0x4(%esp)
    2846:	ff 
    2847:	89 14 24             	mov    %edx,(%esp)
    284a:	e8 21 2a 01 00       	call   15270 <async_answer_0>
    284f:	8b 85 58 ff ff ff    	mov    -0xa8(%ebp),%eax
    2855:	89 04 24             	mov    %eax,(%esp)
    2858:	e8 e3 ff 00 00       	call   12840 <free>
    285d:	8b 85 5c ff ff ff    	mov    -0xa4(%ebp),%eax
    2863:	89 04 24             	mov    %eax,(%esp)
    2866:	e8 d5 ff 00 00       	call   12840 <free>
    286b:	8b 85 60 ff ff ff    	mov    -0xa0(%ebp),%eax
    2871:	89 04 24             	mov    %eax,(%esp)
    2874:	e8 c7 ff 00 00       	call   12840 <free>
    2879:	e9 47 ff ff ff       	jmp    27c5 <vfs_mount+0xb5>
    287e:	66 90                	xchg   %ax,%ax
    2880:	8b 95 58 ff ff ff    	mov    -0xa8(%ebp),%edx
    2886:	89 85 38 ff ff ff    	mov    %eax,-0xc8(%ebp)
    288c:	89 14 24             	mov    %edx,(%esp)
    288f:	e8 ac ff 00 00       	call   12840 <free>
    2894:	8b 95 5c ff ff ff    	mov    -0xa4(%ebp),%edx
    289a:	89 14 24             	mov    %edx,(%esp)
    289d:	e9 09 ff ff ff       	jmp    27ab <vfs_mount+0x9b>
    28a2:	8d b6 00 00 00 00    	lea    0x0(%esi),%esi
    28a8:	c7 04 24 94 48 02 00 	movl   $0x24894,(%esp)
    28af:	e8 6c 72 00 00       	call   9b20 <fibril_mutex_lock>
    28b4:	83 e6 01             	and    $0x1,%esi
    28b7:	75 1b                	jne    28d4 <vfs_mount+0x1c4>
    28b9:	e9 4f 02 00 00       	jmp    2b0d <vfs_mount+0x3fd>
    28be:	66 90                	xchg   %ax,%ax
    28c0:	c7 44 24 04 94 48 02 	movl   $0x24894,0x4(%esp)
    28c7:	00 
    28c8:	c7 04 24 a4 48 02 00 	movl   $0x248a4,(%esp)
    28cf:	e8 9c 7e 00 00       	call   a770 <fibril_condvar_wait>
    28d4:	8b 85 60 ff ff ff    	mov    -0xa0(%ebp),%eax
    28da:	c7 44 24 08 00 00 00 	movl   $0x0,0x8(%esp)
    28e1:	00 
    28e2:	89 44 24 04          	mov    %eax,0x4(%esp)
    28e6:	89 1c 24             	mov    %ebx,(%esp)
    28e9:	e8 32 2b 00 00       	call   5420 <fs_name_to_handle>
    28ee:	66 85 c0             	test   %ax,%ax
    28f1:	74 cd                	je     28c0 <vfs_mount+0x1b0>
    28f3:	89 c6                	mov    %eax,%esi
    28f5:	c7 04 24 94 48 02 00 	movl   $0x24894,(%esp)
    28fc:	e8 3f 73 00 00       	call   9c40 <fibril_mutex_unlock>
    2901:	c7 04 24 24 01 01 00 	movl   $0x10124,(%esp)
    2908:	e8 23 fe 00 00       	call   12730 <malloc>
    290d:	89 85 50 ff ff ff    	mov    %eax,-0xb0(%ebp)
    2913:	85 c0                	test   %eax,%eax
    2915:	0f 84 77 05 00 00    	je     2e92 <vfs_mount+0x782>
    291b:	8b 95 5c ff ff ff    	mov    -0xa4(%ebp),%edx
    2921:	c7 04 24 44 48 02 00 	movl   $0x24844,(%esp)
    2928:	89 95 44 ff ff ff    	mov    %edx,-0xbc(%ebp)
    292e:	8b 95 58 ff ff ff    	mov    -0xa8(%ebp),%edx
    2934:	89 95 48 ff ff ff    	mov    %edx,-0xb8(%ebp)
    293a:	e8 61 75 00 00       	call   9ea0 <fibril_rwlock_write_lock>
    293f:	8b 95 48 ff ff ff    	mov    -0xb8(%ebp),%edx
    2945:	c7 44 24 04 b8 1e 02 	movl   $0x21eb8,0x4(%esp)
    294c:	00 
    294d:	66 83 3d dc 4a 02 00 	cmpw   $0x0,0x24adc
    2954:	00 
    2955:	89 14 24             	mov    %edx,(%esp)
    2958:	0f 84 c6 02 00 00    	je     2c24 <vfs_mount+0x514>
    295e:	e8 cd 44 00 00       	call   6e30 <str_cmp>
    2963:	85 c0                	test   %eax,%eax
    2965:	0f 84 e7 05 00 00    	je     2f52 <vfs_mount+0x842>
    296b:	8d 8d 68 ff ff ff    	lea    -0x98(%ebp),%ecx
    2971:	8b 95 48 ff ff ff    	mov    -0xb8(%ebp),%edx
    2977:	89 4c 24 08          	mov    %ecx,0x8(%esp)
    297b:	c7 44 24 0c 00 00 00 	movl   $0x0,0xc(%esp)
    2982:	00 
    2983:	c7 44 24 04 08 00 00 	movl   $0x8,0x4(%esp)
    298a:	00 
    298b:	89 14 24             	mov    %edx,(%esp)
    298e:	89 8d 38 ff ff ff    	mov    %ecx,-0xc8(%ebp)
    2994:	e8 97 23 00 00       	call   4d30 <vfs_lookup_internal>
    2999:	8b 8d 38 ff ff ff    	mov    -0xc8(%ebp),%ecx
    299f:	89 85 64 ff ff ff    	mov    %eax,-0x9c(%ebp)
    29a5:	85 c0                	test   %eax,%eax
    29a7:	0f 85 4b 02 00 00    	jne    2bf8 <vfs_mount+0x4e8>
    29ad:	89 0c 24             	mov    %ecx,(%esp)
    29b0:	e8 2b ed ff ff       	call   16e0 <vfs_node_get>
    29b5:	89 85 3c ff ff ff    	mov    %eax,-0xc4(%ebp)
    29bb:	85 c0                	test   %eax,%eax
    29bd:	0f 84 f3 05 00 00    	je     2fb6 <vfs_mount+0x8a6>
    29c3:	0f bf d6             	movswl %si,%edx
    29c6:	89 14 24             	mov    %edx,(%esp)
    29c9:	89 95 40 ff ff ff    	mov    %edx,-0xc0(%ebp)
    29cf:	e8 8c 29 00 00       	call   5360 <vfs_exchange_grab>
    29d4:	89 c1                	mov    %eax,%ecx
    29d6:	85 c0                	test   %eax,%eax
    29d8:	0f 84 bc 05 00 00    	je     2f9a <vfs_mount+0x88a>
    29de:	0f bf 85 68 ff ff ff 	movswl -0x98(%ebp),%eax
    29e5:	89 04 24             	mov    %eax,(%esp)
    29e8:	89 8d 38 ff ff ff    	mov    %ecx,-0xc8(%ebp)
    29ee:	e8 6d 29 00 00       	call   5360 <vfs_exchange_grab>
    29f3:	8b 95 40 ff ff ff    	mov    -0xc0(%ebp),%edx
    29f9:	89 85 48 ff ff ff    	mov    %eax,-0xb8(%ebp)
    29ff:	8d 45 c4             	lea    -0x3c(%ebp),%eax
    2a02:	89 44 24 18          	mov    %eax,0x18(%esp)
    2a06:	8b 85 70 ff ff ff    	mov    -0x90(%ebp),%eax
    2a0c:	89 44 24 0c          	mov    %eax,0xc(%esp)
    2a10:	8b 85 6c ff ff ff    	mov    -0x94(%ebp),%eax
    2a16:	89 44 24 08          	mov    %eax,0x8(%esp)
    2a1a:	8b 85 48 ff ff ff    	mov    -0xb8(%ebp),%eax
    2a20:	89 54 24 10          	mov    %edx,0x10(%esp)
    2a24:	89 7c 24 14          	mov    %edi,0x14(%esp)
    2a28:	c7 44 24 04 05 04 00 	movl   $0x405,0x4(%esp)
    2a2f:	00 
    2a30:	89 04 24             	mov    %eax,(%esp)
    2a33:	e8 d8 1b 01 00       	call   14610 <async_send_fast>
    2a38:	8b 8d 38 ff ff ff    	mov    -0xc8(%ebp),%ecx
    2a3e:	89 85 40 ff ff ff    	mov    %eax,-0xc0(%ebp)
    2a44:	8b 85 48 ff ff ff    	mov    -0xb8(%ebp),%eax
    2a4a:	89 4c 24 04          	mov    %ecx,0x4(%esp)
    2a4e:	89 04 24             	mov    %eax,(%esp)
    2a51:	e8 ca 47 01 00       	call   17220 <async_exchange_clone>
    2a56:	8b 8d 38 ff ff ff    	mov    -0xc8(%ebp),%ecx
    2a5c:	89 0c 24             	mov    %ecx,(%esp)
    2a5f:	89 85 64 ff ff ff    	mov    %eax,-0x9c(%ebp)
    2a65:	e8 a6 29 00 00       	call   5410 <vfs_exchange_release>
    2a6a:	8b 8d 64 ff ff ff    	mov    -0x9c(%ebp),%ecx
    2a70:	85 c9                	test   %ecx,%ecx
    2a72:	0f 84 1e 01 00 00    	je     2b96 <vfs_mount+0x486>
    2a78:	8b 85 48 ff ff ff    	mov    -0xb8(%ebp),%eax
    2a7e:	89 04 24             	mov    %eax,(%esp)
    2a81:	e8 8a 29 00 00       	call   5410 <vfs_exchange_release>
    2a86:	8b 85 40 ff ff ff    	mov    -0xc0(%ebp),%eax
    2a8c:	89 04 24             	mov    %eax,(%esp)
    2a8f:	e8 9c 1f 01 00       	call   14a30 <async_forget>
    2a94:	8b 85 3c ff ff ff    	mov    -0xc4(%ebp),%eax
    2a9a:	89 04 24             	mov    %eax,(%esp)
    2a9d:	e8 ae ed ff ff       	call   1850 <vfs_node_put>
    2aa2:	8b 55 08             	mov    0x8(%ebp),%edx
    2aa5:	8b 85 64 ff ff ff    	mov    -0x9c(%ebp),%eax
    2aab:	89 14 24             	mov    %edx,(%esp)
    2aae:	89 44 24 04          	mov    %eax,0x4(%esp)
    2ab2:	e8 b9 27 01 00       	call   15270 <async_answer_0>
    2ab7:	c7 04 24 44 48 02 00 	movl   $0x24844,(%esp)
    2abe:	e8 1d 75 00 00       	call   9fe0 <fibril_rwlock_write_unlock>
    2ac3:	8b 85 64 ff ff ff    	mov    -0x9c(%ebp),%eax
    2ac9:	85 c0                	test   %eax,%eax
    2acb:	0f 84 97 02 00 00    	je     2d68 <vfs_mount+0x658>
    2ad1:	8b 85 54 ff ff ff    	mov    -0xac(%ebp),%eax
    2ad7:	c7 44 24 04 f5 ff ff 	movl   $0xfffffff5,0x4(%esp)
    2ade:	ff 
    2adf:	89 04 24             	mov    %eax,(%esp)
    2ae2:	e8 89 27 01 00       	call   15270 <async_answer_0>
    2ae7:	8b 55 08             	mov    0x8(%ebp),%edx
    2aea:	c7 44 24 04 f5 ff ff 	movl   $0xfffffff5,0x4(%esp)
    2af1:	ff 
    2af2:	89 14 24             	mov    %edx,(%esp)
    2af5:	e8 76 27 01 00       	call   15270 <async_answer_0>
    2afa:	8b 85 50 ff ff ff    	mov    -0xb0(%ebp),%eax
    2b00:	89 04 24             	mov    %eax,(%esp)
    2b03:	e8 38 fd 00 00       	call   12840 <free>
    2b08:	e9 42 fd ff ff       	jmp    284f <vfs_mount+0x13f>
    2b0d:	8b 85 60 ff ff ff    	mov    -0xa0(%ebp),%eax
    2b13:	c7 44 24 08 00 00 00 	movl   $0x0,0x8(%esp)
    2b1a:	00 
    2b1b:	89 44 24 04          	mov    %eax,0x4(%esp)
    2b1f:	89 1c 24             	mov    %ebx,(%esp)
    2b22:	e8 f9 28 00 00       	call   5420 <fs_name_to_handle>
    2b27:	66 85 c0             	test   %ax,%ax
    2b2a:	89 c6                	mov    %eax,%esi
    2b2c:	0f 85 c3 fd ff ff    	jne    28f5 <vfs_mount+0x1e5>
    2b32:	c7 04 24 94 48 02 00 	movl   $0x24894,(%esp)
    2b39:	e8 02 71 00 00       	call   9c40 <fibril_mutex_unlock>
    2b3e:	8b 85 54 ff ff ff    	mov    -0xac(%ebp),%eax
    2b44:	c7 44 24 04 ff ff ff 	movl   $0xffffffff,0x4(%esp)
    2b4b:	ff 
    2b4c:	89 04 24             	mov    %eax,(%esp)
    2b4f:	e8 1c 27 01 00       	call   15270 <async_answer_0>
    2b54:	c7 44 24 04 ff ff ff 	movl   $0xffffffff,0x4(%esp)
    2b5b:	ff 
    2b5c:	8b 55 08             	mov    0x8(%ebp),%edx
    2b5f:	89 14 24             	mov    %edx,(%esp)
    2b62:	e8 09 27 01 00       	call   15270 <async_answer_0>
    2b67:	8b 85 58 ff ff ff    	mov    -0xa8(%ebp),%eax
    2b6d:	89 04 24             	mov    %eax,(%esp)
    2b70:	e8 cb fc 00 00       	call   12840 <free>
    2b75:	8b 85 60 ff ff ff    	mov    -0xa0(%ebp),%eax
    2b7b:	89 04 24             	mov    %eax,(%esp)
    2b7e:	e8 bd fc 00 00       	call   12840 <free>
    2b83:	8b 85 5c ff ff ff    	mov    -0xa4(%ebp),%eax
    2b89:	89 04 24             	mov    %eax,(%esp)
    2b8c:	e8 af fc 00 00       	call   12840 <free>
    2b91:	e9 2f fc ff ff       	jmp    27c5 <vfs_mount+0xb5>
    2b96:	8b 95 44 ff ff ff    	mov    -0xbc(%ebp),%edx
    2b9c:	89 14 24             	mov    %edx,(%esp)
    2b9f:	e8 5c 3d 00 00       	call   6900 <str_size>
    2ba4:	8b 95 44 ff ff ff    	mov    -0xbc(%ebp),%edx
    2baa:	89 44 24 08          	mov    %eax,0x8(%esp)
    2bae:	8b 85 48 ff ff ff    	mov    -0xb8(%ebp),%eax
    2bb4:	89 54 24 04          	mov    %edx,0x4(%esp)
    2bb8:	89 04 24             	mov    %eax,(%esp)
    2bbb:	e8 a0 3f 01 00       	call   16b60 <async_data_write_start>
    2bc0:	89 85 64 ff ff ff    	mov    %eax,-0x9c(%ebp)
    2bc6:	85 c0                	test   %eax,%eax
    2bc8:	0f 84 e7 02 00 00    	je     2eb5 <vfs_mount+0x7a5>
    2bce:	8b 85 48 ff ff ff    	mov    -0xb8(%ebp),%eax
    2bd4:	89 04 24             	mov    %eax,(%esp)
    2bd7:	e8 34 28 00 00       	call   5410 <vfs_exchange_release>
    2bdc:	8b 85 40 ff ff ff    	mov    -0xc0(%ebp),%eax
    2be2:	89 04 24             	mov    %eax,(%esp)
    2be5:	e8 46 1e 01 00       	call   14a30 <async_forget>
    2bea:	8b 85 3c ff ff ff    	mov    -0xc4(%ebp),%eax
    2bf0:	89 04 24             	mov    %eax,(%esp)
    2bf3:	e8 58 ec ff ff       	call   1850 <vfs_node_put>
    2bf8:	c7 04 24 44 48 02 00 	movl   $0x24844,(%esp)
    2bff:	e8 dc 73 00 00       	call   9fe0 <fibril_rwlock_write_unlock>
    2c04:	8b 85 64 ff ff ff    	mov    -0x9c(%ebp),%eax
    2c0a:	8b 55 08             	mov    0x8(%ebp),%edx
    2c0d:	89 44 24 04          	mov    %eax,0x4(%esp)
    2c11:	89 14 24             	mov    %edx,(%esp)
    2c14:	e8 57 26 01 00       	call   15270 <async_answer_0>
    2c19:	8b 85 64 ff ff ff    	mov    -0x9c(%ebp),%eax
    2c1f:	e9 a5 fe ff ff       	jmp    2ac9 <vfs_mount+0x3b9>
    2c24:	e8 07 42 00 00       	call   6e30 <str_cmp>
    2c29:	85 c0                	test   %eax,%eax
    2c2b:	0f 85 45 03 00 00    	jne    2f76 <vfs_mount+0x866>
    2c31:	0f bf c6             	movswl %si,%eax
    2c34:	89 04 24             	mov    %eax,(%esp)
    2c37:	e8 24 27 00 00       	call   5360 <vfs_exchange_grab>
    2c3c:	c7 44 24 14 00 00 00 	movl   $0x0,0x14(%esp)
    2c43:	00 
    2c44:	89 c1                	mov    %eax,%ecx
    2c46:	8d 45 c4             	lea    -0x3c(%ebp),%eax
    2c49:	89 0c 24             	mov    %ecx,(%esp)
    2c4c:	89 44 24 18          	mov    %eax,0x18(%esp)
    2c50:	c7 44 24 10 00 00 00 	movl   $0x0,0x10(%esp)
    2c57:	00 
    2c58:	c7 44 24 0c 00 00 00 	movl   $0x0,0xc(%esp)
    2c5f:	00 
    2c60:	89 7c 24 08          	mov    %edi,0x8(%esp)
    2c64:	c7 44 24 04 06 04 00 	movl   $0x406,0x4(%esp)
    2c6b:	00 
    2c6c:	89 8d 38 ff ff ff    	mov    %ecx,-0xc8(%ebp)
    2c72:	e8 99 19 01 00       	call   14610 <async_send_fast>
    2c77:	8b 95 44 ff ff ff    	mov    -0xbc(%ebp),%edx
    2c7d:	89 85 48 ff ff ff    	mov    %eax,-0xb8(%ebp)
    2c83:	89 14 24             	mov    %edx,(%esp)
    2c86:	e8 75 3c 00 00       	call   6900 <str_size>
    2c8b:	8b 95 44 ff ff ff    	mov    -0xbc(%ebp),%edx
    2c91:	8b 8d 38 ff ff ff    	mov    -0xc8(%ebp),%ecx
    2c97:	89 54 24 04          	mov    %edx,0x4(%esp)
    2c9b:	89 0c 24             	mov    %ecx,(%esp)
    2c9e:	89 44 24 08          	mov    %eax,0x8(%esp)
    2ca2:	e8 b9 3e 01 00       	call   16b60 <async_data_write_start>
    2ca7:	8b 8d 38 ff ff ff    	mov    -0xc8(%ebp),%ecx
    2cad:	89 0c 24             	mov    %ecx,(%esp)
    2cb0:	89 85 64 ff ff ff    	mov    %eax,-0x9c(%ebp)
    2cb6:	e8 55 27 00 00       	call   5410 <vfs_exchange_release>
    2cbb:	8b 85 64 ff ff ff    	mov    -0x9c(%ebp),%eax
    2cc1:	85 c0                	test   %eax,%eax
    2cc3:	0f 85 b6 01 00 00    	jne    2e7f <vfs_mount+0x76f>
    2cc9:	8d 85 64 ff ff ff    	lea    -0x9c(%ebp),%eax
    2ccf:	89 44 24 04          	mov    %eax,0x4(%esp)
    2cd3:	8b 85 48 ff ff ff    	mov    -0xb8(%ebp),%eax
    2cd9:	89 04 24             	mov    %eax,(%esp)
    2cdc:	e8 ff 1a 01 00       	call   147e0 <async_wait_for>
    2ce1:	8b 85 64 ff ff ff    	mov    -0x9c(%ebp),%eax
    2ce7:	85 c0                	test   %eax,%eax
    2ce9:	0f 85 09 ff ff ff    	jne    2bf8 <vfs_mount+0x4e8>
    2cef:	8b 45 d0             	mov    -0x30(%ebp),%eax
    2cf2:	31 d2                	xor    %edx,%edx
    2cf4:	89 85 30 ff ff ff    	mov    %eax,-0xd0(%ebp)
    2cfa:	8b 45 cc             	mov    -0x34(%ebp),%eax
    2cfd:	89 45 94             	mov    %eax,-0x6c(%ebp)
    2d00:	8b 45 d4             	mov    -0x2c(%ebp),%eax
    2d03:	89 95 34 ff ff ff    	mov    %edx,-0xcc(%ebp)
    2d09:	89 45 9c             	mov    %eax,-0x64(%ebp)
    2d0c:	8b 55 c8             	mov    -0x38(%ebp),%edx
    2d0f:	8d 45 84             	lea    -0x7c(%ebp),%eax
    2d12:	89 55 8c             	mov    %edx,-0x74(%ebp)
    2d15:	89 04 24             	mov    %eax,(%esp)
    2d18:	8b 95 30 ff ff ff    	mov    -0xd0(%ebp),%edx
    2d1e:	66 89 75 84          	mov    %si,-0x7c(%ebp)
    2d22:	89 7d 88             	mov    %edi,-0x78(%ebp)
    2d25:	89 55 98             	mov    %edx,-0x68(%ebp)
    2d28:	c7 45 90 02 00 00 00 	movl   $0x2,-0x70(%ebp)
    2d2f:	66 89 35 dc 4a 02 00 	mov    %si,0x24adc
    2d36:	89 3d e0 4a 02 00    	mov    %edi,0x24ae0
    2d3c:	e8 9f e9 ff ff       	call   16e0 <vfs_node_get>
    2d41:	85 c0                	test   %eax,%eax
    2d43:	0f 85 af fe ff ff    	jne    2bf8 <vfs_mount+0x4e8>
    2d49:	c7 44 24 08 a9 00 00 	movl   $0xa9,0x8(%esp)
    2d50:	00 
    2d51:	c7 44 24 04 ba 1e 02 	movl   $0x21eba,0x4(%esp)
    2d58:	00 
    2d59:	c7 04 24 c4 1e 02 00 	movl   $0x21ec4,(%esp)
    2d60:	e8 ab a1 01 00       	call   1cf10 <assert_abort>
    2d65:	8d 76 00             	lea    0x0(%esi),%esi
    2d68:	8b 85 58 ff ff ff    	mov    -0xa8(%ebp),%eax
    2d6e:	c7 44 24 04 00 00 01 	movl   $0x10000,0x4(%esp)
    2d75:	00 
    2d76:	89 44 24 08          	mov    %eax,0x8(%esp)
    2d7a:	8b 85 50 ff ff ff    	mov    -0xb0(%ebp),%eax
    2d80:	83 c0 08             	add    $0x8,%eax
    2d83:	89 04 24             	mov    %eax,(%esp)
    2d86:	e8 25 47 00 00       	call   74b0 <str_cpy>
    2d8b:	8b 85 60 ff ff ff    	mov    -0xa0(%ebp),%eax
    2d91:	89 44 24 08          	mov    %eax,0x8(%esp)
    2d95:	8b 85 50 ff ff ff    	mov    -0xb0(%ebp),%eax
    2d9b:	05 08 01 01 00       	add    $0x10108,%eax
    2da0:	c7 44 24 04 14 00 00 	movl   $0x14,0x4(%esp)
    2da7:	00 
    2da8:	89 04 24             	mov    %eax,(%esp)
    2dab:	e8 00 47 00 00       	call   74b0 <str_cpy>
    2db0:	8b 85 5c ff ff ff    	mov    -0xa4(%ebp),%eax
    2db6:	89 44 24 08          	mov    %eax,0x8(%esp)
    2dba:	8b 85 50 ff ff ff    	mov    -0xb0(%ebp),%eax
    2dc0:	05 08 00 01 00       	add    $0x10008,%eax
    2dc5:	c7 44 24 04 00 01 00 	movl   $0x100,0x4(%esp)
    2dcc:	00 
    2dcd:	89 04 24             	mov    %eax,(%esp)
    2dd0:	e8 db 46 00 00       	call   74b0 <str_cpy>
    2dd5:	8b 85 50 ff ff ff    	mov    -0xb0(%ebp),%eax
    2ddb:	89 98 1c 01 01 00    	mov    %ebx,0x1011c(%eax)
    2de1:	89 b8 20 01 01 00    	mov    %edi,0x10120(%eax)
    2de7:	c7 00 00 00 00 00    	movl   $0x0,(%eax)
    2ded:	c7 40 04 00 00 00 00 	movl   $0x0,0x4(%eax)
    2df4:	c7 04 24 60 48 02 00 	movl   $0x24860,(%esp)
    2dfb:	e8 20 6d 00 00       	call   9b20 <fibril_mutex_lock>
    2e00:	8b 85 50 ff ff ff    	mov    -0xb0(%ebp),%eax
    2e06:	8b 95 50 ff ff ff    	mov    -0xb0(%ebp),%edx
    2e0c:	c7 40 04 58 48 02 00 	movl   $0x24858,0x4(%eax)
    2e13:	a1 58 48 02 00       	mov    0x24858,%eax
    2e18:	89 15 58 48 02 00    	mov    %edx,0x24858
    2e1e:	89 02                	mov    %eax,(%edx)
    2e20:	89 50 04             	mov    %edx,0x4(%eax)
    2e23:	a1 e4 4a 02 00       	mov    0x24ae4,%eax
    2e28:	40                   	inc    %eax
    2e29:	c7 04 24 60 48 02 00 	movl   $0x24860,(%esp)
    2e30:	a3 e4 4a 02 00       	mov    %eax,0x24ae4
    2e35:	e8 06 6e 00 00       	call   9c40 <fibril_mutex_unlock>
    2e3a:	8b 85 58 ff ff ff    	mov    -0xa8(%ebp),%eax
    2e40:	89 04 24             	mov    %eax,(%esp)
    2e43:	e8 f8 f9 00 00       	call   12840 <free>
    2e48:	8b 85 60 ff ff ff    	mov    -0xa0(%ebp),%eax
    2e4e:	89 04 24             	mov    %eax,(%esp)
    2e51:	e8 ea f9 00 00       	call   12840 <free>
    2e56:	8b 85 5c ff ff ff    	mov    -0xa4(%ebp),%eax
    2e5c:	89 04 24             	mov    %eax,(%esp)
    2e5f:	e8 dc f9 00 00       	call   12840 <free>
    2e64:	8b 85 54 ff ff ff    	mov    -0xac(%ebp),%eax
    2e6a:	c7 44 24 04 00 00 00 	movl   $0x0,0x4(%esp)
    2e71:	00 
    2e72:	89 04 24             	mov    %eax,(%esp)
    2e75:	e8 f6 23 01 00       	call   15270 <async_answer_0>
    2e7a:	e9 46 f9 ff ff       	jmp    27c5 <vfs_mount+0xb5>
    2e7f:	8b 85 48 ff ff ff    	mov    -0xb8(%ebp),%eax
    2e85:	89 04 24             	mov    %eax,(%esp)
    2e88:	e8 a3 1b 01 00       	call   14a30 <async_forget>
    2e8d:	e9 66 fd ff ff       	jmp    2bf8 <vfs_mount+0x4e8>
    2e92:	8b 85 54 ff ff ff    	mov    -0xac(%ebp),%eax
    2e98:	c7 44 24 04 fe ff ff 	movl   $0xfffffffe,0x4(%esp)
    2e9f:	ff 
    2ea0:	89 04 24             	mov    %eax,(%esp)
    2ea3:	e8 c8 23 01 00       	call   15270 <async_answer_0>
    2ea8:	c7 44 24 04 fe ff ff 	movl   $0xfffffffe,0x4(%esp)
    2eaf:	ff 
    2eb0:	e9 a7 fc ff ff       	jmp    2b5c <vfs_mount+0x44c>
    2eb5:	8d 85 64 ff ff ff    	lea    -0x9c(%ebp),%eax
    2ebb:	89 44 24 04          	mov    %eax,0x4(%esp)
    2ebf:	8b 85 40 ff ff ff    	mov    -0xc0(%ebp),%eax
    2ec5:	89 04 24             	mov    %eax,(%esp)
    2ec8:	e8 13 19 01 00       	call   147e0 <async_wait_for>
    2ecd:	8b 85 48 ff ff ff    	mov    -0xb8(%ebp),%eax
    2ed3:	89 04 24             	mov    %eax,(%esp)
    2ed6:	e8 35 25 00 00       	call   5410 <vfs_exchange_release>
    2edb:	8b 95 64 ff ff ff    	mov    -0x9c(%ebp),%edx
    2ee1:	85 d2                	test   %edx,%edx
    2ee3:	0f 85 ab fb ff ff    	jne    2a94 <vfs_mount+0x384>
    2ee9:	8b 45 d0             	mov    -0x30(%ebp),%eax
    2eec:	31 d2                	xor    %edx,%edx
    2eee:	89 85 48 ff ff ff    	mov    %eax,-0xb8(%ebp)
    2ef4:	8b 45 c8             	mov    -0x38(%ebp),%eax
    2ef7:	89 45 8c             	mov    %eax,-0x74(%ebp)
    2efa:	8b 45 d4             	mov    -0x2c(%ebp),%eax
    2efd:	89 95 4c ff ff ff    	mov    %edx,-0xb4(%ebp)
    2f03:	89 45 9c             	mov    %eax,-0x64(%ebp)
    2f06:	8b 55 cc             	mov    -0x34(%ebp),%edx
    2f09:	8d 45 84             	lea    -0x7c(%ebp),%eax
    2f0c:	89 55 94             	mov    %edx,-0x6c(%ebp)
    2f0f:	89 04 24             	mov    %eax,(%esp)
    2f12:	8b 95 48 ff ff ff    	mov    -0xb8(%ebp),%edx
    2f18:	66 89 75 84          	mov    %si,-0x7c(%ebp)
    2f1c:	89 7d 88             	mov    %edi,-0x78(%ebp)
    2f1f:	89 55 98             	mov    %edx,-0x68(%ebp)
    2f22:	c7 45 90 02 00 00 00 	movl   $0x2,-0x70(%ebp)
    2f29:	e8 b2 e7 ff ff       	call   16e0 <vfs_node_get>
    2f2e:	85 c0                	test   %eax,%eax
    2f30:	0f 85 6c fb ff ff    	jne    2aa2 <vfs_mount+0x392>
    2f36:	c7 44 24 08 00 01 00 	movl   $0x100,0x8(%esp)
    2f3d:	00 
    2f3e:	c7 44 24 04 ba 1e 02 	movl   $0x21eba,0x4(%esp)
    2f45:	00 
    2f46:	c7 04 24 c4 1e 02 00 	movl   $0x21ec4,(%esp)
    2f4d:	e8 be 9f 01 00       	call   1cf10 <assert_abort>
    2f52:	c7 04 24 44 48 02 00 	movl   $0x24844,(%esp)
    2f59:	e8 82 70 00 00       	call   9fe0 <fibril_rwlock_write_unlock>
    2f5e:	8b 55 08             	mov    0x8(%ebp),%edx
    2f61:	c7 44 24 04 f1 ff ff 	movl   $0xfffffff1,0x4(%esp)
    2f68:	ff 
    2f69:	89 14 24             	mov    %edx,(%esp)
    2f6c:	e8 ff 22 01 00       	call   15270 <async_answer_0>
    2f71:	e9 5b fb ff ff       	jmp    2ad1 <vfs_mount+0x3c1>
    2f76:	c7 04 24 44 48 02 00 	movl   $0x24844,(%esp)
    2f7d:	e8 5e 70 00 00       	call   9fe0 <fibril_rwlock_write_unlock>
    2f82:	8b 55 08             	mov    0x8(%ebp),%edx
    2f85:	c7 44 24 04 ff ff ff 	movl   $0xffffffff,0x4(%esp)
    2f8c:	ff 
    2f8d:	89 14 24             	mov    %edx,(%esp)
    2f90:	e8 db 22 01 00       	call   15270 <async_answer_0>
    2f95:	e9 37 fb ff ff       	jmp    2ad1 <vfs_mount+0x3c1>
    2f9a:	c7 44 24 08 bf 00 00 	movl   $0xbf,0x8(%esp)
    2fa1:	00 
    2fa2:	c7 44 24 04 ba 1e 02 	movl   $0x21eba,0x4(%esp)
    2fa9:	00 
    2faa:	c7 04 24 cc 1e 02 00 	movl   $0x21ecc,(%esp)
    2fb1:	e8 5a 9f 01 00       	call   1cf10 <assert_abort>
    2fb6:	c7 04 24 44 48 02 00 	movl   $0x24844,(%esp)
    2fbd:	e8 1e 70 00 00       	call   9fe0 <fibril_rwlock_write_unlock>
    2fc2:	8b 55 08             	mov    0x8(%ebp),%edx
    2fc5:	c7 44 24 04 fe ff ff 	movl   $0xfffffffe,0x4(%esp)
    2fcc:	ff 
    2fcd:	89 14 24             	mov    %edx,(%esp)
    2fd0:	e8 9b 22 01 00       	call   15270 <async_answer_0>
    2fd5:	e9 f7 fa ff ff       	jmp    2ad1 <vfs_mount+0x3c1>
    2fda:	8d b6 00 00 00 00    	lea    0x0(%esi),%esi

00002fe0 <vfs_unmount>:
    2fe0:	55                   	push   %ebp
    2fe1:	89 e5                	mov    %esp,%ebp
    2fe3:	57                   	push   %edi
    2fe4:	56                   	push   %esi
    2fe5:	53                   	push   %ebx
    2fe6:	81 ec 8c 00 00 00    	sub    $0x8c,%esp
    2fec:	8d 45 ac             	lea    -0x54(%ebp),%eax
    2fef:	8b 75 08             	mov    0x8(%ebp),%esi
    2ff2:	c7 44 24 14 00 00 00 	movl   $0x0,0x14(%esp)
    2ff9:	00 
    2ffa:	c7 44 24 10 00 00 00 	movl   $0x0,0x10(%esp)
    3001:	00 
    3002:	c7 44 24 0c 00 00 01 	movl   $0x10000,0xc(%esp)
    3009:	00 
    300a:	c7 44 24 08 00 00 00 	movl   $0x0,0x8(%esp)
    3011:	00 
    3012:	c7 44 24 04 01 00 00 	movl   $0x1,0x4(%esp)
    3019:	00 
    301a:	89 04 24             	mov    %eax,(%esp)
    301d:	e8 6e 3d 01 00       	call   16d90 <async_data_write_accept>
    3022:	85 c0                	test   %eax,%eax
    3024:	0f 85 ce 00 00 00    	jne    30f8 <vfs_unmount+0x118>
    302a:	c7 04 24 44 48 02 00 	movl   $0x24844,(%esp)
    3031:	8d 5d cc             	lea    -0x34(%ebp),%ebx
    3034:	e8 67 6e 00 00       	call   9ea0 <fibril_rwlock_write_lock>
    3039:	8b 45 ac             	mov    -0x54(%ebp),%eax
    303c:	c7 44 24 0c 00 00 00 	movl   $0x0,0xc(%esp)
    3043:	00 
    3044:	89 5c 24 08          	mov    %ebx,0x8(%esp)
    3048:	c7 44 24 04 04 00 00 	movl   $0x4,0x4(%esp)
    304f:	00 
    3050:	89 04 24             	mov    %eax,(%esp)
    3053:	e8 d8 1c 00 00       	call   4d30 <vfs_lookup_internal>
    3058:	85 c0                	test   %eax,%eax
    305a:	74 34                	je     3090 <vfs_unmount+0xb0>
    305c:	c7 04 24 44 48 02 00 	movl   $0x24844,(%esp)
    3063:	89 45 a4             	mov    %eax,-0x5c(%ebp)
    3066:	e8 75 6f 00 00       	call   9fe0 <fibril_rwlock_write_unlock>
    306b:	8b 55 ac             	mov    -0x54(%ebp),%edx
    306e:	89 14 24             	mov    %edx,(%esp)
    3071:	e8 ca f7 00 00       	call   12840 <free>
    3076:	8b 45 a4             	mov    -0x5c(%ebp),%eax
    3079:	89 44 24 04          	mov    %eax,0x4(%esp)
    307d:	89 34 24             	mov    %esi,(%esp)
    3080:	e8 eb 21 01 00       	call   15270 <async_answer_0>
    3085:	81 c4 8c 00 00 00    	add    $0x8c,%esp
    308b:	5b                   	pop    %ebx
    308c:	5e                   	pop    %esi
    308d:	5f                   	pop    %edi
    308e:	5d                   	pop    %ebp
    308f:	c3                   	ret    
    3090:	89 1c 24             	mov    %ebx,(%esp)
    3093:	e8 48 e6 ff ff       	call   16e0 <vfs_node_get>
    3098:	89 c3                	mov    %eax,%ebx
    309a:	85 c0                	test   %eax,%eax
    309c:	74 72                	je     3110 <vfs_unmount+0x130>
    309e:	8b 40 04             	mov    0x4(%eax),%eax
    30a1:	89 44 24 04          	mov    %eax,0x4(%esp)
    30a5:	0f bf 03             	movswl (%ebx),%eax
    30a8:	89 04 24             	mov    %eax,(%esp)
    30ab:	e8 b0 e7 ff ff       	call   1860 <vfs_nodes_refcount_sum_get>
    30b0:	83 f8 02             	cmp    $0x2,%eax
    30b3:	0f 84 87 00 00 00    	je     3140 <vfs_unmount+0x160>
    30b9:	c7 04 24 44 48 02 00 	movl   $0x24844,(%esp)
    30c0:	e8 1b 6f 00 00       	call   9fe0 <fibril_rwlock_write_unlock>
    30c5:	89 1c 24             	mov    %ebx,(%esp)
    30c8:	e8 83 e7 ff ff       	call   1850 <vfs_node_put>
    30cd:	8b 45 ac             	mov    -0x54(%ebp),%eax
    30d0:	89 04 24             	mov    %eax,(%esp)
    30d3:	e8 68 f7 00 00       	call   12840 <free>
    30d8:	89 34 24             	mov    %esi,(%esp)
    30db:	c7 44 24 04 f1 ff ff 	movl   $0xfffffff1,0x4(%esp)
    30e2:	ff 
    30e3:	e8 88 21 01 00       	call   15270 <async_answer_0>
    30e8:	81 c4 8c 00 00 00    	add    $0x8c,%esp
    30ee:	5b                   	pop    %ebx
    30ef:	5e                   	pop    %esi
    30f0:	5f                   	pop    %edi
    30f1:	5d                   	pop    %ebp
    30f2:	c3                   	ret    
    30f3:	90                   	nop
    30f4:	8d 74 26 00          	lea    0x0(%esi,%eiz,1),%esi
    30f8:	89 44 24 04          	mov    %eax,0x4(%esp)
    30fc:	89 34 24             	mov    %esi,(%esp)
    30ff:	e8 6c 21 01 00       	call   15270 <async_answer_0>
    3104:	e9 21 ff ff ff       	jmp    302a <vfs_unmount+0x4a>
    3109:	8d b4 26 00 00 00 00 	lea    0x0(%esi,%eiz,1),%esi
    3110:	c7 04 24 44 48 02 00 	movl   $0x24844,(%esp)
    3117:	e8 c4 6e 00 00       	call   9fe0 <fibril_rwlock_write_unlock>
    311c:	8b 45 ac             	mov    -0x54(%ebp),%eax
    311f:	89 04 24             	mov    %eax,(%esp)
    3122:	e8 19 f7 00 00       	call   12840 <free>
    3127:	c7 44 24 04 fe ff ff 	movl   $0xfffffffe,0x4(%esp)
    312e:	ff 
    312f:	89 34 24             	mov    %esi,(%esp)
    3132:	e8 39 21 01 00       	call   15270 <async_answer_0>
    3137:	e9 49 ff ff ff       	jmp    3085 <vfs_unmount+0xa5>
    313c:	8d 74 26 00          	lea    0x0(%esi,%eiz,1),%esi
    3140:	8b 45 ac             	mov    -0x54(%ebp),%eax
    3143:	c7 44 24 04 b8 1e 02 	movl   $0x21eb8,0x4(%esp)
    314a:	00 
    314b:	89 04 24             	mov    %eax,(%esp)
    314e:	e8 dd 3c 00 00       	call   6e30 <str_cmp>
    3153:	85 c0                	test   %eax,%eax
    3155:	0f 85 4d 01 00 00    	jne    32a8 <vfs_unmount+0x2c8>
    315b:	0f bf 03             	movswl (%ebx),%eax
    315e:	89 04 24             	mov    %eax,(%esp)
    3161:	e8 fa 21 00 00       	call   5360 <vfs_exchange_grab>
    3166:	c7 44 24 28 00 00 00 	movl   $0x0,0x28(%esp)
    316d:	00 
    316e:	c7 44 24 24 00 00 00 	movl   $0x0,0x24(%esp)
    3175:	00 
    3176:	c7 44 24 20 00 00 00 	movl   $0x0,0x20(%esp)
    317d:	00 
    317e:	c7 44 24 1c 00 00 00 	movl   $0x0,0x1c(%esp)
    3185:	00 
    3186:	c7 44 24 18 00 00 00 	movl   $0x0,0x18(%esp)
    318d:	00 
    318e:	c7 44 24 14 00 00 00 	movl   $0x0,0x14(%esp)
    3195:	00 
    3196:	c7 44 24 10 00 00 00 	movl   $0x0,0x10(%esp)
    319d:	00 
    319e:	c7 44 24 0c 00 00 00 	movl   $0x0,0xc(%esp)
    31a5:	00 
    31a6:	89 c7                	mov    %eax,%edi
    31a8:	8b 43 04             	mov    0x4(%ebx),%eax
    31ab:	c7 44 24 04 08 04 00 	movl   $0x408,0x4(%esp)
    31b2:	00 
    31b3:	89 44 24 08          	mov    %eax,0x8(%esp)
    31b7:	89 3c 24             	mov    %edi,(%esp)
    31ba:	e8 61 1a 01 00       	call   14c20 <async_req_fast>
    31bf:	89 3c 24             	mov    %edi,(%esp)
    31c2:	89 45 a4             	mov    %eax,-0x5c(%ebp)
    31c5:	e8 46 22 00 00       	call   5410 <vfs_exchange_release>
    31ca:	8b 45 a4             	mov    -0x5c(%ebp),%eax
    31cd:	85 c0                	test   %eax,%eax
    31cf:	0f 85 eb 01 00 00    	jne    33c0 <vfs_unmount+0x3e0>
    31d5:	66 c7 05 dc 4a 02 00 	movw   $0x0,0x24adc
    31dc:	00 00 
    31de:	c7 05 e0 4a 02 00 00 	movl   $0x0,0x24ae0
    31e5:	00 00 00 
    31e8:	89 1c 24             	mov    %ebx,(%esp)
    31eb:	e8 a0 e4 ff ff       	call   1690 <vfs_node_forget>
    31f0:	c7 04 24 44 48 02 00 	movl   $0x24844,(%esp)
    31f7:	e8 e4 6d 00 00       	call   9fe0 <fibril_rwlock_write_unlock>
    31fc:	c7 04 24 60 48 02 00 	movl   $0x24860,(%esp)
    3203:	e8 18 69 00 00       	call   9b20 <fibril_mutex_lock>
    3208:	8b 1d 5c 48 02 00    	mov    0x2485c,%ebx
    320e:	81 fb 58 48 02 00    	cmp    $0x24858,%ebx
    3214:	75 19                	jne    322f <vfs_unmount+0x24f>
    3216:	e9 c5 01 00 00       	jmp    33e0 <vfs_unmount+0x400>
    321b:	90                   	nop
    321c:	8d 74 26 00          	lea    0x0(%esi,%eiz,1),%esi
    3220:	8b 5b 04             	mov    0x4(%ebx),%ebx
    3223:	81 fb 58 48 02 00    	cmp    $0x24858,%ebx
    3229:	0f 84 b1 01 00 00    	je     33e0 <vfs_unmount+0x400>
    322f:	8b 45 ac             	mov    -0x54(%ebp),%eax
    3232:	89 44 24 04          	mov    %eax,0x4(%esp)
    3236:	8d 43 08             	lea    0x8(%ebx),%eax
    3239:	89 04 24             	mov    %eax,(%esp)
    323c:	e8 ef 3b 00 00       	call   6e30 <str_cmp>
    3241:	85 c0                	test   %eax,%eax
    3243:	75 db                	jne    3220 <vfs_unmount+0x240>
    3245:	8b 13                	mov    (%ebx),%edx
    3247:	85 d2                	test   %edx,%edx
    3249:	74 0e                	je     3259 <vfs_unmount+0x279>
    324b:	8b 43 04             	mov    0x4(%ebx),%eax
    324e:	85 c0                	test   %eax,%eax
    3250:	74 07                	je     3259 <vfs_unmount+0x279>
    3252:	89 10                	mov    %edx,(%eax)
    3254:	8b 13                	mov    (%ebx),%edx
    3256:	89 42 04             	mov    %eax,0x4(%edx)
    3259:	a1 e4 4a 02 00       	mov    0x24ae4,%eax
    325e:	c7 03 00 00 00 00    	movl   $0x0,(%ebx)
    3264:	48                   	dec    %eax
    3265:	c7 43 04 00 00 00 00 	movl   $0x0,0x4(%ebx)
    326c:	89 1c 24             	mov    %ebx,(%esp)
    326f:	a3 e4 4a 02 00       	mov    %eax,0x24ae4
    3274:	e8 c7 f5 00 00       	call   12840 <free>
    3279:	c7 04 24 60 48 02 00 	movl   $0x24860,(%esp)
    3280:	e8 bb 69 00 00       	call   9c40 <fibril_mutex_unlock>
    3285:	8b 45 ac             	mov    -0x54(%ebp),%eax
    3288:	89 04 24             	mov    %eax,(%esp)
    328b:	e8 b0 f5 00 00       	call   12840 <free>
    3290:	c7 44 24 04 00 00 00 	movl   $0x0,0x4(%esp)
    3297:	00 
    3298:	89 34 24             	mov    %esi,(%esp)
    329b:	e8 d0 1f 01 00       	call   15270 <async_answer_0>
    32a0:	e9 e0 fd ff ff       	jmp    3085 <vfs_unmount+0xa5>
    32a5:	8d 76 00             	lea    0x0(%esi),%esi
    32a8:	8b 45 ac             	mov    -0x54(%ebp),%eax
    32ab:	8d 7d b0             	lea    -0x50(%ebp),%edi
    32ae:	c7 44 24 0c 00 00 00 	movl   $0x0,0xc(%esp)
    32b5:	00 
    32b6:	89 7c 24 08          	mov    %edi,0x8(%esp)
    32ba:	c7 44 24 04 08 00 00 	movl   $0x8,0x4(%esp)
    32c1:	00 
    32c2:	89 04 24             	mov    %eax,(%esp)
    32c5:	e8 66 1a 00 00       	call   4d30 <vfs_lookup_internal>
    32ca:	85 c0                	test   %eax,%eax
    32cc:	0f 85 ce 00 00 00    	jne    33a0 <vfs_unmount+0x3c0>
    32d2:	89 3c 24             	mov    %edi,(%esp)
    32d5:	e8 06 e4 ff ff       	call   16e0 <vfs_node_get>
    32da:	89 c7                	mov    %eax,%edi
    32dc:	85 c0                	test   %eax,%eax
    32de:	0f 84 31 01 00 00    	je     3415 <vfs_unmount+0x435>
    32e4:	0f bf 00             	movswl (%eax),%eax
    32e7:	89 04 24             	mov    %eax,(%esp)
    32ea:	e8 71 20 00 00       	call   5360 <vfs_exchange_grab>
    32ef:	c7 44 24 28 00 00 00 	movl   $0x0,0x28(%esp)
    32f6:	00 
    32f7:	c7 44 24 24 00 00 00 	movl   $0x0,0x24(%esp)
    32fe:	00 
    32ff:	c7 44 24 20 00 00 00 	movl   $0x0,0x20(%esp)
    3306:	00 
    3307:	c7 44 24 1c 00 00 00 	movl   $0x0,0x1c(%esp)
    330e:	00 
    330f:	c7 44 24 18 00 00 00 	movl   $0x0,0x18(%esp)
    3316:	00 
    3317:	c7 44 24 14 00 00 00 	movl   $0x0,0x14(%esp)
    331e:	00 
    331f:	c7 44 24 10 00 00 00 	movl   $0x0,0x10(%esp)
    3326:	00 
    3327:	89 c2                	mov    %eax,%edx
    3329:	8b 47 08             	mov    0x8(%edi),%eax
    332c:	89 44 24 0c          	mov    %eax,0xc(%esp)
    3330:	8b 47 04             	mov    0x4(%edi),%eax
    3333:	89 14 24             	mov    %edx,(%esp)
    3336:	89 44 24 08          	mov    %eax,0x8(%esp)
    333a:	c7 44 24 04 07 04 00 	movl   $0x407,0x4(%esp)
    3341:	00 
    3342:	89 55 a4             	mov    %edx,-0x5c(%ebp)
    3345:	e8 d6 18 01 00       	call   14c20 <async_req_fast>
    334a:	8b 55 a4             	mov    -0x5c(%ebp),%edx
    334d:	89 45 a4             	mov    %eax,-0x5c(%ebp)
    3350:	89 14 24             	mov    %edx,(%esp)
    3353:	e8 b8 20 00 00       	call   5410 <vfs_exchange_release>
    3358:	8b 45 a4             	mov    -0x5c(%ebp),%eax
    335b:	85 c0                	test   %eax,%eax
    335d:	0f 84 9d 00 00 00    	je     3400 <vfs_unmount+0x420>
    3363:	c7 04 24 44 48 02 00 	movl   $0x24844,(%esp)
    336a:	e8 71 6c 00 00       	call   9fe0 <fibril_rwlock_write_unlock>
    336f:	8b 55 ac             	mov    -0x54(%ebp),%edx
    3372:	89 14 24             	mov    %edx,(%esp)
    3375:	e8 c6 f4 00 00       	call   12840 <free>
    337a:	89 3c 24             	mov    %edi,(%esp)
    337d:	e8 ce e4 ff ff       	call   1850 <vfs_node_put>
    3382:	89 1c 24             	mov    %ebx,(%esp)
    3385:	e8 c6 e4 ff ff       	call   1850 <vfs_node_put>
    338a:	8b 45 a4             	mov    -0x5c(%ebp),%eax
    338d:	89 44 24 04          	mov    %eax,0x4(%esp)
    3391:	89 34 24             	mov    %esi,(%esp)
    3394:	e8 d7 1e 01 00       	call   15270 <async_answer_0>
    3399:	e9 e7 fc ff ff       	jmp    3085 <vfs_unmount+0xa5>
    339e:	66 90                	xchg   %ax,%ax
    33a0:	c7 04 24 44 48 02 00 	movl   $0x24844,(%esp)
    33a7:	89 45 a4             	mov    %eax,-0x5c(%ebp)
    33aa:	e8 31 6c 00 00       	call   9fe0 <fibril_rwlock_write_unlock>
    33af:	8b 55 ac             	mov    -0x54(%ebp),%edx
    33b2:	89 14 24             	mov    %edx,(%esp)
    33b5:	e8 86 f4 00 00       	call   12840 <free>
    33ba:	eb c6                	jmp    3382 <vfs_unmount+0x3a2>
    33bc:	8d 74 26 00          	lea    0x0(%esi,%eiz,1),%esi
    33c0:	c7 04 24 44 48 02 00 	movl   $0x24844,(%esp)
    33c7:	e8 14 6c 00 00       	call   9fe0 <fibril_rwlock_write_unlock>
    33cc:	8b 55 ac             	mov    -0x54(%ebp),%edx
    33cf:	89 14 24             	mov    %edx,(%esp)
    33d2:	e8 69 f4 00 00       	call   12840 <free>
    33d7:	eb a9                	jmp    3382 <vfs_unmount+0x3a2>
    33d9:	8d b4 26 00 00 00 00 	lea    0x0(%esi,%eiz,1),%esi
    33e0:	c7 44 24 08 32 02 00 	movl   $0x232,0x8(%esp)
    33e7:	00 
    33e8:	c7 44 24 04 ba 1e 02 	movl   $0x21eba,0x4(%esp)
    33ef:	00 
    33f0:	c7 04 24 d9 1e 02 00 	movl   $0x21ed9,(%esp)
    33f7:	e8 14 9b 01 00       	call   1cf10 <assert_abort>
    33fc:	8d 74 26 00          	lea    0x0(%esi,%eiz,1),%esi
    3400:	89 3c 24             	mov    %edi,(%esp)
    3403:	e8 48 e4 ff ff       	call   1850 <vfs_node_put>
    3408:	89 3c 24             	mov    %edi,(%esp)
    340b:	e8 40 e4 ff ff       	call   1850 <vfs_node_put>
    3410:	e9 d3 fd ff ff       	jmp    31e8 <vfs_unmount+0x208>
    3415:	c7 04 24 44 48 02 00 	movl   $0x24844,(%esp)
    341c:	e8 bf 6b 00 00       	call   9fe0 <fibril_rwlock_write_unlock>
    3421:	8b 45 ac             	mov    -0x54(%ebp),%eax
    3424:	89 04 24             	mov    %eax,(%esp)
    3427:	e8 14 f4 00 00       	call   12840 <free>
    342c:	89 1c 24             	mov    %ebx,(%esp)
    342f:	e8 1c e4 ff ff       	call   1850 <vfs_node_put>
    3434:	c7 44 24 04 fe ff ff 	movl   $0xfffffffe,0x4(%esp)
    343b:	ff 
    343c:	89 34 24             	mov    %esi,(%esp)
    343f:	e8 2c 1e 01 00       	call   15270 <async_answer_0>
    3444:	e9 3c fc ff ff       	jmp    3085 <vfs_unmount+0xa5>
    3449:	8d b4 26 00 00 00 00 	lea    0x0(%esi,%eiz,1),%esi

00003450 <vfs_open>:
    3450:	55                   	push   %ebp
    3451:	89 e5                	mov    %esp,%ebp
    3453:	57                   	push   %edi
    3454:	56                   	push   %esi
    3455:	53                   	push   %ebx
    3456:	83 ec 6c             	sub    $0x6c,%esp
    3459:	8b 55 0c             	mov    0xc(%ebp),%edx
    345c:	8b 42 04             	mov    0x4(%edx),%eax
    345f:	8b 5a 08             	mov    0x8(%edx),%ebx
    3462:	89 c2                	mov    %eax,%edx
    3464:	83 e2 03             	and    $0x3,%edx
    3467:	83 fa 03             	cmp    $0x3,%edx
    346a:	74 0b                	je     3477 <vfs_open+0x27>
    346c:	85 d2                	test   %edx,%edx
    346e:	74 07                	je     3477 <vfs_open+0x27>
    3470:	a9 0c 01 00 00       	test   $0x10c,%eax
    3475:	74 21                	je     3498 <vfs_open+0x48>
    3477:	8b 45 08             	mov    0x8(%ebp),%eax
    347a:	c7 44 24 04 f2 ff ff 	movl   $0xfffffff2,0x4(%esp)
    3481:	ff 
    3482:	89 04 24             	mov    %eax,(%esp)
    3485:	e8 e6 1d 01 00       	call   15270 <async_answer_0>
    348a:	83 c4 6c             	add    $0x6c,%esp
    348d:	5b                   	pop    %ebx
    348e:	5e                   	pop    %esi
    348f:	5f                   	pop    %edi
    3490:	5d                   	pop    %ebp
    3491:	c3                   	ret    
    3492:	8d b6 00 00 00 00    	lea    0x0(%esi),%esi
    3498:	89 c6                	mov    %eax,%esi
    349a:	83 ce 20             	or     $0x20,%esi
    349d:	f6 c3 01             	test   $0x1,%bl
    34a0:	0f 84 c2 00 00 00    	je     3568 <vfs_open+0x118>
    34a6:	f6 c3 02             	test   $0x2,%bl
    34a9:	0f 85 b1 00 00 00    	jne    3560 <vfs_open+0x110>
    34af:	8d 45 c8             	lea    -0x38(%ebp),%eax
    34b2:	c7 44 24 14 00 00 00 	movl   $0x0,0x14(%esp)
    34b9:	00 
    34ba:	c7 44 24 10 00 00 00 	movl   $0x0,0x10(%esp)
    34c1:	00 
    34c2:	c7 44 24 0c 00 00 00 	movl   $0x0,0xc(%esp)
    34c9:	00 
    34ca:	c7 44 24 08 00 00 00 	movl   $0x0,0x8(%esp)
    34d1:	00 
    34d2:	c7 44 24 04 01 00 00 	movl   $0x1,0x4(%esp)
    34d9:	00 
    34da:	89 04 24             	mov    %eax,(%esp)
    34dd:	e8 ae 38 01 00       	call   16d90 <async_data_write_accept>
    34e2:	85 c0                	test   %eax,%eax
    34e4:	0f 85 ee 00 00 00    	jne    35d8 <vfs_open+0x188>
    34ea:	c7 04 24 44 48 02 00 	movl   $0x24844,(%esp)
    34f1:	f7 c6 20 00 00 00    	test   $0x20,%esi
    34f7:	75 7f                	jne    3578 <vfs_open+0x128>
    34f9:	e8 c2 68 00 00       	call   9dc0 <fibril_rwlock_read_lock>
    34fe:	81 ce 00 01 00 00    	or     $0x100,%esi
    3504:	8b 45 c8             	mov    -0x38(%ebp),%eax
    3507:	8d 7d cc             	lea    -0x34(%ebp),%edi
    350a:	c7 44 24 0c 00 00 00 	movl   $0x0,0xc(%esp)
    3511:	00 
    3512:	89 7c 24 08          	mov    %edi,0x8(%esp)
    3516:	89 74 24 04          	mov    %esi,0x4(%esp)
    351a:	89 04 24             	mov    %eax,(%esp)
    351d:	e8 0e 18 00 00       	call   4d30 <vfs_lookup_internal>
    3522:	85 c0                	test   %eax,%eax
    3524:	0f 84 c6 00 00 00    	je     35f0 <vfs_open+0x1a0>
    352a:	c7 04 24 44 48 02 00 	movl   $0x24844,(%esp)
    3531:	89 45 c0             	mov    %eax,-0x40(%ebp)
    3534:	e8 47 6a 00 00       	call   9f80 <fibril_rwlock_read_unlock>
    3539:	8b 45 c0             	mov    -0x40(%ebp),%eax
    353c:	89 44 24 04          	mov    %eax,0x4(%esp)
    3540:	8b 45 08             	mov    0x8(%ebp),%eax
    3543:	89 04 24             	mov    %eax,(%esp)
    3546:	e8 25 1d 01 00       	call   15270 <async_answer_0>
    354b:	8b 45 c8             	mov    -0x38(%ebp),%eax
    354e:	89 04 24             	mov    %eax,(%esp)
    3551:	e8 ea f2 00 00       	call   12840 <free>
    3556:	83 c4 6c             	add    $0x6c,%esp
    3559:	5b                   	pop    %ebx
    355a:	5e                   	pop    %esi
    355b:	5f                   	pop    %edi
    355c:	5d                   	pop    %ebp
    355d:	c3                   	ret    
    355e:	66 90                	xchg   %ax,%ax
    3560:	83 ce 10             	or     $0x10,%esi
    3563:	e9 47 ff ff ff       	jmp    34af <vfs_open+0x5f>
    3568:	89 c6                	mov    %eax,%esi
    356a:	f6 c3 02             	test   $0x2,%bl
    356d:	0f 84 3c ff ff ff    	je     34af <vfs_open+0x5f>
    3573:	eb eb                	jmp    3560 <vfs_open+0x110>
    3575:	8d 76 00             	lea    0x0(%esi),%esi
    3578:	e8 23 69 00 00       	call   9ea0 <fibril_rwlock_write_lock>
    357d:	81 ce 00 01 00 00    	or     $0x100,%esi
    3583:	8b 45 c8             	mov    -0x38(%ebp),%eax
    3586:	8d 7d cc             	lea    -0x34(%ebp),%edi
    3589:	c7 44 24 0c 00 00 00 	movl   $0x0,0xc(%esp)
    3590:	00 
    3591:	89 7c 24 08          	mov    %edi,0x8(%esp)
    3595:	89 74 24 04          	mov    %esi,0x4(%esp)
    3599:	89 04 24             	mov    %eax,(%esp)
    359c:	e8 8f 17 00 00       	call   4d30 <vfs_lookup_internal>
    35a1:	85 c0                	test   %eax,%eax
    35a3:	0f 84 9f 01 00 00    	je     3748 <vfs_open+0x2f8>
    35a9:	c7 04 24 44 48 02 00 	movl   $0x24844,(%esp)
    35b0:	89 45 c0             	mov    %eax,-0x40(%ebp)
    35b3:	e8 28 6a 00 00       	call   9fe0 <fibril_rwlock_write_unlock>
    35b8:	8b 45 c0             	mov    -0x40(%ebp),%eax
    35bb:	e9 7c ff ff ff       	jmp    353c <vfs_open+0xec>
    35c0:	89 3c 24             	mov    %edi,(%esp)
    35c3:	e8 18 6a 00 00       	call   9fe0 <fibril_rwlock_write_unlock>
    35c8:	89 34 24             	mov    %esi,(%esp)
    35cb:	e8 80 e2 ff ff       	call   1850 <vfs_node_put>
    35d0:	8b 45 c0             	mov    -0x40(%ebp),%eax
    35d3:	90                   	nop
    35d4:	8d 74 26 00          	lea    0x0(%esi,%eiz,1),%esi
    35d8:	89 44 24 04          	mov    %eax,0x4(%esp)
    35dc:	8b 45 08             	mov    0x8(%ebp),%eax
    35df:	89 04 24             	mov    %eax,(%esp)
    35e2:	e8 89 1c 01 00       	call   15270 <async_answer_0>
    35e7:	83 c4 6c             	add    $0x6c,%esp
    35ea:	5b                   	pop    %ebx
    35eb:	5e                   	pop    %esi
    35ec:	5f                   	pop    %edi
    35ed:	5d                   	pop    %ebp
    35ee:	c3                   	ret    
    35ef:	90                   	nop
    35f0:	8b 45 c8             	mov    -0x38(%ebp),%eax
    35f3:	89 04 24             	mov    %eax,(%esp)
    35f6:	e8 45 f2 00 00       	call   12840 <free>
    35fb:	89 3c 24             	mov    %edi,(%esp)
    35fe:	e8 dd e0 ff ff       	call   16e0 <vfs_node_get>
    3603:	c7 04 24 44 48 02 00 	movl   $0x24844,(%esp)
    360a:	89 c6                	mov    %eax,%esi
    360c:	e8 6f 69 00 00       	call   9f80 <fibril_rwlock_read_unlock>
    3611:	f6 c3 04             	test   $0x4,%bl
    3614:	0f 84 b8 00 00 00    	je     36d2 <vfs_open+0x282>
    361a:	8d 7e 28             	lea    0x28(%esi),%edi
    361d:	89 3c 24             	mov    %edi,(%esp)
    3620:	e8 7b 68 00 00       	call   9ea0 <fibril_rwlock_write_lock>
    3625:	8b 46 24             	mov    0x24(%esi),%eax
    3628:	0b 46 20             	or     0x20(%esi),%eax
    362b:	0f 84 99 00 00 00    	je     36ca <vfs_open+0x27a>
    3631:	8b 46 04             	mov    0x4(%esi),%eax
    3634:	8b 4e 08             	mov    0x8(%esi),%ecx
    3637:	89 45 c4             	mov    %eax,-0x3c(%ebp)
    363a:	0f bf 06             	movswl (%esi),%eax
    363d:	89 04 24             	mov    %eax,(%esp)
    3640:	89 4d c0             	mov    %ecx,-0x40(%ebp)
    3643:	e8 18 1d 00 00       	call   5360 <vfs_exchange_grab>
    3648:	8b 4d c0             	mov    -0x40(%ebp),%ecx
    364b:	89 c2                	mov    %eax,%edx
    364d:	8b 45 c4             	mov    -0x3c(%ebp),%eax
    3650:	89 4c 24 0c          	mov    %ecx,0xc(%esp)
    3654:	89 14 24             	mov    %edx,(%esp)
    3657:	c7 44 24 28 00 00 00 	movl   $0x0,0x28(%esp)
    365e:	00 
    365f:	c7 44 24 24 00 00 00 	movl   $0x0,0x24(%esp)
    3666:	00 
    3667:	c7 44 24 20 00 00 00 	movl   $0x0,0x20(%esp)
    366e:	00 
    366f:	c7 44 24 1c 00 00 00 	movl   $0x0,0x1c(%esp)
    3676:	00 
    3677:	c7 44 24 18 00 00 00 	movl   $0x0,0x18(%esp)
    367e:	00 
    367f:	c7 44 24 14 00 00 00 	movl   $0x0,0x14(%esp)
    3686:	00 
    3687:	c7 44 24 10 00 00 00 	movl   $0x0,0x10(%esp)
    368e:	00 
    368f:	89 44 24 08          	mov    %eax,0x8(%esp)
    3693:	c7 44 24 04 03 04 00 	movl   $0x403,0x4(%esp)
    369a:	00 
    369b:	89 55 c0             	mov    %edx,-0x40(%ebp)
    369e:	e8 7d 15 01 00       	call   14c20 <async_req_fast>
    36a3:	8b 55 c0             	mov    -0x40(%ebp),%edx
    36a6:	89 14 24             	mov    %edx,(%esp)
    36a9:	89 45 c0             	mov    %eax,-0x40(%ebp)
    36ac:	e8 5f 1d 00 00       	call   5410 <vfs_exchange_release>
    36b1:	8b 45 c0             	mov    -0x40(%ebp),%eax
    36b4:	85 c0                	test   %eax,%eax
    36b6:	0f 85 04 ff ff ff    	jne    35c0 <vfs_open+0x170>
    36bc:	c7 46 20 00 00 00 00 	movl   $0x0,0x20(%esi)
    36c3:	c7 46 24 00 00 00 00 	movl   $0x0,0x24(%esi)
    36ca:	89 3c 24             	mov    %edi,(%esp)
    36cd:	e8 0e 69 00 00       	call   9fe0 <fibril_rwlock_write_unlock>
    36d2:	89 d8                	mov    %ebx,%eax
    36d4:	c1 e8 07             	shr    $0x7,%eax
    36d7:	83 e0 01             	and    $0x1,%eax
    36da:	89 04 24             	mov    %eax,(%esp)
    36dd:	e8 3e e5 ff ff       	call   1c20 <vfs_fd_alloc>
    36e2:	89 c7                	mov    %eax,%edi
    36e4:	85 c0                	test   %eax,%eax
    36e6:	0f 88 84 00 00 00    	js     3770 <vfs_open+0x320>
    36ec:	89 04 24             	mov    %eax,(%esp)
    36ef:	e8 ac e9 ff ff       	call   20a0 <vfs_file_get>
    36f4:	85 c0                	test   %eax,%eax
    36f6:	0f 84 90 00 00 00    	je     378c <vfs_open+0x33c>
    36fc:	89 70 10             	mov    %esi,0x10(%eax)
    36ff:	83 e3 08             	and    $0x8,%ebx
    3702:	74 04                	je     3708 <vfs_open+0x2b8>
    3704:	c6 40 18 01          	movb   $0x1,0x18(%eax)
    3708:	89 34 24             	mov    %esi,(%esp)
    370b:	89 45 c0             	mov    %eax,-0x40(%ebp)
    370e:	e8 3d de ff ff       	call   1550 <vfs_node_addref>
    3713:	89 34 24             	mov    %esi,(%esp)
    3716:	e8 35 e1 ff ff       	call   1850 <vfs_node_put>
    371b:	8b 45 c0             	mov    -0x40(%ebp),%eax
    371e:	89 04 24             	mov    %eax,(%esp)
    3721:	e8 9a e9 ff ff       	call   20c0 <vfs_file_put>
    3726:	8b 45 08             	mov    0x8(%ebp),%eax
    3729:	89 7c 24 08          	mov    %edi,0x8(%esp)
    372d:	c7 44 24 04 00 00 00 	movl   $0x0,0x4(%esp)
    3734:	00 
    3735:	89 04 24             	mov    %eax,(%esp)
    3738:	e8 73 1b 01 00       	call   152b0 <async_answer_1>
    373d:	e9 48 fd ff ff       	jmp    348a <vfs_open+0x3a>
    3742:	8d b6 00 00 00 00    	lea    0x0(%esi),%esi
    3748:	8b 45 c8             	mov    -0x38(%ebp),%eax
    374b:	89 04 24             	mov    %eax,(%esp)
    374e:	e8 ed f0 00 00       	call   12840 <free>
    3753:	89 3c 24             	mov    %edi,(%esp)
    3756:	e8 85 df ff ff       	call   16e0 <vfs_node_get>
    375b:	c7 04 24 44 48 02 00 	movl   $0x24844,(%esp)
    3762:	89 c6                	mov    %eax,%esi
    3764:	e8 77 68 00 00       	call   9fe0 <fibril_rwlock_write_unlock>
    3769:	e9 a3 fe ff ff       	jmp    3611 <vfs_open+0x1c1>
    376e:	66 90                	xchg   %ax,%ax
    3770:	89 34 24             	mov    %esi,(%esp)
    3773:	e8 d8 e0 ff ff       	call   1850 <vfs_node_put>
    3778:	8b 45 08             	mov    0x8(%ebp),%eax
    377b:	89 7c 24 04          	mov    %edi,0x4(%esp)
    377f:	89 04 24             	mov    %eax,(%esp)
    3782:	e8 e9 1a 01 00       	call   15270 <async_answer_0>
    3787:	e9 fe fc ff ff       	jmp    348a <vfs_open+0x3a>
    378c:	c7 44 24 08 9f 02 00 	movl   $0x29f,0x8(%esp)
    3793:	00 
    3794:	c7 44 24 04 ba 1e 02 	movl   $0x21eba,0x4(%esp)
    379b:	00 
    379c:	c7 04 24 88 1e 02 00 	movl   $0x21e88,(%esp)
    37a3:	e8 68 97 01 00       	call   1cf10 <assert_abort>
    37a8:	90                   	nop
    37a9:	8d b4 26 00 00 00 00 	lea    0x0(%esi,%eiz,1),%esi

000037b0 <vfs_sync>:
    37b0:	55                   	push   %ebp
    37b1:	89 e5                	mov    %esp,%ebp
    37b3:	57                   	push   %edi
    37b4:	56                   	push   %esi
    37b5:	53                   	push   %ebx
    37b6:	83 ec 5c             	sub    $0x5c,%esp
    37b9:	8b 45 0c             	mov    0xc(%ebp),%eax
    37bc:	8b 40 04             	mov    0x4(%eax),%eax
    37bf:	89 04 24             	mov    %eax,(%esp)
    37c2:	e8 d9 e8 ff ff       	call   20a0 <vfs_file_get>
    37c7:	89 c3                	mov    %eax,%ebx
    37c9:	85 c0                	test   %eax,%eax
    37cb:	0f 84 97 00 00 00    	je     3868 <vfs_sync+0xb8>
    37d1:	89 04 24             	mov    %eax,(%esp)
    37d4:	e8 47 63 00 00       	call   9b20 <fibril_mutex_lock>
    37d9:	8b 43 10             	mov    0x10(%ebx),%eax
    37dc:	0f bf 00             	movswl (%eax),%eax
    37df:	89 04 24             	mov    %eax,(%esp)
    37e2:	e8 79 1b 00 00       	call   5360 <vfs_exchange_grab>
    37e7:	8d 55 c4             	lea    -0x3c(%ebp),%edx
    37ea:	89 c6                	mov    %eax,%esi
    37ec:	8b 43 10             	mov    0x10(%ebx),%eax
    37ef:	89 54 24 18          	mov    %edx,0x18(%esp)
    37f3:	c7 44 24 14 00 00 00 	movl   $0x0,0x14(%esp)
    37fa:	00 
    37fb:	c7 44 24 10 00 00 00 	movl   $0x0,0x10(%esp)
    3802:	00 
    3803:	8b 50 08             	mov    0x8(%eax),%edx
    3806:	89 54 24 0c          	mov    %edx,0xc(%esp)
    380a:	8b 40 04             	mov    0x4(%eax),%eax
    380d:	89 34 24             	mov    %esi,(%esp)
    3810:	89 44 24 08          	mov    %eax,0x8(%esp)
    3814:	c7 44 24 04 09 04 00 	movl   $0x409,0x4(%esp)
    381b:	00 
    381c:	e8 ef 0d 01 00       	call   14610 <async_send_fast>
    3821:	89 34 24             	mov    %esi,(%esp)
    3824:	89 c7                	mov    %eax,%edi
    3826:	e8 e5 1b 00 00       	call   5410 <vfs_exchange_release>
    382b:	8d 45 c0             	lea    -0x40(%ebp),%eax
    382e:	89 3c 24             	mov    %edi,(%esp)
    3831:	89 44 24 04          	mov    %eax,0x4(%esp)
    3835:	e8 a6 0f 01 00       	call   147e0 <async_wait_for>
    383a:	89 1c 24             	mov    %ebx,(%esp)
    383d:	e8 fe 63 00 00       	call   9c40 <fibril_mutex_unlock>
    3842:	89 1c 24             	mov    %ebx,(%esp)
    3845:	e8 76 e8 ff ff       	call   20c0 <vfs_file_put>
    384a:	8b 45 c0             	mov    -0x40(%ebp),%eax
    384d:	89 44 24 04          	mov    %eax,0x4(%esp)
    3851:	8b 45 08             	mov    0x8(%ebp),%eax
    3854:	89 04 24             	mov    %eax,(%esp)
    3857:	e8 14 1a 01 00       	call   15270 <async_answer_0>
    385c:	83 c4 5c             	add    $0x5c,%esp
    385f:	5b                   	pop    %ebx
    3860:	5e                   	pop    %esi
    3861:	5f                   	pop    %edi
    3862:	5d                   	pop    %ebp
    3863:	c3                   	ret    
    3864:	8d 74 26 00          	lea    0x0(%esi,%eiz,1),%esi
    3868:	8b 45 08             	mov    0x8(%ebp),%eax
    386b:	c7 44 24 04 ff ff ff 	movl   $0xffffffff,0x4(%esp)
    3872:	ff 
    3873:	89 04 24             	mov    %eax,(%esp)
    3876:	e8 f5 19 01 00       	call   15270 <async_answer_0>
    387b:	83 c4 5c             	add    $0x5c,%esp
    387e:	5b                   	pop    %ebx
    387f:	5e                   	pop    %esi
    3880:	5f                   	pop    %edi
    3881:	5d                   	pop    %ebp
    3882:	c3                   	ret    
    3883:	8d b6 00 00 00 00    	lea    0x0(%esi),%esi
    3889:	8d bc 27 00 00 00 00 	lea    0x0(%edi,%eiz,1),%edi

00003890 <vfs_close>:
    3890:	55                   	push   %ebp
    3891:	89 e5                	mov    %esp,%ebp
    3893:	53                   	push   %ebx
    3894:	83 ec 14             	sub    $0x14,%esp
    3897:	8b 45 0c             	mov    0xc(%ebp),%eax
    389a:	8b 5d 08             	mov    0x8(%ebp),%ebx
    389d:	8b 40 04             	mov    0x4(%eax),%eax
    38a0:	89 04 24             	mov    %eax,(%esp)
    38a3:	e8 38 e5 ff ff       	call   1de0 <vfs_fd_free>
    38a8:	89 5d 08             	mov    %ebx,0x8(%ebp)
    38ab:	89 45 0c             	mov    %eax,0xc(%ebp)
    38ae:	83 c4 14             	add    $0x14,%esp
    38b1:	5b                   	pop    %ebx
    38b2:	5d                   	pop    %ebp
    38b3:	e9 b8 19 01 00       	jmp    15270 <async_answer_0>
    38b8:	90                   	nop
    38b9:	8d b4 26 00 00 00 00 	lea    0x0(%esi,%eiz,1),%esi

000038c0 <vfs_read>:
    38c0:	55                   	push   %ebp
    38c1:	89 e5                	mov    %esp,%ebp
    38c3:	57                   	push   %edi
    38c4:	56                   	push   %esi
    38c5:	53                   	push   %ebx
    38c6:	83 ec 5c             	sub    $0x5c,%esp
    38c9:	8b 45 0c             	mov    0xc(%ebp),%eax
    38cc:	8b 40 04             	mov    0x4(%eax),%eax
    38cf:	89 04 24             	mov    %eax,(%esp)
    38d2:	e8 c9 e7 ff ff       	call   20a0 <vfs_file_get>
    38d7:	89 c7                	mov    %eax,%edi
    38d9:	85 c0                	test   %eax,%eax
    38db:	0f 84 0f 01 00 00    	je     39f0 <vfs_read+0x130>
    38e1:	89 04 24             	mov    %eax,(%esp)
    38e4:	e8 37 62 00 00       	call   9b20 <fibril_mutex_lock>
    38e9:	8b 47 10             	mov    0x10(%edi),%eax
    38ec:	0f bf 00             	movswl (%eax),%eax
    38ef:	89 04 24             	mov    %eax,(%esp)
    38f2:	e8 b9 1b 00 00       	call   54b0 <fs_handle_to_info>
    38f7:	85 c0                	test   %eax,%eax
    38f9:	0f 84 0c 01 00 00    	je     3a0b <vfs_read+0x14b>
    38ff:	8b 47 10             	mov    0x10(%edi),%eax
    3902:	83 c0 28             	add    $0x28,%eax
    3905:	89 04 24             	mov    %eax,(%esp)
    3908:	e8 b3 64 00 00       	call   9dc0 <fibril_rwlock_read_lock>
    390d:	8b 47 10             	mov    0x10(%edi),%eax
    3910:	83 78 1c 02          	cmpl   $0x2,0x1c(%eax)
    3914:	0f 84 a6 00 00 00    	je     39c0 <vfs_read+0x100>
    391a:	0f bf 00             	movswl (%eax),%eax
    391d:	89 04 24             	mov    %eax,(%esp)
    3920:	8d 5d c4             	lea    -0x3c(%ebp),%ebx
    3923:	e8 38 1a 00 00       	call   5360 <vfs_exchange_grab>
    3928:	8b 57 1c             	mov    0x1c(%edi),%edx
    392b:	8b 4f 20             	mov    0x20(%edi),%ecx
    392e:	89 c6                	mov    %eax,%esi
    3930:	8b 47 10             	mov    0x10(%edi),%eax
    3933:	89 5c 24 18          	mov    %ebx,0x18(%esp)
    3937:	89 4c 24 14          	mov    %ecx,0x14(%esp)
    393b:	89 54 24 10          	mov    %edx,0x10(%esp)
    393f:	8b 50 08             	mov    0x8(%eax),%edx
    3942:	89 54 24 0c          	mov    %edx,0xc(%esp)
    3946:	8b 40 04             	mov    0x4(%eax),%eax
    3949:	89 34 24             	mov    %esi,(%esp)
    394c:	89 44 24 08          	mov    %eax,0x8(%esp)
    3950:	c7 44 24 04 01 04 00 	movl   $0x401,0x4(%esp)
    3957:	00 
    3958:	e8 23 2f 01 00       	call   16880 <async_data_read_forward_fast>
    395d:	89 34 24             	mov    %esi,(%esp)
    3960:	89 c3                	mov    %eax,%ebx
    3962:	e8 a9 1a 00 00       	call   5410 <vfs_exchange_release>
    3967:	8b 47 10             	mov    0x10(%edi),%eax
    396a:	8b 75 c8             	mov    -0x38(%ebp),%esi
    396d:	83 78 1c 02          	cmpl   $0x2,0x1c(%eax)
    3971:	74 65                	je     39d8 <vfs_read+0x118>
    3973:	83 c0 28             	add    $0x28,%eax
    3976:	89 04 24             	mov    %eax,(%esp)
    3979:	e8 02 66 00 00       	call   9f80 <fibril_rwlock_read_unlock>
    397e:	85 db                	test   %ebx,%ebx
    3980:	74 2e                	je     39b0 <vfs_read+0xf0>
    3982:	89 3c 24             	mov    %edi,(%esp)
    3985:	e8 b6 62 00 00       	call   9c40 <fibril_mutex_unlock>
    398a:	89 3c 24             	mov    %edi,(%esp)
    398d:	e8 2e e7 ff ff       	call   20c0 <vfs_file_put>
    3992:	8b 45 08             	mov    0x8(%ebp),%eax
    3995:	89 74 24 08          	mov    %esi,0x8(%esp)
    3999:	89 5c 24 04          	mov    %ebx,0x4(%esp)
    399d:	89 04 24             	mov    %eax,(%esp)
    39a0:	e8 0b 19 01 00       	call   152b0 <async_answer_1>
    39a5:	83 c4 5c             	add    $0x5c,%esp
    39a8:	5b                   	pop    %ebx
    39a9:	5e                   	pop    %esi
    39aa:	5f                   	pop    %edi
    39ab:	5d                   	pop    %ebp
    39ac:	c3                   	ret    
    39ad:	8d 76 00             	lea    0x0(%esi),%esi
    39b0:	31 d2                	xor    %edx,%edx
    39b2:	01 77 1c             	add    %esi,0x1c(%edi)
    39b5:	11 57 20             	adc    %edx,0x20(%edi)
    39b8:	eb c8                	jmp    3982 <vfs_read+0xc2>
    39ba:	8d b6 00 00 00 00    	lea    0x0(%esi),%esi
    39c0:	c7 04 24 44 48 02 00 	movl   $0x24844,(%esp)
    39c7:	e8 f4 63 00 00       	call   9dc0 <fibril_rwlock_read_lock>
    39cc:	8b 47 10             	mov    0x10(%edi),%eax
    39cf:	e9 46 ff ff ff       	jmp    391a <vfs_read+0x5a>
    39d4:	8d 74 26 00          	lea    0x0(%esi,%eiz,1),%esi
    39d8:	c7 04 24 44 48 02 00 	movl   $0x24844,(%esp)
    39df:	e8 9c 65 00 00       	call   9f80 <fibril_rwlock_read_unlock>
    39e4:	8b 47 10             	mov    0x10(%edi),%eax
    39e7:	eb 8a                	jmp    3973 <vfs_read+0xb3>
    39e9:	8d b4 26 00 00 00 00 	lea    0x0(%esi,%eiz,1),%esi
    39f0:	8b 45 08             	mov    0x8(%ebp),%eax
    39f3:	c7 44 24 04 ff ff ff 	movl   $0xffffffff,0x4(%esp)
    39fa:	ff 
    39fb:	89 04 24             	mov    %eax,(%esp)
    39fe:	e8 6d 18 01 00       	call   15270 <async_answer_0>
    3a03:	83 c4 5c             	add    $0x5c,%esp
    3a06:	5b                   	pop    %ebx
    3a07:	5e                   	pop    %esi
    3a08:	5f                   	pop    %edi
    3a09:	5d                   	pop    %ebp
    3a0a:	c3                   	ret    
    3a0b:	c7 44 24 08 fa 02 00 	movl   $0x2fa,0x8(%esp)
    3a12:	00 
    3a13:	c7 44 24 04 ba 1e 02 	movl   $0x21eba,0x4(%esp)
    3a1a:	00 
    3a1b:	c7 04 24 df 1e 02 00 	movl   $0x21edf,(%esp)
    3a22:	e8 e9 94 01 00       	call   1cf10 <assert_abort>
    3a27:	89 f6                	mov    %esi,%esi
    3a29:	8d bc 27 00 00 00 00 	lea    0x0(%edi,%eiz,1),%edi

00003a30 <vfs_write>:
    3a30:	55                   	push   %ebp
    3a31:	89 e5                	mov    %esp,%ebp
    3a33:	57                   	push   %edi
    3a34:	56                   	push   %esi
    3a35:	53                   	push   %ebx
    3a36:	83 ec 7c             	sub    $0x7c,%esp
    3a39:	8b 45 0c             	mov    0xc(%ebp),%eax
    3a3c:	8b 40 04             	mov    0x4(%eax),%eax
    3a3f:	89 04 24             	mov    %eax,(%esp)
    3a42:	e8 59 e6 ff ff       	call   20a0 <vfs_file_get>
    3a47:	89 c7                	mov    %eax,%edi
    3a49:	85 c0                	test   %eax,%eax
    3a4b:	0f 84 97 01 00 00    	je     3be8 <vfs_write+0x1b8>
    3a51:	89 04 24             	mov    %eax,(%esp)
    3a54:	e8 c7 60 00 00       	call   9b20 <fibril_mutex_lock>
    3a59:	8b 47 10             	mov    0x10(%edi),%eax
    3a5c:	0f bf 00             	movswl (%eax),%eax
    3a5f:	89 04 24             	mov    %eax,(%esp)
    3a62:	e8 49 1a 00 00       	call   54b0 <fs_handle_to_info>
    3a67:	89 c6                	mov    %eax,%esi
    3a69:	85 c0                	test   %eax,%eax
    3a6b:	0f 84 ab 01 00 00    	je     3c1c <vfs_write+0x1ec>
    3a71:	80 78 1c 00          	cmpb   $0x0,0x1c(%eax)
    3a75:	74 0a                	je     3a81 <vfs_write+0x51>
    3a77:	80 78 1d 00          	cmpb   $0x0,0x1d(%eax)
    3a7b:	0f 85 c7 00 00 00    	jne    3b48 <vfs_write+0x118>
    3a81:	8b 47 10             	mov    0x10(%edi),%eax
    3a84:	83 c0 28             	add    $0x28,%eax
    3a87:	89 04 24             	mov    %eax,(%esp)
    3a8a:	e8 11 64 00 00       	call   9ea0 <fibril_rwlock_write_lock>
    3a8f:	8b 47 10             	mov    0x10(%edi),%eax
    3a92:	83 78 1c 02          	cmpl   $0x2,0x1c(%eax)
    3a96:	0f 84 8c 00 00 00    	je     3b28 <vfs_write+0xf8>
    3a9c:	0f bf 00             	movswl (%eax),%eax
    3a9f:	89 04 24             	mov    %eax,(%esp)
    3aa2:	e8 b9 18 00 00       	call   5360 <vfs_exchange_grab>
    3aa7:	80 7f 18 00          	cmpb   $0x0,0x18(%edi)
    3aab:	89 45 b4             	mov    %eax,-0x4c(%ebp)
    3aae:	0f 85 fc 00 00 00    	jne    3bb0 <vfs_write+0x180>
    3ab4:	8b 47 1c             	mov    0x1c(%edi),%eax
    3ab7:	8b 5f 20             	mov    0x20(%edi),%ebx
    3aba:	8b 4f 10             	mov    0x10(%edi),%ecx
    3abd:	8d 55 c4             	lea    -0x3c(%ebp),%edx
    3ac0:	89 5c 24 14          	mov    %ebx,0x14(%esp)
    3ac4:	89 54 24 18          	mov    %edx,0x18(%esp)
    3ac8:	89 44 24 10          	mov    %eax,0x10(%esp)
    3acc:	8b 41 08             	mov    0x8(%ecx),%eax
    3acf:	89 44 24 0c          	mov    %eax,0xc(%esp)
    3ad3:	8b 41 04             	mov    0x4(%ecx),%eax
    3ad6:	c7 44 24 04 02 04 00 	movl   $0x402,0x4(%esp)
    3add:	00 
    3ade:	89 44 24 08          	mov    %eax,0x8(%esp)
    3ae2:	8b 45 b4             	mov    -0x4c(%ebp),%eax
    3ae5:	89 04 24             	mov    %eax,(%esp)
    3ae8:	e8 53 34 01 00       	call   16f40 <async_data_write_forward_fast>
    3aed:	89 c3                	mov    %eax,%ebx
    3aef:	8b 45 b4             	mov    -0x4c(%ebp),%eax
    3af2:	89 04 24             	mov    %eax,(%esp)
    3af5:	e8 16 19 00 00       	call   5410 <vfs_exchange_release>
    3afa:	8b 4f 10             	mov    0x10(%edi),%ecx
    3afd:	8b 55 c8             	mov    -0x38(%ebp),%edx
    3b00:	89 55 b4             	mov    %edx,-0x4c(%ebp)
    3b03:	83 79 1c 02          	cmpl   $0x2,0x1c(%ecx)
    3b07:	0f 84 fb 00 00 00    	je     3c08 <vfs_write+0x1d8>
    3b0d:	80 7e 1c 00          	cmpb   $0x0,0x1c(%esi)
    3b11:	74 4d                	je     3b60 <vfs_write+0x130>
    3b13:	80 7e 1d 00          	cmpb   $0x0,0x1d(%esi)
    3b17:	74 47                	je     3b60 <vfs_write+0x130>
    3b19:	83 c1 28             	add    $0x28,%ecx
    3b1c:	89 0c 24             	mov    %ecx,(%esp)
    3b1f:	e8 5c 64 00 00       	call   9f80 <fibril_rwlock_read_unlock>
    3b24:	eb 49                	jmp    3b6f <vfs_write+0x13f>
    3b26:	66 90                	xchg   %ax,%ax
    3b28:	c7 44 24 08 0c 03 00 	movl   $0x30c,0x8(%esp)
    3b2f:	00 
    3b30:	c7 44 24 04 ba 1e 02 	movl   $0x21eba,0x4(%esp)
    3b37:	00 
    3b38:	c7 04 24 e7 1e 02 00 	movl   $0x21ee7,(%esp)
    3b3f:	e8 cc 93 01 00       	call   1cf10 <assert_abort>
    3b44:	8d 74 26 00          	lea    0x0(%esi,%eiz,1),%esi
    3b48:	8b 47 10             	mov    0x10(%edi),%eax
    3b4b:	83 c0 28             	add    $0x28,%eax
    3b4e:	89 04 24             	mov    %eax,(%esp)
    3b51:	e8 6a 62 00 00       	call   9dc0 <fibril_rwlock_read_lock>
    3b56:	e9 34 ff ff ff       	jmp    3a8f <vfs_write+0x5f>
    3b5b:	90                   	nop
    3b5c:	8d 74 26 00          	lea    0x0(%esi,%eiz,1),%esi
    3b60:	85 db                	test   %ebx,%ebx
    3b62:	74 64                	je     3bc8 <vfs_write+0x198>
    3b64:	83 c1 28             	add    $0x28,%ecx
    3b67:	89 0c 24             	mov    %ecx,(%esp)
    3b6a:	e8 71 64 00 00       	call   9fe0 <fibril_rwlock_write_unlock>
    3b6f:	85 db                	test   %ebx,%ebx
    3b71:	75 0b                	jne    3b7e <vfs_write+0x14e>
    3b73:	8b 45 b4             	mov    -0x4c(%ebp),%eax
    3b76:	31 d2                	xor    %edx,%edx
    3b78:	01 47 1c             	add    %eax,0x1c(%edi)
    3b7b:	11 57 20             	adc    %edx,0x20(%edi)
    3b7e:	89 3c 24             	mov    %edi,(%esp)
    3b81:	e8 ba 60 00 00       	call   9c40 <fibril_mutex_unlock>
    3b86:	89 3c 24             	mov    %edi,(%esp)
    3b89:	e8 32 e5 ff ff       	call   20c0 <vfs_file_put>
    3b8e:	8b 45 b4             	mov    -0x4c(%ebp),%eax
    3b91:	8b 55 08             	mov    0x8(%ebp),%edx
    3b94:	89 5c 24 04          	mov    %ebx,0x4(%esp)
    3b98:	89 44 24 08          	mov    %eax,0x8(%esp)
    3b9c:	89 14 24             	mov    %edx,(%esp)
    3b9f:	e8 0c 17 01 00       	call   152b0 <async_answer_1>
    3ba4:	83 c4 7c             	add    $0x7c,%esp
    3ba7:	5b                   	pop    %ebx
    3ba8:	5e                   	pop    %esi
    3ba9:	5f                   	pop    %edi
    3baa:	5d                   	pop    %ebp
    3bab:	c3                   	ret    
    3bac:	8d 74 26 00          	lea    0x0(%esi,%eiz,1),%esi
    3bb0:	8b 4f 10             	mov    0x10(%edi),%ecx
    3bb3:	8b 41 20             	mov    0x20(%ecx),%eax
    3bb6:	8b 59 24             	mov    0x24(%ecx),%ebx
    3bb9:	89 5f 20             	mov    %ebx,0x20(%edi)
    3bbc:	89 47 1c             	mov    %eax,0x1c(%edi)
    3bbf:	e9 f9 fe ff ff       	jmp    3abd <vfs_write+0x8d>
    3bc4:	8d 74 26 00          	lea    0x0(%esi,%eiz,1),%esi
    3bc8:	8b 45 d0             	mov    -0x30(%ebp),%eax
    3bcb:	31 d2                	xor    %edx,%edx
    3bcd:	89 45 a0             	mov    %eax,-0x60(%ebp)
    3bd0:	89 55 a4             	mov    %edx,-0x5c(%ebp)
    3bd3:	8b 45 cc             	mov    -0x34(%ebp),%eax
    3bd6:	8b 55 a0             	mov    -0x60(%ebp),%edx
    3bd9:	89 41 20             	mov    %eax,0x20(%ecx)
    3bdc:	89 51 24             	mov    %edx,0x24(%ecx)
    3bdf:	eb 83                	jmp    3b64 <vfs_write+0x134>
    3be1:	8d b4 26 00 00 00 00 	lea    0x0(%esi,%eiz,1),%esi
    3be8:	8b 45 08             	mov    0x8(%ebp),%eax
    3beb:	c7 44 24 04 ff ff ff 	movl   $0xffffffff,0x4(%esp)
    3bf2:	ff 
    3bf3:	89 04 24             	mov    %eax,(%esp)
    3bf6:	e8 75 16 01 00       	call   15270 <async_answer_0>
    3bfb:	83 c4 7c             	add    $0x7c,%esp
    3bfe:	5b                   	pop    %ebx
    3bff:	5e                   	pop    %esi
    3c00:	5f                   	pop    %edi
    3c01:	5d                   	pop    %ebp
    3c02:	c3                   	ret    
    3c03:	90                   	nop
    3c04:	8d 74 26 00          	lea    0x0(%esi,%eiz,1),%esi
    3c08:	c7 04 24 44 48 02 00 	movl   $0x24844,(%esp)
    3c0f:	e8 6c 63 00 00       	call   9f80 <fibril_rwlock_read_unlock>
    3c14:	8b 4f 10             	mov    0x10(%edi),%ecx
    3c17:	e9 f1 fe ff ff       	jmp    3b0d <vfs_write+0xdd>
    3c1c:	c7 44 24 08 fa 02 00 	movl   $0x2fa,0x8(%esp)
    3c23:	00 
    3c24:	c7 44 24 04 ba 1e 02 	movl   $0x21eba,0x4(%esp)
    3c2b:	00 
    3c2c:	c7 04 24 df 1e 02 00 	movl   $0x21edf,(%esp)
    3c33:	e8 d8 92 01 00       	call   1cf10 <assert_abort>
    3c38:	90                   	nop
    3c39:	8d b4 26 00 00 00 00 	lea    0x0(%esi,%eiz,1),%esi

00003c40 <vfs_seek>:
    3c40:	55                   	push   %ebp
    3c41:	89 e5                	mov    %esp,%ebp
    3c43:	57                   	push   %edi
    3c44:	56                   	push   %esi
    3c45:	53                   	push   %ebx
    3c46:	83 ec 2c             	sub    $0x2c,%esp
    3c49:	8b 45 0c             	mov    0xc(%ebp),%eax
    3c4c:	8b 7d 08             	mov    0x8(%ebp),%edi
    3c4f:	8b 50 08             	mov    0x8(%eax),%edx
    3c52:	8b 48 0c             	mov    0xc(%eax),%ecx
    3c55:	8b 58 10             	mov    0x10(%eax),%ebx
    3c58:	8b 40 04             	mov    0x4(%eax),%eax
    3c5b:	89 04 24             	mov    %eax,(%esp)
    3c5e:	89 55 e0             	mov    %edx,-0x20(%ebp)
    3c61:	89 4d e4             	mov    %ecx,-0x1c(%ebp)
    3c64:	e8 37 e4 ff ff       	call   20a0 <vfs_file_get>
    3c69:	89 c6                	mov    %eax,%esi
    3c6b:	85 c0                	test   %eax,%eax
    3c6d:	0f 84 0d 02 00 00    	je     3e80 <vfs_seek+0x240>
    3c73:	89 04 24             	mov    %eax,(%esp)
    3c76:	e8 a5 5e 00 00       	call   9b20 <fibril_mutex_lock>
    3c7b:	83 fb 01             	cmp    $0x1,%ebx
    3c7e:	0f 84 a4 00 00 00    	je     3d28 <vfs_seek+0xe8>
    3c84:	83 fb 02             	cmp    $0x2,%ebx
    3c87:	74 37                	je     3cc0 <vfs_seek+0x80>
    3c89:	85 db                	test   %ebx,%ebx
    3c8b:	75 0b                	jne    3c98 <vfs_seek+0x58>
    3c8d:	8b 55 e4             	mov    -0x1c(%ebp),%edx
    3c90:	85 d2                	test   %edx,%edx
    3c92:	0f 89 00 01 00 00    	jns    3d98 <vfs_seek+0x158>
    3c98:	89 34 24             	mov    %esi,(%esp)
    3c9b:	e8 a0 5f 00 00       	call   9c40 <fibril_mutex_unlock>
    3ca0:	89 34 24             	mov    %esi,(%esp)
    3ca3:	e8 18 e4 ff ff       	call   20c0 <vfs_file_put>
    3ca8:	c7 45 0c f2 ff ff ff 	movl   $0xfffffff2,0xc(%ebp)
    3caf:	89 7d 08             	mov    %edi,0x8(%ebp)
    3cb2:	83 c4 2c             	add    $0x2c,%esp
    3cb5:	5b                   	pop    %ebx
    3cb6:	5e                   	pop    %esi
    3cb7:	5f                   	pop    %edi
    3cb8:	5d                   	pop    %ebp
    3cb9:	e9 b2 15 01 00       	jmp    15270 <async_answer_0>
    3cbe:	66 90                	xchg   %ax,%ax
    3cc0:	8b 56 10             	mov    0x10(%esi),%edx
    3cc3:	83 c2 28             	add    $0x28,%edx
    3cc6:	89 14 24             	mov    %edx,(%esp)
    3cc9:	e8 f2 60 00 00       	call   9dc0 <fibril_rwlock_read_lock>
    3cce:	8b 56 10             	mov    0x10(%esi),%edx
    3cd1:	89 55 dc             	mov    %edx,-0x24(%ebp)
    3cd4:	8b 42 20             	mov    0x20(%edx),%eax
    3cd7:	8b 4d e0             	mov    -0x20(%ebp),%ecx
    3cda:	8b 52 24             	mov    0x24(%edx),%edx
    3cdd:	8b 5d e4             	mov    -0x1c(%ebp),%ebx
    3ce0:	83 7d e4 00          	cmpl   $0x0,-0x1c(%ebp)
    3ce4:	0f 88 ee 00 00 00    	js     3dd8 <vfs_seek+0x198>
    3cea:	01 c1                	add    %eax,%ecx
    3cec:	11 d3                	adc    %edx,%ebx
    3cee:	39 da                	cmp    %ebx,%edx
    3cf0:	0f 82 05 01 00 00    	jb     3dfb <vfs_seek+0x1bb>
    3cf6:	0f 86 9c 01 00 00    	jbe    3e98 <vfs_seek+0x258>
    3cfc:	8b 55 dc             	mov    -0x24(%ebp),%edx
    3cff:	83 c2 28             	add    $0x28,%edx
    3d02:	89 14 24             	mov    %edx,(%esp)
    3d05:	e8 76 62 00 00       	call   9f80 <fibril_rwlock_read_unlock>
    3d0a:	89 34 24             	mov    %esi,(%esp)
    3d0d:	e8 2e 5f 00 00       	call   9c40 <fibril_mutex_unlock>
    3d12:	89 34 24             	mov    %esi,(%esp)
    3d15:	e8 a6 e3 ff ff       	call   20c0 <vfs_file_put>
    3d1a:	c7 45 0c f0 ff ff ff 	movl   $0xfffffff0,0xc(%ebp)
    3d21:	eb 8c                	jmp    3caf <vfs_seek+0x6f>
    3d23:	90                   	nop
    3d24:	8d 74 26 00          	lea    0x0(%esi,%eiz,1),%esi
    3d28:	8b 45 e4             	mov    -0x1c(%ebp),%eax
    3d2b:	85 c0                	test   %eax,%eax
    3d2d:	0f 88 1d 01 00 00    	js     3e50 <vfs_seek+0x210>
    3d33:	8b 46 1c             	mov    0x1c(%esi),%eax
    3d36:	8b 4d e0             	mov    -0x20(%ebp),%ecx
    3d39:	8b 56 20             	mov    0x20(%esi),%edx
    3d3c:	01 c1                	add    %eax,%ecx
    3d3e:	8b 5d e4             	mov    -0x1c(%ebp),%ebx
    3d41:	11 d3                	adc    %edx,%ebx
    3d43:	39 da                	cmp    %ebx,%edx
    3d45:	72 09                	jb     3d50 <vfs_seek+0x110>
    3d47:	77 c1                	ja     3d0a <vfs_seek+0xca>
    3d49:	39 c8                	cmp    %ecx,%eax
    3d4b:	77 bd                	ja     3d0a <vfs_seek+0xca>
    3d4d:	8d 76 00             	lea    0x0(%esi),%esi
    3d50:	89 4e 1c             	mov    %ecx,0x1c(%esi)
    3d53:	89 5e 20             	mov    %ebx,0x20(%esi)
    3d56:	85 db                	test   %ebx,%ebx
    3d58:	0f 88 5a 01 00 00    	js     3eb8 <vfs_seek+0x278>
    3d5e:	89 4d e0             	mov    %ecx,-0x20(%ebp)
    3d61:	89 34 24             	mov    %esi,(%esp)
    3d64:	e8 d7 5e 00 00       	call   9c40 <fibril_mutex_unlock>
    3d69:	89 34 24             	mov    %esi,(%esp)
    3d6c:	e8 4f e3 ff ff       	call   20c0 <vfs_file_put>
    3d71:	8b 45 e0             	mov    -0x20(%ebp),%eax
    3d74:	89 5c 24 0c          	mov    %ebx,0xc(%esp)
    3d78:	89 3c 24             	mov    %edi,(%esp)
    3d7b:	89 44 24 08          	mov    %eax,0x8(%esp)
    3d7f:	c7 44 24 04 00 00 00 	movl   $0x0,0x4(%esp)
    3d86:	00 
    3d87:	e8 64 15 01 00       	call   152f0 <async_answer_2>
    3d8c:	83 c4 2c             	add    $0x2c,%esp
    3d8f:	5b                   	pop    %ebx
    3d90:	5e                   	pop    %esi
    3d91:	5f                   	pop    %edi
    3d92:	5d                   	pop    %ebp
    3d93:	c3                   	ret    
    3d94:	8d 74 26 00          	lea    0x0(%esi,%eiz,1),%esi
    3d98:	8b 55 e0             	mov    -0x20(%ebp),%edx
    3d9b:	8b 4d e4             	mov    -0x1c(%ebp),%ecx
    3d9e:	89 56 1c             	mov    %edx,0x1c(%esi)
    3da1:	89 4e 20             	mov    %ecx,0x20(%esi)
    3da4:	89 34 24             	mov    %esi,(%esp)
    3da7:	e8 94 5e 00 00       	call   9c40 <fibril_mutex_unlock>
    3dac:	89 34 24             	mov    %esi,(%esp)
    3daf:	e8 0c e3 ff ff       	call   20c0 <vfs_file_put>
    3db4:	8b 4d e0             	mov    -0x20(%ebp),%ecx
    3db7:	89 3c 24             	mov    %edi,(%esp)
    3dba:	89 4c 24 08          	mov    %ecx,0x8(%esp)
    3dbe:	c7 44 24 04 00 00 00 	movl   $0x0,0x4(%esp)
    3dc5:	00 
    3dc6:	e8 e5 14 01 00       	call   152b0 <async_answer_1>
    3dcb:	83 c4 2c             	add    $0x2c,%esp
    3dce:	5b                   	pop    %ebx
    3dcf:	5e                   	pop    %esi
    3dd0:	5f                   	pop    %edi
    3dd1:	5d                   	pop    %ebp
    3dd2:	c3                   	ret    
    3dd3:	90                   	nop
    3dd4:	8d 74 26 00          	lea    0x0(%esi,%eiz,1),%esi
    3dd8:	f7 d9                	neg    %ecx
    3dda:	83 d3 00             	adc    $0x0,%ebx
    3ddd:	f7 db                	neg    %ebx
    3ddf:	39 da                	cmp    %ebx,%edx
    3de1:	0f 82 15 ff ff ff    	jb     3cfc <vfs_seek+0xbc>
    3de7:	77 08                	ja     3df1 <vfs_seek+0x1b1>
    3de9:	39 c8                	cmp    %ecx,%eax
    3deb:	0f 82 0b ff ff ff    	jb     3cfc <vfs_seek+0xbc>
    3df1:	8b 4d e0             	mov    -0x20(%ebp),%ecx
    3df4:	8b 5d e4             	mov    -0x1c(%ebp),%ebx
    3df7:	01 c1                	add    %eax,%ecx
    3df9:	11 d3                	adc    %edx,%ebx
    3dfb:	89 4e 1c             	mov    %ecx,0x1c(%esi)
    3dfe:	89 5e 20             	mov    %ebx,0x20(%esi)
    3e01:	85 db                	test   %ebx,%ebx
    3e03:	0f 88 9f 00 00 00    	js     3ea8 <vfs_seek+0x268>
    3e09:	89 5d e0             	mov    %ebx,-0x20(%ebp)
    3e0c:	89 cb                	mov    %ecx,%ebx
    3e0e:	8b 55 dc             	mov    -0x24(%ebp),%edx
    3e11:	83 c2 28             	add    $0x28,%edx
    3e14:	89 14 24             	mov    %edx,(%esp)
    3e17:	e8 64 61 00 00       	call   9f80 <fibril_rwlock_read_unlock>
    3e1c:	89 34 24             	mov    %esi,(%esp)
    3e1f:	e8 1c 5e 00 00       	call   9c40 <fibril_mutex_unlock>
    3e24:	89 34 24             	mov    %esi,(%esp)
    3e27:	e8 94 e2 ff ff       	call   20c0 <vfs_file_put>
    3e2c:	8b 45 e0             	mov    -0x20(%ebp),%eax
    3e2f:	89 5c 24 08          	mov    %ebx,0x8(%esp)
    3e33:	89 3c 24             	mov    %edi,(%esp)
    3e36:	89 44 24 0c          	mov    %eax,0xc(%esp)
    3e3a:	c7 44 24 04 00 00 00 	movl   $0x0,0x4(%esp)
    3e41:	00 
    3e42:	e8 a9 14 01 00       	call   152f0 <async_answer_2>
    3e47:	83 c4 2c             	add    $0x2c,%esp
    3e4a:	5b                   	pop    %ebx
    3e4b:	5e                   	pop    %esi
    3e4c:	5f                   	pop    %edi
    3e4d:	5d                   	pop    %ebp
    3e4e:	c3                   	ret    
    3e4f:	90                   	nop
    3e50:	8b 45 e0             	mov    -0x20(%ebp),%eax
    3e53:	8b 55 e4             	mov    -0x1c(%ebp),%edx
    3e56:	f7 d8                	neg    %eax
    3e58:	83 d2 00             	adc    $0x0,%edx
    3e5b:	8b 5e 20             	mov    0x20(%esi),%ebx
    3e5e:	f7 da                	neg    %edx
    3e60:	8b 4e 1c             	mov    0x1c(%esi),%ecx
    3e63:	39 d3                	cmp    %edx,%ebx
    3e65:	0f 82 9f fe ff ff    	jb     3d0a <vfs_seek+0xca>
    3e6b:	77 08                	ja     3e75 <vfs_seek+0x235>
    3e6d:	39 c1                	cmp    %eax,%ecx
    3e6f:	0f 82 95 fe ff ff    	jb     3d0a <vfs_seek+0xca>
    3e75:	03 4d e0             	add    -0x20(%ebp),%ecx
    3e78:	13 5d e4             	adc    -0x1c(%ebp),%ebx
    3e7b:	e9 d0 fe ff ff       	jmp    3d50 <vfs_seek+0x110>
    3e80:	89 7d 08             	mov    %edi,0x8(%ebp)
    3e83:	c7 45 0c ff ff ff ff 	movl   $0xffffffff,0xc(%ebp)
    3e8a:	83 c4 2c             	add    $0x2c,%esp
    3e8d:	5b                   	pop    %ebx
    3e8e:	5e                   	pop    %esi
    3e8f:	5f                   	pop    %edi
    3e90:	5d                   	pop    %ebp
    3e91:	e9 da 13 01 00       	jmp    15270 <async_answer_0>
    3e96:	66 90                	xchg   %ax,%ax
    3e98:	39 c8                	cmp    %ecx,%eax
    3e9a:	0f 86 5b ff ff ff    	jbe    3dfb <vfs_seek+0x1bb>
    3ea0:	e9 57 fe ff ff       	jmp    3cfc <vfs_seek+0xbc>
    3ea5:	8d 76 00             	lea    0x0(%esi),%esi
    3ea8:	83 cb ff             	or     $0xffffffff,%ebx
    3eab:	c7 45 e0 ff ff ff 7f 	movl   $0x7fffffff,-0x20(%ebp)
    3eb2:	e9 57 ff ff ff       	jmp    3e0e <vfs_seek+0x1ce>
    3eb7:	90                   	nop
    3eb8:	c7 45 e0 ff ff ff ff 	movl   $0xffffffff,-0x20(%ebp)
    3ebf:	bb ff ff ff 7f       	mov    $0x7fffffff,%ebx
    3ec4:	e9 98 fe ff ff       	jmp    3d61 <vfs_seek+0x121>
    3ec9:	8d b4 26 00 00 00 00 	lea    0x0(%esi,%eiz,1),%esi

00003ed0 <vfs_truncate>:
    3ed0:	55                   	push   %ebp
    3ed1:	31 c9                	xor    %ecx,%ecx
    3ed3:	89 e5                	mov    %esp,%ebp
    3ed5:	57                   	push   %edi
    3ed6:	56                   	push   %esi
    3ed7:	53                   	push   %ebx
    3ed8:	83 ec 5c             	sub    $0x5c,%esp
    3edb:	89 4d e4             	mov    %ecx,-0x1c(%ebp)
    3ede:	8b 45 0c             	mov    0xc(%ebp),%eax
    3ee1:	8b 55 08             	mov    0x8(%ebp),%edx
    3ee4:	89 55 d4             	mov    %edx,-0x2c(%ebp)
    3ee7:	31 c9                	xor    %ecx,%ecx
    3ee9:	8b 50 0c             	mov    0xc(%eax),%edx
    3eec:	89 4d dc             	mov    %ecx,-0x24(%ebp)
    3eef:	89 55 e0             	mov    %edx,-0x20(%ebp)
    3ef2:	8b 50 08             	mov    0x8(%eax),%edx
    3ef5:	8b 40 04             	mov    0x4(%eax),%eax
    3ef8:	89 55 d8             	mov    %edx,-0x28(%ebp)
    3efb:	89 04 24             	mov    %eax,(%esp)
    3efe:	e8 9d e1 ff ff       	call   20a0 <vfs_file_get>
    3f03:	89 c3                	mov    %eax,%ebx
    3f05:	85 c0                	test   %eax,%eax
    3f07:	0f 84 d3 00 00 00    	je     3fe0 <vfs_truncate+0x110>
    3f0d:	89 04 24             	mov    %eax,(%esp)
    3f10:	e8 0b 5c 00 00       	call   9b20 <fibril_mutex_lock>
    3f15:	8b 43 10             	mov    0x10(%ebx),%eax
    3f18:	83 c0 28             	add    $0x28,%eax
    3f1b:	89 04 24             	mov    %eax,(%esp)
    3f1e:	e8 7d 5f 00 00       	call   9ea0 <fibril_rwlock_write_lock>
    3f23:	8b 43 10             	mov    0x10(%ebx),%eax
    3f26:	8b 78 04             	mov    0x4(%eax),%edi
    3f29:	8b 48 08             	mov    0x8(%eax),%ecx
    3f2c:	0f bf 00             	movswl (%eax),%eax
    3f2f:	89 04 24             	mov    %eax,(%esp)
    3f32:	89 4d d0             	mov    %ecx,-0x30(%ebp)
    3f35:	e8 26 14 00 00       	call   5360 <vfs_exchange_grab>
    3f3a:	8b 55 d8             	mov    -0x28(%ebp),%edx
    3f3d:	89 c6                	mov    %eax,%esi
    3f3f:	8b 4d d0             	mov    -0x30(%ebp),%ecx
    3f42:	8b 45 e0             	mov    -0x20(%ebp),%eax
    3f45:	89 54 24 10          	mov    %edx,0x10(%esp)
    3f49:	89 4c 24 0c          	mov    %ecx,0xc(%esp)
    3f4d:	89 7c 24 08          	mov    %edi,0x8(%esp)
    3f51:	c7 44 24 28 00 00 00 	movl   $0x0,0x28(%esp)
    3f58:	00 
    3f59:	c7 44 24 24 00 00 00 	movl   $0x0,0x24(%esp)
    3f60:	00 
    3f61:	c7 44 24 20 00 00 00 	movl   $0x0,0x20(%esp)
    3f68:	00 
    3f69:	c7 44 24 1c 00 00 00 	movl   $0x0,0x1c(%esp)
    3f70:	00 
    3f71:	c7 44 24 18 00 00 00 	movl   $0x0,0x18(%esp)
    3f78:	00 
    3f79:	89 44 24 14          	mov    %eax,0x14(%esp)
    3f7d:	c7 44 24 04 03 04 00 	movl   $0x403,0x4(%esp)
    3f84:	00 
    3f85:	89 34 24             	mov    %esi,(%esp)
    3f88:	e8 93 0c 01 00       	call   14c20 <async_req_fast>
    3f8d:	89 34 24             	mov    %esi,(%esp)
    3f90:	89 c7                	mov    %eax,%edi
    3f92:	e8 79 14 00 00       	call   5410 <vfs_exchange_release>
    3f97:	8b 53 10             	mov    0x10(%ebx),%edx
    3f9a:	85 ff                	test   %edi,%edi
    3f9c:	74 32                	je     3fd0 <vfs_truncate+0x100>
    3f9e:	83 c2 28             	add    $0x28,%edx
    3fa1:	89 14 24             	mov    %edx,(%esp)
    3fa4:	e8 37 60 00 00       	call   9fe0 <fibril_rwlock_write_unlock>
    3fa9:	89 1c 24             	mov    %ebx,(%esp)
    3fac:	e8 8f 5c 00 00       	call   9c40 <fibril_mutex_unlock>
    3fb1:	89 1c 24             	mov    %ebx,(%esp)
    3fb4:	e8 07 e1 ff ff       	call   20c0 <vfs_file_put>
    3fb9:	8b 55 d4             	mov    -0x2c(%ebp),%edx
    3fbc:	89 7d 0c             	mov    %edi,0xc(%ebp)
    3fbf:	89 55 08             	mov    %edx,0x8(%ebp)
    3fc2:	83 c4 5c             	add    $0x5c,%esp
    3fc5:	5b                   	pop    %ebx
    3fc6:	5e                   	pop    %esi
    3fc7:	5f                   	pop    %edi
    3fc8:	5d                   	pop    %ebp
    3fc9:	e9 a2 12 01 00       	jmp    15270 <async_answer_0>
    3fce:	66 90                	xchg   %ax,%ax
    3fd0:	8b 4d d8             	mov    -0x28(%ebp),%ecx
    3fd3:	8b 45 e0             	mov    -0x20(%ebp),%eax
    3fd6:	89 4a 20             	mov    %ecx,0x20(%edx)
    3fd9:	89 42 24             	mov    %eax,0x24(%edx)
    3fdc:	eb c0                	jmp    3f9e <vfs_truncate+0xce>
    3fde:	66 90                	xchg   %ax,%ax
    3fe0:	8b 4d d4             	mov    -0x2c(%ebp),%ecx
    3fe3:	c7 45 0c ff ff ff ff 	movl   $0xffffffff,0xc(%ebp)
    3fea:	89 4d 08             	mov    %ecx,0x8(%ebp)
    3fed:	83 c4 5c             	add    $0x5c,%esp
    3ff0:	5b                   	pop    %ebx
    3ff1:	5e                   	pop    %esi
    3ff2:	5f                   	pop    %edi
    3ff3:	5d                   	pop    %ebp
    3ff4:	e9 77 12 01 00       	jmp    15270 <async_answer_0>
    3ff9:	8d b4 26 00 00 00 00 	lea    0x0(%esi,%eiz,1),%esi

00004000 <vfs_fstat>:
    4000:	55                   	push   %ebp
    4001:	89 e5                	mov    %esp,%ebp
    4003:	57                   	push   %edi
    4004:	56                   	push   %esi
    4005:	53                   	push   %ebx
    4006:	83 ec 3c             	sub    $0x3c,%esp
    4009:	8b 45 0c             	mov    0xc(%ebp),%eax
    400c:	8b 40 04             	mov    0x4(%eax),%eax
    400f:	89 04 24             	mov    %eax,(%esp)
    4012:	e8 89 e0 ff ff       	call   20a0 <vfs_file_get>
    4017:	89 c3                	mov    %eax,%ebx
    4019:	85 c0                	test   %eax,%eax
    401b:	0f 84 0f 01 00 00    	je     4130 <vfs_fstat+0x130>
    4021:	8d 45 e4             	lea    -0x1c(%ebp),%eax
    4024:	c7 44 24 04 00 00 00 	movl   $0x0,0x4(%esp)
    402b:	00 
    402c:	89 04 24             	mov    %eax,(%esp)
    402f:	e8 ac 27 01 00       	call   167e0 <async_data_read_receive>
    4034:	89 1c 24             	mov    %ebx,(%esp)
    4037:	84 c0                	test   %al,%al
    4039:	75 35                	jne    4070 <vfs_fstat+0x70>
    403b:	e8 80 e0 ff ff       	call   20c0 <vfs_file_put>
    4040:	8b 45 e4             	mov    -0x1c(%ebp),%eax
    4043:	c7 44 24 04 f2 ff ff 	movl   $0xfffffff2,0x4(%esp)
    404a:	ff 
    404b:	89 04 24             	mov    %eax,(%esp)
    404e:	e8 1d 12 01 00       	call   15270 <async_answer_0>
    4053:	8b 45 08             	mov    0x8(%ebp),%eax
    4056:	c7 44 24 04 f2 ff ff 	movl   $0xfffffff2,0x4(%esp)
    405d:	ff 
    405e:	89 04 24             	mov    %eax,(%esp)
    4061:	e8 0a 12 01 00       	call   15270 <async_answer_0>
    4066:	83 c4 3c             	add    $0x3c,%esp
    4069:	5b                   	pop    %ebx
    406a:	5e                   	pop    %esi
    406b:	5f                   	pop    %edi
    406c:	5d                   	pop    %ebp
    406d:	c3                   	ret    
    406e:	66 90                	xchg   %ax,%ax
    4070:	e8 ab 5a 00 00       	call   9b20 <fibril_mutex_lock>
    4075:	8b 43 10             	mov    0x10(%ebx),%eax
    4078:	0f bf 00             	movswl (%eax),%eax
    407b:	89 04 24             	mov    %eax,(%esp)
    407e:	e8 dd 12 00 00       	call   5360 <vfs_exchange_grab>
    4083:	89 c6                	mov    %eax,%esi
    4085:	8b 43 10             	mov    0x10(%ebx),%eax
    4088:	c7 44 24 18 00 00 00 	movl   $0x0,0x18(%esp)
    408f:	00 
    4090:	c7 44 24 14 00 00 00 	movl   $0x0,0x14(%esp)
    4097:	00 
    4098:	c7 44 24 10 01 00 00 	movl   $0x1,0x10(%esp)
    409f:	00 
    40a0:	8b 50 08             	mov    0x8(%eax),%edx
    40a3:	89 54 24 0c          	mov    %edx,0xc(%esp)
    40a7:	8b 40 04             	mov    0x4(%eax),%eax
    40aa:	89 34 24             	mov    %esi,(%esp)
    40ad:	89 44 24 08          	mov    %eax,0x8(%esp)
    40b1:	c7 44 24 04 0a 04 00 	movl   $0x40a,0x4(%esp)
    40b8:	00 
    40b9:	e8 52 05 01 00       	call   14610 <async_send_fast>
    40be:	89 74 24 04          	mov    %esi,0x4(%esp)
    40c2:	89 c7                	mov    %eax,%edi
    40c4:	8b 45 e4             	mov    -0x1c(%ebp),%eax
    40c7:	c7 44 24 14 01 00 00 	movl   $0x1,0x14(%esp)
    40ce:	00 
    40cf:	c7 44 24 10 00 00 00 	movl   $0x0,0x10(%esp)
    40d6:	00 
    40d7:	c7 44 24 0c 00 00 00 	movl   $0x0,0xc(%esp)
    40de:	00 
    40df:	c7 44 24 08 00 00 00 	movl   $0x0,0x8(%esp)
    40e6:	00 
    40e7:	89 04 24             	mov    %eax,(%esp)
    40ea:	e8 a1 12 01 00       	call   15390 <async_forward_fast>
    40ef:	89 34 24             	mov    %esi,(%esp)
    40f2:	e8 19 13 00 00       	call   5410 <vfs_exchange_release>
    40f7:	8d 45 e0             	lea    -0x20(%ebp),%eax
    40fa:	89 44 24 04          	mov    %eax,0x4(%esp)
    40fe:	89 3c 24             	mov    %edi,(%esp)
    4101:	e8 da 06 01 00       	call   147e0 <async_wait_for>
    4106:	89 1c 24             	mov    %ebx,(%esp)
    4109:	e8 32 5b 00 00       	call   9c40 <fibril_mutex_unlock>
    410e:	89 1c 24             	mov    %ebx,(%esp)
    4111:	e8 aa df ff ff       	call   20c0 <vfs_file_put>
    4116:	8b 45 e0             	mov    -0x20(%ebp),%eax
    4119:	89 44 24 04          	mov    %eax,0x4(%esp)
    411d:	8b 45 08             	mov    0x8(%ebp),%eax
    4120:	89 04 24             	mov    %eax,(%esp)
    4123:	e8 48 11 01 00       	call   15270 <async_answer_0>
    4128:	83 c4 3c             	add    $0x3c,%esp
    412b:	5b                   	pop    %ebx
    412c:	5e                   	pop    %esi
    412d:	5f                   	pop    %edi
    412e:	5d                   	pop    %ebp
    412f:	c3                   	ret    
    4130:	8b 45 08             	mov    0x8(%ebp),%eax
    4133:	c7 44 24 04 ff ff ff 	movl   $0xffffffff,0x4(%esp)
    413a:	ff 
    413b:	89 04 24             	mov    %eax,(%esp)
    413e:	e8 2d 11 01 00       	call   15270 <async_answer_0>
    4143:	83 c4 3c             	add    $0x3c,%esp
    4146:	5b                   	pop    %ebx
    4147:	5e                   	pop    %esi
    4148:	5f                   	pop    %edi
    4149:	5d                   	pop    %ebp
    414a:	c3                   	ret    
    414b:	90                   	nop
    414c:	8d 74 26 00          	lea    0x0(%esi,%eiz,1),%esi

00004150 <vfs_stat>:
    4150:	55                   	push   %ebp
    4151:	89 e5                	mov    %esp,%ebp
    4153:	57                   	push   %edi
    4154:	56                   	push   %esi
    4155:	53                   	push   %ebx
    4156:	83 ec 5c             	sub    $0x5c,%esp
    4159:	8d 45 c0             	lea    -0x40(%ebp),%eax
    415c:	c7 44 24 14 00 00 00 	movl   $0x0,0x14(%esp)
    4163:	00 
    4164:	c7 44 24 10 00 00 00 	movl   $0x0,0x10(%esp)
    416b:	00 
    416c:	c7 44 24 0c 00 00 00 	movl   $0x0,0xc(%esp)
    4173:	00 
    4174:	c7 44 24 08 00 00 00 	movl   $0x0,0x8(%esp)
    417b:	00 
    417c:	c7 44 24 04 01 00 00 	movl   $0x1,0x4(%esp)
    4183:	00 
    4184:	89 04 24             	mov    %eax,(%esp)
    4187:	e8 04 2c 01 00       	call   16d90 <async_data_write_accept>
    418c:	85 c0                	test   %eax,%eax
    418e:	74 18                	je     41a8 <vfs_stat+0x58>
    4190:	89 44 24 04          	mov    %eax,0x4(%esp)
    4194:	8b 45 08             	mov    0x8(%ebp),%eax
    4197:	89 04 24             	mov    %eax,(%esp)
    419a:	e8 d1 10 01 00       	call   15270 <async_answer_0>
    419f:	83 c4 5c             	add    $0x5c,%esp
    41a2:	5b                   	pop    %ebx
    41a3:	5e                   	pop    %esi
    41a4:	5f                   	pop    %edi
    41a5:	5d                   	pop    %ebp
    41a6:	c3                   	ret    
    41a7:	90                   	nop
    41a8:	8d 45 c4             	lea    -0x3c(%ebp),%eax
    41ab:	c7 44 24 04 00 00 00 	movl   $0x0,0x4(%esp)
    41b2:	00 
    41b3:	89 04 24             	mov    %eax,(%esp)
    41b6:	e8 25 26 01 00       	call   167e0 <async_data_read_receive>
    41bb:	84 c0                	test   %al,%al
    41bd:	75 39                	jne    41f8 <vfs_stat+0xa8>
    41bf:	8b 45 c0             	mov    -0x40(%ebp),%eax
    41c2:	89 04 24             	mov    %eax,(%esp)
    41c5:	e8 76 e6 00 00       	call   12840 <free>
    41ca:	8b 45 c4             	mov    -0x3c(%ebp),%eax
    41cd:	c7 44 24 04 f2 ff ff 	movl   $0xfffffff2,0x4(%esp)
    41d4:	ff 
    41d5:	89 04 24             	mov    %eax,(%esp)
    41d8:	e8 93 10 01 00       	call   15270 <async_answer_0>
    41dd:	8b 45 08             	mov    0x8(%ebp),%eax
    41e0:	c7 44 24 04 f2 ff ff 	movl   $0xfffffff2,0x4(%esp)
    41e7:	ff 
    41e8:	89 04 24             	mov    %eax,(%esp)
    41eb:	e8 80 10 01 00       	call   15270 <async_answer_0>
    41f0:	83 c4 5c             	add    $0x5c,%esp
    41f3:	5b                   	pop    %ebx
    41f4:	5e                   	pop    %esi
    41f5:	5f                   	pop    %edi
    41f6:	5d                   	pop    %ebp
    41f7:	c3                   	ret    
    41f8:	c7 04 24 44 48 02 00 	movl   $0x24844,(%esp)
    41ff:	8d 75 cc             	lea    -0x34(%ebp),%esi
    4202:	e8 b9 5b 00 00       	call   9dc0 <fibril_rwlock_read_lock>
    4207:	8b 45 c0             	mov    -0x40(%ebp),%eax
    420a:	c7 44 24 0c 00 00 00 	movl   $0x0,0xc(%esp)
    4211:	00 
    4212:	89 74 24 08          	mov    %esi,0x8(%esp)
    4216:	c7 44 24 04 00 00 00 	movl   $0x0,0x4(%esp)
    421d:	00 
    421e:	89 04 24             	mov    %eax,(%esp)
    4221:	e8 0a 0b 00 00       	call   4d30 <vfs_lookup_internal>
    4226:	89 c3                	mov    %eax,%ebx
    4228:	8b 45 c0             	mov    -0x40(%ebp),%eax
    422b:	89 04 24             	mov    %eax,(%esp)
    422e:	e8 0d e6 00 00       	call   12840 <free>
    4233:	85 db                	test   %ebx,%ebx
    4235:	0f 85 cd 00 00 00    	jne    4308 <vfs_stat+0x1b8>
    423b:	89 34 24             	mov    %esi,(%esp)
    423e:	e8 9d d4 ff ff       	call   16e0 <vfs_node_get>
    4243:	c7 04 24 44 48 02 00 	movl   $0x24844,(%esp)
    424a:	89 c3                	mov    %eax,%ebx
    424c:	85 c0                	test   %eax,%eax
    424e:	0f 84 ec 00 00 00    	je     4340 <vfs_stat+0x1f0>
    4254:	e8 27 5d 00 00       	call   9f80 <fibril_rwlock_read_unlock>
    4259:	0f bf 03             	movswl (%ebx),%eax
    425c:	89 04 24             	mov    %eax,(%esp)
    425f:	e8 fc 10 00 00       	call   5360 <vfs_exchange_grab>
    4264:	c7 44 24 18 00 00 00 	movl   $0x0,0x18(%esp)
    426b:	00 
    426c:	c7 44 24 14 00 00 00 	movl   $0x0,0x14(%esp)
    4273:	00 
    4274:	c7 44 24 10 00 00 00 	movl   $0x0,0x10(%esp)
    427b:	00 
    427c:	89 c6                	mov    %eax,%esi
    427e:	8b 43 08             	mov    0x8(%ebx),%eax
    4281:	89 44 24 0c          	mov    %eax,0xc(%esp)
    4285:	8b 43 04             	mov    0x4(%ebx),%eax
    4288:	c7 44 24 04 0a 04 00 	movl   $0x40a,0x4(%esp)
    428f:	00 
    4290:	89 44 24 08          	mov    %eax,0x8(%esp)
    4294:	89 34 24             	mov    %esi,(%esp)
    4297:	e8 74 03 01 00       	call   14610 <async_send_fast>
    429c:	c7 44 24 14 01 00 00 	movl   $0x1,0x14(%esp)
    42a3:	00 
    42a4:	89 c7                	mov    %eax,%edi
    42a6:	8b 45 c4             	mov    -0x3c(%ebp),%eax
    42a9:	c7 44 24 10 00 00 00 	movl   $0x0,0x10(%esp)
    42b0:	00 
    42b1:	c7 44 24 0c 00 00 00 	movl   $0x0,0xc(%esp)
    42b8:	00 
    42b9:	c7 44 24 08 00 00 00 	movl   $0x0,0x8(%esp)
    42c0:	00 
    42c1:	89 74 24 04          	mov    %esi,0x4(%esp)
    42c5:	89 04 24             	mov    %eax,(%esp)
    42c8:	e8 c3 10 01 00       	call   15390 <async_forward_fast>
    42cd:	89 34 24             	mov    %esi,(%esp)
    42d0:	e8 3b 11 00 00       	call   5410 <vfs_exchange_release>
    42d5:	8d 45 c8             	lea    -0x38(%ebp),%eax
    42d8:	89 44 24 04          	mov    %eax,0x4(%esp)
    42dc:	89 3c 24             	mov    %edi,(%esp)
    42df:	e8 fc 04 01 00       	call   147e0 <async_wait_for>
    42e4:	8b 45 c8             	mov    -0x38(%ebp),%eax
    42e7:	89 44 24 04          	mov    %eax,0x4(%esp)
    42eb:	8b 45 08             	mov    0x8(%ebp),%eax
    42ee:	89 04 24             	mov    %eax,(%esp)
    42f1:	e8 7a 0f 01 00       	call   15270 <async_answer_0>
    42f6:	89 1c 24             	mov    %ebx,(%esp)
    42f9:	e8 52 d5 ff ff       	call   1850 <vfs_node_put>
    42fe:	e9 9c fe ff ff       	jmp    419f <vfs_stat+0x4f>
    4303:	90                   	nop
    4304:	8d 74 26 00          	lea    0x0(%esi,%eiz,1),%esi
    4308:	c7 04 24 44 48 02 00 	movl   $0x24844,(%esp)
    430f:	e8 6c 5c 00 00       	call   9f80 <fibril_rwlock_read_unlock>
    4314:	8b 45 c4             	mov    -0x3c(%ebp),%eax
    4317:	89 5c 24 04          	mov    %ebx,0x4(%esp)
    431b:	89 04 24             	mov    %eax,(%esp)
    431e:	e8 4d 0f 01 00       	call   15270 <async_answer_0>
    4323:	8b 45 08             	mov    0x8(%ebp),%eax
    4326:	89 5c 24 04          	mov    %ebx,0x4(%esp)
    432a:	89 04 24             	mov    %eax,(%esp)
    432d:	e8 3e 0f 01 00       	call   15270 <async_answer_0>
    4332:	83 c4 5c             	add    $0x5c,%esp
    4335:	5b                   	pop    %ebx
    4336:	5e                   	pop    %esi
    4337:	5f                   	pop    %edi
    4338:	5d                   	pop    %ebp
    4339:	c3                   	ret    
    433a:	8d b6 00 00 00 00    	lea    0x0(%esi),%esi
    4340:	e8 3b 5c 00 00       	call   9f80 <fibril_rwlock_read_unlock>
    4345:	8b 45 c4             	mov    -0x3c(%ebp),%eax
    4348:	c7 44 24 04 fe ff ff 	movl   $0xfffffffe,0x4(%esp)
    434f:	ff 
    4350:	89 04 24             	mov    %eax,(%esp)
    4353:	e8 18 0f 01 00       	call   15270 <async_answer_0>
    4358:	8b 45 08             	mov    0x8(%ebp),%eax
    435b:	c7 44 24 04 fe ff ff 	movl   $0xfffffffe,0x4(%esp)
    4362:	ff 
    4363:	89 04 24             	mov    %eax,(%esp)
    4366:	e8 05 0f 01 00       	call   15270 <async_answer_0>
    436b:	e9 2f fe ff ff       	jmp    419f <vfs_stat+0x4f>

00004370 <vfs_mkdir>:
    4370:	55                   	push   %ebp
    4371:	89 e5                	mov    %esp,%ebp
    4373:	53                   	push   %ebx
    4374:	83 ec 34             	sub    $0x34,%esp
    4377:	8d 45 f4             	lea    -0xc(%ebp),%eax
    437a:	c7 44 24 14 00 00 00 	movl   $0x0,0x14(%esp)
    4381:	00 
    4382:	c7 44 24 10 00 00 00 	movl   $0x0,0x10(%esp)
    4389:	00 
    438a:	c7 44 24 0c 00 00 00 	movl   $0x0,0xc(%esp)
    4391:	00 
    4392:	c7 44 24 08 00 00 00 	movl   $0x0,0x8(%esp)
    4399:	00 
    439a:	c7 44 24 04 01 00 00 	movl   $0x1,0x4(%esp)
    43a1:	00 
    43a2:	89 04 24             	mov    %eax,(%esp)
    43a5:	e8 e6 29 01 00       	call   16d90 <async_data_write_accept>
    43aa:	85 c0                	test   %eax,%eax
    43ac:	75 62                	jne    4410 <vfs_mkdir+0xa0>
    43ae:	c7 04 24 44 48 02 00 	movl   $0x24844,(%esp)
    43b5:	e8 e6 5a 00 00       	call   9ea0 <fibril_rwlock_write_lock>
    43ba:	8b 45 f4             	mov    -0xc(%ebp),%eax
    43bd:	c7 44 24 0c 00 00 00 	movl   $0x0,0xc(%esp)
    43c4:	00 
    43c5:	c7 44 24 08 00 00 00 	movl   $0x0,0x8(%esp)
    43cc:	00 
    43cd:	c7 44 24 04 32 00 00 	movl   $0x32,0x4(%esp)
    43d4:	00 
    43d5:	89 04 24             	mov    %eax,(%esp)
    43d8:	e8 53 09 00 00       	call   4d30 <vfs_lookup_internal>
    43dd:	c7 04 24 44 48 02 00 	movl   $0x24844,(%esp)
    43e4:	89 c3                	mov    %eax,%ebx
    43e6:	e8 f5 5b 00 00       	call   9fe0 <fibril_rwlock_write_unlock>
    43eb:	8b 45 f4             	mov    -0xc(%ebp),%eax
    43ee:	89 04 24             	mov    %eax,(%esp)
    43f1:	e8 4a e4 00 00       	call   12840 <free>
    43f6:	8b 45 08             	mov    0x8(%ebp),%eax
    43f9:	89 5c 24 04          	mov    %ebx,0x4(%esp)
    43fd:	89 04 24             	mov    %eax,(%esp)
    4400:	e8 6b 0e 01 00       	call   15270 <async_answer_0>
    4405:	83 c4 34             	add    $0x34,%esp
    4408:	5b                   	pop    %ebx
    4409:	5d                   	pop    %ebp
    440a:	c3                   	ret    
    440b:	90                   	nop
    440c:	8d 74 26 00          	lea    0x0(%esi,%eiz,1),%esi
    4410:	89 44 24 04          	mov    %eax,0x4(%esp)
    4414:	8b 45 08             	mov    0x8(%ebp),%eax
    4417:	89 04 24             	mov    %eax,(%esp)
    441a:	e8 51 0e 01 00       	call   15270 <async_answer_0>
    441f:	83 c4 34             	add    $0x34,%esp
    4422:	5b                   	pop    %ebx
    4423:	5d                   	pop    %ebp
    4424:	c3                   	ret    
    4425:	8d 74 26 00          	lea    0x0(%esi,%eiz,1),%esi
    4429:	8d bc 27 00 00 00 00 	lea    0x0(%edi,%eiz,1),%edi

00004430 <vfs_unlink>:
    4430:	55                   	push   %ebp
    4431:	89 e5                	mov    %esp,%ebp
    4433:	56                   	push   %esi
    4434:	53                   	push   %ebx
    4435:	83 ec 40             	sub    $0x40,%esp
    4438:	8b 45 0c             	mov    0xc(%ebp),%eax
    443b:	8b 58 04             	mov    0x4(%eax),%ebx
    443e:	8d 45 d8             	lea    -0x28(%ebp),%eax
    4441:	c7 44 24 14 00 00 00 	movl   $0x0,0x14(%esp)
    4448:	00 
    4449:	c7 44 24 10 00 00 00 	movl   $0x0,0x10(%esp)
    4450:	00 
    4451:	c7 44 24 0c 00 00 00 	movl   $0x0,0xc(%esp)
    4458:	00 
    4459:	c7 44 24 08 00 00 00 	movl   $0x0,0x8(%esp)
    4460:	00 
    4461:	c7 44 24 04 01 00 00 	movl   $0x1,0x4(%esp)
    4468:	00 
    4469:	89 04 24             	mov    %eax,(%esp)
    446c:	e8 1f 29 01 00       	call   16d90 <async_data_write_accept>
    4471:	85 c0                	test   %eax,%eax
    4473:	74 1b                	je     4490 <vfs_unlink+0x60>
    4475:	89 44 24 04          	mov    %eax,0x4(%esp)
    4479:	8b 45 08             	mov    0x8(%ebp),%eax
    447c:	89 04 24             	mov    %eax,(%esp)
    447f:	e8 ec 0d 01 00       	call   15270 <async_answer_0>
    4484:	83 c4 40             	add    $0x40,%esp
    4487:	5b                   	pop    %ebx
    4488:	5e                   	pop    %esi
    4489:	5d                   	pop    %ebp
    448a:	c3                   	ret    
    448b:	90                   	nop
    448c:	8d 74 26 00          	lea    0x0(%esi,%eiz,1),%esi
    4490:	c7 04 24 44 48 02 00 	movl   $0x24844,(%esp)
    4497:	8d 75 dc             	lea    -0x24(%ebp),%esi
    449a:	e8 01 5a 00 00       	call   9ea0 <fibril_rwlock_write_lock>
    449f:	89 d8                	mov    %ebx,%eax
    44a1:	83 e0 02             	and    $0x2,%eax
    44a4:	c7 44 24 0c 00 00 00 	movl   $0x0,0xc(%esp)
    44ab:	00 
    44ac:	0c 80                	or     $0x80,%al
    44ae:	89 74 24 08          	mov    %esi,0x8(%esp)
    44b2:	89 44 24 04          	mov    %eax,0x4(%esp)
    44b6:	8b 45 d8             	mov    -0x28(%ebp),%eax
    44b9:	89 04 24             	mov    %eax,(%esp)
    44bc:	e8 6f 08 00 00       	call   4d30 <vfs_lookup_internal>
    44c1:	89 c3                	mov    %eax,%ebx
    44c3:	8b 45 d8             	mov    -0x28(%ebp),%eax
    44c6:	89 04 24             	mov    %eax,(%esp)
    44c9:	e8 72 e3 00 00       	call   12840 <free>
    44ce:	85 db                	test   %ebx,%ebx
    44d0:	74 26                	je     44f8 <vfs_unlink+0xc8>
    44d2:	c7 04 24 44 48 02 00 	movl   $0x24844,(%esp)
    44d9:	e8 02 5b 00 00       	call   9fe0 <fibril_rwlock_write_unlock>
    44de:	8b 45 08             	mov    0x8(%ebp),%eax
    44e1:	89 5c 24 04          	mov    %ebx,0x4(%esp)
    44e5:	89 04 24             	mov    %eax,(%esp)
    44e8:	e8 83 0d 01 00       	call   15270 <async_answer_0>
    44ed:	83 c4 40             	add    $0x40,%esp
    44f0:	5b                   	pop    %ebx
    44f1:	5e                   	pop    %esi
    44f2:	5d                   	pop    %ebp
    44f3:	c3                   	ret    
    44f4:	8d 74 26 00          	lea    0x0(%esi,%eiz,1),%esi
    44f8:	89 34 24             	mov    %esi,(%esp)
    44fb:	e8 e0 d1 ff ff       	call   16e0 <vfs_node_get>
    4500:	c7 04 24 34 48 02 00 	movl   $0x24834,(%esp)
    4507:	89 c3                	mov    %eax,%ebx
    4509:	e8 12 56 00 00       	call   9b20 <fibril_mutex_lock>
    450e:	8b 4b 10             	mov    0x10(%ebx),%ecx
    4511:	49                   	dec    %ecx
    4512:	89 4b 10             	mov    %ecx,0x10(%ebx)
    4515:	c7 04 24 34 48 02 00 	movl   $0x24834,(%esp)
    451c:	e8 1f 57 00 00       	call   9c40 <fibril_mutex_unlock>
    4521:	c7 04 24 44 48 02 00 	movl   $0x24844,(%esp)
    4528:	e8 b3 5a 00 00       	call   9fe0 <fibril_rwlock_write_unlock>
    452d:	89 1c 24             	mov    %ebx,(%esp)
    4530:	e8 1b d3 ff ff       	call   1850 <vfs_node_put>
    4535:	8b 45 08             	mov    0x8(%ebp),%eax
    4538:	c7 44 24 04 00 00 00 	movl   $0x0,0x4(%esp)
    453f:	00 
    4540:	89 04 24             	mov    %eax,(%esp)
    4543:	e8 28 0d 01 00       	call   15270 <async_answer_0>
    4548:	83 c4 40             	add    $0x40,%esp
    454b:	5b                   	pop    %ebx
    454c:	5e                   	pop    %esi
    454d:	5d                   	pop    %ebp
    454e:	c3                   	ret    
    454f:	90                   	nop

00004550 <vfs_rename>:
    4550:	55                   	push   %ebp
    4551:	89 e5                	mov    %esp,%ebp
    4553:	57                   	push   %edi
    4554:	56                   	push   %esi
    4555:	53                   	push   %ebx
    4556:	81 ec ac 00 00 00    	sub    $0xac,%esp
    455c:	8d 45 84             	lea    -0x7c(%ebp),%eax
    455f:	c7 44 24 14 00 00 00 	movl   $0x0,0x14(%esp)
    4566:	00 
    4567:	c7 44 24 10 00 00 00 	movl   $0x0,0x10(%esp)
    456e:	00 
    456f:	c7 44 24 0c 00 00 00 	movl   $0x0,0xc(%esp)
    4576:	00 
    4577:	c7 44 24 08 00 00 00 	movl   $0x0,0x8(%esp)
    457e:	00 
    457f:	c7 44 24 04 01 00 00 	movl   $0x1,0x4(%esp)
    4586:	00 
    4587:	89 04 24             	mov    %eax,(%esp)
    458a:	e8 01 28 01 00       	call   16d90 <async_data_write_accept>
    458f:	85 c0                	test   %eax,%eax
    4591:	75 4e                	jne    45e1 <vfs_rename+0x91>
    4593:	8d 45 88             	lea    -0x78(%ebp),%eax
    4596:	c7 44 24 14 00 00 00 	movl   $0x0,0x14(%esp)
    459d:	00 
    459e:	c7 44 24 10 00 00 00 	movl   $0x0,0x10(%esp)
    45a5:	00 
    45a6:	c7 44 24 0c 00 00 00 	movl   $0x0,0xc(%esp)
    45ad:	00 
    45ae:	c7 44 24 08 00 00 00 	movl   $0x0,0x8(%esp)
    45b5:	00 
    45b6:	c7 44 24 04 01 00 00 	movl   $0x1,0x4(%esp)
    45bd:	00 
    45be:	89 04 24             	mov    %eax,(%esp)
    45c1:	e8 ca 27 01 00       	call   16d90 <async_data_write_accept>
    45c6:	85 c0                	test   %eax,%eax
    45c8:	74 36                	je     4600 <vfs_rename+0xb0>
    45ca:	8b 55 84             	mov    -0x7c(%ebp),%edx
    45cd:	89 85 70 ff ff ff    	mov    %eax,-0x90(%ebp)
    45d3:	89 14 24             	mov    %edx,(%esp)
    45d6:	e8 65 e2 00 00       	call   12840 <free>
    45db:	8b 85 70 ff ff ff    	mov    -0x90(%ebp),%eax
    45e1:	89 44 24 04          	mov    %eax,0x4(%esp)
    45e5:	8b 45 08             	mov    0x8(%ebp),%eax
    45e8:	89 04 24             	mov    %eax,(%esp)
    45eb:	e8 80 0c 01 00       	call   15270 <async_answer_0>
    45f0:	81 c4 ac 00 00 00    	add    $0xac,%esp
    45f6:	5b                   	pop    %ebx
    45f7:	5e                   	pop    %esi
    45f8:	5f                   	pop    %edi
    45f9:	5d                   	pop    %ebp
    45fa:	c3                   	ret    
    45fb:	90                   	nop
    45fc:	8d 74 26 00          	lea    0x0(%esi,%eiz,1),%esi
    4600:	8d 45 8c             	lea    -0x74(%ebp),%eax
    4603:	89 44 24 04          	mov    %eax,0x4(%esp)
    4607:	8b 45 84             	mov    -0x7c(%ebp),%eax
    460a:	89 04 24             	mov    %eax,(%esp)
    460d:	e8 ee 85 01 00       	call   1cc00 <canonify>
    4612:	89 c3                	mov    %eax,%ebx
    4614:	8d 45 90             	lea    -0x70(%ebp),%eax
    4617:	89 44 24 04          	mov    %eax,0x4(%esp)
    461b:	8b 45 88             	mov    -0x78(%ebp),%eax
    461e:	89 04 24             	mov    %eax,(%esp)
    4621:	e8 da 85 01 00       	call   1cc00 <canonify>
    4626:	89 c6                	mov    %eax,%esi
    4628:	85 c0                	test   %eax,%eax
    462a:	0f 84 68 01 00 00    	je     4798 <vfs_rename+0x248>
    4630:	85 db                	test   %ebx,%ebx
    4632:	0f 84 60 01 00 00    	je     4798 <vfs_rename+0x248>
    4638:	8b 45 8c             	mov    -0x74(%ebp),%eax
    463b:	c6 04 03 00          	movb   $0x0,(%ebx,%eax,1)
    463f:	8b 45 90             	mov    -0x70(%ebp),%eax
    4642:	c6 04 06 00          	movb   $0x0,(%esi,%eax,1)
    4646:	89 1c 24             	mov    %ebx,(%esp)
    4649:	e8 92 24 00 00       	call   6ae0 <str_length>
    464e:	89 5c 24 04          	mov    %ebx,0x4(%esp)
    4652:	89 44 24 08          	mov    %eax,0x8(%esp)
    4656:	89 34 24             	mov    %esi,(%esp)
    4659:	e8 02 2a 00 00       	call   7060 <str_lcmp>
    465e:	85 c0                	test   %eax,%eax
    4660:	75 3b                	jne    469d <vfs_rename+0x14d>
    4662:	89 1c 24             	mov    %ebx,(%esp)
    4665:	e8 76 24 00 00       	call   6ae0 <str_length>
    466a:	80 3c 06 2f          	cmpb   $0x2f,(%esi,%eax,1)
    466e:	0f 84 24 01 00 00    	je     4798 <vfs_rename+0x248>
    4674:	89 1c 24             	mov    %ebx,(%esp)
    4677:	e8 64 24 00 00       	call   6ae0 <str_length>
    467c:	48                   	dec    %eax
    467d:	0f 84 15 01 00 00    	je     4798 <vfs_rename+0x248>
    4683:	89 1c 24             	mov    %ebx,(%esp)
    4686:	e8 55 24 00 00       	call   6ae0 <str_length>
    468b:	89 34 24             	mov    %esi,(%esp)
    468e:	89 c7                	mov    %eax,%edi
    4690:	e8 4b 24 00 00       	call   6ae0 <str_length>
    4695:	39 c7                	cmp    %eax,%edi
    4697:	0f 84 fb 00 00 00    	je     4798 <vfs_rename+0x248>
    469d:	c7 04 24 44 48 02 00 	movl   $0x24844,(%esp)
    46a4:	8d 7d 94             	lea    -0x6c(%ebp),%edi
    46a7:	e8 f4 57 00 00       	call   9ea0 <fibril_rwlock_write_lock>
    46ac:	c7 44 24 0c 00 00 00 	movl   $0x0,0xc(%esp)
    46b3:	00 
    46b4:	89 7c 24 08          	mov    %edi,0x8(%esp)
    46b8:	c7 44 24 04 00 00 00 	movl   $0x0,0x4(%esp)
    46bf:	00 
    46c0:	89 1c 24             	mov    %ebx,(%esp)
    46c3:	e8 68 06 00 00       	call   4d30 <vfs_lookup_internal>
    46c8:	85 c0                	test   %eax,%eax
    46ca:	0f 85 00 01 00 00    	jne    47d0 <vfs_rename+0x280>
    46d0:	89 3c 24             	mov    %edi,(%esp)
    46d3:	e8 08 d0 ff ff       	call   16e0 <vfs_node_get>
    46d8:	89 c7                	mov    %eax,%edi
    46da:	85 c0                	test   %eax,%eax
    46dc:	0f 84 2c 01 00 00    	je     480e <vfs_rename+0x2be>
    46e2:	89 34 24             	mov    %esi,(%esp)
    46e5:	e8 b6 41 00 00       	call   88a0 <str_dup>
    46ea:	89 c2                	mov    %eax,%edx
    46ec:	85 c0                	test   %eax,%eax
    46ee:	0f 84 33 01 00 00    	je     4827 <vfs_rename+0x2d7>
    46f4:	8d 40 01             	lea    0x1(%eax),%eax
    46f7:	c7 44 24 04 2f 00 00 	movl   $0x2f,0x4(%esp)
    46fe:	00 
    46ff:	89 04 24             	mov    %eax,(%esp)
    4702:	89 95 70 ff ff ff    	mov    %edx,-0x90(%ebp)
    4708:	e8 f3 3e 00 00       	call   8600 <str_rchr>
    470d:	8b 95 70 ff ff ff    	mov    -0x90(%ebp),%edx
    4713:	85 c0                	test   %eax,%eax
    4715:	0f 84 2d 01 00 00    	je     4848 <vfs_rename+0x2f8>
    471b:	c6 00 00             	movb   $0x0,(%eax)
    471e:	8d 45 cc             	lea    -0x34(%ebp),%eax
    4721:	89 14 24             	mov    %edx,(%esp)
    4724:	c7 44 24 0c 00 00 00 	movl   $0x0,0xc(%esp)
    472b:	00 
    472c:	89 44 24 08          	mov    %eax,0x8(%esp)
    4730:	c7 44 24 04 00 00 00 	movl   $0x0,0x4(%esp)
    4737:	00 
    4738:	89 95 70 ff ff ff    	mov    %edx,-0x90(%ebp)
    473e:	e8 ed 05 00 00       	call   4d30 <vfs_lookup_internal>
    4743:	8b 95 70 ff ff ff    	mov    -0x90(%ebp),%edx
    4749:	89 14 24             	mov    %edx,(%esp)
    474c:	89 85 70 ff ff ff    	mov    %eax,-0x90(%ebp)
    4752:	e8 e9 e0 00 00       	call   12840 <free>
    4757:	8b 85 70 ff ff ff    	mov    -0x90(%ebp),%eax
    475d:	85 c0                	test   %eax,%eax
    475f:	0f 85 89 00 00 00    	jne    47ee <vfs_rename+0x29e>
    4765:	8b 45 cc             	mov    -0x34(%ebp),%eax
    4768:	66 39 07             	cmp    %ax,(%edi)
    476b:	75 0c                	jne    4779 <vfs_rename+0x229>
    476d:	8b 45 d0             	mov    -0x30(%ebp),%eax
    4770:	39 47 04             	cmp    %eax,0x4(%edi)
    4773:	0f 84 d8 00 00 00    	je     4851 <vfs_rename+0x301>
    4779:	c7 04 24 44 48 02 00 	movl   $0x24844,(%esp)
    4780:	e8 5b 58 00 00       	call   9fe0 <fibril_rwlock_write_unlock>
    4785:	89 3c 24             	mov    %edi,(%esp)
    4788:	e8 c3 d0 ff ff       	call   1850 <vfs_node_put>
    478d:	c7 44 24 04 f8 fe ff 	movl   $0xfffffef8,0x4(%esp)
    4794:	ff 
    4795:	eb 09                	jmp    47a0 <vfs_rename+0x250>
    4797:	90                   	nop
    4798:	c7 44 24 04 f2 ff ff 	movl   $0xfffffff2,0x4(%esp)
    479f:	ff 
    47a0:	8b 45 08             	mov    0x8(%ebp),%eax
    47a3:	89 04 24             	mov    %eax,(%esp)
    47a6:	e8 c5 0a 01 00       	call   15270 <async_answer_0>
    47ab:	8b 45 84             	mov    -0x7c(%ebp),%eax
    47ae:	89 04 24             	mov    %eax,(%esp)
    47b1:	e8 8a e0 00 00       	call   12840 <free>
    47b6:	8b 45 88             	mov    -0x78(%ebp),%eax
    47b9:	89 04 24             	mov    %eax,(%esp)
    47bc:	e8 7f e0 00 00       	call   12840 <free>
    47c1:	81 c4 ac 00 00 00    	add    $0xac,%esp
    47c7:	5b                   	pop    %ebx
    47c8:	5e                   	pop    %esi
    47c9:	5f                   	pop    %edi
    47ca:	5d                   	pop    %ebp
    47cb:	c3                   	ret    
    47cc:	8d 74 26 00          	lea    0x0(%esi,%eiz,1),%esi
    47d0:	c7 04 24 44 48 02 00 	movl   $0x24844,(%esp)
    47d7:	89 85 70 ff ff ff    	mov    %eax,-0x90(%ebp)
    47dd:	e8 fe 57 00 00       	call   9fe0 <fibril_rwlock_write_unlock>
    47e2:	8b 85 70 ff ff ff    	mov    -0x90(%ebp),%eax
    47e8:	89 44 24 04          	mov    %eax,0x4(%esp)
    47ec:	eb b2                	jmp    47a0 <vfs_rename+0x250>
    47ee:	c7 04 24 44 48 02 00 	movl   $0x24844,(%esp)
    47f5:	e8 e6 57 00 00       	call   9fe0 <fibril_rwlock_write_unlock>
    47fa:	89 3c 24             	mov    %edi,(%esp)
    47fd:	e8 4e d0 ff ff       	call   1850 <vfs_node_put>
    4802:	8b 85 70 ff ff ff    	mov    -0x90(%ebp),%eax
    4808:	89 44 24 04          	mov    %eax,0x4(%esp)
    480c:	eb 92                	jmp    47a0 <vfs_rename+0x250>
    480e:	c7 04 24 44 48 02 00 	movl   $0x24844,(%esp)
    4815:	e8 c6 57 00 00       	call   9fe0 <fibril_rwlock_write_unlock>
    481a:	c7 44 24 04 fe ff ff 	movl   $0xfffffffe,0x4(%esp)
    4821:	ff 
    4822:	e9 79 ff ff ff       	jmp    47a0 <vfs_rename+0x250>
    4827:	c7 04 24 44 48 02 00 	movl   $0x24844,(%esp)
    482e:	e8 ad 57 00 00       	call   9fe0 <fibril_rwlock_write_unlock>
    4833:	89 3c 24             	mov    %edi,(%esp)
    4836:	e8 15 d0 ff ff       	call   1850 <vfs_node_put>
    483b:	c7 44 24 04 00 00 00 	movl   $0x0,0x4(%esp)
    4842:	00 
    4843:	e9 58 ff ff ff       	jmp    47a0 <vfs_rename+0x250>
    4848:	c6 42 01 00          	movb   $0x0,0x1(%edx)
    484c:	e9 cd fe ff ff       	jmp    471e <vfs_rename+0x1ce>
    4851:	8d 55 b0             	lea    -0x50(%ebp),%edx
    4854:	c7 44 24 0c 00 00 00 	movl   $0x0,0xc(%esp)
    485b:	00 
    485c:	89 54 24 08          	mov    %edx,0x8(%esp)
    4860:	c7 44 24 04 80 00 00 	movl   $0x80,0x4(%esp)
    4867:	00 
    4868:	89 34 24             	mov    %esi,(%esp)
    486b:	89 95 70 ff ff ff    	mov    %edx,-0x90(%ebp)
    4871:	e8 ba 04 00 00       	call   4d30 <vfs_lookup_internal>
    4876:	8b 95 70 ff ff ff    	mov    -0x90(%ebp),%edx
    487c:	83 f8 ff             	cmp    $0xffffffff,%eax
    487f:	0f 84 c1 00 00 00    	je     4946 <vfs_rename+0x3f6>
    4885:	85 c0                	test   %eax,%eax
    4887:	0f 85 98 00 00 00    	jne    4925 <vfs_rename+0x3d5>
    488d:	89 14 24             	mov    %edx,(%esp)
    4890:	e8 4b ce ff ff       	call   16e0 <vfs_node_get>
    4895:	89 85 74 ff ff ff    	mov    %eax,-0x8c(%ebp)
    489b:	85 c0                	test   %eax,%eax
    489d:	0f 84 9b 01 00 00    	je     4a3e <vfs_rename+0x4ee>
    48a3:	c7 04 24 34 48 02 00 	movl   $0x24834,(%esp)
    48aa:	e8 71 52 00 00       	call   9b20 <fibril_mutex_lock>
    48af:	8b 85 74 ff ff ff    	mov    -0x8c(%ebp),%eax
    48b5:	ff 48 10             	decl   0x10(%eax)
    48b8:	c7 04 24 34 48 02 00 	movl   $0x24834,(%esp)
    48bf:	e8 7c 53 00 00       	call   9c40 <fibril_mutex_unlock>
    48c4:	8b 47 08             	mov    0x8(%edi),%eax
    48c7:	89 34 24             	mov    %esi,(%esp)
    48ca:	89 44 24 10          	mov    %eax,0x10(%esp)
    48ce:	c7 44 24 0c 00 00 00 	movl   $0x0,0xc(%esp)
    48d5:	00 
    48d6:	c7 44 24 08 00 00 00 	movl   $0x0,0x8(%esp)
    48dd:	00 
    48de:	c7 44 24 04 40 00 00 	movl   $0x40,0x4(%esp)
    48e5:	00 
    48e6:	e8 45 04 00 00       	call   4d30 <vfs_lookup_internal>
    48eb:	89 c6                	mov    %eax,%esi
    48ed:	85 c0                	test   %eax,%eax
    48ef:	74 64                	je     4955 <vfs_rename+0x405>
    48f1:	c7 04 24 44 48 02 00 	movl   $0x24844,(%esp)
    48f8:	e8 e3 56 00 00       	call   9fe0 <fibril_rwlock_write_unlock>
    48fd:	89 3c 24             	mov    %edi,(%esp)
    4900:	e8 4b cf ff ff       	call   1850 <vfs_node_put>
    4905:	83 bd 74 ff ff ff 00 	cmpl   $0x0,-0x8c(%ebp)
    490c:	74 0e                	je     491c <vfs_rename+0x3cc>
    490e:	8b 85 74 ff ff ff    	mov    -0x8c(%ebp),%eax
    4914:	89 04 24             	mov    %eax,(%esp)
    4917:	e8 34 cf ff ff       	call   1850 <vfs_node_put>
    491c:	89 74 24 04          	mov    %esi,0x4(%esp)
    4920:	e9 7b fe ff ff       	jmp    47a0 <vfs_rename+0x250>
    4925:	c7 04 24 44 48 02 00 	movl   $0x24844,(%esp)
    492c:	e8 af 56 00 00       	call   9fe0 <fibril_rwlock_write_unlock>
    4931:	89 3c 24             	mov    %edi,(%esp)
    4934:	e8 17 cf ff ff       	call   1850 <vfs_node_put>
    4939:	c7 44 24 04 fb fe ff 	movl   $0xfffffefb,0x4(%esp)
    4940:	ff 
    4941:	e9 5a fe ff ff       	jmp    47a0 <vfs_rename+0x250>
    4946:	c7 85 74 ff ff ff 00 	movl   $0x0,-0x8c(%ebp)
    494d:	00 00 00 
    4950:	e9 6f ff ff ff       	jmp    48c4 <vfs_rename+0x374>
    4955:	c7 04 24 34 48 02 00 	movl   $0x24834,(%esp)
    495c:	e8 bf 51 00 00       	call   9b20 <fibril_mutex_lock>
    4961:	ff 47 10             	incl   0x10(%edi)
    4964:	c7 04 24 34 48 02 00 	movl   $0x24834,(%esp)
    496b:	e8 d0 52 00 00       	call   9c40 <fibril_mutex_unlock>
    4970:	89 1c 24             	mov    %ebx,(%esp)
    4973:	c7 44 24 0c 00 00 00 	movl   $0x0,0xc(%esp)
    497a:	00 
    497b:	c7 44 24 08 00 00 00 	movl   $0x0,0x8(%esp)
    4982:	00 
    4983:	c7 44 24 04 80 00 00 	movl   $0x80,0x4(%esp)
    498a:	00 
    498b:	e8 a0 03 00 00       	call   4d30 <vfs_lookup_internal>
    4990:	89 c3                	mov    %eax,%ebx
    4992:	85 c0                	test   %eax,%eax
    4994:	74 34                	je     49ca <vfs_rename+0x47a>
    4996:	c7 04 24 44 48 02 00 	movl   $0x24844,(%esp)
    499d:	e8 3e 56 00 00       	call   9fe0 <fibril_rwlock_write_unlock>
    49a2:	89 3c 24             	mov    %edi,(%esp)
    49a5:	e8 a6 ce ff ff       	call   1850 <vfs_node_put>
    49aa:	83 bd 74 ff ff ff 00 	cmpl   $0x0,-0x8c(%ebp)
    49b1:	74 0e                	je     49c1 <vfs_rename+0x471>
    49b3:	8b 85 74 ff ff ff    	mov    -0x8c(%ebp),%eax
    49b9:	89 04 24             	mov    %eax,(%esp)
    49bc:	e8 8f ce ff ff       	call   1850 <vfs_node_put>
    49c1:	89 5c 24 04          	mov    %ebx,0x4(%esp)
    49c5:	e9 d6 fd ff ff       	jmp    47a0 <vfs_rename+0x250>
    49ca:	c7 04 24 34 48 02 00 	movl   $0x24834,(%esp)
    49d1:	e8 4a 51 00 00       	call   9b20 <fibril_mutex_lock>
    49d6:	ff 4f 10             	decl   0x10(%edi)
    49d9:	c7 04 24 34 48 02 00 	movl   $0x24834,(%esp)
    49e0:	e8 5b 52 00 00       	call   9c40 <fibril_mutex_unlock>
    49e5:	c7 04 24 44 48 02 00 	movl   $0x24844,(%esp)
    49ec:	e8 ef 55 00 00       	call   9fe0 <fibril_rwlock_write_unlock>
    49f1:	89 3c 24             	mov    %edi,(%esp)
    49f4:	e8 57 ce ff ff       	call   1850 <vfs_node_put>
    49f9:	83 bd 74 ff ff ff 00 	cmpl   $0x0,-0x8c(%ebp)
    4a00:	74 0e                	je     4a10 <vfs_rename+0x4c0>
    4a02:	8b 85 74 ff ff ff    	mov    -0x8c(%ebp),%eax
    4a08:	89 04 24             	mov    %eax,(%esp)
    4a0b:	e8 40 ce ff ff       	call   1850 <vfs_node_put>
    4a10:	8b 45 84             	mov    -0x7c(%ebp),%eax
    4a13:	89 04 24             	mov    %eax,(%esp)
    4a16:	e8 25 de 00 00       	call   12840 <free>
    4a1b:	8b 45 88             	mov    -0x78(%ebp),%eax
    4a1e:	89 04 24             	mov    %eax,(%esp)
    4a21:	e8 1a de 00 00       	call   12840 <free>
    4a26:	8b 45 08             	mov    0x8(%ebp),%eax
    4a29:	c7 44 24 04 00 00 00 	movl   $0x0,0x4(%esp)
    4a30:	00 
    4a31:	89 04 24             	mov    %eax,(%esp)
    4a34:	e8 37 08 01 00       	call   15270 <async_answer_0>
    4a39:	e9 b2 fb ff ff       	jmp    45f0 <vfs_rename+0xa0>
    4a3e:	c7 04 24 44 48 02 00 	movl   $0x24844,(%esp)
    4a45:	e8 96 55 00 00       	call   9fe0 <fibril_rwlock_write_unlock>
    4a4a:	89 3c 24             	mov    %edi,(%esp)
    4a4d:	e8 fe cd ff ff       	call   1850 <vfs_node_put>
    4a52:	c7 44 24 04 fe ff ff 	movl   $0xfffffffe,0x4(%esp)
    4a59:	ff 
    4a5a:	e9 41 fd ff ff       	jmp    47a0 <vfs_rename+0x250>
    4a5f:	90                   	nop

00004a60 <vfs_dup>:
    4a60:	55                   	push   %ebp
    4a61:	89 e5                	mov    %esp,%ebp
    4a63:	57                   	push   %edi
    4a64:	56                   	push   %esi
    4a65:	53                   	push   %ebx
    4a66:	83 ec 2c             	sub    $0x2c,%esp
    4a69:	8b 45 0c             	mov    0xc(%ebp),%eax
    4a6c:	8b 7d 08             	mov    0x8(%ebp),%edi
    4a6f:	8b 50 04             	mov    0x4(%eax),%edx
    4a72:	8b 70 08             	mov    0x8(%eax),%esi
    4a75:	39 f2                	cmp    %esi,%edx
    4a77:	74 7f                	je     4af8 <vfs_dup+0x98>
    4a79:	89 14 24             	mov    %edx,(%esp)
    4a7c:	e8 1f d6 ff ff       	call   20a0 <vfs_file_get>
    4a81:	89 c3                	mov    %eax,%ebx
    4a83:	85 c0                	test   %eax,%eax
    4a85:	0f 84 8d 00 00 00    	je     4b18 <vfs_dup+0xb8>
    4a8b:	89 04 24             	mov    %eax,(%esp)
    4a8e:	e8 8d 50 00 00       	call   9b20 <fibril_mutex_lock>
    4a93:	89 34 24             	mov    %esi,(%esp)
    4a96:	e8 45 d3 ff ff       	call   1de0 <vfs_fd_free>
    4a9b:	89 74 24 04          	mov    %esi,0x4(%esp)
    4a9f:	89 1c 24             	mov    %ebx,(%esp)
    4aa2:	e8 f9 d4 ff ff       	call   1fa0 <vfs_fd_assign>
    4aa7:	89 1c 24             	mov    %ebx,(%esp)
    4aaa:	89 45 e4             	mov    %eax,-0x1c(%ebp)
    4aad:	e8 8e 51 00 00       	call   9c40 <fibril_mutex_unlock>
    4ab2:	89 1c 24             	mov    %ebx,(%esp)
    4ab5:	e8 06 d6 ff ff       	call   20c0 <vfs_file_put>
    4aba:	8b 45 e4             	mov    -0x1c(%ebp),%eax
    4abd:	85 c0                	test   %eax,%eax
    4abf:	75 1f                	jne    4ae0 <vfs_dup+0x80>
    4ac1:	89 74 24 08          	mov    %esi,0x8(%esp)
    4ac5:	89 3c 24             	mov    %edi,(%esp)
    4ac8:	c7 44 24 04 00 00 00 	movl   $0x0,0x4(%esp)
    4acf:	00 
    4ad0:	e8 db 07 01 00       	call   152b0 <async_answer_1>
    4ad5:	83 c4 2c             	add    $0x2c,%esp
    4ad8:	5b                   	pop    %ebx
    4ad9:	5e                   	pop    %esi
    4ada:	5f                   	pop    %edi
    4adb:	5d                   	pop    %ebp
    4adc:	c3                   	ret    
    4add:	8d 76 00             	lea    0x0(%esi),%esi
    4ae0:	89 45 0c             	mov    %eax,0xc(%ebp)
    4ae3:	89 7d 08             	mov    %edi,0x8(%ebp)
    4ae6:	83 c4 2c             	add    $0x2c,%esp
    4ae9:	5b                   	pop    %ebx
    4aea:	5e                   	pop    %esi
    4aeb:	5f                   	pop    %edi
    4aec:	5d                   	pop    %ebp
    4aed:	e9 7e 07 01 00       	jmp    15270 <async_answer_0>
    4af2:	8d b6 00 00 00 00    	lea    0x0(%esi),%esi
    4af8:	89 3c 24             	mov    %edi,(%esp)
    4afb:	89 54 24 08          	mov    %edx,0x8(%esp)
    4aff:	c7 44 24 04 00 00 00 	movl   $0x0,0x4(%esp)
    4b06:	00 
    4b07:	e8 a4 07 01 00       	call   152b0 <async_answer_1>
    4b0c:	83 c4 2c             	add    $0x2c,%esp
    4b0f:	5b                   	pop    %ebx
    4b10:	5e                   	pop    %esi
    4b11:	5f                   	pop    %edi
    4b12:	5d                   	pop    %ebp
    4b13:	c3                   	ret    
    4b14:	8d 74 26 00          	lea    0x0(%esi,%eiz,1),%esi
    4b18:	c7 45 0c fa fe ff ff 	movl   $0xfffffefa,0xc(%ebp)
    4b1f:	eb c2                	jmp    4ae3 <vfs_dup+0x83>
    4b21:	eb 0d                	jmp    4b30 <vfs_wait_handle>
    4b23:	90                   	nop
    4b24:	90                   	nop
    4b25:	90                   	nop
    4b26:	90                   	nop
    4b27:	90                   	nop
    4b28:	90                   	nop
    4b29:	90                   	nop
    4b2a:	90                   	nop
    4b2b:	90                   	nop
    4b2c:	90                   	nop
    4b2d:	90                   	nop
    4b2e:	90                   	nop
    4b2f:	90                   	nop

00004b30 <vfs_wait_handle>:
    4b30:	55                   	push   %ebp
    4b31:	89 e5                	mov    %esp,%ebp
    4b33:	83 ec 18             	sub    $0x18,%esp
    4b36:	e8 25 db ff ff       	call   2660 <vfs_wait_handle_internal>
    4b3b:	89 44 24 08          	mov    %eax,0x8(%esp)
    4b3f:	8b 45 08             	mov    0x8(%ebp),%eax
    4b42:	c7 44 24 04 00 00 00 	movl   $0x0,0x4(%esp)
    4b49:	00 
    4b4a:	89 04 24             	mov    %eax,(%esp)
    4b4d:	e8 5e 07 01 00       	call   152b0 <async_answer_1>
    4b52:	c9                   	leave  
    4b53:	c3                   	ret    
    4b54:	8d b6 00 00 00 00    	lea    0x0(%esi),%esi
    4b5a:	8d bf 00 00 00 00    	lea    0x0(%edi),%edi

00004b60 <vfs_get_mtab>:
    4b60:	55                   	push   %ebp
    4b61:	89 e5                	mov    %esp,%ebp
    4b63:	57                   	push   %edi
    4b64:	56                   	push   %esi
    4b65:	53                   	push   %ebx
    4b66:	83 ec 5c             	sub    $0x5c,%esp
    4b69:	c7 04 24 60 48 02 00 	movl   $0x24860,(%esp)
    4b70:	e8 ab 4f 00 00       	call   9b20 <fibril_mutex_lock>
    4b75:	8d 45 c4             	lea    -0x3c(%ebp),%eax
    4b78:	c7 44 24 04 00 00 00 	movl   $0x0,0x4(%esp)
    4b7f:	00 
    4b80:	89 04 24             	mov    %eax,(%esp)
    4b83:	e8 b8 f0 00 00       	call   13c40 <async_get_call_timeout>
    4b88:	81 7d c4 07 04 00 00 	cmpl   $0x407,-0x3c(%ebp)
    4b8f:	89 45 bc             	mov    %eax,-0x44(%ebp)
    4b92:	74 3c                	je     4bd0 <vfs_get_mtab+0x70>
    4b94:	c7 44 24 04 f5 ff ff 	movl   $0xfffffff5,0x4(%esp)
    4b9b:	ff 
    4b9c:	89 04 24             	mov    %eax,(%esp)
    4b9f:	e8 cc 06 01 00       	call   15270 <async_answer_0>
    4ba4:	bb f5 ff ff ff       	mov    $0xfffffff5,%ebx
    4ba9:	c7 04 24 60 48 02 00 	movl   $0x24860,(%esp)
    4bb0:	e8 8b 50 00 00       	call   9c40 <fibril_mutex_unlock>
    4bb5:	8b 45 08             	mov    0x8(%ebp),%eax
    4bb8:	89 5c 24 04          	mov    %ebx,0x4(%esp)
    4bbc:	89 04 24             	mov    %eax,(%esp)
    4bbf:	e8 ac 06 01 00       	call   15270 <async_answer_0>
    4bc4:	83 c4 5c             	add    $0x5c,%esp
    4bc7:	5b                   	pop    %ebx
    4bc8:	5e                   	pop    %esi
    4bc9:	5f                   	pop    %edi
    4bca:	5d                   	pop    %ebp
    4bcb:	c3                   	ret    
    4bcc:	8d 74 26 00          	lea    0x0(%esi,%eiz,1),%esi
    4bd0:	8b 15 e4 4a 02 00    	mov    0x24ae4,%edx
    4bd6:	c7 44 24 04 00 00 00 	movl   $0x0,0x4(%esp)
    4bdd:	00 
    4bde:	89 54 24 08          	mov    %edx,0x8(%esp)
    4be2:	89 04 24             	mov    %eax,(%esp)
    4be5:	e8 c6 06 01 00       	call   152b0 <async_answer_1>
    4bea:	8b 1d 5c 48 02 00    	mov    0x2485c,%ebx
    4bf0:	81 fb 58 48 02 00    	cmp    $0x24858,%ebx
    4bf6:	0f 84 2c 01 00 00    	je     4d28 <vfs_get_mtab+0x1c8>
    4bfc:	8d 7d c0             	lea    -0x40(%ebp),%edi
    4bff:	8d 75 bc             	lea    -0x44(%ebp),%esi
    4c02:	e9 ed 00 00 00       	jmp    4cf4 <vfs_get_mtab+0x194>
    4c07:	90                   	nop
    4c08:	8d 53 08             	lea    0x8(%ebx),%edx
    4c0b:	89 14 24             	mov    %edx,(%esp)
    4c0e:	89 55 b4             	mov    %edx,-0x4c(%ebp)
    4c11:	e8 ea 1c 00 00       	call   6900 <str_size>
    4c16:	8b 55 b4             	mov    -0x4c(%ebp),%edx
    4c19:	89 44 24 08          	mov    %eax,0x8(%esp)
    4c1d:	8b 45 bc             	mov    -0x44(%ebp),%eax
    4c20:	89 54 24 04          	mov    %edx,0x4(%esp)
    4c24:	89 04 24             	mov    %eax,(%esp)
    4c27:	e8 14 1c 01 00       	call   16840 <async_data_read_finalize>
    4c2c:	89 7c 24 04          	mov    %edi,0x4(%esp)
    4c30:	89 34 24             	mov    %esi,(%esp)
    4c33:	e8 a8 1b 01 00       	call   167e0 <async_data_read_receive>
    4c38:	84 c0                	test   %al,%al
    4c3a:	0f 84 c8 00 00 00    	je     4d08 <vfs_get_mtab+0x1a8>
    4c40:	8d 93 08 00 01 00    	lea    0x10008(%ebx),%edx
    4c46:	89 14 24             	mov    %edx,(%esp)
    4c49:	89 55 b4             	mov    %edx,-0x4c(%ebp)
    4c4c:	e8 af 1c 00 00       	call   6900 <str_size>
    4c51:	8b 55 b4             	mov    -0x4c(%ebp),%edx
    4c54:	89 44 24 08          	mov    %eax,0x8(%esp)
    4c58:	8b 45 bc             	mov    -0x44(%ebp),%eax
    4c5b:	89 54 24 04          	mov    %edx,0x4(%esp)
    4c5f:	89 04 24             	mov    %eax,(%esp)
    4c62:	e8 d9 1b 01 00       	call   16840 <async_data_read_finalize>
    4c67:	89 7c 24 04          	mov    %edi,0x4(%esp)
    4c6b:	89 34 24             	mov    %esi,(%esp)
    4c6e:	e8 6d 1b 01 00       	call   167e0 <async_data_read_receive>
    4c73:	84 c0                	test   %al,%al
    4c75:	0f 84 8d 00 00 00    	je     4d08 <vfs_get_mtab+0x1a8>
    4c7b:	8d 93 08 01 01 00    	lea    0x10108(%ebx),%edx
    4c81:	89 14 24             	mov    %edx,(%esp)
    4c84:	89 55 b4             	mov    %edx,-0x4c(%ebp)
    4c87:	e8 74 1c 00 00       	call   6900 <str_size>
    4c8c:	8b 55 b4             	mov    -0x4c(%ebp),%edx
    4c8f:	89 44 24 08          	mov    %eax,0x8(%esp)
    4c93:	8b 45 bc             	mov    -0x44(%ebp),%eax
    4c96:	89 54 24 04          	mov    %edx,0x4(%esp)
    4c9a:	89 04 24             	mov    %eax,(%esp)
    4c9d:	e8 9e 1b 01 00       	call   16840 <async_data_read_finalize>
    4ca2:	8d 45 c4             	lea    -0x3c(%ebp),%eax
    4ca5:	c7 44 24 04 00 00 00 	movl   $0x0,0x4(%esp)
    4cac:	00 
    4cad:	89 04 24             	mov    %eax,(%esp)
    4cb0:	e8 8b ef 00 00       	call   13c40 <async_get_call_timeout>
    4cb5:	81 7d c4 07 04 00 00 	cmpl   $0x407,-0x3c(%ebp)
    4cbc:	89 45 bc             	mov    %eax,-0x44(%ebp)
    4cbf:	0f 85 cf fe ff ff    	jne    4b94 <vfs_get_mtab+0x34>
    4cc5:	8b 93 20 01 01 00    	mov    0x10120(%ebx),%edx
    4ccb:	89 54 24 0c          	mov    %edx,0xc(%esp)
    4ccf:	8b 93 1c 01 01 00    	mov    0x1011c(%ebx),%edx
    4cd5:	c7 44 24 04 00 00 00 	movl   $0x0,0x4(%esp)
    4cdc:	00 
    4cdd:	89 54 24 08          	mov    %edx,0x8(%esp)
    4ce1:	89 04 24             	mov    %eax,(%esp)
    4ce4:	e8 07 06 01 00       	call   152f0 <async_answer_2>
    4ce9:	8b 5b 04             	mov    0x4(%ebx),%ebx
    4cec:	81 fb 58 48 02 00    	cmp    $0x24858,%ebx
    4cf2:	74 34                	je     4d28 <vfs_get_mtab+0x1c8>
    4cf4:	89 7c 24 04          	mov    %edi,0x4(%esp)
    4cf8:	89 34 24             	mov    %esi,(%esp)
    4cfb:	e8 e0 1a 01 00       	call   167e0 <async_data_read_receive>
    4d00:	84 c0                	test   %al,%al
    4d02:	0f 85 00 ff ff ff    	jne    4c08 <vfs_get_mtab+0xa8>
    4d08:	8b 45 bc             	mov    -0x44(%ebp),%eax
    4d0b:	c7 44 24 04 f5 ff ff 	movl   $0xfffffff5,0x4(%esp)
    4d12:	ff 
    4d13:	89 04 24             	mov    %eax,(%esp)
    4d16:	bb f5 ff ff ff       	mov    $0xfffffff5,%ebx
    4d1b:	e8 50 05 01 00       	call   15270 <async_answer_0>
    4d20:	e9 84 fe ff ff       	jmp    4ba9 <vfs_get_mtab+0x49>
    4d25:	8d 76 00             	lea    0x0(%esi),%esi
    4d28:	31 db                	xor    %ebx,%ebx
    4d2a:	e9 7a fe ff ff       	jmp    4ba9 <vfs_get_mtab+0x49>
    4d2f:	90                   	nop

00004d30 <vfs_lookup_internal>:
    4d30:	55                   	push   %ebp
    4d31:	89 e5                	mov    %esp,%ebp
    4d33:	57                   	push   %edi
    4d34:	56                   	push   %esi
    4d35:	53                   	push   %ebx
    4d36:	83 ec 7c             	sub    $0x7c,%esp
    4d39:	8b 5d 14             	mov    0x14(%ebp),%ebx
    4d3c:	85 db                	test   %ebx,%ebx
    4d3e:	0f 84 ac 02 00 00    	je     4ff0 <vfs_lookup_internal+0x2c0>
    4d44:	66 83 3b 00          	cmpw   $0x0,(%ebx)
    4d48:	0f 84 c2 02 00 00    	je     5010 <vfs_lookup_internal+0x2e0>
    4d4e:	8d 45 ac             	lea    -0x54(%ebp),%eax
    4d51:	89 44 24 04          	mov    %eax,0x4(%esp)
    4d55:	8b 45 08             	mov    0x8(%ebp),%eax
    4d58:	89 04 24             	mov    %eax,(%esp)
    4d5b:	e8 a0 7e 01 00       	call   1cc00 <canonify>
    4d60:	89 c6                	mov    %eax,%esi
    4d62:	85 c0                	test   %eax,%eax
    4d64:	0f 84 cc 02 00 00    	je     5036 <vfs_lookup_internal+0x306>
    4d6a:	c7 45 a4 00 00 00 00 	movl   $0x0,-0x5c(%ebp)
    4d71:	f6 45 0c 40          	testb  $0x40,0xc(%ebp)
    4d75:	0f 85 35 02 00 00    	jne    4fb0 <vfs_lookup_internal+0x280>
    4d7b:	c7 04 24 78 48 02 00 	movl   $0x24878,(%esp)
    4d82:	e8 99 4d 00 00       	call   9b20 <fibril_mutex_lock>
    4d87:	8b 4d ac             	mov    -0x54(%ebp),%ecx
    4d8a:	8b 3d 74 48 02 00    	mov    0x24874,%edi
    4d90:	c7 45 b4 00 00 00 00 	movl   $0x0,-0x4c(%ebp)
    4d97:	c7 45 b8 00 00 00 00 	movl   $0x0,-0x48(%ebp)
    4d9e:	89 4d c0             	mov    %ecx,-0x40(%ebp)
    4da1:	81 ff 70 48 02 00    	cmp    $0x24870,%edi
    4da7:	0f 84 53 02 00 00    	je     5000 <vfs_lookup_internal+0x2d0>
    4dad:	a1 70 48 02 00       	mov    0x24870,%eax
    4db2:	3d 70 48 02 00       	cmp    $0x24870,%eax
    4db7:	0f 95 c2             	setne  %dl
    4dba:	81 e2 ff 00 00 00    	and    $0xff,%edx
    4dc0:	f7 da                	neg    %edx
    4dc2:	21 d0                	and    %edx,%eax
    4dc4:	8b 50 0c             	mov    0xc(%eax),%edx
    4dc7:	03 50 08             	add    0x8(%eax),%edx
    4dca:	8b 47 08             	mov    0x8(%edi),%eax
    4dcd:	48                   	dec    %eax
    4dce:	81 e2 ff ff 01 00    	and    $0x1ffff,%edx
    4dd4:	25 ff ff 01 00       	and    $0x1ffff,%eax
    4dd9:	39 c2                	cmp    %eax,%edx
    4ddb:	0f 86 c7 01 00 00    	jbe    4fa8 <vfs_lookup_internal+0x278>
    4de1:	89 d7                	mov    %edx,%edi
    4de3:	29 c7                	sub    %eax,%edi
    4de5:	89 f8                	mov    %edi,%eax
    4de7:	83 f0 ff             	xor    $0xffffffff,%eax
    4dea:	05 00 00 02 00       	add    $0x20000,%eax
    4def:	39 c1                	cmp    %eax,%ecx
    4df1:	0f 87 29 02 00 00    	ja     5020 <vfs_lookup_internal+0x2f0>
    4df7:	8b 0d 70 48 02 00    	mov    0x24870,%ecx
    4dfd:	8d 45 b4             	lea    -0x4c(%ebp),%eax
    4e00:	89 55 bc             	mov    %edx,-0x44(%ebp)
    4e03:	c7 45 b8 70 48 02 00 	movl   $0x24870,-0x48(%ebp)
    4e0a:	89 41 04             	mov    %eax,0x4(%ecx)
    4e0d:	c7 04 24 78 48 02 00 	movl   $0x24878,(%esp)
    4e14:	89 4d b4             	mov    %ecx,-0x4c(%ebp)
    4e17:	89 55 a0             	mov    %edx,-0x60(%ebp)
    4e1a:	a3 70 48 02 00       	mov    %eax,0x24870
    4e1f:	e8 1c 4e 00 00       	call   9c40 <fibril_mutex_unlock>
    4e24:	b9 01 00 02 00       	mov    $0x20001,%ecx
    4e29:	8b 55 a0             	mov    -0x60(%ebp),%edx
    4e2c:	8b 7d ac             	mov    -0x54(%ebp),%edi
    4e2f:	29 d1                	sub    %edx,%ecx
    4e31:	39 f9                	cmp    %edi,%ecx
    4e33:	76 02                	jbe    4e37 <vfs_lookup_internal+0x107>
    4e35:	89 f9                	mov    %edi,%ecx
    4e37:	a1 e8 4a 02 00       	mov    0x24ae8,%eax
    4e3c:	89 4c 24 08          	mov    %ecx,0x8(%esp)
    4e40:	01 d0                	add    %edx,%eax
    4e42:	89 74 24 04          	mov    %esi,0x4(%esp)
    4e46:	89 04 24             	mov    %eax,(%esp)
    4e49:	29 cf                	sub    %ecx,%edi
    4e4b:	89 55 a0             	mov    %edx,-0x60(%ebp)
    4e4e:	89 4d 9c             	mov    %ecx,-0x64(%ebp)
    4e51:	e8 9a 0c 00 00       	call   5af0 <memcpy>
    4e56:	8b 4d 9c             	mov    -0x64(%ebp),%ecx
    4e59:	01 ce                	add    %ecx,%esi
    4e5b:	a1 e8 4a 02 00       	mov    0x24ae8,%eax
    4e60:	89 74 24 04          	mov    %esi,0x4(%esp)
    4e64:	89 7c 24 08          	mov    %edi,0x8(%esp)
    4e68:	89 04 24             	mov    %eax,(%esp)
    4e6b:	e8 80 0c 00 00       	call   5af0 <memcpy>
    4e70:	0f bf 03             	movswl (%ebx),%eax
    4e73:	89 04 24             	mov    %eax,(%esp)
    4e76:	e8 e5 04 00 00       	call   5360 <vfs_exchange_grab>
    4e7b:	8b 55 a0             	mov    -0x60(%ebp),%edx
    4e7e:	89 c6                	mov    %eax,%esi
    4e80:	8d 45 c4             	lea    -0x3c(%ebp),%eax
    4e83:	89 44 24 1c          	mov    %eax,0x1c(%esp)
    4e87:	8b 45 a4             	mov    -0x5c(%ebp),%eax
    4e8a:	89 44 24 18          	mov    %eax,0x18(%esp)
    4e8e:	8b 45 0c             	mov    0xc(%ebp),%eax
    4e91:	89 44 24 14          	mov    %eax,0x14(%esp)
    4e95:	8b 43 04             	mov    0x4(%ebx),%eax
    4e98:	89 54 24 08          	mov    %edx,0x8(%esp)
    4e9c:	89 44 24 10          	mov    %eax,0x10(%esp)
    4ea0:	8b 45 ac             	mov    -0x54(%ebp),%eax
    4ea3:	c7 44 24 04 0b 04 00 	movl   $0x40b,0x4(%esp)
    4eaa:	00 
    4eab:	89 34 24             	mov    %esi,(%esp)
    4eae:	8d 44 02 ff          	lea    -0x1(%edx,%eax,1),%eax
    4eb2:	8d 5d b0             	lea    -0x50(%ebp),%ebx
    4eb5:	25 ff ff 01 00       	and    $0x1ffff,%eax
    4eba:	89 44 24 0c          	mov    %eax,0xc(%esp)
    4ebe:	e8 2d f8 00 00       	call   146f0 <async_send_slow>
    4ec3:	89 5c 24 04          	mov    %ebx,0x4(%esp)
    4ec7:	89 04 24             	mov    %eax,(%esp)
    4eca:	e8 11 f9 00 00       	call   147e0 <async_wait_for>
    4ecf:	89 34 24             	mov    %esi,(%esp)
    4ed2:	e8 39 05 00 00       	call   5410 <vfs_exchange_release>
    4ed7:	c7 04 24 78 48 02 00 	movl   $0x24878,(%esp)
    4ede:	e8 3d 4c 00 00       	call   9b20 <fibril_mutex_lock>
    4ee3:	8b 5d b4             	mov    -0x4c(%ebp),%ebx
    4ee6:	85 db                	test   %ebx,%ebx
    4ee8:	8b 55 a0             	mov    -0x60(%ebp),%edx
    4eeb:	8b 4d 9c             	mov    -0x64(%ebp),%ecx
    4eee:	74 0f                	je     4eff <vfs_lookup_internal+0x1cf>
    4ef0:	8b 45 b8             	mov    -0x48(%ebp),%eax
    4ef3:	85 c0                	test   %eax,%eax
    4ef5:	74 08                	je     4eff <vfs_lookup_internal+0x1cf>
    4ef7:	89 18                	mov    %ebx,(%eax)
    4ef9:	8b 5d b4             	mov    -0x4c(%ebp),%ebx
    4efc:	89 43 04             	mov    %eax,0x4(%ebx)
    4eff:	89 4c 24 08          	mov    %ecx,0x8(%esp)
    4f03:	8b 0d e8 4a 02 00    	mov    0x24ae8,%ecx
    4f09:	01 ca                	add    %ecx,%edx
    4f0b:	c7 44 24 04 00 00 00 	movl   $0x0,0x4(%esp)
    4f12:	00 
    4f13:	89 14 24             	mov    %edx,(%esp)
    4f16:	c7 45 b4 00 00 00 00 	movl   $0x0,-0x4c(%ebp)
    4f1d:	c7 45 b8 00 00 00 00 	movl   $0x0,-0x48(%ebp)
    4f24:	e8 47 0a 00 00       	call   5970 <memset>
    4f29:	a1 e8 4a 02 00       	mov    0x24ae8,%eax
    4f2e:	89 7c 24 08          	mov    %edi,0x8(%esp)
    4f32:	c7 44 24 04 00 00 00 	movl   $0x0,0x4(%esp)
    4f39:	00 
    4f3a:	89 04 24             	mov    %eax,(%esp)
    4f3d:	e8 2e 0a 00 00       	call   5970 <memset>
    4f42:	c7 04 24 78 48 02 00 	movl   $0x24878,(%esp)
    4f49:	e8 f2 4c 00 00       	call   9c40 <fibril_mutex_unlock>
    4f4e:	8b 45 b0             	mov    -0x50(%ebp),%eax
    4f51:	85 c0                	test   %eax,%eax
    4f53:	78 4a                	js     4f9f <vfs_lookup_internal+0x26f>
    4f55:	8b 55 10             	mov    0x10(%ebp),%edx
    4f58:	85 d2                	test   %edx,%edx
    4f5a:	0f 84 b8 00 00 00    	je     5018 <vfs_lookup_internal+0x2e8>
    4f60:	8b 55 10             	mov    0x10(%ebp),%edx
    4f63:	8b 75 10             	mov    0x10(%ebp),%esi
    4f66:	8b 4d d0             	mov    -0x30(%ebp),%ecx
    4f69:	f6 45 0c 01          	testb  $0x1,0xc(%ebp)
    4f6d:	66 89 02             	mov    %ax,(%edx)
    4f70:	8b 45 c8             	mov    -0x38(%ebp),%eax
    4f73:	89 42 04             	mov    %eax,0x4(%edx)
    4f76:	8b 45 cc             	mov    -0x34(%ebp),%eax
    4f79:	89 42 08             	mov    %eax,0x8(%edx)
    4f7c:	8b 45 d4             	mov    -0x2c(%ebp),%eax
    4f7f:	89 46 14             	mov    %eax,0x14(%esi)
    4f82:	8b 45 d8             	mov    -0x28(%ebp),%eax
    4f85:	89 4e 10             	mov    %ecx,0x10(%esi)
    4f88:	89 46 18             	mov    %eax,0x18(%esi)
    4f8b:	75 33                	jne    4fc0 <vfs_lookup_internal+0x290>
    4f8d:	f6 45 0c 02          	testb  $0x2,0xc(%ebp)
    4f91:	75 45                	jne    4fd8 <vfs_lookup_internal+0x2a8>
    4f93:	8b 55 10             	mov    0x10(%ebp),%edx
    4f96:	31 c0                	xor    %eax,%eax
    4f98:	c7 42 0c 00 00 00 00 	movl   $0x0,0xc(%edx)
    4f9f:	83 c4 7c             	add    $0x7c,%esp
    4fa2:	5b                   	pop    %ebx
    4fa3:	5e                   	pop    %esi
    4fa4:	5f                   	pop    %edi
    4fa5:	5d                   	pop    %ebp
    4fa6:	c3                   	ret    
    4fa7:	90                   	nop
    4fa8:	40                   	inc    %eax
    4fa9:	29 d0                	sub    %edx,%eax
    4fab:	e9 3f fe ff ff       	jmp    4def <vfs_lookup_internal+0xbf>
    4fb0:	8b 55 18             	mov    0x18(%ebp),%edx
    4fb3:	89 55 a4             	mov    %edx,-0x5c(%ebp)
    4fb6:	e9 c0 fd ff ff       	jmp    4d7b <vfs_lookup_internal+0x4b>
    4fbb:	90                   	nop
    4fbc:	8d 74 26 00          	lea    0x0(%esi,%eiz,1),%esi
    4fc0:	c7 46 0c 01 00 00 00 	movl   $0x1,0xc(%esi)
    4fc7:	83 c4 7c             	add    $0x7c,%esp
    4fca:	31 c0                	xor    %eax,%eax
    4fcc:	5b                   	pop    %ebx
    4fcd:	5e                   	pop    %esi
    4fce:	5f                   	pop    %edi
    4fcf:	5d                   	pop    %ebp
    4fd0:	c3                   	ret    
    4fd1:	8d b4 26 00 00 00 00 	lea    0x0(%esi,%eiz,1),%esi
    4fd8:	8b 7d 10             	mov    0x10(%ebp),%edi
    4fdb:	31 c0                	xor    %eax,%eax
    4fdd:	c7 47 0c 02 00 00 00 	movl   $0x2,0xc(%edi)
    4fe4:	83 c4 7c             	add    $0x7c,%esp
    4fe7:	5b                   	pop    %ebx
    4fe8:	5e                   	pop    %esi
    4fe9:	5f                   	pop    %edi
    4fea:	5d                   	pop    %ebp
    4feb:	c3                   	ret    
    4fec:	8d 74 26 00          	lea    0x0(%esi,%eiz,1),%esi
    4ff0:	bb dc 4a 02 00       	mov    $0x24adc,%ebx
    4ff5:	e9 4a fd ff ff       	jmp    4d44 <vfs_lookup_internal+0x14>
    4ffa:	8d b6 00 00 00 00    	lea    0x0(%esi),%esi
    5000:	b8 00 00 02 00       	mov    $0x20000,%eax
    5005:	31 d2                	xor    %edx,%edx
    5007:	e9 e3 fd ff ff       	jmp    4def <vfs_lookup_internal+0xbf>
    500c:	8d 74 26 00          	lea    0x0(%esi,%eiz,1),%esi
    5010:	83 c8 ff             	or     $0xffffffff,%eax
    5013:	eb 8a                	jmp    4f9f <vfs_lookup_internal+0x26f>
    5015:	8d 76 00             	lea    0x0(%esi),%esi
    5018:	31 c0                	xor    %eax,%eax
    501a:	eb 83                	jmp    4f9f <vfs_lookup_internal+0x26f>
    501c:	8d 74 26 00          	lea    0x0(%esi,%eiz,1),%esi
    5020:	c7 04 24 78 48 02 00 	movl   $0x24878,(%esp)
    5027:	e8 14 4c 00 00       	call   9c40 <fibril_mutex_unlock>
    502c:	b8 fd ff ff ff       	mov    $0xfffffffd,%eax
    5031:	e9 69 ff ff ff       	jmp    4f9f <vfs_lookup_internal+0x26f>
    5036:	b8 f2 ff ff ff       	mov    $0xfffffff2,%eax
    503b:	e9 5f ff ff ff       	jmp    4f9f <vfs_lookup_internal+0x26f>

00005040 <vfs_register>:
    5040:	55                   	push   %ebp
    5041:	89 e5                	mov    %esp,%ebp
    5043:	57                   	push   %edi
    5044:	56                   	push   %esi
    5045:	53                   	push   %ebx
    5046:	83 ec 4c             	sub    $0x4c,%esp
    5049:	8d 45 dc             	lea    -0x24(%ebp),%eax
    504c:	c7 44 24 14 00 00 00 	movl   $0x0,0x14(%esp)
    5053:	00 
    5054:	c7 44 24 10 00 00 00 	movl   $0x0,0x10(%esp)
    505b:	00 
    505c:	c7 44 24 0c 20 00 00 	movl   $0x20,0xc(%esp)
    5063:	00 
    5064:	c7 44 24 08 20 00 00 	movl   $0x20,0x8(%esp)
    506b:	00 
    506c:	c7 44 24 04 00 00 00 	movl   $0x0,0x4(%esp)
    5073:	00 
    5074:	89 04 24             	mov    %eax,(%esp)
    5077:	e8 14 1d 01 00       	call   16d90 <async_data_write_accept>
    507c:	85 c0                	test   %eax,%eax
    507e:	74 18                	je     5098 <vfs_register+0x58>
    5080:	8b 55 08             	mov    0x8(%ebp),%edx
    5083:	89 44 24 04          	mov    %eax,0x4(%esp)
    5087:	89 14 24             	mov    %edx,(%esp)
    508a:	e8 e1 01 01 00       	call   15270 <async_answer_0>
    508f:	83 c4 4c             	add    $0x4c,%esp
    5092:	5b                   	pop    %ebx
    5093:	5e                   	pop    %esi
    5094:	5f                   	pop    %edi
    5095:	5d                   	pop    %ebp
    5096:	c3                   	ret    
    5097:	90                   	nop
    5098:	c7 04 24 30 00 00 00 	movl   $0x30,(%esp)
    509f:	e8 8c d6 00 00       	call   12730 <malloc>
    50a4:	89 c3                	mov    %eax,%ebx
    50a6:	85 c0                	test   %eax,%eax
    50a8:	0f 84 da 01 00 00    	je     5288 <vfs_register+0x248>
    50ae:	c7 00 00 00 00 00    	movl   $0x0,(%eax)
    50b4:	c7 40 04 00 00 00 00 	movl   $0x0,0x4(%eax)
    50bb:	8d 53 08             	lea    0x8(%ebx),%edx
    50be:	8b 45 dc             	mov    -0x24(%ebp),%eax
    50c1:	89 c6                	mov    %eax,%esi
    50c3:	89 55 d4             	mov    %edx,-0x2c(%ebp)
    50c6:	89 d7                	mov    %edx,%edi
    50c8:	b9 08 00 00 00       	mov    $0x8,%ecx
    50cd:	f3 a5                	rep movsl %ds:(%esi),%es:(%edi)
    50cf:	89 04 24             	mov    %eax,(%esp)
    50d2:	e8 69 d7 00 00       	call   12840 <free>
    50d7:	0f be 43 08          	movsbl 0x8(%ebx),%eax
    50db:	83 e8 61             	sub    $0x61,%eax
    50de:	83 f8 19             	cmp    $0x19,%eax
    50e1:	0f 87 79 01 00 00    	ja     5260 <vfs_register+0x220>
    50e7:	b8 01 00 00 00       	mov    $0x1,%eax
    50ec:	8d 74 26 00          	lea    0x0(%esi,%eiz,1),%esi
    50f0:	8a 54 03 08          	mov    0x8(%ebx,%eax,1),%dl
    50f4:	0f be ca             	movsbl %dl,%ecx
    50f7:	8d 71 9f             	lea    -0x61(%ecx),%esi
    50fa:	83 fe 19             	cmp    $0x19,%esi
    50fd:	76 19                	jbe    5118 <vfs_register+0xd8>
    50ff:	83 e9 30             	sub    $0x30,%ecx
    5102:	83 f9 09             	cmp    $0x9,%ecx
    5105:	76 11                	jbe    5118 <vfs_register+0xd8>
    5107:	80 fa 2d             	cmp    $0x2d,%dl
    510a:	74 0c                	je     5118 <vfs_register+0xd8>
    510c:	80 fa 5f             	cmp    $0x5f,%dl
    510f:	0f 85 39 02 00 00    	jne    534e <vfs_register+0x30e>
    5115:	8d 76 00             	lea    0x0(%esi),%esi
    5118:	40                   	inc    %eax
    5119:	83 f8 14             	cmp    $0x14,%eax
    511c:	75 d2                	jne    50f0 <vfs_register+0xb0>
    511e:	80 7b 1c 00          	cmpb   $0x0,0x1c(%ebx)
    5122:	0f 85 38 01 00 00    	jne    5260 <vfs_register+0x220>
    5128:	c7 04 24 94 48 02 00 	movl   $0x24894,(%esp)
    512f:	e8 ec 49 00 00       	call   9b20 <fibril_mutex_lock>
    5134:	8b 35 90 48 02 00    	mov    0x24890,%esi
    513a:	8b 7b 20             	mov    0x20(%ebx),%edi
    513d:	81 fe 8c 48 02 00    	cmp    $0x2488c,%esi
    5143:	74 35                	je     517a <vfs_register+0x13a>
    5145:	89 5d d0             	mov    %ebx,-0x30(%ebp)
    5148:	89 f3                	mov    %esi,%ebx
    514a:	89 fe                	mov    %edi,%esi
    514c:	8b 7d d4             	mov    -0x2c(%ebp),%edi
    514f:	90                   	nop
    5150:	8d 43 08             	lea    0x8(%ebx),%eax
    5153:	89 7c 24 04          	mov    %edi,0x4(%esp)
    5157:	89 04 24             	mov    %eax,(%esp)
    515a:	e8 d1 1c 00 00       	call   6e30 <str_cmp>
    515f:	85 c0                	test   %eax,%eax
    5161:	75 09                	jne    516c <vfs_register+0x12c>
    5163:	3b 73 20             	cmp    0x20(%ebx),%esi
    5166:	0f 84 34 01 00 00    	je     52a0 <vfs_register+0x260>
    516c:	8b 5b 04             	mov    0x4(%ebx),%ebx
    516f:	81 fb 8c 48 02 00    	cmp    $0x2488c,%ebx
    5175:	75 d9                	jne    5150 <vfs_register+0x110>
    5177:	8b 5d d0             	mov    -0x30(%ebp),%ebx
    517a:	a1 8c 48 02 00       	mov    0x2488c,%eax
    517f:	c7 43 04 8c 48 02 00 	movl   $0x2488c,0x4(%ebx)
    5186:	89 03                	mov    %eax,(%ebx)
    5188:	89 1d 8c 48 02 00    	mov    %ebx,0x2488c
    518e:	89 58 04             	mov    %ebx,0x4(%eax)
    5191:	c7 04 24 01 00 00 00 	movl   $0x1,(%esp)
    5198:	e8 73 23 01 00       	call   17510 <async_callback_receive>
    519d:	89 43 2c             	mov    %eax,0x2c(%ebx)
    51a0:	85 c0                	test   %eax,%eax
    51a2:	0f 84 85 00 00 00    	je     522d <vfs_register+0x1ed>
    51a8:	8d 45 e0             	lea    -0x20(%ebp),%eax
    51ab:	89 44 24 04          	mov    %eax,0x4(%esp)
    51af:	8d 45 e4             	lea    -0x1c(%ebp),%eax
    51b2:	89 04 24             	mov    %eax,(%esp)
    51b5:	e8 76 10 01 00       	call   16230 <async_share_in_receive>
    51ba:	84 c0                	test   %al,%al
    51bc:	0f 85 1d 01 00 00    	jne    52df <vfs_register+0x29f>
    51c2:	8b 13                	mov    (%ebx),%edx
    51c4:	85 d2                	test   %edx,%edx
    51c6:	74 0e                	je     51d6 <vfs_register+0x196>
    51c8:	8b 43 04             	mov    0x4(%ebx),%eax
    51cb:	85 c0                	test   %eax,%eax
    51cd:	74 07                	je     51d6 <vfs_register+0x196>
    51cf:	89 10                	mov    %edx,(%eax)
    51d1:	8b 13                	mov    (%ebx),%edx
    51d3:	89 42 04             	mov    %eax,0x4(%edx)
    51d6:	c7 03 00 00 00 00    	movl   $0x0,(%ebx)
    51dc:	c7 43 04 00 00 00 00 	movl   $0x0,0x4(%ebx)
    51e3:	c7 04 24 94 48 02 00 	movl   $0x24894,(%esp)
    51ea:	e8 51 4a 00 00       	call   9c40 <fibril_mutex_unlock>
    51ef:	8b 43 2c             	mov    0x2c(%ebx),%eax
    51f2:	89 04 24             	mov    %eax,(%esp)
    51f5:	e8 76 09 01 00       	call   15b70 <async_hangup>
    51fa:	89 1c 24             	mov    %ebx,(%esp)
    51fd:	e8 3e d6 00 00       	call   12840 <free>
    5202:	8b 45 e4             	mov    -0x1c(%ebp),%eax
    5205:	c7 44 24 04 f2 ff ff 	movl   $0xfffffff2,0x4(%esp)
    520c:	ff 
    520d:	89 04 24             	mov    %eax,(%esp)
    5210:	e8 5b 00 01 00       	call   15270 <async_answer_0>
    5215:	8b 55 08             	mov    0x8(%ebp),%edx
    5218:	c7 44 24 04 f2 ff ff 	movl   $0xfffffff2,0x4(%esp)
    521f:	ff 
    5220:	89 14 24             	mov    %edx,(%esp)
    5223:	e8 48 00 01 00       	call   15270 <async_answer_0>
    5228:	e9 62 fe ff ff       	jmp    508f <vfs_register+0x4f>
    522d:	8b 13                	mov    (%ebx),%edx
    522f:	85 d2                	test   %edx,%edx
    5231:	74 0e                	je     5241 <vfs_register+0x201>
    5233:	8b 43 04             	mov    0x4(%ebx),%eax
    5236:	85 c0                	test   %eax,%eax
    5238:	74 07                	je     5241 <vfs_register+0x201>
    523a:	89 10                	mov    %edx,(%eax)
    523c:	8b 13                	mov    (%ebx),%edx
    523e:	89 42 04             	mov    %eax,0x4(%edx)
    5241:	c7 03 00 00 00 00    	movl   $0x0,(%ebx)
    5247:	c7 43 04 00 00 00 00 	movl   $0x0,0x4(%ebx)
    524e:	c7 04 24 94 48 02 00 	movl   $0x24894,(%esp)
    5255:	e8 e6 49 00 00       	call   9c40 <fibril_mutex_unlock>
    525a:	8d b6 00 00 00 00    	lea    0x0(%esi),%esi
    5260:	89 1c 24             	mov    %ebx,(%esp)
    5263:	e8 d8 d5 00 00       	call   12840 <free>
    5268:	8b 55 08             	mov    0x8(%ebp),%edx
    526b:	c7 44 24 04 f2 ff ff 	movl   $0xfffffff2,0x4(%esp)
    5272:	ff 
    5273:	89 14 24             	mov    %edx,(%esp)
    5276:	e8 f5 ff 00 00       	call   15270 <async_answer_0>
    527b:	83 c4 4c             	add    $0x4c,%esp
    527e:	5b                   	pop    %ebx
    527f:	5e                   	pop    %esi
    5280:	5f                   	pop    %edi
    5281:	5d                   	pop    %ebp
    5282:	c3                   	ret    
    5283:	90                   	nop
    5284:	8d 74 26 00          	lea    0x0(%esi,%eiz,1),%esi
    5288:	8b 55 08             	mov    0x8(%ebp),%edx
    528b:	c7 44 24 04 fe ff ff 	movl   $0xfffffffe,0x4(%esp)
    5292:	ff 
    5293:	89 14 24             	mov    %edx,(%esp)
    5296:	e8 d5 ff 00 00       	call   15270 <async_answer_0>
    529b:	e9 ef fd ff ff       	jmp    508f <vfs_register+0x4f>
    52a0:	89 de                	mov    %ebx,%esi
    52a2:	8b 5d d0             	mov    -0x30(%ebp),%ebx
    52a5:	66 83 7e 28 00       	cmpw   $0x0,0x28(%esi)
    52aa:	0f 84 ca fe ff ff    	je     517a <vfs_register+0x13a>
    52b0:	c7 04 24 94 48 02 00 	movl   $0x24894,(%esp)
    52b7:	e8 84 49 00 00       	call   9c40 <fibril_mutex_unlock>
    52bc:	89 1c 24             	mov    %ebx,(%esp)
    52bf:	e8 7c d5 00 00       	call   12840 <free>
    52c4:	8b 55 08             	mov    0x8(%ebp),%edx
    52c7:	c7 44 24 04 f7 ff ff 	movl   $0xfffffff7,0x4(%esp)
    52ce:	ff 
    52cf:	89 14 24             	mov    %edx,(%esp)
    52d2:	e8 99 ff 00 00       	call   15270 <async_answer_0>
    52d7:	83 c4 4c             	add    $0x4c,%esp
    52da:	5b                   	pop    %ebx
    52db:	5e                   	pop    %esi
    52dc:	5f                   	pop    %edi
    52dd:	5d                   	pop    %ebp
    52de:	c3                   	ret    
    52df:	81 7d e0 00 00 02 00 	cmpl   $0x20000,-0x20(%ebp)
    52e6:	0f 85 d6 fe ff ff    	jne    51c2 <vfs_register+0x182>
    52ec:	a1 e8 4a 02 00       	mov    0x24ae8,%eax
    52f1:	c7 44 24 08 09 00 00 	movl   $0x9,0x8(%esp)
    52f8:	00 
    52f9:	89 44 24 04          	mov    %eax,0x4(%esp)
    52fd:	8b 45 e4             	mov    -0x1c(%ebp),%eax
    5300:	89 04 24             	mov    %eax,(%esp)
    5303:	e8 98 0f 01 00       	call   162a0 <async_share_in_finalize>
    5308:	b8 01 00 00 00       	mov    $0x1,%eax
    530d:	f0 0f c1 05 88 48 02 	lock xadd %eax,0x24888
    5314:	00 
    5315:	66 89 43 28          	mov    %ax,0x28(%ebx)
    5319:	8b 55 08             	mov    0x8(%ebp),%edx
    531c:	98                   	cwtl   
    531d:	89 14 24             	mov    %edx,(%esp)
    5320:	89 44 24 08          	mov    %eax,0x8(%esp)
    5324:	c7 44 24 04 00 00 00 	movl   $0x0,0x4(%esp)
    532b:	00 
    532c:	e8 7f ff 00 00       	call   152b0 <async_answer_1>
    5331:	c7 04 24 a4 48 02 00 	movl   $0x248a4,(%esp)
    5338:	e8 03 55 00 00       	call   a840 <fibril_condvar_broadcast>
    533d:	c7 04 24 94 48 02 00 	movl   $0x24894,(%esp)
    5344:	e8 f7 48 00 00       	call   9c40 <fibril_mutex_unlock>
    5349:	e9 41 fd ff ff       	jmp    508f <vfs_register+0x4f>
    534e:	84 d2                	test   %dl,%dl
    5350:	0f 84 d2 fd ff ff    	je     5128 <vfs_register+0xe8>
    5356:	e9 05 ff ff ff       	jmp    5260 <vfs_register+0x220>
    535b:	90                   	nop
    535c:	8d 74 26 00          	lea    0x0(%esi,%eiz,1),%esi

00005360 <vfs_exchange_grab>:
    5360:	55                   	push   %ebp
    5361:	89 e5                	mov    %esp,%ebp
    5363:	56                   	push   %esi
    5364:	53                   	push   %ebx
    5365:	83 ec 10             	sub    $0x10,%esp
    5368:	8b 75 08             	mov    0x8(%ebp),%esi
    536b:	c7 04 24 94 48 02 00 	movl   $0x24894,(%esp)
    5372:	e8 a9 47 00 00       	call   9b20 <fibril_mutex_lock>
    5377:	8b 1d 90 48 02 00    	mov    0x24890,%ebx
    537d:	81 fb 8c 48 02 00    	cmp    $0x2488c,%ebx
    5383:	75 0e                	jne    5393 <vfs_exchange_grab+0x33>
    5385:	eb 51                	jmp    53d8 <vfs_exchange_grab+0x78>
    5387:	90                   	nop
