
g_part:     file format elf32-i386


Disassembly of section .init:

00001094 <__entry>:
    1094:	66 8c d0             	mov    %ss,%ax
    1097:	8e d8                	mov    %eax,%ds
    1099:	8e c0                	mov    %eax,%es
    109b:	8e e0                	mov    %eax,%fs
    109d:	b8 01 00 00 00       	mov    $0x1,%eax
    10a2:	0f a2                	cpuid  
    10a4:	0f ba e2 0b          	bt     $0xb,%edx
    10a8:	73 0c                	jae    10b6 <__entry+0x22>
    10aa:	8d 05 d4 2c 02 00    	lea    0x22cd4,%eax
    10b0:	c7 00 a7 da 01 00    	movl   $0x1daa7,(%eax)
    10b6:	6a 00                	push   $0x0
    10b8:	89 e5                	mov    %esp,%ebp
    10ba:	57                   	push   %edi
    10bb:	e8 10 1f 00 00       	call   2fd0 <__main>

Disassembly of section .text:

000010c0 <gpt_bd_open>:
    10c0:	55                   	push   %ebp
    10c1:	31 c0                	xor    %eax,%eax
    10c3:	89 e5                	mov    %esp,%ebp
    10c5:	5d                   	pop    %ebp
    10c6:	c3                   	ret    
    10c7:	89 f6                	mov    %esi,%esi
    10c9:	8d bc 27 00 00 00 00 	lea    0x0(%edi,%eiz,1),%edi

000010d0 <gpt_bd_close>:
    10d0:	55                   	push   %ebp
    10d1:	31 c0                	xor    %eax,%eax
    10d3:	89 e5                	mov    %esp,%ebp
    10d5:	5d                   	pop    %ebp
    10d6:	c3                   	ret    
    10d7:	89 f6                	mov    %esi,%esi
    10d9:	8d bc 27 00 00 00 00 	lea    0x0(%edi,%eiz,1),%edi

000010e0 <gpt_bd_get_block_size>:
    10e0:	55                   	push   %ebp
    10e1:	8b 15 44 2d 02 00    	mov    0x22d44,%edx
    10e7:	89 e5                	mov    %esp,%ebp
    10e9:	8b 45 0c             	mov    0xc(%ebp),%eax
    10ec:	89 10                	mov    %edx,(%eax)
    10ee:	31 c0                	xor    %eax,%eax
    10f0:	5d                   	pop    %ebp
    10f1:	c3                   	ret    
    10f2:	8d b4 26 00 00 00 00 	lea    0x0(%esi,%eiz,1),%esi
    10f9:	8d bc 27 00 00 00 00 	lea    0x0(%edi,%eiz,1),%edi

00001100 <gpt_bd_get_num_blocks>:
    1100:	55                   	push   %ebp
    1101:	89 e5                	mov    %esp,%ebp
    1103:	8b 45 08             	mov    0x8(%ebp),%eax
    1106:	8b 4d 0c             	mov    0xc(%ebp),%ecx
    1109:	8b 00                	mov    (%eax),%eax
    110b:	8b 40 04             	mov    0x4(%eax),%eax
    110e:	8b 50 10             	mov    0x10(%eax),%edx
    1111:	8b 40 0c             	mov    0xc(%eax),%eax
    1114:	89 01                	mov    %eax,(%ecx)
    1116:	89 51 04             	mov    %edx,0x4(%ecx)
    1119:	31 c0                	xor    %eax,%eax
    111b:	5d                   	pop    %ebp
    111c:	c3                   	ret    
    111d:	8d 76 00             	lea    0x0(%esi),%esi

00001120 <gpt_bd_read_blocks>:
    1120:	55                   	push   %ebp
    1121:	89 e5                	mov    %esp,%ebp
    1123:	57                   	push   %edi
    1124:	56                   	push   %esi
    1125:	53                   	push   %ebx
    1126:	83 ec 1c             	sub    $0x1c,%esp
    1129:	8b 45 18             	mov    0x18(%ebp),%eax
    112c:	8b 4d 14             	mov    0x14(%ebp),%ecx
    112f:	89 45 e4             	mov    %eax,-0x1c(%ebp)
    1132:	8b 45 08             	mov    0x8(%ebp),%eax
    1135:	8b 75 0c             	mov    0xc(%ebp),%esi
    1138:	8b 7d 10             	mov    0x10(%ebp),%edi
    113b:	8b 00                	mov    (%eax),%eax
    113d:	8b 58 04             	mov    0x4(%eax),%ebx
    1140:	a1 44 2d 02 00       	mov    0x22d44,%eax
    1145:	0f af c1             	imul   %ecx,%eax
    1148:	3b 45 1c             	cmp    0x1c(%ebp),%eax
    114b:	72 53                	jb     11a0 <gpt_bd_read_blocks+0x80>
    114d:	89 c8                	mov    %ecx,%eax
    114f:	31 d2                	xor    %edx,%edx
    1151:	01 f0                	add    %esi,%eax
    1153:	11 fa                	adc    %edi,%edx
    1155:	3b 53 10             	cmp    0x10(%ebx),%edx
    1158:	76 0e                	jbe    1168 <gpt_bd_read_blocks+0x48>
    115a:	b8 fd ff ff ff       	mov    $0xfffffffd,%eax
    115f:	83 c4 1c             	add    $0x1c,%esp
    1162:	5b                   	pop    %ebx
    1163:	5e                   	pop    %esi
    1164:	5f                   	pop    %edi
    1165:	5d                   	pop    %ebp
    1166:	c3                   	ret    
    1167:	90                   	nop
    1168:	72 05                	jb     116f <gpt_bd_read_blocks+0x4f>
    116a:	3b 43 0c             	cmp    0xc(%ebx),%eax
    116d:	77 eb                	ja     115a <gpt_bd_read_blocks+0x3a>
    116f:	8b 45 e4             	mov    -0x1c(%ebp),%eax
    1172:	89 4d 14             	mov    %ecx,0x14(%ebp)
    1175:	89 45 18             	mov    %eax,0x18(%ebp)
    1178:	89 f0                	mov    %esi,%eax
    117a:	03 43 04             	add    0x4(%ebx),%eax
    117d:	89 fa                	mov    %edi,%edx
    117f:	13 53 08             	adc    0x8(%ebx),%edx
    1182:	89 45 0c             	mov    %eax,0xc(%ebp)
    1185:	a1 40 2d 02 00       	mov    0x22d40,%eax
    118a:	89 55 10             	mov    %edx,0x10(%ebp)
    118d:	89 45 08             	mov    %eax,0x8(%ebp)
    1190:	83 c4 1c             	add    $0x1c,%esp
    1193:	5b                   	pop    %ebx
    1194:	5e                   	pop    %esi
    1195:	5f                   	pop    %edi
    1196:	5d                   	pop    %ebp
    1197:	e9 c4 16 00 00       	jmp    2860 <block_read_direct>
    119c:	8d 74 26 00          	lea    0x0(%esi,%eiz,1),%esi
    11a0:	b8 f2 ff ff ff       	mov    $0xfffffff2,%eax
    11a5:	eb b8                	jmp    115f <gpt_bd_read_blocks+0x3f>
    11a7:	89 f6                	mov    %esi,%esi
    11a9:	8d bc 27 00 00 00 00 	lea    0x0(%edi,%eiz,1),%edi

000011b0 <gpt_bd_write_blocks>:
    11b0:	55                   	push   %ebp
    11b1:	89 e5                	mov    %esp,%ebp
    11b3:	57                   	push   %edi
    11b4:	56                   	push   %esi
    11b5:	53                   	push   %ebx
    11b6:	83 ec 1c             	sub    $0x1c,%esp
    11b9:	8b 45 18             	mov    0x18(%ebp),%eax
    11bc:	8b 4d 14             	mov    0x14(%ebp),%ecx
    11bf:	89 45 e4             	mov    %eax,-0x1c(%ebp)
    11c2:	8b 45 08             	mov    0x8(%ebp),%eax
    11c5:	8b 75 0c             	mov    0xc(%ebp),%esi
    11c8:	8b 7d 10             	mov    0x10(%ebp),%edi
    11cb:	8b 00                	mov    (%eax),%eax
    11cd:	8b 58 04             	mov    0x4(%eax),%ebx
    11d0:	a1 44 2d 02 00       	mov    0x22d44,%eax
    11d5:	0f af c1             	imul   %ecx,%eax
    11d8:	3b 45 1c             	cmp    0x1c(%ebp),%eax
    11db:	72 53                	jb     1230 <gpt_bd_write_blocks+0x80>
    11dd:	89 c8                	mov    %ecx,%eax
    11df:	31 d2                	xor    %edx,%edx
    11e1:	01 f0                	add    %esi,%eax
    11e3:	11 fa                	adc    %edi,%edx
    11e5:	3b 53 10             	cmp    0x10(%ebx),%edx
    11e8:	76 0e                	jbe    11f8 <gpt_bd_write_blocks+0x48>
    11ea:	b8 fd ff ff ff       	mov    $0xfffffffd,%eax
    11ef:	83 c4 1c             	add    $0x1c,%esp
    11f2:	5b                   	pop    %ebx
    11f3:	5e                   	pop    %esi
    11f4:	5f                   	pop    %edi
    11f5:	5d                   	pop    %ebp
    11f6:	c3                   	ret    
    11f7:	90                   	nop
    11f8:	72 05                	jb     11ff <gpt_bd_write_blocks+0x4f>
    11fa:	3b 43 0c             	cmp    0xc(%ebx),%eax
    11fd:	77 eb                	ja     11ea <gpt_bd_write_blocks+0x3a>
    11ff:	8b 45 e4             	mov    -0x1c(%ebp),%eax
    1202:	89 4d 14             	mov    %ecx,0x14(%ebp)
    1205:	89 45 18             	mov    %eax,0x18(%ebp)
    1208:	89 f0                	mov    %esi,%eax
    120a:	03 43 04             	add    0x4(%ebx),%eax
    120d:	89 fa                	mov    %edi,%edx
    120f:	13 53 08             	adc    0x8(%ebx),%edx
    1212:	89 45 0c             	mov    %eax,0xc(%ebp)
    1215:	a1 40 2d 02 00       	mov    0x22d40,%eax
    121a:	89 55 10             	mov    %edx,0x10(%ebp)
    121d:	89 45 08             	mov    %eax,0x8(%ebp)
    1220:	83 c4 1c             	add    $0x1c,%esp
    1223:	5b                   	pop    %ebx
    1224:	5e                   	pop    %esi
    1225:	5f                   	pop    %edi
    1226:	5d                   	pop    %ebp
    1227:	e9 24 17 00 00       	jmp    2950 <block_write_direct>
    122c:	8d 74 26 00          	lea    0x0(%esi,%eiz,1),%esi
    1230:	b8 f2 ff ff ff       	mov    $0xfffffff2,%eax
    1235:	eb b8                	jmp    11ef <gpt_bd_write_blocks+0x3f>
    1237:	89 f6                	mov    %esi,%esi
    1239:	8d bc 27 00 00 00 00 	lea    0x0(%edi,%eiz,1),%edi

00001240 <gpt_connection>:
    1240:	55                   	push   %ebp
    1241:	89 e5                	mov    %esp,%ebp
    1243:	53                   	push   %ebx
    1244:	83 ec 14             	sub    $0x14,%esp
    1247:	8b 4d 0c             	mov    0xc(%ebp),%ecx
    124a:	a1 80 2d 02 00       	mov    0x22d80,%eax
    124f:	8b 5d 08             	mov    0x8(%ebp),%ebx
    1252:	85 c0                	test   %eax,%eax
    1254:	8b 51 04             	mov    0x4(%ecx),%edx
    1257:	75 0e                	jne    1267 <gpt_connection+0x27>
    1259:	eb 2d                	jmp    1288 <gpt_connection+0x48>
    125b:	90                   	nop
    125c:	8d 74 26 00          	lea    0x0(%esi,%eiz,1),%esi
    1260:	8b 40 20             	mov    0x20(%eax),%eax
    1263:	85 c0                	test   %eax,%eax
    1265:	74 21                	je     1288 <gpt_connection+0x48>
    1267:	39 50 14             	cmp    %edx,0x14(%eax)
    126a:	75 f4                	jne    1260 <gpt_connection+0x20>
    126c:	80 38 00             	cmpb   $0x0,(%eax)
    126f:	74 2b                	je     129c <gpt_connection+0x5c>
    1271:	83 c0 18             	add    $0x18,%eax
    1274:	89 5d 08             	mov    %ebx,0x8(%ebp)
    1277:	89 45 10             	mov    %eax,0x10(%ebp)
    127a:	89 4d 0c             	mov    %ecx,0xc(%ebp)
    127d:	83 c4 14             	add    $0x14,%esp
    1280:	5b                   	pop    %ebx
    1281:	5d                   	pop    %ebp
    1282:	e9 69 22 00 00       	jmp    34f0 <bd_conn>
    1287:	90                   	nop
    1288:	89 5d 08             	mov    %ebx,0x8(%ebp)
    128b:	c7 45 0c f2 ff ff ff 	movl   $0xfffffff2,0xc(%ebp)
    1292:	83 c4 14             	add    $0x14,%esp
    1295:	5b                   	pop    %ebx
    1296:	5d                   	pop    %ebp
    1297:	e9 e4 4a 01 00       	jmp    15d80 <async_answer_0>
    129c:	c7 44 24 08 65 01 00 	movl   $0x165,0x8(%esp)
    12a3:	00 
    12a4:	c7 44 24 04 12 fe 01 	movl   $0x1fe12,0x4(%esp)
    12ab:	00 
    12ac:	c7 04 24 1e fe 01 00 	movl   $0x1fe1e,(%esp)
    12b3:	e8 68 c7 01 00       	call   1da20 <assert_abort>
    12b8:	66 90                	xchg   %ax,%ax
    12ba:	66 90                	xchg   %ax,%ax
    12bc:	66 90                	xchg   %ax,%ax
    12be:	66 90                	xchg   %ax,%ax

000012c0 <main>:
    12c0:	55                   	push   %ebp
    12c1:	89 e5                	mov    %esp,%ebp
    12c3:	57                   	push   %edi
    12c4:	56                   	push   %esi
    12c5:	53                   	push   %ebx
    12c6:	83 e4 f0             	and    $0xfffffff0,%esp
    12c9:	83 ec 50             	sub    $0x50,%esp
    12cc:	c7 04 24 44 fe 01 00 	movl   $0x1fe44,(%esp)
    12d3:	e8 18 d1 00 00       	call   e3f0 <printf>
    12d8:	83 7d 08 02          	cmpl   $0x2,0x8(%ebp)
    12dc:	0f 85 b4 03 00 00    	jne    1696 <main+0x3d6>
    12e2:	8b 45 0c             	mov    0xc(%ebp),%eax
    12e5:	8b 40 04             	mov    0x4(%eax),%eax
    12e8:	c7 44 24 08 00 00 00 	movl   $0x0,0x8(%esp)
    12ef:	00 
    12f0:	c7 44 24 04 40 2d 02 	movl   $0x22d40,0x4(%esp)
    12f7:	00 
    12f8:	89 04 24             	mov    %eax,(%esp)
    12fb:	89 44 24 34          	mov    %eax,0x34(%esp)
    12ff:	e8 cc 36 00 00       	call   49d0 <loc_service_get_id>
    1304:	85 c0                	test   %eax,%eax
    1306:	0f 85 74 03 00 00    	jne    1680 <main+0x3c0>
    130c:	a1 40 2d 02 00       	mov    0x22d40,%eax
    1311:	c7 44 24 08 00 08 00 	movl   $0x800,0x8(%esp)
    1318:	00 
    1319:	89 44 24 04          	mov    %eax,0x4(%esp)
    131d:	c7 04 24 02 00 00 00 	movl   $0x2,(%esp)
    1324:	e8 87 04 00 00       	call   17b0 <block_init>
    1329:	85 c0                	test   %eax,%eax
    132b:	0f 85 38 03 00 00    	jne    1669 <main+0x3a9>
    1331:	a1 40 2d 02 00       	mov    0x22d40,%eax
    1336:	c7 44 24 04 44 2d 02 	movl   $0x22d44,0x4(%esp)
    133d:	00 
    133e:	89 04 24             	mov    %eax,(%esp)
    1341:	e8 fa 16 00 00       	call   2a40 <block_get_bsize>
    1346:	85 c0                	test   %eax,%eax
    1348:	0f 85 59 03 00 00    	jne    16a7 <main+0x3e7>
    134e:	a1 44 2d 02 00       	mov    0x22d44,%eax
    1353:	3d ff 01 00 00       	cmp    $0x1ff,%eax
    1358:	0f 86 bd 03 00 00    	jbe    171b <main+0x45b>
    135e:	a9 ff 01 00 00       	test   $0x1ff,%eax
    1363:	0f 85 b2 03 00 00    	jne    171b <main+0x45b>
    1369:	89 04 24             	mov    %eax,(%esp)
    136c:	e8 cf 1e 01 00       	call   13240 <malloc>
    1371:	89 c6                	mov    %eax,%esi
    1373:	85 c0                	test   %eax,%eax
    1375:	0f 84 d6 03 00 00    	je     1751 <main+0x491>
    137b:	89 44 24 10          	mov    %eax,0x10(%esp)
    137f:	a1 40 2d 02 00       	mov    0x22d40,%eax
    1384:	c7 44 24 0c 01 00 00 	movl   $0x1,0xc(%esp)
    138b:	00 
    138c:	c7 44 24 04 01 00 00 	movl   $0x1,0x4(%esp)
    1393:	00 
    1394:	c7 44 24 08 00 00 00 	movl   $0x0,0x8(%esp)
    139b:	00 
    139c:	89 04 24             	mov    %eax,(%esp)
    139f:	e8 bc 14 00 00       	call   2860 <block_read_direct>
    13a4:	85 c0                	test   %eax,%eax
    13a6:	0f 85 17 03 00 00    	jne    16c3 <main+0x403>
    13ac:	80 3e 45             	cmpb   $0x45,(%esi)
    13af:	0f 85 00 03 00 00    	jne    16b5 <main+0x3f5>
    13b5:	80 7e 01 46          	cmpb   $0x46,0x1(%esi)
    13b9:	0f 85 f6 02 00 00    	jne    16b5 <main+0x3f5>
    13bf:	80 7e 02 49          	cmpb   $0x49,0x2(%esi)
    13c3:	0f 85 ec 02 00 00    	jne    16b5 <main+0x3f5>
    13c9:	80 7e 03 20          	cmpb   $0x20,0x3(%esi)
    13cd:	0f 85 e2 02 00 00    	jne    16b5 <main+0x3f5>
    13d3:	80 7e 04 50          	cmpb   $0x50,0x4(%esi)
    13d7:	0f 85 d8 02 00 00    	jne    16b5 <main+0x3f5>
    13dd:	80 7e 05 41          	cmpb   $0x41,0x5(%esi)
    13e1:	0f 85 ce 02 00 00    	jne    16b5 <main+0x3f5>
    13e7:	80 7e 06 52          	cmpb   $0x52,0x6(%esi)
    13eb:	0f 85 c4 02 00 00    	jne    16b5 <main+0x3f5>
    13f1:	80 7e 07 54          	cmpb   $0x54,0x7(%esi)
    13f5:	0f 85 ba 02 00 00    	jne    16b5 <main+0x3f5>
    13fb:	8b 56 48             	mov    0x48(%esi),%edx
    13fe:	8b 4e 4c             	mov    0x4c(%esi),%ecx
    1401:	8b 46 50             	mov    0x50(%esi),%eax
    1404:	89 54 24 38          	mov    %edx,0x38(%esp)
    1408:	89 4c 24 3c          	mov    %ecx,0x3c(%esp)
    140c:	31 d2                	xor    %edx,%edx
    140e:	8b 4e 54             	mov    0x54(%esi),%ecx
    1411:	89 44 24 30          	mov    %eax,0x30(%esp)
    1415:	f7 f1                	div    %ecx
    1417:	85 d2                	test   %edx,%edx
    1419:	c7 05 80 2d 02 00 00 	movl   $0x0,0x22d80
    1420:	00 00 00 
    1423:	0f 95 c3             	setne  %bl
    1426:	0f af 4c 24 30       	imul   0x30(%esp),%ecx
    142b:	81 e3 ff 00 00 00    	and    $0xff,%ebx
    1431:	89 0c 24             	mov    %ecx,(%esp)
    1434:	01 c3                	add    %eax,%ebx
    1436:	e8 05 1e 01 00       	call   13240 <malloc>
    143b:	89 44 24 2c          	mov    %eax,0x2c(%esp)
    143f:	85 c0                	test   %eax,%eax
    1441:	0f 84 02 03 00 00    	je     1749 <main+0x489>
    1447:	8b 44 24 2c          	mov    0x2c(%esp),%eax
    144b:	8b 54 24 38          	mov    0x38(%esp),%edx
    144f:	89 44 24 10          	mov    %eax,0x10(%esp)
    1453:	8b 4c 24 3c          	mov    0x3c(%esp),%ecx
    1457:	a1 40 2d 02 00       	mov    0x22d40,%eax
    145c:	89 5c 24 0c          	mov    %ebx,0xc(%esp)
    1460:	89 54 24 04          	mov    %edx,0x4(%esp)
    1464:	89 4c 24 08          	mov    %ecx,0x8(%esp)
    1468:	89 04 24             	mov    %eax,(%esp)
    146b:	e8 f0 13 00 00       	call   2860 <block_read_direct>
    1470:	85 c0                	test   %eax,%eax
    1472:	0f 85 92 02 00 00    	jne    170a <main+0x44a>
    1478:	83 7c 24 30 00       	cmpl   $0x0,0x30(%esp)
    147d:	0f 84 eb 00 00 00    	je     156e <main+0x2ae>
    1483:	8b 74 24 2c          	mov    0x2c(%esp),%esi
    1487:	bf 60 2d 02 00       	mov    $0x22d60,%edi
    148c:	89 f0                	mov    %esi,%eax
    148e:	31 db                	xor    %ebx,%ebx
    1490:	89 fe                	mov    %edi,%esi
    1492:	89 c7                	mov    %eax,%edi
    1494:	8d 74 26 00          	lea    0x0(%esi,%eiz,1),%esi
    1498:	c7 04 24 24 00 00 00 	movl   $0x24,(%esp)
    149f:	e8 9c 1d 01 00       	call   13240 <malloc>
    14a4:	85 c0                	test   %eax,%eax
    14a6:	0f 84 c9 01 00 00    	je     1675 <main+0x3b5>
    14ac:	8b 57 28             	mov    0x28(%edi),%edx
    14af:	8b 4f 2c             	mov    0x2c(%edi),%ecx
    14b2:	89 54 24 20          	mov    %edx,0x20(%esp)
    14b6:	89 4c 24 24          	mov    %ecx,0x24(%esp)
    14ba:	83 44 24 20 01       	addl   $0x1,0x20(%esp)
    14bf:	8b 57 20             	mov    0x20(%edi),%edx
    14c2:	8b 4f 24             	mov    0x24(%edi),%ecx
    14c5:	83 54 24 24 00       	adcl   $0x0,0x24(%esp)
    14ca:	89 50 04             	mov    %edx,0x4(%eax)
    14cd:	29 54 24 20          	sub    %edx,0x20(%esp)
    14d1:	89 48 08             	mov    %ecx,0x8(%eax)
    14d4:	19 4c 24 24          	sbb    %ecx,0x24(%esp)
    14d8:	8b 54 24 20          	mov    0x20(%esp),%edx
    14dc:	8b 4c 24 24          	mov    0x24(%esp),%ecx
    14e0:	89 50 0c             	mov    %edx,0xc(%eax)
    14e3:	89 48 10             	mov    %ecx,0x10(%eax)
    14e6:	c6 00 00             	movb   $0x0,(%eax)
    14e9:	80 3f 00             	cmpb   $0x0,(%edi)
    14ec:	74 03                	je     14f1 <main+0x231>
    14ee:	c6 00 01             	movb   $0x1,(%eax)
    14f1:	80 7f 01 00          	cmpb   $0x0,0x1(%edi)
    14f5:	74 03                	je     14fa <main+0x23a>
    14f7:	c6 00 01             	movb   $0x1,(%eax)
    14fa:	80 7f 02 00          	cmpb   $0x0,0x2(%edi)
    14fe:	74 03                	je     1503 <main+0x243>
    1500:	c6 00 01             	movb   $0x1,(%eax)
    1503:	80 7f 03 00          	cmpb   $0x0,0x3(%edi)
    1507:	74 03                	je     150c <main+0x24c>
    1509:	c6 00 01             	movb   $0x1,(%eax)
    150c:	80 7f 04 00          	cmpb   $0x0,0x4(%edi)
    1510:	74 03                	je     1515 <main+0x255>
    1512:	c6 00 01             	movb   $0x1,(%eax)
    1515:	80 7f 05 00          	cmpb   $0x0,0x5(%edi)
    1519:	74 03                	je     151e <main+0x25e>
    151b:	c6 00 01             	movb   $0x1,(%eax)
    151e:	80 7f 06 00          	cmpb   $0x0,0x6(%edi)
    1522:	74 03                	je     1527 <main+0x267>
    1524:	c6 00 01             	movb   $0x1,(%eax)
    1527:	80 7f 07 00          	cmpb   $0x0,0x7(%edi)
    152b:	74 03                	je     1530 <main+0x270>
    152d:	c6 00 01             	movb   $0x1,(%eax)
    1530:	8d 48 18             	lea    0x18(%eax),%ecx
    1533:	89 44 24 28          	mov    %eax,0x28(%esp)
    1537:	89 0c 24             	mov    %ecx,(%esp)
    153a:	43                   	inc    %ebx
    153b:	e8 90 1f 00 00       	call   34d0 <bd_srvs_init>
    1540:	8b 44 24 28          	mov    0x28(%esp),%eax
    1544:	83 ef 80             	sub    $0xffffff80,%edi
    1547:	c7 40 20 00 00 00 00 	movl   $0x0,0x20(%eax)
    154e:	c7 40 18 c0 2a 02 00 	movl   $0x22ac0,0x18(%eax)
    1555:	89 46 20             	mov    %eax,0x20(%esi)
    1558:	89 40 1c             	mov    %eax,0x1c(%eax)
    155b:	c7 40 14 00 00 00 00 	movl   $0x0,0x14(%eax)
    1562:	89 c6                	mov    %eax,%esi
    1564:	3b 5c 24 30          	cmp    0x30(%esp),%ebx
    1568:	0f 85 2a ff ff ff    	jne    1498 <main+0x1d8>
    156e:	8b 44 24 2c          	mov    0x2c(%esp),%eax
    1572:	89 04 24             	mov    %eax,(%esp)
    1575:	e8 d6 1d 01 00       	call   13350 <free>
    157a:	c7 04 24 40 12 00 00 	movl   $0x1240,(%esp)
    1581:	e8 aa 2f 01 00       	call   14530 <async_set_client_connection>
    1586:	c7 04 24 34 fe 01 00 	movl   $0x1fe34,(%esp)
    158d:	e8 ee 2c 00 00       	call   4280 <loc_server_register>
    1592:	85 c0                	test   %eax,%eax
    1594:	0f 85 37 01 00 00    	jne    16d1 <main+0x411>
    159a:	8b 1d 80 2d 02 00    	mov    0x22d80,%ebx
    15a0:	85 db                	test   %ebx,%ebx
    15a2:	0f 84 37 01 00 00    	je     16df <main+0x41f>
    15a8:	bf 01 00 00 00       	mov    $0x1,%edi
    15ad:	eb 0d                	jmp    15bc <main+0x2fc>
    15af:	90                   	nop
    15b0:	8b 5b 20             	mov    0x20(%ebx),%ebx
    15b3:	47                   	inc    %edi
    15b4:	85 db                	test   %ebx,%ebx
    15b6:	0f 84 23 01 00 00    	je     16df <main+0x41f>
    15bc:	8d 47 ff             	lea    -0x1(%edi),%eax
    15bf:	80 3b 00             	cmpb   $0x0,(%ebx)
    15c2:	74 ec                	je     15b0 <main+0x2f0>
    15c4:	89 44 24 0c          	mov    %eax,0xc(%esp)
    15c8:	8b 4c 24 34          	mov    0x34(%esp),%ecx
    15cc:	8d 44 24 48          	lea    0x48(%esp),%eax
    15d0:	89 4c 24 08          	mov    %ecx,0x8(%esp)
    15d4:	c7 44 24 04 3e fe 01 	movl   $0x1fe3e,0x4(%esp)
    15db:	00 
    15dc:	89 04 24             	mov    %eax,(%esp)
    15df:	e8 cc a8 00 00       	call   beb0 <asprintf>
    15e4:	8b 44 24 48          	mov    0x48(%esp),%eax
    15e8:	85 c0                	test   %eax,%eax
    15ea:	0f 84 85 00 00 00    	je     1675 <main+0x3b5>
    15f0:	8d 54 24 4c          	lea    0x4c(%esp),%edx
    15f4:	89 04 24             	mov    %eax,(%esp)
    15f7:	89 54 24 04          	mov    %edx,0x4(%esp)
    15fb:	e8 90 30 00 00       	call   4690 <loc_service_register>
    1600:	85 c0                	test   %eax,%eax
    1602:	0f 85 28 01 00 00    	jne    1730 <main+0x470>
    1608:	8b 43 10             	mov    0x10(%ebx),%eax
    160b:	8b 4b 0c             	mov    0xc(%ebx),%ecx
    160e:	89 44 24 0c          	mov    %eax,0xc(%esp)
    1612:	a1 44 2d 02 00       	mov    0x22d44,%eax
    1617:	8b 74 24 0c          	mov    0xc(%esp),%esi
    161b:	89 4c 24 08          	mov    %ecx,0x8(%esp)
    161f:	0f af f0             	imul   %eax,%esi
    1622:	f7 e1                	mul    %ecx
    1624:	01 f2                	add    %esi,%edx
    1626:	05 ff ff 0f 00       	add    $0xfffff,%eax
    162b:	83 d2 00             	adc    $0x0,%edx
    162e:	c7 04 24 2c 00 02 00 	movl   $0x2002c,(%esp)
    1635:	0f ac d0 14          	shrd   $0x14,%edx,%eax
    1639:	c1 ea 14             	shr    $0x14,%edx
    163c:	89 44 24 10          	mov    %eax,0x10(%esp)
    1640:	8b 44 24 48          	mov    0x48(%esp),%eax
    1644:	89 54 24 14          	mov    %edx,0x14(%esp)
    1648:	89 44 24 04          	mov    %eax,0x4(%esp)
    164c:	e8 9f cd 00 00       	call   e3f0 <printf>
    1651:	8b 44 24 4c          	mov    0x4c(%esp),%eax
    1655:	89 43 14             	mov    %eax,0x14(%ebx)
    1658:	8b 44 24 48          	mov    0x48(%esp),%eax
    165c:	89 04 24             	mov    %eax,(%esp)
    165f:	e8 ec 1c 01 00       	call   13350 <free>
    1664:	e9 47 ff ff ff       	jmp    15b0 <main+0x2f0>
    1669:	c7 04 24 c0 fe 01 00 	movl   $0x1fec0,(%esp)
    1670:	e8 7b cd 00 00       	call   e3f0 <printf>
    1675:	83 c8 ff             	or     $0xffffffff,%eax
    1678:	8d 65 f4             	lea    -0xc(%ebp),%esp
    167b:	5b                   	pop    %ebx
    167c:	5e                   	pop    %esi
    167d:	5f                   	pop    %edi
    167e:	5d                   	pop    %ebp
    167f:	c3                   	ret    
    1680:	8b 4c 24 34          	mov    0x34(%esp),%ecx
    1684:	c7 04 24 94 fe 01 00 	movl   $0x1fe94,(%esp)
    168b:	89 4c 24 04          	mov    %ecx,0x4(%esp)
    168f:	e8 5c cd 00 00       	call   e3f0 <printf>
    1694:	eb df                	jmp    1675 <main+0x3b5>
    1696:	c7 04 24 6c fe 01 00 	movl   $0x1fe6c,(%esp)
    169d:	e8 4e cd 00 00       	call   e3f0 <printf>
    16a2:	83 c8 ff             	or     $0xffffffff,%eax
    16a5:	eb d1                	jmp    1678 <main+0x3b8>
    16a7:	c7 04 24 e8 fe 01 00 	movl   $0x1fee8,(%esp)
    16ae:	e8 3d cd 00 00       	call   e3f0 <printf>
    16b3:	eb c0                	jmp    1675 <main+0x3b5>
    16b5:	c7 04 24 8c ff 01 00 	movl   $0x1ff8c,(%esp)
    16bc:	e8 2f cd 00 00       	call   e3f0 <printf>
    16c1:	eb b2                	jmp    1675 <main+0x3b5>
    16c3:	c7 04 24 5c ff 01 00 	movl   $0x1ff5c,(%esp)
    16ca:	e8 21 cd 00 00       	call   e3f0 <printf>
    16cf:	eb a4                	jmp    1675 <main+0x3b5>
    16d1:	c7 04 24 d8 ff 01 00 	movl   $0x1ffd8,(%esp)
    16d8:	e8 13 cd 00 00       	call   e3f0 <printf>
    16dd:	eb 96                	jmp    1675 <main+0x3b5>
    16df:	c7 04 24 64 00 02 00 	movl   $0x20064,(%esp)
    16e6:	e8 05 cd 00 00       	call   e3f0 <printf>
    16eb:	c7 04 24 00 00 00 00 	movl   $0x0,(%esp)
    16f2:	e8 19 a6 00 00       	call   bd10 <task_retval>
    16f7:	c7 04 24 01 00 00 00 	movl   $0x1,(%esp)
    16fe:	e8 ed 84 00 00       	call   9bf0 <fibril_switch>
    1703:	31 c0                	xor    %eax,%eax
    1705:	e9 6e ff ff ff       	jmp    1678 <main+0x3b8>
    170a:	c7 04 24 b0 ff 01 00 	movl   $0x1ffb0,(%esp)
    1711:	e8 da cc 00 00       	call   e3f0 <printf>
    1716:	e9 5a ff ff ff       	jmp    1675 <main+0x3b5>
    171b:	89 44 24 04          	mov    %eax,0x4(%esp)
    171f:	c7 04 24 10 ff 01 00 	movl   $0x1ff10,(%esp)
    1726:	e8 c5 cc 00 00       	call   e3f0 <printf>
    172b:	e9 45 ff ff ff       	jmp    1675 <main+0x3b5>
    1730:	8b 44 24 48          	mov    0x48(%esp),%eax
    1734:	c7 04 24 00 00 02 00 	movl   $0x20000,(%esp)
    173b:	89 44 24 04          	mov    %eax,0x4(%esp)
    173f:	e8 ac cc 00 00       	call   e3f0 <printf>
    1744:	e9 2c ff ff ff       	jmp    1675 <main+0x3b5>
    1749:	89 34 24             	mov    %esi,(%esp)
    174c:	e8 ff 1b 01 00       	call   13350 <free>
    1751:	c7 04 24 34 ff 01 00 	movl   $0x1ff34,(%esp)
    1758:	e8 93 cc 00 00       	call   e3f0 <printf>
    175d:	e9 13 ff ff ff       	jmp    1675 <main+0x3b5>
    1762:	66 90                	xchg   %ax,%ax
    1764:	66 90                	xchg   %ax,%ax
    1766:	66 90                	xchg   %ax,%ax
    1768:	66 90                	xchg   %ax,%ax
    176a:	66 90                	xchg   %ax,%ax
    176c:	66 90                	xchg   %ax,%ax
    176e:	66 90                	xchg   %ax,%ax

00001770 <cache_key_hash>:
    1770:	55                   	push   %ebp
    1771:	89 e5                	mov    %esp,%ebp
    1773:	8b 45 08             	mov    0x8(%ebp),%eax
    1776:	5d                   	pop    %ebp
    1777:	8b 00                	mov    (%eax),%eax
    1779:	c3                   	ret    
    177a:	8d b6 00 00 00 00    	lea    0x0(%esi),%esi

00001780 <cache_hash>:
    1780:	55                   	push   %ebp
    1781:	89 e5                	mov    %esp,%ebp
    1783:	8b 45 08             	mov    0x8(%ebp),%eax
    1786:	5d                   	pop    %ebp
    1787:	8b 40 e4             	mov    -0x1c(%eax),%eax
    178a:	c3                   	ret    
    178b:	90                   	nop
    178c:	8d 74 26 00          	lea    0x0(%esi,%eiz,1),%esi

00001790 <cache_key_equal>:
    1790:	55                   	push   %ebp
    1791:	89 e5                	mov    %esp,%ebp
    1793:	8b 45 0c             	mov    0xc(%ebp),%eax
    1796:	8b 4d 08             	mov    0x8(%ebp),%ecx
    1799:	5d                   	pop    %ebp
    179a:	8b 50 e4             	mov    -0x1c(%eax),%edx
    179d:	8b 40 e8             	mov    -0x18(%eax),%eax
    17a0:	33 41 04             	xor    0x4(%ecx),%eax
    17a3:	33 11                	xor    (%ecx),%edx
    17a5:	09 c2                	or     %eax,%edx
    17a7:	0f 94 c0             	sete   %al
    17aa:	c3                   	ret    
    17ab:	90                   	nop
    17ac:	8d 74 26 00          	lea    0x0(%esi,%eiz,1),%esi

000017b0 <block_init>:
    17b0:	55                   	push   %ebp
    17b1:	89 e5                	mov    %esp,%ebp
    17b3:	57                   	push   %edi
    17b4:	56                   	push   %esi
    17b5:	53                   	push   %ebx
    17b6:	83 ec 3c             	sub    $0x3c,%esp
    17b9:	8b 5d 0c             	mov    0xc(%ebp),%ebx
    17bc:	8b 45 08             	mov    0x8(%ebp),%eax
    17bf:	c7 44 24 08 01 00 00 	movl   $0x1,0x8(%esp)
    17c6:	00 
    17c7:	89 5c 24 04          	mov    %ebx,0x4(%esp)
    17cb:	89 04 24             	mov    %eax,(%esp)
    17ce:	e8 ed 3a 00 00       	call   52c0 <loc_service_connect>
    17d3:	89 c6                	mov    %eax,%esi
    17d5:	85 c0                	test   %eax,%eax
    17d7:	0f 84 30 01 00 00    	je     190d <block_init+0x15d>
    17dd:	8d 45 e0             	lea    -0x20(%ebp),%eax
    17e0:	89 34 24             	mov    %esi,(%esp)
    17e3:	89 44 24 04          	mov    %eax,0x4(%esp)
    17e7:	e8 e4 18 00 00       	call   30d0 <bd_open>
    17ec:	89 c7                	mov    %eax,%edi
    17ee:	85 c0                	test   %eax,%eax
    17f0:	0f 85 d4 00 00 00    	jne    18ca <block_init+0x11a>
    17f6:	8d 45 e4             	lea    -0x1c(%ebp),%eax
    17f9:	89 44 24 04          	mov    %eax,0x4(%esp)
    17fd:	8b 45 e0             	mov    -0x20(%ebp),%eax
    1800:	89 04 24             	mov    %eax,(%esp)
    1803:	e8 98 1b 00 00       	call   33a0 <bd_get_block_size>
    1808:	89 c7                	mov    %eax,%edi
    180a:	85 c0                	test   %eax,%eax
    180c:	0f 85 ad 00 00 00    	jne    18bf <block_init+0x10f>
    1812:	8b 55 e0             	mov    -0x20(%ebp),%edx
    1815:	c7 04 24 28 00 00 00 	movl   $0x28,(%esp)
    181c:	89 55 d4             	mov    %edx,-0x2c(%ebp)
    181f:	8b 55 e4             	mov    -0x1c(%ebp),%edx
    1822:	89 55 d0             	mov    %edx,-0x30(%ebp)
    1825:	e8 16 1a 01 00       	call   13240 <malloc>
    182a:	85 c0                	test   %eax,%eax
    182c:	0f 84 e0 00 00 00    	je     1912 <block_init+0x162>
    1832:	8b 55 d4             	mov    -0x2c(%ebp),%edx
    1835:	c7 00 00 00 00 00    	movl   $0x0,(%eax)
    183b:	89 50 10             	mov    %edx,0x10(%eax)
    183e:	8b 55 d0             	mov    -0x30(%ebp),%edx
    1841:	89 50 20             	mov    %edx,0x20(%eax)
    1844:	c7 40 04 00 00 00 00 	movl   $0x0,0x4(%eax)
    184b:	89 58 08             	mov    %ebx,0x8(%eax)
    184e:	89 70 0c             	mov    %esi,0xc(%eax)
    1851:	c7 40 14 00 00 00 00 	movl   $0x0,0x14(%eax)
    1858:	c7 40 18 00 00 00 00 	movl   $0x0,0x18(%eax)
    185f:	c7 40 1c 00 00 00 00 	movl   $0x0,0x1c(%eax)
    1866:	c7 40 24 00 00 00 00 	movl   $0x0,0x24(%eax)
    186d:	c7 04 24 dc 2a 02 00 	movl   $0x22adc,(%esp)
    1874:	89 45 cc             	mov    %eax,-0x34(%ebp)
    1877:	e8 44 8b 00 00       	call   a3c0 <fibril_mutex_lock>
    187c:	8b 15 f0 2a 02 00    	mov    0x22af0,%edx
    1882:	81 fa ec 2a 02 00    	cmp    $0x22aec,%edx
    1888:	8b 45 cc             	mov    -0x34(%ebp),%eax
    188b:	75 0e                	jne    189b <block_init+0xeb>
    188d:	eb 51                	jmp    18e0 <block_init+0x130>
    188f:	90                   	nop
    1890:	8b 52 04             	mov    0x4(%edx),%edx
    1893:	81 fa ec 2a 02 00    	cmp    $0x22aec,%edx
    1899:	74 45                	je     18e0 <block_init+0x130>
    189b:	3b 5a 08             	cmp    0x8(%edx),%ebx
    189e:	75 f0                	jne    1890 <block_init+0xe0>
    18a0:	c7 04 24 dc 2a 02 00 	movl   $0x22adc,(%esp)
    18a7:	89 45 cc             	mov    %eax,-0x34(%ebp)
    18aa:	e8 31 8c 00 00       	call   a4e0 <fibril_mutex_unlock>
    18af:	8b 45 cc             	mov    -0x34(%ebp),%eax
    18b2:	89 04 24             	mov    %eax,(%esp)
    18b5:	bf fc fe ff ff       	mov    $0xfffffefc,%edi
    18ba:	e8 91 1a 01 00       	call   13350 <free>
    18bf:	8b 45 e0             	mov    -0x20(%ebp),%eax
    18c2:	89 04 24             	mov    %eax,(%esp)
    18c5:	e8 a6 18 00 00       	call   3170 <bd_close>
    18ca:	89 34 24             	mov    %esi,(%esp)
    18cd:	e8 ae 4d 01 00       	call   16680 <async_hangup>
    18d2:	83 c4 3c             	add    $0x3c,%esp
    18d5:	89 f8                	mov    %edi,%eax
    18d7:	5b                   	pop    %ebx
    18d8:	5e                   	pop    %esi
    18d9:	5f                   	pop    %edi
    18da:	5d                   	pop    %ebp
    18db:	c3                   	ret    
    18dc:	8d 74 26 00          	lea    0x0(%esi,%eiz,1),%esi
    18e0:	8b 15 ec 2a 02 00    	mov    0x22aec,%edx
    18e6:	c7 40 04 ec 2a 02 00 	movl   $0x22aec,0x4(%eax)
    18ed:	89 10                	mov    %edx,(%eax)
    18ef:	a3 ec 2a 02 00       	mov    %eax,0x22aec
    18f4:	89 42 04             	mov    %eax,0x4(%edx)
    18f7:	c7 04 24 dc 2a 02 00 	movl   $0x22adc,(%esp)
    18fe:	e8 dd 8b 00 00       	call   a4e0 <fibril_mutex_unlock>
    1903:	83 c4 3c             	add    $0x3c,%esp
    1906:	89 f8                	mov    %edi,%eax
    1908:	5b                   	pop    %ebx
    1909:	5e                   	pop    %esi
    190a:	5f                   	pop    %edi
    190b:	5d                   	pop    %ebp
    190c:	c3                   	ret    
    190d:	83 cf ff             	or     $0xffffffff,%edi
    1910:	eb c0                	jmp    18d2 <block_init+0x122>
    1912:	bf fe ff ff ff       	mov    $0xfffffffe,%edi
    1917:	eb a6                	jmp    18bf <block_init+0x10f>
    1919:	8d b4 26 00 00 00 00 	lea    0x0(%esi,%eiz,1),%esi

00001920 <block_bb_read>:
    1920:	55                   	push   %ebp
    1921:	89 e5                	mov    %esp,%ebp
    1923:	57                   	push   %edi
    1924:	56                   	push   %esi
    1925:	53                   	push   %ebx
    1926:	83 ec 3c             	sub    $0x3c,%esp
    1929:	8b 45 08             	mov    0x8(%ebp),%eax
    192c:	8b 75 0c             	mov    0xc(%ebp),%esi
    192f:	c7 04 24 dc 2a 02 00 	movl   $0x22adc,(%esp)
    1936:	89 45 e4             	mov    %eax,-0x1c(%ebp)
    1939:	8b 7d 10             	mov    0x10(%ebp),%edi
    193c:	e8 7f 8a 00 00       	call   a3c0 <fibril_mutex_lock>
    1941:	8b 1d f0 2a 02 00    	mov    0x22af0,%ebx
    1947:	8b 45 e4             	mov    -0x1c(%ebp),%eax
    194a:	81 fb ec 2a 02 00    	cmp    $0x22aec,%ebx
    1950:	75 15                	jne    1967 <block_bb_read+0x47>
    1952:	e9 91 00 00 00       	jmp    19e8 <block_bb_read+0xc8>
    1957:	90                   	nop
    1958:	8b 5b 04             	mov    0x4(%ebx),%ebx
    195b:	81 fb ec 2a 02 00    	cmp    $0x22aec,%ebx
    1961:	0f 84 81 00 00 00    	je     19e8 <block_bb_read+0xc8>
    1967:	3b 43 08             	cmp    0x8(%ebx),%eax
    196a:	75 ec                	jne    1958 <block_bb_read+0x38>
    196c:	c7 04 24 dc 2a 02 00 	movl   $0x22adc,(%esp)
    1973:	e8 68 8b 00 00       	call   a4e0 <fibril_mutex_unlock>
    1978:	8b 43 14             	mov    0x14(%ebx),%eax
    197b:	85 c0                	test   %eax,%eax
    197d:	0f 85 d5 00 00 00    	jne    1a58 <block_bb_read+0x138>
    1983:	8b 43 20             	mov    0x20(%ebx),%eax
    1986:	89 04 24             	mov    %eax,(%esp)
    1989:	e8 b2 18 01 00       	call   13240 <malloc>
    198e:	89 c1                	mov    %eax,%ecx
    1990:	85 c0                	test   %eax,%eax
    1992:	0f 84 cf 00 00 00    	je     1a67 <block_bb_read+0x147>
    1998:	8b 43 20             	mov    0x20(%ebx),%eax
    199b:	89 4c 24 10          	mov    %ecx,0x10(%esp)
    199f:	89 44 24 14          	mov    %eax,0x14(%esp)
    19a3:	c7 44 24 0c 01 00 00 	movl   $0x1,0xc(%esp)
    19aa:	00 
    19ab:	c7 44 24 04 00 00 00 	movl   $0x0,0x4(%esp)
    19b2:	00 
    19b3:	c7 44 24 08 00 00 00 	movl   $0x0,0x8(%esp)
    19ba:	00 
    19bb:	8b 43 10             	mov    0x10(%ebx),%eax
    19be:	89 4d e4             	mov    %ecx,-0x1c(%ebp)
    19c1:	89 04 24             	mov    %eax,(%esp)
    19c4:	e8 b7 17 00 00       	call   3180 <bd_read_blocks>
    19c9:	8b 4d e4             	mov    -0x1c(%ebp),%ecx
    19cc:	89 c2                	mov    %eax,%edx
    19ce:	85 c0                	test   %eax,%eax
    19d0:	75 36                	jne    1a08 <block_bb_read+0xe8>
    19d2:	89 4b 14             	mov    %ecx,0x14(%ebx)
    19d5:	89 73 18             	mov    %esi,0x18(%ebx)
    19d8:	89 7b 1c             	mov    %edi,0x1c(%ebx)
    19db:	83 c4 3c             	add    $0x3c,%esp
    19de:	89 d0                	mov    %edx,%eax
    19e0:	5b                   	pop    %ebx
    19e1:	5e                   	pop    %esi
    19e2:	5f                   	pop    %edi
    19e3:	5d                   	pop    %ebp
    19e4:	c3                   	ret    
    19e5:	8d 76 00             	lea    0x0(%esi),%esi
    19e8:	c7 04 24 dc 2a 02 00 	movl   $0x22adc,(%esp)
    19ef:	e8 ec 8a 00 00       	call   a4e0 <fibril_mutex_unlock>
    19f4:	83 ca ff             	or     $0xffffffff,%edx
    19f7:	83 c4 3c             	add    $0x3c,%esp
    19fa:	89 d0                	mov    %edx,%eax
    19fc:	5b                   	pop    %ebx
    19fd:	5e                   	pop    %esi
    19fe:	5f                   	pop    %edi
    19ff:	5d                   	pop    %ebp
    1a00:	c3                   	ret    
    1a01:	8d b4 26 00 00 00 00 	lea    0x0(%esi,%eiz,1),%esi
    1a08:	8b 43 08             	mov    0x8(%ebx),%eax
    1a0b:	89 54 24 04          	mov    %edx,0x4(%esp)
    1a0f:	89 44 24 14          	mov    %eax,0x14(%esp)
    1a13:	c7 44 24 0c 00 00 00 	movl   $0x0,0xc(%esp)
    1a1a:	00 
    1a1b:	c7 44 24 10 00 00 00 	movl   $0x0,0x10(%esp)
    1a22:	00 
    1a23:	c7 44 24 08 01 00 00 	movl   $0x1,0x8(%esp)
    1a2a:	00 
    1a2b:	c7 04 24 e0 00 02 00 	movl   $0x200e0,(%esp)
    1a32:	89 55 e0             	mov    %edx,-0x20(%ebp)
    1a35:	e8 b6 c9 00 00       	call   e3f0 <printf>
    1a3a:	e8 41 bf 01 00       	call   1d980 <stacktrace_print>
    1a3f:	8b 4d e4             	mov    -0x1c(%ebp),%ecx
    1a42:	89 0c 24             	mov    %ecx,(%esp)
    1a45:	e8 06 19 01 00       	call   13350 <free>
    1a4a:	8b 55 e0             	mov    -0x20(%ebp),%edx
    1a4d:	83 c4 3c             	add    $0x3c,%esp
    1a50:	89 d0                	mov    %edx,%eax
    1a52:	5b                   	pop    %ebx
    1a53:	5e                   	pop    %esi
    1a54:	5f                   	pop    %edi
    1a55:	5d                   	pop    %ebp
    1a56:	c3                   	ret    
    1a57:	90                   	nop
    1a58:	83 c4 3c             	add    $0x3c,%esp
    1a5b:	ba fc fe ff ff       	mov    $0xfffffefc,%edx
    1a60:	89 d0                	mov    %edx,%eax
    1a62:	5b                   	pop    %ebx
    1a63:	5e                   	pop    %esi
    1a64:	5f                   	pop    %edi
    1a65:	5d                   	pop    %ebp
    1a66:	c3                   	ret    
    1a67:	ba fe ff ff ff       	mov    $0xfffffffe,%edx
    1a6c:	eb 89                	jmp    19f7 <block_bb_read+0xd7>
    1a6e:	66 90                	xchg   %ax,%ax

00001a70 <block_bb_get>:
    1a70:	55                   	push   %ebp
    1a71:	89 e5                	mov    %esp,%ebp
    1a73:	56                   	push   %esi
    1a74:	53                   	push   %ebx
    1a75:	83 ec 10             	sub    $0x10,%esp
    1a78:	8b 75 08             	mov    0x8(%ebp),%esi
    1a7b:	c7 04 24 dc 2a 02 00 	movl   $0x22adc,(%esp)
    1a82:	e8 39 89 00 00       	call   a3c0 <fibril_mutex_lock>
    1a87:	8b 1d f0 2a 02 00    	mov    0x22af0,%ebx
    1a8d:	81 fb ec 2a 02 00    	cmp    $0x22aec,%ebx
    1a93:	75 0e                	jne    1aa3 <block_bb_get+0x33>
    1a95:	eb 29                	jmp    1ac0 <block_bb_get+0x50>
    1a97:	90                   	nop
    1a98:	8b 5b 04             	mov    0x4(%ebx),%ebx
    1a9b:	81 fb ec 2a 02 00    	cmp    $0x22aec,%ebx
    1aa1:	74 1d                	je     1ac0 <block_bb_get+0x50>
    1aa3:	3b 73 08             	cmp    0x8(%ebx),%esi
    1aa6:	75 f0                	jne    1a98 <block_bb_get+0x28>
    1aa8:	c7 04 24 dc 2a 02 00 	movl   $0x22adc,(%esp)
    1aaf:	e8 2c 8a 00 00       	call   a4e0 <fibril_mutex_unlock>
    1ab4:	8b 43 14             	mov    0x14(%ebx),%eax
    1ab7:	83 c4 10             	add    $0x10,%esp
    1aba:	5b                   	pop    %ebx
    1abb:	5e                   	pop    %esi
    1abc:	5d                   	pop    %ebp
    1abd:	c3                   	ret    
    1abe:	66 90                	xchg   %ax,%ax
    1ac0:	c7 04 24 dc 2a 02 00 	movl   $0x22adc,(%esp)
    1ac7:	e8 14 8a 00 00       	call   a4e0 <fibril_mutex_unlock>
    1acc:	c7 44 24 08 e5 00 00 	movl   $0xe5,0x8(%esp)
    1ad3:	00 
    1ad4:	c7 44 24 04 8e 00 02 	movl   $0x2008e,0x4(%esp)
    1adb:	00 
    1adc:	c7 04 24 96 00 02 00 	movl   $0x20096,(%esp)
    1ae3:	e8 38 bf 01 00       	call   1da20 <assert_abort>
    1ae8:	90                   	nop
    1ae9:	8d b4 26 00 00 00 00 	lea    0x0(%esi,%eiz,1),%esi

00001af0 <block_cache_init>:
    1af0:	55                   	push   %ebp
    1af1:	89 e5                	mov    %esp,%ebp
    1af3:	56                   	push   %esi
    1af4:	53                   	push   %ebx
    1af5:	83 ec 10             	sub    $0x10,%esp
    1af8:	8b 75 08             	mov    0x8(%ebp),%esi
    1afb:	c7 04 24 dc 2a 02 00 	movl   $0x22adc,(%esp)
    1b02:	e8 b9 88 00 00       	call   a3c0 <fibril_mutex_lock>
    1b07:	8b 1d f0 2a 02 00    	mov    0x22af0,%ebx
    1b0d:	81 fb ec 2a 02 00    	cmp    $0x22aec,%ebx
    1b13:	75 1a                	jne    1b2f <block_cache_init+0x3f>
    1b15:	e9 b6 00 00 00       	jmp    1bd0 <block_cache_init+0xe0>
    1b1a:	8d b6 00 00 00 00    	lea    0x0(%esi),%esi
    1b20:	8b 5b 04             	mov    0x4(%ebx),%ebx
    1b23:	81 fb ec 2a 02 00    	cmp    $0x22aec,%ebx
    1b29:	0f 84 a1 00 00 00    	je     1bd0 <block_cache_init+0xe0>
    1b2f:	3b 73 08             	cmp    0x8(%ebx),%esi
    1b32:	75 ec                	jne    1b20 <block_cache_init+0x30>
    1b34:	c7 04 24 dc 2a 02 00 	movl   $0x22adc,(%esp)
    1b3b:	e8 a0 89 00 00       	call   a4e0 <fibril_mutex_unlock>
    1b40:	8b 53 24             	mov    0x24(%ebx),%edx
    1b43:	85 d2                	test   %edx,%edx
    1b45:	0f 85 9d 00 00 00    	jne    1be8 <block_cache_init+0xf8>
    1b4b:	c7 04 24 48 00 00 00 	movl   $0x48,(%esp)
    1b52:	e8 e9 16 01 00       	call   13240 <malloc>
    1b57:	89 c6                	mov    %eax,%esi
    1b59:	85 c0                	test   %eax,%eax
    1b5b:	0f 84 a2 00 00 00    	je     1c03 <block_cache_init+0x113>
    1b61:	89 04 24             	mov    %eax,(%esp)
    1b64:	e8 37 88 00 00       	call   a3a0 <fibril_mutex_initialize>
    1b69:	8d 46 3c             	lea    0x3c(%esi),%eax
    1b6c:	89 46 3c             	mov    %eax,0x3c(%esi)
    1b6f:	89 46 40             	mov    %eax,0x40(%esi)
    1b72:	8b 45 0c             	mov    0xc(%ebp),%eax
    1b75:	31 d2                	xor    %edx,%edx
    1b77:	89 46 10             	mov    %eax,0x10(%esi)
    1b7a:	8b 45 10             	mov    0x10(%ebp),%eax
    1b7d:	89 46 18             	mov    %eax,0x18(%esi)
    1b80:	8b 45 14             	mov    0x14(%ebp),%eax
    1b83:	89 46 44             	mov    %eax,0x44(%esi)
    1b86:	8b 45 0c             	mov    0xc(%ebp),%eax
    1b89:	f7 73 20             	divl   0x20(%ebx)
    1b8c:	c7 46 1c 00 00 00 00 	movl   $0x0,0x1c(%esi)
    1b93:	85 d2                	test   %edx,%edx
    1b95:	75 5d                	jne    1bf4 <block_cache_init+0x104>
    1b97:	89 46 14             	mov    %eax,0x14(%esi)
    1b9a:	8d 46 20             	lea    0x20(%esi),%eax
    1b9d:	c7 44 24 0c f4 2a 02 	movl   $0x22af4,0xc(%esp)
    1ba4:	00 
    1ba5:	c7 44 24 08 00 00 00 	movl   $0x0,0x8(%esp)
    1bac:	00 
    1bad:	c7 44 24 04 00 00 00 	movl   $0x0,0x4(%esp)
    1bb4:	00 
    1bb5:	89 04 24             	mov    %eax,(%esp)
    1bb8:	e8 23 73 01 00       	call   18ee0 <hash_table_create>
    1bbd:	84 c0                	test   %al,%al
    1bbf:	74 49                	je     1c0a <block_cache_init+0x11a>
    1bc1:	89 73 24             	mov    %esi,0x24(%ebx)
    1bc4:	83 c4 10             	add    $0x10,%esp
    1bc7:	31 c0                	xor    %eax,%eax
    1bc9:	5b                   	pop    %ebx
    1bca:	5e                   	pop    %esi
    1bcb:	5d                   	pop    %ebp
    1bcc:	c3                   	ret    
    1bcd:	8d 76 00             	lea    0x0(%esi),%esi
    1bd0:	c7 04 24 dc 2a 02 00 	movl   $0x22adc,(%esp)
    1bd7:	e8 04 89 00 00       	call   a4e0 <fibril_mutex_unlock>
    1bdc:	83 c8 ff             	or     $0xffffffff,%eax
    1bdf:	83 c4 10             	add    $0x10,%esp
    1be2:	5b                   	pop    %ebx
    1be3:	5e                   	pop    %esi
    1be4:	5d                   	pop    %ebp
    1be5:	c3                   	ret    
    1be6:	66 90                	xchg   %ax,%ax
    1be8:	83 c4 10             	add    $0x10,%esp
    1beb:	b8 fc fe ff ff       	mov    $0xfffffefc,%eax
    1bf0:	5b                   	pop    %ebx
    1bf1:	5e                   	pop    %esi
    1bf2:	5d                   	pop    %ebp
    1bf3:	c3                   	ret    
    1bf4:	89 34 24             	mov    %esi,(%esp)
    1bf7:	e8 54 17 01 00       	call   13350 <free>
    1bfc:	b8 f5 ff ff ff       	mov    $0xfffffff5,%eax
    1c01:	eb dc                	jmp    1bdf <block_cache_init+0xef>
    1c03:	b8 fe ff ff ff       	mov    $0xfffffffe,%eax
    1c08:	eb d5                	jmp    1bdf <block_cache_init+0xef>
    1c0a:	89 34 24             	mov    %esi,(%esp)
    1c0d:	e8 3e 17 01 00       	call   13350 <free>
    1c12:	b8 fe ff ff ff       	mov    $0xfffffffe,%eax
    1c17:	eb c6                	jmp    1bdf <block_cache_init+0xef>
    1c19:	8d b4 26 00 00 00 00 	lea    0x0(%esi,%eiz,1),%esi

00001c20 <block_cache_fini>:
    1c20:	55                   	push   %ebp
    1c21:	89 e5                	mov    %esp,%ebp
    1c23:	57                   	push   %edi
    1c24:	56                   	push   %esi
    1c25:	53                   	push   %ebx
    1c26:	83 ec 4c             	sub    $0x4c,%esp
    1c29:	8b 5d 08             	mov    0x8(%ebp),%ebx
    1c2c:	c7 04 24 dc 2a 02 00 	movl   $0x22adc,(%esp)
    1c33:	e8 88 87 00 00       	call   a3c0 <fibril_mutex_lock>
    1c38:	8b 35 f0 2a 02 00    	mov    0x22af0,%esi
    1c3e:	81 fe ec 2a 02 00    	cmp    $0x22aec,%esi
    1c44:	75 19                	jne    1c5f <block_cache_fini+0x3f>
    1c46:	e9 1d 01 00 00       	jmp    1d68 <block_cache_fini+0x148>
    1c4b:	90                   	nop
    1c4c:	8d 74 26 00          	lea    0x0(%esi,%eiz,1),%esi
    1c50:	8b 76 04             	mov    0x4(%esi),%esi
    1c53:	81 fe ec 2a 02 00    	cmp    $0x22aec,%esi
    1c59:	0f 84 09 01 00 00    	je     1d68 <block_cache_fini+0x148>
    1c5f:	3b 5e 08             	cmp    0x8(%esi),%ebx
    1c62:	75 ec                	jne    1c50 <block_cache_fini+0x30>
    1c64:	c7 04 24 dc 2a 02 00 	movl   $0x22adc,(%esp)
    1c6b:	e8 70 88 00 00       	call   a4e0 <fibril_mutex_unlock>
    1c70:	8b 56 24             	mov    0x24(%esi),%edx
    1c73:	89 55 e0             	mov    %edx,-0x20(%ebp)
    1c76:	85 d2                	test   %edx,%edx
    1c78:	0f 84 46 01 00 00    	je     1dc4 <block_cache_fini+0x1a4>
    1c7e:	8b 5a 40             	mov    0x40(%edx),%ebx
    1c81:	83 c2 3c             	add    $0x3c,%edx
    1c84:	89 55 d4             	mov    %edx,-0x2c(%ebp)
    1c87:	8b 55 e0             	mov    -0x20(%ebp),%edx
    1c8a:	83 c2 20             	add    $0x20,%edx
    1c8d:	3b 5d d4             	cmp    -0x2c(%ebp),%ebx
    1c90:	89 55 e4             	mov    %edx,-0x1c(%ebp)
    1c93:	89 da                	mov    %ebx,%edx
    1c95:	0f 84 2d 01 00 00    	je     1dc8 <block_cache_fini+0x1a8>
    1c9b:	90                   	nop
    1c9c:	8d 74 26 00          	lea    0x0(%esi,%eiz,1),%esi
    1ca0:	8d 5a bc             	lea    -0x44(%edx),%ebx
    1ca3:	8b 4b 44             	mov    0x44(%ebx),%ecx
    1ca6:	85 c9                	test   %ecx,%ecx
    1ca8:	74 0f                	je     1cb9 <block_cache_fini+0x99>
    1caa:	8b 43 48             	mov    0x48(%ebx),%eax
    1cad:	85 c0                	test   %eax,%eax
    1caf:	74 08                	je     1cb9 <block_cache_fini+0x99>
    1cb1:	89 08                	mov    %ecx,(%eax)
    1cb3:	8b 4b 44             	mov    0x44(%ebx),%ecx
    1cb6:	89 41 04             	mov    %eax,0x4(%ecx)
    1cb9:	c7 43 44 00 00 00 00 	movl   $0x0,0x44(%ebx)
    1cc0:	c7 43 48 00 00 00 00 	movl   $0x0,0x48(%ebx)
    1cc7:	80 7b 14 00          	cmpb   $0x0,0x14(%ebx)
    1ccb:	74 41                	je     1d0e <block_cache_fini+0xee>
    1ccd:	8b 43 38             	mov    0x38(%ebx),%eax
    1cd0:	8b 55 e0             	mov    -0x20(%ebp),%edx
    1cd3:	89 45 d8             	mov    %eax,-0x28(%ebp)
    1cd6:	8b 43 40             	mov    0x40(%ebx),%eax
    1cd9:	8b 7a 14             	mov    0x14(%edx),%edi
    1cdc:	8b 53 3c             	mov    0x3c(%ebx),%edx
    1cdf:	89 44 24 14          	mov    %eax,0x14(%esp)
    1ce3:	89 55 dc             	mov    %edx,-0x24(%ebp)
    1ce6:	8b 43 54             	mov    0x54(%ebx),%eax
    1ce9:	8b 55 dc             	mov    -0x24(%ebp),%edx
    1cec:	89 44 24 10          	mov    %eax,0x10(%esp)
    1cf0:	8b 45 d8             	mov    -0x28(%ebp),%eax
    1cf3:	89 7c 24 0c          	mov    %edi,0xc(%esp)
    1cf7:	89 44 24 04          	mov    %eax,0x4(%esp)
    1cfb:	89 54 24 08          	mov    %edx,0x8(%esp)
    1cff:	8b 46 10             	mov    0x10(%esi),%eax
    1d02:	89 04 24             	mov    %eax,(%esp)
    1d05:	e8 e6 15 00 00       	call   32f0 <bd_write_blocks>
    1d0a:	85 c0                	test   %eax,%eax
    1d0c:	75 7a                	jne    1d88 <block_cache_fini+0x168>
    1d0e:	8d 43 4c             	lea    0x4c(%ebx),%eax
    1d11:	8b 7d e4             	mov    -0x1c(%ebp),%edi
    1d14:	89 44 24 04          	mov    %eax,0x4(%esp)
    1d18:	89 3c 24             	mov    %edi,(%esp)
    1d1b:	e8 50 7a 01 00       	call   19770 <hash_table_remove_item>
    1d20:	8b 43 54             	mov    0x54(%ebx),%eax
    1d23:	89 04 24             	mov    %eax,(%esp)
    1d26:	e8 25 16 01 00       	call   13350 <free>
    1d2b:	89 1c 24             	mov    %ebx,(%esp)
    1d2e:	e8 1d 16 01 00       	call   13350 <free>
    1d33:	8b 45 e0             	mov    -0x20(%ebp),%eax
    1d36:	8b 50 40             	mov    0x40(%eax),%edx
    1d39:	3b 55 d4             	cmp    -0x2c(%ebp),%edx
    1d3c:	0f 85 5e ff ff ff    	jne    1ca0 <block_cache_fini+0x80>
    1d42:	89 3c 24             	mov    %edi,(%esp)
    1d45:	31 ff                	xor    %edi,%edi
    1d47:	e8 c4 72 01 00       	call   19010 <hash_table_destroy>
    1d4c:	8b 55 e0             	mov    -0x20(%ebp),%edx
    1d4f:	c7 46 24 00 00 00 00 	movl   $0x0,0x24(%esi)
    1d56:	89 14 24             	mov    %edx,(%esp)
    1d59:	e8 f2 15 01 00       	call   13350 <free>
    1d5e:	83 c4 4c             	add    $0x4c,%esp
    1d61:	89 f8                	mov    %edi,%eax
    1d63:	5b                   	pop    %ebx
    1d64:	5e                   	pop    %esi
    1d65:	5f                   	pop    %edi
    1d66:	5d                   	pop    %ebp
    1d67:	c3                   	ret    
    1d68:	c7 04 24 dc 2a 02 00 	movl   $0x22adc,(%esp)
    1d6f:	83 cf ff             	or     $0xffffffff,%edi
    1d72:	e8 69 87 00 00       	call   a4e0 <fibril_mutex_unlock>
    1d77:	83 c4 4c             	add    $0x4c,%esp
    1d7a:	89 f8                	mov    %edi,%eax
    1d7c:	5b                   	pop    %ebx
    1d7d:	5e                   	pop    %esi
    1d7e:	5f                   	pop    %edi
    1d7f:	5d                   	pop    %ebp
    1d80:	c3                   	ret    
    1d81:	8d b4 26 00 00 00 00 	lea    0x0(%esi,%eiz,1),%esi
    1d88:	89 f9                	mov    %edi,%ecx
    1d8a:	89 c7                	mov    %eax,%edi
    1d8c:	8b 46 08             	mov    0x8(%esi),%eax
    1d8f:	8b 55 dc             	mov    -0x24(%ebp),%edx
    1d92:	89 44 24 14          	mov    %eax,0x14(%esp)
    1d96:	8b 45 d8             	mov    -0x28(%ebp),%eax
    1d99:	89 54 24 10          	mov    %edx,0x10(%esp)
    1d9d:	89 4c 24 08          	mov    %ecx,0x8(%esp)
    1da1:	89 7c 24 04          	mov    %edi,0x4(%esp)
    1da5:	89 44 24 0c          	mov    %eax,0xc(%esp)
    1da9:	c7 04 24 2c 01 02 00 	movl   $0x2012c,(%esp)
    1db0:	e8 3b c6 00 00       	call   e3f0 <printf>
    1db5:	e8 c6 bb 01 00       	call   1d980 <stacktrace_print>
    1dba:	83 c4 4c             	add    $0x4c,%esp
    1dbd:	89 f8                	mov    %edi,%eax
    1dbf:	5b                   	pop    %ebx
    1dc0:	5e                   	pop    %esi
    1dc1:	5f                   	pop    %edi
    1dc2:	5d                   	pop    %ebp
    1dc3:	c3                   	ret    
    1dc4:	31 ff                	xor    %edi,%edi
    1dc6:	eb af                	jmp    1d77 <block_cache_fini+0x157>
    1dc8:	8b 55 e0             	mov    -0x20(%ebp),%edx
    1dcb:	8d 7a 20             	lea    0x20(%edx),%edi
    1dce:	e9 6f ff ff ff       	jmp    1d42 <block_cache_fini+0x122>
    1dd3:	8d b6 00 00 00 00    	lea    0x0(%esi),%esi
    1dd9:	8d bc 27 00 00 00 00 	lea    0x0(%edi,%eiz,1),%edi

00001de0 <block_fini>:
    1de0:	55                   	push   %ebp
    1de1:	89 e5                	mov    %esp,%ebp
    1de3:	56                   	push   %esi
    1de4:	53                   	push   %ebx
    1de5:	83 ec 10             	sub    $0x10,%esp
    1de8:	8b 75 08             	mov    0x8(%ebp),%esi
    1deb:	c7 04 24 dc 2a 02 00 	movl   $0x22adc,(%esp)
    1df2:	e8 c9 85 00 00       	call   a3c0 <fibril_mutex_lock>
    1df7:	8b 1d f0 2a 02 00    	mov    0x22af0,%ebx
    1dfd:	81 fb ec 2a 02 00    	cmp    $0x22aec,%ebx
    1e03:	75 1a                	jne    1e1f <block_fini+0x3f>
    1e05:	e9 a6 00 00 00       	jmp    1eb0 <block_fini+0xd0>
    1e0a:	8d b6 00 00 00 00    	lea    0x0(%esi),%esi
    1e10:	8b 5b 04             	mov    0x4(%ebx),%ebx
    1e13:	81 fb ec 2a 02 00    	cmp    $0x22aec,%ebx
    1e19:	0f 84 91 00 00 00    	je     1eb0 <block_fini+0xd0>
    1e1f:	3b 73 08             	cmp    0x8(%ebx),%esi
    1e22:	75 ec                	jne    1e10 <block_fini+0x30>
    1e24:	c7 04 24 dc 2a 02 00 	movl   $0x22adc,(%esp)
    1e2b:	e8 b0 86 00 00       	call   a4e0 <fibril_mutex_unlock>
    1e30:	8b 4b 24             	mov    0x24(%ebx),%ecx
    1e33:	85 c9                	test   %ecx,%ecx
    1e35:	74 08                	je     1e3f <block_fini+0x5f>
    1e37:	89 34 24             	mov    %esi,(%esp)
    1e3a:	e8 e1 fd ff ff       	call   1c20 <block_cache_fini>
    1e3f:	c7 04 24 dc 2a 02 00 	movl   $0x22adc,(%esp)
    1e46:	e8 75 85 00 00       	call   a3c0 <fibril_mutex_lock>
    1e4b:	8b 13                	mov    (%ebx),%edx
    1e4d:	85 d2                	test   %edx,%edx
    1e4f:	74 0e                	je     1e5f <block_fini+0x7f>
    1e51:	8b 43 04             	mov    0x4(%ebx),%eax
    1e54:	85 c0                	test   %eax,%eax
    1e56:	74 07                	je     1e5f <block_fini+0x7f>
    1e58:	89 10                	mov    %edx,(%eax)
    1e5a:	8b 13                	mov    (%ebx),%edx
    1e5c:	89 42 04             	mov    %eax,0x4(%edx)
    1e5f:	c7 03 00 00 00 00    	movl   $0x0,(%ebx)
    1e65:	c7 43 04 00 00 00 00 	movl   $0x0,0x4(%ebx)
    1e6c:	c7 04 24 dc 2a 02 00 	movl   $0x22adc,(%esp)
    1e73:	e8 68 86 00 00       	call   a4e0 <fibril_mutex_unlock>
    1e78:	8b 43 14             	mov    0x14(%ebx),%eax
    1e7b:	85 c0                	test   %eax,%eax
    1e7d:	74 08                	je     1e87 <block_fini+0xa7>
    1e7f:	89 04 24             	mov    %eax,(%esp)
    1e82:	e8 c9 14 01 00       	call   13350 <free>
    1e87:	8b 43 10             	mov    0x10(%ebx),%eax
    1e8a:	89 04 24             	mov    %eax,(%esp)
    1e8d:	e8 de 12 00 00       	call   3170 <bd_close>
    1e92:	8b 43 0c             	mov    0xc(%ebx),%eax
    1e95:	89 04 24             	mov    %eax,(%esp)
    1e98:	e8 e3 47 01 00       	call   16680 <async_hangup>
    1e9d:	89 5d 08             	mov    %ebx,0x8(%ebp)
    1ea0:	83 c4 10             	add    $0x10,%esp
    1ea3:	5b                   	pop    %ebx
    1ea4:	5e                   	pop    %esi
    1ea5:	5d                   	pop    %ebp
    1ea6:	e9 a5 14 01 00       	jmp    13350 <free>
    1eab:	90                   	nop
    1eac:	8d 74 26 00          	lea    0x0(%esi,%eiz,1),%esi
    1eb0:	c7 04 24 dc 2a 02 00 	movl   $0x22adc,(%esp)
    1eb7:	e8 24 86 00 00       	call   a4e0 <fibril_mutex_unlock>
    1ebc:	c7 44 24 08 b8 00 00 	movl   $0xb8,0x8(%esp)
    1ec3:	00 
    1ec4:	c7 44 24 04 8e 00 02 	movl   $0x2008e,0x4(%esp)
    1ecb:	00 
    1ecc:	c7 04 24 96 00 02 00 	movl   $0x20096,(%esp)
    1ed3:	e8 48 bb 01 00       	call   1da20 <assert_abort>
    1ed8:	90                   	nop
    1ed9:	8d b4 26 00 00 00 00 	lea    0x0(%esi,%eiz,1),%esi

00001ee0 <block_put>:
    1ee0:	55                   	push   %ebp
    1ee1:	89 e5                	mov    %esp,%ebp
    1ee3:	57                   	push   %edi
    1ee4:	56                   	push   %esi
    1ee5:	53                   	push   %ebx
    1ee6:	83 ec 3c             	sub    $0x3c,%esp
    1ee9:	8b 7d 08             	mov    0x8(%ebp),%edi
    1eec:	8b 5f 2c             	mov    0x2c(%edi),%ebx
    1eef:	c7 04 24 dc 2a 02 00 	movl   $0x22adc,(%esp)
    1ef6:	e8 c5 84 00 00       	call   a3c0 <fibril_mutex_lock>
    1efb:	8b 35 f0 2a 02 00    	mov    0x22af0,%esi
    1f01:	81 fe ec 2a 02 00    	cmp    $0x22aec,%esi
    1f07:	75 16                	jne    1f1f <block_put+0x3f>
    1f09:	e9 fa 00 00 00       	jmp    2008 <block_put+0x128>
    1f0e:	66 90                	xchg   %ax,%ax
    1f10:	8b 76 04             	mov    0x4(%esi),%esi
    1f13:	81 fe ec 2a 02 00    	cmp    $0x22aec,%esi
    1f19:	0f 84 e9 00 00 00    	je     2008 <block_put+0x128>
    1f1f:	3b 5e 08             	cmp    0x8(%esi),%ebx
    1f22:	75 ec                	jne    1f10 <block_put+0x30>
    1f24:	c7 04 24 dc 2a 02 00 	movl   $0x22adc,(%esp)
    1f2b:	e8 b0 85 00 00       	call   a4e0 <fibril_mutex_unlock>
    1f30:	8b 5e 24             	mov    0x24(%esi),%ebx
    1f33:	85 db                	test   %ebx,%ebx
    1f35:	0f 84 10 02 00 00    	je     214b <block_put+0x26b>
    1f3b:	8b 47 10             	mov    0x10(%edi),%eax
    1f3e:	85 c0                	test   %eax,%eax
    1f40:	0f 84 21 02 00 00    	je     2167 <block_put+0x287>
    1f46:	c7 45 dc 00 00 00 00 	movl   $0x0,-0x24(%ebp)
    1f4d:	89 75 d8             	mov    %esi,-0x28(%ebp)
    1f50:	eb 7b                	jmp    1fcd <block_put+0xed>
    1f52:	8d b6 00 00 00 00    	lea    0x0(%esi),%esi
    1f58:	80 7f 14 00          	cmpb   $0x0,0x14(%edi)
    1f5c:	74 0a                	je     1f68 <block_put+0x88>
    1f5e:	83 7f 10 01          	cmpl   $0x1,0x10(%edi)
    1f62:	0f 84 18 01 00 00    	je     2080 <block_put+0x1a0>
    1f68:	89 3c 24             	mov    %edi,(%esp)
    1f6b:	e8 70 85 00 00       	call   a4e0 <fibril_mutex_unlock>
    1f70:	89 1c 24             	mov    %ebx,(%esp)
    1f73:	e8 48 84 00 00       	call   a3c0 <fibril_mutex_lock>
    1f78:	89 3c 24             	mov    %edi,(%esp)
    1f7b:	e8 40 84 00 00       	call   a3c0 <fibril_mutex_lock>
    1f80:	8b 4f 10             	mov    0x10(%edi),%ecx
    1f83:	8d 41 ff             	lea    -0x1(%ecx),%eax
    1f86:	89 47 10             	mov    %eax,0x10(%edi)
    1f89:	85 c0                	test   %eax,%eax
    1f8b:	0f 85 9f 01 00 00    	jne    2130 <block_put+0x250>
    1f91:	83 7b 1c 14          	cmpl   $0x14,0x1c(%ebx)
    1f95:	0f 87 95 00 00 00    	ja     2030 <block_put+0x150>
    1f9b:	8b 45 dc             	mov    -0x24(%ebp),%eax
    1f9e:	85 c0                	test   %eax,%eax
    1fa0:	0f 85 8a 00 00 00    	jne    2030 <block_put+0x150>
    1fa6:	83 7b 44 01          	cmpl   $0x1,0x44(%ebx)
    1faa:	0f 84 68 01 00 00    	je     2118 <block_put+0x238>
    1fb0:	80 7f 14 00          	cmpb   $0x0,0x14(%edi)
    1fb4:	0f 84 5e 01 00 00    	je     2118 <block_put+0x238>
    1fba:	89 4f 10             	mov    %ecx,0x10(%edi)
    1fbd:	89 3c 24             	mov    %edi,(%esp)
    1fc0:	e8 1b 85 00 00       	call   a4e0 <fibril_mutex_unlock>
    1fc5:	89 1c 24             	mov    %ebx,(%esp)
    1fc8:	e8 13 85 00 00       	call   a4e0 <fibril_mutex_unlock>
    1fcd:	89 1c 24             	mov    %ebx,(%esp)
    1fd0:	e8 eb 83 00 00       	call   a3c0 <fibril_mutex_lock>
    1fd5:	8b 43 1c             	mov    0x1c(%ebx),%eax
    1fd8:	8b 73 44             	mov    0x44(%ebx),%esi
    1fdb:	89 1c 24             	mov    %ebx,(%esp)
    1fde:	89 45 e0             	mov    %eax,-0x20(%ebp)
    1fe1:	e8 fa 84 00 00       	call   a4e0 <fibril_mutex_unlock>
    1fe6:	89 3c 24             	mov    %edi,(%esp)
    1fe9:	e8 d2 83 00 00       	call   a3c0 <fibril_mutex_lock>
    1fee:	80 7f 15 00          	cmpb   $0x0,0x15(%edi)
    1ff2:	0f 84 60 ff ff ff    	je     1f58 <block_put+0x78>
    1ff8:	c6 47 14 00          	movb   $0x0,0x14(%edi)
    1ffc:	e9 67 ff ff ff       	jmp    1f68 <block_put+0x88>
    2001:	8d b4 26 00 00 00 00 	lea    0x0(%esi,%eiz,1),%esi
    2008:	c7 04 24 dc 2a 02 00 	movl   $0x22adc,(%esp)
    200f:	e8 cc 84 00 00       	call   a4e0 <fibril_mutex_unlock>
    2014:	c7 44 24 08 2d 02 00 	movl   $0x22d,0x8(%esp)
    201b:	00 
    201c:	c7 44 24 04 8e 00 02 	movl   $0x2008e,0x4(%esp)
    2023:	00 
    2024:	c7 04 24 96 00 02 00 	movl   $0x20096,(%esp)
    202b:	e8 f0 b9 01 00       	call   1da20 <assert_abort>
    2030:	80 7f 14 00          	cmpb   $0x0,0x14(%edi)
    2034:	75 84                	jne    1fba <block_put+0xda>
    2036:	8d 47 4c             	lea    0x4c(%edi),%eax
    2039:	89 44 24 04          	mov    %eax,0x4(%esp)
    203d:	8d 43 20             	lea    0x20(%ebx),%eax
    2040:	89 04 24             	mov    %eax,(%esp)
    2043:	e8 28 77 01 00       	call   19770 <hash_table_remove_item>
    2048:	89 3c 24             	mov    %edi,(%esp)
    204b:	e8 90 84 00 00       	call   a4e0 <fibril_mutex_unlock>
    2050:	8b 47 54             	mov    0x54(%edi),%eax
    2053:	89 04 24             	mov    %eax,(%esp)
    2056:	e8 f5 12 01 00       	call   13350 <free>
    205b:	89 3c 24             	mov    %edi,(%esp)
    205e:	e8 ed 12 01 00       	call   13350 <free>
    2063:	8b 73 1c             	mov    0x1c(%ebx),%esi
    2066:	4e                   	dec    %esi
    2067:	89 73 1c             	mov    %esi,0x1c(%ebx)
    206a:	89 1c 24             	mov    %ebx,(%esp)
    206d:	e8 6e 84 00 00       	call   a4e0 <fibril_mutex_unlock>
    2072:	8b 45 dc             	mov    -0x24(%ebp),%eax
    2075:	83 c4 3c             	add    $0x3c,%esp
    2078:	5b                   	pop    %ebx
    2079:	5e                   	pop    %esi
    207a:	5f                   	pop    %edi
    207b:	5d                   	pop    %ebp
    207c:	c3                   	ret    
    207d:	8d 76 00             	lea    0x0(%esi),%esi
    2080:	4e                   	dec    %esi
    2081:	75 0a                	jne    208d <block_put+0x1ad>
    2083:	83 7d e0 14          	cmpl   $0x14,-0x20(%ebp)
    2087:	0f 86 db fe ff ff    	jbe    1f68 <block_put+0x88>
    208d:	8b 47 38             	mov    0x38(%edi),%eax
    2090:	8b 57 3c             	mov    0x3c(%edi),%edx
    2093:	89 45 e0             	mov    %eax,-0x20(%ebp)
    2096:	8b 47 40             	mov    0x40(%edi),%eax
    2099:	8b 73 14             	mov    0x14(%ebx),%esi
    209c:	89 55 e4             	mov    %edx,-0x1c(%ebp)
    209f:	89 44 24 14          	mov    %eax,0x14(%esp)
    20a3:	8b 55 e4             	mov    -0x1c(%ebp),%edx
    20a6:	8b 47 54             	mov    0x54(%edi),%eax
    20a9:	89 54 24 08          	mov    %edx,0x8(%esp)
    20ad:	89 44 24 10          	mov    %eax,0x10(%esp)
    20b1:	8b 55 d8             	mov    -0x28(%ebp),%edx
    20b4:	8b 45 e0             	mov    -0x20(%ebp),%eax
    20b7:	89 74 24 0c          	mov    %esi,0xc(%esp)
    20bb:	89 44 24 04          	mov    %eax,0x4(%esp)
    20bf:	8b 42 10             	mov    0x10(%edx),%eax
    20c2:	89 04 24             	mov    %eax,(%esp)
    20c5:	e8 26 12 00 00       	call   32f0 <bd_write_blocks>
    20ca:	89 45 dc             	mov    %eax,-0x24(%ebp)
    20cd:	85 c0                	test   %eax,%eax
    20cf:	0f 84 23 ff ff ff    	je     1ff8 <block_put+0x118>
    20d5:	8b 55 d8             	mov    -0x28(%ebp),%edx
    20d8:	8b 42 08             	mov    0x8(%edx),%eax
    20db:	8b 55 e4             	mov    -0x1c(%ebp),%edx
    20de:	89 44 24 14          	mov    %eax,0x14(%esp)
    20e2:	8b 45 e0             	mov    -0x20(%ebp),%eax
    20e5:	89 44 24 0c          	mov    %eax,0xc(%esp)
    20e9:	8b 45 dc             	mov    -0x24(%ebp),%eax
    20ec:	89 54 24 10          	mov    %edx,0x10(%esp)
    20f0:	89 74 24 08          	mov    %esi,0x8(%esp)
    20f4:	89 44 24 04          	mov    %eax,0x4(%esp)
    20f8:	c7 04 24 2c 01 02 00 	movl   $0x2012c,(%esp)
    20ff:	e8 ec c2 00 00       	call   e3f0 <printf>
    2104:	e8 77 b8 01 00       	call   1d980 <stacktrace_print>
    2109:	c6 47 14 00          	movb   $0x0,0x14(%edi)
    210d:	e9 56 fe ff ff       	jmp    1f68 <block_put+0x88>
    2112:	8d b6 00 00 00 00    	lea    0x0(%esi),%esi
    2118:	8d 4b 3c             	lea    0x3c(%ebx),%ecx
    211b:	8d 47 44             	lea    0x44(%edi),%eax
    211e:	89 4f 48             	mov    %ecx,0x48(%edi)
    2121:	8b 4b 3c             	mov    0x3c(%ebx),%ecx
    2124:	89 4f 44             	mov    %ecx,0x44(%edi)
    2127:	8b 4b 3c             	mov    0x3c(%ebx),%ecx
    212a:	89 43 3c             	mov    %eax,0x3c(%ebx)
    212d:	89 41 04             	mov    %eax,0x4(%ecx)
    2130:	89 3c 24             	mov    %edi,(%esp)
    2133:	e8 a8 83 00 00       	call   a4e0 <fibril_mutex_unlock>
    2138:	89 1c 24             	mov    %ebx,(%esp)
    213b:	e8 a0 83 00 00       	call   a4e0 <fibril_mutex_unlock>
    2140:	8b 45 dc             	mov    -0x24(%ebp),%eax
    2143:	83 c4 3c             	add    $0x3c,%esp
    2146:	5b                   	pop    %ebx
    2147:	5e                   	pop    %esi
    2148:	5f                   	pop    %edi
    2149:	5d                   	pop    %ebp
    214a:	c3                   	ret    
    214b:	c7 44 24 08 2e 02 00 	movl   $0x22e,0x8(%esp)
    2152:	00 
    2153:	c7 44 24 04 8e 00 02 	movl   $0x2008e,0x4(%esp)
    215a:	00 
    215b:	c7 04 24 9d 00 02 00 	movl   $0x2009d,(%esp)
    2162:	e8 b9 b8 01 00       	call   1da20 <assert_abort>
    2167:	c7 44 24 08 2f 02 00 	movl   $0x22f,0x8(%esp)
    216e:	00 
    216f:	c7 44 24 04 8e 00 02 	movl   $0x2008e,0x4(%esp)
    2176:	00 
    2177:	c7 04 24 ab 00 02 00 	movl   $0x200ab,(%esp)
    217e:	e8 9d b8 01 00       	call   1da20 <assert_abort>
    2183:	8d b6 00 00 00 00    	lea    0x0(%esi),%esi
    2189:	8d bc 27 00 00 00 00 	lea    0x0(%edi,%eiz,1),%edi

00002190 <block_get>:
    2190:	55                   	push   %ebp
    2191:	89 e5                	mov    %esp,%ebp
    2193:	57                   	push   %edi
    2194:	56                   	push   %esi
    2195:	53                   	push   %ebx
    2196:	83 ec 5c             	sub    $0x5c,%esp
    2199:	8b 45 10             	mov    0x10(%ebp),%eax
    219c:	89 45 e0             	mov    %eax,-0x20(%ebp)
    219f:	c7 04 24 dc 2a 02 00 	movl   $0x22adc,(%esp)
    21a6:	8b 45 14             	mov    0x14(%ebp),%eax
    21a9:	89 45 e4             	mov    %eax,-0x1c(%ebp)
    21ac:	e8 0f 82 00 00       	call   a3c0 <fibril_mutex_lock>
    21b1:	8b 35 f0 2a 02 00    	mov    0x22af0,%esi
    21b7:	81 fe ec 2a 02 00    	cmp    $0x22aec,%esi
    21bd:	74 21                	je     21e0 <block_get+0x50>
    21bf:	8b 55 0c             	mov    0xc(%ebp),%edx
    21c2:	89 d0                	mov    %edx,%eax
    21c4:	3b 56 08             	cmp    0x8(%esi),%edx
    21c7:	75 0c                	jne    21d5 <block_get+0x45>
    21c9:	eb 3d                	jmp    2208 <block_get+0x78>
    21cb:	90                   	nop
    21cc:	8d 74 26 00          	lea    0x0(%esi,%eiz,1),%esi
    21d0:	3b 46 08             	cmp    0x8(%esi),%eax
    21d3:	74 33                	je     2208 <block_get+0x78>
    21d5:	8b 76 04             	mov    0x4(%esi),%esi
    21d8:	81 fe ec 2a 02 00    	cmp    $0x22aec,%esi
    21de:	75 f0                	jne    21d0 <block_get+0x40>
    21e0:	c7 04 24 dc 2a 02 00 	movl   $0x22adc,(%esp)
    21e7:	e8 f4 82 00 00       	call   a4e0 <fibril_mutex_unlock>
    21ec:	c7 44 24 08 80 01 00 	movl   $0x180,0x8(%esp)
    21f3:	00 
    21f4:	c7 44 24 04 8e 00 02 	movl   $0x2008e,0x4(%esp)
    21fb:	00 
    21fc:	c7 04 24 96 00 02 00 	movl   $0x20096,(%esp)
    2203:	e8 18 b8 01 00       	call   1da20 <assert_abort>
    2208:	c7 04 24 dc 2a 02 00 	movl   $0x22adc,(%esp)
    220f:	e8 cc 82 00 00       	call   a4e0 <fibril_mutex_unlock>
    2214:	8b 5e 24             	mov    0x24(%esi),%ebx
    2217:	85 db                	test   %ebx,%ebx
    2219:	0f 84 36 04 00 00    	je     2655 <block_get+0x4c5>
    221f:	8d 4b 20             	lea    0x20(%ebx),%ecx
    2222:	8d 53 3c             	lea    0x3c(%ebx),%edx
    2225:	89 4d c8             	mov    %ecx,-0x38(%ebp)
    2228:	89 55 d8             	mov    %edx,-0x28(%ebp)
    222b:	89 75 cc             	mov    %esi,-0x34(%ebp)
    222e:	66 90                	xchg   %ax,%ax
    2230:	89 1c 24             	mov    %ebx,(%esp)
    2233:	e8 88 81 00 00       	call   a3c0 <fibril_mutex_lock>
    2238:	8d 4d e0             	lea    -0x20(%ebp),%ecx
    223b:	89 4c 24 04          	mov    %ecx,0x4(%esp)
    223f:	8b 4d c8             	mov    -0x38(%ebp),%ecx
    2242:	89 0c 24             	mov    %ecx,(%esp)
    2245:	e8 a6 72 01 00       	call   194f0 <hash_table_find>
    224a:	85 c0                	test   %eax,%eax
    224c:	0f 85 9b 01 00 00    	jne    23ed <block_get+0x25d>
    2252:	83 7b 1c 09          	cmpl   $0x9,0x1c(%ebx)
    2256:	0f 86 c4 00 00 00    	jbe    2320 <block_get+0x190>
    225c:	8b 53 40             	mov    0x40(%ebx),%edx
    225f:	3b 55 d8             	cmp    -0x28(%ebp),%edx
    2262:	0f 84 b8 00 00 00    	je     2320 <block_get+0x190>
    2268:	8d 72 bc             	lea    -0x44(%edx),%esi
    226b:	89 34 24             	mov    %esi,(%esp)
    226e:	e8 4d 81 00 00       	call   a3c0 <fibril_mutex_lock>
    2273:	80 7e 14 00          	cmpb   $0x0,0x14(%esi)
    2277:	0f 84 13 02 00 00    	je     2490 <block_get+0x300>
    227d:	8b 4e 44             	mov    0x44(%esi),%ecx
    2280:	85 c9                	test   %ecx,%ecx
    2282:	74 0f                	je     2293 <block_get+0x103>
    2284:	8b 46 48             	mov    0x48(%esi),%eax
    2287:	85 c0                	test   %eax,%eax
    2289:	74 08                	je     2293 <block_get+0x103>
    228b:	89 08                	mov    %ecx,(%eax)
    228d:	8b 4e 44             	mov    0x44(%esi),%ecx
    2290:	89 41 04             	mov    %eax,0x4(%ecx)
    2293:	c7 46 44 00 00 00 00 	movl   $0x0,0x44(%esi)
    229a:	8d 46 44             	lea    0x44(%esi),%eax
    229d:	8b 4b 3c             	mov    0x3c(%ebx),%ecx
    22a0:	8b 55 d8             	mov    -0x28(%ebp),%edx
    22a3:	89 4e 44             	mov    %ecx,0x44(%esi)
    22a6:	89 56 48             	mov    %edx,0x48(%esi)
    22a9:	8b 4b 3c             	mov    0x3c(%ebx),%ecx
    22ac:	89 43 3c             	mov    %eax,0x3c(%ebx)
    22af:	89 41 04             	mov    %eax,0x4(%ecx)
    22b2:	89 1c 24             	mov    %ebx,(%esp)
    22b5:	e8 26 82 00 00       	call   a4e0 <fibril_mutex_unlock>
    22ba:	8b 46 40             	mov    0x40(%esi),%eax
    22bd:	8b 4e 3c             	mov    0x3c(%esi),%ecx
    22c0:	8b 56 38             	mov    0x38(%esi),%edx
    22c3:	8b 7b 14             	mov    0x14(%ebx),%edi
    22c6:	89 44 24 14          	mov    %eax,0x14(%esp)
    22ca:	8b 46 54             	mov    0x54(%esi),%eax
    22cd:	89 4d d4             	mov    %ecx,-0x2c(%ebp)
    22d0:	89 4c 24 08          	mov    %ecx,0x8(%esp)
    22d4:	8b 4d cc             	mov    -0x34(%ebp),%ecx
    22d7:	89 44 24 10          	mov    %eax,0x10(%esp)
    22db:	89 7c 24 0c          	mov    %edi,0xc(%esp)
    22df:	89 54 24 04          	mov    %edx,0x4(%esp)
    22e3:	89 55 d0             	mov    %edx,-0x30(%ebp)
    22e6:	8b 41 10             	mov    0x10(%ecx),%eax
    22e9:	89 04 24             	mov    %eax,(%esp)
    22ec:	e8 ff 0f 00 00       	call   32f0 <bd_write_blocks>
    22f1:	85 c0                	test   %eax,%eax
    22f3:	0f 85 87 00 00 00    	jne    2380 <block_get+0x1f0>
    22f9:	c6 46 14 00          	movb   $0x0,0x14(%esi)
    22fd:	89 1c 24             	mov    %ebx,(%esp)
    2300:	e8 8b 81 00 00       	call   a490 <fibril_mutex_trylock>
    2305:	84 c0                	test   %al,%al
    2307:	0f 85 b3 00 00 00    	jne    23c0 <block_get+0x230>
    230d:	89 34 24             	mov    %esi,(%esp)
    2310:	e8 cb 81 00 00       	call   a4e0 <fibril_mutex_unlock>
    2315:	e9 16 ff ff ff       	jmp    2230 <block_get+0xa0>
    231a:	8d b6 00 00 00 00    	lea    0x0(%esi),%esi
    2320:	c7 04 24 58 00 00 00 	movl   $0x58,(%esp)
    2327:	e8 14 0f 01 00       	call   13240 <malloc>
    232c:	89 c6                	mov    %eax,%esi
    232e:	85 c0                	test   %eax,%eax
    2330:	74 1e                	je     2350 <block_get+0x1c0>
    2332:	8b 43 10             	mov    0x10(%ebx),%eax
    2335:	89 04 24             	mov    %eax,(%esp)
    2338:	e8 03 0f 01 00       	call   13240 <malloc>
    233d:	89 46 54             	mov    %eax,0x54(%esi)
    2340:	85 c0                	test   %eax,%eax
    2342:	0f 85 c4 02 00 00    	jne    260c <block_get+0x47c>
    2348:	89 34 24             	mov    %esi,(%esp)
    234b:	e8 00 10 01 00       	call   13350 <free>
    2350:	8b 53 40             	mov    0x40(%ebx),%edx
    2353:	3b 55 d8             	cmp    -0x28(%ebp),%edx
    2356:	0f 85 0c ff ff ff    	jne    2268 <block_get+0xd8>
    235c:	89 1c 24             	mov    %ebx,(%esp)
    235f:	31 ff                	xor    %edi,%edi
    2361:	e8 7a 81 00 00       	call   a4e0 <fibril_mutex_unlock>
    2366:	b9 fe ff ff ff       	mov    $0xfffffffe,%ecx
    236b:	8b 45 08             	mov    0x8(%ebp),%eax
    236e:	89 38                	mov    %edi,(%eax)
    2370:	83 c4 5c             	add    $0x5c,%esp
    2373:	89 c8                	mov    %ecx,%eax
    2375:	5b                   	pop    %ebx
    2376:	5e                   	pop    %esi
    2377:	5f                   	pop    %edi
    2378:	5d                   	pop    %ebp
    2379:	c3                   	ret    
    237a:	8d b6 00 00 00 00    	lea    0x0(%esi),%esi
    2380:	8b 4d cc             	mov    -0x34(%ebp),%ecx
    2383:	8b 51 08             	mov    0x8(%ecx),%edx
    2386:	8b 4d d4             	mov    -0x2c(%ebp),%ecx
    2389:	89 54 24 14          	mov    %edx,0x14(%esp)
    238d:	8b 55 d0             	mov    -0x30(%ebp),%edx
    2390:	89 54 24 0c          	mov    %edx,0xc(%esp)
    2394:	89 4c 24 10          	mov    %ecx,0x10(%esp)
    2398:	89 7c 24 08          	mov    %edi,0x8(%esp)
    239c:	89 44 24 04          	mov    %eax,0x4(%esp)
    23a0:	c7 04 24 2c 01 02 00 	movl   $0x2012c,(%esp)
    23a7:	e8 44 c0 00 00       	call   e3f0 <printf>
    23ac:	e8 cf b5 01 00       	call   1d980 <stacktrace_print>
    23b1:	89 34 24             	mov    %esi,(%esp)
    23b4:	e8 27 81 00 00       	call   a4e0 <fibril_mutex_unlock>
    23b9:	e9 72 fe ff ff       	jmp    2230 <block_get+0xa0>
    23be:	66 90                	xchg   %ax,%ax
    23c0:	8d 4d e0             	lea    -0x20(%ebp),%ecx
    23c3:	89 f7                	mov    %esi,%edi
    23c5:	89 4c 24 04          	mov    %ecx,0x4(%esp)
    23c9:	8b 4d c8             	mov    -0x38(%ebp),%ecx
    23cc:	89 0c 24             	mov    %ecx,(%esp)
    23cf:	8b 75 cc             	mov    -0x34(%ebp),%esi
    23d2:	e8 19 71 01 00       	call   194f0 <hash_table_find>
    23d7:	85 c0                	test   %eax,%eax
    23d9:	0f 84 b6 00 00 00    	je     2495 <block_get+0x305>
    23df:	89 3c 24             	mov    %edi,(%esp)
    23e2:	89 45 c0             	mov    %eax,-0x40(%ebp)
    23e5:	e8 f6 80 00 00       	call   a4e0 <fibril_mutex_unlock>
    23ea:	8b 45 c0             	mov    -0x40(%ebp),%eax
    23ed:	8d 78 b4             	lea    -0x4c(%eax),%edi
    23f0:	89 3c 24             	mov    %edi,(%esp)
    23f3:	e8 c8 7f 00 00       	call   a3c0 <fibril_mutex_lock>
    23f8:	8b 47 10             	mov    0x10(%edi),%eax
    23fb:	8d 50 01             	lea    0x1(%eax),%edx
    23fe:	85 c0                	test   %eax,%eax
    2400:	89 57 10             	mov    %edx,0x10(%edi)
    2403:	75 24                	jne    2429 <block_get+0x299>
    2405:	8b 57 44             	mov    0x44(%edi),%edx
    2408:	85 d2                	test   %edx,%edx
    240a:	74 0f                	je     241b <block_get+0x28b>
    240c:	8b 47 48             	mov    0x48(%edi),%eax
    240f:	85 c0                	test   %eax,%eax
    2411:	74 08                	je     241b <block_get+0x28b>
    2413:	89 10                	mov    %edx,(%eax)
    2415:	8b 57 44             	mov    0x44(%edi),%edx
    2418:	89 42 04             	mov    %eax,0x4(%edx)
    241b:	c7 47 44 00 00 00 00 	movl   $0x0,0x44(%edi)
    2422:	c7 47 48 00 00 00 00 	movl   $0x0,0x48(%edi)
    2429:	80 7f 15 01          	cmpb   $0x1,0x15(%edi)
    242d:	19 c0                	sbb    %eax,%eax
    242f:	40                   	inc    %eax
    2430:	80 7f 15 01          	cmpb   $0x1,0x15(%edi)
    2434:	19 c9                	sbb    %ecx,%ecx
    2436:	89 3c 24             	mov    %edi,(%esp)
    2439:	83 f1 ff             	xor    $0xffffffff,%ecx
    243c:	88 45 c0             	mov    %al,-0x40(%ebp)
    243f:	81 e1 f7 fe ff ff    	and    $0xfffffef7,%ecx
    2445:	89 4d c4             	mov    %ecx,-0x3c(%ebp)
    2448:	e8 93 80 00 00       	call   a4e0 <fibril_mutex_unlock>
    244d:	89 1c 24             	mov    %ebx,(%esp)
    2450:	e8 8b 80 00 00       	call   a4e0 <fibril_mutex_unlock>
    2455:	8a 45 c0             	mov    -0x40(%ebp),%al
    2458:	8b 4d c4             	mov    -0x3c(%ebp),%ecx
    245b:	84 c0                	test   %al,%al
    245d:	0f 84 08 ff ff ff    	je     236b <block_get+0x1db>
    2463:	80 7f 15 00          	cmpb   $0x0,0x15(%edi)
    2467:	0f 84 b0 01 00 00    	je     261d <block_get+0x48d>
    246d:	89 3c 24             	mov    %edi,(%esp)
    2470:	89 4d c4             	mov    %ecx,-0x3c(%ebp)
    2473:	e8 68 fa ff ff       	call   1ee0 <block_put>
    2478:	8b 45 08             	mov    0x8(%ebp),%eax
    247b:	31 ff                	xor    %edi,%edi
    247d:	8b 4d c4             	mov    -0x3c(%ebp),%ecx
    2480:	89 38                	mov    %edi,(%eax)
    2482:	83 c4 5c             	add    $0x5c,%esp
    2485:	89 c8                	mov    %ecx,%eax
    2487:	5b                   	pop    %ebx
    2488:	5e                   	pop    %esi
    2489:	5f                   	pop    %edi
    248a:	5d                   	pop    %ebp
    248b:	c3                   	ret    
    248c:	8d 74 26 00          	lea    0x0(%esi,%eiz,1),%esi
    2490:	89 f7                	mov    %esi,%edi
    2492:	8b 75 cc             	mov    -0x34(%ebp),%esi
    2495:	89 3c 24             	mov    %edi,(%esp)
    2498:	e8 43 80 00 00       	call   a4e0 <fibril_mutex_unlock>
    249d:	8b 57 44             	mov    0x44(%edi),%edx
    24a0:	85 d2                	test   %edx,%edx
    24a2:	74 0f                	je     24b3 <block_get+0x323>
    24a4:	8b 47 48             	mov    0x48(%edi),%eax
    24a7:	85 c0                	test   %eax,%eax
    24a9:	74 08                	je     24b3 <block_get+0x323>
    24ab:	89 10                	mov    %edx,(%eax)
    24ad:	8b 57 44             	mov    0x44(%edi),%edx
    24b0:	89 42 04             	mov    %eax,0x4(%edx)
    24b3:	8d 47 4c             	lea    0x4c(%edi),%eax
    24b6:	8b 4d c8             	mov    -0x38(%ebp),%ecx
    24b9:	c7 47 44 00 00 00 00 	movl   $0x0,0x44(%edi)
    24c0:	c7 47 48 00 00 00 00 	movl   $0x0,0x48(%edi)
    24c7:	89 44 24 04          	mov    %eax,0x4(%esp)
    24cb:	89 0c 24             	mov    %ecx,(%esp)
    24ce:	e8 9d 72 01 00       	call   19770 <hash_table_remove_item>
    24d3:	89 3c 24             	mov    %edi,(%esp)
    24d6:	e8 c5 7e 00 00       	call   a3a0 <fibril_mutex_initialize>
    24db:	8d 47 18             	lea    0x18(%edi),%eax
    24de:	c7 47 10 01 00 00 00 	movl   $0x1,0x10(%edi)
    24e5:	c6 47 14 00          	movb   $0x0,0x14(%edi)
    24e9:	c6 47 15 00          	movb   $0x0,0x15(%edi)
    24ed:	89 04 24             	mov    %eax,(%esp)
    24f0:	e8 3b 81 00 00       	call   a630 <fibril_rwlock_initialize>
    24f5:	8b 4d e0             	mov    -0x20(%ebp),%ecx
    24f8:	8b 43 10             	mov    0x10(%ebx),%eax
    24fb:	89 4d d8             	mov    %ecx,-0x28(%ebp)
    24fe:	c7 47 44 00 00 00 00 	movl   $0x0,0x44(%edi)
    2505:	c7 47 48 00 00 00 00 	movl   $0x0,0x48(%edi)
    250c:	89 47 40             	mov    %eax,0x40(%edi)
    250f:	8b 45 d8             	mov    -0x28(%ebp),%eax
    2512:	8b 55 0c             	mov    0xc(%ebp),%edx
    2515:	8b 4d e4             	mov    -0x1c(%ebp),%ecx
    2518:	89 47 30             	mov    %eax,0x30(%edi)
    251b:	8b 46 24             	mov    0x24(%esi),%eax
    251e:	89 57 2c             	mov    %edx,0x2c(%edi)
    2521:	89 4f 34             	mov    %ecx,0x34(%edi)
    2524:	85 c0                	test   %eax,%eax
    2526:	0f 84 0d 01 00 00    	je     2639 <block_get+0x4a9>
    252c:	8b 40 14             	mov    0x14(%eax),%eax
    252f:	0f af c8             	imul   %eax,%ecx
    2532:	f7 65 d8             	mull   -0x28(%ebp)
    2535:	01 ca                	add    %ecx,%edx
    2537:	89 47 38             	mov    %eax,0x38(%edi)
    253a:	8b 4d c8             	mov    -0x38(%ebp),%ecx
    253d:	8d 47 4c             	lea    0x4c(%edi),%eax
    2540:	89 57 3c             	mov    %edx,0x3c(%edi)
    2543:	89 44 24 04          	mov    %eax,0x4(%esp)
    2547:	89 0c 24             	mov    %ecx,(%esp)
    254a:	e8 71 6d 01 00       	call   192c0 <hash_table_insert>
    254f:	89 3c 24             	mov    %edi,(%esp)
    2552:	e8 69 7e 00 00       	call   a3c0 <fibril_mutex_lock>
    2557:	89 1c 24             	mov    %ebx,(%esp)
    255a:	e8 81 7f 00 00       	call   a4e0 <fibril_mutex_unlock>
    255f:	f6 45 18 01          	testb  $0x1,0x18(%ebp)
    2563:	74 1d                	je     2582 <block_get+0x3f2>
    2565:	31 c0                	xor    %eax,%eax
    2567:	31 c9                	xor    %ecx,%ecx
    2569:	89 3c 24             	mov    %edi,(%esp)
    256c:	88 45 c0             	mov    %al,-0x40(%ebp)
    256f:	89 4d c4             	mov    %ecx,-0x3c(%ebp)
    2572:	e8 69 7f 00 00       	call   a4e0 <fibril_mutex_unlock>
    2577:	8b 4d c4             	mov    -0x3c(%ebp),%ecx
    257a:	8a 45 c0             	mov    -0x40(%ebp),%al
    257d:	e9 d9 fe ff ff       	jmp    245b <block_get+0x2cb>
    2582:	8b 53 14             	mov    0x14(%ebx),%edx
    2585:	8b 4f 3c             	mov    0x3c(%edi),%ecx
    2588:	8b 43 10             	mov    0x10(%ebx),%eax
    258b:	89 55 d0             	mov    %edx,-0x30(%ebp)
    258e:	8b 57 38             	mov    0x38(%edi),%edx
    2591:	89 4d dc             	mov    %ecx,-0x24(%ebp)
    2594:	89 44 24 14          	mov    %eax,0x14(%esp)
    2598:	8b 4d d0             	mov    -0x30(%ebp),%ecx
    259b:	89 55 d8             	mov    %edx,-0x28(%ebp)
    259e:	8b 47 54             	mov    0x54(%edi),%eax
    25a1:	8b 55 d8             	mov    -0x28(%ebp),%edx
    25a4:	89 4c 24 0c          	mov    %ecx,0xc(%esp)
    25a8:	8b 4d dc             	mov    -0x24(%ebp),%ecx
    25ab:	89 44 24 10          	mov    %eax,0x10(%esp)
    25af:	89 4c 24 08          	mov    %ecx,0x8(%esp)
    25b3:	89 54 24 04          	mov    %edx,0x4(%esp)
    25b7:	8b 46 10             	mov    0x10(%esi),%eax
    25ba:	89 04 24             	mov    %eax,(%esp)
    25bd:	e8 be 0b 00 00       	call   3180 <bd_read_blocks>
    25c2:	89 c1                	mov    %eax,%ecx
    25c4:	31 c0                	xor    %eax,%eax
    25c6:	85 c9                	test   %ecx,%ecx
    25c8:	74 9f                	je     2569 <block_get+0x3d9>
    25ca:	8b 46 08             	mov    0x8(%esi),%eax
    25cd:	8b 55 dc             	mov    -0x24(%ebp),%edx
    25d0:	89 44 24 14          	mov    %eax,0x14(%esp)
    25d4:	89 54 24 10          	mov    %edx,0x10(%esp)
    25d8:	8b 45 d8             	mov    -0x28(%ebp),%eax
    25db:	8b 55 d0             	mov    -0x30(%ebp),%edx
    25de:	89 4c 24 04          	mov    %ecx,0x4(%esp)
    25e2:	89 54 24 08          	mov    %edx,0x8(%esp)
    25e6:	89 44 24 0c          	mov    %eax,0xc(%esp)
    25ea:	c7 04 24 e0 00 02 00 	movl   $0x200e0,(%esp)
    25f1:	89 4d c4             	mov    %ecx,-0x3c(%ebp)
    25f4:	e8 f7 bd 00 00       	call   e3f0 <printf>
    25f9:	e8 82 b3 01 00       	call   1d980 <stacktrace_print>
    25fe:	c6 47 15 01          	movb   $0x1,0x15(%edi)
    2602:	b0 01                	mov    $0x1,%al
    2604:	8b 4d c4             	mov    -0x3c(%ebp),%ecx
    2607:	e9 5d ff ff ff       	jmp    2569 <block_get+0x3d9>
    260c:	8b 43 1c             	mov    0x1c(%ebx),%eax
    260f:	89 f7                	mov    %esi,%edi
    2611:	40                   	inc    %eax
    2612:	8b 75 cc             	mov    -0x34(%ebp),%esi
    2615:	89 43 1c             	mov    %eax,0x1c(%ebx)
    2618:	e9 b6 fe ff ff       	jmp    24d3 <block_get+0x343>
    261d:	c7 44 24 08 15 02 00 	movl   $0x215,0x8(%esp)
    2624:	00 
    2625:	c7 44 24 04 8e 00 02 	movl   $0x2008e,0x4(%esp)
    262c:	00 
    262d:	c7 04 24 d4 00 02 00 	movl   $0x200d4,(%esp)
    2634:	e8 e7 b3 01 00       	call   1da20 <assert_abort>
    2639:	c7 44 24 08 96 03 00 	movl   $0x396,0x8(%esp)
    2640:	00 
    2641:	c7 44 24 04 8e 00 02 	movl   $0x2008e,0x4(%esp)
    2648:	00 
    2649:	c7 04 24 be 00 02 00 	movl   $0x200be,(%esp)
    2650:	e8 cb b3 01 00       	call   1da20 <assert_abort>
    2655:	c7 44 24 08 81 01 00 	movl   $0x181,0x8(%esp)
    265c:	00 
    265d:	c7 44 24 04 8e 00 02 	movl   $0x2008e,0x4(%esp)
    2664:	00 
    2665:	c7 04 24 9d 00 02 00 	movl   $0x2009d,(%esp)
    266c:	e8 af b3 01 00       	call   1da20 <assert_abort>
    2671:	eb 0d                	jmp    2680 <block_seqread>
    2673:	90                   	nop
    2674:	90                   	nop
    2675:	90                   	nop
    2676:	90                   	nop
    2677:	90                   	nop
    2678:	90                   	nop
    2679:	90                   	nop
    267a:	90                   	nop
    267b:	90                   	nop
    267c:	90                   	nop
    267d:	90                   	nop
    267e:	90                   	nop
    267f:	90                   	nop

00002680 <block_seqread>:
    2680:	55                   	push   %ebp
    2681:	89 e5                	mov    %esp,%ebp
    2683:	57                   	push   %edi
    2684:	56                   	push   %esi
    2685:	53                   	push   %ebx
    2686:	83 ec 3c             	sub    $0x3c,%esp
    2689:	8b 5d 08             	mov    0x8(%ebp),%ebx
    268c:	c7 04 24 dc 2a 02 00 	movl   $0x22adc,(%esp)
    2693:	e8 28 7d 00 00       	call   a3c0 <fibril_mutex_lock>
    2698:	8b 0d f0 2a 02 00    	mov    0x22af0,%ecx
    269e:	81 f9 ec 2a 02 00    	cmp    $0x22aec,%ecx
    26a4:	75 19                	jne    26bf <block_seqread+0x3f>
    26a6:	e9 45 01 00 00       	jmp    27f0 <block_seqread+0x170>
    26ab:	90                   	nop
    26ac:	8d 74 26 00          	lea    0x0(%esi,%eiz,1),%esi
    26b0:	8b 49 04             	mov    0x4(%ecx),%ecx
    26b3:	81 f9 ec 2a 02 00    	cmp    $0x22aec,%ecx
    26b9:	0f 84 31 01 00 00    	je     27f0 <block_seqread+0x170>
    26bf:	3b 59 08             	cmp    0x8(%ecx),%ebx
    26c2:	75 ec                	jne    26b0 <block_seqread+0x30>
    26c4:	c7 04 24 dc 2a 02 00 	movl   $0x22adc,(%esp)
    26cb:	89 4d d8             	mov    %ecx,-0x28(%ebp)
    26ce:	e8 0d 7e 00 00       	call   a4e0 <fibril_mutex_unlock>
    26d3:	8b 4d d8             	mov    -0x28(%ebp),%ecx
    26d6:	8b 5d 20             	mov    0x20(%ebp),%ebx
    26d9:	8b 71 20             	mov    0x20(%ecx),%esi
    26dc:	89 75 dc             	mov    %esi,-0x24(%ebp)
    26df:	85 db                	test   %ebx,%ebx
    26e1:	0f 84 f9 00 00 00    	je     27e0 <block_seqread+0x160>
    26e7:	8b 7d 14             	mov    0x14(%ebp),%edi
    26ea:	89 4d e0             	mov    %ecx,-0x20(%ebp)
    26ed:	8b 5d 20             	mov    0x20(%ebp),%ebx
    26f0:	c7 45 e4 00 00 00 00 	movl   $0x0,-0x1c(%ebp)
    26f7:	8b 07                	mov    (%edi),%eax
    26f9:	8b 4d 10             	mov    0x10(%ebp),%ecx
    26fc:	eb 18                	jmp    2716 <block_seqread+0x96>
    26fe:	66 90                	xchg   %ax,%ax
    2700:	89 c7                	mov    %eax,%edi
    2702:	29 f7                	sub    %esi,%edi
    2704:	0f 85 4f 01 00 00    	jne    2859 <block_seqread+0x1d9>
    270a:	39 c6                	cmp    %eax,%esi
    270c:	74 5b                	je     2769 <block_seqread+0xe9>
    270e:	85 db                	test   %ebx,%ebx
    2710:	0f 84 ca 00 00 00    	je     27e0 <block_seqread+0x160>
    2716:	8b 31                	mov    (%ecx),%esi
    2718:	8d 14 33             	lea    (%ebx,%esi,1),%edx
    271b:	39 c2                	cmp    %eax,%edx
    271d:	73 e1                	jae    2700 <block_seqread+0x80>
    271f:	89 df                	mov    %ebx,%edi
    2721:	31 db                	xor    %ebx,%ebx
    2723:	8b 45 0c             	mov    0xc(%ebp),%eax
    2726:	8b 55 e4             	mov    -0x1c(%ebp),%edx
    2729:	01 c6                	add    %eax,%esi
    272b:	8b 45 1c             	mov    0x1c(%ebp),%eax
    272e:	01 d0                	add    %edx,%eax
    2730:	89 7c 24 08          	mov    %edi,0x8(%esp)
    2734:	89 74 24 04          	mov    %esi,0x4(%esp)
    2738:	89 04 24             	mov    %eax,(%esp)
    273b:	89 4d d8             	mov    %ecx,-0x28(%ebp)
    273e:	e8 4d 3c 00 00       	call   6390 <memcpy>
    2743:	8b 4d e4             	mov    -0x1c(%ebp),%ecx
    2746:	89 f8                	mov    %edi,%eax
    2748:	01 f9                	add    %edi,%ecx
    274a:	31 d2                	xor    %edx,%edx
    274c:	89 4d e4             	mov    %ecx,-0x1c(%ebp)
    274f:	8b 4d d8             	mov    -0x28(%ebp),%ecx
    2752:	8b 31                	mov    (%ecx),%esi
    2754:	01 fe                	add    %edi,%esi
    2756:	8b 7d 18             	mov    0x18(%ebp),%edi
    2759:	89 31                	mov    %esi,(%ecx)
    275b:	01 07                	add    %eax,(%edi)
    275d:	11 57 04             	adc    %edx,0x4(%edi)
    2760:	8b 7d 14             	mov    0x14(%ebp),%edi
    2763:	8b 07                	mov    (%edi),%eax
    2765:	39 c6                	cmp    %eax,%esi
    2767:	75 a5                	jne    270e <block_seqread+0x8e>
    2769:	8b 7d 18             	mov    0x18(%ebp),%edi
    276c:	8b 75 dc             	mov    -0x24(%ebp),%esi
    276f:	89 74 24 08          	mov    %esi,0x8(%esp)
    2773:	c7 44 24 0c 00 00 00 	movl   $0x0,0xc(%esp)
    277a:	00 
    277b:	8b 07                	mov    (%edi),%eax
    277d:	8b 57 04             	mov    0x4(%edi),%edx
    2780:	89 54 24 04          	mov    %edx,0x4(%esp)
    2784:	89 04 24             	mov    %eax,(%esp)
    2787:	89 4d d8             	mov    %ecx,-0x28(%ebp)
    278a:	e8 c1 cf 01 00       	call   1f750 <__udivdi3>
    278f:	89 d7                	mov    %edx,%edi
    2791:	8b 55 e0             	mov    -0x20(%ebp),%edx
    2794:	89 c6                	mov    %eax,%esi
    2796:	8b 42 20             	mov    0x20(%edx),%eax
    2799:	c7 44 24 0c 01 00 00 	movl   $0x1,0xc(%esp)
    27a0:	00 
    27a1:	89 44 24 14          	mov    %eax,0x14(%esp)
    27a5:	8b 45 0c             	mov    0xc(%ebp),%eax
    27a8:	89 44 24 10          	mov    %eax,0x10(%esp)
    27ac:	89 74 24 04          	mov    %esi,0x4(%esp)
    27b0:	89 7c 24 08          	mov    %edi,0x8(%esp)
    27b4:	8b 42 10             	mov    0x10(%edx),%eax
    27b7:	89 04 24             	mov    %eax,(%esp)
    27ba:	e8 c1 09 00 00       	call   3180 <bd_read_blocks>
    27bf:	8b 4d d8             	mov    -0x28(%ebp),%ecx
    27c2:	85 c0                	test   %eax,%eax
    27c4:	75 52                	jne    2818 <block_seqread+0x198>
    27c6:	8b 75 14             	mov    0x14(%ebp),%esi
    27c9:	8b 7d dc             	mov    -0x24(%ebp),%edi
    27cc:	c7 01 00 00 00 00    	movl   $0x0,(%ecx)
    27d2:	89 f8                	mov    %edi,%eax
    27d4:	89 3e                	mov    %edi,(%esi)
    27d6:	85 db                	test   %ebx,%ebx
    27d8:	0f 85 38 ff ff ff    	jne    2716 <block_seqread+0x96>
    27de:	66 90                	xchg   %ax,%ax
    27e0:	83 c4 3c             	add    $0x3c,%esp
    27e3:	31 d2                	xor    %edx,%edx
    27e5:	89 d0                	mov    %edx,%eax
    27e7:	5b                   	pop    %ebx
    27e8:	5e                   	pop    %esi
    27e9:	5f                   	pop    %edi
    27ea:	5d                   	pop    %ebp
    27eb:	c3                   	ret    
    27ec:	8d 74 26 00          	lea    0x0(%esi,%eiz,1),%esi
    27f0:	c7 04 24 dc 2a 02 00 	movl   $0x22adc,(%esp)
    27f7:	e8 e4 7c 00 00       	call   a4e0 <fibril_mutex_unlock>
    27fc:	c7 44 24 08 9c 02 00 	movl   $0x29c,0x8(%esp)
    2803:	00 
    2804:	c7 44 24 04 8e 00 02 	movl   $0x2008e,0x4(%esp)
    280b:	00 
    280c:	c7 04 24 96 00 02 00 	movl   $0x20096,(%esp)
    2813:	e8 08 b2 01 00       	call   1da20 <assert_abort>
    2818:	8b 4d e0             	mov    -0x20(%ebp),%ecx
    281b:	89 c2                	mov    %eax,%edx
    281d:	8b 41 08             	mov    0x8(%ecx),%eax
    2820:	89 54 24 04          	mov    %edx,0x4(%esp)
    2824:	89 74 24 0c          	mov    %esi,0xc(%esp)
    2828:	89 7c 24 10          	mov    %edi,0x10(%esp)
    282c:	89 44 24 14          	mov    %eax,0x14(%esp)
    2830:	c7 44 24 08 01 00 00 	movl   $0x1,0x8(%esp)
    2837:	00 
    2838:	c7 04 24 e0 00 02 00 	movl   $0x200e0,(%esp)
    283f:	89 55 d8             	mov    %edx,-0x28(%ebp)
    2842:	e8 a9 bb 00 00       	call   e3f0 <printf>
    2847:	e8 34 b1 01 00       	call   1d980 <stacktrace_print>
    284c:	8b 55 d8             	mov    -0x28(%ebp),%edx
    284f:	83 c4 3c             	add    $0x3c,%esp
    2852:	89 d0                	mov    %edx,%eax
    2854:	5b                   	pop    %ebx
    2855:	5e                   	pop    %esi
    2856:	5f                   	pop    %edi
    2857:	5d                   	pop    %ebp
    2858:	c3                   	ret    
    2859:	29 fb                	sub    %edi,%ebx
    285b:	e9 c3 fe ff ff       	jmp    2723 <block_seqread+0xa3>

00002860 <block_read_direct>:
    2860:	55                   	push   %ebp
    2861:	89 e5                	mov    %esp,%ebp
    2863:	57                   	push   %edi
    2864:	56                   	push   %esi
    2865:	53                   	push   %ebx
    2866:	83 ec 3c             	sub    $0x3c,%esp
    2869:	8b 45 08             	mov    0x8(%ebp),%eax
    286c:	8b 75 0c             	mov    0xc(%ebp),%esi
    286f:	c7 04 24 dc 2a 02 00 	movl   $0x22adc,(%esp)
    2876:	89 45 e4             	mov    %eax,-0x1c(%ebp)
    2879:	8b 7d 10             	mov    0x10(%ebp),%edi
    287c:	e8 3f 7b 00 00       	call   a3c0 <fibril_mutex_lock>
    2881:	8b 1d f0 2a 02 00    	mov    0x22af0,%ebx
    2887:	8b 45 e4             	mov    -0x1c(%ebp),%eax
    288a:	81 fb ec 2a 02 00    	cmp    $0x22aec,%ebx
    2890:	75 15                	jne    28a7 <block_read_direct+0x47>
    2892:	e9 91 00 00 00       	jmp    2928 <block_read_direct+0xc8>
    2897:	90                   	nop
    2898:	8b 5b 04             	mov    0x4(%ebx),%ebx
    289b:	81 fb ec 2a 02 00    	cmp    $0x22aec,%ebx
    28a1:	0f 84 81 00 00 00    	je     2928 <block_read_direct+0xc8>
    28a7:	3b 43 08             	cmp    0x8(%ebx),%eax
    28aa:	75 ec                	jne    2898 <block_read_direct+0x38>
    28ac:	c7 04 24 dc 2a 02 00 	movl   $0x22adc,(%esp)
    28b3:	e8 28 7c 00 00       	call   a4e0 <fibril_mutex_unlock>
    28b8:	8b 53 20             	mov    0x20(%ebx),%edx
    28bb:	8b 45 14             	mov    0x14(%ebp),%eax
    28be:	89 74 24 04          	mov    %esi,0x4(%esp)
    28c2:	0f af c2             	imul   %edx,%eax
    28c5:	8b 55 14             	mov    0x14(%ebp),%edx
    28c8:	89 44 24 14          	mov    %eax,0x14(%esp)
    28cc:	8b 45 18             	mov    0x18(%ebp),%eax
    28cf:	89 54 24 0c          	mov    %edx,0xc(%esp)
    28d3:	89 44 24 10          	mov    %eax,0x10(%esp)
    28d7:	89 7c 24 08          	mov    %edi,0x8(%esp)
    28db:	8b 43 10             	mov    0x10(%ebx),%eax
    28de:	89 04 24             	mov    %eax,(%esp)
    28e1:	e8 9a 08 00 00       	call   3180 <bd_read_blocks>
    28e6:	89 c2                	mov    %eax,%edx
    28e8:	85 c0                	test   %eax,%eax
    28ea:	74 31                	je     291d <block_read_direct+0xbd>
    28ec:	8b 43 08             	mov    0x8(%ebx),%eax
    28ef:	89 54 24 04          	mov    %edx,0x4(%esp)
    28f3:	89 44 24 14          	mov    %eax,0x14(%esp)
    28f7:	8b 45 14             	mov    0x14(%ebp),%eax
    28fa:	89 74 24 0c          	mov    %esi,0xc(%esp)
    28fe:	89 7c 24 10          	mov    %edi,0x10(%esp)
    2902:	89 44 24 08          	mov    %eax,0x8(%esp)
    2906:	c7 04 24 e0 00 02 00 	movl   $0x200e0,(%esp)
    290d:	89 55 e4             	mov    %edx,-0x1c(%ebp)
    2910:	e8 db ba 00 00       	call   e3f0 <printf>
    2915:	e8 66 b0 01 00       	call   1d980 <stacktrace_print>
    291a:	8b 55 e4             	mov    -0x1c(%ebp),%edx
    291d:	83 c4 3c             	add    $0x3c,%esp
    2920:	89 d0                	mov    %edx,%eax
    2922:	5b                   	pop    %ebx
    2923:	5e                   	pop    %esi
    2924:	5f                   	pop    %edi
    2925:	5d                   	pop    %ebp
    2926:	c3                   	ret    
    2927:	90                   	nop
    2928:	c7 04 24 dc 2a 02 00 	movl   $0x22adc,(%esp)
    292f:	e8 ac 7b 00 00       	call   a4e0 <fibril_mutex_unlock>
    2934:	c7 44 24 08 d3 02 00 	movl   $0x2d3,0x8(%esp)
    293b:	00 
    293c:	c7 44 24 04 8e 00 02 	movl   $0x2008e,0x4(%esp)
    2943:	00 
    2944:	c7 04 24 96 00 02 00 	movl   $0x20096,(%esp)
    294b:	e8 d0 b0 01 00       	call   1da20 <assert_abort>

00002950 <block_write_direct>:
    2950:	55                   	push   %ebp
    2951:	89 e5                	mov    %esp,%ebp
    2953:	57                   	push   %edi
    2954:	56                   	push   %esi
    2955:	53                   	push   %ebx
    2956:	83 ec 3c             	sub    $0x3c,%esp
    2959:	8b 45 08             	mov    0x8(%ebp),%eax
    295c:	8b 75 0c             	mov    0xc(%ebp),%esi
    295f:	c7 04 24 dc 2a 02 00 	movl   $0x22adc,(%esp)
    2966:	89 45 e4             	mov    %eax,-0x1c(%ebp)
    2969:	8b 7d 10             	mov    0x10(%ebp),%edi
    296c:	e8 4f 7a 00 00       	call   a3c0 <fibril_mutex_lock>
    2971:	8b 1d f0 2a 02 00    	mov    0x22af0,%ebx
    2977:	8b 45 e4             	mov    -0x1c(%ebp),%eax
    297a:	81 fb ec 2a 02 00    	cmp    $0x22aec,%ebx
    2980:	75 15                	jne    2997 <block_write_direct+0x47>
    2982:	e9 91 00 00 00       	jmp    2a18 <block_write_direct+0xc8>
    2987:	90                   	nop
    2988:	8b 5b 04             	mov    0x4(%ebx),%ebx
    298b:	81 fb ec 2a 02 00    	cmp    $0x22aec,%ebx
    2991:	0f 84 81 00 00 00    	je     2a18 <block_write_direct+0xc8>
    2997:	3b 43 08             	cmp    0x8(%ebx),%eax
    299a:	75 ec                	jne    2988 <block_write_direct+0x38>
    299c:	c7 04 24 dc 2a 02 00 	movl   $0x22adc,(%esp)
    29a3:	e8 38 7b 00 00       	call   a4e0 <fibril_mutex_unlock>
    29a8:	8b 4b 20             	mov    0x20(%ebx),%ecx
    29ab:	8b 45 14             	mov    0x14(%ebp),%eax
    29ae:	8b 55 14             	mov    0x14(%ebp),%edx
    29b1:	0f af c1             	imul   %ecx,%eax
    29b4:	89 44 24 14          	mov    %eax,0x14(%esp)
    29b8:	8b 45 18             	mov    0x18(%ebp),%eax
    29bb:	89 54 24 0c          	mov    %edx,0xc(%esp)
    29bf:	89 44 24 10          	mov    %eax,0x10(%esp)
    29c3:	89 74 24 04          	mov    %esi,0x4(%esp)
    29c7:	89 7c 24 08          	mov    %edi,0x8(%esp)
    29cb:	8b 43 10             	mov    0x10(%ebx),%eax
    29ce:	89 04 24             	mov    %eax,(%esp)
    29d1:	e8 1a 09 00 00       	call   32f0 <bd_write_blocks>
    29d6:	89 c2                	mov    %eax,%edx
    29d8:	85 c0                	test   %eax,%eax
    29da:	74 31                	je     2a0d <block_write_direct+0xbd>
    29dc:	8b 43 08             	mov    0x8(%ebx),%eax
    29df:	89 54 24 04          	mov    %edx,0x4(%esp)
    29e3:	89 44 24 14          	mov    %eax,0x14(%esp)
    29e7:	8b 45 14             	mov    0x14(%ebp),%eax
    29ea:	89 74 24 0c          	mov    %esi,0xc(%esp)
    29ee:	89 7c 24 10          	mov    %edi,0x10(%esp)
    29f2:	89 44 24 08          	mov    %eax,0x8(%esp)
    29f6:	c7 04 24 2c 01 02 00 	movl   $0x2012c,(%esp)
    29fd:	89 55 e4             	mov    %edx,-0x1c(%ebp)
    2a00:	e8 eb b9 00 00       	call   e3f0 <printf>
    2a05:	e8 76 af 01 00       	call   1d980 <stacktrace_print>
    2a0a:	8b 55 e4             	mov    -0x1c(%ebp),%edx
    2a0d:	83 c4 3c             	add    $0x3c,%esp
    2a10:	89 d0                	mov    %edx,%eax
    2a12:	5b                   	pop    %ebx
    2a13:	5e                   	pop    %esi
    2a14:	5f                   	pop    %edi
    2a15:	5d                   	pop    %ebp
    2a16:	c3                   	ret    
    2a17:	90                   	nop
    2a18:	c7 04 24 dc 2a 02 00 	movl   $0x22adc,(%esp)
    2a1f:	e8 bc 7a 00 00       	call   a4e0 <fibril_mutex_unlock>
    2a24:	c7 44 24 08 e7 02 00 	movl   $0x2e7,0x8(%esp)
    2a2b:	00 
    2a2c:	c7 44 24 04 8e 00 02 	movl   $0x2008e,0x4(%esp)
    2a33:	00 
    2a34:	c7 04 24 96 00 02 00 	movl   $0x20096,(%esp)
    2a3b:	e8 e0 af 01 00       	call   1da20 <assert_abort>

00002a40 <block_get_bsize>:
    2a40:	55                   	push   %ebp
    2a41:	89 e5                	mov    %esp,%ebp
    2a43:	57                   	push   %edi
    2a44:	56                   	push   %esi
    2a45:	53                   	push   %ebx
    2a46:	83 ec 1c             	sub    $0x1c,%esp
    2a49:	8b 75 08             	mov    0x8(%ebp),%esi
    2a4c:	8b 7d 0c             	mov    0xc(%ebp),%edi
    2a4f:	c7 04 24 dc 2a 02 00 	movl   $0x22adc,(%esp)
    2a56:	e8 65 79 00 00       	call   a3c0 <fibril_mutex_lock>
    2a5b:	8b 1d f0 2a 02 00    	mov    0x22af0,%ebx
    2a61:	81 fb ec 2a 02 00    	cmp    $0x22aec,%ebx
    2a67:	75 12                	jne    2a7b <block_get_bsize+0x3b>
    2a69:	eb 3d                	jmp    2aa8 <block_get_bsize+0x68>
    2a6b:	90                   	nop
    2a6c:	8d 74 26 00          	lea    0x0(%esi,%eiz,1),%esi
    2a70:	8b 5b 04             	mov    0x4(%ebx),%ebx
    2a73:	81 fb ec 2a 02 00    	cmp    $0x22aec,%ebx
    2a79:	74 2d                	je     2aa8 <block_get_bsize+0x68>
    2a7b:	3b 73 08             	cmp    0x8(%ebx),%esi
    2a7e:	75 f0                	jne    2a70 <block_get_bsize+0x30>
    2a80:	c7 04 24 dc 2a 02 00 	movl   $0x22adc,(%esp)
    2a87:	e8 54 7a 00 00       	call   a4e0 <fibril_mutex_unlock>
    2a8c:	89 7d 0c             	mov    %edi,0xc(%ebp)
    2a8f:	8b 43 10             	mov    0x10(%ebx),%eax
    2a92:	89 45 08             	mov    %eax,0x8(%ebp)
    2a95:	83 c4 1c             	add    $0x1c,%esp
    2a98:	5b                   	pop    %ebx
    2a99:	5e                   	pop    %esi
    2a9a:	5f                   	pop    %edi
    2a9b:	5d                   	pop    %ebp
    2a9c:	e9 ff 08 00 00       	jmp    33a0 <bd_get_block_size>
    2aa1:	8d b4 26 00 00 00 00 	lea    0x0(%esi,%eiz,1),%esi
    2aa8:	c7 04 24 dc 2a 02 00 	movl   $0x22adc,(%esp)
    2aaf:	e8 2c 7a 00 00       	call   a4e0 <fibril_mutex_unlock>
    2ab4:	c7 44 24 08 f8 02 00 	movl   $0x2f8,0x8(%esp)
    2abb:	00 
    2abc:	c7 44 24 04 8e 00 02 	movl   $0x2008e,0x4(%esp)
    2ac3:	00 
    2ac4:	c7 04 24 96 00 02 00 	movl   $0x20096,(%esp)
    2acb:	e8 50 af 01 00       	call   1da20 <assert_abort>

00002ad0 <block_get_nblocks>:
    2ad0:	55                   	push   %ebp
    2ad1:	89 e5                	mov    %esp,%ebp
    2ad3:	57                   	push   %edi
    2ad4:	56                   	push   %esi
    2ad5:	53                   	push   %ebx
    2ad6:	83 ec 1c             	sub    $0x1c,%esp
    2ad9:	8b 75 08             	mov    0x8(%ebp),%esi
    2adc:	8b 7d 0c             	mov    0xc(%ebp),%edi
    2adf:	c7 04 24 dc 2a 02 00 	movl   $0x22adc,(%esp)
    2ae6:	e8 d5 78 00 00       	call   a3c0 <fibril_mutex_lock>
    2aeb:	8b 1d f0 2a 02 00    	mov    0x22af0,%ebx
    2af1:	81 fb ec 2a 02 00    	cmp    $0x22aec,%ebx
    2af7:	75 12                	jne    2b0b <block_get_nblocks+0x3b>
    2af9:	eb 3d                	jmp    2b38 <block_get_nblocks+0x68>
    2afb:	90                   	nop
    2afc:	8d 74 26 00          	lea    0x0(%esi,%eiz,1),%esi
    2b00:	8b 5b 04             	mov    0x4(%ebx),%ebx
    2b03:	81 fb ec 2a 02 00    	cmp    $0x22aec,%ebx
    2b09:	74 2d                	je     2b38 <block_get_nblocks+0x68>
    2b0b:	3b 73 08             	cmp    0x8(%ebx),%esi
    2b0e:	75 f0                	jne    2b00 <block_get_nblocks+0x30>
    2b10:	c7 04 24 dc 2a 02 00 	movl   $0x22adc,(%esp)
    2b17:	e8 c4 79 00 00       	call   a4e0 <fibril_mutex_unlock>
    2b1c:	89 7d 0c             	mov    %edi,0xc(%ebp)
    2b1f:	8b 43 10             	mov    0x10(%ebx),%eax
    2b22:	89 45 08             	mov    %eax,0x8(%ebp)
    2b25:	83 c4 1c             	add    $0x1c,%esp
    2b28:	5b                   	pop    %ebx
    2b29:	5e                   	pop    %esi
    2b2a:	5f                   	pop    %edi
    2b2b:	5d                   	pop    %ebp
    2b2c:	e9 ff 08 00 00       	jmp    3430 <bd_get_num_blocks>
    2b31:	8d b4 26 00 00 00 00 	lea    0x0(%esi,%eiz,1),%esi
    2b38:	c7 04 24 dc 2a 02 00 	movl   $0x22adc,(%esp)
    2b3f:	e8 9c 79 00 00       	call   a4e0 <fibril_mutex_unlock>
    2b44:	c7 44 24 08 07 03 00 	movl   $0x307,0x8(%esp)
    2b4b:	00 
    2b4c:	c7 44 24 04 8e 00 02 	movl   $0x2008e,0x4(%esp)
    2b53:	00 
    2b54:	c7 04 24 96 00 02 00 	movl   $0x20096,(%esp)
    2b5b:	e8 c0 ae 01 00       	call   1da20 <assert_abort>

00002b60 <block_read_bytes_direct>:
    2b60:	55                   	push   %ebp
    2b61:	89 e5                	mov    %esp,%ebp
    2b63:	57                   	push   %edi
    2b64:	56                   	push   %esi
    2b65:	53                   	push   %ebx
    2b66:	83 ec 5c             	sub    $0x5c,%esp
    2b69:	8b 45 0c             	mov    0xc(%ebp),%eax
    2b6c:	8b 55 10             	mov    0x10(%ebp),%edx
    2b6f:	c7 04 24 dc 2a 02 00 	movl   $0x22adc,(%esp)
    2b76:	8b 5d 08             	mov    0x8(%ebp),%ebx
    2b79:	89 45 c8             	mov    %eax,-0x38(%ebp)
    2b7c:	89 55 cc             	mov    %edx,-0x34(%ebp)
    2b7f:	e8 3c 78 00 00       	call   a3c0 <fibril_mutex_lock>
    2b84:	8b 35 f0 2a 02 00    	mov    0x22af0,%esi
    2b8a:	81 fe ec 2a 02 00    	cmp    $0x22aec,%esi
    2b90:	75 11                	jne    2ba3 <block_read_bytes_direct+0x43>
    2b92:	eb 44                	jmp    2bd8 <block_read_bytes_direct+0x78>
    2b94:	8d 74 26 00          	lea    0x0(%esi,%eiz,1),%esi
    2b98:	8b 76 04             	mov    0x4(%esi),%esi
    2b9b:	81 fe ec 2a 02 00    	cmp    $0x22aec,%esi
    2ba1:	74 35                	je     2bd8 <block_read_bytes_direct+0x78>
    2ba3:	3b 5e 08             	cmp    0x8(%esi),%ebx
    2ba6:	75 f0                	jne    2b98 <block_read_bytes_direct+0x38>
    2ba8:	c7 04 24 dc 2a 02 00 	movl   $0x22adc,(%esp)
    2baf:	e8 2c 79 00 00       	call   a4e0 <fibril_mutex_unlock>
    2bb4:	8d 45 e4             	lea    -0x1c(%ebp),%eax
    2bb7:	89 44 24 04          	mov    %eax,0x4(%esp)
    2bbb:	8b 46 10             	mov    0x10(%esi),%eax
    2bbe:	89 04 24             	mov    %eax,(%esp)
    2bc1:	e8 da 07 00 00       	call   33a0 <bd_get_block_size>
    2bc6:	89 c1                	mov    %eax,%ecx
    2bc8:	85 c0                	test   %eax,%eax
    2bca:	74 34                	je     2c00 <block_read_bytes_direct+0xa0>
    2bcc:	83 c4 5c             	add    $0x5c,%esp
    2bcf:	89 c8                	mov    %ecx,%eax
    2bd1:	5b                   	pop    %ebx
    2bd2:	5e                   	pop    %esi
    2bd3:	5f                   	pop    %edi
    2bd4:	5d                   	pop    %ebp
    2bd5:	c3                   	ret    
    2bd6:	66 90                	xchg   %ax,%ax
    2bd8:	c7 04 24 dc 2a 02 00 	movl   $0x22adc,(%esp)
    2bdf:	e8 fc 78 00 00       	call   a4e0 <fibril_mutex_unlock>
    2be4:	c7 44 24 08 f8 02 00 	movl   $0x2f8,0x8(%esp)
    2beb:	00 
    2bec:	c7 44 24 04 8e 00 02 	movl   $0x2008e,0x4(%esp)
    2bf3:	00 
    2bf4:	c7 04 24 96 00 02 00 	movl   $0x20096,(%esp)
    2bfb:	e8 20 ae 01 00       	call   1da20 <assert_abort>
    2c00:	8b 4d e4             	mov    -0x1c(%ebp),%ecx
    2c03:	8b 45 c8             	mov    -0x38(%ebp),%eax
    2c06:	8b 55 cc             	mov    -0x34(%ebp),%edx
    2c09:	89 4c 24 08          	mov    %ecx,0x8(%esp)
    2c0d:	c7 44 24 0c 00 00 00 	movl   $0x0,0xc(%esp)
    2c14:	00 
    2c15:	89 04 24             	mov    %eax,(%esp)
    2c18:	89 54 24 04          	mov    %edx,0x4(%esp)
    2c1c:	89 4d c4             	mov    %ecx,-0x3c(%ebp)
    2c1f:	e8 2c cb 01 00       	call   1f750 <__udivdi3>
    2c24:	be 01 00 00 00       	mov    $0x1,%esi
    2c29:	29 c6                	sub    %eax,%esi
    2c2b:	8b 4d 14             	mov    0x14(%ebp),%ecx
    2c2e:	89 c7                	mov    %eax,%edi
    2c30:	8b 45 c8             	mov    -0x38(%ebp),%eax
    2c33:	89 4d d0             	mov    %ecx,-0x30(%ebp)
    2c36:	89 55 c0             	mov    %edx,-0x40(%ebp)
    2c39:	83 c0 ff             	add    $0xffffffff,%eax
    2c3c:	8b 55 cc             	mov    -0x34(%ebp),%edx
    2c3f:	83 d2 ff             	adc    $0xffffffff,%edx
    2c42:	03 45 d0             	add    -0x30(%ebp),%eax
    2c45:	c7 45 d4 00 00 00 00 	movl   $0x0,-0x2c(%ebp)
    2c4c:	8b 4d c4             	mov    -0x3c(%ebp),%ecx
    2c4f:	13 55 d4             	adc    -0x2c(%ebp),%edx
    2c52:	89 4c 24 08          	mov    %ecx,0x8(%esp)
    2c56:	c7 44 24 0c 00 00 00 	movl   $0x0,0xc(%esp)
    2c5d:	00 
    2c5e:	89 04 24             	mov    %eax,(%esp)
    2c61:	89 54 24 04          	mov    %edx,0x4(%esp)
    2c65:	e8 e6 ca 01 00       	call   1f750 <__udivdi3>
    2c6a:	01 c6                	add    %eax,%esi
    2c6c:	8b 45 c4             	mov    -0x3c(%ebp),%eax
    2c6f:	0f af c6             	imul   %esi,%eax
    2c72:	89 04 24             	mov    %eax,(%esp)
    2c75:	e8 c6 05 01 00       	call   13240 <malloc>
    2c7a:	89 45 d0             	mov    %eax,-0x30(%ebp)
    2c7d:	85 c0                	test   %eax,%eax
    2c7f:	0f 84 59 01 00 00    	je     2dde <block_read_bytes_direct+0x27e>
    2c85:	c7 04 24 dc 2a 02 00 	movl   $0x22adc,(%esp)
    2c8c:	e8 2f 77 00 00       	call   a3c0 <fibril_mutex_lock>
    2c91:	8b 15 f0 2a 02 00    	mov    0x22af0,%edx
    2c97:	81 fa ec 2a 02 00    	cmp    $0x22aec,%edx
    2c9d:	75 18                	jne    2cb7 <block_read_bytes_direct+0x157>
    2c9f:	e9 cc 00 00 00       	jmp    2d70 <block_read_bytes_direct+0x210>
    2ca4:	8d 74 26 00          	lea    0x0(%esi,%eiz,1),%esi
    2ca8:	8b 52 04             	mov    0x4(%edx),%edx
    2cab:	81 fa ec 2a 02 00    	cmp    $0x22aec,%edx
    2cb1:	0f 84 b9 00 00 00    	je     2d70 <block_read_bytes_direct+0x210>
    2cb7:	3b 5a 08             	cmp    0x8(%edx),%ebx
    2cba:	75 ec                	jne    2ca8 <block_read_bytes_direct+0x148>
    2cbc:	c7 04 24 dc 2a 02 00 	movl   $0x22adc,(%esp)
    2cc3:	89 55 bc             	mov    %edx,-0x44(%ebp)
    2cc6:	e8 15 78 00 00       	call   a4e0 <fibril_mutex_unlock>
    2ccb:	8b 55 bc             	mov    -0x44(%ebp),%edx
    2cce:	8b 42 20             	mov    0x20(%edx),%eax
    2cd1:	8b 4d c0             	mov    -0x40(%ebp),%ecx
    2cd4:	0f af c6             	imul   %esi,%eax
    2cd7:	89 44 24 14          	mov    %eax,0x14(%esp)
    2cdb:	8b 45 d0             	mov    -0x30(%ebp),%eax
    2cde:	89 4c 24 08          	mov    %ecx,0x8(%esp)
    2ce2:	89 44 24 10          	mov    %eax,0x10(%esp)
    2ce6:	89 74 24 0c          	mov    %esi,0xc(%esp)
    2cea:	89 7c 24 04          	mov    %edi,0x4(%esp)
    2cee:	8b 42 10             	mov    0x10(%edx),%eax
    2cf1:	89 04 24             	mov    %eax,(%esp)
    2cf4:	e8 87 04 00 00       	call   3180 <bd_read_blocks>
    2cf9:	8b 55 bc             	mov    -0x44(%ebp),%edx
    2cfc:	89 c1                	mov    %eax,%ecx
    2cfe:	85 c0                	test   %eax,%eax
    2d00:	0f 85 92 00 00 00    	jne    2d98 <block_read_bytes_direct+0x238>
    2d06:	8b 55 14             	mov    0x14(%ebp),%edx
    2d09:	8b 45 c4             	mov    -0x3c(%ebp),%eax
    2d0c:	89 54 24 08          	mov    %edx,0x8(%esp)
    2d10:	8b 55 cc             	mov    -0x34(%ebp),%edx
    2d13:	8b 74 24 08          	mov    0x8(%esp),%esi
    2d17:	89 44 24 08          	mov    %eax,0x8(%esp)
    2d1b:	8b 45 c8             	mov    -0x38(%ebp),%eax
    2d1e:	8b 7c 24 0c          	mov    0xc(%esp),%edi
    2d22:	89 04 24             	mov    %eax,(%esp)
    2d25:	c7 44 24 0c 00 00 00 	movl   $0x0,0xc(%esp)
    2d2c:	00 
    2d2d:	89 54 24 04          	mov    %edx,0x4(%esp)
    2d31:	89 4d bc             	mov    %ecx,-0x44(%ebp)
    2d34:	e8 97 cc 01 00       	call   1f9d0 <__umoddi3>
    2d39:	8b 5d d0             	mov    -0x30(%ebp),%ebx
    2d3c:	01 d8                	add    %ebx,%eax
    2d3e:	89 74 24 08          	mov    %esi,0x8(%esp)
    2d42:	89 44 24 04          	mov    %eax,0x4(%esp)
    2d46:	8b 45 18             	mov    0x18(%ebp),%eax
    2d49:	89 04 24             	mov    %eax,(%esp)
    2d4c:	89 7c 24 0c          	mov    %edi,0xc(%esp)
    2d50:	e8 3b 36 00 00       	call   6390 <memcpy>
    2d55:	8b 45 d0             	mov    -0x30(%ebp),%eax
    2d58:	89 04 24             	mov    %eax,(%esp)
    2d5b:	e8 f0 05 01 00       	call   13350 <free>
    2d60:	8b 4d bc             	mov    -0x44(%ebp),%ecx
    2d63:	83 c4 5c             	add    $0x5c,%esp
    2d66:	89 c8                	mov    %ecx,%eax
    2d68:	5b                   	pop    %ebx
    2d69:	5e                   	pop    %esi
    2d6a:	5f                   	pop    %edi
    2d6b:	5d                   	pop    %ebp
    2d6c:	c3                   	ret    
    2d6d:	8d 76 00             	lea    0x0(%esi),%esi
    2d70:	c7 04 24 dc 2a 02 00 	movl   $0x22adc,(%esp)
    2d77:	e8 64 77 00 00       	call   a4e0 <fibril_mutex_unlock>
    2d7c:	c7 44 24 08 d3 02 00 	movl   $0x2d3,0x8(%esp)
    2d83:	00 
    2d84:	c7 44 24 04 8e 00 02 	movl   $0x2008e,0x4(%esp)
    2d8b:	00 
    2d8c:	c7 04 24 96 00 02 00 	movl   $0x20096,(%esp)
    2d93:	e8 88 ac 01 00       	call   1da20 <assert_abort>
    2d98:	8b 42 08             	mov    0x8(%edx),%eax
    2d9b:	89 4c 24 04          	mov    %ecx,0x4(%esp)
    2d9f:	89 44 24 14          	mov    %eax,0x14(%esp)
    2da3:	8b 45 c0             	mov    -0x40(%ebp),%eax
    2da6:	89 7c 24 0c          	mov    %edi,0xc(%esp)
    2daa:	89 74 24 08          	mov    %esi,0x8(%esp)
    2dae:	89 44 24 10          	mov    %eax,0x10(%esp)
    2db2:	c7 04 24 e0 00 02 00 	movl   $0x200e0,(%esp)
    2db9:	89 4d bc             	mov    %ecx,-0x44(%ebp)
    2dbc:	e8 2f b6 00 00       	call   e3f0 <printf>
    2dc1:	e8 ba ab 01 00       	call   1d980 <stacktrace_print>
    2dc6:	8b 45 d0             	mov    -0x30(%ebp),%eax
    2dc9:	89 04 24             	mov    %eax,(%esp)
    2dcc:	e8 7f 05 01 00       	call   13350 <free>
    2dd1:	8b 4d bc             	mov    -0x44(%ebp),%ecx
    2dd4:	83 c4 5c             	add    $0x5c,%esp
    2dd7:	89 c8                	mov    %ecx,%eax
    2dd9:	5b                   	pop    %ebx
    2dda:	5e                   	pop    %esi
    2ddb:	5f                   	pop    %edi
    2ddc:	5d                   	pop    %ebp
    2ddd:	c3                   	ret    
    2dde:	b9 fe ff ff ff       	mov    $0xfffffffe,%ecx
    2de3:	e9 e4 fd ff ff       	jmp    2bcc <block_read_bytes_direct+0x6c>
    2de8:	90                   	nop
    2de9:	8d b4 26 00 00 00 00 	lea    0x0(%esi,%eiz,1),%esi

00002df0 <block_get_toc>:
    2df0:	55                   	push   %ebp
    2df1:	89 e5                	mov    %esp,%ebp
    2df3:	57                   	push   %edi
    2df4:	56                   	push   %esi
    2df5:	53                   	push   %ebx
    2df6:	83 ec 1c             	sub    $0x1c,%esp
    2df9:	8b 75 08             	mov    0x8(%ebp),%esi
    2dfc:	c7 04 24 dc 2a 02 00 	movl   $0x22adc,(%esp)
    2e03:	0f b6 7d 0c          	movzbl 0xc(%ebp),%edi
    2e07:	e8 b4 75 00 00       	call   a3c0 <fibril_mutex_lock>
    2e0c:	8b 1d f0 2a 02 00    	mov    0x22af0,%ebx
    2e12:	81 fb ec 2a 02 00    	cmp    $0x22aec,%ebx
    2e18:	75 11                	jne    2e2b <block_get_toc+0x3b>
    2e1a:	eb 64                	jmp    2e80 <block_get_toc+0x90>
    2e1c:	8d 74 26 00          	lea    0x0(%esi,%eiz,1),%esi
    2e20:	8b 5b 04             	mov    0x4(%ebx),%ebx
    2e23:	81 fb ec 2a 02 00    	cmp    $0x22aec,%ebx
    2e29:	74 55                	je     2e80 <block_get_toc+0x90>
    2e2b:	3b 73 08             	cmp    0x8(%ebx),%esi
    2e2e:	75 f0                	jne    2e20 <block_get_toc+0x30>
    2e30:	c7 04 24 dc 2a 02 00 	movl   $0x22adc,(%esp)
    2e37:	e8 a4 76 00 00       	call   a4e0 <fibril_mutex_unlock>
    2e3c:	c7 04 24 0c 00 00 00 	movl   $0xc,(%esp)
    2e43:	e8 f8 03 01 00       	call   13240 <malloc>
    2e48:	89 c6                	mov    %eax,%esi
    2e4a:	85 c0                	test   %eax,%eax
    2e4c:	74 25                	je     2e73 <block_get_toc+0x83>
    2e4e:	81 e7 ff 00 00 00    	and    $0xff,%edi
    2e54:	c7 44 24 0c 0c 00 00 	movl   $0xc,0xc(%esp)
    2e5b:	00 
    2e5c:	89 44 24 08          	mov    %eax,0x8(%esp)
    2e60:	89 7c 24 04          	mov    %edi,0x4(%esp)
    2e64:	8b 43 10             	mov    0x10(%ebx),%eax
    2e67:	89 04 24             	mov    %eax,(%esp)
    2e6a:	e8 c1 03 00 00       	call   3230 <bd_read_toc>
    2e6f:	85 c0                	test   %eax,%eax
    2e71:	75 35                	jne    2ea8 <block_get_toc+0xb8>
    2e73:	83 c4 1c             	add    $0x1c,%esp
    2e76:	89 f0                	mov    %esi,%eax
    2e78:	5b                   	pop    %ebx
    2e79:	5e                   	pop    %esi
    2e7a:	5f                   	pop    %edi
    2e7b:	5d                   	pop    %ebp
    2e7c:	c3                   	ret    
    2e7d:	8d 76 00             	lea    0x0(%esi),%esi
    2e80:	c7 04 24 dc 2a 02 00 	movl   $0x22adc,(%esp)
    2e87:	e8 54 76 00 00       	call   a4e0 <fibril_mutex_unlock>
    2e8c:	c7 44 24 08 4f 03 00 	movl   $0x34f,0x8(%esp)
    2e93:	00 
    2e94:	c7 44 24 04 8e 00 02 	movl   $0x2008e,0x4(%esp)
    2e9b:	00 
    2e9c:	c7 04 24 96 00 02 00 	movl   $0x20096,(%esp)
    2ea3:	e8 78 ab 01 00       	call   1da20 <assert_abort>
    2ea8:	89 34 24             	mov    %esi,(%esp)
    2eab:	31 f6                	xor    %esi,%esi
    2ead:	e8 9e 04 01 00       	call   13350 <free>
    2eb2:	eb bf                	jmp    2e73 <block_get_toc+0x83>

00002eb4 <write_blocks.part.1>:
    2eb4:	55                   	push   %ebp
    2eb5:	89 e5                	mov    %esp,%ebp
    2eb7:	83 ec 18             	sub    $0x18,%esp
    2eba:	c7 44 24 08 85 03 00 	movl   $0x385,0x8(%esp)
    2ec1:	00 
    2ec2:	c7 44 24 04 8e 00 02 	movl   $0x2008e,0x4(%esp)
    2ec9:	00 
    2eca:	c7 04 24 96 00 02 00 	movl   $0x20096,(%esp)
    2ed1:	e8 4a ab 01 00       	call   1da20 <assert_abort>

00002ed6 <read_blocks.part.2>:
    2ed6:	55                   	push   %ebp
    2ed7:	89 e5                	mov    %esp,%ebp
    2ed9:	83 ec 18             	sub    $0x18,%esp
    2edc:	c7 44 24 08 6a 03 00 	movl   $0x36a,0x8(%esp)
    2ee3:	00 
    2ee4:	c7 44 24 04 8e 00 02 	movl   $0x2008e,0x4(%esp)
    2eeb:	00 
    2eec:	c7 04 24 96 00 02 00 	movl   $0x20096,(%esp)
    2ef3:	e8 28 ab 01 00       	call   1da20 <assert_abort>
    2ef8:	66 90                	xchg   %ax,%ax
    2efa:	66 90                	xchg   %ax,%ax
    2efc:	66 90                	xchg   %ax,%ax
    2efe:	66 90                	xchg   %ax,%ax

00002f00 <exit>:
    2f00:	55                   	push   %ebp
    2f01:	89 e5                	mov    %esp,%ebp
    2f03:	83 ec 28             	sub    $0x28,%esp
    2f06:	80 3d 84 2d 02 00 00 	cmpb   $0x0,0x22d84
    2f0d:	75 3f                	jne    2f4e <exit+0x4e>
    2f0f:	c7 44 24 18 0a 00 00 	movl   $0xa,0x18(%esp)
    2f16:	00 
    2f17:	c7 44 24 14 00 00 00 	movl   $0x0,0x14(%esp)
    2f1e:	00 
    2f1f:	c7 44 24 10 00 00 00 	movl   $0x0,0x10(%esp)
    2f26:	00 
    2f27:	c7 44 24 0c 00 00 00 	movl   $0x0,0xc(%esp)
    2f2e:	00 
    2f2f:	c7 44 24 08 00 00 00 	movl   $0x0,0x8(%esp)
    2f36:	00 
    2f37:	c7 44 24 04 00 00 00 	movl   $0x0,0x4(%esp)
    2f3e:	00 
    2f3f:	c7 04 24 00 00 00 00 	movl   $0x0,(%esp)
    2f46:	ff 15 d4 2c 02 00    	call   *0x22cd4
    2f4c:	eb fe                	jmp    2f4c <exit+0x4c>
    2f4e:	e8 3d 93 00 00       	call   c290 <__stdio_done>
    2f53:	8b 45 08             	mov    0x8(%ebp),%eax
    2f56:	89 04 24             	mov    %eax,(%esp)
    2f59:	e8 b2 8d 00 00       	call   bd10 <task_retval>
    2f5e:	65 a1 00 00 00 00    	mov    %gs:0x0,%eax
    2f64:	8b 40 04             	mov    0x4(%eax),%eax
    2f67:	89 04 24             	mov    %eax,(%esp)
    2f6a:	e8 91 6b 00 00       	call   9b00 <fibril_teardown>
    2f6f:	eb 9e                	jmp    2f0f <exit+0xf>
    2f71:	eb 0d                	jmp    2f80 <abort>
    2f73:	90                   	nop
    2f74:	90                   	nop
    2f75:	90                   	nop
    2f76:	90                   	nop
    2f77:	90                   	nop
    2f78:	90                   	nop
    2f79:	90                   	nop
    2f7a:	90                   	nop
    2f7b:	90                   	nop
    2f7c:	90                   	nop
    2f7d:	90                   	nop
    2f7e:	90                   	nop
    2f7f:	90                   	nop

00002f80 <abort>:
    2f80:	55                   	push   %ebp
    2f81:	89 e5                	mov    %esp,%ebp
    2f83:	83 ec 28             	sub    $0x28,%esp
    2f86:	c7 44 24 18 0a 00 00 	movl   $0xa,0x18(%esp)
    2f8d:	00 
    2f8e:	c7 44 24 14 00 00 00 	movl   $0x0,0x14(%esp)
    2f95:	00 
    2f96:	c7 44 24 10 00 00 00 	movl   $0x0,0x10(%esp)
    2f9d:	00 
    2f9e:	c7 44 24 0c 00 00 00 	movl   $0x0,0xc(%esp)
    2fa5:	00 
    2fa6:	c7 44 24 08 00 00 00 	movl   $0x0,0x8(%esp)
    2fad:	00 
    2fae:	c7 44 24 04 00 00 00 	movl   $0x0,0x4(%esp)
    2fb5:	00 
    2fb6:	c7 04 24 01 00 00 00 	movl   $0x1,(%esp)
    2fbd:	ff 15 d4 2c 02 00    	call   *0x22cd4
    2fc3:	eb fe                	jmp    2fc3 <abort+0x43>
    2fc5:	8d 74 26 00          	lea    0x0(%esi,%eiz,1),%esi
    2fc9:	8d bc 27 00 00 00 00 	lea    0x0(%edi,%eiz,1),%edi

00002fd0 <__main>:
    2fd0:	55                   	push   %ebp
    2fd1:	89 e5                	mov    %esp,%ebp
    2fd3:	57                   	push   %edi
    2fd4:	56                   	push   %esi
    2fd5:	53                   	push   %ebx
    2fd6:	83 ec 2c             	sub    $0x2c,%esp
    2fd9:	8b 5d 08             	mov    0x8(%ebp),%ebx
    2fdc:	e8 5f 01 01 00       	call   13140 <__malloc_init>
    2fe1:	e8 6a 20 01 00       	call   15050 <__async_init>
    2fe6:	e8 95 6a 00 00       	call   9a80 <fibril_setup>
    2feb:	85 c0                	test   %eax,%eax
    2fed:	0f 84 82 00 00 00    	je     3075 <__main+0xa5>
    2ff3:	c7 44 24 18 01 00 00 	movl   $0x1,0x18(%esp)
    2ffa:	00 
    2ffb:	c7 44 24 14 00 00 00 	movl   $0x0,0x14(%esp)
    3002:	00 
    3003:	c7 44 24 10 00 00 00 	movl   $0x0,0x10(%esp)
    300a:	00 
    300b:	c7 44 24 0c 00 00 00 	movl   $0x0,0xc(%esp)
    3012:	00 
    3013:	c7 44 24 08 00 00 00 	movl   $0x0,0x8(%esp)
    301a:	00 
    301b:	c7 44 24 04 00 00 00 	movl   $0x0,0x4(%esp)
    3022:	00 
    3023:	8b 40 30             	mov    0x30(%eax),%eax
    3026:	89 04 24             	mov    %eax,(%esp)
    3029:	ff 15 d4 2c 02 00    	call   *0x22cd4
    302f:	89 1d 20 2d 02 00    	mov    %ebx,0x22d20
    3035:	c6 05 84 2d 02 00 01 	movb   $0x1,0x22d84
    303c:	85 db                	test   %ebx,%ebx
    303e:	74 3a                	je     307a <__main+0xaa>
    3040:	8b 43 10             	mov    0x10(%ebx),%eax
    3043:	8b 73 08             	mov    0x8(%ebx),%esi
    3046:	8b 7b 0c             	mov    0xc(%ebx),%edi
    3049:	89 04 24             	mov    %eax,(%esp)
    304c:	e8 af 8f 00 00       	call   c000 <__stdio_init>
    3051:	a1 20 2d 02 00       	mov    0x22d20,%eax
    3056:	8b 40 04             	mov    0x4(%eax),%eax
    3059:	89 04 24             	mov    %eax,(%esp)
    305c:	e8 4f 9d 01 00       	call   1cdb0 <chdir>
    3061:	89 7c 24 04          	mov    %edi,0x4(%esp)
    3065:	89 34 24             	mov    %esi,(%esp)
    3068:	e8 53 e2 ff ff       	call   12c0 <main>
    306d:	89 04 24             	mov    %eax,(%esp)
    3070:	e8 8b fe ff ff       	call   2f00 <exit>
    3075:	e8 06 ff ff ff       	call   2f80 <abort>
    307a:	c7 04 24 00 00 00 00 	movl   $0x0,(%esp)
    3081:	31 ff                	xor    %edi,%edi
    3083:	e8 78 8f 00 00       	call   c000 <__stdio_init>
    3088:	31 f6                	xor    %esi,%esi
    308a:	eb d5                	jmp    3061 <__main+0x91>
    308c:	66 90                	xchg   %ax,%ax
    308e:	66 90                	xchg   %ax,%ax

00003090 <bd_cb_conn>:
    3090:	55                   	push   %ebp
    3091:	89 e5                	mov    %esp,%ebp
    3093:	53                   	push   %ebx
    3094:	83 ec 44             	sub    $0x44,%esp
    3097:	8d 5d d4             	lea    -0x2c(%ebp),%ebx
    309a:	eb 14                	jmp    30b0 <bd_cb_conn+0x20>
    309c:	8d 74 26 00          	lea    0x0(%esi,%eiz,1),%esi
    30a0:	c7 44 24 04 f5 ff ff 	movl   $0xfffffff5,0x4(%esp)
    30a7:	ff 
    30a8:	89 04 24             	mov    %eax,(%esp)
    30ab:	e8 d0 2c 01 00       	call   15d80 <async_answer_0>
    30b0:	c7 44 24 04 00 00 00 	movl   $0x0,0x4(%esp)
    30b7:	00 
    30b8:	89 1c 24             	mov    %ebx,(%esp)
    30bb:	e8 90 16 01 00       	call   14750 <async_get_call_timeout>
    30c0:	8b 55 d4             	mov    -0x2c(%ebp),%edx
    30c3:	85 d2                	test   %edx,%edx
    30c5:	75 d9                	jne    30a0 <bd_cb_conn+0x10>
    30c7:	83 c4 44             	add    $0x44,%esp
    30ca:	5b                   	pop    %ebx
    30cb:	5d                   	pop    %ebp
    30cc:	c3                   	ret    
    30cd:	8d 76 00             	lea    0x0(%esi),%esi

000030d0 <bd_open>:
    30d0:	55                   	push   %ebp
    30d1:	89 e5                	mov    %esp,%ebp
    30d3:	57                   	push   %edi
    30d4:	56                   	push   %esi
    30d5:	53                   	push   %ebx
    30d6:	83 ec 3c             	sub    $0x3c,%esp
    30d9:	8b 75 08             	mov    0x8(%ebp),%esi
    30dc:	c7 44 24 04 04 00 00 	movl   $0x4,0x4(%esp)
    30e3:	00 
    30e4:	c7 04 24 01 00 00 00 	movl   $0x1,(%esp)
    30eb:	e8 f0 00 01 00       	call   131e0 <calloc>
    30f0:	89 c3                	mov    %eax,%ebx
    30f2:	85 c0                	test   %eax,%eax
    30f4:	74 72                	je     3168 <bd_open+0x98>
    30f6:	89 30                	mov    %esi,(%eax)
    30f8:	89 34 24             	mov    %esi,(%esp)
    30fb:	e8 80 36 01 00       	call   16780 <async_exchange_begin>
    3100:	89 5c 24 14          	mov    %ebx,0x14(%esp)
    3104:	c7 44 24 10 90 30 00 	movl   $0x3090,0x10(%esp)
    310b:	00 
    310c:	c7 44 24 0c 00 00 00 	movl   $0x0,0xc(%esp)
    3113:	00 
    3114:	c7 44 24 08 00 00 00 	movl   $0x0,0x8(%esp)
    311b:	00 
    311c:	c7 44 24 04 00 00 00 	movl   $0x0,0x4(%esp)
    3123:	00 
    3124:	89 04 24             	mov    %eax,(%esp)
    3127:	89 c7                	mov    %eax,%edi
    3129:	e8 f2 2d 01 00       	call   15f20 <async_connect_to_me>
    312e:	89 3c 24             	mov    %edi,(%esp)
    3131:	89 45 e4             	mov    %eax,-0x1c(%ebp)
    3134:	e8 b7 39 01 00       	call   16af0 <async_exchange_end>
    3139:	8b 45 e4             	mov    -0x1c(%ebp),%eax
    313c:	85 c0                	test   %eax,%eax
    313e:	74 18                	je     3158 <bd_open+0x88>
    3140:	89 1c 24             	mov    %ebx,(%esp)
    3143:	89 45 e4             	mov    %eax,-0x1c(%ebp)
    3146:	e8 05 02 01 00       	call   13350 <free>
    314b:	8b 45 e4             	mov    -0x1c(%ebp),%eax
    314e:	83 c4 3c             	add    $0x3c,%esp
    3151:	5b                   	pop    %ebx
    3152:	5e                   	pop    %esi
    3153:	5f                   	pop    %edi
    3154:	5d                   	pop    %ebp
    3155:	c3                   	ret    
    3156:	66 90                	xchg   %ax,%ax
    3158:	8b 55 0c             	mov    0xc(%ebp),%edx
    315b:	89 1a                	mov    %ebx,(%edx)
    315d:	83 c4 3c             	add    $0x3c,%esp
    3160:	5b                   	pop    %ebx
    3161:	5e                   	pop    %esi
    3162:	5f                   	pop    %edi
    3163:	5d                   	pop    %ebp
    3164:	c3                   	ret    
    3165:	8d 76 00             	lea    0x0(%esi),%esi
    3168:	b8 fe ff ff ff       	mov    $0xfffffffe,%eax
    316d:	eb df                	jmp    314e <bd_open+0x7e>
    316f:	90                   	nop

00003170 <bd_close>:
    3170:	55                   	push   %ebp
    3171:	89 e5                	mov    %esp,%ebp
    3173:	5d                   	pop    %ebp
    3174:	e9 d7 01 01 00       	jmp    13350 <free>
    3179:	8d b4 26 00 00 00 00 	lea    0x0(%esi,%eiz,1),%esi

00003180 <bd_read_blocks>:
    3180:	55                   	push   %ebp
    3181:	89 e5                	mov    %esp,%ebp
    3183:	57                   	push   %edi
    3184:	56                   	push   %esi
    3185:	53                   	push   %ebx
    3186:	83 ec 5c             	sub    $0x5c,%esp
    3189:	8b 45 08             	mov    0x8(%ebp),%eax
    318c:	8b 75 0c             	mov    0xc(%ebp),%esi
    318f:	8b 7d 10             	mov    0x10(%ebp),%edi
    3192:	8b 00                	mov    (%eax),%eax
    3194:	89 04 24             	mov    %eax,(%esp)
    3197:	e8 e4 35 01 00       	call   16780 <async_exchange_begin>
    319c:	89 7c 24 0c          	mov    %edi,0xc(%esp)
    31a0:	89 c3                	mov    %eax,%ebx
    31a2:	8d 45 c4             	lea    -0x3c(%ebp),%eax
    31a5:	89 44 24 18          	mov    %eax,0x18(%esp)
    31a9:	8b 45 14             	mov    0x14(%ebp),%eax
    31ac:	89 74 24 08          	mov    %esi,0x8(%esp)
    31b0:	c7 44 24 14 00 00 00 	movl   $0x0,0x14(%esp)
    31b7:	00 
    31b8:	89 44 24 10          	mov    %eax,0x10(%esp)
    31bc:	c7 44 24 04 02 04 00 	movl   $0x402,0x4(%esp)
    31c3:	00 
    31c4:	89 1c 24             	mov    %ebx,(%esp)
    31c7:	e8 54 1f 01 00       	call   15120 <async_send_fast>
    31cc:	89 1c 24             	mov    %ebx,(%esp)
    31cf:	89 c7                	mov    %eax,%edi
    31d1:	8b 45 1c             	mov    0x1c(%ebp),%eax
    31d4:	89 44 24 08          	mov    %eax,0x8(%esp)
    31d8:	8b 45 18             	mov    0x18(%ebp),%eax
    31db:	89 44 24 04          	mov    %eax,0x4(%esp)
    31df:	e8 6c 3f 01 00       	call   17150 <async_data_read_start>
    31e4:	89 1c 24             	mov    %ebx,(%esp)
    31e7:	89 c6                	mov    %eax,%esi
    31e9:	e8 02 39 01 00       	call   16af0 <async_exchange_end>
    31ee:	85 f6                	test   %esi,%esi
    31f0:	75 26                	jne    3218 <bd_read_blocks+0x98>
    31f2:	8d 45 c0             	lea    -0x40(%ebp),%eax
    31f5:	89 3c 24             	mov    %edi,(%esp)
    31f8:	89 44 24 04          	mov    %eax,0x4(%esp)
    31fc:	e8 ef 20 01 00       	call   152f0 <async_wait_for>
    3201:	8b 45 c0             	mov    -0x40(%ebp),%eax
    3204:	85 c0                	test   %eax,%eax
    3206:	74 02                	je     320a <bd_read_blocks+0x8a>
    3208:	89 c6                	mov    %eax,%esi
    320a:	83 c4 5c             	add    $0x5c,%esp
    320d:	89 f0                	mov    %esi,%eax
    320f:	5b                   	pop    %ebx
    3210:	5e                   	pop    %esi
    3211:	5f                   	pop    %edi
    3212:	5d                   	pop    %ebp
    3213:	c3                   	ret    
    3214:	8d 74 26 00          	lea    0x0(%esi,%eiz,1),%esi
    3218:	89 3c 24             	mov    %edi,(%esp)
    321b:	e8 20 23 01 00       	call   15540 <async_forget>
    3220:	83 c4 5c             	add    $0x5c,%esp
    3223:	89 f0                	mov    %esi,%eax
    3225:	5b                   	pop    %ebx
    3226:	5e                   	pop    %esi
    3227:	5f                   	pop    %edi
    3228:	5d                   	pop    %ebp
    3229:	c3                   	ret    
    322a:	8d b6 00 00 00 00    	lea    0x0(%esi),%esi

00003230 <bd_read_toc>:
    3230:	55                   	push   %ebp
    3231:	89 e5                	mov    %esp,%ebp
    3233:	57                   	push   %edi
    3234:	56                   	push   %esi
    3235:	53                   	push   %ebx
    3236:	83 ec 5c             	sub    $0x5c,%esp
    3239:	8b 45 08             	mov    0x8(%ebp),%eax
    323c:	0f b6 75 0c          	movzbl 0xc(%ebp),%esi
    3240:	8b 00                	mov    (%eax),%eax
    3242:	81 e6 ff 00 00 00    	and    $0xff,%esi
    3248:	89 04 24             	mov    %eax,(%esp)
    324b:	e8 30 35 01 00       	call   16780 <async_exchange_begin>
    3250:	89 74 24 08          	mov    %esi,0x8(%esp)
    3254:	89 c3                	mov    %eax,%ebx
    3256:	8d 45 c4             	lea    -0x3c(%ebp),%eax
    3259:	89 44 24 18          	mov    %eax,0x18(%esp)
    325d:	c7 44 24 14 00 00 00 	movl   $0x0,0x14(%esp)
    3264:	00 
    3265:	c7 44 24 10 00 00 00 	movl   $0x0,0x10(%esp)
    326c:	00 
    326d:	c7 44 24 0c 00 00 00 	movl   $0x0,0xc(%esp)
    3274:	00 
    3275:	c7 44 24 04 04 04 00 	movl   $0x404,0x4(%esp)
    327c:	00 
    327d:	89 1c 24             	mov    %ebx,(%esp)
    3280:	e8 9b 1e 01 00       	call   15120 <async_send_fast>
    3285:	89 1c 24             	mov    %ebx,(%esp)
    3288:	89 c7                	mov    %eax,%edi
    328a:	8b 45 14             	mov    0x14(%ebp),%eax
    328d:	89 44 24 08          	mov    %eax,0x8(%esp)
    3291:	8b 45 10             	mov    0x10(%ebp),%eax
    3294:	89 44 24 04          	mov    %eax,0x4(%esp)
    3298:	e8 b3 3e 01 00       	call   17150 <async_data_read_start>
    329d:	89 1c 24             	mov    %ebx,(%esp)
    32a0:	89 c6                	mov    %eax,%esi
    32a2:	e8 49 38 01 00       	call   16af0 <async_exchange_end>
    32a7:	85 f6                	test   %esi,%esi
    32a9:	75 25                	jne    32d0 <bd_read_toc+0xa0>
    32ab:	8d 45 c0             	lea    -0x40(%ebp),%eax
    32ae:	89 3c 24             	mov    %edi,(%esp)
    32b1:	89 44 24 04          	mov    %eax,0x4(%esp)
    32b5:	e8 36 20 01 00       	call   152f0 <async_wait_for>
    32ba:	8b 45 c0             	mov    -0x40(%ebp),%eax
    32bd:	85 c0                	test   %eax,%eax
    32bf:	74 02                	je     32c3 <bd_read_toc+0x93>
    32c1:	89 c6                	mov    %eax,%esi
    32c3:	83 c4 5c             	add    $0x5c,%esp
    32c6:	89 f0                	mov    %esi,%eax
    32c8:	5b                   	pop    %ebx
    32c9:	5e                   	pop    %esi
    32ca:	5f                   	pop    %edi
    32cb:	5d                   	pop    %ebp
    32cc:	c3                   	ret    
    32cd:	8d 76 00             	lea    0x0(%esi),%esi
    32d0:	89 3c 24             	mov    %edi,(%esp)
    32d3:	e8 68 22 01 00       	call   15540 <async_forget>
    32d8:	83 c4 5c             	add    $0x5c,%esp
    32db:	89 f0                	mov    %esi,%eax
    32dd:	5b                   	pop    %ebx
    32de:	5e                   	pop    %esi
    32df:	5f                   	pop    %edi
    32e0:	5d                   	pop    %ebp
    32e1:	c3                   	ret    
    32e2:	8d b4 26 00 00 00 00 	lea    0x0(%esi,%eiz,1),%esi
    32e9:	8d bc 27 00 00 00 00 	lea    0x0(%edi,%eiz,1),%edi

000032f0 <bd_write_blocks>:
    32f0:	55                   	push   %ebp
    32f1:	89 e5                	mov    %esp,%ebp
    32f3:	57                   	push   %edi
    32f4:	56                   	push   %esi
    32f5:	53                   	push   %ebx
    32f6:	83 ec 5c             	sub    $0x5c,%esp
    32f9:	8b 45 08             	mov    0x8(%ebp),%eax
    32fc:	8b 75 0c             	mov    0xc(%ebp),%esi
    32ff:	8b 7d 10             	mov    0x10(%ebp),%edi
    3302:	8b 00                	mov    (%eax),%eax
    3304:	89 04 24             	mov    %eax,(%esp)
    3307:	e8 74 34 01 00       	call   16780 <async_exchange_begin>
    330c:	89 7c 24 0c          	mov    %edi,0xc(%esp)
    3310:	89 c3                	mov    %eax,%ebx
    3312:	8d 45 c4             	lea    -0x3c(%ebp),%eax
    3315:	89 44 24 18          	mov    %eax,0x18(%esp)
    3319:	8b 45 14             	mov    0x14(%ebp),%eax
    331c:	89 74 24 08          	mov    %esi,0x8(%esp)
    3320:	c7 44 24 14 00 00 00 	movl   $0x0,0x14(%esp)
    3327:	00 
    3328:	89 44 24 10          	mov    %eax,0x10(%esp)
    332c:	c7 44 24 04 03 04 00 	movl   $0x403,0x4(%esp)
    3333:	00 
    3334:	89 1c 24             	mov    %ebx,(%esp)
    3337:	e8 e4 1d 01 00       	call   15120 <async_send_fast>
    333c:	89 1c 24             	mov    %ebx,(%esp)
    333f:	89 c7                	mov    %eax,%edi
    3341:	8b 45 1c             	mov    0x1c(%ebp),%eax
    3344:	89 44 24 08          	mov    %eax,0x8(%esp)
    3348:	8b 45 18             	mov    0x18(%ebp),%eax
    334b:	89 44 24 04          	mov    %eax,0x4(%esp)
    334f:	e8 1c 43 01 00       	call   17670 <async_data_write_start>
    3354:	89 1c 24             	mov    %ebx,(%esp)
    3357:	89 c6                	mov    %eax,%esi
    3359:	e8 92 37 01 00       	call   16af0 <async_exchange_end>
    335e:	85 f6                	test   %esi,%esi
    3360:	75 26                	jne    3388 <bd_write_blocks+0x98>
    3362:	8d 45 c0             	lea    -0x40(%ebp),%eax
    3365:	89 3c 24             	mov    %edi,(%esp)
    3368:	89 44 24 04          	mov    %eax,0x4(%esp)
    336c:	e8 7f 1f 01 00       	call   152f0 <async_wait_for>
    3371:	8b 45 c0             	mov    -0x40(%ebp),%eax
    3374:	85 c0                	test   %eax,%eax
    3376:	74 02                	je     337a <bd_write_blocks+0x8a>
    3378:	89 c6                	mov    %eax,%esi
    337a:	83 c4 5c             	add    $0x5c,%esp
    337d:	89 f0                	mov    %esi,%eax
    337f:	5b                   	pop    %ebx
    3380:	5e                   	pop    %esi
    3381:	5f                   	pop    %edi
    3382:	5d                   	pop    %ebp
    3383:	c3                   	ret    
    3384:	8d 74 26 00          	lea    0x0(%esi,%eiz,1),%esi
    3388:	89 3c 24             	mov    %edi,(%esp)
    338b:	e8 b0 21 01 00       	call   15540 <async_forget>
    3390:	83 c4 5c             	add    $0x5c,%esp
    3393:	89 f0                	mov    %esi,%eax
    3395:	5b                   	pop    %ebx
    3396:	5e                   	pop    %esi
    3397:	5f                   	pop    %edi
    3398:	5d                   	pop    %ebp
    3399:	c3                   	ret    
    339a:	8d b6 00 00 00 00    	lea    0x0(%esi),%esi

000033a0 <bd_get_block_size>:
    33a0:	55                   	push   %ebp
    33a1:	89 e5                	mov    %esp,%ebp
    33a3:	53                   	push   %ebx
    33a4:	83 ec 54             	sub    $0x54,%esp
    33a7:	8b 45 08             	mov    0x8(%ebp),%eax
    33aa:	8b 00                	mov    (%eax),%eax
    33ac:	89 04 24             	mov    %eax,(%esp)
    33af:	e8 cc 33 01 00       	call   16780 <async_exchange_begin>
    33b4:	c7 44 24 28 00 00 00 	movl   $0x0,0x28(%esp)
    33bb:	00 
    33bc:	89 c3                	mov    %eax,%ebx
    33be:	8d 45 f4             	lea    -0xc(%ebp),%eax
    33c1:	c7 44 24 24 00 00 00 	movl   $0x0,0x24(%esp)
    33c8:	00 
    33c9:	c7 44 24 20 00 00 00 	movl   $0x0,0x20(%esp)
    33d0:	00 
    33d1:	c7 44 24 1c 00 00 00 	movl   $0x0,0x1c(%esp)
    33d8:	00 
    33d9:	89 44 24 18          	mov    %eax,0x18(%esp)
    33dd:	c7 44 24 14 00 00 00 	movl   $0x0,0x14(%esp)
    33e4:	00 
    33e5:	c7 44 24 10 00 00 00 	movl   $0x0,0x10(%esp)
    33ec:	00 
    33ed:	c7 44 24 0c 00 00 00 	movl   $0x0,0xc(%esp)
    33f4:	00 
    33f5:	c7 44 24 08 00 00 00 	movl   $0x0,0x8(%esp)
    33fc:	00 
    33fd:	c7 44 24 04 00 04 00 	movl   $0x400,0x4(%esp)
    3404:	00 
    3405:	89 1c 24             	mov    %ebx,(%esp)
    3408:	e8 23 23 01 00       	call   15730 <async_req_fast>
    340d:	89 1c 24             	mov    %ebx,(%esp)
    3410:	89 45 e4             	mov    %eax,-0x1c(%ebp)
    3413:	e8 d8 36 01 00       	call   16af0 <async_exchange_end>
    3418:	8b 45 e4             	mov    -0x1c(%ebp),%eax
    341b:	85 c0                	test   %eax,%eax
    341d:	75 08                	jne    3427 <bd_get_block_size+0x87>
    341f:	8b 55 0c             	mov    0xc(%ebp),%edx
    3422:	8b 4d f4             	mov    -0xc(%ebp),%ecx
    3425:	89 0a                	mov    %ecx,(%edx)
    3427:	83 c4 54             	add    $0x54,%esp
    342a:	5b                   	pop    %ebx
    342b:	5d                   	pop    %ebp
    342c:	c3                   	ret    
    342d:	8d 76 00             	lea    0x0(%esi),%esi

00003430 <bd_get_num_blocks>:
    3430:	55                   	push   %ebp
    3431:	89 e5                	mov    %esp,%ebp
    3433:	57                   	push   %edi
    3434:	56                   	push   %esi
    3435:	53                   	push   %ebx
    3436:	83 ec 5c             	sub    $0x5c,%esp
    3439:	8b 45 08             	mov    0x8(%ebp),%eax
    343c:	8b 00                	mov    (%eax),%eax
    343e:	89 04 24             	mov    %eax,(%esp)
    3441:	e8 3a 33 01 00       	call   16780 <async_exchange_begin>
    3446:	c7 44 24 28 00 00 00 	movl   $0x0,0x28(%esp)
    344d:	00 
    344e:	89 c3                	mov    %eax,%ebx
    3450:	8d 45 e4             	lea    -0x1c(%ebp),%eax
    3453:	89 44 24 1c          	mov    %eax,0x1c(%esp)
    3457:	8d 45 e0             	lea    -0x20(%ebp),%eax
    345a:	c7 44 24 24 00 00 00 	movl   $0x0,0x24(%esp)
    3461:	00 
    3462:	c7 44 24 20 00 00 00 	movl   $0x0,0x20(%esp)
    3469:	00 
    346a:	89 44 24 18          	mov    %eax,0x18(%esp)
    346e:	c7 44 24 14 00 00 00 	movl   $0x0,0x14(%esp)
    3475:	00 
    3476:	c7 44 24 10 00 00 00 	movl   $0x0,0x10(%esp)
    347d:	00 
    347e:	c7 44 24 0c 00 00 00 	movl   $0x0,0xc(%esp)
    3485:	00 
    3486:	c7 44 24 08 00 00 00 	movl   $0x0,0x8(%esp)
    348d:	00 
    348e:	c7 44 24 04 01 04 00 	movl   $0x401,0x4(%esp)
    3495:	00 
    3496:	89 1c 24             	mov    %ebx,(%esp)
    3499:	e8 92 22 01 00       	call   15730 <async_req_fast>
    349e:	89 1c 24             	mov    %ebx,(%esp)
    34a1:	89 45 d4             	mov    %eax,-0x2c(%ebp)
    34a4:	e8 47 36 01 00       	call   16af0 <async_exchange_end>
    34a9:	8b 45 d4             	mov    -0x2c(%ebp),%eax
    34ac:	85 c0                	test   %eax,%eax
    34ae:	75 0e                	jne    34be <bd_get_num_blocks+0x8e>
    34b0:	8b 55 0c             	mov    0xc(%ebp),%edx
    34b3:	8b 4d e4             	mov    -0x1c(%ebp),%ecx
    34b6:	8b 75 e0             	mov    -0x20(%ebp),%esi
    34b9:	89 32                	mov    %esi,(%edx)
    34bb:	89 4a 04             	mov    %ecx,0x4(%edx)
    34be:	83 c4 5c             	add    $0x5c,%esp
    34c1:	5b                   	pop    %ebx
    34c2:	5e                   	pop    %esi
    34c3:	5f                   	pop    %edi
    34c4:	5d                   	pop    %ebp
    34c5:	c3                   	ret    
    34c6:	66 90                	xchg   %ax,%ax
    34c8:	66 90                	xchg   %ax,%ax
    34ca:	66 90                	xchg   %ax,%ax
    34cc:	66 90                	xchg   %ax,%ax
    34ce:	66 90                	xchg   %ax,%ax

000034d0 <bd_srvs_init>:
    34d0:	55                   	push   %ebp
    34d1:	89 e5                	mov    %esp,%ebp
    34d3:	8b 45 08             	mov    0x8(%ebp),%eax
    34d6:	c7 00 00 00 00 00    	movl   $0x0,(%eax)
    34dc:	c7 40 04 00 00 00 00 	movl   $0x0,0x4(%eax)
    34e3:	5d                   	pop    %ebp
    34e4:	c3                   	ret    
    34e5:	8d 74 26 00          	lea    0x0(%esi,%eiz,1),%esi
    34e9:	8d bc 27 00 00 00 00 	lea    0x0(%edi,%eiz,1),%edi

000034f0 <bd_conn>:
    34f0:	55                   	push   %ebp
    34f1:	89 e5                	mov    %esp,%ebp
    34f3:	57                   	push   %edi
    34f4:	56                   	push   %esi
    34f5:	53                   	push   %ebx
    34f6:	83 ec 7c             	sub    $0x7c,%esp
    34f9:	8b 45 08             	mov    0x8(%ebp),%eax
    34fc:	c7 44 24 04 00 00 00 	movl   $0x0,0x4(%esp)
    3503:	00 
    3504:	89 04 24             	mov    %eax,(%esp)
    3507:	e8 74 28 01 00       	call   15d80 <async_answer_0>
    350c:	c7 44 24 04 04 00 00 	movl   $0x4,0x4(%esp)
    3513:	00 
    3514:	c7 04 24 01 00 00 00 	movl   $0x1,(%esp)
    351b:	e8 c0 fc 00 00       	call   131e0 <calloc>
    3520:	89 c7                	mov    %eax,%edi
    3522:	85 c0                	test   %eax,%eax
    3524:	0f 84 ec 02 00 00    	je     3816 <bd_conn+0x326>
    352a:	8b 55 10             	mov    0x10(%ebp),%edx
    352d:	89 10                	mov    %edx,(%eax)
    352f:	c7 04 24 02 00 00 00 	movl   $0x2,(%esp)
    3536:	e8 e5 4a 01 00       	call   18020 <async_callback_receive>
    353b:	85 c0                	test   %eax,%eax
    353d:	0f 84 d3 02 00 00    	je     3816 <bd_conn+0x326>
    3543:	8b 4d 10             	mov    0x10(%ebp),%ecx
    3546:	89 47 04             	mov    %eax,0x4(%edi)
    3549:	8b 01                	mov    (%ecx),%eax
    354b:	89 7c 24 04          	mov    %edi,0x4(%esp)
    354f:	89 0c 24             	mov    %ecx,(%esp)
    3552:	ff 10                	call   *(%eax)
    3554:	85 c0                	test   %eax,%eax
    3556:	0f 85 c4 02 00 00    	jne    3820 <bd_conn+0x330>
    355c:	8d 5d c4             	lea    -0x3c(%ebp),%ebx
    355f:	90                   	nop
    3560:	c7 44 24 04 00 00 00 	movl   $0x0,0x4(%esp)
    3567:	00 
    3568:	89 1c 24             	mov    %ebx,(%esp)
    356b:	e8 e0 11 01 00       	call   14750 <async_get_call_timeout>
    3570:	89 c6                	mov    %eax,%esi
    3572:	8b 45 c4             	mov    -0x3c(%ebp),%eax
    3575:	85 c0                	test   %eax,%eax
    3577:	0f 84 ab 02 00 00    	je     3828 <bd_conn+0x338>
    357d:	2d 00 04 00 00       	sub    $0x400,%eax
    3582:	83 f8 04             	cmp    $0x4,%eax
    3585:	76 19                	jbe    35a0 <bd_conn+0xb0>
    3587:	c7 44 24 04 f2 ff ff 	movl   $0xfffffff2,0x4(%esp)
    358e:	ff 
    358f:	89 34 24             	mov    %esi,(%esp)
    3592:	e8 e9 27 01 00       	call   15d80 <async_answer_0>
    3597:	eb c7                	jmp    3560 <bd_conn+0x70>
    3599:	8d b4 26 00 00 00 00 	lea    0x0(%esi,%eiz,1),%esi
    35a0:	ff 24 85 74 01 02 00 	jmp    *0x20174(,%eax,4)
    35a7:	90                   	nop
    35a8:	8b 4d cc             	mov    -0x34(%ebp),%ecx
    35ab:	8b 55 c8             	mov    -0x38(%ebp),%edx
    35ae:	89 4d a0             	mov    %ecx,-0x60(%ebp)
    35b1:	8d 45 b0             	lea    -0x50(%ebp),%eax
    35b4:	8d 4d b4             	lea    -0x4c(%ebp),%ecx
    35b7:	89 55 a4             	mov    %edx,-0x5c(%ebp)
    35ba:	89 4c 24 14          	mov    %ecx,0x14(%esp)
    35be:	8b 55 d0             	mov    -0x30(%ebp),%edx
    35c1:	c7 44 24 10 00 00 00 	movl   $0x0,0x10(%esp)
    35c8:	00 
    35c9:	c7 44 24 0c 00 00 00 	movl   $0x0,0xc(%esp)
    35d0:	00 
    35d1:	c7 44 24 08 00 00 00 	movl   $0x0,0x8(%esp)
    35d8:	00 
    35d9:	c7 44 24 04 00 00 00 	movl   $0x0,0x4(%esp)
    35e0:	00 
    35e1:	89 04 24             	mov    %eax,(%esp)
    35e4:	89 55 9c             	mov    %edx,-0x64(%ebp)
    35e7:	e8 b4 42 01 00       	call   178a0 <async_data_write_accept>
    35ec:	85 c0                	test   %eax,%eax
    35ee:	75 48                	jne    3638 <bd_conn+0x148>
    35f0:	8b 07                	mov    (%edi),%eax
    35f2:	8b 00                	mov    (%eax),%eax
    35f4:	8b 40 10             	mov    0x10(%eax),%eax
    35f7:	85 c0                	test   %eax,%eax
    35f9:	0f 84 61 02 00 00    	je     3860 <bd_conn+0x370>
    35ff:	8b 55 b4             	mov    -0x4c(%ebp),%edx
    3602:	8b 4d a4             	mov    -0x5c(%ebp),%ecx
    3605:	89 54 24 14          	mov    %edx,0x14(%esp)
    3609:	8b 55 b0             	mov    -0x50(%ebp),%edx
    360c:	89 54 24 10          	mov    %edx,0x10(%esp)
    3610:	8b 55 9c             	mov    -0x64(%ebp),%edx
    3613:	89 54 24 0c          	mov    %edx,0xc(%esp)
    3617:	8b 55 a0             	mov    -0x60(%ebp),%edx
    361a:	89 4c 24 04          	mov    %ecx,0x4(%esp)
    361e:	89 54 24 08          	mov    %edx,0x8(%esp)
    3622:	89 3c 24             	mov    %edi,(%esp)
    3625:	ff d0                	call   *%eax
    3627:	8b 55 b0             	mov    -0x50(%ebp),%edx
    362a:	89 14 24             	mov    %edx,(%esp)
    362d:	89 45 98             	mov    %eax,-0x68(%ebp)
    3630:	e8 1b fd 00 00       	call   13350 <free>
    3635:	8b 45 98             	mov    -0x68(%ebp),%eax
    3638:	89 44 24 04          	mov    %eax,0x4(%esp)
    363c:	89 34 24             	mov    %esi,(%esp)
    363f:	e8 3c 27 01 00       	call   15d80 <async_answer_0>
    3644:	e9 17 ff ff ff       	jmp    3560 <bd_conn+0x70>
    3649:	8d b4 26 00 00 00 00 	lea    0x0(%esi,%eiz,1),%esi
    3650:	8d 45 ac             	lea    -0x54(%ebp),%eax
    3653:	8b 4d c8             	mov    -0x38(%ebp),%ecx
    3656:	89 44 24 04          	mov    %eax,0x4(%esp)
    365a:	8d 45 b4             	lea    -0x4c(%ebp),%eax
    365d:	89 4d a4             	mov    %ecx,-0x5c(%ebp)
    3660:	8b 55 cc             	mov    -0x34(%ebp),%edx
    3663:	8b 4d d0             	mov    -0x30(%ebp),%ecx
    3666:	89 04 24             	mov    %eax,(%esp)
    3669:	89 55 a0             	mov    %edx,-0x60(%ebp)
    366c:	89 4d 9c             	mov    %ecx,-0x64(%ebp)
    366f:	e8 7c 3c 01 00       	call   172f0 <async_data_read_receive>
    3674:	84 c0                	test   %al,%al
    3676:	0f 84 0b ff ff ff    	je     3587 <bd_conn+0x97>
    367c:	8b 45 ac             	mov    -0x54(%ebp),%eax
    367f:	89 04 24             	mov    %eax,(%esp)
    3682:	e8 b9 fb 00 00       	call   13240 <malloc>
    3687:	89 c2                	mov    %eax,%edx
    3689:	85 c0                	test   %eax,%eax
    368b:	0f 84 5d 01 00 00    	je     37ee <bd_conn+0x2fe>
    3691:	8b 07                	mov    (%edi),%eax
    3693:	8b 00                	mov    (%eax),%eax
    3695:	8b 40 08             	mov    0x8(%eax),%eax
    3698:	85 c0                	test   %eax,%eax
    369a:	0f 84 d8 01 00 00    	je     3878 <bd_conn+0x388>
    36a0:	8b 4d ac             	mov    -0x54(%ebp),%ecx
    36a3:	89 54 24 10          	mov    %edx,0x10(%esp)
    36a7:	89 4c 24 14          	mov    %ecx,0x14(%esp)
    36ab:	8b 4d 9c             	mov    -0x64(%ebp),%ecx
    36ae:	89 4c 24 0c          	mov    %ecx,0xc(%esp)
    36b2:	8b 4d a4             	mov    -0x5c(%ebp),%ecx
    36b5:	89 4c 24 04          	mov    %ecx,0x4(%esp)
    36b9:	8b 4d a0             	mov    -0x60(%ebp),%ecx
    36bc:	89 55 98             	mov    %edx,-0x68(%ebp)
    36bf:	89 4c 24 08          	mov    %ecx,0x8(%esp)
    36c3:	89 3c 24             	mov    %edi,(%esp)
    36c6:	ff d0                	call   *%eax
    36c8:	8b 55 98             	mov    -0x68(%ebp),%edx
    36cb:	85 c0                	test   %eax,%eax
    36cd:	0f 85 1b 01 00 00    	jne    37ee <bd_conn+0x2fe>
    36d3:	8b 45 ac             	mov    -0x54(%ebp),%eax
    36d6:	89 54 24 04          	mov    %edx,0x4(%esp)
    36da:	89 44 24 08          	mov    %eax,0x8(%esp)
    36de:	8b 45 b4             	mov    -0x4c(%ebp),%eax
    36e1:	89 04 24             	mov    %eax,(%esp)
    36e4:	89 55 98             	mov    %edx,-0x68(%ebp)
    36e7:	e8 64 3c 01 00       	call   17350 <async_data_read_finalize>
    36ec:	8b 55 98             	mov    -0x68(%ebp),%edx
    36ef:	89 14 24             	mov    %edx,(%esp)
    36f2:	e8 59 fc 00 00       	call   13350 <free>
    36f7:	c7 44 24 04 00 00 00 	movl   $0x0,0x4(%esp)
    36fe:	00 
    36ff:	89 34 24             	mov    %esi,(%esp)
    3702:	e8 79 26 01 00       	call   15d80 <async_answer_0>
    3707:	e9 54 fe ff ff       	jmp    3560 <bd_conn+0x70>
    370c:	8d 74 26 00          	lea    0x0(%esi,%eiz,1),%esi
    3710:	8b 07                	mov    (%edi),%eax
    3712:	8b 00                	mov    (%eax),%eax
    3714:	8b 40 18             	mov    0x18(%eax),%eax
    3717:	85 c0                	test   %eax,%eax
    3719:	0f 84 41 01 00 00    	je     3860 <bd_conn+0x370>
    371f:	8d 55 b8             	lea    -0x48(%ebp),%edx
    3722:	89 3c 24             	mov    %edi,(%esp)
    3725:	89 54 24 04          	mov    %edx,0x4(%esp)
    3729:	ff d0                	call   *%eax
    372b:	8b 55 bc             	mov    -0x44(%ebp),%edx
    372e:	89 54 24 0c          	mov    %edx,0xc(%esp)
    3732:	8b 55 b8             	mov    -0x48(%ebp),%edx
    3735:	89 54 24 08          	mov    %edx,0x8(%esp)
    3739:	89 44 24 04          	mov    %eax,0x4(%esp)
    373d:	89 34 24             	mov    %esi,(%esp)
    3740:	e8 bb 26 01 00       	call   15e00 <async_answer_2>
    3745:	e9 16 fe ff ff       	jmp    3560 <bd_conn+0x70>
    374a:	8d b6 00 00 00 00    	lea    0x0(%esi),%esi
    3750:	8b 07                	mov    (%edi),%eax
    3752:	8b 00                	mov    (%eax),%eax
    3754:	8b 40 14             	mov    0x14(%eax),%eax
    3757:	85 c0                	test   %eax,%eax
    3759:	0f 84 01 01 00 00    	je     3860 <bd_conn+0x370>
    375f:	8d 4d b4             	lea    -0x4c(%ebp),%ecx
    3762:	89 3c 24             	mov    %edi,(%esp)
    3765:	89 4c 24 04          	mov    %ecx,0x4(%esp)
    3769:	ff d0                	call   *%eax
    376b:	8b 55 b4             	mov    -0x4c(%ebp),%edx
    376e:	89 54 24 08          	mov    %edx,0x8(%esp)
    3772:	89 44 24 04          	mov    %eax,0x4(%esp)
    3776:	89 34 24             	mov    %esi,(%esp)
    3779:	e8 42 26 01 00       	call   15dc0 <async_answer_1>
    377e:	e9 dd fd ff ff       	jmp    3560 <bd_conn+0x70>
    3783:	90                   	nop
    3784:	8d 74 26 00          	lea    0x0(%esi,%eiz,1),%esi
    3788:	8d 45 ac             	lea    -0x54(%ebp),%eax
    378b:	8d 4d b4             	lea    -0x4c(%ebp),%ecx
    378e:	8b 55 c8             	mov    -0x38(%ebp),%edx
    3791:	89 44 24 04          	mov    %eax,0x4(%esp)
    3795:	89 0c 24             	mov    %ecx,(%esp)
    3798:	89 55 a4             	mov    %edx,-0x5c(%ebp)
    379b:	e8 50 3b 01 00       	call   172f0 <async_data_read_receive>
    37a0:	84 c0                	test   %al,%al
    37a2:	0f 84 df fd ff ff    	je     3587 <bd_conn+0x97>
    37a8:	8b 45 ac             	mov    -0x54(%ebp),%eax
    37ab:	89 04 24             	mov    %eax,(%esp)
    37ae:	e8 8d fa 00 00       	call   13240 <malloc>
    37b3:	89 c2                	mov    %eax,%edx
    37b5:	85 c0                	test   %eax,%eax
    37b7:	74 35                	je     37ee <bd_conn+0x2fe>
    37b9:	8b 07                	mov    (%edi),%eax
    37bb:	8b 00                	mov    (%eax),%eax
    37bd:	8b 40 0c             	mov    0xc(%eax),%eax
    37c0:	85 c0                	test   %eax,%eax
    37c2:	0f 84 b0 00 00 00    	je     3878 <bd_conn+0x388>
    37c8:	8b 4d ac             	mov    -0x54(%ebp),%ecx
    37cb:	89 54 24 08          	mov    %edx,0x8(%esp)
    37cf:	89 4c 24 0c          	mov    %ecx,0xc(%esp)
    37d3:	89 55 98             	mov    %edx,-0x68(%ebp)
    37d6:	0f b6 4d a4          	movzbl -0x5c(%ebp),%ecx
    37da:	89 3c 24             	mov    %edi,(%esp)
    37dd:	89 4c 24 04          	mov    %ecx,0x4(%esp)
    37e1:	ff d0                	call   *%eax
    37e3:	8b 55 98             	mov    -0x68(%ebp),%edx
    37e6:	85 c0                	test   %eax,%eax
    37e8:	0f 84 e5 fe ff ff    	je     36d3 <bd_conn+0x1e3>
    37ee:	8b 45 b4             	mov    -0x4c(%ebp),%eax
    37f1:	c7 44 24 04 fe ff ff 	movl   $0xfffffffe,0x4(%esp)
    37f8:	ff 
    37f9:	89 04 24             	mov    %eax,(%esp)
    37fc:	e8 7f 25 01 00       	call   15d80 <async_answer_0>
    3801:	c7 44 24 04 fe ff ff 	movl   $0xfffffffe,0x4(%esp)
    3808:	ff 
    3809:	89 34 24             	mov    %esi,(%esp)
    380c:	e8 6f 25 01 00       	call   15d80 <async_answer_0>
    3811:	e9 4a fd ff ff       	jmp    3560 <bd_conn+0x70>
    3816:	b8 fe ff ff ff       	mov    $0xfffffffe,%eax
    381b:	90                   	nop
    381c:	8d 74 26 00          	lea    0x0(%esi,%eiz,1),%esi
    3820:	83 c4 7c             	add    $0x7c,%esp
    3823:	5b                   	pop    %ebx
    3824:	5e                   	pop    %esi
    3825:	5f                   	pop    %edi
    3826:	5d                   	pop    %ebp
    3827:	c3                   	ret    
    3828:	89 34 24             	mov    %esi,(%esp)
    382b:	c7 44 24 04 00 00 00 	movl   $0x0,0x4(%esp)
    3832:	00 
    3833:	e8 48 25 01 00       	call   15d80 <async_answer_0>
    3838:	8b 55 10             	mov    0x10(%ebp),%edx
    383b:	8b 02                	mov    (%edx),%eax
    383d:	89 3c 24             	mov    %edi,(%esp)
    3840:	ff 50 04             	call   *0x4(%eax)
    3843:	89 3c 24             	mov    %edi,(%esp)
    3846:	89 45 98             	mov    %eax,-0x68(%ebp)
    3849:	e8 02 fb 00 00       	call   13350 <free>
    384e:	8b 45 98             	mov    -0x68(%ebp),%eax
    3851:	83 c4 7c             	add    $0x7c,%esp
    3854:	5b                   	pop    %ebx
    3855:	5e                   	pop    %esi
    3856:	5f                   	pop    %edi
    3857:	5d                   	pop    %ebp
    3858:	c3                   	ret    
    3859:	8d b4 26 00 00 00 00 	lea    0x0(%esi,%eiz,1),%esi
    3860:	c7 44 24 04 f5 ff ff 	movl   $0xfffffff5,0x4(%esp)
    3867:	ff 
    3868:	89 34 24             	mov    %esi,(%esp)
    386b:	e8 10 25 01 00       	call   15d80 <async_answer_0>
    3870:	e9 eb fc ff ff       	jmp    3560 <bd_conn+0x70>
    3875:	8d 76 00             	lea    0x0(%esi),%esi
    3878:	8b 45 b4             	mov    -0x4c(%ebp),%eax
    387b:	c7 44 24 04 f5 ff ff 	movl   $0xfffffff5,0x4(%esp)
    3882:	ff 
    3883:	89 04 24             	mov    %eax,(%esp)
    3886:	e8 f5 24 01 00       	call   15d80 <async_answer_0>
    388b:	c7 44 24 04 f5 ff ff 	movl   $0xfffffff5,0x4(%esp)
    3892:	ff 
    3893:	89 34 24             	mov    %esi,(%esp)
    3896:	e8 e5 24 01 00       	call   15d80 <async_answer_0>
    389b:	e9 c0 fc ff ff       	jmp    3560 <bd_conn+0x70>

000038a0 <loc_cb_conn>:
    38a0:	55                   	push   %ebp
    38a1:	89 e5                	mov    %esp,%ebp
    38a3:	56                   	push   %esi
    38a4:	53                   	push   %ebx
    38a5:	83 ec 50             	sub    $0x50,%esp
    38a8:	8d 5d d4             	lea    -0x2c(%ebp),%ebx
    38ab:	90                   	nop
    38ac:	8d 74 26 00          	lea    0x0(%esi,%eiz,1),%esi
    38b0:	c7 44 24 04 00 00 00 	movl   $0x0,0x4(%esp)
    38b7:	00 
    38b8:	89 1c 24             	mov    %ebx,(%esp)
    38bb:	e8 90 0e 01 00       	call   14750 <async_get_call_timeout>
    38c0:	8b 55 d4             	mov    -0x2c(%ebp),%edx
    38c3:	85 d2                	test   %edx,%edx
    38c5:	74 61                	je     3928 <loc_cb_conn+0x88>
    38c7:	81 fa 00 04 00 00    	cmp    $0x400,%edx
    38cd:	74 19                	je     38e8 <loc_cb_conn+0x48>
    38cf:	c7 44 24 04 f5 ff ff 	movl   $0xfffffff5,0x4(%esp)
    38d6:	ff 
    38d7:	89 04 24             	mov    %eax,(%esp)
    38da:	e8 a1 24 01 00       	call   15d80 <async_answer_0>
    38df:	eb cf                	jmp    38b0 <loc_cb_conn+0x10>
    38e1:	8d b4 26 00 00 00 00 	lea    0x0(%esi,%eiz,1),%esi
    38e8:	c7 04 24 48 2b 02 00 	movl   $0x22b48,(%esp)
    38ef:	89 45 c4             	mov    %eax,-0x3c(%ebp)
    38f2:	e8 c9 6a 00 00       	call   a3c0 <fibril_mutex_lock>
    38f7:	c7 04 24 48 2b 02 00 	movl   $0x22b48,(%esp)
    38fe:	8b 35 98 2d 02 00    	mov    0x22d98,%esi
    3904:	e8 d7 6b 00 00       	call   a4e0 <fibril_mutex_unlock>
    3909:	8b 45 c4             	mov    -0x3c(%ebp),%eax
    390c:	c7 44 24 04 00 00 00 	movl   $0x0,0x4(%esp)
    3913:	00 
    3914:	89 04 24             	mov    %eax,(%esp)
    3917:	e8 64 24 01 00       	call   15d80 <async_answer_0>
    391c:	85 f6                	test   %esi,%esi
    391e:	74 90                	je     38b0 <loc_cb_conn+0x10>
    3920:	ff d6                	call   *%esi
    3922:	eb 8c                	jmp    38b0 <loc_cb_conn+0x10>
    3924:	8d 74 26 00          	lea    0x0(%esi,%eiz,1),%esi
    3928:	83 c4 50             	add    $0x50,%esp
    392b:	5b                   	pop    %ebx
    392c:	5e                   	pop    %esi
    392d:	5d                   	pop    %ebp
    392e:	c3                   	ret    
    392f:	90                   	nop

00003930 <loc_exchange_begin.part.0>:
    3930:	55                   	push   %ebp
    3931:	89 e5                	mov    %esp,%ebp
    3933:	83 ec 18             	sub    $0x18,%esp
    3936:	c7 04 24 18 2b 02 00 	movl   $0x22b18,(%esp)
    393d:	e8 7e 6a 00 00       	call   a3c0 <fibril_mutex_lock>
    3942:	a1 88 2d 02 00       	mov    0x22d88,%eax
    3947:	85 c0                	test   %eax,%eax
    3949:	74 25                	je     3970 <loc_exchange_begin.part.0+0x40>
    394b:	c7 04 24 18 2b 02 00 	movl   $0x22b18,(%esp)
    3952:	e8 89 6b 00 00       	call   a4e0 <fibril_mutex_unlock>
    3957:	a1 88 2d 02 00       	mov    0x22d88,%eax
    395c:	85 c0                	test   %eax,%eax
    395e:	74 40                	je     39a0 <loc_exchange_begin.part.0+0x70>
    3960:	89 04 24             	mov    %eax,(%esp)
    3963:	e8 18 2e 01 00       	call   16780 <async_exchange_begin>
    3968:	c9                   	leave  
    3969:	c3                   	ret    
    396a:	8d b6 00 00 00 00    	lea    0x0(%esi),%esi
    3970:	c7 44 24 0c 00 00 00 	movl   $0x0,0xc(%esp)
    3977:	00 
    3978:	c7 44 24 08 01 00 00 	movl   $0x1,0x8(%esp)
    397f:	00 
    3980:	c7 44 24 04 6c 6f 63 	movl   $0x20636f6c,0x4(%esp)
    3987:	20 
    3988:	c7 04 24 02 00 00 00 	movl   $0x2,(%esp)
    398f:	e8 bc 00 01 00       	call   13a50 <service_connect>
    3994:	a3 88 2d 02 00       	mov    %eax,0x22d88
    3999:	eb b0                	jmp    394b <loc_exchange_begin.part.0+0x1b>
    399b:	90                   	nop
    399c:	8d 74 26 00          	lea    0x0(%esi,%eiz,1),%esi
    39a0:	31 c0                	xor    %eax,%eax
    39a2:	c9                   	leave  
    39a3:	c3                   	ret    
    39a4:	8d b6 00 00 00 00    	lea    0x0(%esi),%esi
    39aa:	8d bf 00 00 00 00    	lea    0x0(%edi),%edi

000039b0 <loc_get_name_internal>:
    39b0:	55                   	push   %ebp
    39b1:	89 e5                	mov    %esp,%ebp
    39b3:	57                   	push   %edi
    39b4:	56                   	push   %esi
    39b5:	53                   	push   %ebx
    39b6:	81 ec 8c 01 00 00    	sub    $0x18c,%esp
    39bc:	c7 01 00 00 00 00    	movl   $0x0,(%ecx)
    39c2:	89 85 94 fe ff ff    	mov    %eax,-0x16c(%ebp)
    39c8:	89 d7                	mov    %edx,%edi
    39ca:	c7 04 24 28 2b 02 00 	movl   $0x22b28,(%esp)
    39d1:	89 ce                	mov    %ecx,%esi
    39d3:	e8 e8 69 00 00       	call   a3c0 <fibril_mutex_lock>
    39d8:	a1 94 2d 02 00       	mov    0x22d94,%eax
    39dd:	85 c0                	test   %eax,%eax
    39df:	75 39                	jne    3a1a <loc_get_name_internal+0x6a>
    39e1:	c7 04 24 38 2b 02 00 	movl   $0x22b38,(%esp)
    39e8:	8b 1d 90 2d 02 00    	mov    0x22d90,%ebx
    39ee:	e8 cd 69 00 00       	call   a3c0 <fibril_mutex_lock>
    39f3:	a1 94 2d 02 00       	mov    0x22d94,%eax
    39f8:	85 c0                	test   %eax,%eax
    39fa:	0f 84 40 01 00 00    	je     3b40 <loc_get_name_internal+0x190>
    3a00:	c7 04 24 38 2b 02 00 	movl   $0x22b38,(%esp)
    3a07:	e8 d4 6a 00 00       	call   a4e0 <fibril_mutex_unlock>
    3a0c:	8b 1d 94 2d 02 00    	mov    0x22d94,%ebx
    3a12:	85 db                	test   %ebx,%ebx
    3a14:	0f 84 3e 01 00 00    	je     3b58 <loc_get_name_internal+0x1a8>
    3a1a:	c7 04 24 28 2b 02 00 	movl   $0x22b28,(%esp)
    3a21:	e8 ba 6a 00 00       	call   a4e0 <fibril_mutex_unlock>
    3a26:	c7 04 24 38 2b 02 00 	movl   $0x22b38,(%esp)
    3a2d:	8b 1d 94 2d 02 00    	mov    0x22d94,%ebx
    3a33:	e8 88 69 00 00       	call   a3c0 <fibril_mutex_lock>
    3a38:	8b 0d 90 2d 02 00    	mov    0x22d90,%ecx
    3a3e:	85 c9                	test   %ecx,%ecx
    3a40:	0f 84 62 01 00 00    	je     3ba8 <loc_get_name_internal+0x1f8>
    3a46:	c7 04 24 38 2b 02 00 	movl   $0x22b38,(%esp)
    3a4d:	e8 8e 6a 00 00       	call   a4e0 <fibril_mutex_unlock>
    3a52:	a1 94 2d 02 00       	mov    0x22d94,%eax
    3a57:	89 04 24             	mov    %eax,(%esp)
    3a5a:	e8 21 2d 01 00       	call   16780 <async_exchange_begin>
    3a5f:	89 7c 24 08          	mov    %edi,0x8(%esp)
    3a63:	89 c3                	mov    %eax,%ebx
    3a65:	8d 85 c4 fe ff ff    	lea    -0x13c(%ebp),%eax
    3a6b:	89 44 24 18          	mov    %eax,0x18(%esp)
    3a6f:	8b 85 94 fe ff ff    	mov    -0x16c(%ebp),%eax
    3a75:	c7 44 24 14 00 00 00 	movl   $0x0,0x14(%esp)
    3a7c:	00 
    3a7d:	c7 44 24 10 00 00 00 	movl   $0x0,0x10(%esp)
    3a84:	00 
    3a85:	c7 44 24 0c 00 00 00 	movl   $0x0,0xc(%esp)
    3a8c:	00 
    3a8d:	89 44 24 04          	mov    %eax,0x4(%esp)
    3a91:	89 1c 24             	mov    %ebx,(%esp)
    3a94:	e8 87 16 01 00       	call   15120 <async_send_fast>
    3a99:	c7 44 24 08 ff 00 00 	movl   $0xff,0x8(%esp)
    3aa0:	00 
    3aa1:	89 c7                	mov    %eax,%edi
    3aa3:	8d 85 a0 fe ff ff    	lea    -0x160(%ebp),%eax
    3aa9:	89 44 24 0c          	mov    %eax,0xc(%esp)
    3aad:	8d 85 e8 fe ff ff    	lea    -0x118(%ebp),%eax
    3ab3:	89 44 24 04          	mov    %eax,0x4(%esp)
    3ab7:	89 1c 24             	mov    %ebx,(%esp)
    3aba:	e8 b1 35 01 00       	call   17070 <async_data_read>
    3abf:	8d 8d 98 fe ff ff    	lea    -0x168(%ebp),%ecx
    3ac5:	89 4c 24 04          	mov    %ecx,0x4(%esp)
    3ac9:	89 04 24             	mov    %eax,(%esp)
    3acc:	e8 1f 18 01 00       	call   152f0 <async_wait_for>
    3ad1:	89 1c 24             	mov    %ebx,(%esp)
    3ad4:	e8 17 30 01 00       	call   16af0 <async_exchange_end>
    3ad9:	8b 95 98 fe ff ff    	mov    -0x168(%ebp),%edx
    3adf:	85 d2                	test   %edx,%edx
    3ae1:	0f 85 a1 00 00 00    	jne    3b88 <loc_get_name_internal+0x1d8>
    3ae7:	8d 85 9c fe ff ff    	lea    -0x164(%ebp),%eax
    3aed:	89 3c 24             	mov    %edi,(%esp)
    3af0:	89 44 24 04          	mov    %eax,0x4(%esp)
    3af4:	e8 f7 17 01 00       	call   152f0 <async_wait_for>
    3af9:	8b 85 9c fe ff ff    	mov    -0x164(%ebp),%eax
    3aff:	85 c0                	test   %eax,%eax
    3b01:	75 31                	jne    3b34 <loc_get_name_internal+0x184>
    3b03:	8b 85 a8 fe ff ff    	mov    -0x158(%ebp),%eax
    3b09:	3d ff 00 00 00       	cmp    $0xff,%eax
    3b0e:	0f 87 a7 00 00 00    	ja     3bbb <loc_get_name_internal+0x20b>
    3b14:	c6 84 05 e8 fe ff ff 	movb   $0x0,-0x118(%ebp,%eax,1)
    3b1b:	00 
    3b1c:	8d 85 e8 fe ff ff    	lea    -0x118(%ebp),%eax
    3b22:	89 04 24             	mov    %eax,(%esp)
    3b25:	e8 16 56 00 00       	call   9140 <str_dup>
    3b2a:	83 f8 01             	cmp    $0x1,%eax
    3b2d:	89 06                	mov    %eax,(%esi)
    3b2f:	19 c0                	sbb    %eax,%eax
    3b31:	83 e0 fe             	and    $0xfffffffe,%eax
    3b34:	81 c4 8c 01 00 00    	add    $0x18c,%esp
    3b3a:	5b                   	pop    %ebx
    3b3b:	5e                   	pop    %esi
    3b3c:	5f                   	pop    %edi
    3b3d:	5d                   	pop    %ebp
    3b3e:	c3                   	ret    
    3b3f:	90                   	nop
    3b40:	85 db                	test   %ebx,%ebx
    3b42:	0f 84 b8 fe ff ff    	je     3a00 <loc_get_name_internal+0x50>
    3b48:	89 1d 94 2d 02 00    	mov    %ebx,0x22d94
    3b4e:	e9 ad fe ff ff       	jmp    3a00 <loc_get_name_internal+0x50>
    3b53:	90                   	nop
    3b54:	8d 74 26 00          	lea    0x0(%esi,%eiz,1),%esi
    3b58:	c7 44 24 0c 00 00 00 	movl   $0x0,0xc(%esp)
    3b5f:	00 
    3b60:	c7 44 24 08 02 00 00 	movl   $0x2,0x8(%esp)
    3b67:	00 
    3b68:	c7 44 24 04 6c 6f 63 	movl   $0x20636f6c,0x4(%esp)
    3b6f:	20 
    3b70:	c7 04 24 02 00 00 00 	movl   $0x2,(%esp)
    3b77:	e8 54 ff 00 00       	call   13ad0 <service_connect_blocking>
    3b7c:	a3 94 2d 02 00       	mov    %eax,0x22d94
    3b81:	e9 57 fe ff ff       	jmp    39dd <loc_get_name_internal+0x2d>
    3b86:	66 90                	xchg   %ax,%ax
    3b88:	89 3c 24             	mov    %edi,(%esp)
    3b8b:	e8 b0 19 01 00       	call   15540 <async_forget>
    3b90:	8b 85 98 fe ff ff    	mov    -0x168(%ebp),%eax
    3b96:	81 c4 8c 01 00 00    	add    $0x18c,%esp
    3b9c:	5b                   	pop    %ebx
    3b9d:	5e                   	pop    %esi
    3b9e:	5f                   	pop    %edi
    3b9f:	5d                   	pop    %ebp
    3ba0:	c3                   	ret    
    3ba1:	8d b4 26 00 00 00 00 	lea    0x0(%esi,%eiz,1),%esi
    3ba8:	85 db                	test   %ebx,%ebx
    3baa:	0f 84 96 fe ff ff    	je     3a46 <loc_get_name_internal+0x96>
    3bb0:	89 1d 90 2d 02 00    	mov    %ebx,0x22d90
    3bb6:	e9 8b fe ff ff       	jmp    3a46 <loc_get_name_internal+0x96>
    3bbb:	c7 44 24 08 9e 01 00 	movl   $0x19e,0x8(%esp)
    3bc2:	00 
    3bc3:	c7 44 24 04 88 01 02 	movl   $0x20188,0x4(%esp)
    3bca:	00 
    3bcb:	c7 04 24 96 01 02 00 	movl   $0x20196,(%esp)
    3bd2:	e8 49 9e 01 00       	call   1da20 <assert_abort>
    3bd7:	89 f6                	mov    %esi,%esi
    3bd9:	8d bc 27 00 00 00 00 	lea    0x0(%edi,%eiz,1),%edi

00003be0 <loc_get_ids_internal>:
    3be0:	55                   	push   %ebp
    3be1:	89 e5                	mov    %esp,%ebp
    3be3:	57                   	push   %edi
    3be4:	56                   	push   %esi
    3be5:	53                   	push   %ebx
    3be6:	83 ec 7c             	sub    $0x7c,%esp
    3be9:	89 55 ac             	mov    %edx,-0x54(%ebp)
    3bec:	8b 55 08             	mov    0x8(%ebp),%edx
    3bef:	c7 01 00 00 00 00    	movl   $0x0,(%ecx)
    3bf5:	89 45 b0             	mov    %eax,-0x50(%ebp)
    3bf8:	89 4d a8             	mov    %ecx,-0x58(%ebp)
    3bfb:	c7 02 00 00 00 00    	movl   $0x0,(%edx)
    3c01:	c7 04 24 28 2b 02 00 	movl   $0x22b28,(%esp)
    3c08:	e8 b3 67 00 00       	call   a3c0 <fibril_mutex_lock>
    3c0d:	a1 94 2d 02 00       	mov    0x22d94,%eax
    3c12:	85 c0                	test   %eax,%eax
    3c14:	75 39                	jne    3c4f <loc_get_ids_internal+0x6f>
    3c16:	c7 04 24 38 2b 02 00 	movl   $0x22b38,(%esp)
    3c1d:	8b 1d 90 2d 02 00    	mov    0x22d90,%ebx
    3c23:	e8 98 67 00 00       	call   a3c0 <fibril_mutex_lock>
    3c28:	8b 15 94 2d 02 00    	mov    0x22d94,%edx
    3c2e:	85 d2                	test   %edx,%edx
    3c30:	0f 84 5a 02 00 00    	je     3e90 <loc_get_ids_internal+0x2b0>
    3c36:	c7 04 24 38 2b 02 00 	movl   $0x22b38,(%esp)
    3c3d:	e8 9e 68 00 00       	call   a4e0 <fibril_mutex_unlock>
    3c42:	a1 94 2d 02 00       	mov    0x22d94,%eax
    3c47:	85 c0                	test   %eax,%eax
    3c49:	0f 84 59 02 00 00    	je     3ea8 <loc_get_ids_internal+0x2c8>
    3c4f:	c7 04 24 28 2b 02 00 	movl   $0x22b28,(%esp)
    3c56:	e8 85 68 00 00       	call   a4e0 <fibril_mutex_unlock>
    3c5b:	c7 04 24 38 2b 02 00 	movl   $0x22b38,(%esp)
    3c62:	8b 1d 94 2d 02 00    	mov    0x22d94,%ebx
    3c68:	e8 53 67 00 00       	call   a3c0 <fibril_mutex_lock>
    3c6d:	a1 90 2d 02 00       	mov    0x22d90,%eax
    3c72:	85 c0                	test   %eax,%eax
    3c74:	0f 84 d5 02 00 00    	je     3f4f <loc_get_ids_internal+0x36f>
    3c7a:	c7 04 24 38 2b 02 00 	movl   $0x22b38,(%esp)
    3c81:	e8 5a 68 00 00       	call   a4e0 <fibril_mutex_unlock>
    3c86:	a1 94 2d 02 00       	mov    0x22d94,%eax
    3c8b:	89 04 24             	mov    %eax,(%esp)
    3c8e:	e8 ed 2a 01 00       	call   16780 <async_exchange_begin>
    3c93:	8b 55 ac             	mov    -0x54(%ebp),%edx
    3c96:	89 c6                	mov    %eax,%esi
    3c98:	8d 45 c4             	lea    -0x3c(%ebp),%eax
    3c9b:	89 44 24 18          	mov    %eax,0x18(%esp)
    3c9f:	8b 45 b0             	mov    -0x50(%ebp),%eax
    3ca2:	89 54 24 08          	mov    %edx,0x8(%esp)
    3ca6:	c7 44 24 14 00 00 00 	movl   $0x0,0x14(%esp)
    3cad:	00 
    3cae:	c7 44 24 10 00 00 00 	movl   $0x0,0x10(%esp)
    3cb5:	00 
    3cb6:	c7 44 24 0c 00 00 00 	movl   $0x0,0xc(%esp)
    3cbd:	00 
    3cbe:	89 44 24 04          	mov    %eax,0x4(%esp)
    3cc2:	89 34 24             	mov    %esi,(%esp)
    3cc5:	e8 56 14 01 00       	call   15120 <async_send_fast>
    3cca:	c7 44 24 08 00 00 00 	movl   $0x0,0x8(%esp)
    3cd1:	00 
    3cd2:	c7 44 24 04 00 00 00 	movl   $0x0,0x4(%esp)
    3cd9:	00 
    3cda:	89 34 24             	mov    %esi,(%esp)
    3cdd:	89 c3                	mov    %eax,%ebx
    3cdf:	e8 6c 34 01 00       	call   17150 <async_data_read_start>
    3ce4:	89 34 24             	mov    %esi,(%esp)
    3ce7:	89 c7                	mov    %eax,%edi
    3ce9:	e8 02 2e 01 00       	call   16af0 <async_exchange_end>
    3cee:	85 ff                	test   %edi,%edi
    3cf0:	0f 85 3d 02 00 00    	jne    3f33 <loc_get_ids_internal+0x353>
    3cf6:	8d 55 c0             	lea    -0x40(%ebp),%edx
    3cf9:	89 1c 24             	mov    %ebx,(%esp)
    3cfc:	89 54 24 04          	mov    %edx,0x4(%esp)
    3d00:	e8 eb 15 01 00       	call   152f0 <async_wait_for>
    3d05:	8b 45 c0             	mov    -0x40(%ebp),%eax
    3d08:	85 c0                	test   %eax,%eax
    3d0a:	0f 85 72 01 00 00    	jne    3e82 <loc_get_ids_internal+0x2a2>
    3d10:	8b 7d c8             	mov    -0x38(%ebp),%edi
    3d13:	89 3c 24             	mov    %edi,(%esp)
    3d16:	e8 25 f5 00 00       	call   13240 <malloc>
    3d1b:	89 c6                	mov    %eax,%esi
    3d1d:	85 c0                	test   %eax,%eax
    3d1f:	0f 85 0a 01 00 00    	jne    3e2f <loc_get_ids_internal+0x24f>
    3d25:	e9 1b 02 00 00       	jmp    3f45 <loc_get_ids_internal+0x365>
    3d2a:	8d b6 00 00 00 00    	lea    0x0(%esi),%esi
    3d30:	c7 04 24 38 2b 02 00 	movl   $0x22b38,(%esp)
    3d37:	e8 a4 67 00 00       	call   a4e0 <fibril_mutex_unlock>
    3d3c:	a1 94 2d 02 00       	mov    0x22d94,%eax
    3d41:	85 c0                	test   %eax,%eax
    3d43:	0f 84 8f 01 00 00    	je     3ed8 <loc_get_ids_internal+0x2f8>
    3d49:	c7 04 24 28 2b 02 00 	movl   $0x22b28,(%esp)
    3d50:	e8 8b 67 00 00       	call   a4e0 <fibril_mutex_unlock>
    3d55:	c7 04 24 38 2b 02 00 	movl   $0x22b38,(%esp)
    3d5c:	8b 1d 94 2d 02 00    	mov    0x22d94,%ebx
    3d62:	e8 59 66 00 00       	call   a3c0 <fibril_mutex_lock>
    3d67:	a1 90 2d 02 00       	mov    0x22d90,%eax
    3d6c:	85 c0                	test   %eax,%eax
    3d6e:	0f 84 ac 01 00 00    	je     3f20 <loc_get_ids_internal+0x340>
    3d74:	c7 04 24 38 2b 02 00 	movl   $0x22b38,(%esp)
    3d7b:	e8 60 67 00 00       	call   a4e0 <fibril_mutex_unlock>
    3d80:	a1 94 2d 02 00       	mov    0x22d94,%eax
    3d85:	89 04 24             	mov    %eax,(%esp)
    3d88:	e8 f3 29 01 00       	call   16780 <async_exchange_begin>
    3d8d:	8b 55 ac             	mov    -0x54(%ebp),%edx
    3d90:	89 c3                	mov    %eax,%ebx
    3d92:	8d 45 c4             	lea    -0x3c(%ebp),%eax
    3d95:	89 44 24 18          	mov    %eax,0x18(%esp)
    3d99:	8b 45 b0             	mov    -0x50(%ebp),%eax
    3d9c:	89 54 24 08          	mov    %edx,0x8(%esp)
    3da0:	c7 44 24 14 00 00 00 	movl   $0x0,0x14(%esp)
    3da7:	00 
    3da8:	c7 44 24 10 00 00 00 	movl   $0x0,0x10(%esp)
    3daf:	00 
    3db0:	c7 44 24 0c 00 00 00 	movl   $0x0,0xc(%esp)
    3db7:	00 
    3db8:	89 44 24 04          	mov    %eax,0x4(%esp)
    3dbc:	89 1c 24             	mov    %ebx,(%esp)
    3dbf:	e8 5c 13 01 00       	call   15120 <async_send_fast>
    3dc4:	89 7c 24 08          	mov    %edi,0x8(%esp)
    3dc8:	89 74 24 04          	mov    %esi,0x4(%esp)
    3dcc:	89 1c 24             	mov    %ebx,(%esp)
    3dcf:	89 45 b4             	mov    %eax,-0x4c(%ebp)
    3dd2:	e8 79 33 01 00       	call   17150 <async_data_read_start>
    3dd7:	89 1c 24             	mov    %ebx,(%esp)
    3dda:	89 45 a4             	mov    %eax,-0x5c(%ebp)
    3ddd:	e8 0e 2d 01 00       	call   16af0 <async_exchange_end>
    3de2:	8b 45 a4             	mov    -0x5c(%ebp),%eax
    3de5:	85 c0                	test   %eax,%eax
    3de7:	0f 85 1b 01 00 00    	jne    3f08 <loc_get_ids_internal+0x328>
    3ded:	8d 55 c0             	lea    -0x40(%ebp),%edx
    3df0:	89 45 a4             	mov    %eax,-0x5c(%ebp)
    3df3:	89 54 24 04          	mov    %edx,0x4(%esp)
    3df7:	8b 55 b4             	mov    -0x4c(%ebp),%edx
    3dfa:	89 14 24             	mov    %edx,(%esp)
    3dfd:	e8 ee 14 01 00       	call   152f0 <async_wait_for>
    3e02:	8b 55 c0             	mov    -0x40(%ebp),%edx
    3e05:	85 d2                	test   %edx,%edx
    3e07:	8b 45 a4             	mov    -0x5c(%ebp),%eax
    3e0a:	75 74                	jne    3e80 <loc_get_ids_internal+0x2a0>
    3e0c:	8b 5d c8             	mov    -0x38(%ebp),%ebx
    3e0f:	39 df                	cmp    %ebx,%edi
    3e11:	0f 83 4b 01 00 00    	jae    3f62 <loc_get_ids_internal+0x382>
    3e17:	89 34 24             	mov    %esi,(%esp)
    3e1a:	89 5c 24 04          	mov    %ebx,0x4(%esp)
    3e1e:	e8 7d f7 00 00       	call   135a0 <realloc>
    3e23:	89 df                	mov    %ebx,%edi
    3e25:	89 c6                	mov    %eax,%esi
    3e27:	85 c0                	test   %eax,%eax
    3e29:	0f 84 16 01 00 00    	je     3f45 <loc_get_ids_internal+0x365>
    3e2f:	c7 04 24 28 2b 02 00 	movl   $0x22b28,(%esp)
    3e36:	e8 85 65 00 00       	call   a3c0 <fibril_mutex_lock>
    3e3b:	a1 94 2d 02 00       	mov    0x22d94,%eax
    3e40:	85 c0                	test   %eax,%eax
    3e42:	0f 85 01 ff ff ff    	jne    3d49 <loc_get_ids_internal+0x169>
    3e48:	c7 04 24 38 2b 02 00 	movl   $0x22b38,(%esp)
    3e4f:	8b 1d 90 2d 02 00    	mov    0x22d90,%ebx
    3e55:	e8 66 65 00 00       	call   a3c0 <fibril_mutex_lock>
    3e5a:	a1 94 2d 02 00       	mov    0x22d94,%eax
    3e5f:	85 c0                	test   %eax,%eax
    3e61:	0f 85 c9 fe ff ff    	jne    3d30 <loc_get_ids_internal+0x150>
    3e67:	85 db                	test   %ebx,%ebx
    3e69:	0f 84 c1 fe ff ff    	je     3d30 <loc_get_ids_internal+0x150>
    3e6f:	89 1d 94 2d 02 00    	mov    %ebx,0x22d94
    3e75:	e9 b6 fe ff ff       	jmp    3d30 <loc_get_ids_internal+0x150>
    3e7a:	8d b6 00 00 00 00    	lea    0x0(%esi),%esi
    3e80:	89 d0                	mov    %edx,%eax
    3e82:	89 c7                	mov    %eax,%edi
    3e84:	83 c4 7c             	add    $0x7c,%esp
    3e87:	89 f8                	mov    %edi,%eax
    3e89:	5b                   	pop    %ebx
    3e8a:	5e                   	pop    %esi
    3e8b:	5f                   	pop    %edi
    3e8c:	5d                   	pop    %ebp
    3e8d:	c3                   	ret    
    3e8e:	66 90                	xchg   %ax,%ax
    3e90:	85 db                	test   %ebx,%ebx
    3e92:	0f 84 9e fd ff ff    	je     3c36 <loc_get_ids_internal+0x56>
    3e98:	89 1d 94 2d 02 00    	mov    %ebx,0x22d94
    3e9e:	e9 93 fd ff ff       	jmp    3c36 <loc_get_ids_internal+0x56>
    3ea3:	90                   	nop
    3ea4:	8d 74 26 00          	lea    0x0(%esi,%eiz,1),%esi
    3ea8:	c7 44 24 0c 00 00 00 	movl   $0x0,0xc(%esp)
    3eaf:	00 
    3eb0:	c7 44 24 08 02 00 00 	movl   $0x2,0x8(%esp)
    3eb7:	00 
    3eb8:	c7 44 24 04 6c 6f 63 	movl   $0x20636f6c,0x4(%esp)
    3ebf:	20 
    3ec0:	c7 04 24 02 00 00 00 	movl   $0x2,(%esp)
    3ec7:	e8 04 fc 00 00       	call   13ad0 <service_connect_blocking>
    3ecc:	a3 94 2d 02 00       	mov    %eax,0x22d94
    3ed1:	e9 3c fd ff ff       	jmp    3c12 <loc_get_ids_internal+0x32>
    3ed6:	66 90                	xchg   %ax,%ax
    3ed8:	c7 44 24 0c 00 00 00 	movl   $0x0,0xc(%esp)
    3edf:	00 
    3ee0:	c7 44 24 08 02 00 00 	movl   $0x2,0x8(%esp)
    3ee7:	00 
    3ee8:	c7 44 24 04 6c 6f 63 	movl   $0x20636f6c,0x4(%esp)
    3eef:	20 
    3ef0:	c7 04 24 02 00 00 00 	movl   $0x2,(%esp)
    3ef7:	e8 d4 fb 00 00       	call   13ad0 <service_connect_blocking>
    3efc:	a3 94 2d 02 00       	mov    %eax,0x22d94
    3f01:	e9 3a ff ff ff       	jmp    3e40 <loc_get_ids_internal+0x260>
    3f06:	66 90                	xchg   %ax,%ax
    3f08:	89 c7                	mov    %eax,%edi
    3f0a:	8b 45 b4             	mov    -0x4c(%ebp),%eax
    3f0d:	89 04 24             	mov    %eax,(%esp)
    3f10:	e8 2b 16 01 00       	call   15540 <async_forget>
    3f15:	83 c4 7c             	add    $0x7c,%esp
    3f18:	89 f8                	mov    %edi,%eax
    3f1a:	5b                   	pop    %ebx
    3f1b:	5e                   	pop    %esi
    3f1c:	5f                   	pop    %edi
    3f1d:	5d                   	pop    %ebp
    3f1e:	c3                   	ret    
    3f1f:	90                   	nop
    3f20:	85 db                	test   %ebx,%ebx
    3f22:	0f 84 4c fe ff ff    	je     3d74 <loc_get_ids_internal+0x194>
    3f28:	89 1d 90 2d 02 00    	mov    %ebx,0x22d90
    3f2e:	e9 41 fe ff ff       	jmp    3d74 <loc_get_ids_internal+0x194>
    3f33:	89 1c 24             	mov    %ebx,(%esp)
    3f36:	e8 05 16 01 00       	call   15540 <async_forget>
    3f3b:	83 c4 7c             	add    $0x7c,%esp
    3f3e:	89 f8                	mov    %edi,%eax
    3f40:	5b                   	pop    %ebx
    3f41:	5e                   	pop    %esi
    3f42:	5f                   	pop    %edi
    3f43:	5d                   	pop    %ebp
    3f44:	c3                   	ret    
    3f45:	bf fe ff ff ff       	mov    $0xfffffffe,%edi
    3f4a:	e9 35 ff ff ff       	jmp    3e84 <loc_get_ids_internal+0x2a4>
    3f4f:	85 db                	test   %ebx,%ebx
    3f51:	0f 84 23 fd ff ff    	je     3c7a <loc_get_ids_internal+0x9a>
    3f57:	89 1d 90 2d 02 00    	mov    %ebx,0x22d90
    3f5d:	e9 18 fd ff ff       	jmp    3c7a <loc_get_ids_internal+0x9a>
    3f62:	89 c7                	mov    %eax,%edi
    3f64:	8b 55 08             	mov    0x8(%ebp),%edx
    3f67:	c1 eb 02             	shr    $0x2,%ebx
    3f6a:	8b 45 a8             	mov    -0x58(%ebp),%eax
    3f6d:	89 1a                	mov    %ebx,(%edx)
    3f6f:	89 30                	mov    %esi,(%eax)
    3f71:	e9 0e ff ff ff       	jmp    3e84 <loc_get_ids_internal+0x2a4>
    3f76:	8d 76 00             	lea    0x0(%esi),%esi
    3f79:	8d bc 27 00 00 00 00 	lea    0x0(%edi,%eiz,1),%edi

00003f80 <loc_exchange_begin_blocking>:
    3f80:	55                   	push   %ebp
    3f81:	89 e5                	mov    %esp,%ebp
    3f83:	53                   	push   %ebx
    3f84:	83 ec 14             	sub    $0x14,%esp
    3f87:	8b 45 08             	mov    0x8(%ebp),%eax
    3f8a:	83 f8 01             	cmp    $0x1,%eax
    3f8d:	74 11                	je     3fa0 <loc_exchange_begin_blocking+0x20>
    3f8f:	83 f8 02             	cmp    $0x2,%eax
    3f92:	0f 84 b0 00 00 00    	je     4048 <loc_exchange_begin_blocking+0xc8>
    3f98:	83 c4 14             	add    $0x14,%esp
    3f9b:	31 c0                	xor    %eax,%eax
    3f9d:	5b                   	pop    %ebx
    3f9e:	5d                   	pop    %ebp
    3f9f:	c3                   	ret    
    3fa0:	c7 04 24 08 2b 02 00 	movl   $0x22b08,(%esp)
    3fa7:	e8 14 64 00 00       	call   a3c0 <fibril_mutex_lock>
    3fac:	a1 8c 2d 02 00       	mov    0x22d8c,%eax
    3fb1:	85 c0                	test   %eax,%eax
    3fb3:	75 34                	jne    3fe9 <loc_exchange_begin_blocking+0x69>
    3fb5:	c7 04 24 18 2b 02 00 	movl   $0x22b18,(%esp)
    3fbc:	8b 1d 88 2d 02 00    	mov    0x22d88,%ebx
    3fc2:	e8 f9 63 00 00       	call   a3c0 <fibril_mutex_lock>
    3fc7:	a1 8c 2d 02 00       	mov    0x22d8c,%eax
    3fcc:	85 c0                	test   %eax,%eax
    3fce:	74 68                	je     4038 <loc_exchange_begin_blocking+0xb8>
    3fd0:	c7 04 24 18 2b 02 00 	movl   $0x22b18,(%esp)
    3fd7:	e8 04 65 00 00       	call   a4e0 <fibril_mutex_unlock>
    3fdc:	a1 8c 2d 02 00       	mov    0x22d8c,%eax
    3fe1:	85 c0                	test   %eax,%eax
    3fe3:	0f 84 07 01 00 00    	je     40f0 <loc_exchange_begin_blocking+0x170>
    3fe9:	c7 04 24 08 2b 02 00 	movl   $0x22b08,(%esp)
    3ff0:	e8 eb 64 00 00       	call   a4e0 <fibril_mutex_unlock>
    3ff5:	c7 04 24 18 2b 02 00 	movl   $0x22b18,(%esp)
    3ffc:	8b 1d 8c 2d 02 00    	mov    0x22d8c,%ebx
    4002:	e8 b9 63 00 00       	call   a3c0 <fibril_mutex_lock>
    4007:	a1 88 2d 02 00       	mov    0x22d88,%eax
    400c:	85 c0                	test   %eax,%eax
    400e:	0f 84 3c 01 00 00    	je     4150 <loc_exchange_begin_blocking+0x1d0>
    4014:	c7 04 24 18 2b 02 00 	movl   $0x22b18,(%esp)
    401b:	e8 c0 64 00 00       	call   a4e0 <fibril_mutex_unlock>
    4020:	a1 8c 2d 02 00       	mov    0x22d8c,%eax
    4025:	89 45 08             	mov    %eax,0x8(%ebp)
    4028:	83 c4 14             	add    $0x14,%esp
    402b:	5b                   	pop    %ebx
    402c:	5d                   	pop    %ebp
    402d:	e9 4e 27 01 00       	jmp    16780 <async_exchange_begin>
    4032:	8d b6 00 00 00 00    	lea    0x0(%esi),%esi
    4038:	85 db                	test   %ebx,%ebx
    403a:	74 94                	je     3fd0 <loc_exchange_begin_blocking+0x50>
    403c:	89 1d 8c 2d 02 00    	mov    %ebx,0x22d8c
    4042:	eb 8c                	jmp    3fd0 <loc_exchange_begin_blocking+0x50>
    4044:	8d 74 26 00          	lea    0x0(%esi,%eiz,1),%esi
    4048:	c7 04 24 28 2b 02 00 	movl   $0x22b28,(%esp)
    404f:	e8 6c 63 00 00       	call   a3c0 <fibril_mutex_lock>
    4054:	a1 94 2d 02 00       	mov    0x22d94,%eax
    4059:	85 c0                	test   %eax,%eax
    405b:	75 35                	jne    4092 <loc_exchange_begin_blocking+0x112>
    405d:	c7 04 24 38 2b 02 00 	movl   $0x22b38,(%esp)
    4064:	8b 1d 90 2d 02 00    	mov    0x22d90,%ebx
    406a:	e8 51 63 00 00       	call   a3c0 <fibril_mutex_lock>
    406f:	a1 94 2d 02 00       	mov    0x22d94,%eax
    4074:	85 c0                	test   %eax,%eax
    4076:	74 68                	je     40e0 <loc_exchange_begin_blocking+0x160>
    4078:	c7 04 24 38 2b 02 00 	movl   $0x22b38,(%esp)
    407f:	e8 5c 64 00 00       	call   a4e0 <fibril_mutex_unlock>
    4084:	8b 1d 94 2d 02 00    	mov    0x22d94,%ebx
    408a:	85 db                	test   %ebx,%ebx
    408c:	0f 84 8e 00 00 00    	je     4120 <loc_exchange_begin_blocking+0x1a0>
    4092:	c7 04 24 28 2b 02 00 	movl   $0x22b28,(%esp)
    4099:	e8 42 64 00 00       	call   a4e0 <fibril_mutex_unlock>
    409e:	c7 04 24 38 2b 02 00 	movl   $0x22b38,(%esp)
    40a5:	8b 1d 94 2d 02 00    	mov    0x22d94,%ebx
    40ab:	e8 10 63 00 00       	call   a3c0 <fibril_mutex_lock>
    40b0:	8b 0d 90 2d 02 00    	mov    0x22d90,%ecx
    40b6:	85 c9                	test   %ecx,%ecx
    40b8:	0f 84 aa 00 00 00    	je     4168 <loc_exchange_begin_blocking+0x1e8>
    40be:	c7 04 24 38 2b 02 00 	movl   $0x22b38,(%esp)
    40c5:	e8 16 64 00 00       	call   a4e0 <fibril_mutex_unlock>
    40ca:	a1 94 2d 02 00       	mov    0x22d94,%eax
    40cf:	89 45 08             	mov    %eax,0x8(%ebp)
    40d2:	83 c4 14             	add    $0x14,%esp
    40d5:	5b                   	pop    %ebx
    40d6:	5d                   	pop    %ebp
    40d7:	e9 a4 26 01 00       	jmp    16780 <async_exchange_begin>
    40dc:	8d 74 26 00          	lea    0x0(%esi,%eiz,1),%esi
    40e0:	85 db                	test   %ebx,%ebx
    40e2:	74 94                	je     4078 <loc_exchange_begin_blocking+0xf8>
    40e4:	89 1d 94 2d 02 00    	mov    %ebx,0x22d94
    40ea:	eb 8c                	jmp    4078 <loc_exchange_begin_blocking+0xf8>
    40ec:	8d 74 26 00          	lea    0x0(%esi,%eiz,1),%esi
    40f0:	c7 44 24 0c 00 00 00 	movl   $0x0,0xc(%esp)
    40f7:	00 
    40f8:	c7 44 24 08 01 00 00 	movl   $0x1,0x8(%esp)
    40ff:	00 
    4100:	c7 44 24 04 6c 6f 63 	movl   $0x20636f6c,0x4(%esp)
    4107:	20 
    4108:	c7 04 24 02 00 00 00 	movl   $0x2,(%esp)
    410f:	e8 bc f9 00 00       	call   13ad0 <service_connect_blocking>
    4114:	a3 8c 2d 02 00       	mov    %eax,0x22d8c
    4119:	e9 93 fe ff ff       	jmp    3fb1 <loc_exchange_begin_blocking+0x31>
    411e:	66 90                	xchg   %ax,%ax
    4120:	c7 44 24 0c 00 00 00 	movl   $0x0,0xc(%esp)
    4127:	00 
    4128:	c7 44 24 08 02 00 00 	movl   $0x2,0x8(%esp)
    412f:	00 
    4130:	c7 44 24 04 6c 6f 63 	movl   $0x20636f6c,0x4(%esp)
    4137:	20 
    4138:	c7 04 24 02 00 00 00 	movl   $0x2,(%esp)
    413f:	e8 8c f9 00 00       	call   13ad0 <service_connect_blocking>
    4144:	a3 94 2d 02 00       	mov    %eax,0x22d94
    4149:	e9 0b ff ff ff       	jmp    4059 <loc_exchange_begin_blocking+0xd9>
    414e:	66 90                	xchg   %ax,%ax
    4150:	85 db                	test   %ebx,%ebx
    4152:	0f 84 bc fe ff ff    	je     4014 <loc_exchange_begin_blocking+0x94>
    4158:	89 1d 88 2d 02 00    	mov    %ebx,0x22d88
    415e:	e9 b1 fe ff ff       	jmp    4014 <loc_exchange_begin_blocking+0x94>
    4163:	90                   	nop
    4164:	8d 74 26 00          	lea    0x0(%esi,%eiz,1),%esi
    4168:	85 db                	test   %ebx,%ebx
    416a:	0f 84 4e ff ff ff    	je     40be <loc_exchange_begin_blocking+0x13e>
    4170:	89 1d 90 2d 02 00    	mov    %ebx,0x22d90
    4176:	e9 43 ff ff ff       	jmp    40be <loc_exchange_begin_blocking+0x13e>
    417b:	90                   	nop
    417c:	8d 74 26 00          	lea    0x0(%esi,%eiz,1),%esi

00004180 <loc_exchange_begin>:
    4180:	55                   	push   %ebp
    4181:	89 e5                	mov    %esp,%ebp
    4183:	83 ec 18             	sub    $0x18,%esp
    4186:	8b 45 08             	mov    0x8(%ebp),%eax
    4189:	83 f8 01             	cmp    $0x1,%eax
    418c:	74 0a                	je     4198 <loc_exchange_begin+0x18>
    418e:	83 f8 02             	cmp    $0x2,%eax
    4191:	74 3d                	je     41d0 <loc_exchange_begin+0x50>
    4193:	31 c0                	xor    %eax,%eax
    4195:	c9                   	leave  
    4196:	c3                   	ret    
    4197:	90                   	nop
    4198:	c7 04 24 18 2b 02 00 	movl   $0x22b18,(%esp)
    419f:	e8 1c 62 00 00       	call   a3c0 <fibril_mutex_lock>
    41a4:	a1 88 2d 02 00       	mov    0x22d88,%eax
    41a9:	85 c0                	test   %eax,%eax
    41ab:	74 5b                	je     4208 <loc_exchange_begin+0x88>
    41ad:	c7 04 24 18 2b 02 00 	movl   $0x22b18,(%esp)
    41b4:	e8 27 63 00 00       	call   a4e0 <fibril_mutex_unlock>
    41b9:	a1 88 2d 02 00       	mov    0x22d88,%eax
    41be:	85 c0                	test   %eax,%eax
    41c0:	74 d1                	je     4193 <loc_exchange_begin+0x13>
    41c2:	89 45 08             	mov    %eax,0x8(%ebp)
    41c5:	c9                   	leave  
    41c6:	e9 b5 25 01 00       	jmp    16780 <async_exchange_begin>
    41cb:	90                   	nop
    41cc:	8d 74 26 00          	lea    0x0(%esi,%eiz,1),%esi
    41d0:	c7 04 24 38 2b 02 00 	movl   $0x22b38,(%esp)
    41d7:	e8 e4 61 00 00       	call   a3c0 <fibril_mutex_lock>
    41dc:	a1 90 2d 02 00       	mov    0x22d90,%eax
    41e1:	85 c0                	test   %eax,%eax
    41e3:	74 53                	je     4238 <loc_exchange_begin+0xb8>
    41e5:	c7 04 24 38 2b 02 00 	movl   $0x22b38,(%esp)
    41ec:	e8 ef 62 00 00       	call   a4e0 <fibril_mutex_unlock>
    41f1:	a1 90 2d 02 00       	mov    0x22d90,%eax
    41f6:	85 c0                	test   %eax,%eax
    41f8:	74 99                	je     4193 <loc_exchange_begin+0x13>
    41fa:	89 45 08             	mov    %eax,0x8(%ebp)
    41fd:	c9                   	leave  
    41fe:	e9 7d 25 01 00       	jmp    16780 <async_exchange_begin>
    4203:	90                   	nop
    4204:	8d 74 26 00          	lea    0x0(%esi,%eiz,1),%esi
    4208:	c7 44 24 0c 00 00 00 	movl   $0x0,0xc(%esp)
    420f:	00 
    4210:	c7 44 24 08 01 00 00 	movl   $0x1,0x8(%esp)
    4217:	00 
    4218:	c7 44 24 04 6c 6f 63 	movl   $0x20636f6c,0x4(%esp)
    421f:	20 
    4220:	c7 04 24 02 00 00 00 	movl   $0x2,(%esp)
    4227:	e8 24 f8 00 00       	call   13a50 <service_connect>
    422c:	a3 88 2d 02 00       	mov    %eax,0x22d88
    4231:	e9 77 ff ff ff       	jmp    41ad <loc_exchange_begin+0x2d>
    4236:	66 90                	xchg   %ax,%ax
    4238:	c7 44 24 0c 00 00 00 	movl   $0x0,0xc(%esp)
    423f:	00 
    4240:	c7 44 24 08 02 00 00 	movl   $0x2,0x8(%esp)
    4247:	00 
    4248:	c7 44 24 04 6c 6f 63 	movl   $0x20636f6c,0x4(%esp)
    424f:	20 
    4250:	c7 04 24 02 00 00 00 	movl   $0x2,(%esp)
    4257:	e8 f4 f7 00 00       	call   13a50 <service_connect>
    425c:	a3 90 2d 02 00       	mov    %eax,0x22d90
    4261:	eb 82                	jmp    41e5 <loc_exchange_begin+0x65>
    4263:	8d b6 00 00 00 00    	lea    0x0(%esi),%esi
    4269:	8d bc 27 00 00 00 00 	lea    0x0(%edi,%eiz,1),%edi

00004270 <loc_exchange_end>:
    4270:	55                   	push   %ebp
    4271:	89 e5                	mov    %esp,%ebp
    4273:	5d                   	pop    %ebp
    4274:	e9 77 28 01 00       	jmp    16af0 <async_exchange_end>
    4279:	8d b4 26 00 00 00 00 	lea    0x0(%esi,%eiz,1),%esi

00004280 <loc_server_register>:
    4280:	55                   	push   %ebp
    4281:	89 e5                	mov    %esp,%ebp
    4283:	57                   	push   %edi
    4284:	56                   	push   %esi
    4285:	53                   	push   %ebx
    4286:	83 ec 5c             	sub    $0x5c,%esp
    4289:	8b 75 08             	mov    0x8(%ebp),%esi
    428c:	c7 04 24 08 2b 02 00 	movl   $0x22b08,(%esp)
    4293:	e8 28 61 00 00       	call   a3c0 <fibril_mutex_lock>
    4298:	a1 8c 2d 02 00       	mov    0x22d8c,%eax
    429d:	85 c0                	test   %eax,%eax
    429f:	75 38                	jne    42d9 <loc_server_register+0x59>
    42a1:	c7 04 24 18 2b 02 00 	movl   $0x22b18,(%esp)
    42a8:	8b 1d 88 2d 02 00    	mov    0x22d88,%ebx
    42ae:	e8 0d 61 00 00       	call   a3c0 <fibril_mutex_lock>
    42b3:	a1 8c 2d 02 00       	mov    0x22d8c,%eax
    42b8:	85 c0                	test   %eax,%eax
    42ba:	0f 84 58 01 00 00    	je     4418 <loc_server_register+0x198>
    42c0:	c7 04 24 18 2b 02 00 	movl   $0x22b18,(%esp)
    42c7:	e8 14 62 00 00       	call   a4e0 <fibril_mutex_unlock>
    42cc:	a1 8c 2d 02 00       	mov    0x22d8c,%eax
    42d1:	85 c0                	test   %eax,%eax
    42d3:	0f 84 57 01 00 00    	je     4430 <loc_server_register+0x1b0>
    42d9:	c7 04 24 08 2b 02 00 	movl   $0x22b08,(%esp)
    42e0:	e8 fb 61 00 00       	call   a4e0 <fibril_mutex_unlock>
    42e5:	c7 04 24 18 2b 02 00 	movl   $0x22b18,(%esp)
    42ec:	8b 1d 8c 2d 02 00    	mov    0x22d8c,%ebx
    42f2:	e8 c9 60 00 00       	call   a3c0 <fibril_mutex_lock>
    42f7:	8b 3d 88 2d 02 00    	mov    0x22d88,%edi
    42fd:	85 ff                	test   %edi,%edi
    42ff:	0f 84 73 01 00 00    	je     4478 <loc_server_register+0x1f8>
    4305:	c7 04 24 18 2b 02 00 	movl   $0x22b18,(%esp)
    430c:	e8 cf 61 00 00       	call   a4e0 <fibril_mutex_unlock>
    4311:	a1 8c 2d 02 00       	mov    0x22d8c,%eax
    4316:	89 04 24             	mov    %eax,(%esp)
    4319:	e8 62 24 01 00       	call   16780 <async_exchange_begin>
    431e:	c7 44 24 14 00 00 00 	movl   $0x0,0x14(%esp)
    4325:	00 
    4326:	89 c3                	mov    %eax,%ebx
    4328:	8d 45 c4             	lea    -0x3c(%ebp),%eax
    432b:	89 44 24 18          	mov    %eax,0x18(%esp)
    432f:	c7 44 24 10 00 00 00 	movl   $0x0,0x10(%esp)
    4336:	00 
    4337:	c7 44 24 0c 00 00 00 	movl   $0x0,0xc(%esp)
    433e:	00 
    433f:	c7 44 24 08 00 00 00 	movl   $0x0,0x8(%esp)
    4346:	00 
    4347:	c7 44 24 04 00 04 00 	movl   $0x400,0x4(%esp)
    434e:	00 
    434f:	89 1c 24             	mov    %ebx,(%esp)
    4352:	e8 c9 0d 01 00       	call   15120 <async_send_fast>
    4357:	89 34 24             	mov    %esi,(%esp)
    435a:	89 c7                	mov    %eax,%edi
    435c:	e8 3f 2e 00 00       	call   71a0 <str_size>
    4361:	89 74 24 04          	mov    %esi,0x4(%esp)
    4365:	89 44 24 08          	mov    %eax,0x8(%esp)
    4369:	89 1c 24             	mov    %ebx,(%esp)
    436c:	e8 ff 32 01 00       	call   17670 <async_data_write_start>
    4371:	89 1c 24             	mov    %ebx,(%esp)
    4374:	89 45 c0             	mov    %eax,-0x40(%ebp)
    4377:	e8 74 27 01 00       	call   16af0 <async_exchange_end>
    437c:	8b 4d c0             	mov    -0x40(%ebp),%ecx
    437f:	85 c9                	test   %ecx,%ecx
    4381:	0f 85 d9 00 00 00    	jne    4460 <loc_server_register+0x1e0>
    4387:	c7 04 24 18 2b 02 00 	movl   $0x22b18,(%esp)
    438e:	e8 2d 60 00 00       	call   a3c0 <fibril_mutex_lock>
    4393:	8b 15 88 2d 02 00    	mov    0x22d88,%edx
    4399:	85 d2                	test   %edx,%edx
    439b:	0f 84 ea 00 00 00    	je     448b <loc_server_register+0x20b>
    43a1:	c7 04 24 18 2b 02 00 	movl   $0x22b18,(%esp)
    43a8:	e8 33 61 00 00       	call   a4e0 <fibril_mutex_unlock>
    43ad:	a1 88 2d 02 00       	mov    0x22d88,%eax
    43b2:	85 c0                	test   %eax,%eax
    43b4:	0f 84 ff 00 00 00    	je     44b9 <loc_server_register+0x239>
    43ba:	89 04 24             	mov    %eax,(%esp)
    43bd:	e8 be 23 01 00       	call   16780 <async_exchange_begin>
    43c2:	89 c3                	mov    %eax,%ebx
    43c4:	89 1c 24             	mov    %ebx,(%esp)
    43c7:	c7 44 24 14 00 00 00 	movl   $0x0,0x14(%esp)
    43ce:	00 
    43cf:	c7 44 24 10 00 00 00 	movl   $0x0,0x10(%esp)
    43d6:	00 
    43d7:	c7 44 24 0c 00 00 00 	movl   $0x0,0xc(%esp)
    43de:	00 
    43df:	c7 44 24 08 00 00 00 	movl   $0x0,0x8(%esp)
    43e6:	00 
    43e7:	c7 44 24 04 00 00 00 	movl   $0x0,0x4(%esp)
    43ee:	00 
    43ef:	e8 2c 1b 01 00       	call   15f20 <async_connect_to_me>
    43f4:	89 1c 24             	mov    %ebx,(%esp)
    43f7:	e8 f4 26 01 00       	call   16af0 <async_exchange_end>
    43fc:	8d 45 c0             	lea    -0x40(%ebp),%eax
    43ff:	89 44 24 04          	mov    %eax,0x4(%esp)
    4403:	89 3c 24             	mov    %edi,(%esp)
    4406:	e8 e5 0e 01 00       	call   152f0 <async_wait_for>
    440b:	8b 45 c0             	mov    -0x40(%ebp),%eax
    440e:	83 c4 5c             	add    $0x5c,%esp
    4411:	5b                   	pop    %ebx
    4412:	5e                   	pop    %esi
    4413:	5f                   	pop    %edi
    4414:	5d                   	pop    %ebp
    4415:	c3                   	ret    
    4416:	66 90                	xchg   %ax,%ax
    4418:	85 db                	test   %ebx,%ebx
    441a:	0f 84 a0 fe ff ff    	je     42c0 <loc_server_register+0x40>
    4420:	89 1d 8c 2d 02 00    	mov    %ebx,0x22d8c
    4426:	e9 95 fe ff ff       	jmp    42c0 <loc_server_register+0x40>
    442b:	90                   	nop
    442c:	8d 74 26 00          	lea    0x0(%esi,%eiz,1),%esi
    4430:	c7 44 24 0c 00 00 00 	movl   $0x0,0xc(%esp)
    4437:	00 
    4438:	c7 44 24 08 01 00 00 	movl   $0x1,0x8(%esp)
    443f:	00 
    4440:	c7 44 24 04 6c 6f 63 	movl   $0x20636f6c,0x4(%esp)
    4447:	20 
    4448:	c7 04 24 02 00 00 00 	movl   $0x2,(%esp)
    444f:	e8 7c f6 00 00       	call   13ad0 <service_connect_blocking>
    4454:	a3 8c 2d 02 00       	mov    %eax,0x22d8c
    4459:	e9 3f fe ff ff       	jmp    429d <loc_server_register+0x1d>
    445e:	66 90                	xchg   %ax,%ax
    4460:	89 3c 24             	mov    %edi,(%esp)
    4463:	e8 d8 10 01 00       	call   15540 <async_forget>
    4468:	8b 45 c0             	mov    -0x40(%ebp),%eax
    446b:	83 c4 5c             	add    $0x5c,%esp
    446e:	5b                   	pop    %ebx
    446f:	5e                   	pop    %esi
    4470:	5f                   	pop    %edi
    4471:	5d                   	pop    %ebp
    4472:	c3                   	ret    
    4473:	90                   	nop
    4474:	8d 74 26 00          	lea    0x0(%esi,%eiz,1),%esi
    4478:	85 db                	test   %ebx,%ebx
    447a:	0f 84 85 fe ff ff    	je     4305 <loc_server_register+0x85>
    4480:	89 1d 88 2d 02 00    	mov    %ebx,0x22d88
    4486:	e9 7a fe ff ff       	jmp    4305 <loc_server_register+0x85>
    448b:	c7 44 24 0c 00 00 00 	movl   $0x0,0xc(%esp)
    4492:	00 
    4493:	c7 44 24 08 01 00 00 	movl   $0x1,0x8(%esp)
    449a:	00 
    449b:	c7 44 24 04 6c 6f 63 	movl   $0x20636f6c,0x4(%esp)
    44a2:	20 
    44a3:	c7 04 24 02 00 00 00 	movl   $0x2,(%esp)
    44aa:	e8 a1 f5 00 00       	call   13a50 <service_connect>
    44af:	a3 88 2d 02 00       	mov    %eax,0x22d88
    44b4:	e9 e8 fe ff ff       	jmp    43a1 <loc_server_register+0x121>
    44b9:	31 db                	xor    %ebx,%ebx
    44bb:	e9 04 ff ff ff       	jmp    43c4 <loc_server_register+0x144>

000044c0 <loc_service_register_with_iface>:
    44c0:	55                   	push   %ebp
    44c1:	89 e5                	mov    %esp,%ebp
    44c3:	57                   	push   %edi
    44c4:	56                   	push   %esi
    44c5:	53                   	push   %ebx
    44c6:	83 ec 5c             	sub    $0x5c,%esp
    44c9:	8b 75 08             	mov    0x8(%ebp),%esi
    44cc:	c7 04 24 08 2b 02 00 	movl   $0x22b08,(%esp)
    44d3:	e8 e8 5e 00 00       	call   a3c0 <fibril_mutex_lock>
    44d8:	a1 8c 2d 02 00       	mov    0x22d8c,%eax
    44dd:	85 c0                	test   %eax,%eax
    44df:	75 38                	jne    4519 <loc_service_register_with_iface+0x59>
    44e1:	c7 04 24 18 2b 02 00 	movl   $0x22b18,(%esp)
    44e8:	8b 1d 88 2d 02 00    	mov    0x22d88,%ebx
    44ee:	e8 cd 5e 00 00       	call   a3c0 <fibril_mutex_lock>
    44f3:	a1 8c 2d 02 00       	mov    0x22d8c,%eax
    44f8:	85 c0                	test   %eax,%eax
    44fa:	0f 84 f8 00 00 00    	je     45f8 <loc_service_register_with_iface+0x138>
    4500:	c7 04 24 18 2b 02 00 	movl   $0x22b18,(%esp)
    4507:	e8 d4 5f 00 00       	call   a4e0 <fibril_mutex_unlock>
    450c:	a1 8c 2d 02 00       	mov    0x22d8c,%eax
    4511:	85 c0                	test   %eax,%eax
    4513:	0f 84 f7 00 00 00    	je     4610 <loc_service_register_with_iface+0x150>
    4519:	c7 04 24 08 2b 02 00 	movl   $0x22b08,(%esp)
    4520:	e8 bb 5f 00 00       	call   a4e0 <fibril_mutex_unlock>
    4525:	c7 04 24 18 2b 02 00 	movl   $0x22b18,(%esp)
    452c:	8b 1d 8c 2d 02 00    	mov    0x22d8c,%ebx
    4532:	e8 89 5e 00 00       	call   a3c0 <fibril_mutex_lock>
    4537:	8b 3d 88 2d 02 00    	mov    0x22d88,%edi
    453d:	85 ff                	test   %edi,%edi
    453f:	0f 84 33 01 00 00    	je     4678 <loc_service_register_with_iface+0x1b8>
    4545:	c7 04 24 18 2b 02 00 	movl   $0x22b18,(%esp)
    454c:	e8 8f 5f 00 00       	call   a4e0 <fibril_mutex_unlock>
    4551:	a1 8c 2d 02 00       	mov    0x22d8c,%eax
    4556:	89 04 24             	mov    %eax,(%esp)
    4559:	e8 22 22 01 00       	call   16780 <async_exchange_begin>
    455e:	c7 44 24 14 00 00 00 	movl   $0x0,0x14(%esp)
    4565:	00 
    4566:	89 c7                	mov    %eax,%edi
    4568:	8d 45 c4             	lea    -0x3c(%ebp),%eax
    456b:	89 44 24 18          	mov    %eax,0x18(%esp)
    456f:	8b 45 10             	mov    0x10(%ebp),%eax
    4572:	c7 44 24 10 00 00 00 	movl   $0x0,0x10(%esp)
    4579:	00 
    457a:	c7 44 24 0c 00 00 00 	movl   $0x0,0xc(%esp)
    4581:	00 
    4582:	89 44 24 08          	mov    %eax,0x8(%esp)
    4586:	c7 44 24 04 03 04 00 	movl   $0x403,0x4(%esp)
    458d:	00 
    458e:	89 3c 24             	mov    %edi,(%esp)
    4591:	e8 8a 0b 01 00       	call   15120 <async_send_fast>
    4596:	89 34 24             	mov    %esi,(%esp)
    4599:	89 c3                	mov    %eax,%ebx
    459b:	e8 00 2c 00 00       	call   71a0 <str_size>
    45a0:	89 74 24 04          	mov    %esi,0x4(%esp)
    45a4:	89 44 24 08          	mov    %eax,0x8(%esp)
    45a8:	89 3c 24             	mov    %edi,(%esp)
    45ab:	e8 c0 30 01 00       	call   17670 <async_data_write_start>
    45b0:	89 3c 24             	mov    %edi,(%esp)
    45b3:	89 45 c0             	mov    %eax,-0x40(%ebp)
    45b6:	e8 35 25 01 00       	call   16af0 <async_exchange_end>
    45bb:	8b 4d c0             	mov    -0x40(%ebp),%ecx
    45be:	85 c9                	test   %ecx,%ecx
    45c0:	0f 85 9a 00 00 00    	jne    4660 <loc_service_register_with_iface+0x1a0>
    45c6:	8d 45 c0             	lea    -0x40(%ebp),%eax
    45c9:	89 1c 24             	mov    %ebx,(%esp)
    45cc:	89 44 24 04          	mov    %eax,0x4(%esp)
    45d0:	e8 1b 0d 01 00       	call   152f0 <async_wait_for>
    45d5:	8b 45 c0             	mov    -0x40(%ebp),%eax
    45d8:	85 c0                	test   %eax,%eax
    45da:	74 64                	je     4640 <loc_service_register_with_iface+0x180>
    45dc:	8b 55 0c             	mov    0xc(%ebp),%edx
    45df:	85 d2                	test   %edx,%edx
    45e1:	74 09                	je     45ec <loc_service_register_with_iface+0x12c>
    45e3:	8b 55 0c             	mov    0xc(%ebp),%edx
    45e6:	c7 02 ff ff ff ff    	movl   $0xffffffff,(%edx)
    45ec:	83 c4 5c             	add    $0x5c,%esp
    45ef:	5b                   	pop    %ebx
    45f0:	5e                   	pop    %esi
    45f1:	5f                   	pop    %edi
    45f2:	5d                   	pop    %ebp
    45f3:	c3                   	ret    
    45f4:	8d 74 26 00          	lea    0x0(%esi,%eiz,1),%esi
    45f8:	85 db                	test   %ebx,%ebx
    45fa:	0f 84 00 ff ff ff    	je     4500 <loc_service_register_with_iface+0x40>
    4600:	89 1d 8c 2d 02 00    	mov    %ebx,0x22d8c
    4606:	e9 f5 fe ff ff       	jmp    4500 <loc_service_register_with_iface+0x40>
    460b:	90                   	nop
    460c:	8d 74 26 00          	lea    0x0(%esi,%eiz,1),%esi
    4610:	c7 44 24 0c 00 00 00 	movl   $0x0,0xc(%esp)
    4617:	00 
    4618:	c7 44 24 08 01 00 00 	movl   $0x1,0x8(%esp)
    461f:	00 
    4620:	c7 44 24 04 6c 6f 63 	movl   $0x20636f6c,0x4(%esp)
    4627:	20 
    4628:	c7 04 24 02 00 00 00 	movl   $0x2,(%esp)
    462f:	e8 9c f4 00 00       	call   13ad0 <service_connect_blocking>
    4634:	a3 8c 2d 02 00       	mov    %eax,0x22d8c
    4639:	e9 9f fe ff ff       	jmp    44dd <loc_service_register_with_iface+0x1d>
    463e:	66 90                	xchg   %ax,%ax
    4640:	8b 45 0c             	mov    0xc(%ebp),%eax
    4643:	85 c0                	test   %eax,%eax
    4645:	74 08                	je     464f <loc_service_register_with_iface+0x18f>
    4647:	8b 55 0c             	mov    0xc(%ebp),%edx
    464a:	8b 45 c8             	mov    -0x38(%ebp),%eax
    464d:	89 02                	mov    %eax,(%edx)
    464f:	83 c4 5c             	add    $0x5c,%esp
    4652:	31 c0                	xor    %eax,%eax
    4654:	5b                   	pop    %ebx
    4655:	5e                   	pop    %esi
    4656:	5f                   	pop    %edi
    4657:	5d                   	pop    %ebp
    4658:	c3                   	ret    
    4659:	8d b4 26 00 00 00 00 	lea    0x0(%esi,%eiz,1),%esi
    4660:	89 1c 24             	mov    %ebx,(%esp)
    4663:	e8 d8 0e 01 00       	call   15540 <async_forget>
    4668:	8b 45 c0             	mov    -0x40(%ebp),%eax
    466b:	83 c4 5c             	add    $0x5c,%esp
    466e:	5b                   	pop    %ebx
    466f:	5e                   	pop    %esi
    4670:	5f                   	pop    %edi
    4671:	5d                   	pop    %ebp
    4672:	c3                   	ret    
    4673:	90                   	nop
    4674:	8d 74 26 00          	lea    0x0(%esi,%eiz,1),%esi
    4678:	85 db                	test   %ebx,%ebx
    467a:	0f 84 c5 fe ff ff    	je     4545 <loc_service_register_with_iface+0x85>
    4680:	89 1d 88 2d 02 00    	mov    %ebx,0x22d88
    4686:	e9 ba fe ff ff       	jmp    4545 <loc_service_register_with_iface+0x85>
    468b:	90                   	nop
    468c:	8d 74 26 00          	lea    0x0(%esi,%eiz,1),%esi

00004690 <loc_service_register>:
    4690:	55                   	push   %ebp
    4691:	89 e5                	mov    %esp,%ebp
    4693:	57                   	push   %edi
    4694:	56                   	push   %esi
    4695:	53                   	push   %ebx
    4696:	83 ec 5c             	sub    $0x5c,%esp
    4699:	8b 75 08             	mov    0x8(%ebp),%esi
    469c:	c7 04 24 08 2b 02 00 	movl   $0x22b08,(%esp)
    46a3:	e8 18 5d 00 00       	call   a3c0 <fibril_mutex_lock>
    46a8:	a1 8c 2d 02 00       	mov    0x22d8c,%eax
    46ad:	85 c0                	test   %eax,%eax
    46af:	75 38                	jne    46e9 <loc_service_register+0x59>
    46b1:	c7 04 24 18 2b 02 00 	movl   $0x22b18,(%esp)
    46b8:	8b 1d 88 2d 02 00    	mov    0x22d88,%ebx
    46be:	e8 fd 5c 00 00       	call   a3c0 <fibril_mutex_lock>
    46c3:	a1 8c 2d 02 00       	mov    0x22d8c,%eax
    46c8:	85 c0                	test   %eax,%eax
    46ca:	0f 84 f8 00 00 00    	je     47c8 <loc_service_register+0x138>
    46d0:	c7 04 24 18 2b 02 00 	movl   $0x22b18,(%esp)
    46d7:	e8 04 5e 00 00       	call   a4e0 <fibril_mutex_unlock>
    46dc:	a1 8c 2d 02 00       	mov    0x22d8c,%eax
    46e1:	85 c0                	test   %eax,%eax
    46e3:	0f 84 f7 00 00 00    	je     47e0 <loc_service_register+0x150>
    46e9:	c7 04 24 08 2b 02 00 	movl   $0x22b08,(%esp)
    46f0:	e8 eb 5d 00 00       	call   a4e0 <fibril_mutex_unlock>
    46f5:	c7 04 24 18 2b 02 00 	movl   $0x22b18,(%esp)
    46fc:	8b 1d 8c 2d 02 00    	mov    0x22d8c,%ebx
    4702:	e8 b9 5c 00 00       	call   a3c0 <fibril_mutex_lock>
    4707:	8b 3d 88 2d 02 00    	mov    0x22d88,%edi
    470d:	85 ff                	test   %edi,%edi
    470f:	0f 84 33 01 00 00    	je     4848 <loc_service_register+0x1b8>
    4715:	c7 04 24 18 2b 02 00 	movl   $0x22b18,(%esp)
    471c:	e8 bf 5d 00 00       	call   a4e0 <fibril_mutex_unlock>
    4721:	a1 8c 2d 02 00       	mov    0x22d8c,%eax
    4726:	89 04 24             	mov    %eax,(%esp)
    4729:	e8 52 20 01 00       	call   16780 <async_exchange_begin>
    472e:	c7 44 24 14 00 00 00 	movl   $0x0,0x14(%esp)
    4735:	00 
    4736:	89 c7                	mov    %eax,%edi
    4738:	8d 45 c4             	lea    -0x3c(%ebp),%eax
    473b:	89 44 24 18          	mov    %eax,0x18(%esp)
    473f:	c7 44 24 10 00 00 00 	movl   $0x0,0x10(%esp)
    4746:	00 
    4747:	c7 44 24 0c 00 00 00 	movl   $0x0,0xc(%esp)
    474e:	00 
    474f:	c7 44 24 08 00 00 00 	movl   $0x0,0x8(%esp)
    4756:	00 
    4757:	c7 44 24 04 03 04 00 	movl   $0x403,0x4(%esp)
    475e:	00 
    475f:	89 3c 24             	mov    %edi,(%esp)
    4762:	e8 b9 09 01 00       	call   15120 <async_send_fast>
    4767:	89 34 24             	mov    %esi,(%esp)
    476a:	89 c3                	mov    %eax,%ebx
    476c:	e8 2f 2a 00 00       	call   71a0 <str_size>
    4771:	89 74 24 04          	mov    %esi,0x4(%esp)
    4775:	89 44 24 08          	mov    %eax,0x8(%esp)
    4779:	89 3c 24             	mov    %edi,(%esp)
    477c:	e8 ef 2e 01 00       	call   17670 <async_data_write_start>
    4781:	89 3c 24             	mov    %edi,(%esp)
    4784:	89 45 c0             	mov    %eax,-0x40(%ebp)
    4787:	e8 64 23 01 00       	call   16af0 <async_exchange_end>
    478c:	8b 4d c0             	mov    -0x40(%ebp),%ecx
    478f:	85 c9                	test   %ecx,%ecx
    4791:	0f 85 99 00 00 00    	jne    4830 <loc_service_register+0x1a0>
    4797:	8d 45 c0             	lea    -0x40(%ebp),%eax
    479a:	89 1c 24             	mov    %ebx,(%esp)
    479d:	89 44 24 04          	mov    %eax,0x4(%esp)
    47a1:	e8 4a 0b 01 00       	call   152f0 <async_wait_for>
    47a6:	8b 45 c0             	mov    -0x40(%ebp),%eax
    47a9:	85 c0                	test   %eax,%eax
    47ab:	74 63                	je     4810 <loc_service_register+0x180>
    47ad:	8b 55 0c             	mov    0xc(%ebp),%edx
    47b0:	85 d2                	test   %edx,%edx
    47b2:	74 09                	je     47bd <loc_service_register+0x12d>
    47b4:	8b 55 0c             	mov    0xc(%ebp),%edx
    47b7:	c7 02 ff ff ff ff    	movl   $0xffffffff,(%edx)
    47bd:	83 c4 5c             	add    $0x5c,%esp
    47c0:	5b                   	pop    %ebx
    47c1:	5e                   	pop    %esi
    47c2:	5f                   	pop    %edi
    47c3:	5d                   	pop    %ebp
    47c4:	c3                   	ret    
    47c5:	8d 76 00             	lea    0x0(%esi),%esi
    47c8:	85 db                	test   %ebx,%ebx
    47ca:	0f 84 00 ff ff ff    	je     46d0 <loc_service_register+0x40>
    47d0:	89 1d 8c 2d 02 00    	mov    %ebx,0x22d8c
    47d6:	e9 f5 fe ff ff       	jmp    46d0 <loc_service_register+0x40>
    47db:	90                   	nop
    47dc:	8d 74 26 00          	lea    0x0(%esi,%eiz,1),%esi
    47e0:	c7 44 24 0c 00 00 00 	movl   $0x0,0xc(%esp)
    47e7:	00 
    47e8:	c7 44 24 08 01 00 00 	movl   $0x1,0x8(%esp)
    47ef:	00 
    47f0:	c7 44 24 04 6c 6f 63 	movl   $0x20636f6c,0x4(%esp)
    47f7:	20 
    47f8:	c7 04 24 02 00 00 00 	movl   $0x2,(%esp)
    47ff:	e8 cc f2 00 00       	call   13ad0 <service_connect_blocking>
    4804:	a3 8c 2d 02 00       	mov    %eax,0x22d8c
    4809:	e9 9f fe ff ff       	jmp    46ad <loc_service_register+0x1d>
    480e:	66 90                	xchg   %ax,%ax
    4810:	8b 45 0c             	mov    0xc(%ebp),%eax
    4813:	85 c0                	test   %eax,%eax
    4815:	74 08                	je     481f <loc_service_register+0x18f>
    4817:	8b 55 0c             	mov    0xc(%ebp),%edx
    481a:	8b 45 c8             	mov    -0x38(%ebp),%eax
    481d:	89 02                	mov    %eax,(%edx)
    481f:	83 c4 5c             	add    $0x5c,%esp
    4822:	31 c0                	xor    %eax,%eax
    4824:	5b                   	pop    %ebx
    4825:	5e                   	pop    %esi
    4826:	5f                   	pop    %edi
    4827:	5d                   	pop    %ebp
    4828:	c3                   	ret    
    4829:	8d b4 26 00 00 00 00 	lea    0x0(%esi,%eiz,1),%esi
    4830:	89 1c 24             	mov    %ebx,(%esp)
    4833:	e8 08 0d 01 00       	call   15540 <async_forget>
    4838:	8b 45 c0             	mov    -0x40(%ebp),%eax
    483b:	83 c4 5c             	add    $0x5c,%esp
    483e:	5b                   	pop    %ebx
    483f:	5e                   	pop    %esi
    4840:	5f                   	pop    %edi
    4841:	5d                   	pop    %ebp
    4842:	c3                   	ret    
    4843:	90                   	nop
    4844:	8d 74 26 00          	lea    0x0(%esi,%eiz,1),%esi
    4848:	85 db                	test   %ebx,%ebx
    484a:	0f 84 c5 fe ff ff    	je     4715 <loc_service_register+0x85>
    4850:	89 1d 88 2d 02 00    	mov    %ebx,0x22d88
    4856:	e9 ba fe ff ff       	jmp    4715 <loc_service_register+0x85>
    485b:	90                   	nop
    485c:	8d 74 26 00          	lea    0x0(%esi,%eiz,1),%esi

00004860 <loc_service_unregister>:
    4860:	55                   	push   %ebp
    4861:	89 e5                	mov    %esp,%ebp
    4863:	53                   	push   %ebx
    4864:	83 ec 44             	sub    $0x44,%esp
    4867:	c7 04 24 08 2b 02 00 	movl   $0x22b08,(%esp)
    486e:	e8 4d 5b 00 00       	call   a3c0 <fibril_mutex_lock>
    4873:	a1 8c 2d 02 00       	mov    0x22d8c,%eax
    4878:	85 c0                	test   %eax,%eax
    487a:	75 38                	jne    48b4 <loc_service_unregister+0x54>
    487c:	c7 04 24 18 2b 02 00 	movl   $0x22b18,(%esp)
    4883:	8b 1d 88 2d 02 00    	mov    0x22d88,%ebx
    4889:	e8 32 5b 00 00       	call   a3c0 <fibril_mutex_lock>
    488e:	a1 8c 2d 02 00       	mov    0x22d8c,%eax
    4893:	85 c0                	test   %eax,%eax
    4895:	0f 84 cd 00 00 00    	je     4968 <loc_service_unregister+0x108>
    489b:	c7 04 24 18 2b 02 00 	movl   $0x22b18,(%esp)
    48a2:	e8 39 5c 00 00       	call   a4e0 <fibril_mutex_unlock>
    48a7:	a1 8c 2d 02 00       	mov    0x22d8c,%eax
    48ac:	85 c0                	test   %eax,%eax
    48ae:	0f 84 cc 00 00 00    	je     4980 <loc_service_unregister+0x120>
    48b4:	c7 04 24 08 2b 02 00 	movl   $0x22b08,(%esp)
    48bb:	e8 20 5c 00 00       	call   a4e0 <fibril_mutex_unlock>
    48c0:	c7 04 24 18 2b 02 00 	movl   $0x22b18,(%esp)
    48c7:	8b 1d 8c 2d 02 00    	mov    0x22d8c,%ebx
    48cd:	e8 ee 5a 00 00       	call   a3c0 <fibril_mutex_lock>
    48d2:	a1 88 2d 02 00       	mov    0x22d88,%eax
    48d7:	85 c0                	test   %eax,%eax
    48d9:	0f 84 d1 00 00 00    	je     49b0 <loc_service_unregister+0x150>
    48df:	c7 04 24 18 2b 02 00 	movl   $0x22b18,(%esp)
    48e6:	e8 f5 5b 00 00       	call   a4e0 <fibril_mutex_unlock>
    48eb:	a1 8c 2d 02 00       	mov    0x22d8c,%eax
    48f0:	89 04 24             	mov    %eax,(%esp)
    48f3:	e8 88 1e 01 00       	call   16780 <async_exchange_begin>
    48f8:	c7 44 24 28 00 00 00 	movl   $0x0,0x28(%esp)
    48ff:	00 
    4900:	89 c3                	mov    %eax,%ebx
    4902:	8b 45 08             	mov    0x8(%ebp),%eax
    4905:	89 1c 24             	mov    %ebx,(%esp)
    4908:	c7 44 24 24 00 00 00 	movl   $0x0,0x24(%esp)
    490f:	00 
    4910:	c7 44 24 20 00 00 00 	movl   $0x0,0x20(%esp)
    4917:	00 
    4918:	c7 44 24 1c 00 00 00 	movl   $0x0,0x1c(%esp)
    491f:	00 
    4920:	c7 44 24 18 00 00 00 	movl   $0x0,0x18(%esp)
    4927:	00 
    4928:	c7 44 24 14 00 00 00 	movl   $0x0,0x14(%esp)
    492f:	00 
    4930:	c7 44 24 10 00 00 00 	movl   $0x0,0x10(%esp)
    4937:	00 
    4938:	c7 44 24 0c 00 00 00 	movl   $0x0,0xc(%esp)
    493f:	00 
    4940:	89 44 24 08          	mov    %eax,0x8(%esp)
    4944:	c7 44 24 04 04 04 00 	movl   $0x404,0x4(%esp)
    494b:	00 
    494c:	e8 df 0d 01 00       	call   15730 <async_req_fast>
    4951:	89 1c 24             	mov    %ebx,(%esp)
    4954:	89 45 f4             	mov    %eax,-0xc(%ebp)
    4957:	e8 94 21 01 00       	call   16af0 <async_exchange_end>
    495c:	8b 45 f4             	mov    -0xc(%ebp),%eax
    495f:	83 c4 44             	add    $0x44,%esp
    4962:	5b                   	pop    %ebx
    4963:	5d                   	pop    %ebp
    4964:	c3                   	ret    
    4965:	8d 76 00             	lea    0x0(%esi),%esi
    4968:	85 db                	test   %ebx,%ebx
    496a:	0f 84 2b ff ff ff    	je     489b <loc_service_unregister+0x3b>
    4970:	89 1d 8c 2d 02 00    	mov    %ebx,0x22d8c
    4976:	e9 20 ff ff ff       	jmp    489b <loc_service_unregister+0x3b>
    497b:	90                   	nop
    497c:	8d 74 26 00          	lea    0x0(%esi,%eiz,1),%esi
    4980:	c7 44 24 0c 00 00 00 	movl   $0x0,0xc(%esp)
    4987:	00 
    4988:	c7 44 24 08 01 00 00 	movl   $0x1,0x8(%esp)
    498f:	00 
    4990:	c7 44 24 04 6c 6f 63 	movl   $0x20636f6c,0x4(%esp)
    4997:	20 
    4998:	c7 04 24 02 00 00 00 	movl   $0x2,(%esp)
    499f:	e8 2c f1 00 00       	call   13ad0 <service_connect_blocking>
    49a4:	a3 8c 2d 02 00       	mov    %eax,0x22d8c
    49a9:	e9 ca fe ff ff       	jmp    4878 <loc_service_unregister+0x18>
    49ae:	66 90                	xchg   %ax,%ax
    49b0:	85 db                	test   %ebx,%ebx
    49b2:	0f 84 27 ff ff ff    	je     48df <loc_service_unregister+0x7f>
    49b8:	89 1d 88 2d 02 00    	mov    %ebx,0x22d88
    49be:	e9 1c ff ff ff       	jmp    48df <loc_service_unregister+0x7f>
    49c3:	8d b6 00 00 00 00    	lea    0x0(%esi),%esi
    49c9:	8d bc 27 00 00 00 00 	lea    0x0(%edi,%eiz,1),%edi

000049d0 <loc_service_get_id>:
    49d0:	55                   	push   %ebp
    49d1:	89 e5                	mov    %esp,%ebp
    49d3:	57                   	push   %edi
    49d4:	56                   	push   %esi
    49d5:	53                   	push   %ebx
    49d6:	83 ec 5c             	sub    $0x5c,%esp
    49d9:	8b 75 10             	mov    0x10(%ebp),%esi
    49dc:	8b 7d 08             	mov    0x8(%ebp),%edi
    49df:	f7 c6 01 00 00 00    	test   $0x1,%esi
    49e5:	0f 84 45 01 00 00    	je     4b30 <loc_service_get_id+0x160>
    49eb:	c7 04 24 28 2b 02 00 	movl   $0x22b28,(%esp)
    49f2:	e8 c9 59 00 00       	call   a3c0 <fibril_mutex_lock>
    49f7:	a1 94 2d 02 00       	mov    0x22d94,%eax
    49fc:	85 c0                	test   %eax,%eax
    49fe:	75 38                	jne    4a38 <loc_service_get_id+0x68>
    4a00:	c7 04 24 38 2b 02 00 	movl   $0x22b38,(%esp)
    4a07:	8b 1d 90 2d 02 00    	mov    0x22d90,%ebx
    4a0d:	e8 ae 59 00 00       	call   a3c0 <fibril_mutex_lock>
    4a12:	a1 94 2d 02 00       	mov    0x22d94,%eax
    4a17:	85 c0                	test   %eax,%eax
    4a19:	0f 84 f9 00 00 00    	je     4b18 <loc_service_get_id+0x148>
    4a1f:	c7 04 24 38 2b 02 00 	movl   $0x22b38,(%esp)
    4a26:	e8 b5 5a 00 00       	call   a4e0 <fibril_mutex_unlock>
    4a2b:	a1 94 2d 02 00       	mov    0x22d94,%eax
    4a30:	85 c0                	test   %eax,%eax
    4a32:	0f 84 68 01 00 00    	je     4ba0 <loc_service_get_id+0x1d0>
    4a38:	c7 04 24 28 2b 02 00 	movl   $0x22b28,(%esp)
    4a3f:	e8 9c 5a 00 00       	call   a4e0 <fibril_mutex_unlock>
    4a44:	c7 04 24 38 2b 02 00 	movl   $0x22b38,(%esp)
    4a4b:	8b 1d 94 2d 02 00    	mov    0x22d94,%ebx
    4a51:	e8 6a 59 00 00       	call   a3c0 <fibril_mutex_lock>
    4a56:	a1 90 2d 02 00       	mov    0x22d90,%eax
    4a5b:	85 c0                	test   %eax,%eax
    4a5d:	0f 84 85 01 00 00    	je     4be8 <loc_service_get_id+0x218>
    4a63:	c7 04 24 38 2b 02 00 	movl   $0x22b38,(%esp)
    4a6a:	e8 71 5a 00 00       	call   a4e0 <fibril_mutex_unlock>
    4a6f:	a1 94 2d 02 00       	mov    0x22d94,%eax
    4a74:	89 04 24             	mov    %eax,(%esp)
    4a77:	e8 04 1d 01 00       	call   16780 <async_exchange_begin>
    4a7c:	89 c3                	mov    %eax,%ebx
    4a7e:	8d 45 c4             	lea    -0x3c(%ebp),%eax
    4a81:	89 74 24 08          	mov    %esi,0x8(%esp)
    4a85:	89 44 24 18          	mov    %eax,0x18(%esp)
    4a89:	c7 44 24 14 00 00 00 	movl   $0x0,0x14(%esp)
    4a90:	00 
    4a91:	c7 44 24 10 00 00 00 	movl   $0x0,0x10(%esp)
    4a98:	00 
    4a99:	c7 44 24 0c 00 00 00 	movl   $0x0,0xc(%esp)
    4aa0:	00 
    4aa1:	c7 44 24 04 05 04 00 	movl   $0x405,0x4(%esp)
    4aa8:	00 
    4aa9:	89 1c 24             	mov    %ebx,(%esp)
    4aac:	e8 6f 06 01 00       	call   15120 <async_send_fast>
    4ab1:	89 3c 24             	mov    %edi,(%esp)
    4ab4:	89 c6                	mov    %eax,%esi
    4ab6:	e8 e5 26 00 00       	call   71a0 <str_size>
    4abb:	89 7c 24 04          	mov    %edi,0x4(%esp)
    4abf:	89 44 24 08          	mov    %eax,0x8(%esp)
    4ac3:	89 1c 24             	mov    %ebx,(%esp)
    4ac6:	e8 a5 2b 01 00       	call   17670 <async_data_write_start>
    4acb:	89 1c 24             	mov    %ebx,(%esp)
    4ace:	89 45 c0             	mov    %eax,-0x40(%ebp)
    4ad1:	e8 1a 20 01 00       	call   16af0 <async_exchange_end>
    4ad6:	8b 4d c0             	mov    -0x40(%ebp),%ecx
    4ad9:	85 c9                	test   %ecx,%ecx
    4adb:	0f 85 ef 00 00 00    	jne    4bd0 <loc_service_get_id+0x200>
    4ae1:	8d 45 c0             	lea    -0x40(%ebp),%eax
    4ae4:	89 34 24             	mov    %esi,(%esp)
    4ae7:	89 44 24 04          	mov    %eax,0x4(%esp)
    4aeb:	e8 00 08 01 00       	call   152f0 <async_wait_for>
    4af0:	8b 45 c0             	mov    -0x40(%ebp),%eax
    4af3:	85 c0                	test   %eax,%eax
    4af5:	0f 84 85 00 00 00    	je     4b80 <loc_service_get_id+0x1b0>
    4afb:	8b 55 0c             	mov    0xc(%ebp),%edx
    4afe:	85 d2                	test   %edx,%edx
    4b00:	74 09                	je     4b0b <loc_service_get_id+0x13b>
    4b02:	8b 55 0c             	mov    0xc(%ebp),%edx
    4b05:	c7 02 ff ff ff ff    	movl   $0xffffffff,(%edx)
    4b0b:	83 c4 5c             	add    $0x5c,%esp
    4b0e:	5b                   	pop    %ebx
    4b0f:	5e                   	pop    %esi
    4b10:	5f                   	pop    %edi
    4b11:	5d                   	pop    %ebp
    4b12:	c3                   	ret    
    4b13:	90                   	nop
    4b14:	8d 74 26 00          	lea    0x0(%esi,%eiz,1),%esi
    4b18:	85 db                	test   %ebx,%ebx
    4b1a:	0f 84 ff fe ff ff    	je     4a1f <loc_service_get_id+0x4f>
    4b20:	89 1d 94 2d 02 00    	mov    %ebx,0x22d94
    4b26:	e9 f4 fe ff ff       	jmp    4a1f <loc_service_get_id+0x4f>
    4b2b:	90                   	nop
    4b2c:	8d 74 26 00          	lea    0x0(%esi,%eiz,1),%esi
    4b30:	c7 04 24 38 2b 02 00 	movl   $0x22b38,(%esp)
    4b37:	e8 84 58 00 00       	call   a3c0 <fibril_mutex_lock>
    4b3c:	8b 1d 90 2d 02 00    	mov    0x22d90,%ebx
    4b42:	85 db                	test   %ebx,%ebx
    4b44:	0f 84 b1 00 00 00    	je     4bfb <loc_service_get_id+0x22b>
    4b4a:	c7 04 24 38 2b 02 00 	movl   $0x22b38,(%esp)
    4b51:	e8 8a 59 00 00       	call   a4e0 <fibril_mutex_unlock>
    4b56:	a1 90 2d 02 00       	mov    0x22d90,%eax
    4b5b:	85 c0                	test   %eax,%eax
    4b5d:	74 12                	je     4b71 <loc_service_get_id+0x1a1>
    4b5f:	89 04 24             	mov    %eax,(%esp)
    4b62:	e8 19 1c 01 00       	call   16780 <async_exchange_begin>
    4b67:	89 c3                	mov    %eax,%ebx
    4b69:	85 c0                	test   %eax,%eax
    4b6b:	0f 85 0d ff ff ff    	jne    4a7e <loc_service_get_id+0xae>
    4b71:	e8 7a 98 01 00       	call   1e3f0 <__errno>
    4b76:	8b 00                	mov    (%eax),%eax
    4b78:	eb 91                	jmp    4b0b <loc_service_get_id+0x13b>
    4b7a:	8d b6 00 00 00 00    	lea    0x0(%esi),%esi
    4b80:	8b 45 0c             	mov    0xc(%ebp),%eax
    4b83:	85 c0                	test   %eax,%eax
    4b85:	74 08                	je     4b8f <loc_service_get_id+0x1bf>
    4b87:	8b 55 0c             	mov    0xc(%ebp),%edx
    4b8a:	8b 45 c8             	mov    -0x38(%ebp),%eax
    4b8d:	89 02                	mov    %eax,(%edx)
    4b8f:	83 c4 5c             	add    $0x5c,%esp
    4b92:	31 c0                	xor    %eax,%eax
    4b94:	5b                   	pop    %ebx
    4b95:	5e                   	pop    %esi
    4b96:	5f                   	pop    %edi
    4b97:	5d                   	pop    %ebp
    4b98:	c3                   	ret    
    4b99:	8d b4 26 00 00 00 00 	lea    0x0(%esi,%eiz,1),%esi
    4ba0:	c7 44 24 0c 00 00 00 	movl   $0x0,0xc(%esp)
    4ba7:	00 
    4ba8:	c7 44 24 08 02 00 00 	movl   $0x2,0x8(%esp)
    4baf:	00 
    4bb0:	c7 44 24 04 6c 6f 63 	movl   $0x20636f6c,0x4(%esp)
    4bb7:	20 
    4bb8:	c7 04 24 02 00 00 00 	movl   $0x2,(%esp)
    4bbf:	e8 0c ef 00 00       	call   13ad0 <service_connect_blocking>
    4bc4:	a3 94 2d 02 00       	mov    %eax,0x22d94
    4bc9:	e9 2e fe ff ff       	jmp    49fc <loc_service_get_id+0x2c>
    4bce:	66 90                	xchg   %ax,%ax
    4bd0:	89 34 24             	mov    %esi,(%esp)
    4bd3:	e8 68 09 01 00       	call   15540 <async_forget>
    4bd8:	8b 45 c0             	mov    -0x40(%ebp),%eax
    4bdb:	83 c4 5c             	add    $0x5c,%esp
    4bde:	5b                   	pop    %ebx
    4bdf:	5e                   	pop    %esi
    4be0:	5f                   	pop    %edi
    4be1:	5d                   	pop    %ebp
    4be2:	c3                   	ret    
    4be3:	90                   	nop
    4be4:	8d 74 26 00          	lea    0x0(%esi,%eiz,1),%esi
    4be8:	85 db                	test   %ebx,%ebx
    4bea:	0f 84 73 fe ff ff    	je     4a63 <loc_service_get_id+0x93>
    4bf0:	89 1d 90 2d 02 00    	mov    %ebx,0x22d90
    4bf6:	e9 68 fe ff ff       	jmp    4a63 <loc_service_get_id+0x93>
    4bfb:	c7 44 24 0c 00 00 00 	movl   $0x0,0xc(%esp)
    4c02:	00 
    4c03:	c7 44 24 08 02 00 00 	movl   $0x2,0x8(%esp)
    4c0a:	00 
    4c0b:	c7 44 24 04 6c 6f 63 	movl   $0x20636f6c,0x4(%esp)
    4c12:	20 
    4c13:	c7 04 24 02 00 00 00 	movl   $0x2,(%esp)
    4c1a:	e8 31 ee 00 00       	call   13a50 <service_connect>
    4c1f:	a3 90 2d 02 00       	mov    %eax,0x22d90
    4c24:	e9 21 ff ff ff       	jmp    4b4a <loc_service_get_id+0x17a>
    4c29:	8d b4 26 00 00 00 00 	lea    0x0(%esi,%eiz,1),%esi

00004c30 <loc_category_get_name>:
    4c30:	55                   	push   %ebp
    4c31:	b8 0b 04 00 00       	mov    $0x40b,%eax
    4c36:	89 e5                	mov    %esp,%ebp
    4c38:	8b 4d 0c             	mov    0xc(%ebp),%ecx
    4c3b:	8b 55 08             	mov    0x8(%ebp),%edx
    4c3e:	5d                   	pop    %ebp
    4c3f:	e9 6c ed ff ff       	jmp    39b0 <loc_get_name_internal>
    4c44:	8d b6 00 00 00 00    	lea    0x0(%esi),%esi
    4c4a:	8d bf 00 00 00 00    	lea    0x0(%edi),%edi

00004c50 <loc_service_get_name>:
    4c50:	55                   	push   %ebp
    4c51:	b8 06 04 00 00       	mov    $0x406,%eax
    4c56:	89 e5                	mov    %esp,%ebp
    4c58:	8b 4d 0c             	mov    0xc(%ebp),%ecx
    4c5b:	8b 55 08             	mov    0x8(%ebp),%edx
    4c5e:	5d                   	pop    %ebp
    4c5f:	e9 4c ed ff ff       	jmp    39b0 <loc_get_name_internal>
    4c64:	8d b6 00 00 00 00    	lea    0x0(%esi),%esi
    4c6a:	8d bf 00 00 00 00    	lea    0x0(%edi),%edi

00004c70 <loc_service_get_server_name>:
    4c70:	55                   	push   %ebp
    4c71:	b8 07 04 00 00       	mov    $0x407,%eax
    4c76:	89 e5                	mov    %esp,%ebp
    4c78:	8b 4d 0c             	mov    0xc(%ebp),%ecx
    4c7b:	8b 55 08             	mov    0x8(%ebp),%edx
    4c7e:	5d                   	pop    %ebp
    4c7f:	e9 2c ed ff ff       	jmp    39b0 <loc_get_name_internal>
    4c84:	8d b6 00 00 00 00    	lea    0x0(%esi),%esi
    4c8a:	8d bf 00 00 00 00    	lea    0x0(%edi),%edi

00004c90 <loc_namespace_get_id>:
    4c90:	55                   	push   %ebp
    4c91:	89 e5                	mov    %esp,%ebp
    4c93:	57                   	push   %edi
    4c94:	56                   	push   %esi
    4c95:	53                   	push   %ebx
    4c96:	83 ec 5c             	sub    $0x5c,%esp
    4c99:	8b 75 10             	mov    0x10(%ebp),%esi
    4c9c:	8b 7d 08             	mov    0x8(%ebp),%edi
    4c9f:	f7 c6 01 00 00 00    	test   $0x1,%esi
    4ca5:	0f 84 45 01 00 00    	je     4df0 <loc_namespace_get_id+0x160>
    4cab:	c7 04 24 28 2b 02 00 	movl   $0x22b28,(%esp)
    4cb2:	e8 09 57 00 00       	call   a3c0 <fibril_mutex_lock>
    4cb7:	a1 94 2d 02 00       	mov    0x22d94,%eax
    4cbc:	85 c0                	test   %eax,%eax
    4cbe:	75 38                	jne    4cf8 <loc_namespace_get_id+0x68>
    4cc0:	c7 04 24 38 2b 02 00 	movl   $0x22b38,(%esp)
    4cc7:	8b 1d 90 2d 02 00    	mov    0x22d90,%ebx
    4ccd:	e8 ee 56 00 00       	call   a3c0 <fibril_mutex_lock>
    4cd2:	a1 94 2d 02 00       	mov    0x22d94,%eax
    4cd7:	85 c0                	test   %eax,%eax
    4cd9:	0f 84 f9 00 00 00    	je     4dd8 <loc_namespace_get_id+0x148>
    4cdf:	c7 04 24 38 2b 02 00 	movl   $0x22b38,(%esp)
    4ce6:	e8 f5 57 00 00       	call   a4e0 <fibril_mutex_unlock>
    4ceb:	a1 94 2d 02 00       	mov    0x22d94,%eax
    4cf0:	85 c0                	test   %eax,%eax
    4cf2:	0f 84 68 01 00 00    	je     4e60 <loc_namespace_get_id+0x1d0>
    4cf8:	c7 04 24 28 2b 02 00 	movl   $0x22b28,(%esp)
    4cff:	e8 dc 57 00 00       	call   a4e0 <fibril_mutex_unlock>
    4d04:	c7 04 24 38 2b 02 00 	movl   $0x22b38,(%esp)
    4d0b:	8b 1d 94 2d 02 00    	mov    0x22d94,%ebx
    4d11:	e8 aa 56 00 00       	call   a3c0 <fibril_mutex_lock>
    4d16:	a1 90 2d 02 00       	mov    0x22d90,%eax
    4d1b:	85 c0                	test   %eax,%eax
    4d1d:	0f 84 85 01 00 00    	je     4ea8 <loc_namespace_get_id+0x218>
    4d23:	c7 04 24 38 2b 02 00 	movl   $0x22b38,(%esp)
    4d2a:	e8 b1 57 00 00       	call   a4e0 <fibril_mutex_unlock>
    4d2f:	a1 94 2d 02 00       	mov    0x22d94,%eax
    4d34:	89 04 24             	mov    %eax,(%esp)
    4d37:	e8 44 1a 01 00       	call   16780 <async_exchange_begin>
    4d3c:	89 c3                	mov    %eax,%ebx
    4d3e:	8d 45 c4             	lea    -0x3c(%ebp),%eax
    4d41:	89 74 24 08          	mov    %esi,0x8(%esp)
    4d45:	89 44 24 18          	mov    %eax,0x18(%esp)
    4d49:	c7 44 24 14 00 00 00 	movl   $0x0,0x14(%esp)
    4d50:	00 
    4d51:	c7 44 24 10 00 00 00 	movl   $0x0,0x10(%esp)
    4d58:	00 
    4d59:	c7 44 24 0c 00 00 00 	movl   $0x0,0xc(%esp)
    4d60:	00 
    4d61:	c7 44 24 04 08 04 00 	movl   $0x408,0x4(%esp)
    4d68:	00 
    4d69:	89 1c 24             	mov    %ebx,(%esp)
    4d6c:	e8 af 03 01 00       	call   15120 <async_send_fast>
    4d71:	89 3c 24             	mov    %edi,(%esp)
    4d74:	89 c6                	mov    %eax,%esi
    4d76:	e8 25 24 00 00       	call   71a0 <str_size>
    4d7b:	89 7c 24 04          	mov    %edi,0x4(%esp)
    4d7f:	89 44 24 08          	mov    %eax,0x8(%esp)
    4d83:	89 1c 24             	mov    %ebx,(%esp)
    4d86:	e8 e5 28 01 00       	call   17670 <async_data_write_start>
    4d8b:	89 1c 24             	mov    %ebx,(%esp)
    4d8e:	89 45 c0             	mov    %eax,-0x40(%ebp)
    4d91:	e8 5a 1d 01 00       	call   16af0 <async_exchange_end>
    4d96:	8b 4d c0             	mov    -0x40(%ebp),%ecx
    4d99:	85 c9                	test   %ecx,%ecx
    4d9b:	0f 85 ef 00 00 00    	jne    4e90 <loc_namespace_get_id+0x200>
    4da1:	8d 45 c0             	lea    -0x40(%ebp),%eax
    4da4:	89 34 24             	mov    %esi,(%esp)
    4da7:	89 44 24 04          	mov    %eax,0x4(%esp)
    4dab:	e8 40 05 01 00       	call   152f0 <async_wait_for>
    4db0:	8b 45 c0             	mov    -0x40(%ebp),%eax
    4db3:	85 c0                	test   %eax,%eax
    4db5:	0f 84 85 00 00 00    	je     4e40 <loc_namespace_get_id+0x1b0>
    4dbb:	8b 55 0c             	mov    0xc(%ebp),%edx
    4dbe:	85 d2                	test   %edx,%edx
    4dc0:	74 09                	je     4dcb <loc_namespace_get_id+0x13b>
    4dc2:	8b 55 0c             	mov    0xc(%ebp),%edx
    4dc5:	c7 02 ff ff ff ff    	movl   $0xffffffff,(%edx)
    4dcb:	83 c4 5c             	add    $0x5c,%esp
    4dce:	5b                   	pop    %ebx
    4dcf:	5e                   	pop    %esi
    4dd0:	5f                   	pop    %edi
    4dd1:	5d                   	pop    %ebp
    4dd2:	c3                   	ret    
    4dd3:	90                   	nop
    4dd4:	8d 74 26 00          	lea    0x0(%esi,%eiz,1),%esi
    4dd8:	85 db                	test   %ebx,%ebx
    4dda:	0f 84 ff fe ff ff    	je     4cdf <loc_namespace_get_id+0x4f>
    4de0:	89 1d 94 2d 02 00    	mov    %ebx,0x22d94
    4de6:	e9 f4 fe ff ff       	jmp    4cdf <loc_namespace_get_id+0x4f>
    4deb:	90                   	nop
    4dec:	8d 74 26 00          	lea    0x0(%esi,%eiz,1),%esi
    4df0:	c7 04 24 38 2b 02 00 	movl   $0x22b38,(%esp)
    4df7:	e8 c4 55 00 00       	call   a3c0 <fibril_mutex_lock>
    4dfc:	8b 1d 90 2d 02 00    	mov    0x22d90,%ebx
    4e02:	85 db                	test   %ebx,%ebx
    4e04:	0f 84 b1 00 00 00    	je     4ebb <loc_namespace_get_id+0x22b>
    4e0a:	c7 04 24 38 2b 02 00 	movl   $0x22b38,(%esp)
    4e11:	e8 ca 56 00 00       	call   a4e0 <fibril_mutex_unlock>
    4e16:	a1 90 2d 02 00       	mov    0x22d90,%eax
    4e1b:	85 c0                	test   %eax,%eax
    4e1d:	74 12                	je     4e31 <loc_namespace_get_id+0x1a1>
    4e1f:	89 04 24             	mov    %eax,(%esp)
    4e22:	e8 59 19 01 00       	call   16780 <async_exchange_begin>
    4e27:	89 c3                	mov    %eax,%ebx
    4e29:	85 c0                	test   %eax,%eax
    4e2b:	0f 85 0d ff ff ff    	jne    4d3e <loc_namespace_get_id+0xae>
    4e31:	e8 ba 95 01 00       	call   1e3f0 <__errno>
    4e36:	8b 00                	mov    (%eax),%eax
    4e38:	eb 91                	jmp    4dcb <loc_namespace_get_id+0x13b>
    4e3a:	8d b6 00 00 00 00    	lea    0x0(%esi),%esi
    4e40:	8b 45 0c             	mov    0xc(%ebp),%eax
    4e43:	85 c0                	test   %eax,%eax
    4e45:	74 08                	je     4e4f <loc_namespace_get_id+0x1bf>
    4e47:	8b 55 0c             	mov    0xc(%ebp),%edx
    4e4a:	8b 45 c8             	mov    -0x38(%ebp),%eax
    4e4d:	89 02                	mov    %eax,(%edx)
    4e4f:	83 c4 5c             	add    $0x5c,%esp
    4e52:	31 c0                	xor    %eax,%eax
    4e54:	5b                   	pop    %ebx
    4e55:	5e                   	pop    %esi
    4e56:	5f                   	pop    %edi
    4e57:	5d                   	pop    %ebp
    4e58:	c3                   	ret    
    4e59:	8d b4 26 00 00 00 00 	lea    0x0(%esi,%eiz,1),%esi
    4e60:	c7 44 24 0c 00 00 00 	movl   $0x0,0xc(%esp)
    4e67:	00 
    4e68:	c7 44 24 08 02 00 00 	movl   $0x2,0x8(%esp)
    4e6f:	00 
    4e70:	c7 44 24 04 6c 6f 63 	movl   $0x20636f6c,0x4(%esp)
    4e77:	20 
    4e78:	c7 04 24 02 00 00 00 	movl   $0x2,(%esp)
    4e7f:	e8 4c ec 00 00       	call   13ad0 <service_connect_blocking>
    4e84:	a3 94 2d 02 00       	mov    %eax,0x22d94
    4e89:	e9 2e fe ff ff       	jmp    4cbc <loc_namespace_get_id+0x2c>
    4e8e:	66 90                	xchg   %ax,%ax
    4e90:	89 34 24             	mov    %esi,(%esp)
    4e93:	e8 a8 06 01 00       	call   15540 <async_forget>
    4e98:	8b 45 c0             	mov    -0x40(%ebp),%eax
    4e9b:	83 c4 5c             	add    $0x5c,%esp
    4e9e:	5b                   	pop    %ebx
    4e9f:	5e                   	pop    %esi
    4ea0:	5f                   	pop    %edi
    4ea1:	5d                   	pop    %ebp
    4ea2:	c3                   	ret    
    4ea3:	90                   	nop
    4ea4:	8d 74 26 00          	lea    0x0(%esi,%eiz,1),%esi
    4ea8:	85 db                	test   %ebx,%ebx
    4eaa:	0f 84 73 fe ff ff    	je     4d23 <loc_namespace_get_id+0x93>
    4eb0:	89 1d 90 2d 02 00    	mov    %ebx,0x22d90
    4eb6:	e9 68 fe ff ff       	jmp    4d23 <loc_namespace_get_id+0x93>
    4ebb:	c7 44 24 0c 00 00 00 	movl   $0x0,0xc(%esp)
    4ec2:	00 
    4ec3:	c7 44 24 08 02 00 00 	movl   $0x2,0x8(%esp)
    4eca:	00 
    4ecb:	c7 44 24 04 6c 6f 63 	movl   $0x20636f6c,0x4(%esp)
    4ed2:	20 
    4ed3:	c7 04 24 02 00 00 00 	movl   $0x2,(%esp)
    4eda:	e8 71 eb 00 00       	call   13a50 <service_connect>
    4edf:	a3 90 2d 02 00       	mov    %eax,0x22d90
    4ee4:	e9 21 ff ff ff       	jmp    4e0a <loc_namespace_get_id+0x17a>
    4ee9:	8d b4 26 00 00 00 00 	lea    0x0(%esi,%eiz,1),%esi

00004ef0 <loc_category_get_id>:
    4ef0:	55                   	push   %ebp
    4ef1:	89 e5                	mov    %esp,%ebp
    4ef3:	57                   	push   %edi
    4ef4:	56                   	push   %esi
    4ef5:	53                   	push   %ebx
    4ef6:	83 ec 5c             	sub    $0x5c,%esp
    4ef9:	8b 75 08             	mov    0x8(%ebp),%esi
    4efc:	f6 45 10 01          	testb  $0x1,0x10(%ebp)
    4f00:	0f 84 4a 01 00 00    	je     5050 <loc_category_get_id+0x160>
    4f06:	c7 04 24 28 2b 02 00 	movl   $0x22b28,(%esp)
    4f0d:	e8 ae 54 00 00       	call   a3c0 <fibril_mutex_lock>
    4f12:	a1 94 2d 02 00       	mov    0x22d94,%eax
    4f17:	85 c0                	test   %eax,%eax
    4f19:	75 38                	jne    4f53 <loc_category_get_id+0x63>
    4f1b:	c7 04 24 38 2b 02 00 	movl   $0x22b38,(%esp)
    4f22:	8b 1d 90 2d 02 00    	mov    0x22d90,%ebx
    4f28:	e8 93 54 00 00       	call   a3c0 <fibril_mutex_lock>
    4f2d:	a1 94 2d 02 00       	mov    0x22d94,%eax
    4f32:	85 c0                	test   %eax,%eax
    4f34:	0f 84 fe 00 00 00    	je     5038 <loc_category_get_id+0x148>
    4f3a:	c7 04 24 38 2b 02 00 	movl   $0x22b38,(%esp)
    4f41:	e8 9a 55 00 00       	call   a4e0 <fibril_mutex_unlock>
    4f46:	a1 94 2d 02 00       	mov    0x22d94,%eax
    4f4b:	85 c0                	test   %eax,%eax
    4f4d:	0f 84 6d 01 00 00    	je     50c0 <loc_category_get_id+0x1d0>
    4f53:	c7 04 24 28 2b 02 00 	movl   $0x22b28,(%esp)
    4f5a:	e8 81 55 00 00       	call   a4e0 <fibril_mutex_unlock>
    4f5f:	c7 04 24 38 2b 02 00 	movl   $0x22b38,(%esp)
    4f66:	8b 1d 94 2d 02 00    	mov    0x22d94,%ebx
    4f6c:	e8 4f 54 00 00       	call   a3c0 <fibril_mutex_lock>
    4f71:	8b 3d 90 2d 02 00    	mov    0x22d90,%edi
    4f77:	85 ff                	test   %edi,%edi
    4f79:	0f 84 89 01 00 00    	je     5108 <loc_category_get_id+0x218>
    4f7f:	c7 04 24 38 2b 02 00 	movl   $0x22b38,(%esp)
    4f86:	e8 55 55 00 00       	call   a4e0 <fibril_mutex_unlock>
    4f8b:	a1 94 2d 02 00       	mov    0x22d94,%eax
    4f90:	89 04 24             	mov    %eax,(%esp)
    4f93:	e8 e8 17 01 00       	call   16780 <async_exchange_begin>
    4f98:	89 c3                	mov    %eax,%ebx
    4f9a:	8d 45 c4             	lea    -0x3c(%ebp),%eax
    4f9d:	c7 44 24 14 00 00 00 	movl   $0x0,0x14(%esp)
    4fa4:	00 
    4fa5:	89 44 24 18          	mov    %eax,0x18(%esp)
    4fa9:	c7 44 24 10 00 00 00 	movl   $0x0,0x10(%esp)
    4fb0:	00 
    4fb1:	c7 44 24 0c 00 00 00 	movl   $0x0,0xc(%esp)
    4fb8:	00 
    4fb9:	c7 44 24 08 00 00 00 	movl   $0x0,0x8(%esp)
    4fc0:	00 
    4fc1:	c7 44 24 04 0a 04 00 	movl   $0x40a,0x4(%esp)
    4fc8:	00 
    4fc9:	89 1c 24             	mov    %ebx,(%esp)
    4fcc:	e8 4f 01 01 00       	call   15120 <async_send_fast>
    4fd1:	89 34 24             	mov    %esi,(%esp)
    4fd4:	89 c7                	mov    %eax,%edi
    4fd6:	e8 c5 21 00 00       	call   71a0 <str_size>
    4fdb:	89 74 24 04          	mov    %esi,0x4(%esp)
    4fdf:	89 44 24 08          	mov    %eax,0x8(%esp)
    4fe3:	89 1c 24             	mov    %ebx,(%esp)
    4fe6:	e8 85 26 01 00       	call   17670 <async_data_write_start>
    4feb:	89 1c 24             	mov    %ebx,(%esp)
    4fee:	89 45 c0             	mov    %eax,-0x40(%ebp)
    4ff1:	e8 fa 1a 01 00       	call   16af0 <async_exchange_end>
    4ff6:	8b 4d c0             	mov    -0x40(%ebp),%ecx
    4ff9:	85 c9                	test   %ecx,%ecx
    4ffb:	0f 85 ef 00 00 00    	jne    50f0 <loc_category_get_id+0x200>
    5001:	8d 45 c0             	lea    -0x40(%ebp),%eax
    5004:	89 3c 24             	mov    %edi,(%esp)
    5007:	89 44 24 04          	mov    %eax,0x4(%esp)
    500b:	e8 e0 02 01 00       	call   152f0 <async_wait_for>
    5010:	8b 45 c0             	mov    -0x40(%ebp),%eax
    5013:	85 c0                	test   %eax,%eax
    5015:	0f 84 85 00 00 00    	je     50a0 <loc_category_get_id+0x1b0>
    501b:	8b 55 0c             	mov    0xc(%ebp),%edx
    501e:	85 d2                	test   %edx,%edx
    5020:	74 09                	je     502b <loc_category_get_id+0x13b>
    5022:	8b 55 0c             	mov    0xc(%ebp),%edx
    5025:	c7 02 ff ff ff ff    	movl   $0xffffffff,(%edx)
    502b:	83 c4 5c             	add    $0x5c,%esp
    502e:	5b                   	pop    %ebx
    502f:	5e                   	pop    %esi
    5030:	5f                   	pop    %edi
    5031:	5d                   	pop    %ebp
    5032:	c3                   	ret    
    5033:	90                   	nop
    5034:	8d 74 26 00          	lea    0x0(%esi,%eiz,1),%esi
    5038:	85 db                	test   %ebx,%ebx
    503a:	0f 84 fa fe ff ff    	je     4f3a <loc_category_get_id+0x4a>
    5040:	89 1d 94 2d 02 00    	mov    %ebx,0x22d94
    5046:	e9 ef fe ff ff       	jmp    4f3a <loc_category_get_id+0x4a>
    504b:	90                   	nop
    504c:	8d 74 26 00          	lea    0x0(%esi,%eiz,1),%esi
    5050:	c7 04 24 38 2b 02 00 	movl   $0x22b38,(%esp)
    5057:	e8 64 53 00 00       	call   a3c0 <fibril_mutex_lock>
    505c:	8b 1d 90 2d 02 00    	mov    0x22d90,%ebx
    5062:	85 db                	test   %ebx,%ebx
    5064:	0f 84 b1 00 00 00    	je     511b <loc_category_get_id+0x22b>
    506a:	c7 04 24 38 2b 02 00 	movl   $0x22b38,(%esp)
    5071:	e8 6a 54 00 00       	call   a4e0 <fibril_mutex_unlock>
    5076:	a1 90 2d 02 00       	mov    0x22d90,%eax
    507b:	85 c0                	test   %eax,%eax
    507d:	74 12                	je     5091 <loc_category_get_id+0x1a1>
    507f:	89 04 24             	mov    %eax,(%esp)
    5082:	e8 f9 16 01 00       	call   16780 <async_exchange_begin>
    5087:	89 c3                	mov    %eax,%ebx
    5089:	85 c0                	test   %eax,%eax
    508b:	0f 85 09 ff ff ff    	jne    4f9a <loc_category_get_id+0xaa>
    5091:	e8 5a 93 01 00       	call   1e3f0 <__errno>
    5096:	8b 00                	mov    (%eax),%eax
    5098:	eb 91                	jmp    502b <loc_category_get_id+0x13b>
    509a:	8d b6 00 00 00 00    	lea    0x0(%esi),%esi
    50a0:	8b 45 0c             	mov    0xc(%ebp),%eax
    50a3:	85 c0                	test   %eax,%eax
    50a5:	74 08                	je     50af <loc_category_get_id+0x1bf>
    50a7:	8b 55 0c             	mov    0xc(%ebp),%edx
    50aa:	8b 45 c8             	mov    -0x38(%ebp),%eax
    50ad:	89 02                	mov    %eax,(%edx)
    50af:	83 c4 5c             	add    $0x5c,%esp
    50b2:	31 c0                	xor    %eax,%eax
    50b4:	5b                   	pop    %ebx
    50b5:	5e                   	pop    %esi
    50b6:	5f                   	pop    %edi
    50b7:	5d                   	pop    %ebp
    50b8:	c3                   	ret    
    50b9:	8d b4 26 00 00 00 00 	lea    0x0(%esi,%eiz,1),%esi
    50c0:	c7 44 24 0c 00 00 00 	movl   $0x0,0xc(%esp)
    50c7:	00 
    50c8:	c7 44 24 08 02 00 00 	movl   $0x2,0x8(%esp)
    50cf:	00 
    50d0:	c7 44 24 04 6c 6f 63 	movl   $0x20636f6c,0x4(%esp)
    50d7:	20 
    50d8:	c7 04 24 02 00 00 00 	movl   $0x2,(%esp)
    50df:	e8 ec e9 00 00       	call   13ad0 <service_connect_blocking>
    50e4:	a3 94 2d 02 00       	mov    %eax,0x22d94
    50e9:	e9 29 fe ff ff       	jmp    4f17 <loc_category_get_id+0x27>
    50ee:	66 90                	xchg   %ax,%ax
    50f0:	89 3c 24             	mov    %edi,(%esp)
    50f3:	e8 48 04 01 00       	call   15540 <async_forget>
    50f8:	8b 45 c0             	mov    -0x40(%ebp),%eax
    50fb:	83 c4 5c             	add    $0x5c,%esp
    50fe:	5b                   	pop    %ebx
    50ff:	5e                   	pop    %esi
    5100:	5f                   	pop    %edi
    5101:	5d                   	pop    %ebp
    5102:	c3                   	ret    
    5103:	90                   	nop
    5104:	8d 74 26 00          	lea    0x0(%esi,%eiz,1),%esi
    5108:	85 db                	test   %ebx,%ebx
    510a:	0f 84 6f fe ff ff    	je     4f7f <loc_category_get_id+0x8f>
    5110:	89 1d 90 2d 02 00    	mov    %ebx,0x22d90
    5116:	e9 64 fe ff ff       	jmp    4f7f <loc_category_get_id+0x8f>
    511b:	c7 44 24 0c 00 00 00 	movl   $0x0,0xc(%esp)
    5122:	00 
    5123:	c7 44 24 08 02 00 00 	movl   $0x2,0x8(%esp)
    512a:	00 
    512b:	c7 44 24 04 6c 6f 63 	movl   $0x20636f6c,0x4(%esp)
    5132:	20 
    5133:	c7 04 24 02 00 00 00 	movl   $0x2,(%esp)
    513a:	e8 11 e9 00 00       	call   13a50 <service_connect>
    513f:	a3 90 2d 02 00       	mov    %eax,0x22d90
    5144:	e9 21 ff ff ff       	jmp    506a <loc_category_get_id+0x17a>
    5149:	8d b4 26 00 00 00 00 	lea    0x0(%esi,%eiz,1),%esi

00005150 <loc_id_probe>:
    5150:	55                   	push   %ebp
    5151:	89 e5                	mov    %esp,%ebp
    5153:	56                   	push   %esi
    5154:	53                   	push   %ebx
    5155:	83 ec 40             	sub    $0x40,%esp
    5158:	c7 04 24 28 2b 02 00 	movl   $0x22b28,(%esp)
    515f:	e8 5c 52 00 00       	call   a3c0 <fibril_mutex_lock>
    5164:	a1 94 2d 02 00       	mov    0x22d94,%eax
    5169:	85 c0                	test   %eax,%eax
    516b:	75 38                	jne    51a5 <loc_id_probe+0x55>
    516d:	c7 04 24 38 2b 02 00 	movl   $0x22b38,(%esp)
    5174:	8b 1d 90 2d 02 00    	mov    0x22d90,%ebx
    517a:	e8 41 52 00 00       	call   a3c0 <fibril_mutex_lock>
    517f:	a1 94 2d 02 00       	mov    0x22d94,%eax
    5184:	85 c0                	test   %eax,%eax
    5186:	0f 84 d4 00 00 00    	je     5260 <loc_id_probe+0x110>
    518c:	c7 04 24 38 2b 02 00 	movl   $0x22b38,(%esp)
    5193:	e8 48 53 00 00       	call   a4e0 <fibril_mutex_unlock>
    5198:	a1 94 2d 02 00       	mov    0x22d94,%eax
    519d:	85 c0                	test   %eax,%eax
    519f:	0f 84 d3 00 00 00    	je     5278 <loc_id_probe+0x128>
    51a5:	c7 04 24 28 2b 02 00 	movl   $0x22b28,(%esp)
    51ac:	e8 2f 53 00 00       	call   a4e0 <fibril_mutex_unlock>
    51b1:	c7 04 24 38 2b 02 00 	movl   $0x22b38,(%esp)
    51b8:	8b 1d 94 2d 02 00    	mov    0x22d94,%ebx
    51be:	e8 fd 51 00 00       	call   a3c0 <fibril_mutex_lock>
    51c3:	a1 90 2d 02 00       	mov    0x22d90,%eax
    51c8:	85 c0                	test   %eax,%eax
    51ca:	0f 84 d8 00 00 00    	je     52a8 <loc_id_probe+0x158>
    51d0:	c7 04 24 38 2b 02 00 	movl   $0x22b38,(%esp)
    51d7:	e8 04 53 00 00       	call   a4e0 <fibril_mutex_unlock>
    51dc:	a1 94 2d 02 00       	mov    0x22d94,%eax
    51e1:	89 04 24             	mov    %eax,(%esp)
    51e4:	e8 97 15 01 00       	call   16780 <async_exchange_begin>
    51e9:	c7 44 24 28 00 00 00 	movl   $0x0,0x28(%esp)
    51f0:	00 
    51f1:	89 c3                	mov    %eax,%ebx
    51f3:	8d 45 f4             	lea    -0xc(%ebp),%eax
    51f6:	89 44 24 18          	mov    %eax,0x18(%esp)
    51fa:	8b 45 08             	mov    0x8(%ebp),%eax
    51fd:	c7 44 24 24 00 00 00 	movl   $0x0,0x24(%esp)
    5204:	00 
    5205:	c7 44 24 20 00 00 00 	movl   $0x0,0x20(%esp)
    520c:	00 
    520d:	c7 44 24 1c 00 00 00 	movl   $0x0,0x1c(%esp)
    5214:	00 
    5215:	c7 44 24 14 00 00 00 	movl   $0x0,0x14(%esp)
    521c:	00 
    521d:	c7 44 24 10 00 00 00 	movl   $0x0,0x10(%esp)
    5224:	00 
    5225:	c7 44 24 0c 00 00 00 	movl   $0x0,0xc(%esp)
    522c:	00 
