
locfs:     file format elf32-i386


Disassembly of section .init:

00001094 <__entry>:
    1094:	66 8c d0             	mov    %ss,%ax
    1097:	8e d8                	mov    %eax,%ds
    1099:	8e c0                	mov    %eax,%es
    109b:	8e e0                	mov    %eax,%fs
    109d:	b8 01 00 00 00       	mov    $0x1,%eax
    10a2:	0f a2                	cpuid  
    10a4:	0f ba e2 0b          	bt     $0xb,%edx
    10a8:	73 0c                	jae    10b6 <__entry+0x22>
    10aa:	8d 05 14 2b 02 00    	lea    0x22b14,%eax
    10b0:	c7 00 c7 d8 01 00    	movl   $0x1d8c7,(%eax)
    10b6:	6a 00                	push   $0x0
    10b8:	89 e5                	mov    %esp,%ebp
    10ba:	57                   	push   %edi
    10bb:	e8 a0 27 00 00       	call   3860 <__main>

Disassembly of section .text:

000010c0 <main>:
    10c0:	55                   	push   %ebp
    10c1:	89 e5                	mov    %esp,%ebp
    10c3:	53                   	push   %ebx
    10c4:	83 e4 f0             	and    $0xfffffff0,%esp
    10c7:	83 ec 10             	sub    $0x10,%esp
    10ca:	8b 5d 0c             	mov    0xc(%ebp),%ebx
    10cd:	c7 44 24 04 f2 fd 01 	movl   $0x1fdf2,0x4(%esp)
    10d4:	00 
    10d5:	c7 04 24 5c fe 01 00 	movl   $0x1fe5c,(%esp)
    10dc:	e8 ff d2 00 00       	call   e3e0 <printf>
    10e1:	83 7d 08 03          	cmpl   $0x3,0x8(%ebp)
    10e5:	0f 84 ac 00 00 00    	je     1197 <main+0xd7>
    10eb:	e8 a0 10 00 00       	call   2190 <locfs_init>
    10f0:	84 c0                	test   %al,%al
    10f2:	0f 84 db 00 00 00    	je     11d3 <main+0x113>
    10f8:	c7 44 24 0c 00 00 00 	movl   $0x0,0xc(%esp)
    10ff:	00 
    1100:	c7 44 24 08 00 00 00 	movl   $0x0,0x8(%esp)
    1107:	00 
    1108:	c7 44 24 04 76 66 73 	movl   $0x20736676,0x4(%esp)
    110f:	20 
    1110:	c7 04 24 02 00 00 00 	movl   $0x2,(%esp)
    1117:	e8 d4 27 01 00       	call   138f0 <service_connect_blocking>
    111c:	85 c0                	test   %eax,%eax
    111e:	0f 84 dc 00 00 00    	je     1200 <main+0x140>
    1124:	c7 44 24 0c c0 28 02 	movl   $0x228c0,0xc(%esp)
    112b:	00 
    112c:	c7 44 24 08 a0 28 02 	movl   $0x228a0,0x8(%esp)
    1133:	00 
    1134:	c7 44 24 04 80 28 02 	movl   $0x22880,0x4(%esp)
    113b:	00 
    113c:	89 04 24             	mov    %eax,(%esp)
    113f:	e8 7c 22 00 00       	call   33c0 <fs_register>
    1144:	89 c3                	mov    %eax,%ebx
    1146:	85 c0                	test   %eax,%eax
    1148:	75 33                	jne    117d <main+0xbd>
    114a:	c7 44 24 04 f2 fd 01 	movl   $0x1fdf2,0x4(%esp)
    1151:	00 
    1152:	c7 04 24 3f fe 01 00 	movl   $0x1fe3f,(%esp)
    1159:	e8 82 d2 00 00       	call   e3e0 <printf>
    115e:	c7 04 24 00 00 00 00 	movl   $0x0,(%esp)
    1165:	e8 36 ac 00 00       	call   bda0 <task_retval>
    116a:	c7 04 24 01 00 00 00 	movl   $0x1,(%esp)
    1171:	e8 0a 8b 00 00       	call   9c80 <fibril_switch>
    1176:	89 d8                	mov    %ebx,%eax
    1178:	8b 5d fc             	mov    -0x4(%ebp),%ebx
    117b:	c9                   	leave  
    117c:	c3                   	ret    
    117d:	89 44 24 08          	mov    %eax,0x8(%esp)
    1181:	c7 44 24 04 f2 fd 01 	movl   $0x1fdf2,0x4(%esp)
    1188:	00 
    1189:	c7 04 24 9c fe 01 00 	movl   $0x1fe9c,(%esp)
    1190:	e8 4b d2 00 00       	call   e3e0 <printf>
    1195:	eb df                	jmp    1176 <main+0xb6>
    1197:	c7 44 24 04 f8 fd 01 	movl   $0x1fdf8,0x4(%esp)
    119e:	00 
    119f:	8b 43 04             	mov    0x4(%ebx),%eax
    11a2:	89 04 24             	mov    %eax,(%esp)
    11a5:	e8 b6 65 00 00       	call   7760 <str_cmp>
    11aa:	85 c0                	test   %eax,%eax
    11ac:	75 3e                	jne    11ec <main+0x12c>
    11ae:	c7 44 24 08 0a 00 00 	movl   $0xa,0x8(%esp)
    11b5:	00 
    11b6:	c7 44 24 04 00 00 00 	movl   $0x0,0x4(%esp)
    11bd:	00 
    11be:	8b 43 08             	mov    0x8(%ebx),%eax
    11c1:	89 04 24             	mov    %eax,(%esp)
    11c4:	e8 c7 7f 00 00       	call   9190 <strtol>
    11c9:	a3 98 28 02 00       	mov    %eax,0x22898
    11ce:	e9 18 ff ff ff       	jmp    10eb <main+0x2b>
    11d3:	c7 44 24 04 f2 fd 01 	movl   $0x1fdf2,0x4(%esp)
    11da:	00 
    11db:	c7 04 24 7c fe 01 00 	movl   $0x1fe7c,(%esp)
    11e2:	e8 f9 d1 00 00       	call   e3e0 <printf>
    11e7:	83 cb ff             	or     $0xffffffff,%ebx
    11ea:	eb 8a                	jmp    1176 <main+0xb6>
    11ec:	c7 04 24 03 fe 01 00 	movl   $0x1fe03,(%esp)
    11f3:	83 cb ff             	or     $0xffffffff,%ebx
    11f6:	e8 e5 d1 00 00       	call   e3e0 <printf>
    11fb:	e9 76 ff ff ff       	jmp    1176 <main+0xb6>
    1200:	c7 44 24 04 f2 fd 01 	movl   $0x1fdf2,0x4(%esp)
    1207:	00 
    1208:	c7 04 24 21 fe 01 00 	movl   $0x1fe21,(%esp)
    120f:	e8 cc d1 00 00       	call   e3e0 <printf>
    1214:	83 cb ff             	or     $0xffffffff,%ebx
    1217:	e9 5a ff ff ff       	jmp    1176 <main+0xb6>
    121c:	66 90                	xchg   %ax,%ax
    121e:	66 90                	xchg   %ax,%ax

00001220 <services_key_hash>:
    1220:	55                   	push   %ebp
    1221:	89 e5                	mov    %esp,%ebp
    1223:	8b 45 08             	mov    0x8(%ebp),%eax
    1226:	5d                   	pop    %ebp
    1227:	8b 00                	mov    (%eax),%eax
    1229:	c3                   	ret    
    122a:	8d b6 00 00 00 00    	lea    0x0(%esi),%esi

00001230 <services_hash>:
    1230:	55                   	push   %ebp
    1231:	89 e5                	mov    %esp,%ebp
    1233:	8b 45 08             	mov    0x8(%ebp),%eax
    1236:	5d                   	pop    %ebp
    1237:	8b 40 f4             	mov    -0xc(%eax),%eax
    123a:	c3                   	ret    
    123b:	90                   	nop
    123c:	8d 74 26 00          	lea    0x0(%esi,%eiz,1),%esi

00001240 <services_key_equal>:
    1240:	55                   	push   %ebp
    1241:	89 e5                	mov    %esp,%ebp
    1243:	8b 45 08             	mov    0x8(%ebp),%eax
    1246:	8b 55 0c             	mov    0xc(%ebp),%edx
    1249:	5d                   	pop    %ebp
    124a:	8b 08                	mov    (%eax),%ecx
    124c:	39 4a f4             	cmp    %ecx,-0xc(%edx)
    124f:	0f 94 c0             	sete   %al
    1252:	c3                   	ret    
    1253:	8d b6 00 00 00 00    	lea    0x0(%esi),%esi
    1259:	8d bc 27 00 00 00 00 	lea    0x0(%edi,%eiz,1),%edi

00001260 <locfs_destroy_node>:
    1260:	55                   	push   %ebp
    1261:	b8 f5 ff ff ff       	mov    $0xfffffff5,%eax
    1266:	89 e5                	mov    %esp,%ebp
    1268:	5d                   	pop    %ebp
    1269:	c3                   	ret    
    126a:	8d b6 00 00 00 00    	lea    0x0(%esi),%esi

00001270 <locfs_link_node>:
    1270:	55                   	push   %ebp
    1271:	b8 f5 ff ff ff       	mov    $0xfffffff5,%eax
    1276:	89 e5                	mov    %esp,%ebp
    1278:	5d                   	pop    %ebp
    1279:	c3                   	ret    
    127a:	8d b6 00 00 00 00    	lea    0x0(%esi),%esi

00001280 <locfs_unlink_node>:
    1280:	55                   	push   %ebp
    1281:	b8 f5 ff ff ff       	mov    $0xfffffff5,%eax
    1286:	89 e5                	mov    %esp,%ebp
    1288:	5d                   	pop    %ebp
    1289:	c3                   	ret    
    128a:	8d b6 00 00 00 00    	lea    0x0(%esi),%esi

00001290 <locfs_index_get>:
    1290:	55                   	push   %ebp
    1291:	89 e5                	mov    %esp,%ebp
    1293:	8b 45 08             	mov    0x8(%ebp),%eax
    1296:	5d                   	pop    %ebp
    1297:	8b 40 10             	mov    0x10(%eax),%eax
    129a:	8b 40 04             	mov    0x4(%eax),%eax
    129d:	c3                   	ret    
    129e:	66 90                	xchg   %ax,%ax

000012a0 <locfs_size_get>:
    12a0:	55                   	push   %ebp
    12a1:	31 c0                	xor    %eax,%eax
    12a3:	89 e5                	mov    %esp,%ebp
    12a5:	31 d2                	xor    %edx,%edx
    12a7:	5d                   	pop    %ebp
    12a8:	c3                   	ret    
    12a9:	8d b4 26 00 00 00 00 	lea    0x0(%esi,%eiz,1),%esi

000012b0 <locfs_lnkcnt_get>:
    12b0:	55                   	push   %ebp
    12b1:	89 e5                	mov    %esp,%ebp
    12b3:	8b 45 08             	mov    0x8(%ebp),%eax
    12b6:	5d                   	pop    %ebp
    12b7:	8b 40 10             	mov    0x10(%eax),%eax
    12ba:	8b 40 04             	mov    0x4(%eax),%eax
    12bd:	85 c0                	test   %eax,%eax
    12bf:	0f 95 c0             	setne  %al
    12c2:	25 ff 00 00 00       	and    $0xff,%eax
    12c7:	c3                   	ret    
    12c8:	90                   	nop
    12c9:	8d b4 26 00 00 00 00 	lea    0x0(%esi,%eiz,1),%esi

000012d0 <locfs_is_directory>:
    12d0:	55                   	push   %ebp
    12d1:	89 e5                	mov    %esp,%ebp
    12d3:	8b 45 08             	mov    0x8(%ebp),%eax
    12d6:	5d                   	pop    %ebp
    12d7:	8b 40 10             	mov    0x10(%eax),%eax
    12da:	83 38 01             	cmpl   $0x1,(%eax)
    12dd:	0f 96 c0             	setbe  %al
    12e0:	c3                   	ret    
    12e1:	eb 0d                	jmp    12f0 <locfs_is_file>
    12e3:	90                   	nop
    12e4:	90                   	nop
    12e5:	90                   	nop
    12e6:	90                   	nop
    12e7:	90                   	nop
    12e8:	90                   	nop
    12e9:	90                   	nop
    12ea:	90                   	nop
    12eb:	90                   	nop
    12ec:	90                   	nop
    12ed:	90                   	nop
    12ee:	90                   	nop
    12ef:	90                   	nop

000012f0 <locfs_is_file>:
    12f0:	55                   	push   %ebp
    12f1:	89 e5                	mov    %esp,%ebp
    12f3:	8b 45 08             	mov    0x8(%ebp),%eax
    12f6:	5d                   	pop    %ebp
    12f7:	8b 40 10             	mov    0x10(%eax),%eax
    12fa:	83 38 02             	cmpl   $0x2,(%eax)
    12fd:	0f 94 c0             	sete   %al
    1300:	c3                   	ret    
    1301:	eb 0d                	jmp    1310 <locfs_service_get>
    1303:	90                   	nop
    1304:	90                   	nop
    1305:	90                   	nop
    1306:	90                   	nop
    1307:	90                   	nop
    1308:	90                   	nop
    1309:	90                   	nop
    130a:	90                   	nop
    130b:	90                   	nop
    130c:	90                   	nop
    130d:	90                   	nop
    130e:	90                   	nop
    130f:	90                   	nop

00001310 <locfs_service_get>:
    1310:	55                   	push   %ebp
    1311:	89 e5                	mov    %esp,%ebp
    1313:	8b 45 08             	mov    0x8(%ebp),%eax
    1316:	8b 50 10             	mov    0x10(%eax),%edx
    1319:	31 c0                	xor    %eax,%eax
    131b:	83 3a 02             	cmpl   $0x2,(%edx)
    131e:	74 08                	je     1328 <locfs_service_get+0x18>
    1320:	5d                   	pop    %ebp
    1321:	c3                   	ret    
    1322:	8d b6 00 00 00 00    	lea    0x0(%esi),%esi
    1328:	8b 42 04             	mov    0x4(%edx),%eax
    132b:	5d                   	pop    %ebp
    132c:	c3                   	ret    
    132d:	8d 76 00             	lea    0x0(%esi),%esi

00001330 <locfs_mounted>:
    1330:	55                   	push   %ebp
    1331:	89 e5                	mov    %esp,%ebp
    1333:	8b 45 10             	mov    0x10(%ebp),%eax
    1336:	c7 00 00 00 00 00    	movl   $0x0,(%eax)
    133c:	8b 45 14             	mov    0x14(%ebp),%eax
    133f:	c7 00 00 00 00 00    	movl   $0x0,(%eax)
    1345:	c7 40 04 00 00 00 00 	movl   $0x0,0x4(%eax)
    134c:	8b 45 18             	mov    0x18(%ebp),%eax
    134f:	c7 00 00 00 00 00    	movl   $0x0,(%eax)
    1355:	31 c0                	xor    %eax,%eax
    1357:	5d                   	pop    %ebp
    1358:	c3                   	ret    
    1359:	8d b4 26 00 00 00 00 	lea    0x0(%esi,%eiz,1),%esi

00001360 <locfs_unmounted>:
    1360:	55                   	push   %ebp
    1361:	b8 f5 ff ff ff       	mov    $0xfffffff5,%eax
    1366:	89 e5                	mov    %esp,%ebp
    1368:	5d                   	pop    %ebp
    1369:	c3                   	ret    
    136a:	8d b6 00 00 00 00    	lea    0x0(%esi),%esi

00001370 <locfs_truncate>:
    1370:	55                   	push   %ebp
    1371:	b8 f5 ff ff ff       	mov    $0xfffffff5,%eax
    1376:	89 e5                	mov    %esp,%ebp
    1378:	5d                   	pop    %ebp
    1379:	c3                   	ret    
    137a:	8d b6 00 00 00 00    	lea    0x0(%esi),%esi

00001380 <locfs_destroy>:
    1380:	55                   	push   %ebp
    1381:	b8 f5 ff ff ff       	mov    $0xfffffff5,%eax
    1386:	89 e5                	mov    %esp,%ebp
    1388:	5d                   	pop    %ebp
    1389:	c3                   	ret    
    138a:	8d b6 00 00 00 00    	lea    0x0(%esi),%esi

00001390 <locfs_write>:
    1390:	55                   	push   %ebp
    1391:	89 e5                	mov    %esp,%ebp
    1393:	57                   	push   %edi
    1394:	56                   	push   %esi
    1395:	53                   	push   %ebx
    1396:	83 ec 6c             	sub    $0x6c,%esp
    1399:	8b 5d 0c             	mov    0xc(%ebp),%ebx
    139c:	8b 75 10             	mov    0x10(%ebp),%esi
    139f:	8b 7d 14             	mov    0x14(%ebp),%edi
    13a2:	85 db                	test   %ebx,%ebx
    13a4:	0f 84 76 01 00 00    	je     1520 <locfs_write+0x190>
    13aa:	89 1c 24             	mov    %ebx,(%esp)
    13ad:	e8 2e 3e 00 00       	call   51e0 <loc_id_probe>
    13b2:	83 f8 01             	cmp    $0x1,%eax
    13b5:	0f 84 65 01 00 00    	je     1520 <locfs_write+0x190>
    13bb:	83 f8 02             	cmp    $0x2,%eax
    13be:	0f 85 4c 01 00 00    	jne    1510 <locfs_write+0x180>
    13c4:	c7 04 24 14 29 02 00 	movl   $0x22914,(%esp)
    13cb:	e8 80 90 00 00       	call   a450 <fibril_mutex_lock>
    13d0:	8d 45 b8             	lea    -0x48(%ebp),%eax
    13d3:	89 44 24 04          	mov    %eax,0x4(%esp)
    13d7:	c7 04 24 50 2b 02 00 	movl   $0x22b50,(%esp)
    13de:	89 5d b8             	mov    %ebx,-0x48(%ebp)
    13e1:	e8 2a 7f 01 00       	call   19310 <hash_table_find>
    13e6:	85 c0                	test   %eax,%eax
    13e8:	0f 84 4a 01 00 00    	je     1538 <locfs_write+0x1a8>
    13ee:	8d 50 f4             	lea    -0xc(%eax),%edx
    13f1:	8b 4a 04             	mov    0x4(%edx),%ecx
    13f4:	85 c9                	test   %ecx,%ecx
    13f6:	0f 84 4d 01 00 00    	je     1549 <locfs_write+0x1b9>
    13fc:	8d 45 bc             	lea    -0x44(%ebp),%eax
    13ff:	c7 44 24 04 00 00 00 	movl   $0x0,0x4(%esp)
    1406:	00 
    1407:	89 04 24             	mov    %eax,(%esp)
    140a:	89 55 b4             	mov    %edx,-0x4c(%ebp)
    140d:	e8 1e 62 01 00       	call   17630 <async_data_write_receive>
    1412:	8b 55 b4             	mov    -0x4c(%ebp),%edx
    1415:	84 c0                	test   %al,%al
    1417:	0f 84 c3 00 00 00    	je     14e0 <locfs_write+0x150>
    141d:	8b 42 04             	mov    0x4(%edx),%eax
    1420:	89 04 24             	mov    %eax,(%esp)
    1423:	e8 78 51 01 00       	call   165a0 <async_exchange_begin>
    1428:	89 5c 24 0c          	mov    %ebx,0xc(%esp)
    142c:	89 c2                	mov    %eax,%edx
    142e:	8d 45 c4             	lea    -0x3c(%ebp),%eax
    1431:	89 44 24 18          	mov    %eax,0x18(%esp)
    1435:	8b 45 08             	mov    0x8(%ebp),%eax
    1438:	89 14 24             	mov    %edx,(%esp)
    143b:	89 7c 24 14          	mov    %edi,0x14(%esp)
    143f:	89 74 24 10          	mov    %esi,0x10(%esp)
    1443:	89 44 24 08          	mov    %eax,0x8(%esp)
    1447:	c7 44 24 04 02 04 00 	movl   $0x402,0x4(%esp)
    144e:	00 
    144f:	89 55 b4             	mov    %edx,-0x4c(%ebp)
    1452:	e8 e9 3a 01 00       	call   14f40 <async_send_fast>
    1457:	8b 55 b4             	mov    -0x4c(%ebp),%edx
    145a:	89 c3                	mov    %eax,%ebx
    145c:	8b 45 bc             	mov    -0x44(%ebp),%eax
    145f:	89 54 24 04          	mov    %edx,0x4(%esp)
    1463:	c7 44 24 14 01 00 00 	movl   $0x1,0x14(%esp)
    146a:	00 
    146b:	c7 44 24 10 00 00 00 	movl   $0x0,0x10(%esp)
    1472:	00 
    1473:	c7 44 24 0c 00 00 00 	movl   $0x0,0xc(%esp)
    147a:	00 
    147b:	c7 44 24 08 00 00 00 	movl   $0x0,0x8(%esp)
    1482:	00 
    1483:	89 04 24             	mov    %eax,(%esp)
    1486:	e8 35 48 01 00       	call   15cc0 <async_forward_fast>
    148b:	8b 55 b4             	mov    -0x4c(%ebp),%edx
    148e:	89 14 24             	mov    %edx,(%esp)
    1491:	e8 7a 54 01 00       	call   16910 <async_exchange_end>
    1496:	c7 04 24 14 29 02 00 	movl   $0x22914,(%esp)
    149d:	e8 ce 90 00 00       	call   a570 <fibril_mutex_unlock>
    14a2:	8d 45 c0             	lea    -0x40(%ebp),%eax
    14a5:	89 44 24 04          	mov    %eax,0x4(%esp)
    14a9:	89 1c 24             	mov    %ebx,(%esp)
    14ac:	e8 5f 3c 01 00       	call   15110 <async_wait_for>
    14b1:	8b 45 c0             	mov    -0x40(%ebp),%eax
    14b4:	83 f8 f9             	cmp    $0xfffffff9,%eax
    14b7:	74 77                	je     1530 <locfs_write+0x1a0>
    14b9:	8b 55 18             	mov    0x18(%ebp),%edx
    14bc:	8b 4d c8             	mov    -0x38(%ebp),%ecx
    14bf:	89 0a                	mov    %ecx,(%edx)
    14c1:	8b 55 1c             	mov    0x1c(%ebp),%edx
    14c4:	c7 02 00 00 00 00    	movl   $0x0,(%edx)
    14ca:	c7 42 04 00 00 00 00 	movl   $0x0,0x4(%edx)
    14d1:	83 c4 6c             	add    $0x6c,%esp
    14d4:	5b                   	pop    %ebx
    14d5:	5e                   	pop    %esi
    14d6:	5f                   	pop    %edi
    14d7:	5d                   	pop    %ebp
    14d8:	c3                   	ret    
    14d9:	8d b4 26 00 00 00 00 	lea    0x0(%esi,%eiz,1),%esi
    14e0:	c7 04 24 14 29 02 00 	movl   $0x22914,(%esp)
    14e7:	e8 84 90 00 00       	call   a570 <fibril_mutex_unlock>
    14ec:	8b 45 bc             	mov    -0x44(%ebp),%eax
    14ef:	c7 44 24 04 f2 ff ff 	movl   $0xfffffff2,0x4(%esp)
    14f6:	ff 
    14f7:	89 04 24             	mov    %eax,(%esp)
    14fa:	e8 a1 46 01 00       	call   15ba0 <async_answer_0>
    14ff:	83 c4 6c             	add    $0x6c,%esp
    1502:	b8 f2 ff ff ff       	mov    $0xfffffff2,%eax
    1507:	5b                   	pop    %ebx
    1508:	5e                   	pop    %esi
    1509:	5f                   	pop    %edi
    150a:	5d                   	pop    %ebp
    150b:	c3                   	ret    
    150c:	8d 74 26 00          	lea    0x0(%esi,%eiz,1),%esi
    1510:	83 c4 6c             	add    $0x6c,%esp
    1513:	83 c8 ff             	or     $0xffffffff,%eax
    1516:	5b                   	pop    %ebx
    1517:	5e                   	pop    %esi
    1518:	5f                   	pop    %edi
    1519:	5d                   	pop    %ebp
    151a:	c3                   	ret    
    151b:	90                   	nop
    151c:	8d 74 26 00          	lea    0x0(%esi,%eiz,1),%esi
    1520:	83 c4 6c             	add    $0x6c,%esp
    1523:	b8 f5 ff ff ff       	mov    $0xfffffff5,%eax
    1528:	5b                   	pop    %ebx
    1529:	5e                   	pop    %esi
    152a:	5f                   	pop    %edi
    152b:	5d                   	pop    %ebp
    152c:	c3                   	ret    
    152d:	8d 76 00             	lea    0x0(%esi),%esi
    1530:	b0 f5                	mov    $0xf5,%al
    1532:	eb 85                	jmp    14b9 <locfs_write+0x129>
    1534:	8d 74 26 00          	lea    0x0(%esi,%eiz,1),%esi
    1538:	c7 04 24 14 29 02 00 	movl   $0x22914,(%esp)
    153f:	e8 2c 90 00 00       	call   a570 <fibril_mutex_unlock>
    1544:	83 c8 ff             	or     $0xffffffff,%eax
    1547:	eb 88                	jmp    14d1 <locfs_write+0x141>
    1549:	c7 44 24 08 76 02 00 	movl   $0x276,0x8(%esp)
    1550:	00 
    1551:	c7 44 24 04 c5 fe 01 	movl   $0x1fec5,0x4(%esp)
    1558:	00 
    1559:	c7 04 24 d1 fe 01 00 	movl   $0x1fed1,(%esp)
    1560:	e8 db c2 01 00       	call   1d840 <assert_abort>
    1565:	8d 74 26 00          	lea    0x0(%esi,%eiz,1),%esi
    1569:	8d bc 27 00 00 00 00 	lea    0x0(%edi,%eiz,1),%edi

00001570 <locfs_node_put>:
    1570:	55                   	push   %ebp
    1571:	89 e5                	mov    %esp,%ebp
    1573:	53                   	push   %ebx
    1574:	83 ec 14             	sub    $0x14,%esp
    1577:	8b 5d 08             	mov    0x8(%ebp),%ebx
    157a:	8b 43 10             	mov    0x10(%ebx),%eax
    157d:	89 04 24             	mov    %eax,(%esp)
    1580:	e8 eb 1b 01 00       	call   13170 <free>
    1585:	89 1c 24             	mov    %ebx,(%esp)
    1588:	e8 e3 1b 01 00       	call   13170 <free>
    158d:	83 c4 14             	add    $0x14,%esp
    1590:	31 c0                	xor    %eax,%eax
    1592:	5b                   	pop    %ebx
    1593:	5d                   	pop    %ebp
    1594:	c3                   	ret    
    1595:	8d 74 26 00          	lea    0x0(%esi,%eiz,1),%esi
    1599:	8d bc 27 00 00 00 00 	lea    0x0(%edi,%eiz,1),%edi

000015a0 <services_remove_callback>:
    15a0:	55                   	push   %ebp
    15a1:	89 e5                	mov    %esp,%ebp
    15a3:	8b 45 08             	mov    0x8(%ebp),%eax
    15a6:	83 e8 0c             	sub    $0xc,%eax
    15a9:	89 45 08             	mov    %eax,0x8(%ebp)
    15ac:	5d                   	pop    %ebp
    15ad:	e9 be 1b 01 00       	jmp    13170 <free>
    15b2:	8d b4 26 00 00 00 00 	lea    0x0(%esi,%eiz,1),%esi
    15b9:	8d bc 27 00 00 00 00 	lea    0x0(%edi,%eiz,1),%edi

000015c0 <locfs_read>:
    15c0:	55                   	push   %ebp
    15c1:	89 e5                	mov    %esp,%ebp
    15c3:	57                   	push   %edi
    15c4:	56                   	push   %esi
    15c5:	53                   	push   %ebx
    15c6:	83 ec 7c             	sub    $0x7c,%esp
    15c9:	8b 5d 0c             	mov    0xc(%ebp),%ebx
    15cc:	8b 55 10             	mov    0x10(%ebp),%edx
    15cf:	8b 4d 14             	mov    0x14(%ebp),%ecx
    15d2:	89 55 a0             	mov    %edx,-0x60(%ebp)
    15d5:	89 4d a4             	mov    %ecx,-0x5c(%ebp)
    15d8:	85 db                	test   %ebx,%ebx
    15da:	0f 85 e8 00 00 00    	jne    16c8 <locfs_read+0x108>
    15e0:	8d 45 bc             	lea    -0x44(%ebp),%eax
    15e3:	89 44 24 04          	mov    %eax,0x4(%esp)
    15e7:	8d 45 b8             	lea    -0x48(%ebp),%eax
    15ea:	89 04 24             	mov    %eax,(%esp)
    15ed:	e8 1e 5b 01 00       	call   17110 <async_data_read_receive>
    15f2:	84 c0                	test   %al,%al
    15f4:	0f 84 66 01 00 00    	je     1760 <locfs_read+0x1a0>
    15fa:	8d 4d b4             	lea    -0x4c(%ebp),%ecx
    15fd:	31 f6                	xor    %esi,%esi
    15ff:	89 0c 24             	mov    %ecx,(%esp)
    1602:	31 ff                	xor    %edi,%edi
    1604:	e8 a7 44 00 00       	call   5ab0 <loc_get_namespaces>
    1609:	89 c3                	mov    %eax,%ebx
    160b:	85 c0                	test   %eax,%eax
    160d:	75 14                	jne    1623 <locfs_read+0x63>
    160f:	e9 1c 02 00 00       	jmp    1830 <locfs_read+0x270>
    1614:	8d 74 26 00          	lea    0x0(%esi,%eiz,1),%esi
    1618:	47                   	inc    %edi
    1619:	81 c6 04 01 00 00    	add    $0x104,%esi
    161f:	39 df                	cmp    %ebx,%edi
    1621:	74 35                	je     1658 <locfs_read+0x98>
    1623:	8b 45 b4             	mov    -0x4c(%ebp),%eax
    1626:	c7 44 24 04 96 0d 02 	movl   $0x20d96,0x4(%esp)
    162d:	00 
    162e:	01 f0                	add    %esi,%eax
    1630:	83 c0 04             	add    $0x4,%eax
    1633:	89 04 24             	mov    %eax,(%esp)
    1636:	e8 25 61 00 00       	call   7760 <str_cmp>
    163b:	85 c0                	test   %eax,%eax
    163d:	75 d9                	jne    1618 <locfs_read+0x58>
    163f:	83 7d a4 00          	cmpl   $0x0,-0x5c(%ebp)
    1643:	0f 87 07 03 00 00    	ja     1950 <locfs_read+0x390>
    1649:	39 7d a0             	cmp    %edi,-0x60(%ebp)
    164c:	0f 83 fe 02 00 00    	jae    1950 <locfs_read+0x390>
    1652:	8d b6 00 00 00 00    	lea    0x0(%esi),%esi
    1658:	31 ff                	xor    %edi,%edi
    165a:	89 de                	mov    %ebx,%esi
    165c:	83 7d a4 00          	cmpl   $0x0,-0x5c(%ebp)
    1660:	0f 87 ca 01 00 00    	ja     1830 <locfs_read+0x270>
    1666:	39 5d a0             	cmp    %ebx,-0x60(%ebp)
    1669:	0f 83 c1 01 00 00    	jae    1830 <locfs_read+0x270>
    166f:	8b 45 a0             	mov    -0x60(%ebp),%eax
    1672:	89 c2                	mov    %eax,%edx
    1674:	c1 e2 08             	shl    $0x8,%edx
    1677:	8d 1c 82             	lea    (%edx,%eax,4),%ebx
    167a:	8b 45 b4             	mov    -0x4c(%ebp),%eax
    167d:	01 d8                	add    %ebx,%eax
    167f:	83 c0 04             	add    $0x4,%eax
    1682:	89 04 24             	mov    %eax,(%esp)
    1685:	e8 a6 5b 00 00       	call   7230 <str_size>
    168a:	40                   	inc    %eax
    168b:	89 44 24 08          	mov    %eax,0x8(%esp)
    168f:	8b 45 b4             	mov    -0x4c(%ebp),%eax
    1692:	01 c3                	add    %eax,%ebx
    1694:	83 c3 04             	add    $0x4,%ebx
    1697:	89 5c 24 04          	mov    %ebx,0x4(%esp)
    169b:	8b 45 b8             	mov    -0x48(%ebp),%eax
    169e:	89 04 24             	mov    %eax,(%esp)
    16a1:	e8 ca 5a 01 00       	call   17170 <async_data_read_finalize>
    16a6:	8b 45 b4             	mov    -0x4c(%ebp),%eax
    16a9:	89 04 24             	mov    %eax,(%esp)
    16ac:	e8 bf 1a 01 00       	call   13170 <free>
    16b1:	8b 45 18             	mov    0x18(%ebp),%eax
    16b4:	c7 00 01 00 00 00    	movl   $0x1,(%eax)
    16ba:	83 c4 7c             	add    $0x7c,%esp
    16bd:	31 c0                	xor    %eax,%eax
    16bf:	5b                   	pop    %ebx
    16c0:	5e                   	pop    %esi
    16c1:	5f                   	pop    %edi
    16c2:	5d                   	pop    %ebp
    16c3:	c3                   	ret    
    16c4:	8d 74 26 00          	lea    0x0(%esi,%eiz,1),%esi
    16c8:	89 1c 24             	mov    %ebx,(%esp)
    16cb:	e8 10 3b 00 00       	call   51e0 <loc_id_probe>
    16d0:	83 f8 01             	cmp    $0x1,%eax
    16d3:	0f 84 e7 01 00 00    	je     18c0 <locfs_read+0x300>
    16d9:	83 f8 02             	cmp    $0x2,%eax
    16dc:	0f 85 a6 02 00 00    	jne    1988 <locfs_read+0x3c8>
    16e2:	c7 04 24 14 29 02 00 	movl   $0x22914,(%esp)
    16e9:	e8 62 8d 00 00       	call   a450 <fibril_mutex_lock>
    16ee:	8d 45 b8             	lea    -0x48(%ebp),%eax
    16f1:	89 44 24 04          	mov    %eax,0x4(%esp)
    16f5:	c7 04 24 50 2b 02 00 	movl   $0x22b50,(%esp)
    16fc:	89 5d b8             	mov    %ebx,-0x48(%ebp)
    16ff:	e8 0c 7c 01 00       	call   19310 <hash_table_find>
    1704:	85 c0                	test   %eax,%eax
    1706:	0f 84 8b 02 00 00    	je     1997 <locfs_read+0x3d7>
    170c:	8d 70 f4             	lea    -0xc(%eax),%esi
    170f:	8b 46 04             	mov    0x4(%esi),%eax
    1712:	85 c0                	test   %eax,%eax
    1714:	0f 84 b7 02 00 00    	je     19d1 <locfs_read+0x411>
    171a:	8d 45 bc             	lea    -0x44(%ebp),%eax
    171d:	c7 44 24 04 00 00 00 	movl   $0x0,0x4(%esp)
    1724:	00 
    1725:	89 04 24             	mov    %eax,(%esp)
    1728:	e8 e3 59 01 00       	call   17110 <async_data_read_receive>
    172d:	84 c0                	test   %al,%al
    172f:	75 4f                	jne    1780 <locfs_read+0x1c0>
    1731:	c7 04 24 14 29 02 00 	movl   $0x22914,(%esp)
    1738:	e8 33 8e 00 00       	call   a570 <fibril_mutex_unlock>
    173d:	8b 45 bc             	mov    -0x44(%ebp),%eax
    1740:	c7 44 24 04 f2 ff ff 	movl   $0xfffffff2,0x4(%esp)
    1747:	ff 
    1748:	89 04 24             	mov    %eax,(%esp)
    174b:	e8 50 44 01 00       	call   15ba0 <async_answer_0>
    1750:	83 c4 7c             	add    $0x7c,%esp
    1753:	b8 f2 ff ff ff       	mov    $0xfffffff2,%eax
    1758:	5b                   	pop    %ebx
    1759:	5e                   	pop    %esi
    175a:	5f                   	pop    %edi
    175b:	5d                   	pop    %ebp
    175c:	c3                   	ret    
    175d:	8d 76 00             	lea    0x0(%esi),%esi
    1760:	8b 45 b8             	mov    -0x48(%ebp),%eax
    1763:	c7 44 24 04 f2 ff ff 	movl   $0xfffffff2,0x4(%esp)
    176a:	ff 
    176b:	89 04 24             	mov    %eax,(%esp)
    176e:	e8 2d 44 01 00       	call   15ba0 <async_answer_0>
    1773:	b8 f2 ff ff ff       	mov    $0xfffffff2,%eax
    1778:	83 c4 7c             	add    $0x7c,%esp
    177b:	5b                   	pop    %ebx
    177c:	5e                   	pop    %esi
    177d:	5f                   	pop    %edi
    177e:	5d                   	pop    %ebp
    177f:	c3                   	ret    
    1780:	8b 46 04             	mov    0x4(%esi),%eax
    1783:	89 04 24             	mov    %eax,(%esp)
    1786:	e8 15 4e 01 00       	call   165a0 <async_exchange_begin>
    178b:	8b 4d a0             	mov    -0x60(%ebp),%ecx
    178e:	89 c6                	mov    %eax,%esi
    1790:	8d 45 c4             	lea    -0x3c(%ebp),%eax
    1793:	89 44 24 18          	mov    %eax,0x18(%esp)
    1797:	8b 45 a4             	mov    -0x5c(%ebp),%eax
    179a:	89 44 24 14          	mov    %eax,0x14(%esp)
    179e:	8b 45 08             	mov    0x8(%ebp),%eax
    17a1:	89 4c 24 10          	mov    %ecx,0x10(%esp)
    17a5:	89 5c 24 0c          	mov    %ebx,0xc(%esp)
    17a9:	89 44 24 08          	mov    %eax,0x8(%esp)
    17ad:	c7 44 24 04 01 04 00 	movl   $0x401,0x4(%esp)
    17b4:	00 
    17b5:	89 34 24             	mov    %esi,(%esp)
    17b8:	e8 83 37 01 00       	call   14f40 <async_send_fast>
    17bd:	c7 44 24 14 01 00 00 	movl   $0x1,0x14(%esp)
    17c4:	00 
    17c5:	89 c3                	mov    %eax,%ebx
    17c7:	8b 45 bc             	mov    -0x44(%ebp),%eax
    17ca:	c7 44 24 10 00 00 00 	movl   $0x0,0x10(%esp)
    17d1:	00 
    17d2:	c7 44 24 0c 00 00 00 	movl   $0x0,0xc(%esp)
    17d9:	00 
    17da:	c7 44 24 08 00 00 00 	movl   $0x0,0x8(%esp)
    17e1:	00 
    17e2:	89 74 24 04          	mov    %esi,0x4(%esp)
    17e6:	89 04 24             	mov    %eax,(%esp)
    17e9:	e8 d2 44 01 00       	call   15cc0 <async_forward_fast>
    17ee:	89 34 24             	mov    %esi,(%esp)
    17f1:	e8 1a 51 01 00       	call   16910 <async_exchange_end>
    17f6:	c7 04 24 14 29 02 00 	movl   $0x22914,(%esp)
    17fd:	e8 6e 8d 00 00       	call   a570 <fibril_mutex_unlock>
    1802:	8d 45 c0             	lea    -0x40(%ebp),%eax
    1805:	89 44 24 04          	mov    %eax,0x4(%esp)
    1809:	89 1c 24             	mov    %ebx,(%esp)
    180c:	e8 ff 38 01 00       	call   15110 <async_wait_for>
    1811:	8b 45 c0             	mov    -0x40(%ebp),%eax
    1814:	83 f8 f9             	cmp    $0xfffffff9,%eax
    1817:	0f 84 73 01 00 00    	je     1990 <locfs_read+0x3d0>
    181d:	8b 4d 18             	mov    0x18(%ebp),%ecx
    1820:	8b 55 c8             	mov    -0x38(%ebp),%edx
    1823:	89 11                	mov    %edx,(%ecx)
    1825:	83 c4 7c             	add    $0x7c,%esp
    1828:	5b                   	pop    %ebx
    1829:	5e                   	pop    %esi
    182a:	5f                   	pop    %edi
    182b:	5d                   	pop    %ebp
    182c:	c3                   	ret    
    182d:	8d 76 00             	lea    0x0(%esi),%esi
    1830:	8b 45 b4             	mov    -0x4c(%ebp),%eax
    1833:	89 04 24             	mov    %eax,(%esp)
    1836:	e8 35 19 01 00       	call   13170 <free>
    183b:	8d 45 c0             	lea    -0x40(%ebp),%eax
    183e:	c7 44 24 08 00 00 00 	movl   $0x0,0x8(%esp)
    1845:	00 
    1846:	89 44 24 04          	mov    %eax,0x4(%esp)
    184a:	c7 04 24 96 0d 02 00 	movl   $0x20d96,(%esp)
    1851:	e8 ca 34 00 00       	call   4d20 <loc_namespace_get_id>
    1856:	85 c0                	test   %eax,%eax
    1858:	0f 85 0d 01 00 00    	jne    196b <locfs_read+0x3ab>
    185e:	8b 55 a0             	mov    -0x60(%ebp),%edx
    1861:	8b 4d a4             	mov    -0x5c(%ebp),%ecx
    1864:	29 f2                	sub    %esi,%edx
    1866:	8b 45 c0             	mov    -0x40(%ebp),%eax
    1869:	19 f9                	sbb    %edi,%ecx
    186b:	89 04 24             	mov    %eax,(%esp)
    186e:	89 cf                	mov    %ecx,%edi
    1870:	8d 4d b4             	lea    -0x4c(%ebp),%ecx
    1873:	89 4c 24 04          	mov    %ecx,0x4(%esp)
    1877:	89 d6                	mov    %edx,%esi
    1879:	e8 12 45 00 00       	call   5d90 <loc_get_services>
    187e:	83 ff 00             	cmp    $0x0,%edi
    1881:	0f 87 d9 00 00 00    	ja     1960 <locfs_read+0x3a0>
    1887:	39 c6                	cmp    %eax,%esi
    1889:	0f 83 d1 00 00 00    	jae    1960 <locfs_read+0x3a0>
    188f:	89 f0                	mov    %esi,%eax
    1891:	c1 e0 08             	shl    $0x8,%eax
    1894:	8d 1c b0             	lea    (%eax,%esi,4),%ebx
    1897:	8b 45 b4             	mov    -0x4c(%ebp),%eax
    189a:	01 d8                	add    %ebx,%eax
    189c:	83 c0 04             	add    $0x4,%eax
    189f:	89 04 24             	mov    %eax,(%esp)
    18a2:	e8 89 59 00 00       	call   7230 <str_size>
    18a7:	40                   	inc    %eax
    18a8:	89 44 24 08          	mov    %eax,0x8(%esp)
    18ac:	8b 45 b4             	mov    -0x4c(%ebp),%eax
    18af:	01 d8                	add    %ebx,%eax
    18b1:	83 c0 04             	add    $0x4,%eax
    18b4:	89 44 24 04          	mov    %eax,0x4(%esp)
    18b8:	e9 de fd ff ff       	jmp    169b <locfs_read+0xdb>
    18bd:	8d 76 00             	lea    0x0(%esi),%esi
    18c0:	8d 45 c0             	lea    -0x40(%ebp),%eax
    18c3:	89 44 24 04          	mov    %eax,0x4(%esp)
    18c7:	8d 45 bc             	lea    -0x44(%ebp),%eax
    18ca:	89 04 24             	mov    %eax,(%esp)
    18cd:	e8 3e 58 01 00       	call   17110 <async_data_read_receive>
    18d2:	84 c0                	test   %al,%al
    18d4:	0f 84 63 fe ff ff    	je     173d <locfs_read+0x17d>
    18da:	8d 45 b4             	lea    -0x4c(%ebp),%eax
    18dd:	89 1c 24             	mov    %ebx,(%esp)
    18e0:	89 44 24 04          	mov    %eax,0x4(%esp)
    18e4:	e8 a7 44 00 00       	call   5d90 <loc_get_services>
    18e9:	83 7d a4 00          	cmpl   $0x0,-0x5c(%ebp)
    18ed:	0f 87 b8 00 00 00    	ja     19ab <locfs_read+0x3eb>
    18f3:	39 45 a0             	cmp    %eax,-0x60(%ebp)
    18f6:	0f 83 af 00 00 00    	jae    19ab <locfs_read+0x3eb>
    18fc:	8b 45 a0             	mov    -0x60(%ebp),%eax
    18ff:	89 c2                	mov    %eax,%edx
    1901:	c1 e2 08             	shl    $0x8,%edx
    1904:	8d 1c 82             	lea    (%edx,%eax,4),%ebx
    1907:	8b 45 b4             	mov    -0x4c(%ebp),%eax
    190a:	01 d8                	add    %ebx,%eax
    190c:	83 c0 04             	add    $0x4,%eax
    190f:	89 04 24             	mov    %eax,(%esp)
    1912:	e8 19 59 00 00       	call   7230 <str_size>
    1917:	40                   	inc    %eax
    1918:	89 44 24 08          	mov    %eax,0x8(%esp)
    191c:	8b 45 b4             	mov    -0x4c(%ebp),%eax
    191f:	01 d8                	add    %ebx,%eax
    1921:	83 c0 04             	add    $0x4,%eax
    1924:	89 44 24 04          	mov    %eax,0x4(%esp)
    1928:	8b 45 bc             	mov    -0x44(%ebp),%eax
    192b:	89 04 24             	mov    %eax,(%esp)
    192e:	e8 3d 58 01 00       	call   17170 <async_data_read_finalize>
    1933:	8b 45 b4             	mov    -0x4c(%ebp),%eax
    1936:	89 04 24             	mov    %eax,(%esp)
    1939:	e8 32 18 01 00       	call   13170 <free>
    193e:	8b 55 18             	mov    0x18(%ebp),%edx
    1941:	31 c0                	xor    %eax,%eax
    1943:	c7 02 01 00 00 00    	movl   $0x1,(%edx)
    1949:	e9 2a fe ff ff       	jmp    1778 <locfs_read+0x1b8>
    194e:	66 90                	xchg   %ax,%ax
    1950:	83 45 a0 01          	addl   $0x1,-0x60(%ebp)
    1954:	83 55 a4 00          	adcl   $0x0,-0x5c(%ebp)
    1958:	e9 fb fc ff ff       	jmp    1658 <locfs_read+0x98>
    195d:	8d 76 00             	lea    0x0(%esi),%esi
    1960:	8b 45 b4             	mov    -0x4c(%ebp),%eax
    1963:	89 04 24             	mov    %eax,(%esp)
    1966:	e8 05 18 01 00       	call   13170 <free>
    196b:	8b 45 b8             	mov    -0x48(%ebp),%eax
    196e:	c7 44 24 04 ff ff ff 	movl   $0xffffffff,0x4(%esp)
    1975:	ff 
    1976:	89 04 24             	mov    %eax,(%esp)
    1979:	e8 22 42 01 00       	call   15ba0 <async_answer_0>
    197e:	83 c8 ff             	or     $0xffffffff,%eax
    1981:	e9 f2 fd ff ff       	jmp    1778 <locfs_read+0x1b8>
    1986:	66 90                	xchg   %ax,%ax
    1988:	83 c8 ff             	or     $0xffffffff,%eax
    198b:	e9 e8 fd ff ff       	jmp    1778 <locfs_read+0x1b8>
    1990:	b0 f5                	mov    $0xf5,%al
    1992:	e9 86 fe ff ff       	jmp    181d <locfs_read+0x25d>
    1997:	c7 04 24 14 29 02 00 	movl   $0x22914,(%esp)
    199e:	e8 cd 8b 00 00       	call   a570 <fibril_mutex_unlock>
    19a3:	83 c8 ff             	or     $0xffffffff,%eax
    19a6:	e9 cd fd ff ff       	jmp    1778 <locfs_read+0x1b8>
    19ab:	8b 45 b4             	mov    -0x4c(%ebp),%eax
    19ae:	89 04 24             	mov    %eax,(%esp)
    19b1:	e8 ba 17 01 00       	call   13170 <free>
    19b6:	8b 45 bc             	mov    -0x44(%ebp),%eax
    19b9:	c7 44 24 04 ff ff ff 	movl   $0xffffffff,0x4(%esp)
    19c0:	ff 
    19c1:	89 04 24             	mov    %eax,(%esp)
    19c4:	e8 d7 41 01 00       	call   15ba0 <async_answer_0>
    19c9:	83 c8 ff             	or     $0xffffffff,%eax
    19cc:	e9 a7 fd ff ff       	jmp    1778 <locfs_read+0x1b8>
    19d1:	c7 44 24 08 36 02 00 	movl   $0x236,0x8(%esp)
    19d8:	00 
    19d9:	c7 44 24 04 c5 fe 01 	movl   $0x1fec5,0x4(%esp)
    19e0:	00 
    19e1:	c7 04 24 d1 fe 01 00 	movl   $0x1fed1,(%esp)
    19e8:	e8 53 be 01 00       	call   1d840 <assert_abort>
    19ed:	8d 76 00             	lea    0x0(%esi),%esi

000019f0 <locfs_node_open>:
    19f0:	55                   	push   %ebp
    19f1:	89 e5                	mov    %esp,%ebp
    19f3:	57                   	push   %edi
    19f4:	56                   	push   %esi
    19f5:	53                   	push   %ebx
    19f6:	83 ec 2c             	sub    $0x2c,%esp
    19f9:	8b 45 08             	mov    0x8(%ebp),%eax
    19fc:	8b 70 10             	mov    0x10(%eax),%esi
    19ff:	8b 46 04             	mov    0x4(%esi),%eax
    1a02:	85 c0                	test   %eax,%eax
    1a04:	75 0a                	jne    1a10 <locfs_node_open+0x20>
    1a06:	31 c0                	xor    %eax,%eax
    1a08:	83 c4 2c             	add    $0x2c,%esp
    1a0b:	5b                   	pop    %ebx
    1a0c:	5e                   	pop    %esi
    1a0d:	5f                   	pop    %edi
    1a0e:	5d                   	pop    %ebp
    1a0f:	c3                   	ret    
    1a10:	89 04 24             	mov    %eax,(%esp)
    1a13:	e8 c8 37 00 00       	call   51e0 <loc_id_probe>
    1a18:	83 f8 01             	cmp    $0x1,%eax
    1a1b:	74 e9                	je     1a06 <locfs_node_open+0x16>
    1a1d:	83 f8 02             	cmp    $0x2,%eax
    1a20:	0f 85 fa 00 00 00    	jne    1b20 <locfs_node_open+0x130>
    1a26:	c7 04 24 14 29 02 00 	movl   $0x22914,(%esp)
    1a2d:	8d 5e 04             	lea    0x4(%esi),%ebx
    1a30:	e8 1b 8a 00 00       	call   a450 <fibril_mutex_lock>
    1a35:	eb 22                	jmp    1a59 <locfs_node_open+0x69>
    1a37:	90                   	nop
    1a38:	8d 50 f4             	lea    -0xc(%eax),%edx
    1a3b:	8b 4a 04             	mov    0x4(%edx),%ecx
    1a3e:	85 c9                	test   %ecx,%ecx
    1a40:	0f 85 ca 00 00 00    	jne    1b10 <locfs_node_open+0x120>
    1a46:	83 c0 08             	add    $0x8,%eax
    1a49:	c7 44 24 04 14 29 02 	movl   $0x22914,0x4(%esp)
    1a50:	00 
    1a51:	89 04 24             	mov    %eax,(%esp)
    1a54:	e8 47 96 00 00       	call   b0a0 <fibril_condvar_wait>
    1a59:	89 5c 24 04          	mov    %ebx,0x4(%esp)
    1a5d:	c7 04 24 50 2b 02 00 	movl   $0x22b50,(%esp)
    1a64:	e8 a7 78 01 00       	call   19310 <hash_table_find>
    1a69:	85 c0                	test   %eax,%eax
    1a6b:	75 cb                	jne    1a38 <locfs_node_open+0x48>
    1a6d:	c7 04 24 1c 00 00 00 	movl   $0x1c,(%esp)
    1a74:	e8 e7 15 01 00       	call   13060 <malloc>
    1a79:	89 c7                	mov    %eax,%edi
    1a7b:	85 c0                	test   %eax,%eax
    1a7d:	0f 84 a5 00 00 00    	je     1b28 <locfs_node_open+0x138>
    1a83:	8d 57 14             	lea    0x14(%edi),%edx
    1a86:	8b 46 04             	mov    0x4(%esi),%eax
    1a89:	89 14 24             	mov    %edx,(%esp)
    1a8c:	89 55 e4             	mov    %edx,-0x1c(%ebp)
    1a8f:	89 07                	mov    %eax,(%edi)
    1a91:	c7 47 04 00 00 00 00 	movl   $0x0,0x4(%edi)
    1a98:	c7 47 08 01 00 00 00 	movl   $0x1,0x8(%edi)
    1a9f:	e8 1c 90 00 00       	call   aac0 <fibril_condvar_initialize>
    1aa4:	8d 47 0c             	lea    0xc(%edi),%eax
    1aa7:	c7 04 24 50 2b 02 00 	movl   $0x22b50,(%esp)
    1aae:	89 44 24 04          	mov    %eax,0x4(%esp)
    1ab2:	e8 29 76 01 00       	call   190e0 <hash_table_insert>
    1ab7:	c7 04 24 14 29 02 00 	movl   $0x22914,(%esp)
    1abe:	e8 ad 8a 00 00       	call   a570 <fibril_mutex_unlock>
    1ac3:	c7 44 24 08 00 00 00 	movl   $0x0,0x8(%esp)
    1aca:	00 
    1acb:	8b 46 04             	mov    0x4(%esi),%eax
    1ace:	c7 04 24 02 00 00 00 	movl   $0x2,(%esp)
    1ad5:	89 44 24 04          	mov    %eax,0x4(%esp)
    1ad9:	e8 72 38 00 00       	call   5350 <loc_service_connect>
    1ade:	c7 04 24 14 29 02 00 	movl   $0x22914,(%esp)
    1ae5:	89 c6                	mov    %eax,%esi
    1ae7:	e8 64 89 00 00       	call   a450 <fibril_mutex_lock>
    1aec:	8b 55 e4             	mov    -0x1c(%ebp),%edx
    1aef:	89 14 24             	mov    %edx,(%esp)
    1af2:	e8 79 96 00 00       	call   b170 <fibril_condvar_broadcast>
    1af7:	85 f6                	test   %esi,%esi
    1af9:	74 43                	je     1b3e <locfs_node_open+0x14e>
    1afb:	89 77 04             	mov    %esi,0x4(%edi)
    1afe:	c7 04 24 14 29 02 00 	movl   $0x22914,(%esp)
    1b05:	e8 66 8a 00 00       	call   a570 <fibril_mutex_unlock>
    1b0a:	e9 f7 fe ff ff       	jmp    1a06 <locfs_node_open+0x16>
    1b0f:	90                   	nop
    1b10:	8b 42 08             	mov    0x8(%edx),%eax
    1b13:	40                   	inc    %eax
    1b14:	89 42 08             	mov    %eax,0x8(%edx)
    1b17:	eb e5                	jmp    1afe <locfs_node_open+0x10e>
    1b19:	8d b4 26 00 00 00 00 	lea    0x0(%esi,%eiz,1),%esi
    1b20:	83 c8 ff             	or     $0xffffffff,%eax
    1b23:	e9 e0 fe ff ff       	jmp    1a08 <locfs_node_open+0x18>
    1b28:	c7 04 24 14 29 02 00 	movl   $0x22914,(%esp)
    1b2f:	e8 3c 8a 00 00       	call   a570 <fibril_mutex_unlock>
    1b34:	b8 fe ff ff ff       	mov    $0xfffffffe,%eax
    1b39:	e9 ca fe ff ff       	jmp    1a08 <locfs_node_open+0x18>
    1b3e:	89 5c 24 04          	mov    %ebx,0x4(%esp)
    1b42:	c7 04 24 50 2b 02 00 	movl   $0x22b50,(%esp)
    1b49:	e8 12 79 01 00       	call   19460 <hash_table_remove>
    1b4e:	c7 04 24 14 29 02 00 	movl   $0x22914,(%esp)
    1b55:	e8 16 8a 00 00       	call   a570 <fibril_mutex_unlock>
    1b5a:	83 c8 ff             	or     $0xffffffff,%eax
    1b5d:	e9 a6 fe ff ff       	jmp    1a08 <locfs_node_open+0x18>
    1b62:	8d b4 26 00 00 00 00 	lea    0x0(%esi,%eiz,1),%esi
    1b69:	8d bc 27 00 00 00 00 	lea    0x0(%edi,%eiz,1),%edi

00001b70 <locfs_create_node>:
    1b70:	55                   	push   %ebp
    1b71:	89 e5                	mov    %esp,%ebp
    1b73:	83 ec 18             	sub    $0x18,%esp
    1b76:	f6 45 10 03          	testb  $0x3,0x10(%ebp)
    1b7a:	74 10                	je     1b8c <locfs_create_node+0x1c>
    1b7c:	8b 45 08             	mov    0x8(%ebp),%eax
    1b7f:	c7 00 00 00 00 00    	movl   $0x0,(%eax)
    1b85:	b8 f5 ff ff ff       	mov    $0xfffffff5,%eax
    1b8a:	c9                   	leave  
    1b8b:	c3                   	ret    
    1b8c:	c7 44 24 08 45 01 00 	movl   $0x145,0x8(%esp)
    1b93:	00 
    1b94:	c7 44 24 04 c5 fe 01 	movl   $0x1fec5,0x4(%esp)
    1b9b:	00 
    1b9c:	c7 04 24 dc fe 01 00 	movl   $0x1fedc,(%esp)
    1ba3:	e8 98 bc 01 00       	call   1d840 <assert_abort>
    1ba8:	90                   	nop
    1ba9:	8d b4 26 00 00 00 00 	lea    0x0(%esi,%eiz,1),%esi

00001bb0 <locfs_sync>:
    1bb0:	55                   	push   %ebp
    1bb1:	89 e5                	mov    %esp,%ebp
    1bb3:	56                   	push   %esi
    1bb4:	53                   	push   %ebx
    1bb5:	83 ec 50             	sub    $0x50,%esp
    1bb8:	8b 5d 0c             	mov    0xc(%ebp),%ebx
    1bbb:	85 db                	test   %ebx,%ebx
    1bbd:	75 09                	jne    1bc8 <locfs_sync+0x18>
    1bbf:	31 c0                	xor    %eax,%eax
    1bc1:	83 c4 50             	add    $0x50,%esp
    1bc4:	5b                   	pop    %ebx
    1bc5:	5e                   	pop    %esi
    1bc6:	5d                   	pop    %ebp
    1bc7:	c3                   	ret    
    1bc8:	89 1c 24             	mov    %ebx,(%esp)
    1bcb:	e8 10 36 00 00       	call   51e0 <loc_id_probe>
    1bd0:	83 f8 01             	cmp    $0x1,%eax
    1bd3:	74 ea                	je     1bbf <locfs_sync+0xf>
    1bd5:	83 f8 02             	cmp    $0x2,%eax
    1bd8:	0f 85 a2 00 00 00    	jne    1c80 <locfs_sync+0xd0>
    1bde:	c7 04 24 14 29 02 00 	movl   $0x22914,(%esp)
    1be5:	e8 66 88 00 00       	call   a450 <fibril_mutex_lock>
    1bea:	8d 45 cc             	lea    -0x34(%ebp),%eax
    1bed:	89 44 24 04          	mov    %eax,0x4(%esp)
    1bf1:	c7 04 24 50 2b 02 00 	movl   $0x22b50,(%esp)
    1bf8:	89 5d cc             	mov    %ebx,-0x34(%ebp)
    1bfb:	e8 10 77 01 00       	call   19310 <hash_table_find>
    1c00:	85 c0                	test   %eax,%eax
    1c02:	0f 84 80 00 00 00    	je     1c88 <locfs_sync+0xd8>
    1c08:	8b 40 f8             	mov    -0x8(%eax),%eax
    1c0b:	85 c0                	test   %eax,%eax
    1c0d:	0f 84 89 00 00 00    	je     1c9c <locfs_sync+0xec>
    1c13:	89 04 24             	mov    %eax,(%esp)
    1c16:	e8 85 49 01 00       	call   165a0 <async_exchange_begin>
    1c1b:	89 5c 24 0c          	mov    %ebx,0xc(%esp)
    1c1f:	89 c6                	mov    %eax,%esi
    1c21:	8d 45 d4             	lea    -0x2c(%ebp),%eax
    1c24:	89 44 24 18          	mov    %eax,0x18(%esp)
    1c28:	8b 45 08             	mov    0x8(%ebp),%eax
    1c2b:	89 34 24             	mov    %esi,(%esp)
    1c2e:	c7 44 24 14 00 00 00 	movl   $0x0,0x14(%esp)
    1c35:	00 
    1c36:	c7 44 24 10 00 00 00 	movl   $0x0,0x10(%esp)
    1c3d:	00 
    1c3e:	89 44 24 08          	mov    %eax,0x8(%esp)
    1c42:	c7 44 24 04 09 04 00 	movl   $0x409,0x4(%esp)
    1c49:	00 
    1c4a:	e8 f1 32 01 00       	call   14f40 <async_send_fast>
    1c4f:	89 34 24             	mov    %esi,(%esp)
    1c52:	89 c3                	mov    %eax,%ebx
    1c54:	e8 b7 4c 01 00       	call   16910 <async_exchange_end>
    1c59:	c7 04 24 14 29 02 00 	movl   $0x22914,(%esp)
    1c60:	e8 0b 89 00 00       	call   a570 <fibril_mutex_unlock>
    1c65:	8d 45 d0             	lea    -0x30(%ebp),%eax
    1c68:	89 44 24 04          	mov    %eax,0x4(%esp)
    1c6c:	89 1c 24             	mov    %ebx,(%esp)
    1c6f:	e8 9c 34 01 00       	call   15110 <async_wait_for>
    1c74:	8b 45 d0             	mov    -0x30(%ebp),%eax
    1c77:	83 c4 50             	add    $0x50,%esp
    1c7a:	5b                   	pop    %ebx
    1c7b:	5e                   	pop    %esi
    1c7c:	5d                   	pop    %ebp
    1c7d:	c3                   	ret    
    1c7e:	66 90                	xchg   %ax,%ax
    1c80:	83 c8 ff             	or     $0xffffffff,%eax
    1c83:	e9 39 ff ff ff       	jmp    1bc1 <locfs_sync+0x11>
    1c88:	c7 04 24 14 29 02 00 	movl   $0x22914,(%esp)
    1c8f:	e8 dc 88 00 00       	call   a570 <fibril_mutex_unlock>
    1c94:	83 c8 ff             	or     $0xffffffff,%eax
    1c97:	e9 25 ff ff ff       	jmp    1bc1 <locfs_sync+0x11>
    1c9c:	c7 44 24 08 e2 02 00 	movl   $0x2e2,0x8(%esp)
    1ca3:	00 
    1ca4:	c7 44 24 04 c5 fe 01 	movl   $0x1fec5,0x4(%esp)
    1cab:	00 
    1cac:	c7 04 24 d1 fe 01 00 	movl   $0x1fed1,(%esp)
    1cb3:	e8 88 bb 01 00       	call   1d840 <assert_abort>
    1cb8:	90                   	nop
    1cb9:	8d b4 26 00 00 00 00 	lea    0x0(%esi,%eiz,1),%esi

00001cc0 <locfs_close>:
    1cc0:	55                   	push   %ebp
    1cc1:	89 e5                	mov    %esp,%ebp
    1cc3:	53                   	push   %ebx
    1cc4:	83 ec 24             	sub    $0x24,%esp
    1cc7:	8b 5d 0c             	mov    0xc(%ebp),%ebx
    1cca:	85 db                	test   %ebx,%ebx
    1ccc:	75 0a                	jne    1cd8 <locfs_close+0x18>
    1cce:	31 c0                	xor    %eax,%eax
    1cd0:	83 c4 24             	add    $0x24,%esp
    1cd3:	5b                   	pop    %ebx
    1cd4:	5d                   	pop    %ebp
    1cd5:	c3                   	ret    
    1cd6:	66 90                	xchg   %ax,%ax
    1cd8:	89 1c 24             	mov    %ebx,(%esp)
    1cdb:	e8 00 35 00 00       	call   51e0 <loc_id_probe>
    1ce0:	83 f8 01             	cmp    $0x1,%eax
    1ce3:	74 e9                	je     1cce <locfs_close+0xe>
    1ce5:	83 f8 02             	cmp    $0x2,%eax
    1ce8:	75 6e                	jne    1d58 <locfs_close+0x98>
    1cea:	c7 04 24 14 29 02 00 	movl   $0x22914,(%esp)
    1cf1:	e8 5a 87 00 00       	call   a450 <fibril_mutex_lock>
    1cf6:	8d 45 f0             	lea    -0x10(%ebp),%eax
    1cf9:	89 44 24 04          	mov    %eax,0x4(%esp)
    1cfd:	c7 04 24 50 2b 02 00 	movl   $0x22b50,(%esp)
    1d04:	89 5d f0             	mov    %ebx,-0x10(%ebp)
    1d07:	e8 04 76 01 00       	call   19310 <hash_table_find>
    1d0c:	85 c0                	test   %eax,%eax
    1d0e:	74 50                	je     1d60 <locfs_close+0xa0>
    1d10:	83 e8 0c             	sub    $0xc,%eax
    1d13:	8b 48 04             	mov    0x4(%eax),%ecx
    1d16:	85 c9                	test   %ecx,%ecx
    1d18:	74 5a                	je     1d74 <locfs_close+0xb4>
    1d1a:	8b 50 08             	mov    0x8(%eax),%edx
    1d1d:	4a                   	dec    %edx
    1d1e:	89 50 08             	mov    %edx,0x8(%eax)
    1d21:	85 d2                	test   %edx,%edx
    1d23:	74 13                	je     1d38 <locfs_close+0x78>
    1d25:	c7 04 24 14 29 02 00 	movl   $0x22914,(%esp)
    1d2c:	e8 3f 88 00 00       	call   a570 <fibril_mutex_unlock>
    1d31:	eb 9b                	jmp    1cce <locfs_close+0xe>
    1d33:	90                   	nop
    1d34:	8d 74 26 00          	lea    0x0(%esi,%eiz,1),%esi
    1d38:	89 0c 24             	mov    %ecx,(%esp)
    1d3b:	e8 60 47 01 00       	call   164a0 <async_hangup>
    1d40:	8d 45 f4             	lea    -0xc(%ebp),%eax
    1d43:	89 44 24 04          	mov    %eax,0x4(%esp)
    1d47:	c7 04 24 50 2b 02 00 	movl   $0x22b50,(%esp)
    1d4e:	89 5d f4             	mov    %ebx,-0xc(%ebp)
    1d51:	e8 0a 77 01 00       	call   19460 <hash_table_remove>
    1d56:	eb cd                	jmp    1d25 <locfs_close+0x65>
    1d58:	83 c8 ff             	or     $0xffffffff,%eax
    1d5b:	e9 70 ff ff ff       	jmp    1cd0 <locfs_close+0x10>
    1d60:	c7 04 24 14 29 02 00 	movl   $0x22914,(%esp)
    1d67:	e8 04 88 00 00       	call   a570 <fibril_mutex_unlock>
    1d6c:	83 c8 ff             	or     $0xffffffff,%eax
    1d6f:	e9 5c ff ff ff       	jmp    1cd0 <locfs_close+0x10>
    1d74:	c7 44 24 08 ba 02 00 	movl   $0x2ba,0x8(%esp)
    1d7b:	00 
    1d7c:	c7 44 24 04 c5 fe 01 	movl   $0x1fec5,0x4(%esp)
    1d83:	00 
    1d84:	c7 04 24 d1 fe 01 00 	movl   $0x1fed1,(%esp)
    1d8b:	e8 b0 ba 01 00       	call   1d840 <assert_abort>

00001d90 <locfs_has_children>:
    1d90:	55                   	push   %ebp
    1d91:	89 e5                	mov    %esp,%ebp
    1d93:	83 ec 28             	sub    $0x28,%esp
    1d96:	8b 45 0c             	mov    0xc(%ebp),%eax
    1d99:	8b 40 10             	mov    0x10(%eax),%eax
    1d9c:	8b 50 04             	mov    0x4(%eax),%edx
    1d9f:	85 d2                	test   %edx,%edx
    1da1:	74 15                	je     1db8 <locfs_has_children+0x28>
    1da3:	83 38 01             	cmpl   $0x1,(%eax)
    1da6:	74 28                	je     1dd0 <locfs_has_children+0x40>
    1da8:	8b 45 08             	mov    0x8(%ebp),%eax
    1dab:	c6 00 00             	movb   $0x0,(%eax)
    1dae:	31 c0                	xor    %eax,%eax
    1db0:	c9                   	leave  
    1db1:	c3                   	ret    
    1db2:	8d b6 00 00 00 00    	lea    0x0(%esi),%esi
    1db8:	e8 13 3a 00 00       	call   57d0 <loc_count_namespaces>
    1dbd:	85 c0                	test   %eax,%eax
    1dbf:	74 27                	je     1de8 <locfs_has_children+0x58>
    1dc1:	8b 45 08             	mov    0x8(%ebp),%eax
    1dc4:	c6 00 01             	movb   $0x1,(%eax)
    1dc7:	31 c0                	xor    %eax,%eax
    1dc9:	c9                   	leave  
    1dca:	c3                   	ret    
    1dcb:	90                   	nop
    1dcc:	8d 74 26 00          	lea    0x0(%esi,%eiz,1),%esi
    1dd0:	89 14 24             	mov    %edx,(%esp)
    1dd3:	e8 68 3b 00 00       	call   5940 <loc_count_services>
    1dd8:	85 c0                	test   %eax,%eax
    1dda:	8b 45 08             	mov    0x8(%ebp),%eax
    1ddd:	0f 95 00             	setne  (%eax)
    1de0:	eb cc                	jmp    1dae <locfs_has_children+0x1e>
    1de2:	8d b6 00 00 00 00    	lea    0x0(%esi),%esi
    1de8:	8d 45 f4             	lea    -0xc(%ebp),%eax
    1deb:	c7 44 24 08 00 00 00 	movl   $0x0,0x8(%esp)
    1df2:	00 
    1df3:	89 44 24 04          	mov    %eax,0x4(%esp)
    1df7:	c7 04 24 96 0d 02 00 	movl   $0x20d96,(%esp)
    1dfe:	e8 1d 2f 00 00       	call   4d20 <loc_namespace_get_id>
    1e03:	85 c0                	test   %eax,%eax
    1e05:	75 a1                	jne    1da8 <locfs_has_children+0x18>
    1e07:	8b 45 f4             	mov    -0xc(%ebp),%eax
    1e0a:	89 04 24             	mov    %eax,(%esp)
    1e0d:	e8 2e 3b 00 00       	call   5940 <loc_count_services>
    1e12:	85 c0                	test   %eax,%eax
    1e14:	74 92                	je     1da8 <locfs_has_children+0x18>
    1e16:	eb a9                	jmp    1dc1 <locfs_has_children+0x31>
    1e18:	90                   	nop
    1e19:	8d b4 26 00 00 00 00 	lea    0x0(%esi,%eiz,1),%esi

00001e20 <locfs_root_get>:
    1e20:	55                   	push   %ebp
    1e21:	89 e5                	mov    %esp,%ebp
    1e23:	56                   	push   %esi
    1e24:	53                   	push   %ebx
    1e25:	83 ec 10             	sub    $0x10,%esp
    1e28:	8b 75 08             	mov    0x8(%ebp),%esi
    1e2b:	c7 04 24 08 00 00 00 	movl   $0x8,(%esp)
    1e32:	e8 29 12 01 00       	call   13060 <malloc>
    1e37:	89 c3                	mov    %eax,%ebx
    1e39:	85 c0                	test   %eax,%eax
    1e3b:	74 3d                	je     1e7a <locfs_root_get+0x5a>
    1e3d:	c7 04 24 14 00 00 00 	movl   $0x14,(%esp)
    1e44:	e8 17 12 01 00       	call   13060 <malloc>
    1e49:	89 06                	mov    %eax,(%esi)
    1e4b:	85 c0                	test   %eax,%eax
    1e4d:	74 23                	je     1e72 <locfs_root_get+0x52>
    1e4f:	89 04 24             	mov    %eax,(%esp)
    1e52:	e8 d9 16 00 00       	call   3530 <fs_node_initialize>
    1e57:	8b 06                	mov    (%esi),%eax
    1e59:	c7 03 00 00 00 00    	movl   $0x0,(%ebx)
    1e5f:	c7 43 04 00 00 00 00 	movl   $0x0,0x4(%ebx)
    1e66:	89 58 10             	mov    %ebx,0x10(%eax)
    1e69:	31 c0                	xor    %eax,%eax
    1e6b:	83 c4 10             	add    $0x10,%esp
    1e6e:	5b                   	pop    %ebx
    1e6f:	5e                   	pop    %esi
    1e70:	5d                   	pop    %ebp
    1e71:	c3                   	ret    
    1e72:	89 1c 24             	mov    %ebx,(%esp)
    1e75:	e8 f6 12 01 00       	call   13170 <free>
    1e7a:	c7 06 00 00 00 00    	movl   $0x0,(%esi)
    1e80:	b8 fe ff ff ff       	mov    $0xfffffffe,%eax
    1e85:	eb e4                	jmp    1e6b <locfs_root_get+0x4b>
    1e87:	89 f6                	mov    %esi,%esi
    1e89:	8d bc 27 00 00 00 00 	lea    0x0(%edi,%eiz,1),%edi

00001e90 <locfs_node_get>:
    1e90:	55                   	push   %ebp
    1e91:	89 e5                	mov    %esp,%ebp
    1e93:	57                   	push   %edi
    1e94:	56                   	push   %esi
    1e95:	53                   	push   %ebx
    1e96:	83 ec 1c             	sub    $0x1c,%esp
    1e99:	8b 45 10             	mov    0x10(%ebp),%eax
    1e9c:	8b 5d 08             	mov    0x8(%ebp),%ebx
    1e9f:	89 04 24             	mov    %eax,(%esp)
    1ea2:	e8 39 33 00 00       	call   51e0 <loc_id_probe>
    1ea7:	c7 04 24 08 00 00 00 	movl   $0x8,(%esp)
    1eae:	89 c7                	mov    %eax,%edi
    1eb0:	e8 ab 11 01 00       	call   13060 <malloc>
    1eb5:	89 c6                	mov    %eax,%esi
    1eb7:	85 c0                	test   %eax,%eax
    1eb9:	74 39                	je     1ef4 <locfs_node_get+0x64>
    1ebb:	c7 04 24 14 00 00 00 	movl   $0x14,(%esp)
    1ec2:	e8 99 11 01 00       	call   13060 <malloc>
    1ec7:	89 03                	mov    %eax,(%ebx)
    1ec9:	85 c0                	test   %eax,%eax
    1ecb:	74 1f                	je     1eec <locfs_node_get+0x5c>
    1ecd:	89 04 24             	mov    %eax,(%esp)
    1ed0:	e8 5b 16 00 00       	call   3530 <fs_node_initialize>
    1ed5:	8b 45 10             	mov    0x10(%ebp),%eax
    1ed8:	89 46 04             	mov    %eax,0x4(%esi)
    1edb:	8b 03                	mov    (%ebx),%eax
    1edd:	89 3e                	mov    %edi,(%esi)
    1edf:	89 70 10             	mov    %esi,0x10(%eax)
    1ee2:	31 c0                	xor    %eax,%eax
    1ee4:	83 c4 1c             	add    $0x1c,%esp
    1ee7:	5b                   	pop    %ebx
    1ee8:	5e                   	pop    %esi
    1ee9:	5f                   	pop    %edi
    1eea:	5d                   	pop    %ebp
    1eeb:	c3                   	ret    
    1eec:	89 34 24             	mov    %esi,(%esp)
    1eef:	e8 7c 12 01 00       	call   13170 <free>
    1ef4:	c7 03 00 00 00 00    	movl   $0x0,(%ebx)
    1efa:	b8 fe ff ff ff       	mov    $0xfffffffe,%eax
    1eff:	eb e3                	jmp    1ee4 <locfs_node_get+0x54>
    1f01:	eb 0d                	jmp    1f10 <locfs_match>
    1f03:	90                   	nop
    1f04:	90                   	nop
    1f05:	90                   	nop
    1f06:	90                   	nop
    1f07:	90                   	nop
    1f08:	90                   	nop
    1f09:	90                   	nop
    1f0a:	90                   	nop
    1f0b:	90                   	nop
    1f0c:	90                   	nop
    1f0d:	90                   	nop
    1f0e:	90                   	nop
    1f0f:	90                   	nop

00001f10 <locfs_match>:
    1f10:	55                   	push   %ebp
    1f11:	89 e5                	mov    %esp,%ebp
    1f13:	57                   	push   %edi
    1f14:	56                   	push   %esi
    1f15:	53                   	push   %ebx
    1f16:	83 ec 3c             	sub    $0x3c,%esp
    1f19:	8b 45 0c             	mov    0xc(%ebp),%eax
    1f1c:	8b 40 10             	mov    0x10(%eax),%eax
    1f1f:	8b 50 04             	mov    0x4(%eax),%edx
    1f22:	85 d2                	test   %edx,%edx
    1f24:	74 22                	je     1f48 <locfs_match+0x38>
    1f26:	83 38 01             	cmpl   $0x1,(%eax)
    1f29:	0f 84 c9 01 00 00    	je     20f8 <locfs_match+0x1e8>
    1f2f:	8b 55 08             	mov    0x8(%ebp),%edx
    1f32:	31 c0                	xor    %eax,%eax
    1f34:	c7 02 00 00 00 00    	movl   $0x0,(%edx)
    1f3a:	83 c4 3c             	add    $0x3c,%esp
    1f3d:	5b                   	pop    %ebx
    1f3e:	5e                   	pop    %esi
    1f3f:	5f                   	pop    %edi
    1f40:	5d                   	pop    %ebp
    1f41:	c3                   	ret    
    1f42:	8d b6 00 00 00 00    	lea    0x0(%esi),%esi
    1f48:	8d 45 dc             	lea    -0x24(%ebp),%eax
    1f4b:	89 04 24             	mov    %eax,(%esp)
    1f4e:	e8 5d 3b 00 00       	call   5ab0 <loc_get_namespaces>
    1f53:	89 c7                	mov    %eax,%edi
    1f55:	85 c0                	test   %eax,%eax
    1f57:	0f 84 c6 00 00 00    	je     2023 <locfs_match+0x113>
    1f5d:	31 db                	xor    %ebx,%ebx
    1f5f:	31 f6                	xor    %esi,%esi
    1f61:	eb 14                	jmp    1f77 <locfs_match+0x67>
    1f63:	90                   	nop
    1f64:	8d 74 26 00          	lea    0x0(%esi,%eiz,1),%esi
    1f68:	46                   	inc    %esi
    1f69:	81 c3 04 01 00 00    	add    $0x104,%ebx
    1f6f:	39 fe                	cmp    %edi,%esi
    1f71:	0f 84 a1 00 00 00    	je     2018 <locfs_match+0x108>
    1f77:	8b 45 dc             	mov    -0x24(%ebp),%eax
    1f7a:	c7 44 24 04 96 0d 02 	movl   $0x20d96,0x4(%esp)
    1f81:	00 
    1f82:	01 d8                	add    %ebx,%eax
    1f84:	83 c0 04             	add    $0x4,%eax
    1f87:	89 04 24             	mov    %eax,(%esp)
    1f8a:	e8 d1 57 00 00       	call   7760 <str_cmp>
    1f8f:	85 c0                	test   %eax,%eax
    1f91:	74 d5                	je     1f68 <locfs_match+0x58>
    1f93:	8b 45 dc             	mov    -0x24(%ebp),%eax
    1f96:	8b 55 10             	mov    0x10(%ebp),%edx
    1f99:	01 d8                	add    %ebx,%eax
    1f9b:	89 54 24 04          	mov    %edx,0x4(%esp)
    1f9f:	83 c0 04             	add    $0x4,%eax
    1fa2:	89 04 24             	mov    %eax,(%esp)
    1fa5:	e8 b6 57 00 00       	call   7760 <str_cmp>
    1faa:	85 c0                	test   %eax,%eax
    1fac:	75 ba                	jne    1f68 <locfs_match+0x58>
    1fae:	8b 45 dc             	mov    -0x24(%ebp),%eax
    1fb1:	8b 34 18             	mov    (%eax,%ebx,1),%esi
    1fb4:	c7 04 24 08 00 00 00 	movl   $0x8,(%esp)
    1fbb:	e8 a0 10 01 00       	call   13060 <malloc>
    1fc0:	89 c3                	mov    %eax,%ebx
    1fc2:	85 c0                	test   %eax,%eax
    1fc4:	0f 84 96 01 00 00    	je     2160 <locfs_match+0x250>
    1fca:	c7 04 24 14 00 00 00 	movl   $0x14,(%esp)
    1fd1:	e8 8a 10 01 00       	call   13060 <malloc>
    1fd6:	8b 55 08             	mov    0x8(%ebp),%edx
    1fd9:	85 c0                	test   %eax,%eax
    1fdb:	89 02                	mov    %eax,(%edx)
    1fdd:	0f 84 75 01 00 00    	je     2158 <locfs_match+0x248>
    1fe3:	89 04 24             	mov    %eax,(%esp)
    1fe6:	e8 45 15 00 00       	call   3530 <fs_node_initialize>
    1feb:	8b 55 08             	mov    0x8(%ebp),%edx
    1fee:	8b 02                	mov    (%edx),%eax
    1ff0:	c7 03 01 00 00 00    	movl   $0x1,(%ebx)
    1ff6:	89 73 04             	mov    %esi,0x4(%ebx)
    1ff9:	89 58 10             	mov    %ebx,0x10(%eax)
    1ffc:	31 c0                	xor    %eax,%eax
    1ffe:	8b 55 dc             	mov    -0x24(%ebp),%edx
    2001:	89 45 d4             	mov    %eax,-0x2c(%ebp)
    2004:	89 14 24             	mov    %edx,(%esp)
    2007:	e8 64 11 01 00       	call   13170 <free>
    200c:	8b 45 d4             	mov    -0x2c(%ebp),%eax
    200f:	e9 26 ff ff ff       	jmp    1f3a <locfs_match+0x2a>
    2014:	8d 74 26 00          	lea    0x0(%esi,%eiz,1),%esi
    2018:	8b 45 dc             	mov    -0x24(%ebp),%eax
    201b:	89 04 24             	mov    %eax,(%esp)
    201e:	e8 4d 11 01 00       	call   13170 <free>
    2023:	8d 45 e0             	lea    -0x20(%ebp),%eax
    2026:	c7 44 24 08 00 00 00 	movl   $0x0,0x8(%esp)
    202d:	00 
    202e:	89 44 24 04          	mov    %eax,0x4(%esp)
    2032:	c7 04 24 96 0d 02 00 	movl   $0x20d96,(%esp)
    2039:	e8 e2 2c 00 00       	call   4d20 <loc_namespace_get_id>
    203e:	85 c0                	test   %eax,%eax
    2040:	0f 85 e9 fe ff ff    	jne    1f2f <locfs_match+0x1f>
    2046:	8d 45 e4             	lea    -0x1c(%ebp),%eax
    2049:	89 44 24 04          	mov    %eax,0x4(%esp)
    204d:	8b 45 e0             	mov    -0x20(%ebp),%eax
    2050:	89 04 24             	mov    %eax,(%esp)
    2053:	e8 38 3d 00 00       	call   5d90 <loc_get_services>
    2058:	89 c7                	mov    %eax,%edi
    205a:	85 c0                	test   %eax,%eax
    205c:	0f 84 cd fe ff ff    	je     1f2f <locfs_match+0x1f>
    2062:	31 db                	xor    %ebx,%ebx
    2064:	31 f6                	xor    %esi,%esi
    2066:	eb 0f                	jmp    2077 <locfs_match+0x167>
    2068:	46                   	inc    %esi
    2069:	81 c3 04 01 00 00    	add    $0x104,%ebx
    206f:	39 fe                	cmp    %edi,%esi
    2071:	0f 84 d1 00 00 00    	je     2148 <locfs_match+0x238>
    2077:	8b 45 e4             	mov    -0x1c(%ebp),%eax
    207a:	8b 55 10             	mov    0x10(%ebp),%edx
    207d:	01 d8                	add    %ebx,%eax
    207f:	89 54 24 04          	mov    %edx,0x4(%esp)
    2083:	83 c0 04             	add    $0x4,%eax
    2086:	89 04 24             	mov    %eax,(%esp)
    2089:	e8 d2 56 00 00       	call   7760 <str_cmp>
    208e:	85 c0                	test   %eax,%eax
    2090:	75 d6                	jne    2068 <locfs_match+0x158>
    2092:	8b 45 e4             	mov    -0x1c(%ebp),%eax
    2095:	8b 34 18             	mov    (%eax,%ebx,1),%esi
    2098:	c7 04 24 08 00 00 00 	movl   $0x8,(%esp)
    209f:	e8 bc 0f 01 00       	call   13060 <malloc>
    20a4:	89 c3                	mov    %eax,%ebx
    20a6:	85 c0                	test   %eax,%eax
    20a8:	0f 84 cd 00 00 00    	je     217b <locfs_match+0x26b>
    20ae:	c7 04 24 14 00 00 00 	movl   $0x14,(%esp)
    20b5:	e8 a6 0f 01 00       	call   13060 <malloc>
    20ba:	8b 55 08             	mov    0x8(%ebp),%edx
    20bd:	85 c0                	test   %eax,%eax
    20bf:	89 02                	mov    %eax,(%edx)
    20c1:	0f 84 ac 00 00 00    	je     2173 <locfs_match+0x263>
    20c7:	89 04 24             	mov    %eax,(%esp)
    20ca:	e8 61 14 00 00       	call   3530 <fs_node_initialize>
    20cf:	8b 55 08             	mov    0x8(%ebp),%edx
    20d2:	8b 02                	mov    (%edx),%eax
    20d4:	c7 03 02 00 00 00    	movl   $0x2,(%ebx)
    20da:	89 73 04             	mov    %esi,0x4(%ebx)
    20dd:	89 58 10             	mov    %ebx,0x10(%eax)
    20e0:	31 c0                	xor    %eax,%eax
    20e2:	8b 55 e4             	mov    -0x1c(%ebp),%edx
    20e5:	89 45 d4             	mov    %eax,-0x2c(%ebp)
    20e8:	89 14 24             	mov    %edx,(%esp)
    20eb:	e8 80 10 01 00       	call   13170 <free>
    20f0:	8b 45 d4             	mov    -0x2c(%ebp),%eax
    20f3:	e9 42 fe ff ff       	jmp    1f3a <locfs_match+0x2a>
    20f8:	8d 45 e4             	lea    -0x1c(%ebp),%eax
    20fb:	89 14 24             	mov    %edx,(%esp)
    20fe:	89 44 24 04          	mov    %eax,0x4(%esp)
    2102:	e8 89 3c 00 00       	call   5d90 <loc_get_services>
    2107:	89 c7                	mov    %eax,%edi
    2109:	85 c0                	test   %eax,%eax
    210b:	0f 84 1e fe ff ff    	je     1f2f <locfs_match+0x1f>
    2111:	31 db                	xor    %ebx,%ebx
    2113:	31 f6                	xor    %esi,%esi
    2115:	eb 0c                	jmp    2123 <locfs_match+0x213>
    2117:	90                   	nop
    2118:	46                   	inc    %esi
    2119:	81 c3 04 01 00 00    	add    $0x104,%ebx
    211f:	39 fe                	cmp    %edi,%esi
    2121:	74 25                	je     2148 <locfs_match+0x238>
    2123:	8b 45 e4             	mov    -0x1c(%ebp),%eax
    2126:	8b 55 10             	mov    0x10(%ebp),%edx
    2129:	01 d8                	add    %ebx,%eax
    212b:	89 54 24 04          	mov    %edx,0x4(%esp)
    212f:	83 c0 04             	add    $0x4,%eax
    2132:	89 04 24             	mov    %eax,(%esp)
    2135:	e8 26 56 00 00       	call   7760 <str_cmp>
    213a:	85 c0                	test   %eax,%eax
    213c:	75 da                	jne    2118 <locfs_match+0x208>
    213e:	e9 4f ff ff ff       	jmp    2092 <locfs_match+0x182>
    2143:	90                   	nop
    2144:	8d 74 26 00          	lea    0x0(%esi,%eiz,1),%esi
    2148:	8b 45 e4             	mov    -0x1c(%ebp),%eax
    214b:	89 04 24             	mov    %eax,(%esp)
    214e:	e8 1d 10 01 00       	call   13170 <free>
    2153:	e9 d7 fd ff ff       	jmp    1f2f <locfs_match+0x1f>
    2158:	89 1c 24             	mov    %ebx,(%esp)
    215b:	e8 10 10 01 00       	call   13170 <free>
    2160:	8b 55 08             	mov    0x8(%ebp),%edx
    2163:	b8 fe ff ff ff       	mov    $0xfffffffe,%eax
    2168:	c7 02 00 00 00 00    	movl   $0x0,(%edx)
    216e:	e9 8b fe ff ff       	jmp    1ffe <locfs_match+0xee>
    2173:	89 1c 24             	mov    %ebx,(%esp)
    2176:	e8 f5 0f 01 00       	call   13170 <free>
    217b:	8b 55 08             	mov    0x8(%ebp),%edx
    217e:	b8 fe ff ff ff       	mov    $0xfffffffe,%eax
    2183:	c7 02 00 00 00 00    	movl   $0x0,(%edx)
    2189:	e9 54 ff ff ff       	jmp    20e2 <locfs_match+0x1d2>
    218e:	66 90                	xchg   %ax,%ax

00002190 <locfs_init>:
    2190:	55                   	push   %ebp
    2191:	89 e5                	mov    %esp,%ebp
    2193:	83 ec 18             	sub    $0x18,%esp
    2196:	c7 44 24 0c 00 29 02 	movl   $0x22900,0xc(%esp)
    219d:	00 
    219e:	c7 44 24 08 00 00 00 	movl   $0x0,0x8(%esp)
    21a5:	00 
    21a6:	c7 44 24 04 00 00 00 	movl   $0x0,0x4(%esp)
    21ad:	00 
    21ae:	c7 04 24 50 2b 02 00 	movl   $0x22b50,(%esp)
    21b5:	e8 46 6b 01 00       	call   18d00 <hash_table_create>
    21ba:	c9                   	leave  
    21bb:	c3                   	ret    
    21bc:	66 90                	xchg   %ax,%ax
    21be:	66 90                	xchg   %ax,%ax

000021c0 <vfs_connection>:
    21c0:	55                   	push   %ebp
    21c1:	89 e5                	mov    %esp,%ebp
    21c3:	57                   	push   %edi
    21c4:	56                   	push   %esi
    21c5:	53                   	push   %ebx
    21c6:	81 ec dc 01 00 00    	sub    $0x1dc,%esp
    21cc:	8b 45 08             	mov    0x8(%ebp),%eax
    21cf:	85 c0                	test   %eax,%eax
    21d1:	0f 85 51 0a 00 00    	jne    2c28 <vfs_connection+0xa68>
    21d7:	90                   	nop
    21d8:	8d 85 c0 fe ff ff    	lea    -0x140(%ebp),%eax
    21de:	c7 44 24 04 00 00 00 	movl   $0x0,0x4(%esp)
    21e5:	00 
    21e6:	89 04 24             	mov    %eax,(%esp)
    21e9:	e8 82 23 01 00       	call   14570 <async_get_call_timeout>
    21ee:	89 c6                	mov    %eax,%esi
    21f0:	8b 85 c0 fe ff ff    	mov    -0x140(%ebp),%eax
    21f6:	85 c0                	test   %eax,%eax
    21f8:	0f 84 9a 09 00 00    	je     2b98 <vfs_connection+0x9d8>
    21fe:	2d 00 04 00 00       	sub    $0x400,%eax
    2203:	83 f8 0c             	cmp    $0xc,%eax
    2206:	76 18                	jbe    2220 <vfs_connection+0x60>
    2208:	c7 44 24 04 f5 ff ff 	movl   $0xfffffff5,0x4(%esp)
    220f:	ff 
    2210:	89 34 24             	mov    %esi,(%esp)
    2213:	e8 88 39 01 00       	call   15ba0 <async_answer_0>
    2218:	eb be                	jmp    21d8 <vfs_connection+0x18>
    221a:	8d b6 00 00 00 00    	lea    0x0(%esi),%esi
    2220:	ff 24 85 10 ff 01 00 	jmp    *0x1ff10(,%eax,4)
    2227:	90                   	nop
    2228:	8b 0d 70 2b 02 00    	mov    0x22b70,%ecx
    222e:	8b 95 c4 fe ff ff    	mov    -0x13c(%ebp),%edx
    2234:	89 8d 74 fe ff ff    	mov    %ecx,-0x18c(%ebp)
    223a:	8b 8d c8 fe ff ff    	mov    -0x138(%ebp),%ecx
    2240:	89 95 68 fe ff ff    	mov    %edx,-0x198(%ebp)
    2246:	89 8d 70 fe ff ff    	mov    %ecx,-0x190(%ebp)
    224c:	8b 95 d0 fe ff ff    	mov    -0x130(%ebp),%edx
    2252:	8b 8d cc fe ff ff    	mov    -0x134(%ebp),%ecx
    2258:	89 8d 64 fe ff ff    	mov    %ecx,-0x19c(%ebp)
    225e:	89 95 60 fe ff ff    	mov    %edx,-0x1a0(%ebp)
    2264:	8b 8d d4 fe ff ff    	mov    -0x12c(%ebp),%ecx
    226a:	8b 95 70 fe ff ff    	mov    -0x190(%ebp),%edx
    2270:	8b 3d 74 2b 02 00    	mov    0x22b74,%edi
    2276:	89 8d 5c fe ff ff    	mov    %ecx,-0x1a4(%ebp)
    227c:	39 95 68 fe ff ff    	cmp    %edx,-0x198(%ebp)
    2282:	76 0c                	jbe    2290 <vfs_connection+0xd0>
    2284:	81 c2 00 00 02 00    	add    $0x20000,%edx
    228a:	89 95 70 fe ff ff    	mov    %edx,-0x190(%ebp)
    2290:	8b 8d 64 fe ff ff    	mov    -0x19c(%ebp),%ecx
    2296:	8d 85 84 fe ff ff    	lea    -0x17c(%ebp),%eax
    229c:	89 4c 24 04          	mov    %ecx,0x4(%esp)
    22a0:	8b 8d 74 fe ff ff    	mov    -0x18c(%ebp),%ecx
    22a6:	c7 85 84 fe ff ff 00 	movl   $0x0,-0x17c(%ebp)
    22ad:	00 00 00 
    22b0:	c7 85 88 fe ff ff 00 	movl   $0x0,-0x178(%ebp)
    22b7:	00 00 00 
    22ba:	89 04 24             	mov    %eax,(%esp)
    22bd:	ff 11                	call   *(%ecx)
    22bf:	89 c2                	mov    %eax,%edx
    22c1:	85 c0                	test   %eax,%eax
    22c3:	0f 85 df 08 00 00    	jne    2ba8 <vfs_connection+0x9e8>
    22c9:	8b 85 84 fe ff ff    	mov    -0x17c(%ebp),%eax
    22cf:	80 38 00             	cmpb   $0x0,(%eax)
    22d2:	0f 85 2b 0a 00 00    	jne    2d03 <vfs_connection+0xb43>
    22d8:	8b 95 68 fe ff ff    	mov    -0x198(%ebp),%edx
    22de:	8b 0d 78 2b 02 00    	mov    0x22b78,%ecx
    22e4:	81 e2 ff ff 01 00    	and    $0x1ffff,%edx
    22ea:	66 89 bd 52 fe ff ff 	mov    %di,-0x1ae(%ebp)
    22f1:	80 3c 11 2f          	cmpb   $0x2f,(%ecx,%edx,1)
    22f5:	8b 95 68 fe ff ff    	mov    -0x198(%ebp),%edx
    22fb:	0f 94 c3             	sete   %bl
    22fe:	81 e3 ff 00 00 00    	and    $0xff,%ebx
    2304:	01 d3                	add    %edx,%ebx
    2306:	39 9d 70 fe ff ff    	cmp    %ebx,-0x190(%ebp)
    230c:	0f 82 ac 0f 00 00    	jb     32be <vfs_connection+0x10fe>
    2312:	8b 95 60 fe ff ff    	mov    -0x1a0(%ebp),%edx
    2318:	c7 85 6c fe ff ff 00 	movl   $0x0,-0x194(%ebp)
    231f:	00 00 00 
    2322:	83 e2 08             	and    $0x8,%edx
    2325:	89 b5 54 fe ff ff    	mov    %esi,-0x1ac(%ebp)
    232b:	89 95 58 fe ff ff    	mov    %edx,-0x1a8(%ebp)
    2331:	8d 8d 80 fe ff ff    	lea    -0x180(%ebp),%ecx
    2337:	89 44 24 04          	mov    %eax,0x4(%esp)
    233b:	89 0c 24             	mov    %ecx,(%esp)
    233e:	8b 8d 74 fe ff ff    	mov    -0x18c(%ebp),%ecx
    2344:	ff 51 24             	call   *0x24(%ecx)
    2347:	85 c0                	test   %eax,%eax
    2349:	0f 85 55 0a 00 00    	jne    2da4 <vfs_connection+0xbe4>
    234f:	80 bd 80 fe ff ff 00 	cmpb   $0x0,-0x180(%ebp)
    2356:	0f 84 4c 0c 00 00    	je     2fa8 <vfs_connection+0xde8>
    235c:	8b 35 78 2b 02 00    	mov    0x22b78,%esi
    2362:	31 d2                	xor    %edx,%edx
    2364:	8b 8d 70 fe ff ff    	mov    -0x190(%ebp),%ecx
    236a:	8d b6 00 00 00 00    	lea    0x0(%esi),%esi
    2370:	89 d8                	mov    %ebx,%eax
    2372:	25 ff ff 01 00       	and    $0x1ffff,%eax
    2377:	8a 04 06             	mov    (%esi,%eax,1),%al
    237a:	3c 2f                	cmp    $0x2f,%al
    237c:	0f 84 8e 08 00 00    	je     2c10 <vfs_connection+0xa50>
    2382:	81 fa ff 00 00 00    	cmp    $0xff,%edx
    2388:	0f 84 5a 09 00 00    	je     2ce8 <vfs_connection+0xb28>
    238e:	43                   	inc    %ebx
    238f:	88 84 15 e4 fe ff ff 	mov    %al,-0x11c(%ebp,%edx,1)
    2396:	8d bd e4 fe ff ff    	lea    -0x11c(%ebp),%edi
    239c:	42                   	inc    %edx
    239d:	39 d9                	cmp    %ebx,%ecx
    239f:	73 cf                	jae    2370 <vfs_connection+0x1b0>
    23a1:	89 de                	mov    %ebx,%esi
    23a3:	8b 85 84 fe ff ff    	mov    -0x17c(%ebp),%eax
    23a9:	8b 8d 74 fe ff ff    	mov    -0x18c(%ebp),%ecx
    23af:	89 44 24 04          	mov    %eax,0x4(%esp)
    23b3:	8d 85 88 fe ff ff    	lea    -0x178(%ebp),%eax
    23b9:	c6 84 15 e4 fe ff ff 	movb   $0x0,-0x11c(%ebp,%edx,1)
    23c0:	00 
    23c1:	89 7c 24 08          	mov    %edi,0x8(%esp)
    23c5:	89 04 24             	mov    %eax,(%esp)
    23c8:	43                   	inc    %ebx
    23c9:	ff 51 04             	call   *0x4(%ecx)
    23cc:	85 c0                	test   %eax,%eax
    23ce:	0f 85 d0 09 00 00    	jne    2da4 <vfs_connection+0xbe4>
    23d4:	8b 85 88 fe ff ff    	mov    -0x178(%ebp),%eax
    23da:	85 c0                	test   %eax,%eax
    23dc:	0f 84 9a 0c 00 00    	je     307c <vfs_connection+0xebc>
    23e2:	80 38 00             	cmpb   $0x0,(%eax)
    23e5:	74 1a                	je     2401 <vfs_connection+0x241>
    23e7:	8b bd 58 fe ff ff    	mov    -0x1a8(%ebp),%edi
    23ed:	85 ff                	test   %edi,%edi
    23ef:	0f 84 f7 0d 00 00    	je     31ec <vfs_connection+0x102c>
    23f5:	39 9d 70 fe ff ff    	cmp    %ebx,-0x190(%ebp)
    23fb:	0f 83 b0 0e 00 00    	jae    32b1 <vfs_connection+0x10f1>
    2401:	8b 8d 6c fe ff ff    	mov    -0x194(%ebp),%ecx
    2407:	85 c9                	test   %ecx,%ecx
    2409:	74 20                	je     242b <vfs_connection+0x26b>
    240b:	8b 8d 6c fe ff ff    	mov    -0x194(%ebp),%ecx
    2411:	89 0c 24             	mov    %ecx,(%esp)
    2414:	8b 8d 74 fe ff ff    	mov    -0x18c(%ebp),%ecx
    241a:	ff 51 10             	call   *0x10(%ecx)
    241d:	85 c0                	test   %eax,%eax
    241f:	0f 85 7f 09 00 00    	jne    2da4 <vfs_connection+0xbe4>
    2425:	8b 85 88 fe ff ff    	mov    -0x178(%ebp),%eax
    242b:	8b 8d 84 fe ff ff    	mov    -0x17c(%ebp),%ecx
    2431:	c7 85 88 fe ff ff 00 	movl   $0x0,-0x178(%ebp)
    2438:	00 00 00 
    243b:	89 8d 6c fe ff ff    	mov    %ecx,-0x194(%ebp)
    2441:	89 85 84 fe ff ff    	mov    %eax,-0x17c(%ebp)
    2447:	39 9d 70 fe ff ff    	cmp    %ebx,-0x190(%ebp)
    244d:	0f 83 de fe ff ff    	jae    2331 <vfs_connection+0x171>
    2453:	8b b5 54 fe ff ff    	mov    -0x1ac(%ebp),%esi
    2459:	f6 85 60 fe ff ff 80 	testb  $0x80,-0x1a0(%ebp)
    2460:	0f 85 ff 0c 00 00    	jne    3165 <vfs_connection+0xfa5>
    2466:	8b 85 60 fe ff ff    	mov    -0x1a0(%ebp),%eax
    246c:	83 e0 30             	and    $0x30,%eax
    246f:	83 f8 30             	cmp    $0x30,%eax
    2472:	0f 84 d8 0c 00 00    	je     3150 <vfs_connection+0xf90>
    2478:	f6 85 60 fe ff ff 40 	testb  $0x40,-0x1a0(%ebp)
    247f:	0f 85 cb 0c 00 00    	jne    3150 <vfs_connection+0xf90>
    2485:	f6 85 60 fe ff ff 01 	testb  $0x1,-0x1a0(%ebp)
    248c:	0f 85 6a 0e 00 00    	jne    32fc <vfs_connection+0x113c>
    2492:	f6 85 60 fe ff ff 02 	testb  $0x2,-0x1a0(%ebp)
    2499:	0f 85 2e 0e 00 00    	jne    32cd <vfs_connection+0x110d>
    249f:	f6 85 60 fe ff ff 04 	testb  $0x4,-0x1a0(%ebp)
    24a6:	0f 84 23 09 00 00    	je     2dcf <vfs_connection+0xc0f>
    24ac:	8b 95 6c fe ff ff    	mov    -0x194(%ebp),%edx
    24b2:	85 d2                	test   %edx,%edx
    24b4:	0f 84 15 09 00 00    	je     2dcf <vfs_connection+0xc0f>
    24ba:	c7 44 24 04 f2 ff ff 	movl   $0xfffffff2,0x4(%esp)
    24c1:	ff 
    24c2:	89 34 24             	mov    %esi,(%esp)
    24c5:	e8 d6 36 01 00       	call   15ba0 <async_answer_0>
    24ca:	e9 f9 06 00 00       	jmp    2bc8 <vfs_connection+0xa08>
    24cf:	90                   	nop
    24d0:	8b 8d c8 fe ff ff    	mov    -0x138(%ebp),%ecx
    24d6:	8b bd c4 fe ff ff    	mov    -0x13c(%ebp),%edi
    24dc:	8d 85 8c fe ff ff    	lea    -0x174(%ebp),%eax
    24e2:	8b 1d 70 2b 02 00    	mov    0x22b70,%ebx
    24e8:	8b 15 74 2b 02 00    	mov    0x22b74,%edx
    24ee:	89 4c 24 08          	mov    %ecx,0x8(%esp)
    24f2:	89 7c 24 04          	mov    %edi,0x4(%esp)
    24f6:	89 04 24             	mov    %eax,(%esp)
    24f9:	89 95 70 fe ff ff    	mov    %edx,-0x190(%ebp)
    24ff:	89 8d 74 fe ff ff    	mov    %ecx,-0x18c(%ebp)
    2505:	ff 53 08             	call   *0x8(%ebx)
    2508:	85 c0                	test   %eax,%eax
    250a:	75 7f                	jne    258b <vfs_connection+0x3cb>
    250c:	8d 95 94 fe ff ff    	lea    -0x16c(%ebp),%edx
    2512:	8d 85 90 fe ff ff    	lea    -0x170(%ebp),%eax
    2518:	89 54 24 04          	mov    %edx,0x4(%esp)
    251c:	89 04 24             	mov    %eax,(%esp)
    251f:	e8 ec 4b 01 00       	call   17110 <async_data_read_receive>
    2524:	84 c0                	test   %al,%al
    2526:	74 0d                	je     2535 <vfs_connection+0x375>
    2528:	83 bd 94 fe ff ff 20 	cmpl   $0x20,-0x16c(%ebp)
    252f:	0f 84 8f 09 00 00    	je     2ec4 <vfs_connection+0xd04>
    2535:	8b 85 8c fe ff ff    	mov    -0x174(%ebp),%eax
    253b:	89 04 24             	mov    %eax,(%esp)
    253e:	ff 53 10             	call   *0x10(%ebx)
    2541:	8b 85 90 fe ff ff    	mov    -0x170(%ebp),%eax
    2547:	c7 44 24 04 f2 ff ff 	movl   $0xfffffff2,0x4(%esp)
    254e:	ff 
    254f:	89 04 24             	mov    %eax,(%esp)
    2552:	e8 49 36 01 00       	call   15ba0 <async_answer_0>
    2557:	c7 44 24 04 f2 ff ff 	movl   $0xfffffff2,0x4(%esp)
    255e:	ff 
    255f:	89 34 24             	mov    %esi,(%esp)
    2562:	e8 39 36 01 00       	call   15ba0 <async_answer_0>
    2567:	e9 6c fc ff ff       	jmp    21d8 <vfs_connection+0x18>
    256c:	8d 74 26 00          	lea    0x0(%esi,%eiz,1),%esi
    2570:	8b 85 c8 fe ff ff    	mov    -0x138(%ebp),%eax
    2576:	89 44 24 04          	mov    %eax,0x4(%esp)
    257a:	8b 85 c4 fe ff ff    	mov    -0x13c(%ebp),%eax
    2580:	89 04 24             	mov    %eax,(%esp)
    2583:	a1 6c 2b 02 00       	mov    0x22b6c,%eax
    2588:	ff 50 1c             	call   *0x1c(%eax)
    258b:	89 44 24 04          	mov    %eax,0x4(%esp)
    258f:	89 34 24             	mov    %esi,(%esp)
    2592:	e8 09 36 01 00       	call   15ba0 <async_answer_0>
    2597:	e9 3c fc ff ff       	jmp    21d8 <vfs_connection+0x18>
    259c:	8d 74 26 00          	lea    0x0(%esi,%eiz,1),%esi
    25a0:	8b 85 c8 fe ff ff    	mov    -0x138(%ebp),%eax
    25a6:	8b 1d 70 2b 02 00    	mov    0x22b70,%ebx
    25ac:	89 44 24 08          	mov    %eax,0x8(%esp)
    25b0:	8b 85 c4 fe ff ff    	mov    -0x13c(%ebp),%eax
    25b6:	89 44 24 04          	mov    %eax,0x4(%esp)
    25ba:	8d 85 8c fe ff ff    	lea    -0x174(%ebp),%eax
    25c0:	89 04 24             	mov    %eax,(%esp)
    25c3:	ff 53 08             	call   *0x8(%ebx)
    25c6:	85 c0                	test   %eax,%eax
    25c8:	75 c1                	jne    258b <vfs_connection+0x3cb>
    25ca:	8b 85 8c fe ff ff    	mov    -0x174(%ebp),%eax
    25d0:	85 c0                	test   %eax,%eax
    25d2:	0f 84 c4 07 00 00    	je     2d9c <vfs_connection+0xbdc>
    25d8:	80 38 00             	cmpb   $0x0,(%eax)
    25db:	0f 84 5f 06 00 00    	je     2c40 <vfs_connection+0xa80>
    25e1:	8b 40 04             	mov    0x4(%eax),%eax
    25e4:	89 04 24             	mov    %eax,(%esp)
    25e7:	e8 b4 3f 01 00       	call   165a0 <async_exchange_begin>
    25ec:	c7 44 24 28 00 00 00 	movl   $0x0,0x28(%esp)
    25f3:	00 
    25f4:	89 c7                	mov    %eax,%edi
    25f6:	8b 85 8c fe ff ff    	mov    -0x174(%ebp),%eax
    25fc:	c7 44 24 24 00 00 00 	movl   $0x0,0x24(%esp)
    2603:	00 
    2604:	c7 44 24 20 00 00 00 	movl   $0x0,0x20(%esp)
    260b:	00 
    260c:	c7 44 24 1c 00 00 00 	movl   $0x0,0x1c(%esp)
    2613:	00 
    2614:	c7 44 24 18 00 00 00 	movl   $0x0,0x18(%esp)
    261b:	00 
    261c:	c7 44 24 14 00 00 00 	movl   $0x0,0x14(%esp)
    2623:	00 
    2624:	c7 44 24 10 00 00 00 	movl   $0x0,0x10(%esp)
    262b:	00 
    262c:	c7 44 24 0c 00 00 00 	movl   $0x0,0xc(%esp)
    2633:	00 
    2634:	8b 40 0c             	mov    0xc(%eax),%eax
    2637:	c7 44 24 04 08 04 00 	movl   $0x408,0x4(%esp)
    263e:	00 
    263f:	89 44 24 08          	mov    %eax,0x8(%esp)
    2643:	89 3c 24             	mov    %edi,(%esp)
    2646:	e8 05 2f 01 00       	call   15550 <async_req_fast>
    264b:	89 3c 24             	mov    %edi,(%esp)
    264e:	89 85 74 fe ff ff    	mov    %eax,-0x18c(%ebp)
    2654:	e8 b7 42 01 00       	call   16910 <async_exchange_end>
    2659:	8b 8d 74 fe ff ff    	mov    -0x18c(%ebp),%ecx
    265f:	85 c9                	test   %ecx,%ecx
    2661:	75 34                	jne    2697 <vfs_connection+0x4d7>
    2663:	8b 85 8c fe ff ff    	mov    -0x174(%ebp),%eax
    2669:	8b 40 04             	mov    0x4(%eax),%eax
    266c:	89 04 24             	mov    %eax,(%esp)
    266f:	e8 2c 3e 01 00       	call   164a0 <async_hangup>
    2674:	8b 85 8c fe ff ff    	mov    -0x174(%ebp),%eax
    267a:	c6 00 00             	movb   $0x0,(%eax)
    267d:	66 c7 40 08 00 00    	movw   $0x0,0x8(%eax)
    2683:	c7 40 0c 00 00 00 00 	movl   $0x0,0xc(%eax)
    268a:	c7 40 04 00 00 00 00 	movl   $0x0,0x4(%eax)
    2691:	89 04 24             	mov    %eax,(%esp)
    2694:	ff 53 10             	call   *0x10(%ebx)
    2697:	8b 85 8c fe ff ff    	mov    -0x174(%ebp),%eax
    269d:	89 04 24             	mov    %eax,(%esp)
    26a0:	ff 53 10             	call   *0x10(%ebx)
    26a3:	8b 85 74 fe ff ff    	mov    -0x18c(%ebp),%eax
    26a9:	89 44 24 04          	mov    %eax,0x4(%esp)
    26ad:	89 34 24             	mov    %esi,(%esp)
    26b0:	e8 eb 34 01 00       	call   15ba0 <async_answer_0>
    26b5:	e9 1e fb ff ff       	jmp    21d8 <vfs_connection+0x18>
    26ba:	8d b6 00 00 00 00    	lea    0x0(%esi),%esi
    26c0:	8b 85 c4 fe ff ff    	mov    -0x13c(%ebp),%eax
    26c6:	89 04 24             	mov    %eax,(%esp)
    26c9:	a1 6c 2b 02 00       	mov    0x22b6c,%eax
    26ce:	ff 50 04             	call   *0x4(%eax)
    26d1:	89 34 24             	mov    %esi,(%esp)
    26d4:	89 44 24 04          	mov    %eax,0x4(%esp)
    26d8:	e8 c3 34 01 00       	call   15ba0 <async_answer_0>
    26dd:	e9 f6 fa ff ff       	jmp    21d8 <vfs_connection+0x18>
    26e2:	8d b6 00 00 00 00    	lea    0x0(%esi),%esi
    26e8:	8d 95 8c fe ff ff    	lea    -0x174(%ebp),%edx
    26ee:	c7 44 24 14 00 00 00 	movl   $0x0,0x14(%esp)
    26f5:	00 
    26f6:	c7 44 24 10 00 00 00 	movl   $0x0,0x10(%esp)
    26fd:	00 
    26fe:	c7 44 24 0c 00 00 00 	movl   $0x0,0xc(%esp)
    2705:	00 
    2706:	c7 44 24 08 00 00 00 	movl   $0x0,0x8(%esp)
    270d:	00 
    270e:	c7 44 24 04 01 00 00 	movl   $0x1,0x4(%esp)
    2715:	00 
    2716:	89 14 24             	mov    %edx,(%esp)
    2719:	8b 9d c4 fe ff ff    	mov    -0x13c(%ebp),%ebx
    271f:	e8 9c 4f 01 00       	call   176c0 <async_data_write_accept>
    2724:	85 c0                	test   %eax,%eax
    2726:	0f 85 5f fe ff ff    	jne    258b <vfs_connection+0x3cb>
    272c:	8d 85 98 fe ff ff    	lea    -0x168(%ebp),%eax
    2732:	8d 8d 94 fe ff ff    	lea    -0x16c(%ebp),%ecx
    2738:	89 44 24 0c          	mov    %eax,0xc(%esp)
    273c:	8d 85 90 fe ff ff    	lea    -0x170(%ebp),%eax
    2742:	89 44 24 08          	mov    %eax,0x8(%esp)
    2746:	8b 85 8c fe ff ff    	mov    -0x174(%ebp),%eax
    274c:	89 44 24 04          	mov    %eax,0x4(%esp)
    2750:	a1 6c 2b 02 00       	mov    0x22b6c,%eax
    2755:	89 4c 24 10          	mov    %ecx,0x10(%esp)
    2759:	89 1c 24             	mov    %ebx,(%esp)
    275c:	ff 10                	call   *(%eax)
    275e:	85 c0                	test   %eax,%eax
    2760:	0f 85 fa 04 00 00    	jne    2c60 <vfs_connection+0xaa0>
    2766:	8b 85 94 fe ff ff    	mov    -0x16c(%ebp),%eax
    276c:	c7 44 24 04 00 00 00 	movl   $0x0,0x4(%esp)
    2773:	00 
    2774:	89 44 24 14          	mov    %eax,0x14(%esp)
    2778:	8b 85 9c fe ff ff    	mov    -0x164(%ebp),%eax
    277e:	89 44 24 10          	mov    %eax,0x10(%esp)
    2782:	8b 85 98 fe ff ff    	mov    -0x168(%ebp),%eax
    2788:	89 44 24 0c          	mov    %eax,0xc(%esp)
    278c:	8b 85 90 fe ff ff    	mov    -0x170(%ebp),%eax
    2792:	89 44 24 08          	mov    %eax,0x8(%esp)
    2796:	89 34 24             	mov    %esi,(%esp)
    2799:	e8 02 35 01 00       	call   15ca0 <async_answer_4>
    279e:	8b 85 8c fe ff ff    	mov    -0x174(%ebp),%eax
    27a4:	89 04 24             	mov    %eax,(%esp)
    27a7:	e8 c4 09 01 00       	call   13170 <free>
    27ac:	e9 27 fa ff ff       	jmp    21d8 <vfs_connection+0x18>
    27b1:	8d b4 26 00 00 00 00 	lea    0x0(%esi,%eiz,1),%esi
    27b8:	8b 95 c4 fe ff ff    	mov    -0x13c(%ebp),%edx
    27be:	8b 8d cc fe ff ff    	mov    -0x134(%ebp),%ecx
    27c4:	89 95 74 fe ff ff    	mov    %edx,-0x18c(%ebp)
    27ca:	c7 04 24 01 00 00 00 	movl   $0x1,(%esp)
    27d1:	8b 95 d0 fe ff ff    	mov    -0x130(%ebp),%edx
    27d7:	8b 1d 70 2b 02 00    	mov    0x22b70,%ebx
    27dd:	89 95 70 fe ff ff    	mov    %edx,-0x190(%ebp)
    27e3:	8b bd c8 fe ff ff    	mov    -0x138(%ebp),%edi
    27e9:	89 8d 6c fe ff ff    	mov    %ecx,-0x194(%ebp)
    27ef:	e8 0c 55 01 00       	call   17d00 <async_clone_receive>
    27f4:	89 c2                	mov    %eax,%edx
    27f6:	85 c0                	test   %eax,%eax
    27f8:	0f 84 48 04 00 00    	je     2c46 <vfs_connection+0xa86>
    27fe:	8b 8d 74 fe ff ff    	mov    -0x18c(%ebp),%ecx
    2804:	8d 85 8c fe ff ff    	lea    -0x174(%ebp),%eax
    280a:	89 7c 24 08          	mov    %edi,0x8(%esp)
    280e:	89 95 4c fe ff ff    	mov    %edx,-0x1b4(%ebp)
    2814:	89 4c 24 04          	mov    %ecx,0x4(%esp)
    2818:	89 04 24             	mov    %eax,(%esp)
    281b:	ff 53 08             	call   *0x8(%ebx)
    281e:	8b 95 4c fe ff ff    	mov    -0x1b4(%ebp),%edx
    2824:	89 c7                	mov    %eax,%edi
    2826:	85 c0                	test   %eax,%eax
    2828:	0f 85 82 04 00 00    	jne    2cb0 <vfs_connection+0xaf0>
    282e:	8b 85 8c fe ff ff    	mov    -0x174(%ebp),%eax
    2834:	85 c0                	test   %eax,%eax
    2836:	0f 84 44 05 00 00    	je     2d80 <vfs_connection+0xbc0>
    283c:	80 38 00             	cmpb   $0x0,(%eax)
    283f:	89 14 24             	mov    %edx,(%esp)
    2842:	0f 85 30 04 00 00    	jne    2c78 <vfs_connection+0xab8>
    2848:	89 95 4c fe ff ff    	mov    %edx,-0x1b4(%ebp)
    284e:	e8 4d 3d 01 00       	call   165a0 <async_exchange_begin>
    2853:	c7 04 24 01 00 00 00 	movl   $0x1,(%esp)
    285a:	89 44 24 04          	mov    %eax,0x4(%esp)
    285e:	89 85 48 fe ff ff    	mov    %eax,-0x1b8(%ebp)
    2864:	e8 57 37 01 00       	call   15fc0 <async_clone_establish>
    2869:	8b 95 4c fe ff ff    	mov    -0x1b4(%ebp),%edx
    286f:	85 c0                	test   %eax,%eax
    2871:	8b 8d 48 fe ff ff    	mov    -0x1b8(%ebp),%ecx
    2877:	0f 84 01 06 00 00    	je     2e7e <vfs_connection+0xcbe>
    287d:	8b 85 70 fe ff ff    	mov    -0x190(%ebp),%eax
    2883:	8d bd e4 fe ff ff    	lea    -0x11c(%ebp),%edi
    2889:	89 0c 24             	mov    %ecx,(%esp)
    288c:	89 7c 24 18          	mov    %edi,0x18(%esp)
    2890:	c7 44 24 14 00 00 00 	movl   $0x0,0x14(%esp)
    2897:	00 
    2898:	c7 44 24 10 00 00 00 	movl   $0x0,0x10(%esp)
    289f:	00 
    28a0:	c7 44 24 0c 00 00 00 	movl   $0x0,0xc(%esp)
    28a7:	00 
    28a8:	89 44 24 08          	mov    %eax,0x8(%esp)
    28ac:	c7 44 24 04 06 04 00 	movl   $0x406,0x4(%esp)
    28b3:	00 
    28b4:	89 95 4c fe ff ff    	mov    %edx,-0x1b4(%ebp)
    28ba:	89 8d 48 fe ff ff    	mov    %ecx,-0x1b8(%ebp)
    28c0:	e8 ab 4f 01 00       	call   17870 <async_data_write_forward_fast>
    28c5:	8b 8d 48 fe ff ff    	mov    -0x1b8(%ebp),%ecx
    28cb:	89 c3                	mov    %eax,%ebx
    28cd:	89 0c 24             	mov    %ecx,(%esp)
    28d0:	e8 3b 40 01 00       	call   16910 <async_exchange_end>
    28d5:	85 db                	test   %ebx,%ebx
    28d7:	8b 95 4c fe ff ff    	mov    -0x1b4(%ebp),%edx
    28dd:	75 1f                	jne    28fe <vfs_connection+0x73e>
    28df:	8b 85 8c fe ff ff    	mov    -0x174(%ebp),%eax
    28e5:	8b 8d 6c fe ff ff    	mov    -0x194(%ebp),%ecx
    28eb:	66 89 48 08          	mov    %cx,0x8(%eax)
    28ef:	8b 8d 70 fe ff ff    	mov    -0x190(%ebp),%ecx
    28f5:	c6 00 01             	movb   $0x1,(%eax)
    28f8:	89 48 0c             	mov    %ecx,0xc(%eax)
    28fb:	89 50 04             	mov    %edx,0x4(%eax)
    28fe:	8b 85 f4 fe ff ff    	mov    -0x10c(%ebp),%eax
    2904:	89 5c 24 04          	mov    %ebx,0x4(%esp)
    2908:	89 44 24 14          	mov    %eax,0x14(%esp)
    290c:	8b 85 f0 fe ff ff    	mov    -0x110(%ebp),%eax
    2912:	89 44 24 10          	mov    %eax,0x10(%esp)
    2916:	8b 85 ec fe ff ff    	mov    -0x114(%ebp),%eax
    291c:	89 44 24 0c          	mov    %eax,0xc(%esp)
    2920:	8b 85 e8 fe ff ff    	mov    -0x118(%ebp),%eax
    2926:	89 44 24 08          	mov    %eax,0x8(%esp)
    292a:	89 34 24             	mov    %esi,(%esp)
    292d:	e8 6e 33 01 00       	call   15ca0 <async_answer_4>
    2932:	e9 a1 f8 ff ff       	jmp    21d8 <vfs_connection+0x18>
    2937:	90                   	nop
    2938:	8b 85 c8 fe ff ff    	mov    -0x138(%ebp),%eax
    293e:	89 44 24 04          	mov    %eax,0x4(%esp)
    2942:	8b 85 c4 fe ff ff    	mov    -0x13c(%ebp),%eax
    2948:	89 04 24             	mov    %eax,(%esp)
    294b:	a1 6c 2b 02 00       	mov    0x22b6c,%eax
    2950:	ff 50 14             	call   *0x14(%eax)
    2953:	89 34 24             	mov    %esi,(%esp)
    2956:	89 44 24 04          	mov    %eax,0x4(%esp)
    295a:	e8 41 32 01 00       	call   15ba0 <async_answer_0>
    295f:	e9 74 f8 ff ff       	jmp    21d8 <vfs_connection+0x18>
    2964:	8d 74 26 00          	lea    0x0(%esi,%eiz,1),%esi
    2968:	8b 85 d0 fe ff ff    	mov    -0x130(%ebp),%eax
    296e:	8b 8d cc fe ff ff    	mov    -0x134(%ebp),%ecx
    2974:	89 44 24 0c          	mov    %eax,0xc(%esp)
    2978:	8b 85 c8 fe ff ff    	mov    -0x138(%ebp),%eax
    297e:	89 44 24 04          	mov    %eax,0x4(%esp)
    2982:	8b 85 c4 fe ff ff    	mov    -0x13c(%ebp),%eax
    2988:	89 04 24             	mov    %eax,(%esp)
    298b:	a1 6c 2b 02 00       	mov    0x22b6c,%eax
    2990:	89 4c 24 08          	mov    %ecx,0x8(%esp)
    2994:	ff 50 10             	call   *0x10(%eax)
    2997:	89 34 24             	mov    %esi,(%esp)
    299a:	89 44 24 04          	mov    %eax,0x4(%esp)
    299e:	e8 fd 31 01 00       	call   15ba0 <async_answer_0>
    29a3:	e9 30 f8 ff ff       	jmp    21d8 <vfs_connection+0x18>
    29a8:	8d 85 98 fe ff ff    	lea    -0x168(%ebp),%eax
    29ae:	8d 95 94 fe ff ff    	lea    -0x16c(%ebp),%edx
    29b4:	89 44 24 14          	mov    %eax,0x14(%esp)
    29b8:	8b 85 d0 fe ff ff    	mov    -0x130(%ebp),%eax
    29be:	89 44 24 0c          	mov    %eax,0xc(%esp)
    29c2:	8b 85 c8 fe ff ff    	mov    -0x138(%ebp),%eax
    29c8:	89 44 24 04          	mov    %eax,0x4(%esp)
    29cc:	8b 85 c4 fe ff ff    	mov    -0x13c(%ebp),%eax
    29d2:	8b 8d cc fe ff ff    	mov    -0x134(%ebp),%ecx
    29d8:	89 04 24             	mov    %eax,(%esp)
    29db:	a1 6c 2b 02 00       	mov    0x22b6c,%eax
    29e0:	89 54 24 10          	mov    %edx,0x10(%esp)
    29e4:	89 4c 24 08          	mov    %ecx,0x8(%esp)
    29e8:	ff 50 0c             	call   *0xc(%eax)
    29eb:	85 c0                	test   %eax,%eax
    29ed:	0f 85 98 fb ff ff    	jne    258b <vfs_connection+0x3cb>
    29f3:	8b 85 9c fe ff ff    	mov    -0x164(%ebp),%eax
    29f9:	c7 44 24 04 00 00 00 	movl   $0x0,0x4(%esp)
    2a00:	00 
    2a01:	89 44 24 10          	mov    %eax,0x10(%esp)
    2a05:	8b 85 98 fe ff ff    	mov    -0x168(%ebp),%eax
    2a0b:	89 44 24 0c          	mov    %eax,0xc(%esp)
    2a0f:	8b 85 94 fe ff ff    	mov    -0x16c(%ebp),%eax
    2a15:	89 44 24 08          	mov    %eax,0x8(%esp)
    2a19:	89 34 24             	mov    %esi,(%esp)
    2a1c:	e8 3f 32 01 00       	call   15c60 <async_answer_3>
    2a21:	e9 b2 f7 ff ff       	jmp    21d8 <vfs_connection+0x18>
    2a26:	66 90                	xchg   %ax,%ax
    2a28:	8d 85 94 fe ff ff    	lea    -0x16c(%ebp),%eax
    2a2e:	8b 8d cc fe ff ff    	mov    -0x134(%ebp),%ecx
    2a34:	89 44 24 10          	mov    %eax,0x10(%esp)
    2a38:	8b 85 d0 fe ff ff    	mov    -0x130(%ebp),%eax
    2a3e:	89 44 24 0c          	mov    %eax,0xc(%esp)
    2a42:	8b 85 c8 fe ff ff    	mov    -0x138(%ebp),%eax
    2a48:	89 44 24 04          	mov    %eax,0x4(%esp)
    2a4c:	8b 85 c4 fe ff ff    	mov    -0x13c(%ebp),%eax
    2a52:	89 04 24             	mov    %eax,(%esp)
    2a55:	a1 6c 2b 02 00       	mov    0x22b6c,%eax
    2a5a:	89 4c 24 08          	mov    %ecx,0x8(%esp)
    2a5e:	ff 50 08             	call   *0x8(%eax)
    2a61:	85 c0                	test   %eax,%eax
    2a63:	0f 85 22 fb ff ff    	jne    258b <vfs_connection+0x3cb>
    2a69:	8b 85 94 fe ff ff    	mov    -0x16c(%ebp),%eax
    2a6f:	c7 44 24 04 00 00 00 	movl   $0x0,0x4(%esp)
    2a76:	00 
    2a77:	89 44 24 08          	mov    %eax,0x8(%esp)
    2a7b:	89 34 24             	mov    %esi,(%esp)
    2a7e:	e8 5d 31 01 00       	call   15be0 <async_answer_1>
    2a83:	e9 50 f7 ff ff       	jmp    21d8 <vfs_connection+0x18>
    2a88:	8b 85 c8 fe ff ff    	mov    -0x138(%ebp),%eax
    2a8e:	8d 8d 8c fe ff ff    	lea    -0x174(%ebp),%ecx
    2a94:	89 44 24 08          	mov    %eax,0x8(%esp)
    2a98:	8b 1d 70 2b 02 00    	mov    0x22b70,%ebx
    2a9e:	8b 85 c4 fe ff ff    	mov    -0x13c(%ebp),%eax
    2aa4:	89 0c 24             	mov    %ecx,(%esp)
    2aa7:	89 44 24 04          	mov    %eax,0x4(%esp)
    2aab:	ff 53 08             	call   *0x8(%ebx)
    2aae:	85 c0                	test   %eax,%eax
    2ab0:	0f 85 d5 fa ff ff    	jne    258b <vfs_connection+0x3cb>
    2ab6:	8b 85 8c fe ff ff    	mov    -0x174(%ebp),%eax
    2abc:	85 c0                	test   %eax,%eax
    2abe:	0f 84 0f 02 00 00    	je     2cd3 <vfs_connection+0xb13>
    2ac4:	89 04 24             	mov    %eax,(%esp)
    2ac7:	ff 53 0c             	call   *0xc(%ebx)
    2aca:	89 85 74 fe ff ff    	mov    %eax,-0x18c(%ebp)
    2ad0:	8b 85 8c fe ff ff    	mov    -0x174(%ebp),%eax
    2ad6:	89 04 24             	mov    %eax,(%esp)
    2ad9:	ff 53 2c             	call   *0x2c(%ebx)
    2adc:	89 85 70 fe ff ff    	mov    %eax,-0x190(%ebp)
    2ae2:	8b 85 8c fe ff ff    	mov    -0x174(%ebp),%eax
    2ae8:	89 95 4c fe ff ff    	mov    %edx,-0x1b4(%ebp)
    2aee:	89 04 24             	mov    %eax,(%esp)
    2af1:	ff 53 38             	call   *0x38(%ebx)
    2af4:	31 c9                	xor    %ecx,%ecx
    2af6:	88 c1                	mov    %al,%cl
    2af8:	8b 85 8c fe ff ff    	mov    -0x174(%ebp),%eax
    2afe:	89 8d 48 fe ff ff    	mov    %ecx,-0x1b8(%ebp)
    2b04:	89 04 24             	mov    %eax,(%esp)
    2b07:	ff 53 34             	call   *0x34(%ebx)
    2b0a:	3c 01                	cmp    $0x1,%al
    2b0c:	8b 85 8c fe ff ff    	mov    -0x174(%ebp),%eax
    2b12:	19 ff                	sbb    %edi,%edi
    2b14:	89 04 24             	mov    %eax,(%esp)
    2b17:	ff 53 30             	call   *0x30(%ebx)
    2b1a:	83 f7 ff             	xor    $0xffffffff,%edi
    2b1d:	8b 8d 48 fe ff ff    	mov    -0x1b8(%ebp),%ecx
    2b23:	89 44 24 10          	mov    %eax,0x10(%esp)
    2b27:	83 e7 02             	and    $0x2,%edi
    2b2a:	8b 85 70 fe ff ff    	mov    -0x190(%ebp),%eax
    2b30:	09 f9                	or     %edi,%ecx
    2b32:	8b 95 4c fe ff ff    	mov    -0x1b4(%ebp),%edx
    2b38:	89 44 24 08          	mov    %eax,0x8(%esp)
    2b3c:	8b 85 74 fe ff ff    	mov    -0x18c(%ebp),%eax
    2b42:	89 4c 24 14          	mov    %ecx,0x14(%esp)
    2b46:	89 54 24 0c          	mov    %edx,0xc(%esp)
    2b4a:	89 44 24 04          	mov    %eax,0x4(%esp)
    2b4e:	89 34 24             	mov    %esi,(%esp)
    2b51:	e8 4a 31 01 00       	call   15ca0 <async_answer_4>
    2b56:	8b 85 8c fe ff ff    	mov    -0x174(%ebp),%eax
    2b5c:	89 04 24             	mov    %eax,(%esp)
    2b5f:	ff 53 10             	call   *0x10(%ebx)
    2b62:	e9 71 f6 ff ff       	jmp    21d8 <vfs_connection+0x18>
    2b67:	90                   	nop
    2b68:	8b 85 c8 fe ff ff    	mov    -0x138(%ebp),%eax
    2b6e:	89 44 24 04          	mov    %eax,0x4(%esp)
    2b72:	8b 85 c4 fe ff ff    	mov    -0x13c(%ebp),%eax
    2b78:	89 04 24             	mov    %eax,(%esp)
    2b7b:	a1 6c 2b 02 00       	mov    0x22b6c,%eax
    2b80:	ff 50 18             	call   *0x18(%eax)
    2b83:	89 34 24             	mov    %esi,(%esp)
    2b86:	89 44 24 04          	mov    %eax,0x4(%esp)
    2b8a:	e8 11 30 01 00       	call   15ba0 <async_answer_0>
    2b8f:	e9 44 f6 ff ff       	jmp    21d8 <vfs_connection+0x18>
    2b94:	8d 74 26 00          	lea    0x0(%esi,%eiz,1),%esi
    2b98:	81 c4 dc 01 00 00    	add    $0x1dc,%esp
    2b9e:	5b                   	pop    %ebx
    2b9f:	5e                   	pop    %esi
    2ba0:	5f                   	pop    %edi
    2ba1:	5d                   	pop    %ebp
    2ba2:	c3                   	ret    
    2ba3:	90                   	nop
    2ba4:	8d 74 26 00          	lea    0x0(%esi,%eiz,1),%esi
    2ba8:	c7 85 6c fe ff ff 00 	movl   $0x0,-0x194(%ebp)
    2baf:	00 00 00 
    2bb2:	89 54 24 04          	mov    %edx,0x4(%esp)
    2bb6:	89 34 24             	mov    %esi,(%esp)
    2bb9:	e8 e2 2f 01 00       	call   15ba0 <async_answer_0>
    2bbe:	8b 85 6c fe ff ff    	mov    -0x194(%ebp),%eax
    2bc4:	85 c0                	test   %eax,%eax
    2bc6:	74 12                	je     2bda <vfs_connection+0xa1a>
    2bc8:	8b 8d 6c fe ff ff    	mov    -0x194(%ebp),%ecx
    2bce:	89 0c 24             	mov    %ecx,(%esp)
    2bd1:	8b 8d 74 fe ff ff    	mov    -0x18c(%ebp),%ecx
    2bd7:	ff 51 10             	call   *0x10(%ecx)
    2bda:	8b 85 84 fe ff ff    	mov    -0x17c(%ebp),%eax
    2be0:	85 c0                	test   %eax,%eax
    2be2:	74 0c                	je     2bf0 <vfs_connection+0xa30>
    2be4:	8b 8d 74 fe ff ff    	mov    -0x18c(%ebp),%ecx
    2bea:	89 04 24             	mov    %eax,(%esp)
    2bed:	ff 51 10             	call   *0x10(%ecx)
    2bf0:	8b 85 88 fe ff ff    	mov    -0x178(%ebp),%eax
    2bf6:	85 c0                	test   %eax,%eax
    2bf8:	0f 84 da f5 ff ff    	je     21d8 <vfs_connection+0x18>
    2bfe:	8b 8d 74 fe ff ff    	mov    -0x18c(%ebp),%ecx
    2c04:	89 04 24             	mov    %eax,(%esp)
    2c07:	ff 51 10             	call   *0x10(%ecx)
    2c0a:	e9 c9 f5 ff ff       	jmp    21d8 <vfs_connection+0x18>
    2c0f:	90                   	nop
    2c10:	85 d2                	test   %edx,%edx
    2c12:	0f 84 62 07 00 00    	je     337a <vfs_connection+0x11ba>
    2c18:	89 de                	mov    %ebx,%esi
    2c1a:	8d bd e4 fe ff ff    	lea    -0x11c(%ebp),%edi
    2c20:	e9 7e f7 ff ff       	jmp    23a3 <vfs_connection+0x1e3>
    2c25:	8d 76 00             	lea    0x0(%esi),%esi
    2c28:	c7 44 24 04 00 00 00 	movl   $0x0,0x4(%esp)
    2c2f:	00 
    2c30:	89 04 24             	mov    %eax,(%esp)
    2c33:	e8 68 2f 01 00       	call   15ba0 <async_answer_0>
    2c38:	e9 9b f5 ff ff       	jmp    21d8 <vfs_connection+0x18>
    2c3d:	8d 76 00             	lea    0x0(%esi),%esi
    2c40:	89 04 24             	mov    %eax,(%esp)
    2c43:	ff 53 10             	call   *0x10(%ebx)
    2c46:	c7 44 24 04 f2 ff ff 	movl   $0xfffffff2,0x4(%esp)
    2c4d:	ff 
    2c4e:	89 34 24             	mov    %esi,(%esp)
    2c51:	e8 4a 2f 01 00       	call   15ba0 <async_answer_0>
    2c56:	e9 7d f5 ff ff       	jmp    21d8 <vfs_connection+0x18>
    2c5b:	90                   	nop
    2c5c:	8d 74 26 00          	lea    0x0(%esi,%eiz,1),%esi
    2c60:	89 44 24 04          	mov    %eax,0x4(%esp)
    2c64:	89 34 24             	mov    %esi,(%esp)
    2c67:	e8 34 2f 01 00       	call   15ba0 <async_answer_0>
    2c6c:	e9 2d fb ff ff       	jmp    279e <vfs_connection+0x5de>
    2c71:	8d b4 26 00 00 00 00 	lea    0x0(%esi,%eiz,1),%esi
    2c78:	e8 23 38 01 00       	call   164a0 <async_hangup>
    2c7d:	8b 85 8c fe ff ff    	mov    -0x174(%ebp),%eax
    2c83:	89 04 24             	mov    %eax,(%esp)
    2c86:	ff 53 10             	call   *0x10(%ebx)
    2c89:	c7 04 24 f1 ff ff ff 	movl   $0xfffffff1,(%esp)
    2c90:	e8 9b 4b 01 00       	call   17830 <async_data_write_void>
    2c95:	c7 44 24 04 f1 ff ff 	movl   $0xfffffff1,0x4(%esp)
    2c9c:	ff 
    2c9d:	89 34 24             	mov    %esi,(%esp)
    2ca0:	e8 fb 2e 01 00       	call   15ba0 <async_answer_0>
    2ca5:	e9 2e f5 ff ff       	jmp    21d8 <vfs_connection+0x18>
    2caa:	8d b6 00 00 00 00    	lea    0x0(%esi),%esi
    2cb0:	89 14 24             	mov    %edx,(%esp)
    2cb3:	89 fb                	mov    %edi,%ebx
    2cb5:	e8 e6 37 01 00       	call   164a0 <async_hangup>
    2cba:	89 3c 24             	mov    %edi,(%esp)
    2cbd:	e8 6e 4b 01 00       	call   17830 <async_data_write_void>
    2cc2:	89 5c 24 04          	mov    %ebx,0x4(%esp)
    2cc6:	89 34 24             	mov    %esi,(%esp)
    2cc9:	e8 d2 2e 01 00       	call   15ba0 <async_answer_0>
    2cce:	e9 05 f5 ff ff       	jmp    21d8 <vfs_connection+0x18>
    2cd3:	c7 44 24 04 ff ff ff 	movl   $0xffffffff,0x4(%esp)
    2cda:	ff 
    2cdb:	89 34 24             	mov    %esi,(%esp)
    2cde:	e8 bd 2e 01 00       	call   15ba0 <async_answer_0>
    2ce3:	e9 f0 f4 ff ff       	jmp    21d8 <vfs_connection+0x18>
    2ce8:	8b b5 54 fe ff ff    	mov    -0x1ac(%ebp),%esi
    2cee:	c7 44 24 04 00 ff ff 	movl   $0xffffff00,0x4(%esp)
    2cf5:	ff 
    2cf6:	89 34 24             	mov    %esi,(%esp)
    2cf9:	e8 a2 2e 01 00       	call   15ba0 <async_answer_0>
    2cfe:	e9 bb fe ff ff       	jmp    2bbe <vfs_connection+0x9fe>
    2d03:	8b 40 04             	mov    0x4(%eax),%eax
    2d06:	89 04 24             	mov    %eax,(%esp)
    2d09:	e8 92 38 01 00       	call   165a0 <async_exchange_begin>
    2d0e:	8b 95 5c fe ff ff    	mov    -0x1a4(%ebp),%edx
    2d14:	89 c3                	mov    %eax,%ebx
    2d16:	8b 8d 60 fe ff ff    	mov    -0x1a0(%ebp),%ecx
    2d1c:	8b 85 84 fe ff ff    	mov    -0x17c(%ebp),%eax
    2d22:	89 54 24 1c          	mov    %edx,0x1c(%esp)
    2d26:	89 4c 24 18          	mov    %ecx,0x18(%esp)
    2d2a:	c7 44 24 20 01 00 00 	movl   $0x1,0x20(%esp)
    2d31:	00 
    2d32:	8b 40 0c             	mov    0xc(%eax),%eax
    2d35:	8b 8d 68 fe ff ff    	mov    -0x198(%ebp),%ecx
    2d3b:	8b 95 70 fe ff ff    	mov    -0x190(%ebp),%edx
    2d41:	89 4c 24 0c          	mov    %ecx,0xc(%esp)
    2d45:	89 54 24 10          	mov    %edx,0x10(%esp)
    2d49:	89 44 24 14          	mov    %eax,0x14(%esp)
    2d4d:	c7 44 24 08 0b 04 00 	movl   $0x40b,0x8(%esp)
    2d54:	00 
    2d55:	89 5c 24 04          	mov    %ebx,0x4(%esp)
    2d59:	89 34 24             	mov    %esi,(%esp)
    2d5c:	e8 8f 2f 01 00       	call   15cf0 <async_forward_slow>
    2d61:	89 1c 24             	mov    %ebx,(%esp)
    2d64:	e8 a7 3b 01 00       	call   16910 <async_exchange_end>
    2d69:	8b 85 84 fe ff ff    	mov    -0x17c(%ebp),%eax
    2d6f:	8b 8d 74 fe ff ff    	mov    -0x18c(%ebp),%ecx
    2d75:	89 04 24             	mov    %eax,(%esp)
    2d78:	ff 51 10             	call   *0x10(%ecx)
    2d7b:	e9 58 f4 ff ff       	jmp    21d8 <vfs_connection+0x18>
    2d80:	89 14 24             	mov    %edx,(%esp)
    2d83:	83 cb ff             	or     $0xffffffff,%ebx
    2d86:	e8 15 37 01 00       	call   164a0 <async_hangup>
    2d8b:	c7 04 24 ff ff ff ff 	movl   $0xffffffff,(%esp)
    2d92:	e8 99 4a 01 00       	call   17830 <async_data_write_void>
    2d97:	e9 26 ff ff ff       	jmp    2cc2 <vfs_connection+0xb02>
    2d9c:	83 c8 ff             	or     $0xffffffff,%eax
    2d9f:	e9 e7 f7 ff ff       	jmp    258b <vfs_connection+0x3cb>
    2da4:	8b b5 54 fe ff ff    	mov    -0x1ac(%ebp),%esi
    2daa:	89 c2                	mov    %eax,%edx
    2dac:	e9 01 fe ff ff       	jmp    2bb2 <vfs_connection+0x9f2>
    2db1:	8b 85 84 fe ff ff    	mov    -0x17c(%ebp),%eax
    2db7:	8b 8d 74 fe ff ff    	mov    -0x18c(%ebp),%ecx
    2dbd:	89 04 24             	mov    %eax,(%esp)
    2dc0:	ff 51 10             	call   *0x10(%ecx)
    2dc3:	8b 85 8c fe ff ff    	mov    -0x174(%ebp),%eax
    2dc9:	89 85 84 fe ff ff    	mov    %eax,-0x17c(%ebp)
    2dcf:	f7 85 60 fe ff ff 00 	testl  $0x100,-0x1a0(%ebp)
    2dd6:	01 00 00 
    2dd9:	75 78                	jne    2e53 <vfs_connection+0xc93>
    2ddb:	8b 85 84 fe ff ff    	mov    -0x17c(%ebp),%eax
    2de1:	8b 8d 74 fe ff ff    	mov    -0x18c(%ebp),%ecx
    2de7:	89 04 24             	mov    %eax,(%esp)
    2dea:	ff 51 2c             	call   *0x2c(%ecx)
    2ded:	8b 8d 74 fe ff ff    	mov    -0x18c(%ebp),%ecx
    2df3:	89 c3                	mov    %eax,%ebx
    2df5:	8b 85 84 fe ff ff    	mov    -0x17c(%ebp),%eax
    2dfb:	89 95 4c fe ff ff    	mov    %edx,-0x1b4(%ebp)
    2e01:	89 04 24             	mov    %eax,(%esp)
    2e04:	ff 51 30             	call   *0x30(%ecx)
    2e07:	8b 8d 74 fe ff ff    	mov    -0x18c(%ebp),%ecx
    2e0d:	89 c7                	mov    %eax,%edi
    2e0f:	8b 85 84 fe ff ff    	mov    -0x17c(%ebp),%eax
    2e15:	89 04 24             	mov    %eax,(%esp)
    2e18:	ff 51 28             	call   *0x28(%ecx)
    2e1b:	8b 95 4c fe ff ff    	mov    -0x1b4(%ebp),%edx
    2e21:	89 7c 24 18          	mov    %edi,0x18(%esp)
    2e25:	89 54 24 14          	mov    %edx,0x14(%esp)
    2e29:	89 5c 24 10          	mov    %ebx,0x10(%esp)
    2e2d:	89 44 24 0c          	mov    %eax,0xc(%esp)
    2e31:	8b 8d 64 fe ff ff    	mov    -0x19c(%ebp),%ecx
    2e37:	0f bf 85 52 fe ff ff 	movswl -0x1ae(%ebp),%eax
    2e3e:	89 4c 24 08          	mov    %ecx,0x8(%esp)
    2e42:	89 44 24 04          	mov    %eax,0x4(%esp)
    2e46:	89 34 24             	mov    %esi,(%esp)
    2e49:	e8 62 2e 01 00       	call   15cb0 <async_answer_5>
    2e4e:	e9 6b fd ff ff       	jmp    2bbe <vfs_connection+0x9fe>
    2e53:	8b 85 84 fe ff ff    	mov    -0x17c(%ebp),%eax
    2e59:	8b 8d 74 fe ff ff    	mov    -0x18c(%ebp),%ecx
    2e5f:	89 04 24             	mov    %eax,(%esp)
    2e62:	ff 51 0c             	call   *0xc(%ecx)
    2e65:	85 c0                	test   %eax,%eax
    2e67:	0f 84 6e ff ff ff    	je     2ddb <vfs_connection+0xc1b>
    2e6d:	89 44 24 04          	mov    %eax,0x4(%esp)
    2e71:	89 34 24             	mov    %esi,(%esp)
    2e74:	e8 27 2d 01 00       	call   15ba0 <async_answer_0>
    2e79:	e9 40 fd ff ff       	jmp    2bbe <vfs_connection+0x9fe>
    2e7e:	89 0c 24             	mov    %ecx,(%esp)
    2e81:	e8 8a 3a 01 00       	call   16910 <async_exchange_end>
    2e86:	8b 95 4c fe ff ff    	mov    -0x1b4(%ebp),%edx
    2e8c:	89 14 24             	mov    %edx,(%esp)
    2e8f:	e8 0c 36 01 00       	call   164a0 <async_hangup>
    2e94:	8b 85 8c fe ff ff    	mov    -0x174(%ebp),%eax
    2e9a:	89 04 24             	mov    %eax,(%esp)
    2e9d:	ff 53 10             	call   *0x10(%ebx)
    2ea0:	e8 7b 0a 00 00       	call   3920 <__errno>
    2ea5:	89 c3                	mov    %eax,%ebx
    2ea7:	8b 00                	mov    (%eax),%eax
    2ea9:	89 04 24             	mov    %eax,(%esp)
    2eac:	e8 7f 49 01 00       	call   17830 <async_data_write_void>
    2eb1:	8b 03                	mov    (%ebx),%eax
    2eb3:	89 44 24 04          	mov    %eax,0x4(%esp)
    2eb7:	89 34 24             	mov    %esi,(%esp)
    2eba:	e8 e1 2c 01 00       	call   15ba0 <async_answer_0>
    2ebf:	e9 14 f3 ff ff       	jmp    21d8 <vfs_connection+0x18>
    2ec4:	8d 8d a0 fe ff ff    	lea    -0x160(%ebp),%ecx
    2eca:	c7 44 24 08 20 00 00 	movl   $0x20,0x8(%esp)
    2ed1:	00 
    2ed2:	89 0c 24             	mov    %ecx,(%esp)
    2ed5:	c7 44 24 04 00 00 00 	movl   $0x0,0x4(%esp)
    2edc:	00 
    2edd:	89 8d 48 fe ff ff    	mov    %ecx,-0x1b8(%ebp)
    2ee3:	e8 b8 33 00 00       	call   62a0 <memset>
    2ee8:	8b 85 70 fe ff ff    	mov    -0x190(%ebp),%eax
    2eee:	8b 95 74 fe ff ff    	mov    -0x18c(%ebp),%edx
    2ef4:	66 89 85 a0 fe ff ff 	mov    %ax,-0x160(%ebp)
    2efb:	8b 85 8c fe ff ff    	mov    -0x174(%ebp),%eax
    2f01:	89 95 a8 fe ff ff    	mov    %edx,-0x158(%ebp)
    2f07:	89 bd a4 fe ff ff    	mov    %edi,-0x15c(%ebp)
    2f0d:	89 04 24             	mov    %eax,(%esp)
    2f10:	ff 53 30             	call   *0x30(%ebx)
    2f13:	89 85 ac fe ff ff    	mov    %eax,-0x154(%ebp)
    2f19:	8b 85 8c fe ff ff    	mov    -0x174(%ebp),%eax
    2f1f:	89 04 24             	mov    %eax,(%esp)
    2f22:	ff 53 38             	call   *0x38(%ebx)
    2f25:	88 85 b0 fe ff ff    	mov    %al,-0x150(%ebp)
    2f2b:	8b 85 8c fe ff ff    	mov    -0x174(%ebp),%eax
    2f31:	89 04 24             	mov    %eax,(%esp)
    2f34:	ff 53 34             	call   *0x34(%ebx)
    2f37:	88 85 b1 fe ff ff    	mov    %al,-0x14f(%ebp)
    2f3d:	8b 85 8c fe ff ff    	mov    -0x174(%ebp),%eax
    2f43:	89 04 24             	mov    %eax,(%esp)
    2f46:	ff 53 2c             	call   *0x2c(%ebx)
    2f49:	89 85 b4 fe ff ff    	mov    %eax,-0x14c(%ebp)
    2f4f:	8b 85 8c fe ff ff    	mov    -0x174(%ebp),%eax
    2f55:	89 95 b8 fe ff ff    	mov    %edx,-0x148(%ebp)
    2f5b:	89 04 24             	mov    %eax,(%esp)
    2f5e:	ff 53 3c             	call   *0x3c(%ebx)
    2f61:	89 85 bc fe ff ff    	mov    %eax,-0x144(%ebp)
    2f67:	8b 85 8c fe ff ff    	mov    -0x174(%ebp),%eax
    2f6d:	89 04 24             	mov    %eax,(%esp)
    2f70:	ff 53 10             	call   *0x10(%ebx)
    2f73:	8b 8d 48 fe ff ff    	mov    -0x1b8(%ebp),%ecx
    2f79:	8b 85 90 fe ff ff    	mov    -0x170(%ebp),%eax
    2f7f:	c7 44 24 08 20 00 00 	movl   $0x20,0x8(%esp)
    2f86:	00 
    2f87:	89 4c 24 04          	mov    %ecx,0x4(%esp)
    2f8b:	89 04 24             	mov    %eax,(%esp)
    2f8e:	e8 dd 41 01 00       	call   17170 <async_data_read_finalize>
    2f93:	c7 44 24 04 00 00 00 	movl   $0x0,0x4(%esp)
    2f9a:	00 
    2f9b:	89 34 24             	mov    %esi,(%esp)
    2f9e:	e8 fd 2b 01 00       	call   15ba0 <async_answer_0>
    2fa3:	e9 30 f2 ff ff       	jmp    21d8 <vfs_connection+0x18>
    2fa8:	8b 85 84 fe ff ff    	mov    -0x17c(%ebp),%eax
    2fae:	8b 8d 74 fe ff ff    	mov    -0x18c(%ebp),%ecx
    2fb4:	89 44 24 04          	mov    %eax,0x4(%esp)
    2fb8:	8d 85 80 fe ff ff    	lea    -0x180(%ebp),%eax
    2fbe:	89 04 24             	mov    %eax,(%esp)
    2fc1:	8b b5 54 fe ff ff    	mov    -0x1ac(%ebp),%esi
    2fc7:	ff 51 24             	call   *0x24(%ecx)
    2fca:	89 c2                	mov    %eax,%edx
    2fcc:	85 c0                	test   %eax,%eax
    2fce:	0f 85 de fb ff ff    	jne    2bb2 <vfs_connection+0x9f2>
    2fd4:	80 bd 80 fe ff ff 00 	cmpb   $0x0,-0x180(%ebp)
    2fdb:	0f 85 78 f4 ff ff    	jne    2459 <vfs_connection+0x299>
    2fe1:	f6 85 60 fe ff ff 60 	testb  $0x60,-0x1a0(%ebp)
    2fe8:	74 7d                	je     3067 <vfs_connection+0xea7>
    2fea:	8b 85 84 fe ff ff    	mov    -0x17c(%ebp),%eax
    2ff0:	8b 8d 74 fe ff ff    	mov    -0x18c(%ebp),%ecx
    2ff6:	89 04 24             	mov    %eax,(%esp)
    2ff9:	ff 51 34             	call   *0x34(%ecx)
    2ffc:	84 c0                	test   %al,%al
    2ffe:	0f 84 e3 02 00 00    	je     32e7 <vfs_connection+0x1127>
    3004:	8d 83 ff 00 00 00    	lea    0xff(%ebx),%eax
    300a:	8d bd e4 fe ff ff    	lea    -0x11c(%ebp),%edi
    3010:	89 85 68 fe ff ff    	mov    %eax,-0x198(%ebp)
    3016:	89 f8                	mov    %edi,%eax
    3018:	8b 0d 78 2b 02 00    	mov    0x22b78,%ecx
    301e:	29 d8                	sub    %ebx,%eax
    3020:	31 d2                	xor    %edx,%edx
    3022:	89 85 58 fe ff ff    	mov    %eax,-0x1a8(%ebp)
    3028:	89 8d 54 fe ff ff    	mov    %ecx,-0x1ac(%ebp)
    302e:	eb 23                	jmp    3053 <vfs_connection+0xe93>
    3030:	3b 9d 68 fe ff ff    	cmp    -0x198(%ebp),%ebx
    3036:	0f 84 29 03 00 00    	je     3365 <vfs_connection+0x11a5>
    303c:	8b 8d 58 fe ff ff    	mov    -0x1a8(%ebp),%ecx
    3042:	42                   	inc    %edx
    3043:	88 04 19             	mov    %al,(%ecx,%ebx,1)
    3046:	43                   	inc    %ebx
    3047:	39 9d 70 fe ff ff    	cmp    %ebx,-0x190(%ebp)
    304d:	0f 82 05 03 00 00    	jb     3358 <vfs_connection+0x1198>
    3053:	89 d8                	mov    %ebx,%eax
    3055:	8b 8d 54 fe ff ff    	mov    -0x1ac(%ebp),%ecx
    305b:	25 ff ff 01 00       	and    $0x1ffff,%eax
    3060:	8a 04 01             	mov    (%ecx,%eax,1),%al
    3063:	3c 2f                	cmp    $0x2f,%al
    3065:	75 c9                	jne    3030 <vfs_connection+0xe70>
    3067:	c7 44 24 04 ff ff ff 	movl   $0xffffffff,0x4(%esp)
    306e:	ff 
    306f:	89 34 24             	mov    %esi,(%esp)
    3072:	e8 29 2b 01 00       	call   15ba0 <async_answer_0>
    3077:	e9 42 fb ff ff       	jmp    2bbe <vfs_connection+0x9fe>
    307c:	8b b5 54 fe ff ff    	mov    -0x1ac(%ebp),%esi
    3082:	39 9d 70 fe ff ff    	cmp    %ebx,-0x190(%ebp)
    3088:	73 dd                	jae    3067 <vfs_connection+0xea7>
    308a:	f6 85 60 fe ff ff 60 	testb  $0x60,-0x1a0(%ebp)
    3091:	74 d4                	je     3067 <vfs_connection+0xea7>
    3093:	8b 85 84 fe ff ff    	mov    -0x17c(%ebp),%eax
    3099:	8b 8d 74 fe ff ff    	mov    -0x18c(%ebp),%ecx
    309f:	89 04 24             	mov    %eax,(%esp)
    30a2:	ff 51 34             	call   *0x34(%ecx)
    30a5:	84 c0                	test   %al,%al
    30a7:	0f 84 3a 02 00 00    	je     32e7 <vfs_connection+0x1127>
    30ad:	8b 9d 60 fe ff ff    	mov    -0x1a0(%ebp),%ebx
    30b3:	83 e3 20             	and    $0x20,%ebx
    30b6:	0f 84 6f 02 00 00    	je     332b <vfs_connection+0x116b>
    30bc:	8b 8d 64 fe ff ff    	mov    -0x19c(%ebp),%ecx
    30c2:	8b 95 60 fe ff ff    	mov    -0x1a0(%ebp),%edx
    30c8:	89 4c 24 04          	mov    %ecx,0x4(%esp)
    30cc:	8d 85 8c fe ff ff    	lea    -0x174(%ebp),%eax
    30d2:	8b 8d 74 fe ff ff    	mov    -0x18c(%ebp),%ecx
    30d8:	89 54 24 08          	mov    %edx,0x8(%esp)
    30dc:	89 04 24             	mov    %eax,(%esp)
    30df:	ff 51 14             	call   *0x14(%ecx)
    30e2:	89 c2                	mov    %eax,%edx
    30e4:	85 d2                	test   %edx,%edx
    30e6:	0f 85 c6 fa ff ff    	jne    2bb2 <vfs_connection+0x9f2>
    30ec:	8b 85 8c fe ff ff    	mov    -0x174(%ebp),%eax
    30f2:	85 c0                	test   %eax,%eax
    30f4:	0f 84 9c 02 00 00    	je     3396 <vfs_connection+0x11d6>
    30fa:	89 44 24 04          	mov    %eax,0x4(%esp)
    30fe:	8b 8d 74 fe ff ff    	mov    -0x18c(%ebp),%ecx
    3104:	8b 85 84 fe ff ff    	mov    -0x17c(%ebp),%eax
    310a:	89 7c 24 08          	mov    %edi,0x8(%esp)
    310e:	89 04 24             	mov    %eax,(%esp)
    3111:	ff 51 1c             	call   *0x1c(%ecx)
    3114:	89 c2                	mov    %eax,%edx
    3116:	85 c0                	test   %eax,%eax
    3118:	0f 84 93 fc ff ff    	je     2db1 <vfs_connection+0xbf1>
    311e:	8b 85 8c fe ff ff    	mov    -0x174(%ebp),%eax
    3124:	89 95 4c fe ff ff    	mov    %edx,-0x1b4(%ebp)
    312a:	89 04 24             	mov    %eax,(%esp)
    312d:	8b 8d 74 fe ff ff    	mov    -0x18c(%ebp),%ecx
    3133:	85 db                	test   %ebx,%ebx
    3135:	0f 84 70 02 00 00    	je     33ab <vfs_connection+0x11eb>
    313b:	ff 51 18             	call   *0x18(%ecx)
    313e:	8b 95 4c fe ff ff    	mov    -0x1b4(%ebp),%edx
    3144:	e9 69 fa ff ff       	jmp    2bb2 <vfs_connection+0x9f2>
    3149:	8d b4 26 00 00 00 00 	lea    0x0(%esi,%eiz,1),%esi
    3150:	c7 44 24 04 fc fe ff 	movl   $0xfffffefc,0x4(%esp)
    3157:	ff 
    3158:	89 34 24             	mov    %esi,(%esp)
    315b:	e8 40 2a 01 00       	call   15ba0 <async_answer_0>
    3160:	e9 59 fa ff ff       	jmp    2bbe <vfs_connection+0x9fe>
    3165:	8b 85 84 fe ff ff    	mov    -0x17c(%ebp),%eax
    316b:	8b 8d 74 fe ff ff    	mov    -0x18c(%ebp),%ecx
    3171:	89 04 24             	mov    %eax,(%esp)
    3174:	8d bd e4 fe ff ff    	lea    -0x11c(%ebp),%edi
    317a:	ff 51 30             	call   *0x30(%ecx)
    317d:	8b 8d 6c fe ff ff    	mov    -0x194(%ebp),%ecx
    3183:	89 0c 24             	mov    %ecx,(%esp)
    3186:	89 c3                	mov    %eax,%ebx
    3188:	8b 8d 74 fe ff ff    	mov    -0x18c(%ebp),%ecx
    318e:	8b 85 84 fe ff ff    	mov    -0x17c(%ebp),%eax
    3194:	89 7c 24 08          	mov    %edi,0x8(%esp)
    3198:	89 44 24 04          	mov    %eax,0x4(%esp)
    319c:	ff 51 20             	call   *0x20(%ecx)
    319f:	85 c0                	test   %eax,%eax
    31a1:	0f 85 c6 fc ff ff    	jne    2e6d <vfs_connection+0xcad>
    31a7:	8b 85 84 fe ff ff    	mov    -0x17c(%ebp),%eax
    31ad:	8b 8d 74 fe ff ff    	mov    -0x18c(%ebp),%ecx
    31b3:	89 04 24             	mov    %eax,(%esp)
    31b6:	ff 51 2c             	call   *0x2c(%ecx)
    31b9:	89 c1                	mov    %eax,%ecx
    31bb:	89 d7                	mov    %edx,%edi
    31bd:	8b 85 84 fe ff ff    	mov    -0x17c(%ebp),%eax
    31c3:	8b 95 74 fe ff ff    	mov    -0x18c(%ebp),%edx
    31c9:	89 8d 48 fe ff ff    	mov    %ecx,-0x1b8(%ebp)
    31cf:	89 04 24             	mov    %eax,(%esp)
    31d2:	ff 52 28             	call   *0x28(%edx)
    31d5:	8b 8d 48 fe ff ff    	mov    -0x1b8(%ebp),%ecx
    31db:	89 5c 24 18          	mov    %ebx,0x18(%esp)
    31df:	89 7c 24 14          	mov    %edi,0x14(%esp)
    31e3:	89 4c 24 10          	mov    %ecx,0x10(%esp)
    31e7:	e9 41 fc ff ff       	jmp    2e2d <vfs_connection+0xc6d>
    31ec:	89 f7                	mov    %esi,%edi
    31ee:	39 9d 70 fe ff ff    	cmp    %ebx,-0x190(%ebp)
    31f4:	8b b5 54 fe ff ff    	mov    -0x1ac(%ebp),%esi
    31fa:	73 0c                	jae    3208 <vfs_connection+0x1048>
    31fc:	8b bd 68 fe ff ff    	mov    -0x198(%ebp),%edi
    3202:	89 bd 70 fe ff ff    	mov    %edi,-0x190(%ebp)
    3208:	8b 40 04             	mov    0x4(%eax),%eax
    320b:	89 04 24             	mov    %eax,(%esp)
    320e:	e8 8d 33 01 00       	call   165a0 <async_exchange_begin>
    3213:	8b 8d 60 fe ff ff    	mov    -0x1a0(%ebp),%ecx
    3219:	89 c3                	mov    %eax,%ebx
    321b:	8b 95 5c fe ff ff    	mov    -0x1a4(%ebp),%edx
    3221:	8b 85 88 fe ff ff    	mov    -0x178(%ebp),%eax
    3227:	89 4c 24 18          	mov    %ecx,0x18(%esp)
    322b:	89 54 24 1c          	mov    %edx,0x1c(%esp)
    322f:	c7 44 24 20 01 00 00 	movl   $0x1,0x20(%esp)
    3236:	00 
    3237:	8b 40 0c             	mov    0xc(%eax),%eax
    323a:	8b 95 70 fe ff ff    	mov    -0x190(%ebp),%edx
    3240:	89 54 24 10          	mov    %edx,0x10(%esp)
    3244:	89 5c 24 04          	mov    %ebx,0x4(%esp)
    3248:	89 44 24 14          	mov    %eax,0x14(%esp)
    324c:	89 7c 24 0c          	mov    %edi,0xc(%esp)
    3250:	c7 44 24 08 0b 04 00 	movl   $0x40b,0x8(%esp)
    3257:	00 
    3258:	89 34 24             	mov    %esi,(%esp)
    325b:	e8 90 2a 01 00       	call   15cf0 <async_forward_slow>
    3260:	89 1c 24             	mov    %ebx,(%esp)
    3263:	e8 a8 36 01 00       	call   16910 <async_exchange_end>
    3268:	8b 85 84 fe ff ff    	mov    -0x17c(%ebp),%eax
    326e:	8b 8d 74 fe ff ff    	mov    -0x18c(%ebp),%ecx
    3274:	89 04 24             	mov    %eax,(%esp)
    3277:	ff 51 10             	call   *0x10(%ecx)
    327a:	8b 85 88 fe ff ff    	mov    -0x178(%ebp),%eax
    3280:	8b 8d 74 fe ff ff    	mov    -0x18c(%ebp),%ecx
    3286:	89 04 24             	mov    %eax,(%esp)
    3289:	ff 51 10             	call   *0x10(%ecx)
    328c:	8b 9d 6c fe ff ff    	mov    -0x194(%ebp),%ebx
    3292:	85 db                	test   %ebx,%ebx
    3294:	0f 84 3e ef ff ff    	je     21d8 <vfs_connection+0x18>
    329a:	8b 8d 6c fe ff ff    	mov    -0x194(%ebp),%ecx
    32a0:	89 0c 24             	mov    %ecx,(%esp)
    32a3:	8b 8d 74 fe ff ff    	mov    -0x18c(%ebp),%ecx
    32a9:	ff 51 10             	call   *0x10(%ecx)
    32ac:	e9 27 ef ff ff       	jmp    21d8 <vfs_connection+0x18>
    32b1:	89 f7                	mov    %esi,%edi
    32b3:	8b b5 54 fe ff ff    	mov    -0x1ac(%ebp),%esi
    32b9:	e9 4a ff ff ff       	jmp    3208 <vfs_connection+0x1048>
    32be:	c7 85 6c fe ff ff 00 	movl   $0x0,-0x194(%ebp)
    32c5:	00 00 00 
    32c8:	e9 8c f1 ff ff       	jmp    2459 <vfs_connection+0x299>
    32cd:	8b 85 84 fe ff ff    	mov    -0x17c(%ebp),%eax
    32d3:	8b 8d 74 fe ff ff    	mov    -0x18c(%ebp),%ecx
    32d9:	89 04 24             	mov    %eax,(%esp)
    32dc:	ff 51 38             	call   *0x38(%ecx)
    32df:	84 c0                	test   %al,%al
    32e1:	0f 84 b8 f1 ff ff    	je     249f <vfs_connection+0x2df>
    32e7:	c7 44 24 04 fe fe ff 	movl   $0xfffffefe,0x4(%esp)
    32ee:	ff 
    32ef:	89 34 24             	mov    %esi,(%esp)
    32f2:	e8 a9 28 01 00       	call   15ba0 <async_answer_0>
    32f7:	e9 c2 f8 ff ff       	jmp    2bbe <vfs_connection+0x9fe>
    32fc:	8b 85 84 fe ff ff    	mov    -0x17c(%ebp),%eax
    3302:	8b 8d 74 fe ff ff    	mov    -0x18c(%ebp),%ecx
    3308:	89 04 24             	mov    %eax,(%esp)
    330b:	ff 51 34             	call   *0x34(%ecx)
    330e:	84 c0                	test   %al,%al
    3310:	0f 84 7c f1 ff ff    	je     2492 <vfs_connection+0x2d2>
    3316:	c7 44 24 04 ff fe ff 	movl   $0xfffffeff,0x4(%esp)
    331d:	ff 
    331e:	89 34 24             	mov    %esi,(%esp)
    3321:	e8 7a 28 01 00       	call   15ba0 <async_answer_0>
    3326:	e9 93 f8 ff ff       	jmp    2bbe <vfs_connection+0x9fe>
    332b:	8b 8d 64 fe ff ff    	mov    -0x19c(%ebp),%ecx
    3331:	8b 95 5c fe ff ff    	mov    -0x1a4(%ebp),%edx
    3337:	89 4c 24 04          	mov    %ecx,0x4(%esp)
    333b:	8d 85 8c fe ff ff    	lea    -0x174(%ebp),%eax
    3341:	8b 8d 74 fe ff ff    	mov    -0x18c(%ebp),%ecx
    3347:	89 54 24 08          	mov    %edx,0x8(%esp)
    334b:	89 04 24             	mov    %eax,(%esp)
    334e:	ff 51 08             	call   *0x8(%ecx)
    3351:	89 c2                	mov    %eax,%edx
    3353:	e9 8c fd ff ff       	jmp    30e4 <vfs_connection+0xf24>
    3358:	c6 84 15 e4 fe ff ff 	movb   $0x0,-0x11c(%ebp,%edx,1)
    335f:	00 
    3360:	e9 48 fd ff ff       	jmp    30ad <vfs_connection+0xeed>
    3365:	c7 44 24 04 00 ff ff 	movl   $0xffffff00,0x4(%esp)
    336c:	ff 
    336d:	89 34 24             	mov    %esi,(%esp)
    3370:	e8 2b 28 01 00       	call   15ba0 <async_answer_0>
    3375:	e9 44 f8 ff ff       	jmp    2bbe <vfs_connection+0x9fe>
    337a:	c7 44 24 08 30 02 00 	movl   $0x230,0x8(%esp)
    3381:	00 
    3382:	c7 44 24 04 05 ff 01 	movl   $0x1ff05,0x4(%esp)
    3389:	00 
    338a:	c7 04 24 9d 02 02 00 	movl   $0x2029d,(%esp)
    3391:	e8 aa a4 01 00       	call   1d840 <assert_abort>
    3396:	c7 44 24 04 fd fe ff 	movl   $0xfffffefd,0x4(%esp)
    339d:	ff 
    339e:	89 34 24             	mov    %esi,(%esp)
    33a1:	e8 fa 27 01 00       	call   15ba0 <async_answer_0>
    33a6:	e9 13 f8 ff ff       	jmp    2bbe <vfs_connection+0x9fe>
    33ab:	ff 51 10             	call   *0x10(%ecx)
    33ae:	8b 95 4c fe ff ff    	mov    -0x1b4(%ebp),%edx
    33b4:	e9 f9 f7 ff ff       	jmp    2bb2 <vfs_connection+0x9f2>
    33b9:	8d b4 26 00 00 00 00 	lea    0x0(%esi,%eiz,1),%esi

000033c0 <fs_register>:
    33c0:	55                   	push   %ebp
    33c1:	89 e5                	mov    %esp,%ebp
    33c3:	57                   	push   %edi
    33c4:	53                   	push   %ebx
    33c5:	83 ec 60             	sub    $0x60,%esp
    33c8:	8b 45 08             	mov    0x8(%ebp),%eax
    33cb:	89 04 24             	mov    %eax,(%esp)
    33ce:	e8 cd 31 01 00       	call   165a0 <async_exchange_begin>
    33d3:	c7 44 24 14 00 00 00 	movl   $0x0,0x14(%esp)
    33da:	00 
    33db:	89 c3                	mov    %eax,%ebx
    33dd:	8d 45 d4             	lea    -0x2c(%ebp),%eax
    33e0:	89 44 24 18          	mov    %eax,0x18(%esp)
    33e4:	c7 44 24 10 00 00 00 	movl   $0x0,0x10(%esp)
    33eb:	00 
    33ec:	c7 44 24 0c 00 00 00 	movl   $0x0,0xc(%esp)
    33f3:	00 
    33f4:	c7 44 24 08 00 00 00 	movl   $0x0,0x8(%esp)
    33fb:	00 
    33fc:	c7 44 24 04 0b 04 00 	movl   $0x40b,0x4(%esp)
    3403:	00 
    3404:	89 1c 24             	mov    %ebx,(%esp)
    3407:	e8 34 1b 01 00       	call   14f40 <async_send_fast>
    340c:	c7 44 24 08 20 00 00 	movl   $0x20,0x8(%esp)
    3413:	00 
    3414:	89 c7                	mov    %eax,%edi
    3416:	8b 45 0c             	mov    0xc(%ebp),%eax
    3419:	89 44 24 04          	mov    %eax,0x4(%esp)
    341d:	89 1c 24             	mov    %ebx,(%esp)
    3420:	e8 6b 40 01 00       	call   17490 <async_data_write_start>
    3425:	85 c0                	test   %eax,%eax
    3427:	0f 85 cb 00 00 00    	jne    34f8 <fs_register+0x138>
    342d:	8b 45 10             	mov    0x10(%ebp),%eax
    3430:	c7 44 24 14 00 00 00 	movl   $0x0,0x14(%esp)
    3437:	00 
    3438:	a3 6c 2b 02 00       	mov    %eax,0x22b6c
    343d:	c7 44 24 10 c0 21 00 	movl   $0x21c0,0x10(%esp)
    3444:	00 
    3445:	8b 45 14             	mov    0x14(%ebp),%eax
    3448:	c7 44 24 0c 00 00 00 	movl   $0x0,0xc(%esp)
    344f:	00 
    3450:	c7 44 24 08 00 00 00 	movl   $0x0,0x8(%esp)
    3457:	00 
    3458:	c7 44 24 04 00 00 00 	movl   $0x0,0x4(%esp)
    345f:	00 
    3460:	89 1c 24             	mov    %ebx,(%esp)
    3463:	a3 70 2b 02 00       	mov    %eax,0x22b70
    3468:	e8 d3 28 01 00       	call   15d40 <async_connect_to_me>
    346d:	c7 44 24 10 78 2b 02 	movl   $0x22b78,0x10(%esp)
    3474:	00 
    3475:	c7 44 24 0c 00 00 00 	movl   $0x0,0xc(%esp)
    347c:	00 
    347d:	c7 44 24 08 00 00 00 	movl   $0x0,0x8(%esp)
    3484:	00 
    3485:	c7 44 24 04 00 00 02 	movl   $0x20000,0x4(%esp)
    348c:	00 
    348d:	89 1c 24             	mov    %ebx,(%esp)
    3490:	e8 0b 35 01 00       	call   169a0 <async_share_in_start>
    3495:	89 1c 24             	mov    %ebx,(%esp)
    3498:	83 3d 78 2b 02 00 ff 	cmpl   $0xffffffff,0x22b78
    349f:	74 74                	je     3515 <fs_register+0x155>
    34a1:	89 45 c4             	mov    %eax,-0x3c(%ebp)
    34a4:	e8 67 34 01 00       	call   16910 <async_exchange_end>
    34a9:	8b 45 c4             	mov    -0x3c(%ebp),%eax
    34ac:	85 c0                	test   %eax,%eax
    34ae:	75 30                	jne    34e0 <fs_register+0x120>
    34b0:	c7 44 24 04 00 00 00 	movl   $0x0,0x4(%esp)
    34b7:	00 
    34b8:	89 3c 24             	mov    %edi,(%esp)
    34bb:	e8 50 1c 01 00       	call   15110 <async_wait_for>
    34c0:	8b 45 d8             	mov    -0x28(%ebp),%eax
    34c3:	c7 04 24 c0 21 00 00 	movl   $0x21c0,(%esp)
    34ca:	a3 74 2b 02 00       	mov    %eax,0x22b74
    34cf:	e8 7c 0e 01 00       	call   14350 <async_set_client_connection>
    34d4:	8b 45 d4             	mov    -0x2c(%ebp),%eax
    34d7:	83 c4 60             	add    $0x60,%esp
    34da:	5b                   	pop    %ebx
    34db:	5f                   	pop    %edi
    34dc:	5d                   	pop    %ebp
    34dd:	c3                   	ret    
    34de:	66 90                	xchg   %ax,%ax
    34e0:	89 3c 24             	mov    %edi,(%esp)
    34e3:	e8 78 1e 01 00       	call   15360 <async_forget>
    34e8:	8b 45 c4             	mov    -0x3c(%ebp),%eax
    34eb:	83 c4 60             	add    $0x60,%esp
    34ee:	5b                   	pop    %ebx
    34ef:	5f                   	pop    %edi
    34f0:	5d                   	pop    %ebp
    34f1:	c3                   	ret    
    34f2:	8d b6 00 00 00 00    	lea    0x0(%esi),%esi
    34f8:	89 1c 24             	mov    %ebx,(%esp)
    34fb:	89 45 c4             	mov    %eax,-0x3c(%ebp)
    34fe:	e8 0d 34 01 00       	call   16910 <async_exchange_end>
    3503:	89 3c 24             	mov    %edi,(%esp)
    3506:	e8 55 1e 01 00       	call   15360 <async_forget>
    350b:	8b 45 c4             	mov    -0x3c(%ebp),%eax
    350e:	83 c4 60             	add    $0x60,%esp
    3511:	5b                   	pop    %ebx
    3512:	5f                   	pop    %edi
    3513:	5d                   	pop    %ebp
    3514:	c3                   	ret    
    3515:	e8 f6 33 01 00       	call   16910 <async_exchange_end>
    351a:	89 3c 24             	mov    %edi,(%esp)
    351d:	e8 3e 1e 01 00       	call   15360 <async_forget>
    3522:	b8 fe ff ff ff       	mov    $0xfffffffe,%eax
    3527:	eb ae                	jmp    34d7 <fs_register+0x117>
    3529:	8d b4 26 00 00 00 00 	lea    0x0(%esi,%eiz,1),%esi

00003530 <fs_node_initialize>:
    3530:	55                   	push   %ebp
    3531:	89 e5                	mov    %esp,%ebp
    3533:	83 ec 18             	sub    $0x18,%esp
    3536:	8b 45 08             	mov    0x8(%ebp),%eax
    3539:	c7 44 24 08 14 00 00 	movl   $0x14,0x8(%esp)
    3540:	00 
    3541:	c7 44 24 04 00 00 00 	movl   $0x0,0x4(%esp)
    3548:	00 
    3549:	89 04 24             	mov    %eax,(%esp)
    354c:	e8 4f 2d 00 00       	call   62a0 <memset>
    3551:	c9                   	leave  
    3552:	c3                   	ret    
    3553:	8d b6 00 00 00 00    	lea    0x0(%esi),%esi
    3559:	8d bc 27 00 00 00 00 	lea    0x0(%edi,%eiz,1),%edi

00003560 <fs_instance_create>:
    3560:	55                   	push   %ebp
    3561:	89 e5                	mov    %esp,%ebp
    3563:	57                   	push   %edi
    3564:	56                   	push   %esi
    3565:	53                   	push   %ebx
    3566:	83 ec 1c             	sub    $0x1c,%esp
    3569:	8b 5d 08             	mov    0x8(%ebp),%ebx
    356c:	c7 04 24 10 00 00 00 	movl   $0x10,(%esp)
    3573:	e8 e8 fa 00 00       	call   13060 <malloc>
    3578:	89 c7                	mov    %eax,%edi
    357a:	85 c0                	test   %eax,%eax
    357c:	0f 84 ec 00 00 00    	je     366e <fs_instance_create+0x10e>
    3582:	c7 40 04 00 00 00 00 	movl   $0x0,0x4(%eax)
    3589:	c7 40 08 00 00 00 00 	movl   $0x0,0x8(%eax)
    3590:	89 18                	mov    %ebx,(%eax)
    3592:	8b 45 0c             	mov    0xc(%ebp),%eax
    3595:	c7 04 24 24 29 02 00 	movl   $0x22924,(%esp)
    359c:	89 47 0c             	mov    %eax,0xc(%edi)
    359f:	e8 ac 6e 00 00       	call   a450 <fibril_mutex_lock>
    35a4:	8b 15 38 29 02 00    	mov    0x22938,%edx
    35aa:	81 fa 34 29 02 00    	cmp    $0x22934,%edx
    35b0:	74 2f                	je     35e1 <fs_instance_create+0x81>
    35b2:	8b 42 fc             	mov    -0x4(%edx),%eax
    35b5:	8d 72 fc             	lea    -0x4(%edx),%esi
    35b8:	39 d8                	cmp    %ebx,%eax
    35ba:	74 5c                	je     3618 <fs_instance_create+0xb8>
    35bc:	39 c3                	cmp    %eax,%ebx
    35be:	76 16                	jbe    35d6 <fs_instance_create+0x76>
    35c0:	eb 7e                	jmp    3640 <fs_instance_create+0xe0>
    35c2:	8d b6 00 00 00 00    	lea    0x0(%esi),%esi
    35c8:	8b 4a fc             	mov    -0x4(%edx),%ecx
    35cb:	8d 72 fc             	lea    -0x4(%edx),%esi
    35ce:	39 d9                	cmp    %ebx,%ecx
    35d0:	74 46                	je     3618 <fs_instance_create+0xb8>
    35d2:	39 cb                	cmp    %ecx,%ebx
    35d4:	77 6a                	ja     3640 <fs_instance_create+0xe0>
    35d6:	8b 52 04             	mov    0x4(%edx),%edx
    35d9:	81 fa 34 29 02 00    	cmp    $0x22934,%edx
    35df:	75 e7                	jne    35c8 <fs_instance_create+0x68>
    35e1:	8b 15 34 29 02 00    	mov    0x22934,%edx
    35e7:	8d 47 04             	lea    0x4(%edi),%eax
    35ea:	c7 47 08 34 29 02 00 	movl   $0x22934,0x8(%edi)
    35f1:	a3 34 29 02 00       	mov    %eax,0x22934
    35f6:	89 42 04             	mov    %eax,0x4(%edx)
    35f9:	c7 04 24 24 29 02 00 	movl   $0x22924,(%esp)
    3600:	89 57 04             	mov    %edx,0x4(%edi)
    3603:	e8 68 6f 00 00       	call   a570 <fibril_mutex_unlock>
    3608:	31 c0                	xor    %eax,%eax
    360a:	83 c4 1c             	add    $0x1c,%esp
    360d:	5b                   	pop    %ebx
    360e:	5e                   	pop    %esi
    360f:	5f                   	pop    %edi
    3610:	5d                   	pop    %ebp
    3611:	c3                   	ret    
    3612:	8d b6 00 00 00 00    	lea    0x0(%esi),%esi
    3618:	c7 04 24 24 29 02 00 	movl   $0x22924,(%esp)
    361f:	e8 4c 6f 00 00       	call   a570 <fibril_mutex_unlock>
    3624:	89 3c 24             	mov    %edi,(%esp)
    3627:	e8 44 fb 00 00       	call   13170 <free>
    362c:	83 c4 1c             	add    $0x1c,%esp
    362f:	b8 fc fe ff ff       	mov    $0xfffffefc,%eax
    3634:	5b                   	pop    %ebx
    3635:	5e                   	pop    %esi
    3636:	5f                   	pop    %edi
    3637:	5d                   	pop    %ebp
    3638:	c3                   	ret    
    3639:	8d b4 26 00 00 00 00 	lea    0x0(%esi,%eiz,1),%esi
    3640:	8d 56 04             	lea    0x4(%esi),%edx
    3643:	8d 47 04             	lea    0x4(%edi),%eax
    3646:	89 57 08             	mov    %edx,0x8(%edi)
    3649:	8b 56 04             	mov    0x4(%esi),%edx
    364c:	89 57 04             	mov    %edx,0x4(%edi)
    364f:	8b 56 04             	mov    0x4(%esi),%edx
    3652:	89 46 04             	mov    %eax,0x4(%esi)
    3655:	89 42 04             	mov    %eax,0x4(%edx)
    3658:	c7 04 24 24 29 02 00 	movl   $0x22924,(%esp)
    365f:	e8 0c 6f 00 00       	call   a570 <fibril_mutex_unlock>
    3664:	83 c4 1c             	add    $0x1c,%esp
    3667:	31 c0                	xor    %eax,%eax
    3669:	5b                   	pop    %ebx
    366a:	5e                   	pop    %esi
    366b:	5f                   	pop    %edi
    366c:	5d                   	pop    %ebp
    366d:	c3                   	ret    
    366e:	b8 fe ff ff ff       	mov    $0xfffffffe,%eax
    3673:	eb 95                	jmp    360a <fs_instance_create+0xaa>
    3675:	8d 74 26 00          	lea    0x0(%esi,%eiz,1),%esi
    3679:	8d bc 27 00 00 00 00 	lea    0x0(%edi,%eiz,1),%edi

00003680 <fs_instance_get>:
    3680:	55                   	push   %ebp
    3681:	89 e5                	mov    %esp,%ebp
    3683:	53                   	push   %ebx
    3684:	83 ec 14             	sub    $0x14,%esp
    3687:	8b 5d 08             	mov    0x8(%ebp),%ebx
    368a:	c7 04 24 24 29 02 00 	movl   $0x22924,(%esp)
    3691:	e8 ba 6d 00 00       	call   a450 <fibril_mutex_lock>
    3696:	a1 38 29 02 00       	mov    0x22938,%eax
    369b:	3d 34 29 02 00       	cmp    $0x22934,%eax
    36a0:	75 10                	jne    36b2 <fs_instance_get+0x32>
    36a2:	eb 34                	jmp    36d8 <fs_instance_get+0x58>
    36a4:	8d 74 26 00          	lea    0x0(%esi,%eiz,1),%esi
    36a8:	8b 40 04             	mov    0x4(%eax),%eax
    36ab:	3d 34 29 02 00       	cmp    $0x22934,%eax
    36b0:	74 26                	je     36d8 <fs_instance_get+0x58>
    36b2:	8d 50 fc             	lea    -0x4(%eax),%edx
    36b5:	39 58 fc             	cmp    %ebx,-0x4(%eax)
    36b8:	75 ee                	jne    36a8 <fs_instance_get+0x28>
    36ba:	8b 45 0c             	mov    0xc(%ebp),%eax
    36bd:	8b 52 0c             	mov    0xc(%edx),%edx
    36c0:	89 10                	mov    %edx,(%eax)
    36c2:	c7 04 24 24 29 02 00 	movl   $0x22924,(%esp)
    36c9:	e8 a2 6e 00 00       	call   a570 <fibril_mutex_unlock>
    36ce:	83 c4 14             	add    $0x14,%esp
    36d1:	31 c0                	xor    %eax,%eax
    36d3:	5b                   	pop    %ebx
    36d4:	5d                   	pop    %ebp
    36d5:	c3                   	ret    
    36d6:	66 90                	xchg   %ax,%ax
    36d8:	c7 04 24 24 29 02 00 	movl   $0x22924,(%esp)
    36df:	e8 8c 6e 00 00       	call   a570 <fibril_mutex_unlock>
    36e4:	83 c4 14             	add    $0x14,%esp
    36e7:	83 c8 ff             	or     $0xffffffff,%eax
    36ea:	5b                   	pop    %ebx
    36eb:	5d                   	pop    %ebp
    36ec:	c3                   	ret    
    36ed:	8d 76 00             	lea    0x0(%esi),%esi

000036f0 <fs_instance_destroy>:
    36f0:	55                   	push   %ebp
    36f1:	89 e5                	mov    %esp,%ebp
    36f3:	56                   	push   %esi
    36f4:	53                   	push   %ebx
    36f5:	83 ec 10             	sub    $0x10,%esp
    36f8:	8b 75 08             	mov    0x8(%ebp),%esi
    36fb:	c7 04 24 24 29 02 00 	movl   $0x22924,(%esp)
    3702:	e8 49 6d 00 00       	call   a450 <fibril_mutex_lock>
    3707:	a1 38 29 02 00       	mov    0x22938,%eax
    370c:	3d 34 29 02 00       	cmp    $0x22934,%eax
    3711:	75 0f                	jne    3722 <fs_instance_destroy+0x32>
    3713:	eb 5b                	jmp    3770 <fs_instance_destroy+0x80>
    3715:	8d 76 00             	lea    0x0(%esi),%esi
    3718:	8b 40 04             	mov    0x4(%eax),%eax
    371b:	3d 34 29 02 00       	cmp    $0x22934,%eax
    3720:	74 4e                	je     3770 <fs_instance_destroy+0x80>
    3722:	8d 58 fc             	lea    -0x4(%eax),%ebx
    3725:	39 70 fc             	cmp    %esi,-0x4(%eax)
    3728:	75 ee                	jne    3718 <fs_instance_destroy+0x28>
    372a:	8b 53 04             	mov    0x4(%ebx),%edx
    372d:	85 d2                	test   %edx,%edx
    372f:	74 0f                	je     3740 <fs_instance_destroy+0x50>
    3731:	8b 43 08             	mov    0x8(%ebx),%eax
    3734:	85 c0                	test   %eax,%eax
    3736:	74 08                	je     3740 <fs_instance_destroy+0x50>
    3738:	89 10                	mov    %edx,(%eax)
    373a:	8b 53 04             	mov    0x4(%ebx),%edx
    373d:	89 42 04             	mov    %eax,0x4(%edx)
    3740:	c7 43 04 00 00 00 00 	movl   $0x0,0x4(%ebx)
    3747:	c7 43 08 00 00 00 00 	movl   $0x0,0x8(%ebx)
    374e:	c7 04 24 24 29 02 00 	movl   $0x22924,(%esp)
    3755:	e8 16 6e 00 00       	call   a570 <fibril_mutex_unlock>
    375a:	89 1c 24             	mov    %ebx,(%esp)
    375d:	e8 0e fa 00 00       	call   13170 <free>
    3762:	83 c4 10             	add    $0x10,%esp
    3765:	31 c0                	xor    %eax,%eax
    3767:	5b                   	pop    %ebx
    3768:	5e                   	pop    %esi
    3769:	5d                   	pop    %ebp
    376a:	c3                   	ret    
    376b:	90                   	nop
    376c:	8d 74 26 00          	lea    0x0(%esi,%eiz,1),%esi
    3770:	c7 04 24 24 29 02 00 	movl   $0x22924,(%esp)
    3777:	e8 f4 6d 00 00       	call   a570 <fibril_mutex_unlock>
    377c:	83 c4 10             	add    $0x10,%esp
    377f:	83 c8 ff             	or     $0xffffffff,%eax
    3782:	5b                   	pop    %ebx
    3783:	5e                   	pop    %esi
    3784:	5d                   	pop    %ebp
    3785:	c3                   	ret    
    3786:	66 90                	xchg   %ax,%ax
    3788:	66 90                	xchg   %ax,%ax
    378a:	66 90                	xchg   %ax,%ax
    378c:	66 90                	xchg   %ax,%ax
    378e:	66 90                	xchg   %ax,%ax

00003790 <exit>:
    3790:	55                   	push   %ebp
    3791:	89 e5                	mov    %esp,%ebp
    3793:	83 ec 28             	sub    $0x28,%esp
    3796:	80 3d 7c 2b 02 00 00 	cmpb   $0x0,0x22b7c
    379d:	75 3f                	jne    37de <exit+0x4e>
    379f:	c7 44 24 18 0a 00 00 	movl   $0xa,0x18(%esp)
    37a6:	00 
    37a7:	c7 44 24 14 00 00 00 	movl   $0x0,0x14(%esp)
    37ae:	00 
    37af:	c7 44 24 10 00 00 00 	movl   $0x0,0x10(%esp)
    37b6:	00 
    37b7:	c7 44 24 0c 00 00 00 	movl   $0x0,0xc(%esp)
    37be:	00 
    37bf:	c7 44 24 08 00 00 00 	movl   $0x0,0x8(%esp)
    37c6:	00 
    37c7:	c7 44 24 04 00 00 00 	movl   $0x0,0x4(%esp)
    37ce:	00 
    37cf:	c7 04 24 00 00 00 00 	movl   $0x0,(%esp)
    37d6:	ff 15 14 2b 02 00    	call   *0x22b14
    37dc:	eb fe                	jmp    37dc <exit+0x4c>
    37de:	e8 9d 8a 00 00       	call   c280 <__stdio_done>
    37e3:	8b 45 08             	mov    0x8(%ebp),%eax
    37e6:	89 04 24             	mov    %eax,(%esp)
    37e9:	e8 b2 85 00 00       	call   bda0 <task_retval>
    37ee:	65 a1 00 00 00 00    	mov    %gs:0x0,%eax
    37f4:	8b 40 04             	mov    0x4(%eax),%eax
    37f7:	89 04 24             	mov    %eax,(%esp)
    37fa:	e8 91 63 00 00       	call   9b90 <fibril_teardown>
    37ff:	eb 9e                	jmp    379f <exit+0xf>
    3801:	eb 0d                	jmp    3810 <abort>
    3803:	90                   	nop
    3804:	90                   	nop
    3805:	90                   	nop
    3806:	90                   	nop
    3807:	90                   	nop
    3808:	90                   	nop
    3809:	90                   	nop
    380a:	90                   	nop
    380b:	90                   	nop
    380c:	90                   	nop
    380d:	90                   	nop
    380e:	90                   	nop
    380f:	90                   	nop

00003810 <abort>:
    3810:	55                   	push   %ebp
    3811:	89 e5                	mov    %esp,%ebp
    3813:	83 ec 28             	sub    $0x28,%esp
    3816:	c7 44 24 18 0a 00 00 	movl   $0xa,0x18(%esp)
    381d:	00 
    381e:	c7 44 24 14 00 00 00 	movl   $0x0,0x14(%esp)
    3825:	00 
    3826:	c7 44 24 10 00 00 00 	movl   $0x0,0x10(%esp)
    382d:	00 
    382e:	c7 44 24 0c 00 00 00 	movl   $0x0,0xc(%esp)
    3835:	00 
    3836:	c7 44 24 08 00 00 00 	movl   $0x0,0x8(%esp)
    383d:	00 
    383e:	c7 44 24 04 00 00 00 	movl   $0x0,0x4(%esp)
    3845:	00 
    3846:	c7 04 24 01 00 00 00 	movl   $0x1,(%esp)
    384d:	ff 15 14 2b 02 00    	call   *0x22b14
    3853:	eb fe                	jmp    3853 <abort+0x43>
    3855:	8d 74 26 00          	lea    0x0(%esi,%eiz,1),%esi
    3859:	8d bc 27 00 00 00 00 	lea    0x0(%edi,%eiz,1),%edi

00003860 <__main>:
    3860:	55                   	push   %ebp
    3861:	89 e5                	mov    %esp,%ebp
    3863:	57                   	push   %edi
    3864:	56                   	push   %esi
    3865:	53                   	push   %ebx
    3866:	83 ec 2c             	sub    $0x2c,%esp
    3869:	8b 5d 08             	mov    0x8(%ebp),%ebx
    386c:	e8 ef f6 00 00       	call   12f60 <__malloc_init>
    3871:	e8 fa 15 01 00       	call   14e70 <__async_init>
    3876:	e8 95 62 00 00       	call   9b10 <fibril_setup>
    387b:	85 c0                	test   %eax,%eax
    387d:	0f 84 82 00 00 00    	je     3905 <__main+0xa5>
    3883:	c7 44 24 18 01 00 00 	movl   $0x1,0x18(%esp)
    388a:	00 
    388b:	c7 44 24 14 00 00 00 	movl   $0x0,0x14(%esp)
    3892:	00 
    3893:	c7 44 24 10 00 00 00 	movl   $0x0,0x10(%esp)
    389a:	00 
    389b:	c7 44 24 0c 00 00 00 	movl   $0x0,0xc(%esp)
    38a2:	00 
    38a3:	c7 44 24 08 00 00 00 	movl   $0x0,0x8(%esp)
    38aa:	00 
    38ab:	c7 44 24 04 00 00 00 	movl   $0x0,0x4(%esp)
    38b2:	00 
    38b3:	8b 40 30             	mov    0x30(%eax),%eax
    38b6:	89 04 24             	mov    %eax,(%esp)
    38b9:	ff 15 14 2b 02 00    	call   *0x22b14
    38bf:	89 1d 48 2b 02 00    	mov    %ebx,0x22b48
    38c5:	c6 05 7c 2b 02 00 01 	movb   $0x1,0x22b7c
    38cc:	85 db                	test   %ebx,%ebx
    38ce:	74 3a                	je     390a <__main+0xaa>
    38d0:	8b 43 10             	mov    0x10(%ebx),%eax
    38d3:	8b 73 08             	mov    0x8(%ebx),%esi
    38d6:	8b 7b 0c             	mov    0xc(%ebx),%edi
    38d9:	89 04 24             	mov    %eax,(%esp)
    38dc:	e8 0f 87 00 00       	call   bff0 <__stdio_init>
    38e1:	a1 48 2b 02 00       	mov    0x22b48,%eax
    38e6:	8b 40 04             	mov    0x4(%eax),%eax
    38e9:	89 04 24             	mov    %eax,(%esp)
    38ec:	e8 df 92 01 00       	call   1cbd0 <chdir>
    38f1:	89 7c 24 04          	mov    %edi,0x4(%esp)
    38f5:	89 34 24             	mov    %esi,(%esp)
    38f8:	e8 c3 d7 ff ff       	call   10c0 <main>
    38fd:	89 04 24             	mov    %eax,(%esp)
    3900:	e8 8b fe ff ff       	call   3790 <exit>
    3905:	e8 06 ff ff ff       	call   3810 <abort>
    390a:	c7 04 24 00 00 00 00 	movl   $0x0,(%esp)
    3911:	31 ff                	xor    %edi,%edi
    3913:	e8 d8 86 00 00       	call   bff0 <__stdio_init>
    3918:	31 f6                	xor    %esi,%esi
    391a:	eb d5                	jmp    38f1 <__main+0x91>
    391c:	66 90                	xchg   %ax,%ax
    391e:	66 90                	xchg   %ax,%ax

00003920 <__errno>:
    3920:	55                   	push   %ebp
    3921:	65 a1 00 00 00 00    	mov    %gs:0x0,%eax
    3927:	89 e5                	mov    %esp,%ebp
    3929:	05 f4 ff ff ff       	add    $0xfffffff4,%eax
    392e:	5d                   	pop    %ebp
    392f:	c3                   	ret    

00003930 <loc_cb_conn>:
    3930:	55                   	push   %ebp
    3931:	89 e5                	mov    %esp,%ebp
    3933:	56                   	push   %esi
    3934:	53                   	push   %ebx
    3935:	83 ec 50             	sub    $0x50,%esp
    3938:	8d 5d d4             	lea    -0x2c(%ebp),%ebx
    393b:	90                   	nop
    393c:	8d 74 26 00          	lea    0x0(%esi,%eiz,1),%esi
    3940:	c7 44 24 04 00 00 00 	movl   $0x0,0x4(%esp)
    3947:	00 
    3948:	89 1c 24             	mov    %ebx,(%esp)
    394b:	e8 20 0c 01 00       	call   14570 <async_get_call_timeout>
    3950:	8b 55 d4             	mov    -0x2c(%ebp),%edx
    3953:	85 d2                	test   %edx,%edx
    3955:	74 61                	je     39b8 <loc_cb_conn+0x88>
    3957:	81 fa 00 04 00 00    	cmp    $0x400,%edx
    395d:	74 19                	je     3978 <loc_cb_conn+0x48>
    395f:	c7 44 24 04 f5 ff ff 	movl   $0xfffffff5,0x4(%esp)
    3966:	ff 
    3967:	89 04 24             	mov    %eax,(%esp)
    396a:	e8 31 22 01 00       	call   15ba0 <async_answer_0>
    396f:	eb cf                	jmp    3940 <loc_cb_conn+0x10>
    3971:	8d b4 26 00 00 00 00 	lea    0x0(%esi,%eiz,1),%esi
    3978:	c7 04 24 7c 29 02 00 	movl   $0x2297c,(%esp)
    397f:	89 45 c4             	mov    %eax,-0x3c(%ebp)
    3982:	e8 c9 6a 00 00       	call   a450 <fibril_mutex_lock>
    3987:	c7 04 24 7c 29 02 00 	movl   $0x2297c,(%esp)
    398e:	8b 35 90 2b 02 00    	mov    0x22b90,%esi
    3994:	e8 d7 6b 00 00       	call   a570 <fibril_mutex_unlock>
    3999:	8b 45 c4             	mov    -0x3c(%ebp),%eax
    399c:	c7 44 24 04 00 00 00 	movl   $0x0,0x4(%esp)
    39a3:	00 
    39a4:	89 04 24             	mov    %eax,(%esp)
    39a7:	e8 f4 21 01 00       	call   15ba0 <async_answer_0>
    39ac:	85 f6                	test   %esi,%esi
    39ae:	74 90                	je     3940 <loc_cb_conn+0x10>
    39b0:	ff d6                	call   *%esi
    39b2:	eb 8c                	jmp    3940 <loc_cb_conn+0x10>
    39b4:	8d 74 26 00          	lea    0x0(%esi,%eiz,1),%esi
    39b8:	83 c4 50             	add    $0x50,%esp
    39bb:	5b                   	pop    %ebx
    39bc:	5e                   	pop    %esi
    39bd:	5d                   	pop    %ebp
    39be:	c3                   	ret    
    39bf:	90                   	nop

000039c0 <loc_exchange_begin.part.0>:
    39c0:	55                   	push   %ebp
    39c1:	89 e5                	mov    %esp,%ebp
    39c3:	83 ec 18             	sub    $0x18,%esp
    39c6:	c7 04 24 4c 29 02 00 	movl   $0x2294c,(%esp)
    39cd:	e8 7e 6a 00 00       	call   a450 <fibril_mutex_lock>
    39d2:	a1 80 2b 02 00       	mov    0x22b80,%eax
    39d7:	85 c0                	test   %eax,%eax
    39d9:	74 25                	je     3a00 <loc_exchange_begin.part.0+0x40>
    39db:	c7 04 24 4c 29 02 00 	movl   $0x2294c,(%esp)
    39e2:	e8 89 6b 00 00       	call   a570 <fibril_mutex_unlock>
    39e7:	a1 80 2b 02 00       	mov    0x22b80,%eax
    39ec:	85 c0                	test   %eax,%eax
    39ee:	74 40                	je     3a30 <loc_exchange_begin.part.0+0x70>
    39f0:	89 04 24             	mov    %eax,(%esp)
    39f3:	e8 a8 2b 01 00       	call   165a0 <async_exchange_begin>
    39f8:	c9                   	leave  
    39f9:	c3                   	ret    
    39fa:	8d b6 00 00 00 00    	lea    0x0(%esi),%esi
    3a00:	c7 44 24 0c 00 00 00 	movl   $0x0,0xc(%esp)
    3a07:	00 
    3a08:	c7 44 24 08 01 00 00 	movl   $0x1,0x8(%esp)
    3a0f:	00 
    3a10:	c7 44 24 04 6c 6f 63 	movl   $0x20636f6c,0x4(%esp)
    3a17:	20 
    3a18:	c7 04 24 02 00 00 00 	movl   $0x2,(%esp)
    3a1f:	e8 4c fe 00 00       	call   13870 <service_connect>
    3a24:	a3 80 2b 02 00       	mov    %eax,0x22b80
    3a29:	eb b0                	jmp    39db <loc_exchange_begin.part.0+0x1b>
    3a2b:	90                   	nop
    3a2c:	8d 74 26 00          	lea    0x0(%esi,%eiz,1),%esi
    3a30:	31 c0                	xor    %eax,%eax
    3a32:	c9                   	leave  
    3a33:	c3                   	ret    
    3a34:	8d b6 00 00 00 00    	lea    0x0(%esi),%esi
    3a3a:	8d bf 00 00 00 00    	lea    0x0(%edi),%edi

00003a40 <loc_get_name_internal>:
    3a40:	55                   	push   %ebp
    3a41:	89 e5                	mov    %esp,%ebp
    3a43:	57                   	push   %edi
    3a44:	56                   	push   %esi
    3a45:	53                   	push   %ebx
    3a46:	81 ec 8c 01 00 00    	sub    $0x18c,%esp
    3a4c:	c7 01 00 00 00 00    	movl   $0x0,(%ecx)
    3a52:	89 85 94 fe ff ff    	mov    %eax,-0x16c(%ebp)
    3a58:	89 d7                	mov    %edx,%edi
    3a5a:	c7 04 24 5c 29 02 00 	movl   $0x2295c,(%esp)
    3a61:	89 ce                	mov    %ecx,%esi
    3a63:	e8 e8 69 00 00       	call   a450 <fibril_mutex_lock>
    3a68:	a1 8c 2b 02 00       	mov    0x22b8c,%eax
    3a6d:	85 c0                	test   %eax,%eax
    3a6f:	75 39                	jne    3aaa <loc_get_name_internal+0x6a>
    3a71:	c7 04 24 6c 29 02 00 	movl   $0x2296c,(%esp)
    3a78:	8b 1d 88 2b 02 00    	mov    0x22b88,%ebx
    3a7e:	e8 cd 69 00 00       	call   a450 <fibril_mutex_lock>
    3a83:	a1 8c 2b 02 00       	mov    0x22b8c,%eax
    3a88:	85 c0                	test   %eax,%eax
    3a8a:	0f 84 40 01 00 00    	je     3bd0 <loc_get_name_internal+0x190>
    3a90:	c7 04 24 6c 29 02 00 	movl   $0x2296c,(%esp)
    3a97:	e8 d4 6a 00 00       	call   a570 <fibril_mutex_unlock>
    3a9c:	8b 1d 8c 2b 02 00    	mov    0x22b8c,%ebx
    3aa2:	85 db                	test   %ebx,%ebx
    3aa4:	0f 84 3e 01 00 00    	je     3be8 <loc_get_name_internal+0x1a8>
    3aaa:	c7 04 24 5c 29 02 00 	movl   $0x2295c,(%esp)
    3ab1:	e8 ba 6a 00 00       	call   a570 <fibril_mutex_unlock>
    3ab6:	c7 04 24 6c 29 02 00 	movl   $0x2296c,(%esp)
    3abd:	8b 1d 8c 2b 02 00    	mov    0x22b8c,%ebx
    3ac3:	e8 88 69 00 00       	call   a450 <fibril_mutex_lock>
    3ac8:	8b 0d 88 2b 02 00    	mov    0x22b88,%ecx
    3ace:	85 c9                	test   %ecx,%ecx
    3ad0:	0f 84 62 01 00 00    	je     3c38 <loc_get_name_internal+0x1f8>
    3ad6:	c7 04 24 6c 29 02 00 	movl   $0x2296c,(%esp)
    3add:	e8 8e 6a 00 00       	call   a570 <fibril_mutex_unlock>
    3ae2:	a1 8c 2b 02 00       	mov    0x22b8c,%eax
    3ae7:	89 04 24             	mov    %eax,(%esp)
    3aea:	e8 b1 2a 01 00       	call   165a0 <async_exchange_begin>
    3aef:	89 7c 24 08          	mov    %edi,0x8(%esp)
    3af3:	89 c3                	mov    %eax,%ebx
    3af5:	8d 85 c4 fe ff ff    	lea    -0x13c(%ebp),%eax
    3afb:	89 44 24 18          	mov    %eax,0x18(%esp)
    3aff:	8b 85 94 fe ff ff    	mov    -0x16c(%ebp),%eax
    3b05:	c7 44 24 14 00 00 00 	movl   $0x0,0x14(%esp)
    3b0c:	00 
    3b0d:	c7 44 24 10 00 00 00 	movl   $0x0,0x10(%esp)
    3b14:	00 
    3b15:	c7 44 24 0c 00 00 00 	movl   $0x0,0xc(%esp)
    3b1c:	00 
    3b1d:	89 44 24 04          	mov    %eax,0x4(%esp)
    3b21:	89 1c 24             	mov    %ebx,(%esp)
    3b24:	e8 17 14 01 00       	call   14f40 <async_send_fast>
    3b29:	c7 44 24 08 ff 00 00 	movl   $0xff,0x8(%esp)
    3b30:	00 
    3b31:	89 c7                	mov    %eax,%edi
    3b33:	8d 85 a0 fe ff ff    	lea    -0x160(%ebp),%eax
    3b39:	89 44 24 0c          	mov    %eax,0xc(%esp)
    3b3d:	8d 85 e8 fe ff ff    	lea    -0x118(%ebp),%eax
    3b43:	89 44 24 04          	mov    %eax,0x4(%esp)
    3b47:	89 1c 24             	mov    %ebx,(%esp)
    3b4a:	e8 41 33 01 00       	call   16e90 <async_data_read>
    3b4f:	8d 8d 98 fe ff ff    	lea    -0x168(%ebp),%ecx
    3b55:	89 4c 24 04          	mov    %ecx,0x4(%esp)
    3b59:	89 04 24             	mov    %eax,(%esp)
    3b5c:	e8 af 15 01 00       	call   15110 <async_wait_for>
    3b61:	89 1c 24             	mov    %ebx,(%esp)
    3b64:	e8 a7 2d 01 00       	call   16910 <async_exchange_end>
    3b69:	8b 95 98 fe ff ff    	mov    -0x168(%ebp),%edx
    3b6f:	85 d2                	test   %edx,%edx
    3b71:	0f 85 a1 00 00 00    	jne    3c18 <loc_get_name_internal+0x1d8>
    3b77:	8d 85 9c fe ff ff    	lea    -0x164(%ebp),%eax
    3b7d:	89 3c 24             	mov    %edi,(%esp)
    3b80:	89 44 24 04          	mov    %eax,0x4(%esp)
    3b84:	e8 87 15 01 00       	call   15110 <async_wait_for>
    3b89:	8b 85 9c fe ff ff    	mov    -0x164(%ebp),%eax
    3b8f:	85 c0                	test   %eax,%eax
    3b91:	75 31                	jne    3bc4 <loc_get_name_internal+0x184>
    3b93:	8b 85 a8 fe ff ff    	mov    -0x158(%ebp),%eax
    3b99:	3d ff 00 00 00       	cmp    $0xff,%eax
    3b9e:	0f 87 a7 00 00 00    	ja     3c4b <loc_get_name_internal+0x20b>
    3ba4:	c6 84 05 e8 fe ff ff 	movb   $0x0,-0x118(%ebp,%eax,1)
    3bab:	00 
    3bac:	8d 85 e8 fe ff ff    	lea    -0x118(%ebp),%eax
    3bb2:	89 04 24             	mov    %eax,(%esp)
    3bb5:	e8 16 56 00 00       	call   91d0 <str_dup>
    3bba:	83 f8 01             	cmp    $0x1,%eax
    3bbd:	89 06                	mov    %eax,(%esi)
    3bbf:	19 c0                	sbb    %eax,%eax
    3bc1:	83 e0 fe             	and    $0xfffffffe,%eax
    3bc4:	81 c4 8c 01 00 00    	add    $0x18c,%esp
    3bca:	5b                   	pop    %ebx
    3bcb:	5e                   	pop    %esi
    3bcc:	5f                   	pop    %edi
    3bcd:	5d                   	pop    %ebp
    3bce:	c3                   	ret    
    3bcf:	90                   	nop
    3bd0:	85 db                	test   %ebx,%ebx
    3bd2:	0f 84 b8 fe ff ff    	je     3a90 <loc_get_name_internal+0x50>
    3bd8:	89 1d 8c 2b 02 00    	mov    %ebx,0x22b8c
    3bde:	e9 ad fe ff ff       	jmp    3a90 <loc_get_name_internal+0x50>
    3be3:	90                   	nop
    3be4:	8d 74 26 00          	lea    0x0(%esi,%eiz,1),%esi
    3be8:	c7 44 24 0c 00 00 00 	movl   $0x0,0xc(%esp)
    3bef:	00 
    3bf0:	c7 44 24 08 02 00 00 	movl   $0x2,0x8(%esp)
    3bf7:	00 
    3bf8:	c7 44 24 04 6c 6f 63 	movl   $0x20636f6c,0x4(%esp)
    3bff:	20 
    3c00:	c7 04 24 02 00 00 00 	movl   $0x2,(%esp)
    3c07:	e8 e4 fc 00 00       	call   138f0 <service_connect_blocking>
    3c0c:	a3 8c 2b 02 00       	mov    %eax,0x22b8c
    3c11:	e9 57 fe ff ff       	jmp    3a6d <loc_get_name_internal+0x2d>
    3c16:	66 90                	xchg   %ax,%ax
    3c18:	89 3c 24             	mov    %edi,(%esp)
    3c1b:	e8 40 17 01 00       	call   15360 <async_forget>
    3c20:	8b 85 98 fe ff ff    	mov    -0x168(%ebp),%eax
    3c26:	81 c4 8c 01 00 00    	add    $0x18c,%esp
    3c2c:	5b                   	pop    %ebx
    3c2d:	5e                   	pop    %esi
    3c2e:	5f                   	pop    %edi
    3c2f:	5d                   	pop    %ebp
    3c30:	c3                   	ret    
    3c31:	8d b4 26 00 00 00 00 	lea    0x0(%esi,%eiz,1),%esi
    3c38:	85 db                	test   %ebx,%ebx
    3c3a:	0f 84 96 fe ff ff    	je     3ad6 <loc_get_name_internal+0x96>
    3c40:	89 1d 88 2b 02 00    	mov    %ebx,0x22b88
    3c46:	e9 8b fe ff ff       	jmp    3ad6 <loc_get_name_internal+0x96>
    3c4b:	c7 44 24 08 9e 01 00 	movl   $0x19e,0x8(%esp)
    3c52:	00 
    3c53:	c7 44 24 04 44 ff 01 	movl   $0x1ff44,0x4(%esp)
    3c5a:	00 
    3c5b:	c7 04 24 52 ff 01 00 	movl   $0x1ff52,(%esp)
    3c62:	e8 d9 9b 01 00       	call   1d840 <assert_abort>
    3c67:	89 f6                	mov    %esi,%esi
    3c69:	8d bc 27 00 00 00 00 	lea    0x0(%edi,%eiz,1),%edi

00003c70 <loc_get_ids_internal>:
    3c70:	55                   	push   %ebp
    3c71:	89 e5                	mov    %esp,%ebp
    3c73:	57                   	push   %edi
    3c74:	56                   	push   %esi
    3c75:	53                   	push   %ebx
    3c76:	83 ec 7c             	sub    $0x7c,%esp
    3c79:	89 55 ac             	mov    %edx,-0x54(%ebp)
    3c7c:	8b 55 08             	mov    0x8(%ebp),%edx
    3c7f:	c7 01 00 00 00 00    	movl   $0x0,(%ecx)
    3c85:	89 45 b0             	mov    %eax,-0x50(%ebp)
    3c88:	89 4d a8             	mov    %ecx,-0x58(%ebp)
    3c8b:	c7 02 00 00 00 00    	movl   $0x0,(%edx)
    3c91:	c7 04 24 5c 29 02 00 	movl   $0x2295c,(%esp)
    3c98:	e8 b3 67 00 00       	call   a450 <fibril_mutex_lock>
    3c9d:	a1 8c 2b 02 00       	mov    0x22b8c,%eax
    3ca2:	85 c0                	test   %eax,%eax
    3ca4:	75 39                	jne    3cdf <loc_get_ids_internal+0x6f>
    3ca6:	c7 04 24 6c 29 02 00 	movl   $0x2296c,(%esp)
    3cad:	8b 1d 88 2b 02 00    	mov    0x22b88,%ebx
    3cb3:	e8 98 67 00 00       	call   a450 <fibril_mutex_lock>
    3cb8:	8b 15 8c 2b 02 00    	mov    0x22b8c,%edx
    3cbe:	85 d2                	test   %edx,%edx
    3cc0:	0f 84 5a 02 00 00    	je     3f20 <loc_get_ids_internal+0x2b0>
    3cc6:	c7 04 24 6c 29 02 00 	movl   $0x2296c,(%esp)
    3ccd:	e8 9e 68 00 00       	call   a570 <fibril_mutex_unlock>
    3cd2:	a1 8c 2b 02 00       	mov    0x22b8c,%eax
    3cd7:	85 c0                	test   %eax,%eax
    3cd9:	0f 84 59 02 00 00    	je     3f38 <loc_get_ids_internal+0x2c8>
    3cdf:	c7 04 24 5c 29 02 00 	movl   $0x2295c,(%esp)
    3ce6:	e8 85 68 00 00       	call   a570 <fibril_mutex_unlock>
    3ceb:	c7 04 24 6c 29 02 00 	movl   $0x2296c,(%esp)
    3cf2:	8b 1d 8c 2b 02 00    	mov    0x22b8c,%ebx
    3cf8:	e8 53 67 00 00       	call   a450 <fibril_mutex_lock>
    3cfd:	a1 88 2b 02 00       	mov    0x22b88,%eax
    3d02:	85 c0                	test   %eax,%eax
    3d04:	0f 84 d5 02 00 00    	je     3fdf <loc_get_ids_internal+0x36f>
    3d0a:	c7 04 24 6c 29 02 00 	movl   $0x2296c,(%esp)
    3d11:	e8 5a 68 00 00       	call   a570 <fibril_mutex_unlock>
    3d16:	a1 8c 2b 02 00       	mov    0x22b8c,%eax
    3d1b:	89 04 24             	mov    %eax,(%esp)
    3d1e:	e8 7d 28 01 00       	call   165a0 <async_exchange_begin>
    3d23:	8b 55 ac             	mov    -0x54(%ebp),%edx
    3d26:	89 c6                	mov    %eax,%esi
    3d28:	8d 45 c4             	lea    -0x3c(%ebp),%eax
    3d2b:	89 44 24 18          	mov    %eax,0x18(%esp)
    3d2f:	8b 45 b0             	mov    -0x50(%ebp),%eax
    3d32:	89 54 24 08          	mov    %edx,0x8(%esp)
    3d36:	c7 44 24 14 00 00 00 	movl   $0x0,0x14(%esp)
    3d3d:	00 
    3d3e:	c7 44 24 10 00 00 00 	movl   $0x0,0x10(%esp)
    3d45:	00 
    3d46:	c7 44 24 0c 00 00 00 	movl   $0x0,0xc(%esp)
    3d4d:	00 
    3d4e:	89 44 24 04          	mov    %eax,0x4(%esp)
    3d52:	89 34 24             	mov    %esi,(%esp)
    3d55:	e8 e6 11 01 00       	call   14f40 <async_send_fast>
    3d5a:	c7 44 24 08 00 00 00 	movl   $0x0,0x8(%esp)
    3d61:	00 
    3d62:	c7 44 24 04 00 00 00 	movl   $0x0,0x4(%esp)
    3d69:	00 
    3d6a:	89 34 24             	mov    %esi,(%esp)
    3d6d:	89 c3                	mov    %eax,%ebx
    3d6f:	e8 fc 31 01 00       	call   16f70 <async_data_read_start>
    3d74:	89 34 24             	mov    %esi,(%esp)
    3d77:	89 c7                	mov    %eax,%edi
    3d79:	e8 92 2b 01 00       	call   16910 <async_exchange_end>
    3d7e:	85 ff                	test   %edi,%edi
    3d80:	0f 85 3d 02 00 00    	jne    3fc3 <loc_get_ids_internal+0x353>
    3d86:	8d 55 c0             	lea    -0x40(%ebp),%edx
    3d89:	89 1c 24             	mov    %ebx,(%esp)
    3d8c:	89 54 24 04          	mov    %edx,0x4(%esp)
    3d90:	e8 7b 13 01 00       	call   15110 <async_wait_for>
    3d95:	8b 45 c0             	mov    -0x40(%ebp),%eax
    3d98:	85 c0                	test   %eax,%eax
    3d9a:	0f 85 72 01 00 00    	jne    3f12 <loc_get_ids_internal+0x2a2>
    3da0:	8b 7d c8             	mov    -0x38(%ebp),%edi
    3da3:	89 3c 24             	mov    %edi,(%esp)
    3da6:	e8 b5 f2 00 00       	call   13060 <malloc>
    3dab:	89 c6                	mov    %eax,%esi
    3dad:	85 c0                	test   %eax,%eax
    3daf:	0f 85 0a 01 00 00    	jne    3ebf <loc_get_ids_internal+0x24f>
    3db5:	e9 1b 02 00 00       	jmp    3fd5 <loc_get_ids_internal+0x365>
    3dba:	8d b6 00 00 00 00    	lea    0x0(%esi),%esi
    3dc0:	c7 04 24 6c 29 02 00 	movl   $0x2296c,(%esp)
    3dc7:	e8 a4 67 00 00       	call   a570 <fibril_mutex_unlock>
    3dcc:	a1 8c 2b 02 00       	mov    0x22b8c,%eax
    3dd1:	85 c0                	test   %eax,%eax
    3dd3:	0f 84 8f 01 00 00    	je     3f68 <loc_get_ids_internal+0x2f8>
    3dd9:	c7 04 24 5c 29 02 00 	movl   $0x2295c,(%esp)
    3de0:	e8 8b 67 00 00       	call   a570 <fibril_mutex_unlock>
    3de5:	c7 04 24 6c 29 02 00 	movl   $0x2296c,(%esp)
    3dec:	8b 1d 8c 2b 02 00    	mov    0x22b8c,%ebx
    3df2:	e8 59 66 00 00       	call   a450 <fibril_mutex_lock>
    3df7:	a1 88 2b 02 00       	mov    0x22b88,%eax
    3dfc:	85 c0                	test   %eax,%eax
    3dfe:	0f 84 ac 01 00 00    	je     3fb0 <loc_get_ids_internal+0x340>
    3e04:	c7 04 24 6c 29 02 00 	movl   $0x2296c,(%esp)
    3e0b:	e8 60 67 00 00       	call   a570 <fibril_mutex_unlock>
    3e10:	a1 8c 2b 02 00       	mov    0x22b8c,%eax
    3e15:	89 04 24             	mov    %eax,(%esp)
    3e18:	e8 83 27 01 00       	call   165a0 <async_exchange_begin>
    3e1d:	8b 55 ac             	mov    -0x54(%ebp),%edx
    3e20:	89 c3                	mov    %eax,%ebx
    3e22:	8d 45 c4             	lea    -0x3c(%ebp),%eax
    3e25:	89 44 24 18          	mov    %eax,0x18(%esp)
    3e29:	8b 45 b0             	mov    -0x50(%ebp),%eax
    3e2c:	89 54 24 08          	mov    %edx,0x8(%esp)
    3e30:	c7 44 24 14 00 00 00 	movl   $0x0,0x14(%esp)
    3e37:	00 
    3e38:	c7 44 24 10 00 00 00 	movl   $0x0,0x10(%esp)
    3e3f:	00 
    3e40:	c7 44 24 0c 00 00 00 	movl   $0x0,0xc(%esp)
    3e47:	00 
    3e48:	89 44 24 04          	mov    %eax,0x4(%esp)
    3e4c:	89 1c 24             	mov    %ebx,(%esp)
    3e4f:	e8 ec 10 01 00       	call   14f40 <async_send_fast>
    3e54:	89 7c 24 08          	mov    %edi,0x8(%esp)
    3e58:	89 74 24 04          	mov    %esi,0x4(%esp)
    3e5c:	89 1c 24             	mov    %ebx,(%esp)
    3e5f:	89 45 b4             	mov    %eax,-0x4c(%ebp)
    3e62:	e8 09 31 01 00       	call   16f70 <async_data_read_start>
    3e67:	89 1c 24             	mov    %ebx,(%esp)
    3e6a:	89 45 a4             	mov    %eax,-0x5c(%ebp)
    3e6d:	e8 9e 2a 01 00       	call   16910 <async_exchange_end>
    3e72:	8b 45 a4             	mov    -0x5c(%ebp),%eax
    3e75:	85 c0                	test   %eax,%eax
    3e77:	0f 85 1b 01 00 00    	jne    3f98 <loc_get_ids_internal+0x328>
    3e7d:	8d 55 c0             	lea    -0x40(%ebp),%edx
    3e80:	89 45 a4             	mov    %eax,-0x5c(%ebp)
    3e83:	89 54 24 04          	mov    %edx,0x4(%esp)
    3e87:	8b 55 b4             	mov    -0x4c(%ebp),%edx
    3e8a:	89 14 24             	mov    %edx,(%esp)
    3e8d:	e8 7e 12 01 00       	call   15110 <async_wait_for>
    3e92:	8b 55 c0             	mov    -0x40(%ebp),%edx
    3e95:	85 d2                	test   %edx,%edx
    3e97:	8b 45 a4             	mov    -0x5c(%ebp),%eax
    3e9a:	75 74                	jne    3f10 <loc_get_ids_internal+0x2a0>
    3e9c:	8b 5d c8             	mov    -0x38(%ebp),%ebx
    3e9f:	39 df                	cmp    %ebx,%edi
    3ea1:	0f 83 4b 01 00 00    	jae    3ff2 <loc_get_ids_internal+0x382>
    3ea7:	89 34 24             	mov    %esi,(%esp)
    3eaa:	89 5c 24 04          	mov    %ebx,0x4(%esp)
    3eae:	e8 0d f5 00 00       	call   133c0 <realloc>
    3eb3:	89 df                	mov    %ebx,%edi
    3eb5:	89 c6                	mov    %eax,%esi
    3eb7:	85 c0                	test   %eax,%eax
    3eb9:	0f 84 16 01 00 00    	je     3fd5 <loc_get_ids_internal+0x365>
    3ebf:	c7 04 24 5c 29 02 00 	movl   $0x2295c,(%esp)
    3ec6:	e8 85 65 00 00       	call   a450 <fibril_mutex_lock>
    3ecb:	a1 8c 2b 02 00       	mov    0x22b8c,%eax
    3ed0:	85 c0                	test   %eax,%eax
    3ed2:	0f 85 01 ff ff ff    	jne    3dd9 <loc_get_ids_internal+0x169>
    3ed8:	c7 04 24 6c 29 02 00 	movl   $0x2296c,(%esp)
    3edf:	8b 1d 88 2b 02 00    	mov    0x22b88,%ebx
    3ee5:	e8 66 65 00 00       	call   a450 <fibril_mutex_lock>
    3eea:	a1 8c 2b 02 00       	mov    0x22b8c,%eax
    3eef:	85 c0                	test   %eax,%eax
    3ef1:	0f 85 c9 fe ff ff    	jne    3dc0 <loc_get_ids_internal+0x150>
    3ef7:	85 db                	test   %ebx,%ebx
    3ef9:	0f 84 c1 fe ff ff    	je     3dc0 <loc_get_ids_internal+0x150>
    3eff:	89 1d 8c 2b 02 00    	mov    %ebx,0x22b8c
    3f05:	e9 b6 fe ff ff       	jmp    3dc0 <loc_get_ids_internal+0x150>
    3f0a:	8d b6 00 00 00 00    	lea    0x0(%esi),%esi
    3f10:	89 d0                	mov    %edx,%eax
    3f12:	89 c7                	mov    %eax,%edi
    3f14:	83 c4 7c             	add    $0x7c,%esp
    3f17:	89 f8                	mov    %edi,%eax
    3f19:	5b                   	pop    %ebx
    3f1a:	5e                   	pop    %esi
    3f1b:	5f                   	pop    %edi
    3f1c:	5d                   	pop    %ebp
    3f1d:	c3                   	ret    
    3f1e:	66 90                	xchg   %ax,%ax
    3f20:	85 db                	test   %ebx,%ebx
    3f22:	0f 84 9e fd ff ff    	je     3cc6 <loc_get_ids_internal+0x56>
    3f28:	89 1d 8c 2b 02 00    	mov    %ebx,0x22b8c
    3f2e:	e9 93 fd ff ff       	jmp    3cc6 <loc_get_ids_internal+0x56>
    3f33:	90                   	nop
    3f34:	8d 74 26 00          	lea    0x0(%esi,%eiz,1),%esi
    3f38:	c7 44 24 0c 00 00 00 	movl   $0x0,0xc(%esp)
    3f3f:	00 
    3f40:	c7 44 24 08 02 00 00 	movl   $0x2,0x8(%esp)
    3f47:	00 
    3f48:	c7 44 24 04 6c 6f 63 	movl   $0x20636f6c,0x4(%esp)
    3f4f:	20 
    3f50:	c7 04 24 02 00 00 00 	movl   $0x2,(%esp)
    3f57:	e8 94 f9 00 00       	call   138f0 <service_connect_blocking>
    3f5c:	a3 8c 2b 02 00       	mov    %eax,0x22b8c
    3f61:	e9 3c fd ff ff       	jmp    3ca2 <loc_get_ids_internal+0x32>
    3f66:	66 90                	xchg   %ax,%ax
    3f68:	c7 44 24 0c 00 00 00 	movl   $0x0,0xc(%esp)
    3f6f:	00 
    3f70:	c7 44 24 08 02 00 00 	movl   $0x2,0x8(%esp)
    3f77:	00 
    3f78:	c7 44 24 04 6c 6f 63 	movl   $0x20636f6c,0x4(%esp)
    3f7f:	20 
    3f80:	c7 04 24 02 00 00 00 	movl   $0x2,(%esp)
    3f87:	e8 64 f9 00 00       	call   138f0 <service_connect_blocking>
    3f8c:	a3 8c 2b 02 00       	mov    %eax,0x22b8c
    3f91:	e9 3a ff ff ff       	jmp    3ed0 <loc_get_ids_internal+0x260>
    3f96:	66 90                	xchg   %ax,%ax
    3f98:	89 c7                	mov    %eax,%edi
    3f9a:	8b 45 b4             	mov    -0x4c(%ebp),%eax
    3f9d:	89 04 24             	mov    %eax,(%esp)
    3fa0:	e8 bb 13 01 00       	call   15360 <async_forget>
    3fa5:	83 c4 7c             	add    $0x7c,%esp
    3fa8:	89 f8                	mov    %edi,%eax
    3faa:	5b                   	pop    %ebx
    3fab:	5e                   	pop    %esi
    3fac:	5f                   	pop    %edi
    3fad:	5d                   	pop    %ebp
    3fae:	c3                   	ret    
    3faf:	90                   	nop
    3fb0:	85 db                	test   %ebx,%ebx
    3fb2:	0f 84 4c fe ff ff    	je     3e04 <loc_get_ids_internal+0x194>
    3fb8:	89 1d 88 2b 02 00    	mov    %ebx,0x22b88
    3fbe:	e9 41 fe ff ff       	jmp    3e04 <loc_get_ids_internal+0x194>
    3fc3:	89 1c 24             	mov    %ebx,(%esp)
    3fc6:	e8 95 13 01 00       	call   15360 <async_forget>
    3fcb:	83 c4 7c             	add    $0x7c,%esp
    3fce:	89 f8                	mov    %edi,%eax
    3fd0:	5b                   	pop    %ebx
    3fd1:	5e                   	pop    %esi
    3fd2:	5f                   	pop    %edi
    3fd3:	5d                   	pop    %ebp
    3fd4:	c3                   	ret    
    3fd5:	bf fe ff ff ff       	mov    $0xfffffffe,%edi
    3fda:	e9 35 ff ff ff       	jmp    3f14 <loc_get_ids_internal+0x2a4>
    3fdf:	85 db                	test   %ebx,%ebx
    3fe1:	0f 84 23 fd ff ff    	je     3d0a <loc_get_ids_internal+0x9a>
    3fe7:	89 1d 88 2b 02 00    	mov    %ebx,0x22b88
    3fed:	e9 18 fd ff ff       	jmp    3d0a <loc_get_ids_internal+0x9a>
    3ff2:	89 c7                	mov    %eax,%edi
    3ff4:	8b 55 08             	mov    0x8(%ebp),%edx
    3ff7:	c1 eb 02             	shr    $0x2,%ebx
    3ffa:	8b 45 a8             	mov    -0x58(%ebp),%eax
    3ffd:	89 1a                	mov    %ebx,(%edx)
    3fff:	89 30                	mov    %esi,(%eax)
    4001:	e9 0e ff ff ff       	jmp    3f14 <loc_get_ids_internal+0x2a4>
    4006:	8d 76 00             	lea    0x0(%esi),%esi
    4009:	8d bc 27 00 00 00 00 	lea    0x0(%edi,%eiz,1),%edi

00004010 <loc_exchange_begin_blocking>:
    4010:	55                   	push   %ebp
    4011:	89 e5                	mov    %esp,%ebp
    4013:	53                   	push   %ebx
    4014:	83 ec 14             	sub    $0x14,%esp
    4017:	8b 45 08             	mov    0x8(%ebp),%eax
    401a:	83 f8 01             	cmp    $0x1,%eax
    401d:	74 11                	je     4030 <loc_exchange_begin_blocking+0x20>
    401f:	83 f8 02             	cmp    $0x2,%eax
    4022:	0f 84 b0 00 00 00    	je     40d8 <loc_exchange_begin_blocking+0xc8>
    4028:	83 c4 14             	add    $0x14,%esp
    402b:	31 c0                	xor    %eax,%eax
    402d:	5b                   	pop    %ebx
    402e:	5d                   	pop    %ebp
    402f:	c3                   	ret    
    4030:	c7 04 24 3c 29 02 00 	movl   $0x2293c,(%esp)
    4037:	e8 14 64 00 00       	call   a450 <fibril_mutex_lock>
    403c:	a1 84 2b 02 00       	mov    0x22b84,%eax
    4041:	85 c0                	test   %eax,%eax
    4043:	75 34                	jne    4079 <loc_exchange_begin_blocking+0x69>
    4045:	c7 04 24 4c 29 02 00 	movl   $0x2294c,(%esp)
    404c:	8b 1d 80 2b 02 00    	mov    0x22b80,%ebx
    4052:	e8 f9 63 00 00       	call   a450 <fibril_mutex_lock>
    4057:	a1 84 2b 02 00       	mov    0x22b84,%eax
    405c:	85 c0                	test   %eax,%eax
    405e:	74 68                	je     40c8 <loc_exchange_begin_blocking+0xb8>
    4060:	c7 04 24 4c 29 02 00 	movl   $0x2294c,(%esp)
    4067:	e8 04 65 00 00       	call   a570 <fibril_mutex_unlock>
    406c:	a1 84 2b 02 00       	mov    0x22b84,%eax
    4071:	85 c0                	test   %eax,%eax
    4073:	0f 84 07 01 00 00    	je     4180 <loc_exchange_begin_blocking+0x170>
    4079:	c7 04 24 3c 29 02 00 	movl   $0x2293c,(%esp)
    4080:	e8 eb 64 00 00       	call   a570 <fibril_mutex_unlock>
    4085:	c7 04 24 4c 29 02 00 	movl   $0x2294c,(%esp)
    408c:	8b 1d 84 2b 02 00    	mov    0x22b84,%ebx
    4092:	e8 b9 63 00 00       	call   a450 <fibril_mutex_lock>
    4097:	a1 80 2b 02 00       	mov    0x22b80,%eax
    409c:	85 c0                	test   %eax,%eax
    409e:	0f 84 3c 01 00 00    	je     41e0 <loc_exchange_begin_blocking+0x1d0>
    40a4:	c7 04 24 4c 29 02 00 	movl   $0x2294c,(%esp)
    40ab:	e8 c0 64 00 00       	call   a570 <fibril_mutex_unlock>
    40b0:	a1 84 2b 02 00       	mov    0x22b84,%eax
    40b5:	89 45 08             	mov    %eax,0x8(%ebp)
    40b8:	83 c4 14             	add    $0x14,%esp
    40bb:	5b                   	pop    %ebx
    40bc:	5d                   	pop    %ebp
    40bd:	e9 de 24 01 00       	jmp    165a0 <async_exchange_begin>
    40c2:	8d b6 00 00 00 00    	lea    0x0(%esi),%esi
    40c8:	85 db                	test   %ebx,%ebx
    40ca:	74 94                	je     4060 <loc_exchange_begin_blocking+0x50>
    40cc:	89 1d 84 2b 02 00    	mov    %ebx,0x22b84
    40d2:	eb 8c                	jmp    4060 <loc_exchange_begin_blocking+0x50>
    40d4:	8d 74 26 00          	lea    0x0(%esi,%eiz,1),%esi
    40d8:	c7 04 24 5c 29 02 00 	movl   $0x2295c,(%esp)
    40df:	e8 6c 63 00 00       	call   a450 <fibril_mutex_lock>
    40e4:	a1 8c 2b 02 00       	mov    0x22b8c,%eax
    40e9:	85 c0                	test   %eax,%eax
    40eb:	75 35                	jne    4122 <loc_exchange_begin_blocking+0x112>
    40ed:	c7 04 24 6c 29 02 00 	movl   $0x2296c,(%esp)
    40f4:	8b 1d 88 2b 02 00    	mov    0x22b88,%ebx
    40fa:	e8 51 63 00 00       	call   a450 <fibril_mutex_lock>
    40ff:	a1 8c 2b 02 00       	mov    0x22b8c,%eax
    4104:	85 c0                	test   %eax,%eax
    4106:	74 68                	je     4170 <loc_exchange_begin_blocking+0x160>
    4108:	c7 04 24 6c 29 02 00 	movl   $0x2296c,(%esp)
    410f:	e8 5c 64 00 00       	call   a570 <fibril_mutex_unlock>
    4114:	8b 1d 8c 2b 02 00    	mov    0x22b8c,%ebx
    411a:	85 db                	test   %ebx,%ebx
    411c:	0f 84 8e 00 00 00    	je     41b0 <loc_exchange_begin_blocking+0x1a0>
    4122:	c7 04 24 5c 29 02 00 	movl   $0x2295c,(%esp)
    4129:	e8 42 64 00 00       	call   a570 <fibril_mutex_unlock>
    412e:	c7 04 24 6c 29 02 00 	movl   $0x2296c,(%esp)
    4135:	8b 1d 8c 2b 02 00    	mov    0x22b8c,%ebx
    413b:	e8 10 63 00 00       	call   a450 <fibril_mutex_lock>
    4140:	8b 0d 88 2b 02 00    	mov    0x22b88,%ecx
    4146:	85 c9                	test   %ecx,%ecx
    4148:	0f 84 aa 00 00 00    	je     41f8 <loc_exchange_begin_blocking+0x1e8>
    414e:	c7 04 24 6c 29 02 00 	movl   $0x2296c,(%esp)
    4155:	e8 16 64 00 00       	call   a570 <fibril_mutex_unlock>
    415a:	a1 8c 2b 02 00       	mov    0x22b8c,%eax
    415f:	89 45 08             	mov    %eax,0x8(%ebp)
    4162:	83 c4 14             	add    $0x14,%esp
    4165:	5b                   	pop    %ebx
    4166:	5d                   	pop    %ebp
    4167:	e9 34 24 01 00       	jmp    165a0 <async_exchange_begin>
    416c:	8d 74 26 00          	lea    0x0(%esi,%eiz,1),%esi
    4170:	85 db                	test   %ebx,%ebx
    4172:	74 94                	je     4108 <loc_exchange_begin_blocking+0xf8>
    4174:	89 1d 8c 2b 02 00    	mov    %ebx,0x22b8c
    417a:	eb 8c                	jmp    4108 <loc_exchange_begin_blocking+0xf8>
    417c:	8d 74 26 00          	lea    0x0(%esi,%eiz,1),%esi
    4180:	c7 44 24 0c 00 00 00 	movl   $0x0,0xc(%esp)
    4187:	00 
    4188:	c7 44 24 08 01 00 00 	movl   $0x1,0x8(%esp)
    418f:	00 
    4190:	c7 44 24 04 6c 6f 63 	movl   $0x20636f6c,0x4(%esp)
    4197:	20 
    4198:	c7 04 24 02 00 00 00 	movl   $0x2,(%esp)
    419f:	e8 4c f7 00 00       	call   138f0 <service_connect_blocking>
    41a4:	a3 84 2b 02 00       	mov    %eax,0x22b84
    41a9:	e9 93 fe ff ff       	jmp    4041 <loc_exchange_begin_blocking+0x31>
    41ae:	66 90                	xchg   %ax,%ax
    41b0:	c7 44 24 0c 00 00 00 	movl   $0x0,0xc(%esp)
    41b7:	00 
    41b8:	c7 44 24 08 02 00 00 	movl   $0x2,0x8(%esp)
    41bf:	00 
    41c0:	c7 44 24 04 6c 6f 63 	movl   $0x20636f6c,0x4(%esp)
    41c7:	20 
    41c8:	c7 04 24 02 00 00 00 	movl   $0x2,(%esp)
    41cf:	e8 1c f7 00 00       	call   138f0 <service_connect_blocking>
    41d4:	a3 8c 2b 02 00       	mov    %eax,0x22b8c
    41d9:	e9 0b ff ff ff       	jmp    40e9 <loc_exchange_begin_blocking+0xd9>
    41de:	66 90                	xchg   %ax,%ax
    41e0:	85 db                	test   %ebx,%ebx
    41e2:	0f 84 bc fe ff ff    	je     40a4 <loc_exchange_begin_blocking+0x94>
    41e8:	89 1d 80 2b 02 00    	mov    %ebx,0x22b80
    41ee:	e9 b1 fe ff ff       	jmp    40a4 <loc_exchange_begin_blocking+0x94>
    41f3:	90                   	nop
    41f4:	8d 74 26 00          	lea    0x0(%esi,%eiz,1),%esi
    41f8:	85 db                	test   %ebx,%ebx
    41fa:	0f 84 4e ff ff ff    	je     414e <loc_exchange_begin_blocking+0x13e>
    4200:	89 1d 88 2b 02 00    	mov    %ebx,0x22b88
    4206:	e9 43 ff ff ff       	jmp    414e <loc_exchange_begin_blocking+0x13e>
    420b:	90                   	nop
    420c:	8d 74 26 00          	lea    0x0(%esi,%eiz,1),%esi

00004210 <loc_exchange_begin>:
    4210:	55                   	push   %ebp
    4211:	89 e5                	mov    %esp,%ebp
    4213:	83 ec 18             	sub    $0x18,%esp
    4216:	8b 45 08             	mov    0x8(%ebp),%eax
    4219:	83 f8 01             	cmp    $0x1,%eax
    421c:	74 0a                	je     4228 <loc_exchange_begin+0x18>
    421e:	83 f8 02             	cmp    $0x2,%eax
    4221:	74 3d                	je     4260 <loc_exchange_begin+0x50>
    4223:	31 c0                	xor    %eax,%eax
    4225:	c9                   	leave  
    4226:	c3                   	ret    
    4227:	90                   	nop
    4228:	c7 04 24 4c 29 02 00 	movl   $0x2294c,(%esp)
    422f:	e8 1c 62 00 00       	call   a450 <fibril_mutex_lock>
    4234:	a1 80 2b 02 00       	mov    0x22b80,%eax
    4239:	85 c0                	test   %eax,%eax
    423b:	74 5b                	je     4298 <loc_exchange_begin+0x88>
    423d:	c7 04 24 4c 29 02 00 	movl   $0x2294c,(%esp)
    4244:	e8 27 63 00 00       	call   a570 <fibril_mutex_unlock>
    4249:	a1 80 2b 02 00       	mov    0x22b80,%eax
    424e:	85 c0                	test   %eax,%eax
    4250:	74 d1                	je     4223 <loc_exchange_begin+0x13>
    4252:	89 45 08             	mov    %eax,0x8(%ebp)
    4255:	c9                   	leave  
    4256:	e9 45 23 01 00       	jmp    165a0 <async_exchange_begin>
    425b:	90                   	nop
    425c:	8d 74 26 00          	lea    0x0(%esi,%eiz,1),%esi
    4260:	c7 04 24 6c 29 02 00 	movl   $0x2296c,(%esp)
    4267:	e8 e4 61 00 00       	call   a450 <fibril_mutex_lock>
    426c:	a1 88 2b 02 00       	mov    0x22b88,%eax
    4271:	85 c0                	test   %eax,%eax
    4273:	74 53                	je     42c8 <loc_exchange_begin+0xb8>
    4275:	c7 04 24 6c 29 02 00 	movl   $0x2296c,(%esp)
    427c:	e8 ef 62 00 00       	call   a570 <fibril_mutex_unlock>
    4281:	a1 88 2b 02 00       	mov    0x22b88,%eax
    4286:	85 c0                	test   %eax,%eax
    4288:	74 99                	je     4223 <loc_exchange_begin+0x13>
    428a:	89 45 08             	mov    %eax,0x8(%ebp)
    428d:	c9                   	leave  
    428e:	e9 0d 23 01 00       	jmp    165a0 <async_exchange_begin>
    4293:	90                   	nop
    4294:	8d 74 26 00          	lea    0x0(%esi,%eiz,1),%esi
    4298:	c7 44 24 0c 00 00 00 	movl   $0x0,0xc(%esp)
    429f:	00 
    42a0:	c7 44 24 08 01 00 00 	movl   $0x1,0x8(%esp)
    42a7:	00 
    42a8:	c7 44 24 04 6c 6f 63 	movl   $0x20636f6c,0x4(%esp)
    42af:	20 
    42b0:	c7 04 24 02 00 00 00 	movl   $0x2,(%esp)
    42b7:	e8 b4 f5 00 00       	call   13870 <service_connect>
    42bc:	a3 80 2b 02 00       	mov    %eax,0x22b80
    42c1:	e9 77 ff ff ff       	jmp    423d <loc_exchange_begin+0x2d>
    42c6:	66 90                	xchg   %ax,%ax
    42c8:	c7 44 24 0c 00 00 00 	movl   $0x0,0xc(%esp)
    42cf:	00 
    42d0:	c7 44 24 08 02 00 00 	movl   $0x2,0x8(%esp)
    42d7:	00 
    42d8:	c7 44 24 04 6c 6f 63 	movl   $0x20636f6c,0x4(%esp)
    42df:	20 
    42e0:	c7 04 24 02 00 00 00 	movl   $0x2,(%esp)
    42e7:	e8 84 f5 00 00       	call   13870 <service_connect>
    42ec:	a3 88 2b 02 00       	mov    %eax,0x22b88
    42f1:	eb 82                	jmp    4275 <loc_exchange_begin+0x65>
    42f3:	8d b6 00 00 00 00    	lea    0x0(%esi),%esi
    42f9:	8d bc 27 00 00 00 00 	lea    0x0(%edi,%eiz,1),%edi

00004300 <loc_exchange_end>:
    4300:	55                   	push   %ebp
    4301:	89 e5                	mov    %esp,%ebp
    4303:	5d                   	pop    %ebp
    4304:	e9 07 26 01 00       	jmp    16910 <async_exchange_end>
    4309:	8d b4 26 00 00 00 00 	lea    0x0(%esi,%eiz,1),%esi

00004310 <loc_server_register>:
    4310:	55                   	push   %ebp
    4311:	89 e5                	mov    %esp,%ebp
    4313:	57                   	push   %edi
    4314:	56                   	push   %esi
    4315:	53                   	push   %ebx
    4316:	83 ec 5c             	sub    $0x5c,%esp
    4319:	8b 75 08             	mov    0x8(%ebp),%esi
    431c:	c7 04 24 3c 29 02 00 	movl   $0x2293c,(%esp)
    4323:	e8 28 61 00 00       	call   a450 <fibril_mutex_lock>
    4328:	a1 84 2b 02 00       	mov    0x22b84,%eax
    432d:	85 c0                	test   %eax,%eax
    432f:	75 38                	jne    4369 <loc_server_register+0x59>
    4331:	c7 04 24 4c 29 02 00 	movl   $0x2294c,(%esp)
    4338:	8b 1d 80 2b 02 00    	mov    0x22b80,%ebx
    433e:	e8 0d 61 00 00       	call   a450 <fibril_mutex_lock>
    4343:	a1 84 2b 02 00       	mov    0x22b84,%eax
    4348:	85 c0                	test   %eax,%eax
    434a:	0f 84 58 01 00 00    	je     44a8 <loc_server_register+0x198>
    4350:	c7 04 24 4c 29 02 00 	movl   $0x2294c,(%esp)
    4357:	e8 14 62 00 00       	call   a570 <fibril_mutex_unlock>
    435c:	a1 84 2b 02 00       	mov    0x22b84,%eax
    4361:	85 c0                	test   %eax,%eax
    4363:	0f 84 57 01 00 00    	je     44c0 <loc_server_register+0x1b0>
    4369:	c7 04 24 3c 29 02 00 	movl   $0x2293c,(%esp)
    4370:	e8 fb 61 00 00       	call   a570 <fibril_mutex_unlock>
    4375:	c7 04 24 4c 29 02 00 	movl   $0x2294c,(%esp)
    437c:	8b 1d 84 2b 02 00    	mov    0x22b84,%ebx
    4382:	e8 c9 60 00 00       	call   a450 <fibril_mutex_lock>
    4387:	8b 3d 80 2b 02 00    	mov    0x22b80,%edi
    438d:	85 ff                	test   %edi,%edi
    438f:	0f 84 73 01 00 00    	je     4508 <loc_server_register+0x1f8>
    4395:	c7 04 24 4c 29 02 00 	movl   $0x2294c,(%esp)
    439c:	e8 cf 61 00 00       	call   a570 <fibril_mutex_unlock>
    43a1:	a1 84 2b 02 00       	mov    0x22b84,%eax
    43a6:	89 04 24             	mov    %eax,(%esp)
    43a9:	e8 f2 21 01 00       	call   165a0 <async_exchange_begin>
    43ae:	c7 44 24 14 00 00 00 	movl   $0x0,0x14(%esp)
    43b5:	00 
    43b6:	89 c3                	mov    %eax,%ebx
    43b8:	8d 45 c4             	lea    -0x3c(%ebp),%eax
    43bb:	89 44 24 18          	mov    %eax,0x18(%esp)
    43bf:	c7 44 24 10 00 00 00 	movl   $0x0,0x10(%esp)
    43c6:	00 
    43c7:	c7 44 24 0c 00 00 00 	movl   $0x0,0xc(%esp)
    43ce:	00 
    43cf:	c7 44 24 08 00 00 00 	movl   $0x0,0x8(%esp)
    43d6:	00 
    43d7:	c7 44 24 04 00 04 00 	movl   $0x400,0x4(%esp)
    43de:	00 
    43df:	89 1c 24             	mov    %ebx,(%esp)
    43e2:	e8 59 0b 01 00       	call   14f40 <async_send_fast>
    43e7:	89 34 24             	mov    %esi,(%esp)
    43ea:	89 c7                	mov    %eax,%edi
    43ec:	e8 3f 2e 00 00       	call   7230 <str_size>
    43f1:	89 74 24 04          	mov    %esi,0x4(%esp)
    43f5:	89 44 24 08          	mov    %eax,0x8(%esp)
    43f9:	89 1c 24             	mov    %ebx,(%esp)
    43fc:	e8 8f 30 01 00       	call   17490 <async_data_write_start>
    4401:	89 1c 24             	mov    %ebx,(%esp)
    4404:	89 45 c0             	mov    %eax,-0x40(%ebp)
    4407:	e8 04 25 01 00       	call   16910 <async_exchange_end>
    440c:	8b 4d c0             	mov    -0x40(%ebp),%ecx
    440f:	85 c9                	test   %ecx,%ecx
    4411:	0f 85 d9 00 00 00    	jne    44f0 <loc_server_register+0x1e0>
    4417:	c7 04 24 4c 29 02 00 	movl   $0x2294c,(%esp)
    441e:	e8 2d 60 00 00       	call   a450 <fibril_mutex_lock>
    4423:	8b 15 80 2b 02 00    	mov    0x22b80,%edx
    4429:	85 d2                	test   %edx,%edx
    442b:	0f 84 ea 00 00 00    	je     451b <loc_server_register+0x20b>
    4431:	c7 04 24 4c 29 02 00 	movl   $0x2294c,(%esp)
    4438:	e8 33 61 00 00       	call   a570 <fibril_mutex_unlock>
    443d:	a1 80 2b 02 00       	mov    0x22b80,%eax
    4442:	85 c0                	test   %eax,%eax
    4444:	0f 84 ff 00 00 00    	je     4549 <loc_server_register+0x239>
    444a:	89 04 24             	mov    %eax,(%esp)
    444d:	e8 4e 21 01 00       	call   165a0 <async_exchange_begin>
    4452:	89 c3                	mov    %eax,%ebx
    4454:	89 1c 24             	mov    %ebx,(%esp)
    4457:	c7 44 24 14 00 00 00 	movl   $0x0,0x14(%esp)
    445e:	00 
    445f:	c7 44 24 10 00 00 00 	movl   $0x0,0x10(%esp)
    4466:	00 
    4467:	c7 44 24 0c 00 00 00 	movl   $0x0,0xc(%esp)
    446e:	00 
    446f:	c7 44 24 08 00 00 00 	movl   $0x0,0x8(%esp)
    4476:	00 
    4477:	c7 44 24 04 00 00 00 	movl   $0x0,0x4(%esp)
    447e:	00 
    447f:	e8 bc 18 01 00       	call   15d40 <async_connect_to_me>
    4484:	89 1c 24             	mov    %ebx,(%esp)
    4487:	e8 84 24 01 00       	call   16910 <async_exchange_end>
    448c:	8d 45 c0             	lea    -0x40(%ebp),%eax
    448f:	89 44 24 04          	mov    %eax,0x4(%esp)
    4493:	89 3c 24             	mov    %edi,(%esp)
    4496:	e8 75 0c 01 00       	call   15110 <async_wait_for>
    449b:	8b 45 c0             	mov    -0x40(%ebp),%eax
    449e:	83 c4 5c             	add    $0x5c,%esp
    44a1:	5b                   	pop    %ebx
    44a2:	5e                   	pop    %esi
    44a3:	5f                   	pop    %edi
    44a4:	5d                   	pop    %ebp
    44a5:	c3                   	ret    
    44a6:	66 90                	xchg   %ax,%ax
    44a8:	85 db                	test   %ebx,%ebx
    44aa:	0f 84 a0 fe ff ff    	je     4350 <loc_server_register+0x40>
    44b0:	89 1d 84 2b 02 00    	mov    %ebx,0x22b84
    44b6:	e9 95 fe ff ff       	jmp    4350 <loc_server_register+0x40>
    44bb:	90                   	nop
    44bc:	8d 74 26 00          	lea    0x0(%esi,%eiz,1),%esi
    44c0:	c7 44 24 0c 00 00 00 	movl   $0x0,0xc(%esp)
    44c7:	00 
    44c8:	c7 44 24 08 01 00 00 	movl   $0x1,0x8(%esp)
    44cf:	00 
    44d0:	c7 44 24 04 6c 6f 63 	movl   $0x20636f6c,0x4(%esp)
    44d7:	20 
    44d8:	c7 04 24 02 00 00 00 	movl   $0x2,(%esp)
    44df:	e8 0c f4 00 00       	call   138f0 <service_connect_blocking>
    44e4:	a3 84 2b 02 00       	mov    %eax,0x22b84
    44e9:	e9 3f fe ff ff       	jmp    432d <loc_server_register+0x1d>
    44ee:	66 90                	xchg   %ax,%ax
    44f0:	89 3c 24             	mov    %edi,(%esp)
    44f3:	e8 68 0e 01 00       	call   15360 <async_forget>
    44f8:	8b 45 c0             	mov    -0x40(%ebp),%eax
    44fb:	83 c4 5c             	add    $0x5c,%esp
    44fe:	5b                   	pop    %ebx
    44ff:	5e                   	pop    %esi
    4500:	5f                   	pop    %edi
    4501:	5d                   	pop    %ebp
    4502:	c3                   	ret    
    4503:	90                   	nop
    4504:	8d 74 26 00          	lea    0x0(%esi,%eiz,1),%esi
    4508:	85 db                	test   %ebx,%ebx
    450a:	0f 84 85 fe ff ff    	je     4395 <loc_server_register+0x85>
    4510:	89 1d 80 2b 02 00    	mov    %ebx,0x22b80
    4516:	e9 7a fe ff ff       	jmp    4395 <loc_server_register+0x85>
    451b:	c7 44 24 0c 00 00 00 	movl   $0x0,0xc(%esp)
    4522:	00 
    4523:	c7 44 24 08 01 00 00 	movl   $0x1,0x8(%esp)
    452a:	00 
    452b:	c7 44 24 04 6c 6f 63 	movl   $0x20636f6c,0x4(%esp)
    4532:	20 
    4533:	c7 04 24 02 00 00 00 	movl   $0x2,(%esp)
    453a:	e8 31 f3 00 00       	call   13870 <service_connect>
    453f:	a3 80 2b 02 00       	mov    %eax,0x22b80
    4544:	e9 e8 fe ff ff       	jmp    4431 <loc_server_register+0x121>
    4549:	31 db                	xor    %ebx,%ebx
    454b:	e9 04 ff ff ff       	jmp    4454 <loc_server_register+0x144>

00004550 <loc_service_register_with_iface>:
    4550:	55                   	push   %ebp
    4551:	89 e5                	mov    %esp,%ebp
    4553:	57                   	push   %edi
    4554:	56                   	push   %esi
    4555:	53                   	push   %ebx
    4556:	83 ec 5c             	sub    $0x5c,%esp
    4559:	8b 75 08             	mov    0x8(%ebp),%esi
    455c:	c7 04 24 3c 29 02 00 	movl   $0x2293c,(%esp)
    4563:	e8 e8 5e 00 00       	call   a450 <fibril_mutex_lock>
    4568:	a1 84 2b 02 00       	mov    0x22b84,%eax
    456d:	85 c0                	test   %eax,%eax
    456f:	75 38                	jne    45a9 <loc_service_register_with_iface+0x59>
    4571:	c7 04 24 4c 29 02 00 	movl   $0x2294c,(%esp)
    4578:	8b 1d 80 2b 02 00    	mov    0x22b80,%ebx
    457e:	e8 cd 5e 00 00       	call   a450 <fibril_mutex_lock>
    4583:	a1 84 2b 02 00       	mov    0x22b84,%eax
    4588:	85 c0                	test   %eax,%eax
    458a:	0f 84 f8 00 00 00    	je     4688 <loc_service_register_with_iface+0x138>
    4590:	c7 04 24 4c 29 02 00 	movl   $0x2294c,(%esp)
    4597:	e8 d4 5f 00 00       	call   a570 <fibril_mutex_unlock>
    459c:	a1 84 2b 02 00       	mov    0x22b84,%eax
    45a1:	85 c0                	test   %eax,%eax
    45a3:	0f 84 f7 00 00 00    	je     46a0 <loc_service_register_with_iface+0x150>
    45a9:	c7 04 24 3c 29 02 00 	movl   $0x2293c,(%esp)
    45b0:	e8 bb 5f 00 00       	call   a570 <fibril_mutex_unlock>
    45b5:	c7 04 24 4c 29 02 00 	movl   $0x2294c,(%esp)
    45bc:	8b 1d 84 2b 02 00    	mov    0x22b84,%ebx
    45c2:	e8 89 5e 00 00       	call   a450 <fibril_mutex_lock>
    45c7:	8b 3d 80 2b 02 00    	mov    0x22b80,%edi
    45cd:	85 ff                	test   %edi,%edi
    45cf:	0f 84 33 01 00 00    	je     4708 <loc_service_register_with_iface+0x1b8>
    45d5:	c7 04 24 4c 29 02 00 	movl   $0x2294c,(%esp)
    45dc:	e8 8f 5f 00 00       	call   a570 <fibril_mutex_unlock>
    45e1:	a1 84 2b 02 00       	mov    0x22b84,%eax
    45e6:	89 04 24             	mov    %eax,(%esp)
    45e9:	e8 b2 1f 01 00       	call   165a0 <async_exchange_begin>
    45ee:	c7 44 24 14 00 00 00 	movl   $0x0,0x14(%esp)
    45f5:	00 
    45f6:	89 c7                	mov    %eax,%edi
    45f8:	8d 45 c4             	lea    -0x3c(%ebp),%eax
    45fb:	89 44 24 18          	mov    %eax,0x18(%esp)
    45ff:	8b 45 10             	mov    0x10(%ebp),%eax
    4602:	c7 44 24 10 00 00 00 	movl   $0x0,0x10(%esp)
    4609:	00 
    460a:	c7 44 24 0c 00 00 00 	movl   $0x0,0xc(%esp)
    4611:	00 
    4612:	89 44 24 08          	mov    %eax,0x8(%esp)
    4616:	c7 44 24 04 03 04 00 	movl   $0x403,0x4(%esp)
    461d:	00 
    461e:	89 3c 24             	mov    %edi,(%esp)
    4621:	e8 1a 09 01 00       	call   14f40 <async_send_fast>
    4626:	89 34 24             	mov    %esi,(%esp)
    4629:	89 c3                	mov    %eax,%ebx
    462b:	e8 00 2c 00 00       	call   7230 <str_size>
    4630:	89 74 24 04          	mov    %esi,0x4(%esp)
    4634:	89 44 24 08          	mov    %eax,0x8(%esp)
    4638:	89 3c 24             	mov    %edi,(%esp)
    463b:	e8 50 2e 01 00       	call   17490 <async_data_write_start>
    4640:	89 3c 24             	mov    %edi,(%esp)
    4643:	89 45 c0             	mov    %eax,-0x40(%ebp)
    4646:	e8 c5 22 01 00       	call   16910 <async_exchange_end>
    464b:	8b 4d c0             	mov    -0x40(%ebp),%ecx
    464e:	85 c9                	test   %ecx,%ecx
    4650:	0f 85 9a 00 00 00    	jne    46f0 <loc_service_register_with_iface+0x1a0>
    4656:	8d 45 c0             	lea    -0x40(%ebp),%eax
    4659:	89 1c 24             	mov    %ebx,(%esp)
    465c:	89 44 24 04          	mov    %eax,0x4(%esp)
    4660:	e8 ab 0a 01 00       	call   15110 <async_wait_for>
    4665:	8b 45 c0             	mov    -0x40(%ebp),%eax
    4668:	85 c0                	test   %eax,%eax
    466a:	74 64                	je     46d0 <loc_service_register_with_iface+0x180>
    466c:	8b 55 0c             	mov    0xc(%ebp),%edx
    466f:	85 d2                	test   %edx,%edx
    4671:	74 09                	je     467c <loc_service_register_with_iface+0x12c>
    4673:	8b 55 0c             	mov    0xc(%ebp),%edx
    4676:	c7 02 ff ff ff ff    	movl   $0xffffffff,(%edx)
    467c:	83 c4 5c             	add    $0x5c,%esp
    467f:	5b                   	pop    %ebx
    4680:	5e                   	pop    %esi
    4681:	5f                   	pop    %edi
    4682:	5d                   	pop    %ebp
    4683:	c3                   	ret    
    4684:	8d 74 26 00          	lea    0x0(%esi,%eiz,1),%esi
    4688:	85 db                	test   %ebx,%ebx
    468a:	0f 84 00 ff ff ff    	je     4590 <loc_service_register_with_iface+0x40>
    4690:	89 1d 84 2b 02 00    	mov    %ebx,0x22b84
    4696:	e9 f5 fe ff ff       	jmp    4590 <loc_service_register_with_iface+0x40>
    469b:	90                   	nop
    469c:	8d 74 26 00          	lea    0x0(%esi,%eiz,1),%esi
    46a0:	c7 44 24 0c 00 00 00 	movl   $0x0,0xc(%esp)
    46a7:	00 
    46a8:	c7 44 24 08 01 00 00 	movl   $0x1,0x8(%esp)
    46af:	00 
    46b0:	c7 44 24 04 6c 6f 63 	movl   $0x20636f6c,0x4(%esp)
    46b7:	20 
    46b8:	c7 04 24 02 00 00 00 	movl   $0x2,(%esp)
    46bf:	e8 2c f2 00 00       	call   138f0 <service_connect_blocking>
    46c4:	a3 84 2b 02 00       	mov    %eax,0x22b84
    46c9:	e9 9f fe ff ff       	jmp    456d <loc_service_register_with_iface+0x1d>
    46ce:	66 90                	xchg   %ax,%ax
    46d0:	8b 45 0c             	mov    0xc(%ebp),%eax
    46d3:	85 c0                	test   %eax,%eax
    46d5:	74 08                	je     46df <loc_service_register_with_iface+0x18f>
    46d7:	8b 55 0c             	mov    0xc(%ebp),%edx
    46da:	8b 45 c8             	mov    -0x38(%ebp),%eax
    46dd:	89 02                	mov    %eax,(%edx)
    46df:	83 c4 5c             	add    $0x5c,%esp
    46e2:	31 c0                	xor    %eax,%eax
    46e4:	5b                   	pop    %ebx
    46e5:	5e                   	pop    %esi
    46e6:	5f                   	pop    %edi
    46e7:	5d                   	pop    %ebp
    46e8:	c3                   	ret    
    46e9:	8d b4 26 00 00 00 00 	lea    0x0(%esi,%eiz,1),%esi
    46f0:	89 1c 24             	mov    %ebx,(%esp)
    46f3:	e8 68 0c 01 00       	call   15360 <async_forget>
    46f8:	8b 45 c0             	mov    -0x40(%ebp),%eax
    46fb:	83 c4 5c             	add    $0x5c,%esp
    46fe:	5b                   	pop    %ebx
    46ff:	5e                   	pop    %esi
    4700:	5f                   	pop    %edi
    4701:	5d                   	pop    %ebp
    4702:	c3                   	ret    
    4703:	90                   	nop
    4704:	8d 74 26 00          	lea    0x0(%esi,%eiz,1),%esi
    4708:	85 db                	test   %ebx,%ebx
    470a:	0f 84 c5 fe ff ff    	je     45d5 <loc_service_register_with_iface+0x85>
    4710:	89 1d 80 2b 02 00    	mov    %ebx,0x22b80
    4716:	e9 ba fe ff ff       	jmp    45d5 <loc_service_register_with_iface+0x85>
    471b:	90                   	nop
    471c:	8d 74 26 00          	lea    0x0(%esi,%eiz,1),%esi

00004720 <loc_service_register>:
    4720:	55                   	push   %ebp
    4721:	89 e5                	mov    %esp,%ebp
    4723:	57                   	push   %edi
    4724:	56                   	push   %esi
    4725:	53                   	push   %ebx
    4726:	83 ec 5c             	sub    $0x5c,%esp
    4729:	8b 75 08             	mov    0x8(%ebp),%esi
    472c:	c7 04 24 3c 29 02 00 	movl   $0x2293c,(%esp)
    4733:	e8 18 5d 00 00       	call   a450 <fibril_mutex_lock>
    4738:	a1 84 2b 02 00       	mov    0x22b84,%eax
    473d:	85 c0                	test   %eax,%eax
    473f:	75 38                	jne    4779 <loc_service_register+0x59>
    4741:	c7 04 24 4c 29 02 00 	movl   $0x2294c,(%esp)
    4748:	8b 1d 80 2b 02 00    	mov    0x22b80,%ebx
    474e:	e8 fd 5c 00 00       	call   a450 <fibril_mutex_lock>
    4753:	a1 84 2b 02 00       	mov    0x22b84,%eax
    4758:	85 c0                	test   %eax,%eax
    475a:	0f 84 f8 00 00 00    	je     4858 <loc_service_register+0x138>
    4760:	c7 04 24 4c 29 02 00 	movl   $0x2294c,(%esp)
    4767:	e8 04 5e 00 00       	call   a570 <fibril_mutex_unlock>
    476c:	a1 84 2b 02 00       	mov    0x22b84,%eax
    4771:	85 c0                	test   %eax,%eax
    4773:	0f 84 f7 00 00 00    	je     4870 <loc_service_register+0x150>
    4779:	c7 04 24 3c 29 02 00 	movl   $0x2293c,(%esp)
    4780:	e8 eb 5d 00 00       	call   a570 <fibril_mutex_unlock>
    4785:	c7 04 24 4c 29 02 00 	movl   $0x2294c,(%esp)
    478c:	8b 1d 84 2b 02 00    	mov    0x22b84,%ebx
    4792:	e8 b9 5c 00 00       	call   a450 <fibril_mutex_lock>
    4797:	8b 3d 80 2b 02 00    	mov    0x22b80,%edi
    479d:	85 ff                	test   %edi,%edi
    479f:	0f 84 33 01 00 00    	je     48d8 <loc_service_register+0x1b8>
    47a5:	c7 04 24 4c 29 02 00 	movl   $0x2294c,(%esp)
    47ac:	e8 bf 5d 00 00       	call   a570 <fibril_mutex_unlock>
    47b1:	a1 84 2b 02 00       	mov    0x22b84,%eax
    47b6:	89 04 24             	mov    %eax,(%esp)
    47b9:	e8 e2 1d 01 00       	call   165a0 <async_exchange_begin>
    47be:	c7 44 24 14 00 00 00 	movl   $0x0,0x14(%esp)
    47c5:	00 
    47c6:	89 c7                	mov    %eax,%edi
    47c8:	8d 45 c4             	lea    -0x3c(%ebp),%eax
    47cb:	89 44 24 18          	mov    %eax,0x18(%esp)
    47cf:	c7 44 24 10 00 00 00 	movl   $0x0,0x10(%esp)
    47d6:	00 
    47d7:	c7 44 24 0c 00 00 00 	movl   $0x0,0xc(%esp)
    47de:	00 
    47df:	c7 44 24 08 00 00 00 	movl   $0x0,0x8(%esp)
    47e6:	00 
    47e7:	c7 44 24 04 03 04 00 	movl   $0x403,0x4(%esp)
    47ee:	00 
    47ef:	89 3c 24             	mov    %edi,(%esp)
    47f2:	e8 49 07 01 00       	call   14f40 <async_send_fast>
    47f7:	89 34 24             	mov    %esi,(%esp)
    47fa:	89 c3                	mov    %eax,%ebx
    47fc:	e8 2f 2a 00 00       	call   7230 <str_size>
    4801:	89 74 24 04          	mov    %esi,0x4(%esp)
    4805:	89 44 24 08          	mov    %eax,0x8(%esp)
    4809:	89 3c 24             	mov    %edi,(%esp)
    480c:	e8 7f 2c 01 00       	call   17490 <async_data_write_start>
    4811:	89 3c 24             	mov    %edi,(%esp)
    4814:	89 45 c0             	mov    %eax,-0x40(%ebp)
    4817:	e8 f4 20 01 00       	call   16910 <async_exchange_end>
    481c:	8b 4d c0             	mov    -0x40(%ebp),%ecx
    481f:	85 c9                	test   %ecx,%ecx
    4821:	0f 85 99 00 00 00    	jne    48c0 <loc_service_register+0x1a0>
    4827:	8d 45 c0             	lea    -0x40(%ebp),%eax
    482a:	89 1c 24             	mov    %ebx,(%esp)
    482d:	89 44 24 04          	mov    %eax,0x4(%esp)
    4831:	e8 da 08 01 00       	call   15110 <async_wait_for>
    4836:	8b 45 c0             	mov    -0x40(%ebp),%eax
    4839:	85 c0                	test   %eax,%eax
    483b:	74 63                	je     48a0 <loc_service_register+0x180>
    483d:	8b 55 0c             	mov    0xc(%ebp),%edx
    4840:	85 d2                	test   %edx,%edx
    4842:	74 09                	je     484d <loc_service_register+0x12d>
    4844:	8b 55 0c             	mov    0xc(%ebp),%edx
    4847:	c7 02 ff ff ff ff    	movl   $0xffffffff,(%edx)
    484d:	83 c4 5c             	add    $0x5c,%esp
    4850:	5b                   	pop    %ebx
    4851:	5e                   	pop    %esi
    4852:	5f                   	pop    %edi
    4853:	5d                   	pop    %ebp
    4854:	c3                   	ret    
    4855:	8d 76 00             	lea    0x0(%esi),%esi
    4858:	85 db                	test   %ebx,%ebx
    485a:	0f 84 00 ff ff ff    	je     4760 <loc_service_register+0x40>
    4860:	89 1d 84 2b 02 00    	mov    %ebx,0x22b84
    4866:	e9 f5 fe ff ff       	jmp    4760 <loc_service_register+0x40>
    486b:	90                   	nop
    486c:	8d 74 26 00          	lea    0x0(%esi,%eiz,1),%esi
    4870:	c7 44 24 0c 00 00 00 	movl   $0x0,0xc(%esp)
    4877:	00 
    4878:	c7 44 24 08 01 00 00 	movl   $0x1,0x8(%esp)
    487f:	00 
    4880:	c7 44 24 04 6c 6f 63 	movl   $0x20636f6c,0x4(%esp)
    4887:	20 
    4888:	c7 04 24 02 00 00 00 	movl   $0x2,(%esp)
    488f:	e8 5c f0 00 00       	call   138f0 <service_connect_blocking>
    4894:	a3 84 2b 02 00       	mov    %eax,0x22b84
    4899:	e9 9f fe ff ff       	jmp    473d <loc_service_register+0x1d>
    489e:	66 90                	xchg   %ax,%ax
    48a0:	8b 45 0c             	mov    0xc(%ebp),%eax
    48a3:	85 c0                	test   %eax,%eax
    48a5:	74 08                	je     48af <loc_service_register+0x18f>
    48a7:	8b 55 0c             	mov    0xc(%ebp),%edx
    48aa:	8b 45 c8             	mov    -0x38(%ebp),%eax
    48ad:	89 02                	mov    %eax,(%edx)
    48af:	83 c4 5c             	add    $0x5c,%esp
    48b2:	31 c0                	xor    %eax,%eax
    48b4:	5b                   	pop    %ebx
    48b5:	5e                   	pop    %esi
    48b6:	5f                   	pop    %edi
    48b7:	5d                   	pop    %ebp
    48b8:	c3                   	ret    
    48b9:	8d b4 26 00 00 00 00 	lea    0x0(%esi,%eiz,1),%esi
    48c0:	89 1c 24             	mov    %ebx,(%esp)
    48c3:	e8 98 0a 01 00       	call   15360 <async_forget>
    48c8:	8b 45 c0             	mov    -0x40(%ebp),%eax
    48cb:	83 c4 5c             	add    $0x5c,%esp
    48ce:	5b                   	pop    %ebx
    48cf:	5e                   	pop    %esi
    48d0:	5f                   	pop    %edi
    48d1:	5d                   	pop    %ebp
    48d2:	c3                   	ret    
    48d3:	90                   	nop
    48d4:	8d 74 26 00          	lea    0x0(%esi,%eiz,1),%esi
    48d8:	85 db                	test   %ebx,%ebx
    48da:	0f 84 c5 fe ff ff    	je     47a5 <loc_service_register+0x85>
    48e0:	89 1d 80 2b 02 00    	mov    %ebx,0x22b80
    48e6:	e9 ba fe ff ff       	jmp    47a5 <loc_service_register+0x85>
    48eb:	90                   	nop
    48ec:	8d 74 26 00          	lea    0x0(%esi,%eiz,1),%esi

000048f0 <loc_service_unregister>:
    48f0:	55                   	push   %ebp
    48f1:	89 e5                	mov    %esp,%ebp
    48f3:	53                   	push   %ebx
    48f4:	83 ec 44             	sub    $0x44,%esp
    48f7:	c7 04 24 3c 29 02 00 	movl   $0x2293c,(%esp)
    48fe:	e8 4d 5b 00 00       	call   a450 <fibril_mutex_lock>
    4903:	a1 84 2b 02 00       	mov    0x22b84,%eax
    4908:	85 c0                	test   %eax,%eax
    490a:	75 38                	jne    4944 <loc_service_unregister+0x54>
    490c:	c7 04 24 4c 29 02 00 	movl   $0x2294c,(%esp)
    4913:	8b 1d 80 2b 02 00    	mov    0x22b80,%ebx
    4919:	e8 32 5b 00 00       	call   a450 <fibril_mutex_lock>
    491e:	a1 84 2b 02 00       	mov    0x22b84,%eax
    4923:	85 c0                	test   %eax,%eax
    4925:	0f 84 cd 00 00 00    	je     49f8 <loc_service_unregister+0x108>
    492b:	c7 04 24 4c 29 02 00 	movl   $0x2294c,(%esp)
    4932:	e8 39 5c 00 00       	call   a570 <fibril_mutex_unlock>
    4937:	a1 84 2b 02 00       	mov    0x22b84,%eax
    493c:	85 c0                	test   %eax,%eax
    493e:	0f 84 cc 00 00 00    	je     4a10 <loc_service_unregister+0x120>
    4944:	c7 04 24 3c 29 02 00 	movl   $0x2293c,(%esp)
    494b:	e8 20 5c 00 00       	call   a570 <fibril_mutex_unlock>
    4950:	c7 04 24 4c 29 02 00 	movl   $0x2294c,(%esp)
    4957:	8b 1d 84 2b 02 00    	mov    0x22b84,%ebx
    495d:	e8 ee 5a 00 00       	call   a450 <fibril_mutex_lock>
    4962:	a1 80 2b 02 00       	mov    0x22b80,%eax
    4967:	85 c0                	test   %eax,%eax
    4969:	0f 84 d1 00 00 00    	je     4a40 <loc_service_unregister+0x150>
    496f:	c7 04 24 4c 29 02 00 	movl   $0x2294c,(%esp)
    4976:	e8 f5 5b 00 00       	call   a570 <fibril_mutex_unlock>
    497b:	a1 84 2b 02 00       	mov    0x22b84,%eax
    4980:	89 04 24             	mov    %eax,(%esp)
    4983:	e8 18 1c 01 00       	call   165a0 <async_exchange_begin>
    4988:	c7 44 24 28 00 00 00 	movl   $0x0,0x28(%esp)
    498f:	00 
    4990:	89 c3                	mov    %eax,%ebx
    4992:	8b 45 08             	mov    0x8(%ebp),%eax
    4995:	89 1c 24             	mov    %ebx,(%esp)
    4998:	c7 44 24 24 00 00 00 	movl   $0x0,0x24(%esp)
    499f:	00 
    49a0:	c7 44 24 20 00 00 00 	movl   $0x0,0x20(%esp)
    49a7:	00 
    49a8:	c7 44 24 1c 00 00 00 	movl   $0x0,0x1c(%esp)
    49af:	00 
    49b0:	c7 44 24 18 00 00 00 	movl   $0x0,0x18(%esp)
    49b7:	00 
    49b8:	c7 44 24 14 00 00 00 	movl   $0x0,0x14(%esp)
    49bf:	00 
    49c0:	c7 44 24 10 00 00 00 	movl   $0x0,0x10(%esp)
    49c7:	00 
    49c8:	c7 44 24 0c 00 00 00 	movl   $0x0,0xc(%esp)
    49cf:	00 
    49d0:	89 44 24 08          	mov    %eax,0x8(%esp)
    49d4:	c7 44 24 04 04 04 00 	movl   $0x404,0x4(%esp)
    49db:	00 
    49dc:	e8 6f 0b 01 00       	call   15550 <async_req_fast>
    49e1:	89 1c 24             	mov    %ebx,(%esp)
    49e4:	89 45 f4             	mov    %eax,-0xc(%ebp)
    49e7:	e8 24 1f 01 00       	call   16910 <async_exchange_end>
    49ec:	8b 45 f4             	mov    -0xc(%ebp),%eax
    49ef:	83 c4 44             	add    $0x44,%esp
    49f2:	5b                   	pop    %ebx
    49f3:	5d                   	pop    %ebp
    49f4:	c3                   	ret    
    49f5:	8d 76 00             	lea    0x0(%esi),%esi
    49f8:	85 db                	test   %ebx,%ebx
    49fa:	0f 84 2b ff ff ff    	je     492b <loc_service_unregister+0x3b>
    4a00:	89 1d 84 2b 02 00    	mov    %ebx,0x22b84
    4a06:	e9 20 ff ff ff       	jmp    492b <loc_service_unregister+0x3b>
    4a0b:	90                   	nop
    4a0c:	8d 74 26 00          	lea    0x0(%esi,%eiz,1),%esi
    4a10:	c7 44 24 0c 00 00 00 	movl   $0x0,0xc(%esp)
    4a17:	00 
    4a18:	c7 44 24 08 01 00 00 	movl   $0x1,0x8(%esp)
    4a1f:	00 
    4a20:	c7 44 24 04 6c 6f 63 	movl   $0x20636f6c,0x4(%esp)
    4a27:	20 
    4a28:	c7 04 24 02 00 00 00 	movl   $0x2,(%esp)
    4a2f:	e8 bc ee 00 00       	call   138f0 <service_connect_blocking>
    4a34:	a3 84 2b 02 00       	mov    %eax,0x22b84
    4a39:	e9 ca fe ff ff       	jmp    4908 <loc_service_unregister+0x18>
    4a3e:	66 90                	xchg   %ax,%ax
    4a40:	85 db                	test   %ebx,%ebx
    4a42:	0f 84 27 ff ff ff    	je     496f <loc_service_unregister+0x7f>
    4a48:	89 1d 80 2b 02 00    	mov    %ebx,0x22b80
    4a4e:	e9 1c ff ff ff       	jmp    496f <loc_service_unregister+0x7f>
    4a53:	8d b6 00 00 00 00    	lea    0x0(%esi),%esi
    4a59:	8d bc 27 00 00 00 00 	lea    0x0(%edi,%eiz,1),%edi

00004a60 <loc_service_get_id>:
    4a60:	55                   	push   %ebp
    4a61:	89 e5                	mov    %esp,%ebp
    4a63:	57                   	push   %edi
    4a64:	56                   	push   %esi
    4a65:	53                   	push   %ebx
    4a66:	83 ec 5c             	sub    $0x5c,%esp
    4a69:	8b 75 10             	mov    0x10(%ebp),%esi
    4a6c:	8b 7d 08             	mov    0x8(%ebp),%edi
    4a6f:	f7 c6 01 00 00 00    	test   $0x1,%esi
    4a75:	0f 84 45 01 00 00    	je     4bc0 <loc_service_get_id+0x160>
    4a7b:	c7 04 24 5c 29 02 00 	movl   $0x2295c,(%esp)
    4a82:	e8 c9 59 00 00       	call   a450 <fibril_mutex_lock>
    4a87:	a1 8c 2b 02 00       	mov    0x22b8c,%eax
    4a8c:	85 c0                	test   %eax,%eax
    4a8e:	75 38                	jne    4ac8 <loc_service_get_id+0x68>
    4a90:	c7 04 24 6c 29 02 00 	movl   $0x2296c,(%esp)
    4a97:	8b 1d 88 2b 02 00    	mov    0x22b88,%ebx
    4a9d:	e8 ae 59 00 00       	call   a450 <fibril_mutex_lock>
    4aa2:	a1 8c 2b 02 00       	mov    0x22b8c,%eax
    4aa7:	85 c0                	test   %eax,%eax
    4aa9:	0f 84 f9 00 00 00    	je     4ba8 <loc_service_get_id+0x148>
    4aaf:	c7 04 24 6c 29 02 00 	movl   $0x2296c,(%esp)
    4ab6:	e8 b5 5a 00 00       	call   a570 <fibril_mutex_unlock>
    4abb:	a1 8c 2b 02 00       	mov    0x22b8c,%eax
    4ac0:	85 c0                	test   %eax,%eax
    4ac2:	0f 84 68 01 00 00    	je     4c30 <loc_service_get_id+0x1d0>
    4ac8:	c7 04 24 5c 29 02 00 	movl   $0x2295c,(%esp)
    4acf:	e8 9c 5a 00 00       	call   a570 <fibril_mutex_unlock>
    4ad4:	c7 04 24 6c 29 02 00 	movl   $0x2296c,(%esp)
    4adb:	8b 1d 8c 2b 02 00    	mov    0x22b8c,%ebx
    4ae1:	e8 6a 59 00 00       	call   a450 <fibril_mutex_lock>
    4ae6:	a1 88 2b 02 00       	mov    0x22b88,%eax
    4aeb:	85 c0                	test   %eax,%eax
    4aed:	0f 84 85 01 00 00    	je     4c78 <loc_service_get_id+0x218>
    4af3:	c7 04 24 6c 29 02 00 	movl   $0x2296c,(%esp)
    4afa:	e8 71 5a 00 00       	call   a570 <fibril_mutex_unlock>
    4aff:	a1 8c 2b 02 00       	mov    0x22b8c,%eax
    4b04:	89 04 24             	mov    %eax,(%esp)
    4b07:	e8 94 1a 01 00       	call   165a0 <async_exchange_begin>
    4b0c:	89 c3                	mov    %eax,%ebx
    4b0e:	8d 45 c4             	lea    -0x3c(%ebp),%eax
    4b11:	89 74 24 08          	mov    %esi,0x8(%esp)
    4b15:	89 44 24 18          	mov    %eax,0x18(%esp)
    4b19:	c7 44 24 14 00 00 00 	movl   $0x0,0x14(%esp)
    4b20:	00 
    4b21:	c7 44 24 10 00 00 00 	movl   $0x0,0x10(%esp)
    4b28:	00 
    4b29:	c7 44 24 0c 00 00 00 	movl   $0x0,0xc(%esp)
    4b30:	00 
    4b31:	c7 44 24 04 05 04 00 	movl   $0x405,0x4(%esp)
    4b38:	00 
    4b39:	89 1c 24             	mov    %ebx,(%esp)
    4b3c:	e8 ff 03 01 00       	call   14f40 <async_send_fast>
    4b41:	89 3c 24             	mov    %edi,(%esp)
    4b44:	89 c6                	mov    %eax,%esi
    4b46:	e8 e5 26 00 00       	call   7230 <str_size>
    4b4b:	89 7c 24 04          	mov    %edi,0x4(%esp)
    4b4f:	89 44 24 08          	mov    %eax,0x8(%esp)
    4b53:	89 1c 24             	mov    %ebx,(%esp)
    4b56:	e8 35 29 01 00       	call   17490 <async_data_write_start>
    4b5b:	89 1c 24             	mov    %ebx,(%esp)
    4b5e:	89 45 c0             	mov    %eax,-0x40(%ebp)
    4b61:	e8 aa 1d 01 00       	call   16910 <async_exchange_end>
    4b66:	8b 4d c0             	mov    -0x40(%ebp),%ecx
    4b69:	85 c9                	test   %ecx,%ecx
    4b6b:	0f 85 ef 00 00 00    	jne    4c60 <loc_service_get_id+0x200>
    4b71:	8d 45 c0             	lea    -0x40(%ebp),%eax
    4b74:	89 34 24             	mov    %esi,(%esp)
    4b77:	89 44 24 04          	mov    %eax,0x4(%esp)
    4b7b:	e8 90 05 01 00       	call   15110 <async_wait_for>
    4b80:	8b 45 c0             	mov    -0x40(%ebp),%eax
    4b83:	85 c0                	test   %eax,%eax
    4b85:	0f 84 85 00 00 00    	je     4c10 <loc_service_get_id+0x1b0>
    4b8b:	8b 55 0c             	mov    0xc(%ebp),%edx
    4b8e:	85 d2                	test   %edx,%edx
    4b90:	74 09                	je     4b9b <loc_service_get_id+0x13b>
    4b92:	8b 55 0c             	mov    0xc(%ebp),%edx
    4b95:	c7 02 ff ff ff ff    	movl   $0xffffffff,(%edx)
    4b9b:	83 c4 5c             	add    $0x5c,%esp
    4b9e:	5b                   	pop    %ebx
    4b9f:	5e                   	pop    %esi
    4ba0:	5f                   	pop    %edi
    4ba1:	5d                   	pop    %ebp
    4ba2:	c3                   	ret    
    4ba3:	90                   	nop
    4ba4:	8d 74 26 00          	lea    0x0(%esi,%eiz,1),%esi
    4ba8:	85 db                	test   %ebx,%ebx
    4baa:	0f 84 ff fe ff ff    	je     4aaf <loc_service_get_id+0x4f>
    4bb0:	89 1d 8c 2b 02 00    	mov    %ebx,0x22b8c
    4bb6:	e9 f4 fe ff ff       	jmp    4aaf <loc_service_get_id+0x4f>
    4bbb:	90                   	nop
    4bbc:	8d 74 26 00          	lea    0x0(%esi,%eiz,1),%esi
    4bc0:	c7 04 24 6c 29 02 00 	movl   $0x2296c,(%esp)
    4bc7:	e8 84 58 00 00       	call   a450 <fibril_mutex_lock>
    4bcc:	8b 1d 88 2b 02 00    	mov    0x22b88,%ebx
    4bd2:	85 db                	test   %ebx,%ebx
    4bd4:	0f 84 b1 00 00 00    	je     4c8b <loc_service_get_id+0x22b>
    4bda:	c7 04 24 6c 29 02 00 	movl   $0x2296c,(%esp)
    4be1:	e8 8a 59 00 00       	call   a570 <fibril_mutex_unlock>
    4be6:	a1 88 2b 02 00       	mov    0x22b88,%eax
    4beb:	85 c0                	test   %eax,%eax
    4bed:	74 12                	je     4c01 <loc_service_get_id+0x1a1>
    4bef:	89 04 24             	mov    %eax,(%esp)
    4bf2:	e8 a9 19 01 00       	call   165a0 <async_exchange_begin>
    4bf7:	89 c3                	mov    %eax,%ebx
    4bf9:	85 c0                	test   %eax,%eax
    4bfb:	0f 85 0d ff ff ff    	jne    4b0e <loc_service_get_id+0xae>
    4c01:	e8 1a ed ff ff       	call   3920 <__errno>
    4c06:	8b 00                	mov    (%eax),%eax
    4c08:	eb 91                	jmp    4b9b <loc_service_get_id+0x13b>
    4c0a:	8d b6 00 00 00 00    	lea    0x0(%esi),%esi
    4c10:	8b 45 0c             	mov    0xc(%ebp),%eax
    4c13:	85 c0                	test   %eax,%eax
    4c15:	74 08                	je     4c1f <loc_service_get_id+0x1bf>
    4c17:	8b 55 0c             	mov    0xc(%ebp),%edx
    4c1a:	8b 45 c8             	mov    -0x38(%ebp),%eax
    4c1d:	89 02                	mov    %eax,(%edx)
    4c1f:	83 c4 5c             	add    $0x5c,%esp
    4c22:	31 c0                	xor    %eax,%eax
    4c24:	5b                   	pop    %ebx
    4c25:	5e                   	pop    %esi
    4c26:	5f                   	pop    %edi
    4c27:	5d                   	pop    %ebp
    4c28:	c3                   	ret    
    4c29:	8d b4 26 00 00 00 00 	lea    0x0(%esi,%eiz,1),%esi
    4c30:	c7 44 24 0c 00 00 00 	movl   $0x0,0xc(%esp)
    4c37:	00 
    4c38:	c7 44 24 08 02 00 00 	movl   $0x2,0x8(%esp)
    4c3f:	00 
    4c40:	c7 44 24 04 6c 6f 63 	movl   $0x20636f6c,0x4(%esp)
    4c47:	20 
    4c48:	c7 04 24 02 00 00 00 	movl   $0x2,(%esp)
    4c4f:	e8 9c ec 00 00       	call   138f0 <service_connect_blocking>
    4c54:	a3 8c 2b 02 00       	mov    %eax,0x22b8c
    4c59:	e9 2e fe ff ff       	jmp    4a8c <loc_service_get_id+0x2c>
    4c5e:	66 90                	xchg   %ax,%ax
    4c60:	89 34 24             	mov    %esi,(%esp)
    4c63:	e8 f8 06 01 00       	call   15360 <async_forget>
    4c68:	8b 45 c0             	mov    -0x40(%ebp),%eax
    4c6b:	83 c4 5c             	add    $0x5c,%esp
    4c6e:	5b                   	pop    %ebx
    4c6f:	5e                   	pop    %esi
    4c70:	5f                   	pop    %edi
    4c71:	5d                   	pop    %ebp
    4c72:	c3                   	ret    
    4c73:	90                   	nop
    4c74:	8d 74 26 00          	lea    0x0(%esi,%eiz,1),%esi
    4c78:	85 db                	test   %ebx,%ebx
    4c7a:	0f 84 73 fe ff ff    	je     4af3 <loc_service_get_id+0x93>
    4c80:	89 1d 88 2b 02 00    	mov    %ebx,0x22b88
    4c86:	e9 68 fe ff ff       	jmp    4af3 <loc_service_get_id+0x93>
    4c8b:	c7 44 24 0c 00 00 00 	movl   $0x0,0xc(%esp)
    4c92:	00 
    4c93:	c7 44 24 08 02 00 00 	movl   $0x2,0x8(%esp)
    4c9a:	00 
    4c9b:	c7 44 24 04 6c 6f 63 	movl   $0x20636f6c,0x4(%esp)
    4ca2:	20 
    4ca3:	c7 04 24 02 00 00 00 	movl   $0x2,(%esp)
    4caa:	e8 c1 eb 00 00       	call   13870 <service_connect>
    4caf:	a3 88 2b 02 00       	mov    %eax,0x22b88
    4cb4:	e9 21 ff ff ff       	jmp    4bda <loc_service_get_id+0x17a>
    4cb9:	8d b4 26 00 00 00 00 	lea    0x0(%esi,%eiz,1),%esi

00004cc0 <loc_category_get_name>:
    4cc0:	55                   	push   %ebp
    4cc1:	b8 0b 04 00 00       	mov    $0x40b,%eax
    4cc6:	89 e5                	mov    %esp,%ebp
    4cc8:	8b 4d 0c             	mov    0xc(%ebp),%ecx
    4ccb:	8b 55 08             	mov    0x8(%ebp),%edx
    4cce:	5d                   	pop    %ebp
    4ccf:	e9 6c ed ff ff       	jmp    3a40 <loc_get_name_internal>
    4cd4:	8d b6 00 00 00 00    	lea    0x0(%esi),%esi
    4cda:	8d bf 00 00 00 00    	lea    0x0(%edi),%edi

00004ce0 <loc_service_get_name>:
    4ce0:	55                   	push   %ebp
    4ce1:	b8 06 04 00 00       	mov    $0x406,%eax
    4ce6:	89 e5                	mov    %esp,%ebp
    4ce8:	8b 4d 0c             	mov    0xc(%ebp),%ecx
    4ceb:	8b 55 08             	mov    0x8(%ebp),%edx
    4cee:	5d                   	pop    %ebp
    4cef:	e9 4c ed ff ff       	jmp    3a40 <loc_get_name_internal>
    4cf4:	8d b6 00 00 00 00    	lea    0x0(%esi),%esi
    4cfa:	8d bf 00 00 00 00    	lea    0x0(%edi),%edi

00004d00 <loc_service_get_server_name>:
    4d00:	55                   	push   %ebp
    4d01:	b8 07 04 00 00       	mov    $0x407,%eax
    4d06:	89 e5                	mov    %esp,%ebp
    4d08:	8b 4d 0c             	mov    0xc(%ebp),%ecx
    4d0b:	8b 55 08             	mov    0x8(%ebp),%edx
    4d0e:	5d                   	pop    %ebp
    4d0f:	e9 2c ed ff ff       	jmp    3a40 <loc_get_name_internal>
    4d14:	8d b6 00 00 00 00    	lea    0x0(%esi),%esi
    4d1a:	8d bf 00 00 00 00    	lea    0x0(%edi),%edi

00004d20 <loc_namespace_get_id>:
    4d20:	55                   	push   %ebp
    4d21:	89 e5                	mov    %esp,%ebp
    4d23:	57                   	push   %edi
    4d24:	56                   	push   %esi
    4d25:	53                   	push   %ebx
    4d26:	83 ec 5c             	sub    $0x5c,%esp
    4d29:	8b 75 10             	mov    0x10(%ebp),%esi
    4d2c:	8b 7d 08             	mov    0x8(%ebp),%edi
    4d2f:	f7 c6 01 00 00 00    	test   $0x1,%esi
    4d35:	0f 84 45 01 00 00    	je     4e80 <loc_namespace_get_id+0x160>
    4d3b:	c7 04 24 5c 29 02 00 	movl   $0x2295c,(%esp)
    4d42:	e8 09 57 00 00       	call   a450 <fibril_mutex_lock>
    4d47:	a1 8c 2b 02 00       	mov    0x22b8c,%eax
    4d4c:	85 c0                	test   %eax,%eax
    4d4e:	75 38                	jne    4d88 <loc_namespace_get_id+0x68>
    4d50:	c7 04 24 6c 29 02 00 	movl   $0x2296c,(%esp)
    4d57:	8b 1d 88 2b 02 00    	mov    0x22b88,%ebx
    4d5d:	e8 ee 56 00 00       	call   a450 <fibril_mutex_lock>
    4d62:	a1 8c 2b 02 00       	mov    0x22b8c,%eax
    4d67:	85 c0                	test   %eax,%eax
    4d69:	0f 84 f9 00 00 00    	je     4e68 <loc_namespace_get_id+0x148>
    4d6f:	c7 04 24 6c 29 02 00 	movl   $0x2296c,(%esp)
    4d76:	e8 f5 57 00 00       	call   a570 <fibril_mutex_unlock>
    4d7b:	a1 8c 2b 02 00       	mov    0x22b8c,%eax
    4d80:	85 c0                	test   %eax,%eax
    4d82:	0f 84 68 01 00 00    	je     4ef0 <loc_namespace_get_id+0x1d0>
    4d88:	c7 04 24 5c 29 02 00 	movl   $0x2295c,(%esp)
    4d8f:	e8 dc 57 00 00       	call   a570 <fibril_mutex_unlock>
    4d94:	c7 04 24 6c 29 02 00 	movl   $0x2296c,(%esp)
    4d9b:	8b 1d 8c 2b 02 00    	mov    0x22b8c,%ebx
    4da1:	e8 aa 56 00 00       	call   a450 <fibril_mutex_lock>
    4da6:	a1 88 2b 02 00       	mov    0x22b88,%eax
    4dab:	85 c0                	test   %eax,%eax
    4dad:	0f 84 85 01 00 00    	je     4f38 <loc_namespace_get_id+0x218>
    4db3:	c7 04 24 6c 29 02 00 	movl   $0x2296c,(%esp)
    4dba:	e8 b1 57 00 00       	call   a570 <fibril_mutex_unlock>
    4dbf:	a1 8c 2b 02 00       	mov    0x22b8c,%eax
    4dc4:	89 04 24             	mov    %eax,(%esp)
    4dc7:	e8 d4 17 01 00       	call   165a0 <async_exchange_begin>
    4dcc:	89 c3                	mov    %eax,%ebx
    4dce:	8d 45 c4             	lea    -0x3c(%ebp),%eax
    4dd1:	89 74 24 08          	mov    %esi,0x8(%esp)
    4dd5:	89 44 24 18          	mov    %eax,0x18(%esp)
    4dd9:	c7 44 24 14 00 00 00 	movl   $0x0,0x14(%esp)
    4de0:	00 
    4de1:	c7 44 24 10 00 00 00 	movl   $0x0,0x10(%esp)
    4de8:	00 
    4de9:	c7 44 24 0c 00 00 00 	movl   $0x0,0xc(%esp)
    4df0:	00 
    4df1:	c7 44 24 04 08 04 00 	movl   $0x408,0x4(%esp)
    4df8:	00 
    4df9:	89 1c 24             	mov    %ebx,(%esp)
    4dfc:	e8 3f 01 01 00       	call   14f40 <async_send_fast>
    4e01:	89 3c 24             	mov    %edi,(%esp)
    4e04:	89 c6                	mov    %eax,%esi
    4e06:	e8 25 24 00 00       	call   7230 <str_size>
    4e0b:	89 7c 24 04          	mov    %edi,0x4(%esp)
    4e0f:	89 44 24 08          	mov    %eax,0x8(%esp)
    4e13:	89 1c 24             	mov    %ebx,(%esp)
    4e16:	e8 75 26 01 00       	call   17490 <async_data_write_start>
    4e1b:	89 1c 24             	mov    %ebx,(%esp)
    4e1e:	89 45 c0             	mov    %eax,-0x40(%ebp)
    4e21:	e8 ea 1a 01 00       	call   16910 <async_exchange_end>
    4e26:	8b 4d c0             	mov    -0x40(%ebp),%ecx
    4e29:	85 c9                	test   %ecx,%ecx
    4e2b:	0f 85 ef 00 00 00    	jne    4f20 <loc_namespace_get_id+0x200>
    4e31:	8d 45 c0             	lea    -0x40(%ebp),%eax
    4e34:	89 34 24             	mov    %esi,(%esp)
    4e37:	89 44 24 04          	mov    %eax,0x4(%esp)
    4e3b:	e8 d0 02 01 00       	call   15110 <async_wait_for>
    4e40:	8b 45 c0             	mov    -0x40(%ebp),%eax
    4e43:	85 c0                	test   %eax,%eax
    4e45:	0f 84 85 00 00 00    	je     4ed0 <loc_namespace_get_id+0x1b0>
    4e4b:	8b 55 0c             	mov    0xc(%ebp),%edx
    4e4e:	85 d2                	test   %edx,%edx
    4e50:	74 09                	je     4e5b <loc_namespace_get_id+0x13b>
    4e52:	8b 55 0c             	mov    0xc(%ebp),%edx
    4e55:	c7 02 ff ff ff ff    	movl   $0xffffffff,(%edx)
    4e5b:	83 c4 5c             	add    $0x5c,%esp
    4e5e:	5b                   	pop    %ebx
    4e5f:	5e                   	pop    %esi
    4e60:	5f                   	pop    %edi
    4e61:	5d                   	pop    %ebp
    4e62:	c3                   	ret    
    4e63:	90                   	nop
    4e64:	8d 74 26 00          	lea    0x0(%esi,%eiz,1),%esi
    4e68:	85 db                	test   %ebx,%ebx
    4e6a:	0f 84 ff fe ff ff    	je     4d6f <loc_namespace_get_id+0x4f>
    4e70:	89 1d 8c 2b 02 00    	mov    %ebx,0x22b8c
    4e76:	e9 f4 fe ff ff       	jmp    4d6f <loc_namespace_get_id+0x4f>
    4e7b:	90                   	nop
    4e7c:	8d 74 26 00          	lea    0x0(%esi,%eiz,1),%esi
    4e80:	c7 04 24 6c 29 02 00 	movl   $0x2296c,(%esp)
    4e87:	e8 c4 55 00 00       	call   a450 <fibril_mutex_lock>
    4e8c:	8b 1d 88 2b 02 00    	mov    0x22b88,%ebx
    4e92:	85 db                	test   %ebx,%ebx
    4e94:	0f 84 b1 00 00 00    	je     4f4b <loc_namespace_get_id+0x22b>
    4e9a:	c7 04 24 6c 29 02 00 	movl   $0x2296c,(%esp)
    4ea1:	e8 ca 56 00 00       	call   a570 <fibril_mutex_unlock>
    4ea6:	a1 88 2b 02 00       	mov    0x22b88,%eax
    4eab:	85 c0                	test   %eax,%eax
    4ead:	74 12                	je     4ec1 <loc_namespace_get_id+0x1a1>
    4eaf:	89 04 24             	mov    %eax,(%esp)
    4eb2:	e8 e9 16 01 00       	call   165a0 <async_exchange_begin>
    4eb7:	89 c3                	mov    %eax,%ebx
    4eb9:	85 c0                	test   %eax,%eax
    4ebb:	0f 85 0d ff ff ff    	jne    4dce <loc_namespace_get_id+0xae>
    4ec1:	e8 5a ea ff ff       	call   3920 <__errno>
    4ec6:	8b 00                	mov    (%eax),%eax
    4ec8:	eb 91                	jmp    4e5b <loc_namespace_get_id+0x13b>
    4eca:	8d b6 00 00 00 00    	lea    0x0(%esi),%esi
    4ed0:	8b 45 0c             	mov    0xc(%ebp),%eax
    4ed3:	85 c0                	test   %eax,%eax
    4ed5:	74 08                	je     4edf <loc_namespace_get_id+0x1bf>
    4ed7:	8b 55 0c             	mov    0xc(%ebp),%edx
    4eda:	8b 45 c8             	mov    -0x38(%ebp),%eax
    4edd:	89 02                	mov    %eax,(%edx)
    4edf:	83 c4 5c             	add    $0x5c,%esp
    4ee2:	31 c0                	xor    %eax,%eax
    4ee4:	5b                   	pop    %ebx
    4ee5:	5e                   	pop    %esi
    4ee6:	5f                   	pop    %edi
    4ee7:	5d                   	pop    %ebp
    4ee8:	c3                   	ret    
    4ee9:	8d b4 26 00 00 00 00 	lea    0x0(%esi,%eiz,1),%esi
    4ef0:	c7 44 24 0c 00 00 00 	movl   $0x0,0xc(%esp)
    4ef7:	00 
    4ef8:	c7 44 24 08 02 00 00 	movl   $0x2,0x8(%esp)
    4eff:	00 
    4f00:	c7 44 24 04 6c 6f 63 	movl   $0x20636f6c,0x4(%esp)
    4f07:	20 
    4f08:	c7 04 24 02 00 00 00 	movl   $0x2,(%esp)
    4f0f:	e8 dc e9 00 00       	call   138f0 <service_connect_blocking>
    4f14:	a3 8c 2b 02 00       	mov    %eax,0x22b8c
    4f19:	e9 2e fe ff ff       	jmp    4d4c <loc_namespace_get_id+0x2c>
    4f1e:	66 90                	xchg   %ax,%ax
    4f20:	89 34 24             	mov    %esi,(%esp)
    4f23:	e8 38 04 01 00       	call   15360 <async_forget>
    4f28:	8b 45 c0             	mov    -0x40(%ebp),%eax
    4f2b:	83 c4 5c             	add    $0x5c,%esp
    4f2e:	5b                   	pop    %ebx
    4f2f:	5e                   	pop    %esi
    4f30:	5f                   	pop    %edi
    4f31:	5d                   	pop    %ebp
    4f32:	c3                   	ret    
    4f33:	90                   	nop
    4f34:	8d 74 26 00          	lea    0x0(%esi,%eiz,1),%esi
    4f38:	85 db                	test   %ebx,%ebx
    4f3a:	0f 84 73 fe ff ff    	je     4db3 <loc_namespace_get_id+0x93>
    4f40:	89 1d 88 2b 02 00    	mov    %ebx,0x22b88
    4f46:	e9 68 fe ff ff       	jmp    4db3 <loc_namespace_get_id+0x93>
    4f4b:	c7 44 24 0c 00 00 00 	movl   $0x0,0xc(%esp)
    4f52:	00 
    4f53:	c7 44 24 08 02 00 00 	movl   $0x2,0x8(%esp)
    4f5a:	00 
    4f5b:	c7 44 24 04 6c 6f 63 	movl   $0x20636f6c,0x4(%esp)
    4f62:	20 
    4f63:	c7 04 24 02 00 00 00 	movl   $0x2,(%esp)
    4f6a:	e8 01 e9 00 00       	call   13870 <service_connect>
    4f6f:	a3 88 2b 02 00       	mov    %eax,0x22b88
    4f74:	e9 21 ff ff ff       	jmp    4e9a <loc_namespace_get_id+0x17a>
    4f79:	8d b4 26 00 00 00 00 	lea    0x0(%esi,%eiz,1),%esi

00004f80 <loc_category_get_id>:
    4f80:	55                   	push   %ebp
    4f81:	89 e5                	mov    %esp,%ebp
    4f83:	57                   	push   %edi
    4f84:	56                   	push   %esi
    4f85:	53                   	push   %ebx
    4f86:	83 ec 5c             	sub    $0x5c,%esp
    4f89:	8b 75 08             	mov    0x8(%ebp),%esi
    4f8c:	f6 45 10 01          	testb  $0x1,0x10(%ebp)
    4f90:	0f 84 4a 01 00 00    	je     50e0 <loc_category_get_id+0x160>
    4f96:	c7 04 24 5c 29 02 00 	movl   $0x2295c,(%esp)
    4f9d:	e8 ae 54 00 00       	call   a450 <fibril_mutex_lock>
    4fa2:	a1 8c 2b 02 00       	mov    0x22b8c,%eax
    4fa7:	85 c0                	test   %eax,%eax
    4fa9:	75 38                	jne    4fe3 <loc_category_get_id+0x63>
    4fab:	c7 04 24 6c 29 02 00 	movl   $0x2296c,(%esp)
    4fb2:	8b 1d 88 2b 02 00    	mov    0x22b88,%ebx
    4fb8:	e8 93 54 00 00       	call   a450 <fibril_mutex_lock>
    4fbd:	a1 8c 2b 02 00       	mov    0x22b8c,%eax
    4fc2:	85 c0                	test   %eax,%eax
    4fc4:	0f 84 fe 00 00 00    	je     50c8 <loc_category_get_id+0x148>
    4fca:	c7 04 24 6c 29 02 00 	movl   $0x2296c,(%esp)
    4fd1:	e8 9a 55 00 00       	call   a570 <fibril_mutex_unlock>
    4fd6:	a1 8c 2b 02 00       	mov    0x22b8c,%eax
    4fdb:	85 c0                	test   %eax,%eax
    4fdd:	0f 84 6d 01 00 00    	je     5150 <loc_category_get_id+0x1d0>
    4fe3:	c7 04 24 5c 29 02 00 	movl   $0x2295c,(%esp)
    4fea:	e8 81 55 00 00       	call   a570 <fibril_mutex_unlock>
    4fef:	c7 04 24 6c 29 02 00 	movl   $0x2296c,(%esp)
    4ff6:	8b 1d 8c 2b 02 00    	mov    0x22b8c,%ebx
    4ffc:	e8 4f 54 00 00       	call   a450 <fibril_mutex_lock>
    5001:	8b 3d 88 2b 02 00    	mov    0x22b88,%edi
    5007:	85 ff                	test   %edi,%edi
    5009:	0f 84 89 01 00 00    	je     5198 <loc_category_get_id+0x218>
    500f:	c7 04 24 6c 29 02 00 	movl   $0x2296c,(%esp)
    5016:	e8 55 55 00 00       	call   a570 <fibril_mutex_unlock>
    501b:	a1 8c 2b 02 00       	mov    0x22b8c,%eax
    5020:	89 04 24             	mov    %eax,(%esp)
    5023:	e8 78 15 01 00       	call   165a0 <async_exchange_begin>
    5028:	89 c3                	mov    %eax,%ebx
    502a:	8d 45 c4             	lea    -0x3c(%ebp),%eax
    502d:	c7 44 24 14 00 00 00 	movl   $0x0,0x14(%esp)
    5034:	00 
    5035:	89 44 24 18          	mov    %eax,0x18(%esp)
    5039:	c7 44 24 10 00 00 00 	movl   $0x0,0x10(%esp)
    5040:	00 
    5041:	c7 44 24 0c 00 00 00 	movl   $0x0,0xc(%esp)
    5048:	00 
    5049:	c7 44 24 08 00 00 00 	movl   $0x0,0x8(%esp)
    5050:	00 
    5051:	c7 44 24 04 0a 04 00 	movl   $0x40a,0x4(%esp)
    5058:	00 
    5059:	89 1c 24             	mov    %ebx,(%esp)
    505c:	e8 df fe 00 00       	call   14f40 <async_send_fast>
    5061:	89 34 24             	mov    %esi,(%esp)
    5064:	89 c7                	mov    %eax,%edi
    5066:	e8 c5 21 00 00       	call   7230 <str_size>
    506b:	89 74 24 04          	mov    %esi,0x4(%esp)
    506f:	89 44 24 08          	mov    %eax,0x8(%esp)
    5073:	89 1c 24             	mov    %ebx,(%esp)
    5076:	e8 15 24 01 00       	call   17490 <async_data_write_start>
    507b:	89 1c 24             	mov    %ebx,(%esp)
    507e:	89 45 c0             	mov    %eax,-0x40(%ebp)
    5081:	e8 8a 18 01 00       	call   16910 <async_exchange_end>
    5086:	8b 4d c0             	mov    -0x40(%ebp),%ecx
    5089:	85 c9                	test   %ecx,%ecx
    508b:	0f 85 ef 00 00 00    	jne    5180 <loc_category_get_id+0x200>
    5091:	8d 45 c0             	lea    -0x40(%ebp),%eax
    5094:	89 3c 24             	mov    %edi,(%esp)
    5097:	89 44 24 04          	mov    %eax,0x4(%esp)
    509b:	e8 70 00 01 00       	call   15110 <async_wait_for>
    50a0:	8b 45 c0             	mov    -0x40(%ebp),%eax
    50a3:	85 c0                	test   %eax,%eax
    50a5:	0f 84 85 00 00 00    	je     5130 <loc_category_get_id+0x1b0>
    50ab:	8b 55 0c             	mov    0xc(%ebp),%edx
    50ae:	85 d2                	test   %edx,%edx
    50b0:	74 09                	je     50bb <loc_category_get_id+0x13b>
    50b2:	8b 55 0c             	mov    0xc(%ebp),%edx
    50b5:	c7 02 ff ff ff ff    	movl   $0xffffffff,(%edx)
    50bb:	83 c4 5c             	add    $0x5c,%esp
    50be:	5b                   	pop    %ebx
    50bf:	5e                   	pop    %esi
    50c0:	5f                   	pop    %edi
    50c1:	5d                   	pop    %ebp
    50c2:	c3                   	ret    
    50c3:	90                   	nop
    50c4:	8d 74 26 00          	lea    0x0(%esi,%eiz,1),%esi
    50c8:	85 db                	test   %ebx,%ebx
    50ca:	0f 84 fa fe ff ff    	je     4fca <loc_category_get_id+0x4a>
    50d0:	89 1d 8c 2b 02 00    	mov    %ebx,0x22b8c
    50d6:	e9 ef fe ff ff       	jmp    4fca <loc_category_get_id+0x4a>
    50db:	90                   	nop
    50dc:	8d 74 26 00          	lea    0x0(%esi,%eiz,1),%esi
    50e0:	c7 04 24 6c 29 02 00 	movl   $0x2296c,(%esp)
    50e7:	e8 64 53 00 00       	call   a450 <fibril_mutex_lock>
    50ec:	8b 1d 88 2b 02 00    	mov    0x22b88,%ebx
    50f2:	85 db                	test   %ebx,%ebx
    50f4:	0f 84 b1 00 00 00    	je     51ab <loc_category_get_id+0x22b>
    50fa:	c7 04 24 6c 29 02 00 	movl   $0x2296c,(%esp)
    5101:	e8 6a 54 00 00       	call   a570 <fibril_mutex_unlock>
    5106:	a1 88 2b 02 00       	mov    0x22b88,%eax
    510b:	85 c0                	test   %eax,%eax
    510d:	74 12                	je     5121 <loc_category_get_id+0x1a1>
    510f:	89 04 24             	mov    %eax,(%esp)
    5112:	e8 89 14 01 00       	call   165a0 <async_exchange_begin>
    5117:	89 c3                	mov    %eax,%ebx
    5119:	85 c0                	test   %eax,%eax
    511b:	0f 85 09 ff ff ff    	jne    502a <loc_category_get_id+0xaa>
    5121:	e8 fa e7 ff ff       	call   3920 <__errno>
    5126:	8b 00                	mov    (%eax),%eax
    5128:	eb 91                	jmp    50bb <loc_category_get_id+0x13b>
    512a:	8d b6 00 00 00 00    	lea    0x0(%esi),%esi
    5130:	8b 45 0c             	mov    0xc(%ebp),%eax
    5133:	85 c0                	test   %eax,%eax
    5135:	74 08                	je     513f <loc_category_get_id+0x1bf>
    5137:	8b 55 0c             	mov    0xc(%ebp),%edx
    513a:	8b 45 c8             	mov    -0x38(%ebp),%eax
    513d:	89 02                	mov    %eax,(%edx)
    513f:	83 c4 5c             	add    $0x5c,%esp
    5142:	31 c0                	xor    %eax,%eax
    5144:	5b                   	pop    %ebx
    5145:	5e                   	pop    %esi
    5146:	5f                   	pop    %edi
    5147:	5d                   	pop    %ebp
    5148:	c3                   	ret    
    5149:	8d b4 26 00 00 00 00 	lea    0x0(%esi,%eiz,1),%esi
    5150:	c7 44 24 0c 00 00 00 	movl   $0x0,0xc(%esp)
    5157:	00 
    5158:	c7 44 24 08 02 00 00 	movl   $0x2,0x8(%esp)
    515f:	00 
    5160:	c7 44 24 04 6c 6f 63 	movl   $0x20636f6c,0x4(%esp)
    5167:	20 
    5168:	c7 04 24 02 00 00 00 	movl   $0x2,(%esp)
    516f:	e8 7c e7 00 00       	call   138f0 <service_connect_blocking>
    5174:	a3 8c 2b 02 00       	mov    %eax,0x22b8c
    5179:	e9 29 fe ff ff       	jmp    4fa7 <loc_category_get_id+0x27>
    517e:	66 90                	xchg   %ax,%ax
    5180:	89 3c 24             	mov    %edi,(%esp)
    5183:	e8 d8 01 01 00       	call   15360 <async_forget>
    5188:	8b 45 c0             	mov    -0x40(%ebp),%eax
    518b:	83 c4 5c             	add    $0x5c,%esp
    518e:	5b                   	pop    %ebx
    518f:	5e                   	pop    %esi
    5190:	5f                   	pop    %edi
    5191:	5d                   	pop    %ebp
    5192:	c3                   	ret    
    5193:	90                   	nop
    5194:	8d 74 26 00          	lea    0x0(%esi,%eiz,1),%esi
    5198:	85 db                	test   %ebx,%ebx
    519a:	0f 84 6f fe ff ff    	je     500f <loc_category_get_id+0x8f>
    51a0:	89 1d 88 2b 02 00    	mov    %ebx,0x22b88
    51a6:	e9 64 fe ff ff       	jmp    500f <loc_category_get_id+0x8f>
    51ab:	c7 44 24 0c 00 00 00 	movl   $0x0,0xc(%esp)
    51b2:	00 
    51b3:	c7 44 24 08 02 00 00 	movl   $0x2,0x8(%esp)
    51ba:	00 
    51bb:	c7 44 24 04 6c 6f 63 	movl   $0x20636f6c,0x4(%esp)
    51c2:	20 
    51c3:	c7 04 24 02 00 00 00 	movl   $0x2,(%esp)
    51ca:	e8 a1 e6 00 00       	call   13870 <service_connect>
    51cf:	a3 88 2b 02 00       	mov    %eax,0x22b88
    51d4:	e9 21 ff ff ff       	jmp    50fa <loc_category_get_id+0x17a>
    51d9:	8d b4 26 00 00 00 00 	lea    0x0(%esi,%eiz,1),%esi

000051e0 <loc_id_probe>:
    51e0:	55                   	push   %ebp
    51e1:	89 e5                	mov    %esp,%ebp
    51e3:	56                   	push   %esi
    51e4:	53                   	push   %ebx
    51e5:	83 ec 40             	sub    $0x40,%esp
    51e8:	c7 04 24 5c 29 02 00 	movl   $0x2295c,(%esp)
    51ef:	e8 5c 52 00 00       	call   a450 <fibril_mutex_lock>
    51f4:	a1 8c 2b 02 00       	mov    0x22b8c,%eax
    51f9:	85 c0                	test   %eax,%eax
    51fb:	75 38                	jne    5235 <loc_id_probe+0x55>
    51fd:	c7 04 24 6c 29 02 00 	movl   $0x2296c,(%esp)
    5204:	8b 1d 88 2b 02 00    	mov    0x22b88,%ebx
    520a:	e8 41 52 00 00       	call   a450 <fibril_mutex_lock>
    520f:	a1 8c 2b 02 00       	mov    0x22b8c,%eax
    5214:	85 c0                	test   %eax,%eax
    5216:	0f 84 d4 00 00 00    	je     52f0 <loc_id_probe+0x110>
    521c:	c7 04 24 6c 29 02 00 	movl   $0x2296c,(%esp)
    5223:	e8 48 53 00 00       	call   a570 <fibril_mutex_unlock>
    5228:	a1 8c 2b 02 00       	mov    0x22b8c,%eax
    522d:	85 c0                	test   %eax,%eax
    522f:	0f 84 d3 00 00 00    	je     5308 <loc_id_probe+0x128>
    5235:	c7 04 24 5c 29 02 00 	movl   $0x2295c,(%esp)
    523c:	e8 2f 53 00 00       	call   a570 <fibril_mutex_unlock>
    5241:	c7 04 24 6c 29 02 00 	movl   $0x2296c,(%esp)
    5248:	8b 1d 8c 2b 02 00    	mov    0x22b8c,%ebx
    524e:	e8 fd 51 00 00       	call   a450 <fibril_mutex_lock>
    5253:	a1 88 2b 02 00       	mov    0x22b88,%eax
    5258:	85 c0                	test   %eax,%eax
    525a:	0f 84 d8 00 00 00    	je     5338 <loc_id_probe+0x158>
    5260:	c7 04 24 6c 29 02 00 	movl   $0x2296c,(%esp)
    5267:	e8 04 53 00 00       	call   a570 <fibril_mutex_unlock>
    526c:	a1 8c 2b 02 00       	mov    0x22b8c,%eax
    5271:	89 04 24             	mov    %eax,(%esp)
    5274:	e8 27 13 01 00       	call   165a0 <async_exchange_begin>
    5279:	c7 44 24 28 00 00 00 	movl   $0x0,0x28(%esp)
    5280:	00 
    5281:	89 c3                	mov    %eax,%ebx
    5283:	8d 45 f4             	lea    -0xc(%ebp),%eax
    5286:	89 44 24 18          	mov    %eax,0x18(%esp)
    528a:	8b 45 08             	mov    0x8(%ebp),%eax
    528d:	c7 44 24 24 00 00 00 	movl   $0x0,0x24(%esp)
    5294:	00 
    5295:	c7 44 24 20 00 00 00 	movl   $0x0,0x20(%esp)
    529c:	00 
    529d:	c7 44 24 1c 00 00 00 	movl   $0x0,0x1c(%esp)
    52a4:	00 
    52a5:	c7 44 24 14 00 00 00 	movl   $0x0,0x14(%esp)
    52ac:	00 
    52ad:	c7 44 24 10 00 00 00 	movl   $0x0,0x10(%esp)
    52b4:	00 
    52b5:	c7 44 24 0c 00 00 00 	movl   $0x0,0xc(%esp)
    52bc:	00 
    52bd:	89 44 24 08          	mov    %eax,0x8(%esp)
    52c1:	c7 44 24 04 0d 04 00 	movl   $0x40d,0x4(%esp)
    52c8:	00 
    52c9:	89 1c 24             	mov    %ebx,(%esp)
    52cc:	e8 7f 02 01 00       	call   15550 <async_req_fast>
    52d1:	89 1c 24             	mov    %ebx,(%esp)
    52d4:	89 c6                	mov    %eax,%esi
    52d6:	e8 35 16 01 00       	call   16910 <async_exchange_end>
    52db:	31 c0                	xor    %eax,%eax
    52dd:	85 f6                	test   %esi,%esi
    52df:	75 03                	jne    52e4 <loc_id_probe+0x104>
    52e1:	8b 45 f4             	mov    -0xc(%ebp),%eax
    52e4:	83 c4 40             	add    $0x40,%esp
    52e7:	5b                   	pop    %ebx
    52e8:	5e                   	pop    %esi
    52e9:	5d                   	pop    %ebp
    52ea:	c3                   	ret    
    52eb:	90                   	nop
    52ec:	8d 74 26 00          	lea    0x0(%esi,%eiz,1),%esi
    52f0:	85 db                	test   %ebx,%ebx
    52f2:	0f 84 24 ff ff ff    	je     521c <loc_id_probe+0x3c>
    52f8:	89 1d 8c 2b 02 00    	mov    %ebx,0x22b8c
    52fe:	e9 19 ff ff ff       	jmp    521c <loc_id_probe+0x3c>
    5303:	90                   	nop
    5304:	8d 74 26 00          	lea    0x0(%esi,%eiz,1),%esi
    5308:	c7 44 24 0c 00 00 00 	movl   $0x0,0xc(%esp)
    530f:	00 
    5310:	c7 44 24 08 02 00 00 	movl   $0x2,0x8(%esp)
    5317:	00 
    5318:	c7 44 24 04 6c 6f 63 	movl   $0x20636f6c,0x4(%esp)
    531f:	20 
    5320:	c7 04 24 02 00 00 00 	movl   $0x2,(%esp)
    5327:	e8 c4 e5 00 00       	call   138f0 <service_connect_blocking>
    532c:	a3 8c 2b 02 00       	mov    %eax,0x22b8c
    5331:	e9 c3 fe ff ff       	jmp    51f9 <loc_id_probe+0x19>
    5336:	66 90                	xchg   %ax,%ax
    5338:	85 db                	test   %ebx,%ebx
    533a:	0f 84 20 ff ff ff    	je     5260 <loc_id_probe+0x80>
    5340:	89 1d 88 2b 02 00    	mov    %ebx,0x22b88
    5346:	e9 15 ff ff ff       	jmp    5260 <loc_id_probe+0x80>
    534b:	90                   	nop
    534c:	8d 74 26 00          	lea    0x0(%esi,%eiz,1),%esi

00005350 <loc_service_connect>:
    5350:	55                   	push   %ebp
    5351:	89 e5                	mov    %esp,%ebp
    5353:	83 ec 18             	sub    $0x18,%esp
    5356:	8b 45 08             	mov    0x8(%ebp),%eax
    5359:	8b 55 0c             	mov    0xc(%ebp),%edx
    535c:	f6 45 10 01          	testb  $0x1,0x10(%ebp)
    5360:	89 54 24 0c          	mov    %edx,0xc(%esp)
    5364:	c7 44 24 08 03 00 00 	movl   $0x3,0x8(%esp)
    536b:	00 
    536c:	c7 44 24 04 6c 6f 63 	movl   $0x20636f6c,0x4(%esp)
    5373:	20 
    5374:	89 04 24             	mov    %eax,(%esp)
    5377:	75 07                	jne    5380 <loc_service_connect+0x30>
    5379:	e8 f2 e4 00 00       	call   13870 <service_connect>
    537e:	c9                   	leave  
    537f:	c3                   	ret    
    5380:	e8 6b e5 00 00       	call   138f0 <service_connect_blocking>
    5385:	c9                   	leave  
    5386:	c3                   	ret    
    5387:	89 f6                	mov    %esi,%esi
    5389:	8d bc 27 00 00 00 00 	lea    0x0(%edi,%eiz,1),%edi

00005390 <loc_null_create>:
    5390:	55                   	push   %ebp
    5391:	89 e5                	mov    %esp,%ebp
    5393:	56                   	push   %esi
    5394:	53                   	push   %ebx
    5395:	83 ec 40             	sub    $0x40,%esp
    5398:	c7 04 24 5c 29 02 00 	movl   $0x2295c,(%esp)
    539f:	e8 ac 50 00 00       	call   a450 <fibril_mutex_lock>
    53a4:	a1 8c 2b 02 00       	mov    0x22b8c,%eax
    53a9:	85 c0                	test   %eax,%eax
    53ab:	75 3a                	jne    53e7 <loc_null_create+0x57>
    53ad:	c7 04 24 6c 29 02 00 	movl   $0x2296c,(%esp)
    53b4:	8b 1d 88 2b 02 00    	mov    0x22b88,%ebx
    53ba:	e8 91 50 00 00       	call   a450 <fibril_mutex_lock>
    53bf:	8b 0d 8c 2b 02 00    	mov    0x22b8c,%ecx
    53c5:	85 c9                	test   %ecx,%ecx
    53c7:	0f 84 d3 00 00 00    	je     54a0 <loc_null_create+0x110>
    53cd:	c7 04 24 6c 29 02 00 	movl   $0x2296c,(%esp)
    53d4:	e8 97 51 00 00       	call   a570 <fibril_mutex_unlock>
    53d9:	8b 15 8c 2b 02 00    	mov    0x22b8c,%edx
    53df:	85 d2                	test   %edx,%edx
    53e1:	0f 84 d1 00 00 00    	je     54b8 <loc_null_create+0x128>
    53e7:	c7 04 24 5c 29 02 00 	movl   $0x2295c,(%esp)
    53ee:	e8 7d 51 00 00       	call   a570 <fibril_mutex_unlock>
    53f3:	c7 04 24 6c 29 02 00 	movl   $0x2296c,(%esp)
    53fa:	8b 1d 8c 2b 02 00    	mov    0x22b8c,%ebx
    5400:	e8 4b 50 00 00       	call   a450 <fibril_mutex_lock>
    5405:	a1 88 2b 02 00       	mov    0x22b88,%eax
    540a:	85 c0                	test   %eax,%eax
    540c:	0f 84 d6 00 00 00    	je     54e8 <loc_null_create+0x158>
    5412:	c7 04 24 6c 29 02 00 	movl   $0x2296c,(%esp)
    5419:	e8 52 51 00 00       	call   a570 <fibril_mutex_unlock>
    541e:	a1 8c 2b 02 00       	mov    0x22b8c,%eax
    5423:	89 04 24             	mov    %eax,(%esp)
    5426:	e8 75 11 01 00       	call   165a0 <async_exchange_begin>
    542b:	c7 44 24 28 00 00 00 	movl   $0x0,0x28(%esp)
    5432:	00 
    5433:	89 c3                	mov    %eax,%ebx
    5435:	8d 45 f4             	lea    -0xc(%ebp),%eax
    5438:	c7 44 24 24 00 00 00 	movl   $0x0,0x24(%esp)
    543f:	00 
    5440:	c7 44 24 20 00 00 00 	movl   $0x0,0x20(%esp)
    5447:	00 
    5448:	c7 44 24 1c 00 00 00 	movl   $0x0,0x1c(%esp)
    544f:	00 
    5450:	89 44 24 18          	mov    %eax,0x18(%esp)
    5454:	c7 44 24 14 00 00 00 	movl   $0x0,0x14(%esp)
    545b:	00 
    545c:	c7 44 24 10 00 00 00 	movl   $0x0,0x10(%esp)
    5463:	00 
    5464:	c7 44 24 0c 00 00 00 	movl   $0x0,0xc(%esp)
    546b:	00 
    546c:	c7 44 24 08 00 00 00 	movl   $0x0,0x8(%esp)
    5473:	00 
    5474:	c7 44 24 04 0e 04 00 	movl   $0x40e,0x4(%esp)
    547b:	00 
    547c:	89 1c 24             	mov    %ebx,(%esp)
    547f:	e8 cc 00 01 00       	call   15550 <async_req_fast>
    5484:	89 1c 24             	mov    %ebx,(%esp)
    5487:	89 c6                	mov    %eax,%esi
    5489:	e8 82 14 01 00       	call   16910 <async_exchange_end>
    548e:	85 f6                	test   %esi,%esi
    5490:	75 69                	jne    54fb <loc_null_create+0x16b>
    5492:	8b 45 f4             	mov    -0xc(%ebp),%eax
    5495:	83 c4 40             	add    $0x40,%esp
    5498:	5b                   	pop    %ebx
    5499:	5e                   	pop    %esi
    549a:	5d                   	pop    %ebp
    549b:	c3                   	ret    
    549c:	8d 74 26 00          	lea    0x0(%esi,%eiz,1),%esi
    54a0:	85 db                	test   %ebx,%ebx
    54a2:	0f 84 25 ff ff ff    	je     53cd <loc_null_create+0x3d>
    54a8:	89 1d 8c 2b 02 00    	mov    %ebx,0x22b8c
    54ae:	e9 1a ff ff ff       	jmp    53cd <loc_null_create+0x3d>
    54b3:	90                   	nop
    54b4:	8d 74 26 00          	lea    0x0(%esi,%eiz,1),%esi
    54b8:	c7 44 24 0c 00 00 00 	movl   $0x0,0xc(%esp)
    54bf:	00 
    54c0:	c7 44 24 08 02 00 00 	movl   $0x2,0x8(%esp)
    54c7:	00 
    54c8:	c7 44 24 04 6c 6f 63 	movl   $0x20636f6c,0x4(%esp)
    54cf:	20 
    54d0:	c7 04 24 02 00 00 00 	movl   $0x2,(%esp)
    54d7:	e8 14 e4 00 00       	call   138f0 <service_connect_blocking>
    54dc:	a3 8c 2b 02 00       	mov    %eax,0x22b8c
    54e1:	e9 c3 fe ff ff       	jmp    53a9 <loc_null_create+0x19>
    54e6:	66 90                	xchg   %ax,%ax
    54e8:	85 db                	test   %ebx,%ebx
    54ea:	0f 84 22 ff ff ff    	je     5412 <loc_null_create+0x82>
    54f0:	89 1d 88 2b 02 00    	mov    %ebx,0x22b88
    54f6:	e9 17 ff ff ff       	jmp    5412 <loc_null_create+0x82>
    54fb:	83 c8 ff             	or     $0xffffffff,%eax
    54fe:	eb 95                	jmp    5495 <loc_null_create+0x105>

00005500 <loc_null_destroy>:
    5500:	55                   	push   %ebp
    5501:	89 e5                	mov    %esp,%ebp
    5503:	56                   	push   %esi
    5504:	53                   	push   %ebx
    5505:	83 ec 30             	sub    $0x30,%esp
    5508:	8b 75 08             	mov    0x8(%ebp),%esi
    550b:	c7 04 24 5c 29 02 00 	movl   $0x2295c,(%esp)
    5512:	e8 39 4f 00 00       	call   a450 <fibril_mutex_lock>
    5517:	a1 8c 2b 02 00       	mov    0x22b8c,%eax
    551c:	85 c0                	test   %eax,%eax
    551e:	75 38                	jne    5558 <loc_null_destroy+0x58>
    5520:	c7 04 24 6c 29 02 00 	movl   $0x2296c,(%esp)
    5527:	8b 1d 88 2b 02 00    	mov    0x22b88,%ebx
    552d:	e8 1e 4f 00 00       	call   a450 <fibril_mutex_lock>
    5532:	a1 8c 2b 02 00       	mov    0x22b8c,%eax
    5537:	85 c0                	test   %eax,%eax
    5539:	0f 84 c1 00 00 00    	je     5600 <loc_null_destroy+0x100>
    553f:	c7 04 24 6c 29 02 00 	movl   $0x2296c,(%esp)
    5546:	e8 25 50 00 00       	call   a570 <fibril_mutex_unlock>
    554b:	a1 8c 2b 02 00       	mov    0x22b8c,%eax
    5550:	85 c0                	test   %eax,%eax
    5552:	0f 84 c0 00 00 00    	je     5618 <loc_null_destroy+0x118>
    5558:	c7 04 24 5c 29 02 00 	movl   $0x2295c,(%esp)
    555f:	e8 0c 50 00 00       	call   a570 <fibril_mutex_unlock>
    5564:	c7 04 24 6c 29 02 00 	movl   $0x2296c,(%esp)
    556b:	8b 1d 8c 2b 02 00    	mov    0x22b8c,%ebx
    5571:	e8 da 4e 00 00       	call   a450 <fibril_mutex_lock>
    5576:	a1 88 2b 02 00       	mov    0x22b88,%eax
    557b:	85 c0                	test   %eax,%eax
    557d:	0f 84 c5 00 00 00    	je     5648 <loc_null_destroy+0x148>
    5583:	c7 04 24 6c 29 02 00 	movl   $0x2296c,(%esp)
    558a:	e8 e1 4f 00 00       	call   a570 <fibril_mutex_unlock>
    558f:	a1 8c 2b 02 00       	mov    0x22b8c,%eax
    5594:	89 04 24             	mov    %eax,(%esp)
    5597:	e8 04 10 01 00       	call   165a0 <async_exchange_begin>
    559c:	89 74 24 08          	mov    %esi,0x8(%esp)
    55a0:	c7 44 24 28 00 00 00 	movl   $0x0,0x28(%esp)
    55a7:	00 
    55a8:	c7 44 24 24 00 00 00 	movl   $0x0,0x24(%esp)
    55af:	00 
    55b0:	c7 44 24 20 00 00 00 	movl   $0x0,0x20(%esp)
    55b7:	00 
    55b8:	c7 44 24 1c 00 00 00 	movl   $0x0,0x1c(%esp)
    55bf:	00 
    55c0:	c7 44 24 18 00 00 00 	movl   $0x0,0x18(%esp)
    55c7:	00 
    55c8:	c7 44 24 14 00 00 00 	movl   $0x0,0x14(%esp)
    55cf:	00 
    55d0:	c7 44 24 10 00 00 00 	movl   $0x0,0x10(%esp)
    55d7:	00 
    55d8:	c7 44 24 0c 00 00 00 	movl   $0x0,0xc(%esp)
    55df:	00 
    55e0:	c7 44 24 04 0f 04 00 	movl   $0x40f,0x4(%esp)
    55e7:	00 
    55e8:	89 04 24             	mov    %eax,(%esp)
    55eb:	89 c3                	mov    %eax,%ebx
    55ed:	e8 5e ff 00 00       	call   15550 <async_req_fast>
    55f2:	89 5d 08             	mov    %ebx,0x8(%ebp)
    55f5:	83 c4 30             	add    $0x30,%esp
    55f8:	5b                   	pop    %ebx
    55f9:	5e                   	pop    %esi
    55fa:	5d                   	pop    %ebp
    55fb:	e9 10 13 01 00       	jmp    16910 <async_exchange_end>
    5600:	85 db                	test   %ebx,%ebx
    5602:	0f 84 37 ff ff ff    	je     553f <loc_null_destroy+0x3f>
    5608:	89 1d 8c 2b 02 00    	mov    %ebx,0x22b8c
    560e:	e9 2c ff ff ff       	jmp    553f <loc_null_destroy+0x3f>
    5613:	90                   	nop
    5614:	8d 74 26 00          	lea    0x0(%esi,%eiz,1),%esi
    5618:	c7 44 24 0c 00 00 00 	movl   $0x0,0xc(%esp)
    561f:	00 
    5620:	c7 44 24 08 02 00 00 	movl   $0x2,0x8(%esp)
    5627:	00 
    5628:	c7 44 24 04 6c 6f 63 	movl   $0x20636f6c,0x4(%esp)
    562f:	20 
    5630:	c7 04 24 02 00 00 00 	movl   $0x2,(%esp)
    5637:	e8 b4 e2 00 00       	call   138f0 <service_connect_blocking>
    563c:	a3 8c 2b 02 00       	mov    %eax,0x22b8c
    5641:	e9 d6 fe ff ff       	jmp    551c <loc_null_destroy+0x1c>
    5646:	66 90                	xchg   %ax,%ax
    5648:	85 db                	test   %ebx,%ebx
    564a:	0f 84 33 ff ff ff    	je     5583 <loc_null_destroy+0x83>
    5650:	89 1d 88 2b 02 00    	mov    %ebx,0x22b88
    5656:	e9 28 ff ff ff       	jmp    5583 <loc_null_destroy+0x83>
    565b:	90                   	nop
    565c:	8d 74 26 00          	lea    0x0(%esi,%eiz,1),%esi

00005660 <loc_service_add_to_cat>:
    5660:	55                   	push   %ebp
    5661:	89 e5                	mov    %esp,%ebp
    5663:	53                   	push   %ebx
    5664:	83 ec 44             	sub    $0x44,%esp
    5667:	c7 04 24 3c 29 02 00 	movl   $0x2293c,(%esp)
    566e:	e8 dd 4d 00 00       	call   a450 <fibril_mutex_lock>
    5673:	a1 84 2b 02 00       	mov    0x22b84,%eax
    5678:	85 c0                	test   %eax,%eax
    567a:	75 38                	jne    56b4 <loc_service_add_to_cat+0x54>
    567c:	c7 04 24 4c 29 02 00 	movl   $0x2294c,(%esp)
