
tcp:     file format elf32-i386


Disassembly of section .init:

00001094 <__entry>:
    1094:	66 8c d0             	mov    %ss,%ax
    1097:	8e d8                	mov    %eax,%ds
    1099:	8e c0                	mov    %eax,%es
    109b:	8e e0                	mov    %eax,%fs
    109d:	b8 01 00 00 00       	mov    $0x1,%eax
    10a2:	0f a2                	cpuid  
    10a4:	0f ba e2 0b          	bt     $0xb,%edx
    10a8:	73 0c                	jae    10b6 <__entry+0x22>
    10aa:	8d 05 58 d5 02 00    	lea    0x2d558,%eax
    10b0:	c7 00 57 12 02 00    	movl   $0x21257,(%eax)
    10b6:	6a 00                	push   $0x0
    10b8:	89 e5                	mov    %esp,%ebp
    10ba:	57                   	push   %edi
    10bb:	e8 00 a5 00 00       	call   b5c0 <__main>

Disassembly of section .text:

000010c0 <tcp_conn_seg_proc_ack_est>:
    10c0:	55                   	push   %ebp
    10c1:	89 e5                	mov    %esp,%ebp
    10c3:	56                   	push   %esi
    10c4:	53                   	push   %ebx
    10c5:	89 c3                	mov    %eax,%ebx
    10c7:	83 ec 20             	sub    $0x20,%esp
    10ca:	89 d6                	mov    %edx,%esi
    10cc:	89 54 24 10          	mov    %edx,0x10(%esp)
    10d0:	89 44 24 0c          	mov    %eax,0xc(%esp)
    10d4:	c7 44 24 08 c4 90 02 	movl   $0x290c4,0x8(%esp)
    10db:	00 
    10dc:	c7 44 24 04 04 00 00 	movl   $0x4,0x4(%esp)
    10e3:	00 
    10e4:	c7 04 24 ff ff ff ff 	movl   $0xffffffff,(%esp)
    10eb:	e8 40 fc 00 00       	call   10d30 <log_msg>
    10f0:	8b 83 a4 00 00 00    	mov    0xa4(%ebx),%eax
    10f6:	89 44 24 14          	mov    %eax,0x14(%esp)
    10fa:	8b 83 a0 00 00 00    	mov    0xa0(%ebx),%eax
    1100:	89 44 24 10          	mov    %eax,0x10(%esp)
    1104:	8b 46 08             	mov    0x8(%esi),%eax
    1107:	89 44 24 0c          	mov    %eax,0xc(%esp)
    110b:	c7 44 24 08 e8 90 02 	movl   $0x290e8,0x8(%esp)
    1112:	00 
    1113:	c7 44 24 04 04 00 00 	movl   $0x4,0x4(%esp)
    111a:	00 
    111b:	c7 04 24 ff ff ff ff 	movl   $0xffffffff,(%esp)
    1122:	e8 09 fc 00 00       	call   10d30 <log_msg>
    1127:	8b 46 08             	mov    0x8(%esi),%eax
    112a:	89 44 24 04          	mov    %eax,0x4(%esp)
    112e:	89 1c 24             	mov    %ebx,(%esp)
    1131:	e8 da 36 00 00       	call   4810 <seq_no_ack_acceptable>
    1136:	84 c0                	test   %al,%al
    1138:	74 2e                	je     1168 <tcp_conn_seg_proc_ack_est+0xa8>
    113a:	8b 46 08             	mov    0x8(%esi),%eax
    113d:	89 74 24 04          	mov    %esi,0x4(%esp)
    1141:	89 83 a0 00 00 00    	mov    %eax,0xa0(%ebx)
    1147:	89 1c 24             	mov    %ebx,(%esp)
    114a:	e8 61 37 00 00       	call   48b0 <seq_no_new_wnd_update>
    114f:	84 c0                	test   %al,%al
    1151:	75 75                	jne    11c8 <tcp_conn_seg_proc_ack_est+0x108>
    1153:	89 1c 24             	mov    %ebx,(%esp)
    1156:	e8 75 64 00 00       	call   75d0 <tcp_tqueue_ack_received>
    115b:	83 c4 20             	add    $0x20,%esp
    115e:	31 c0                	xor    %eax,%eax
    1160:	5b                   	pop    %ebx
    1161:	5e                   	pop    %esi
    1162:	5d                   	pop    %ebp
    1163:	c3                   	ret    
    1164:	8d 74 26 00          	lea    0x0(%esi,%eiz,1),%esi
    1168:	c7 44 24 08 2f 95 02 	movl   $0x2952f,0x8(%esp)
    116f:	00 
    1170:	c7 44 24 04 04 00 00 	movl   $0x4,0x4(%esp)
    1177:	00 
    1178:	c7 04 24 ff ff ff ff 	movl   $0xffffffff,(%esp)
    117f:	e8 ac fb 00 00       	call   10d30 <log_msg>
    1184:	8b 46 08             	mov    0x8(%esi),%eax
    1187:	89 44 24 04          	mov    %eax,0x4(%esp)
    118b:	89 1c 24             	mov    %ebx,(%esp)
    118e:	e8 bd 36 00 00       	call   4850 <seq_no_ack_duplicate>
    1193:	84 c0                	test   %al,%al
    1195:	74 79                	je     1210 <tcp_conn_seg_proc_ack_est+0x150>
    1197:	c7 44 24 08 43 95 02 	movl   $0x29543,0x8(%esp)
    119e:	00 
    119f:	c7 44 24 04 04 00 00 	movl   $0x4,0x4(%esp)
    11a6:	00 
    11a7:	c7 04 24 ff ff ff ff 	movl   $0xffffffff,(%esp)
    11ae:	e8 7d fb 00 00       	call   10d30 <log_msg>
    11b3:	89 74 24 04          	mov    %esi,0x4(%esp)
    11b7:	89 1c 24             	mov    %ebx,(%esp)
    11ba:	e8 f1 36 00 00       	call   48b0 <seq_no_new_wnd_update>
    11bf:	84 c0                	test   %al,%al
    11c1:	74 90                	je     1153 <tcp_conn_seg_proc_ack_est+0x93>
    11c3:	90                   	nop
    11c4:	8d 74 26 00          	lea    0x0(%esi,%eiz,1),%esi
    11c8:	8b 46 10             	mov    0x10(%esi),%eax
    11cb:	8b 56 04             	mov    0x4(%esi),%edx
    11ce:	8b 4e 08             	mov    0x8(%esi),%ecx
    11d1:	89 83 a8 00 00 00    	mov    %eax,0xa8(%ebx)
    11d7:	89 93 b0 00 00 00    	mov    %edx,0xb0(%ebx)
    11dd:	89 8b b4 00 00 00    	mov    %ecx,0xb4(%ebx)
    11e3:	89 4c 24 14          	mov    %ecx,0x14(%esp)
    11e7:	89 54 24 10          	mov    %edx,0x10(%esp)
    11eb:	89 44 24 0c          	mov    %eax,0xc(%esp)
    11ef:	c7 44 24 08 40 91 02 	movl   $0x29140,0x8(%esp)
    11f6:	00 
    11f7:	c7 44 24 04 04 00 00 	movl   $0x4,0x4(%esp)
    11fe:	00 
    11ff:	c7 04 24 ff ff ff ff 	movl   $0xffffffff,(%esp)
    1206:	e8 25 fb 00 00       	call   10d30 <log_msg>
    120b:	e9 43 ff ff ff       	jmp    1153 <tcp_conn_seg_proc_ack_est+0x93>
    1210:	c7 44 24 08 0c 91 02 	movl   $0x2910c,0x8(%esp)
    1217:	00 
    1218:	c7 44 24 04 02 00 00 	movl   $0x2,0x4(%esp)
    121f:	00 
    1220:	c7 04 24 ff ff ff ff 	movl   $0xffffffff,(%esp)
    1227:	e8 04 fb 00 00       	call   10d30 <log_msg>
    122c:	89 1c 24             	mov    %ebx,(%esp)
    122f:	c7 44 24 04 08 00 00 	movl   $0x8,0x4(%esp)
    1236:	00 
    1237:	e8 44 60 00 00       	call   7280 <tcp_tqueue_ctrl_seg>
    123c:	89 34 24             	mov    %esi,(%esp)
    123f:	e8 4c 31 00 00       	call   4390 <tcp_segment_delete>
    1244:	83 c4 20             	add    $0x20,%esp
    1247:	b8 01 00 00 00       	mov    $0x1,%eax
    124c:	5b                   	pop    %ebx
    124d:	5e                   	pop    %esi
    124e:	5d                   	pop    %ebp
    124f:	c3                   	ret    

00001250 <tcp_conn_free>:
    1250:	55                   	push   %ebp
    1251:	89 e5                	mov    %esp,%ebp
    1253:	53                   	push   %ebx
    1254:	83 ec 24             	sub    $0x24,%esp
    1257:	89 c3                	mov    %eax,%ebx
    1259:	89 44 24 10          	mov    %eax,0x10(%esp)
    125d:	8b 00                	mov    (%eax),%eax
    125f:	c7 44 24 08 5b 95 02 	movl   $0x2955b,0x8(%esp)
    1266:	00 
    1267:	89 44 24 0c          	mov    %eax,0xc(%esp)
    126b:	c7 44 24 04 04 00 00 	movl   $0x4,0x4(%esp)
    1272:	00 
    1273:	c7 04 24 ff ff ff ff 	movl   $0xffffffff,(%esp)
    127a:	e8 b1 fa 00 00       	call   10d30 <log_msg>
    127f:	8d 43 5c             	lea    0x5c(%ebx),%eax
    1282:	89 04 24             	mov    %eax,(%esp)
    1285:	e8 36 5d 00 00       	call   6fc0 <tcp_tqueue_fini>
    128a:	8b 43 70             	mov    0x70(%ebx),%eax
    128d:	85 c0                	test   %eax,%eax
    128f:	74 08                	je     1299 <tcp_conn_free+0x49>
    1291:	89 04 24             	mov    %eax,(%esp)
    1294:	e8 17 4c 01 00       	call   15eb0 <free>
    1299:	8b 83 88 00 00 00    	mov    0x88(%ebx),%eax
    129f:	85 c0                	test   %eax,%eax
    12a1:	74 08                	je     12ab <tcp_conn_free+0x5b>
    12a3:	89 04 24             	mov    %eax,(%esp)
    12a6:	e8 05 4c 01 00       	call   15eb0 <free>
    12ab:	8b 43 6c             	mov    0x6c(%ebx),%eax
    12ae:	85 c0                	test   %eax,%eax
    12b0:	74 08                	je     12ba <tcp_conn_free+0x6a>
    12b2:	89 04 24             	mov    %eax,(%esp)
    12b5:	e8 16 c2 00 00       	call   d4d0 <fibril_timer_destroy>
    12ba:	89 1c 24             	mov    %ebx,(%esp)
    12bd:	e8 ee 4b 01 00       	call   15eb0 <free>
    12c2:	83 c4 24             	add    $0x24,%esp
    12c5:	5b                   	pop    %ebx
    12c6:	5d                   	pop    %ebp
    12c7:	c3                   	ret    
    12c8:	90                   	nop
    12c9:	8d b4 26 00 00 00 00 	lea    0x0(%esi,%eiz,1),%esi

000012d0 <tcp_conn_state_set>:
    12d0:	55                   	push   %ebp
    12d1:	89 e5                	mov    %esp,%ebp
    12d3:	57                   	push   %edi
    12d4:	56                   	push   %esi
    12d5:	53                   	push   %ebx
    12d6:	83 ec 2c             	sub    $0x2c,%esp
    12d9:	89 c3                	mov    %eax,%ebx
    12db:	89 d6                	mov    %edx,%esi
    12dd:	89 44 24 0c          	mov    %eax,0xc(%esp)
    12e1:	c7 44 24 08 71 95 02 	movl   $0x29571,0x8(%esp)
    12e8:	00 
    12e9:	c7 44 24 04 04 00 00 	movl   $0x4,0x4(%esp)
    12f0:	00 
    12f1:	c7 04 24 ff ff ff ff 	movl   $0xffffffff,(%esp)
    12f8:	e8 33 fa 00 00       	call   10d30 <log_msg>
    12fd:	8d 43 44             	lea    0x44(%ebx),%eax
    1300:	8b 7b 3c             	mov    0x3c(%ebx),%edi
    1303:	89 04 24             	mov    %eax,(%esp)
    1306:	89 73 3c             	mov    %esi,0x3c(%ebx)
    1309:	e8 b2 c0 00 00       	call   d3c0 <fibril_condvar_broadcast>
    130e:	8b 43 0c             	mov    0xc(%ebx),%eax
    1311:	85 c0                	test   %eax,%eax
    1313:	0f 84 df 00 00 00    	je     13f8 <tcp_conn_state_set+0x128>
    1319:	c7 44 24 08 7c 91 02 	movl   $0x2917c,0x8(%esp)
    1320:	00 
    1321:	c7 44 24 04 04 00 00 	movl   $0x4,0x4(%esp)
    1328:	00 
    1329:	c7 04 24 ff ff ff ff 	movl   $0xffffffff,(%esp)
    1330:	e8 fb f9 00 00       	call   10d30 <log_msg>
    1335:	8b 43 10             	mov    0x10(%ebx),%eax
    1338:	89 44 24 04          	mov    %eax,0x4(%esp)
    133c:	89 1c 24             	mov    %ebx,(%esp)
    133f:	ff 53 0c             	call   *0xc(%ebx)
    1342:	83 ff 0a             	cmp    $0xa,%edi
    1345:	0f 84 ce 00 00 00    	je     1419 <tcp_conn_state_set+0x149>
    134b:	83 fe 0a             	cmp    $0xa,%esi
    134e:	74 08                	je     1358 <tcp_conn_state_set+0x88>
    1350:	83 c4 2c             	add    $0x2c,%esp
    1353:	5b                   	pop    %ebx
    1354:	5e                   	pop    %esi
    1355:	5f                   	pop    %edi
    1356:	5d                   	pop    %ebp
    1357:	c3                   	ret    
    1358:	8b 03                	mov    (%ebx),%eax
    135a:	89 5c 24 10          	mov    %ebx,0x10(%esp)
    135e:	89 44 24 0c          	mov    %eax,0xc(%esp)
    1362:	c7 44 24 08 a6 95 02 	movl   $0x295a6,0x8(%esp)
    1369:	00 
    136a:	c7 44 24 04 05 00 00 	movl   $0x5,0x4(%esp)
    1371:	00 
    1372:	c7 04 24 ff ff ff ff 	movl   $0xffffffff,(%esp)
    1379:	e8 b2 f9 00 00       	call   10d30 <log_msg>
    137e:	83 c8 ff             	or     $0xffffffff,%eax
    1381:	f0 0f c1 43 38       	lock xadd %eax,0x38(%ebx)
    1386:	48                   	dec    %eax
    1387:	75 c7                	jne    1350 <tcp_conn_state_set+0x80>
    1389:	8b 03                	mov    (%ebx),%eax
    138b:	89 5c 24 10          	mov    %ebx,0x10(%esp)
    138f:	89 44 24 0c          	mov    %eax,0xc(%esp)
    1393:	c7 44 24 08 5b 95 02 	movl   $0x2955b,0x8(%esp)
    139a:	00 
    139b:	c7 44 24 04 04 00 00 	movl   $0x4,0x4(%esp)
    13a2:	00 
    13a3:	c7 04 24 ff ff ff ff 	movl   $0xffffffff,(%esp)
    13aa:	e8 81 f9 00 00       	call   10d30 <log_msg>
    13af:	8d 43 5c             	lea    0x5c(%ebx),%eax
    13b2:	89 04 24             	mov    %eax,(%esp)
    13b5:	e8 06 5c 00 00       	call   6fc0 <tcp_tqueue_fini>
    13ba:	8b 43 70             	mov    0x70(%ebx),%eax
    13bd:	85 c0                	test   %eax,%eax
    13bf:	74 08                	je     13c9 <tcp_conn_state_set+0xf9>
    13c1:	89 04 24             	mov    %eax,(%esp)
    13c4:	e8 e7 4a 01 00       	call   15eb0 <free>
    13c9:	8b 83 88 00 00 00    	mov    0x88(%ebx),%eax
    13cf:	85 c0                	test   %eax,%eax
    13d1:	74 08                	je     13db <tcp_conn_state_set+0x10b>
    13d3:	89 04 24             	mov    %eax,(%esp)
    13d6:	e8 d5 4a 01 00       	call   15eb0 <free>
    13db:	8b 43 6c             	mov    0x6c(%ebx),%eax
    13de:	85 c0                	test   %eax,%eax
    13e0:	74 08                	je     13ea <tcp_conn_state_set+0x11a>
    13e2:	89 04 24             	mov    %eax,(%esp)
    13e5:	e8 e6 c0 00 00       	call   d4d0 <fibril_timer_destroy>
    13ea:	89 1c 24             	mov    %ebx,(%esp)
    13ed:	e8 be 4a 01 00       	call   15eb0 <free>
    13f2:	e9 59 ff ff ff       	jmp    1350 <tcp_conn_state_set+0x80>
    13f7:	90                   	nop
    13f8:	c7 44 24 08 a0 91 02 	movl   $0x291a0,0x8(%esp)
    13ff:	00 
    1400:	c7 44 24 04 04 00 00 	movl   $0x4,0x4(%esp)
    1407:	00 
    1408:	c7 04 24 ff ff ff ff 	movl   $0xffffffff,(%esp)
    140f:	e8 1c f9 00 00       	call   10d30 <log_msg>
    1414:	e9 29 ff ff ff       	jmp    1342 <tcp_conn_state_set+0x72>
    1419:	c7 44 24 08 05 01 00 	movl   $0x105,0x8(%esp)
    1420:	00 
    1421:	c7 44 24 04 88 95 02 	movl   $0x29588,0x4(%esp)
    1428:	00 
    1429:	c7 04 24 8f 95 02 00 	movl   $0x2958f,(%esp)
    1430:	e8 9b fd 01 00       	call   211d0 <assert_abort>
    1435:	8d 74 26 00          	lea    0x0(%esi,%eiz,1),%esi
    1439:	8d bc 27 00 00 00 00 	lea    0x0(%edi,%eiz,1),%edi

00001440 <tw_timeout_func>:
    1440:	55                   	push   %ebp
    1441:	89 e5                	mov    %esp,%ebp
    1443:	56                   	push   %esi
    1444:	53                   	push   %ebx
    1445:	83 ec 20             	sub    $0x20,%esp
    1448:	8b 5d 08             	mov    0x8(%ebp),%ebx
    144b:	89 5c 24 0c          	mov    %ebx,0xc(%esp)
    144f:	c7 44 24 08 be 95 02 	movl   $0x295be,0x8(%esp)
    1456:	00 
    1457:	c7 44 24 04 04 00 00 	movl   $0x4,0x4(%esp)
    145e:	00 
    145f:	c7 04 24 ff ff ff ff 	movl   $0xffffffff,(%esp)
    1466:	8d 73 28             	lea    0x28(%ebx),%esi
    1469:	e8 c2 f8 00 00       	call   10d30 <log_msg>
    146e:	89 34 24             	mov    %esi,(%esp)
    1471:	e8 2a b2 00 00       	call   c6a0 <fibril_mutex_lock>
    1476:	83 7b 3c 0a          	cmpl   $0xa,0x3c(%ebx)
    147a:	0f 84 e0 00 00 00    	je     1560 <tw_timeout_func+0x120>
    1480:	8b 03                	mov    (%ebx),%eax
    1482:	c7 44 24 08 ed 95 02 	movl   $0x295ed,0x8(%esp)
    1489:	00 
    148a:	89 44 24 0c          	mov    %eax,0xc(%esp)
    148e:	c7 44 24 04 04 00 00 	movl   $0x4,0x4(%esp)
    1495:	00 
    1496:	c7 04 24 ff ff ff ff 	movl   $0xffffffff,(%esp)
    149d:	e8 8e f8 00 00       	call   10d30 <log_msg>
    14a2:	c7 04 24 c0 d3 02 00 	movl   $0x2d3c0,(%esp)
    14a9:	e8 f2 b1 00 00       	call   c6a0 <fibril_mutex_lock>
    14ae:	8b 53 04             	mov    0x4(%ebx),%edx
    14b1:	85 d2                	test   %edx,%edx
    14b3:	74 0f                	je     14c4 <tw_timeout_func+0x84>
    14b5:	8b 43 08             	mov    0x8(%ebx),%eax
    14b8:	85 c0                	test   %eax,%eax
    14ba:	74 08                	je     14c4 <tw_timeout_func+0x84>
    14bc:	89 10                	mov    %edx,(%eax)
    14be:	8b 53 04             	mov    0x4(%ebx),%edx
    14c1:	89 42 04             	mov    %eax,0x4(%edx)
    14c4:	c7 43 04 00 00 00 00 	movl   $0x0,0x4(%ebx)
    14cb:	c7 43 08 00 00 00 00 	movl   $0x0,0x8(%ebx)
    14d2:	c7 04 24 c0 d3 02 00 	movl   $0x2d3c0,(%esp)
    14d9:	e8 e2 b2 00 00       	call   c7c0 <fibril_mutex_unlock>
    14de:	89 5c 24 10          	mov    %ebx,0x10(%esp)
    14e2:	8b 03                	mov    (%ebx),%eax
    14e4:	c7 44 24 08 a6 95 02 	movl   $0x295a6,0x8(%esp)
    14eb:	00 
    14ec:	89 44 24 0c          	mov    %eax,0xc(%esp)
    14f0:	c7 44 24 04 05 00 00 	movl   $0x5,0x4(%esp)
    14f7:	00 
    14f8:	c7 04 24 ff ff ff ff 	movl   $0xffffffff,(%esp)
    14ff:	e8 2c f8 00 00       	call   10d30 <log_msg>
    1504:	83 c8 ff             	or     $0xffffffff,%eax
    1507:	f0 0f c1 43 38       	lock xadd %eax,0x38(%ebx)
    150c:	48                   	dec    %eax
    150d:	0f 84 dd 00 00 00    	je     15f0 <tw_timeout_func+0x1b0>
    1513:	ba 0a 00 00 00       	mov    $0xa,%edx
    1518:	89 d8                	mov    %ebx,%eax
    151a:	e8 b1 fd ff ff       	call   12d0 <tcp_conn_state_set>
    151f:	89 34 24             	mov    %esi,(%esp)
    1522:	e8 99 b2 00 00       	call   c7c0 <fibril_mutex_unlock>
    1527:	89 5c 24 10          	mov    %ebx,0x10(%esp)
    152b:	8b 03                	mov    (%ebx),%eax
    152d:	c7 44 24 08 a6 95 02 	movl   $0x295a6,0x8(%esp)
    1534:	00 
    1535:	89 44 24 0c          	mov    %eax,0xc(%esp)
    1539:	c7 44 24 04 05 00 00 	movl   $0x5,0x4(%esp)
    1540:	00 
    1541:	c7 04 24 ff ff ff ff 	movl   $0xffffffff,(%esp)
    1548:	e8 e3 f7 00 00       	call   10d30 <log_msg>
    154d:	83 c8 ff             	or     $0xffffffff,%eax
    1550:	f0 0f c1 43 38       	lock xadd %eax,0x38(%ebx)
    1555:	48                   	dec    %eax
    1556:	74 28                	je     1580 <tw_timeout_func+0x140>
    1558:	83 c4 20             	add    $0x20,%esp
    155b:	5b                   	pop    %ebx
    155c:	5e                   	pop    %esi
    155d:	5d                   	pop    %ebp
    155e:	c3                   	ret    
    155f:	90                   	nop
    1560:	c7 44 24 08 d2 95 02 	movl   $0x295d2,0x8(%esp)
    1567:	00 
    1568:	c7 44 24 04 04 00 00 	movl   $0x4,0x4(%esp)
    156f:	00 
    1570:	c7 04 24 ff ff ff ff 	movl   $0xffffffff,(%esp)
    1577:	e8 b4 f7 00 00       	call   10d30 <log_msg>
    157c:	eb a1                	jmp    151f <tw_timeout_func+0xdf>
    157e:	66 90                	xchg   %ax,%ax
    1580:	89 5c 24 10          	mov    %ebx,0x10(%esp)
    1584:	8b 03                	mov    (%ebx),%eax
    1586:	c7 44 24 08 5b 95 02 	movl   $0x2955b,0x8(%esp)
    158d:	00 
    158e:	89 44 24 0c          	mov    %eax,0xc(%esp)
    1592:	c7 44 24 04 04 00 00 	movl   $0x4,0x4(%esp)
    1599:	00 
    159a:	c7 04 24 ff ff ff ff 	movl   $0xffffffff,(%esp)
    15a1:	e8 8a f7 00 00       	call   10d30 <log_msg>
    15a6:	8d 43 5c             	lea    0x5c(%ebx),%eax
    15a9:	89 04 24             	mov    %eax,(%esp)
    15ac:	e8 0f 5a 00 00       	call   6fc0 <tcp_tqueue_fini>
    15b1:	8b 43 70             	mov    0x70(%ebx),%eax
    15b4:	85 c0                	test   %eax,%eax
    15b6:	74 08                	je     15c0 <tw_timeout_func+0x180>
    15b8:	89 04 24             	mov    %eax,(%esp)
    15bb:	e8 f0 48 01 00       	call   15eb0 <free>
    15c0:	8b 83 88 00 00 00    	mov    0x88(%ebx),%eax
    15c6:	85 c0                	test   %eax,%eax
    15c8:	74 08                	je     15d2 <tw_timeout_func+0x192>
    15ca:	89 04 24             	mov    %eax,(%esp)
    15cd:	e8 de 48 01 00       	call   15eb0 <free>
    15d2:	8b 43 6c             	mov    0x6c(%ebx),%eax
    15d5:	85 c0                	test   %eax,%eax
    15d7:	74 08                	je     15e1 <tw_timeout_func+0x1a1>
    15d9:	89 04 24             	mov    %eax,(%esp)
    15dc:	e8 ef be 00 00       	call   d4d0 <fibril_timer_destroy>
    15e1:	89 5d 08             	mov    %ebx,0x8(%ebp)
    15e4:	83 c4 20             	add    $0x20,%esp
    15e7:	5b                   	pop    %ebx
    15e8:	5e                   	pop    %esi
    15e9:	5d                   	pop    %ebp
    15ea:	e9 c1 48 01 00       	jmp    15eb0 <free>
    15ef:	90                   	nop
    15f0:	89 5c 24 10          	mov    %ebx,0x10(%esp)
    15f4:	8b 03                	mov    (%ebx),%eax
    15f6:	c7 44 24 08 5b 95 02 	movl   $0x2955b,0x8(%esp)
    15fd:	00 
    15fe:	89 44 24 0c          	mov    %eax,0xc(%esp)
    1602:	c7 44 24 04 04 00 00 	movl   $0x4,0x4(%esp)
    1609:	00 
    160a:	c7 04 24 ff ff ff ff 	movl   $0xffffffff,(%esp)
    1611:	e8 1a f7 00 00       	call   10d30 <log_msg>
    1616:	8d 43 5c             	lea    0x5c(%ebx),%eax
    1619:	89 04 24             	mov    %eax,(%esp)
    161c:	e8 9f 59 00 00       	call   6fc0 <tcp_tqueue_fini>
    1621:	8b 43 70             	mov    0x70(%ebx),%eax
    1624:	85 c0                	test   %eax,%eax
    1626:	74 08                	je     1630 <tw_timeout_func+0x1f0>
    1628:	89 04 24             	mov    %eax,(%esp)
    162b:	e8 80 48 01 00       	call   15eb0 <free>
    1630:	8b 83 88 00 00 00    	mov    0x88(%ebx),%eax
    1636:	85 c0                	test   %eax,%eax
    1638:	74 08                	je     1642 <tw_timeout_func+0x202>
    163a:	89 04 24             	mov    %eax,(%esp)
    163d:	e8 6e 48 01 00       	call   15eb0 <free>
    1642:	8b 43 6c             	mov    0x6c(%ebx),%eax
    1645:	85 c0                	test   %eax,%eax
    1647:	74 08                	je     1651 <tw_timeout_func+0x211>
    1649:	89 04 24             	mov    %eax,(%esp)
    164c:	e8 7f be 00 00       	call   d4d0 <fibril_timer_destroy>
    1651:	89 1c 24             	mov    %ebx,(%esp)
    1654:	e8 57 48 01 00       	call   15eb0 <free>
    1659:	e9 b5 fe ff ff       	jmp    1513 <tw_timeout_func+0xd3>
    165e:	66 90                	xchg   %ax,%ax

00001660 <tcp_conn_reset>:
    1660:	55                   	push   %ebp
    1661:	89 e5                	mov    %esp,%ebp
    1663:	56                   	push   %esi
    1664:	53                   	push   %ebx
    1665:	89 c3                	mov    %eax,%ebx
    1667:	83 ec 20             	sub    $0x20,%esp
    166a:	8b 00                	mov    (%eax),%eax
    166c:	89 44 24 0c          	mov    %eax,0xc(%esp)
    1670:	c7 44 24 08 06 96 02 	movl   $0x29606,0x8(%esp)
    1677:	00 
    1678:	c7 44 24 04 04 00 00 	movl   $0x4,0x4(%esp)
    167f:	00 
    1680:	c7 04 24 ff ff ff ff 	movl   $0xffffffff,(%esp)
    1687:	e8 a4 f6 00 00       	call   10d30 <log_msg>
    168c:	89 5c 24 0c          	mov    %ebx,0xc(%esp)
    1690:	c7 44 24 08 71 95 02 	movl   $0x29571,0x8(%esp)
    1697:	00 
    1698:	c7 44 24 04 04 00 00 	movl   $0x4,0x4(%esp)
    169f:	00 
    16a0:	c7 04 24 ff ff ff ff 	movl   $0xffffffff,(%esp)
    16a7:	e8 84 f6 00 00       	call   10d30 <log_msg>
    16ac:	8d 43 44             	lea    0x44(%ebx),%eax
    16af:	8b 73 3c             	mov    0x3c(%ebx),%esi
    16b2:	c7 43 3c 0a 00 00 00 	movl   $0xa,0x3c(%ebx)
    16b9:	89 04 24             	mov    %eax,(%esp)
    16bc:	e8 ff bc 00 00       	call   d3c0 <fibril_condvar_broadcast>
    16c1:	8b 53 0c             	mov    0xc(%ebx),%edx
    16c4:	85 d2                	test   %edx,%edx
    16c6:	0f 84 bc 01 00 00    	je     1888 <tcp_conn_reset+0x228>
    16cc:	c7 44 24 08 7c 91 02 	movl   $0x2917c,0x8(%esp)
    16d3:	00 
    16d4:	c7 44 24 04 04 00 00 	movl   $0x4,0x4(%esp)
    16db:	00 
    16dc:	c7 04 24 ff ff ff ff 	movl   $0xffffffff,(%esp)
    16e3:	e8 48 f6 00 00       	call   10d30 <log_msg>
    16e8:	8b 43 10             	mov    0x10(%ebx),%eax
    16eb:	89 44 24 04          	mov    %eax,0x4(%esp)
    16ef:	89 1c 24             	mov    %ebx,(%esp)
    16f2:	ff 53 0c             	call   *0xc(%ebx)
    16f5:	83 fe 0a             	cmp    $0xa,%esi
    16f8:	0f 84 ab 01 00 00    	je     18a9 <tcp_conn_reset+0x249>
    16fe:	89 5c 24 10          	mov    %ebx,0x10(%esp)
    1702:	8b 03                	mov    (%ebx),%eax
    1704:	c7 44 24 08 a6 95 02 	movl   $0x295a6,0x8(%esp)
    170b:	00 
    170c:	89 44 24 0c          	mov    %eax,0xc(%esp)
    1710:	c7 44 24 04 05 00 00 	movl   $0x5,0x4(%esp)
    1717:	00 
    1718:	c7 04 24 ff ff ff ff 	movl   $0xffffffff,(%esp)
    171f:	e8 0c f6 00 00       	call   10d30 <log_msg>
    1724:	83 c8 ff             	or     $0xffffffff,%eax
    1727:	f0 0f c1 43 38       	lock xadd %eax,0x38(%ebx)
    172c:	8d 73 5c             	lea    0x5c(%ebx),%esi
    172f:	48                   	dec    %eax
    1730:	74 46                	je     1778 <tcp_conn_reset+0x118>
    1732:	8b 43 6c             	mov    0x6c(%ebx),%eax
    1735:	c6 43 40 01          	movb   $0x1,0x40(%ebx)
    1739:	89 04 24             	mov    %eax,(%esp)
    173c:	e8 7f c0 00 00       	call   d7c0 <fibril_timer_clear>
    1741:	48                   	dec    %eax
    1742:	0f 84 a0 00 00 00    	je     17e8 <tcp_conn_reset+0x188>
    1748:	89 34 24             	mov    %esi,(%esp)
    174b:	e8 10 58 00 00       	call   6f60 <tcp_tqueue_clear>
    1750:	8d 83 80 00 00 00    	lea    0x80(%ebx),%eax
    1756:	89 04 24             	mov    %eax,(%esp)
    1759:	81 c3 98 00 00 00    	add    $0x98,%ebx
    175f:	e8 5c bc 00 00       	call   d3c0 <fibril_condvar_broadcast>
    1764:	89 1c 24             	mov    %ebx,(%esp)
    1767:	e8 54 bc 00 00       	call   d3c0 <fibril_condvar_broadcast>
    176c:	83 c4 20             	add    $0x20,%esp
    176f:	5b                   	pop    %ebx
    1770:	5e                   	pop    %esi
    1771:	5d                   	pop    %ebp
    1772:	c3                   	ret    
    1773:	90                   	nop
    1774:	8d 74 26 00          	lea    0x0(%esi,%eiz,1),%esi
    1778:	89 5c 24 10          	mov    %ebx,0x10(%esp)
    177c:	8b 03                	mov    (%ebx),%eax
    177e:	c7 44 24 08 5b 95 02 	movl   $0x2955b,0x8(%esp)
    1785:	00 
    1786:	89 44 24 0c          	mov    %eax,0xc(%esp)
    178a:	c7 44 24 04 04 00 00 	movl   $0x4,0x4(%esp)
    1791:	00 
    1792:	c7 04 24 ff ff ff ff 	movl   $0xffffffff,(%esp)
    1799:	e8 92 f5 00 00       	call   10d30 <log_msg>
    179e:	89 34 24             	mov    %esi,(%esp)
    17a1:	e8 1a 58 00 00       	call   6fc0 <tcp_tqueue_fini>
    17a6:	8b 43 70             	mov    0x70(%ebx),%eax
    17a9:	85 c0                	test   %eax,%eax
    17ab:	74 08                	je     17b5 <tcp_conn_reset+0x155>
    17ad:	89 04 24             	mov    %eax,(%esp)
    17b0:	e8 fb 46 01 00       	call   15eb0 <free>
    17b5:	8b 83 88 00 00 00    	mov    0x88(%ebx),%eax
    17bb:	85 c0                	test   %eax,%eax
    17bd:	74 08                	je     17c7 <tcp_conn_reset+0x167>
    17bf:	89 04 24             	mov    %eax,(%esp)
    17c2:	e8 e9 46 01 00       	call   15eb0 <free>
    17c7:	8b 43 6c             	mov    0x6c(%ebx),%eax
    17ca:	85 c0                	test   %eax,%eax
    17cc:	74 08                	je     17d6 <tcp_conn_reset+0x176>
    17ce:	89 04 24             	mov    %eax,(%esp)
    17d1:	e8 fa bc 00 00       	call   d4d0 <fibril_timer_destroy>
    17d6:	89 1c 24             	mov    %ebx,(%esp)
    17d9:	e8 d2 46 01 00       	call   15eb0 <free>
    17de:	e9 4f ff ff ff       	jmp    1732 <tcp_conn_reset+0xd2>
    17e3:	90                   	nop
    17e4:	8d 74 26 00          	lea    0x0(%esi,%eiz,1),%esi
    17e8:	89 5c 24 10          	mov    %ebx,0x10(%esp)
    17ec:	8b 03                	mov    (%ebx),%eax
    17ee:	c7 44 24 08 a6 95 02 	movl   $0x295a6,0x8(%esp)
    17f5:	00 
    17f6:	89 44 24 0c          	mov    %eax,0xc(%esp)
    17fa:	c7 44 24 04 05 00 00 	movl   $0x5,0x4(%esp)
    1801:	00 
    1802:	c7 04 24 ff ff ff ff 	movl   $0xffffffff,(%esp)
    1809:	e8 22 f5 00 00       	call   10d30 <log_msg>
    180e:	83 c8 ff             	or     $0xffffffff,%eax
    1811:	f0 0f c1 43 38       	lock xadd %eax,0x38(%ebx)
    1816:	48                   	dec    %eax
    1817:	0f 85 2b ff ff ff    	jne    1748 <tcp_conn_reset+0xe8>
    181d:	89 5c 24 10          	mov    %ebx,0x10(%esp)
    1821:	8b 03                	mov    (%ebx),%eax
    1823:	c7 44 24 08 5b 95 02 	movl   $0x2955b,0x8(%esp)
    182a:	00 
    182b:	89 44 24 0c          	mov    %eax,0xc(%esp)
    182f:	c7 44 24 04 04 00 00 	movl   $0x4,0x4(%esp)
    1836:	00 
    1837:	c7 04 24 ff ff ff ff 	movl   $0xffffffff,(%esp)
    183e:	e8 ed f4 00 00       	call   10d30 <log_msg>
    1843:	89 34 24             	mov    %esi,(%esp)
    1846:	e8 75 57 00 00       	call   6fc0 <tcp_tqueue_fini>
    184b:	8b 43 70             	mov    0x70(%ebx),%eax
    184e:	85 c0                	test   %eax,%eax
    1850:	74 08                	je     185a <tcp_conn_reset+0x1fa>
    1852:	89 04 24             	mov    %eax,(%esp)
    1855:	e8 56 46 01 00       	call   15eb0 <free>
    185a:	8b 83 88 00 00 00    	mov    0x88(%ebx),%eax
    1860:	85 c0                	test   %eax,%eax
    1862:	74 08                	je     186c <tcp_conn_reset+0x20c>
    1864:	89 04 24             	mov    %eax,(%esp)
    1867:	e8 44 46 01 00       	call   15eb0 <free>
    186c:	8b 43 6c             	mov    0x6c(%ebx),%eax
    186f:	85 c0                	test   %eax,%eax
    1871:	74 08                	je     187b <tcp_conn_reset+0x21b>
    1873:	89 04 24             	mov    %eax,(%esp)
    1876:	e8 55 bc 00 00       	call   d4d0 <fibril_timer_destroy>
    187b:	89 1c 24             	mov    %ebx,(%esp)
    187e:	e8 2d 46 01 00       	call   15eb0 <free>
    1883:	e9 c0 fe ff ff       	jmp    1748 <tcp_conn_reset+0xe8>
    1888:	c7 44 24 08 a0 91 02 	movl   $0x291a0,0x8(%esp)
    188f:	00 
    1890:	c7 44 24 04 04 00 00 	movl   $0x4,0x4(%esp)
    1897:	00 
    1898:	c7 04 24 ff ff ff ff 	movl   $0xffffffff,(%esp)
    189f:	e8 8c f4 00 00       	call   10d30 <log_msg>
    18a4:	e9 4c fe ff ff       	jmp    16f5 <tcp_conn_reset+0x95>
    18a9:	c7 44 24 08 05 01 00 	movl   $0x105,0x8(%esp)
    18b0:	00 
    18b1:	c7 44 24 04 88 95 02 	movl   $0x29588,0x4(%esp)
    18b8:	00 
    18b9:	c7 04 24 8f 95 02 00 	movl   $0x2958f,(%esp)
    18c0:	e8 0b f9 01 00       	call   211d0 <assert_abort>
    18c5:	8d 74 26 00          	lea    0x0(%esi,%eiz,1),%esi
    18c9:	8d bc 27 00 00 00 00 	lea    0x0(%edi,%eiz,1),%edi

000018d0 <tcp_conn_new>:
    18d0:	55                   	push   %ebp
    18d1:	89 e5                	mov    %esp,%ebp
    18d3:	53                   	push   %ebx
    18d4:	83 ec 14             	sub    $0x14,%esp
    18d7:	c7 44 24 04 cc 00 00 	movl   $0xcc,0x4(%esp)
    18de:	00 
    18df:	c7 04 24 01 00 00 00 	movl   $0x1,(%esp)
    18e6:	e8 55 44 01 00       	call   15d40 <calloc>
    18eb:	89 c3                	mov    %eax,%ebx
    18ed:	85 c0                	test   %eax,%eax
    18ef:	0f 84 0d 01 00 00    	je     1a02 <tcp_conn_new+0x132>
    18f5:	e8 56 bb 00 00       	call   d450 <fibril_timer_create>
    18fa:	89 43 6c             	mov    %eax,0x6c(%ebx)
    18fd:	85 c0                	test   %eax,%eax
    18ff:	0f 84 c3 00 00 00    	je     19c8 <tcp_conn_new+0xf8>
    1905:	8d 43 28             	lea    0x28(%ebx),%eax
    1908:	89 04 24             	mov    %eax,(%esp)
    190b:	e8 70 ad 00 00       	call   c680 <fibril_mutex_initialize>
    1910:	8d 83 80 00 00 00    	lea    0x80(%ebx),%eax
    1916:	c7 43 38 02 00 00 00 	movl   $0x2,0x38(%ebx)
    191d:	89 04 24             	mov    %eax,(%esp)
    1920:	e8 eb b3 00 00       	call   cd10 <fibril_condvar_initialize>
    1925:	c7 43 74 00 10 00 00 	movl   $0x1000,0x74(%ebx)
    192c:	c7 43 78 00 00 00 00 	movl   $0x0,0x78(%ebx)
    1933:	c6 43 7c 00          	movb   $0x0,0x7c(%ebx)
    1937:	c7 44 24 04 00 10 00 	movl   $0x1000,0x4(%esp)
    193e:	00 
    193f:	c7 04 24 01 00 00 00 	movl   $0x1,(%esp)
    1946:	e8 f5 43 01 00       	call   15d40 <calloc>
    194b:	89 43 70             	mov    %eax,0x70(%ebx)
    194e:	85 c0                	test   %eax,%eax
    1950:	0f 84 81 00 00 00    	je     19d7 <tcp_conn_new+0x107>
    1956:	8d 83 98 00 00 00    	lea    0x98(%ebx),%eax
    195c:	89 04 24             	mov    %eax,(%esp)
    195f:	e8 ac b3 00 00       	call   cd10 <fibril_condvar_initialize>
    1964:	c7 83 8c 00 00 00 00 	movl   $0x1000,0x8c(%ebx)
    196b:	10 00 00 
    196e:	c7 83 90 00 00 00 00 	movl   $0x0,0x90(%ebx)
    1975:	00 00 00 
    1978:	c6 83 94 00 00 00 00 	movb   $0x0,0x94(%ebx)
    197f:	c7 44 24 04 00 10 00 	movl   $0x1000,0x4(%esp)
    1986:	00 
    1987:	c7 04 24 01 00 00 00 	movl   $0x1,(%esp)
    198e:	e8 ad 43 01 00       	call   15d40 <calloc>
    1993:	89 83 88 00 00 00    	mov    %eax,0x88(%ebx)
    1999:	85 c0                	test   %eax,%eax
    199b:	74 2b                	je     19c8 <tcp_conn_new+0xf8>
    199d:	8b 43 74             	mov    0x74(%ebx),%eax
    19a0:	89 83 c0 00 00 00    	mov    %eax,0xc0(%ebx)
    19a6:	8d 43 50             	lea    0x50(%ebx),%eax
    19a9:	89 04 24             	mov    %eax,(%esp)
    19ac:	89 5c 24 04          	mov    %ebx,0x4(%esp)
    19b0:	e8 5b 1d 00 00       	call   3710 <tcp_iqueue_init>
    19b5:	8d 43 5c             	lea    0x5c(%ebx),%eax
    19b8:	89 5c 24 04          	mov    %ebx,0x4(%esp)
    19bc:	89 04 24             	mov    %eax,(%esp)
    19bf:	e8 6c 55 00 00       	call   6f30 <tcp_tqueue_init>
    19c4:	85 c0                	test   %eax,%eax
    19c6:	74 48                	je     1a10 <tcp_conn_new+0x140>
    19c8:	8b 43 70             	mov    0x70(%ebx),%eax
    19cb:	85 c0                	test   %eax,%eax
    19cd:	74 08                	je     19d7 <tcp_conn_new+0x107>
    19cf:	89 04 24             	mov    %eax,(%esp)
    19d2:	e8 d9 44 01 00       	call   15eb0 <free>
    19d7:	8b 83 88 00 00 00    	mov    0x88(%ebx),%eax
    19dd:	85 c0                	test   %eax,%eax
    19df:	74 08                	je     19e9 <tcp_conn_new+0x119>
    19e1:	89 04 24             	mov    %eax,(%esp)
    19e4:	e8 c7 44 01 00       	call   15eb0 <free>
    19e9:	8b 43 6c             	mov    0x6c(%ebx),%eax
    19ec:	85 c0                	test   %eax,%eax
    19ee:	74 08                	je     19f8 <tcp_conn_new+0x128>
    19f0:	89 04 24             	mov    %eax,(%esp)
    19f3:	e8 d8 ba 00 00       	call   d4d0 <fibril_timer_destroy>
    19f8:	89 1c 24             	mov    %ebx,(%esp)
    19fb:	31 db                	xor    %ebx,%ebx
    19fd:	e8 ae 44 01 00       	call   15eb0 <free>
    1a02:	83 c4 14             	add    $0x14,%esp
    1a05:	89 d8                	mov    %ebx,%eax
    1a07:	5b                   	pop    %ebx
    1a08:	5d                   	pop    %ebp
    1a09:	c3                   	ret    
    1a0a:	8d b6 00 00 00 00    	lea    0x0(%esi),%esi
    1a10:	8d 43 44             	lea    0x44(%ebx),%eax
    1a13:	89 04 24             	mov    %eax,(%esp)
    1a16:	e8 f5 b2 00 00       	call   cd10 <fibril_condvar_initialize>
    1a1b:	8b 45 08             	mov    0x8(%ebp),%eax
    1a1e:	8b 48 04             	mov    0x4(%eax),%ecx
    1a21:	8b 10                	mov    (%eax),%edx
    1a23:	89 4b 18             	mov    %ecx,0x18(%ebx)
    1a26:	8b 4d 0c             	mov    0xc(%ebp),%ecx
    1a29:	c7 43 0c 00 00 00 00 	movl   $0x0,0xc(%ebx)
    1a30:	c7 43 3c 00 00 00 00 	movl   $0x0,0x3c(%ebx)
    1a37:	c6 43 40 00          	movb   $0x0,0x40(%ebx)
    1a3b:	c6 43 41 00          	movb   $0x0,0x41(%ebx)
    1a3f:	c7 43 24 01 00 00 00 	movl   $0x1,0x24(%ebx)
    1a46:	c6 43 4c 00          	movb   $0x0,0x4c(%ebx)
    1a4a:	89 53 14             	mov    %edx,0x14(%ebx)
    1a4d:	85 c9                	test   %ecx,%ecx
    1a4f:	74 b1                	je     1a02 <tcp_conn_new+0x132>
    1a51:	8b 55 0c             	mov    0xc(%ebp),%edx
    1a54:	8b 02                	mov    (%edx),%eax
    1a56:	8b 52 04             	mov    0x4(%edx),%edx
    1a59:	89 53 20             	mov    %edx,0x20(%ebx)
    1a5c:	89 43 1c             	mov    %eax,0x1c(%ebx)
    1a5f:	eb a1                	jmp    1a02 <tcp_conn_new+0x132>
    1a61:	eb 0d                	jmp    1a70 <tcp_conn_addref>
    1a63:	90                   	nop
    1a64:	90                   	nop
    1a65:	90                   	nop
    1a66:	90                   	nop
    1a67:	90                   	nop
    1a68:	90                   	nop
    1a69:	90                   	nop
    1a6a:	90                   	nop
    1a6b:	90                   	nop
    1a6c:	90                   	nop
    1a6d:	90                   	nop
    1a6e:	90                   	nop
    1a6f:	90                   	nop

00001a70 <tcp_conn_addref>:
    1a70:	55                   	push   %ebp
    1a71:	89 e5                	mov    %esp,%ebp
    1a73:	53                   	push   %ebx
    1a74:	83 ec 24             	sub    $0x24,%esp
    1a77:	8b 5d 08             	mov    0x8(%ebp),%ebx
    1a7a:	89 5c 24 10          	mov    %ebx,0x10(%esp)
    1a7e:	8b 03                	mov    (%ebx),%eax
    1a80:	c7 44 24 08 1b 96 02 	movl   $0x2961b,0x8(%esp)
    1a87:	00 
    1a88:	89 44 24 0c          	mov    %eax,0xc(%esp)
    1a8c:	c7 44 24 04 05 00 00 	movl   $0x5,0x4(%esp)
    1a93:	00 
    1a94:	c7 04 24 ff ff ff ff 	movl   $0xffffffff,(%esp)
    1a9b:	e8 90 f2 00 00       	call   10d30 <log_msg>
    1aa0:	f0 ff 43 38          	lock incl 0x38(%ebx)
    1aa4:	83 c4 24             	add    $0x24,%esp
    1aa7:	5b                   	pop    %ebx
    1aa8:	5d                   	pop    %ebp
    1aa9:	c3                   	ret    
    1aaa:	8d b6 00 00 00 00    	lea    0x0(%esi),%esi

00001ab0 <tcp_conn_delref>:
    1ab0:	55                   	push   %ebp
    1ab1:	89 e5                	mov    %esp,%ebp
    1ab3:	53                   	push   %ebx
    1ab4:	83 ec 24             	sub    $0x24,%esp
    1ab7:	8b 5d 08             	mov    0x8(%ebp),%ebx
    1aba:	89 5c 24 10          	mov    %ebx,0x10(%esp)
    1abe:	8b 03                	mov    (%ebx),%eax
    1ac0:	c7 44 24 08 a6 95 02 	movl   $0x295a6,0x8(%esp)
    1ac7:	00 
    1ac8:	89 44 24 0c          	mov    %eax,0xc(%esp)
    1acc:	c7 44 24 04 05 00 00 	movl   $0x5,0x4(%esp)
    1ad3:	00 
    1ad4:	c7 04 24 ff ff ff ff 	movl   $0xffffffff,(%esp)
    1adb:	e8 50 f2 00 00       	call   10d30 <log_msg>
    1ae0:	83 c8 ff             	or     $0xffffffff,%eax
    1ae3:	f0 0f c1 43 38       	lock xadd %eax,0x38(%ebx)
    1ae8:	48                   	dec    %eax
    1ae9:	74 0d                	je     1af8 <tcp_conn_delref+0x48>
    1aeb:	83 c4 24             	add    $0x24,%esp
    1aee:	5b                   	pop    %ebx
    1aef:	5d                   	pop    %ebp
    1af0:	c3                   	ret    
    1af1:	8d b4 26 00 00 00 00 	lea    0x0(%esi,%eiz,1),%esi
    1af8:	89 5c 24 10          	mov    %ebx,0x10(%esp)
    1afc:	8b 03                	mov    (%ebx),%eax
    1afe:	c7 44 24 08 5b 95 02 	movl   $0x2955b,0x8(%esp)
    1b05:	00 
    1b06:	89 44 24 0c          	mov    %eax,0xc(%esp)
    1b0a:	c7 44 24 04 04 00 00 	movl   $0x4,0x4(%esp)
    1b11:	00 
    1b12:	c7 04 24 ff ff ff ff 	movl   $0xffffffff,(%esp)
    1b19:	e8 12 f2 00 00       	call   10d30 <log_msg>
    1b1e:	8d 43 5c             	lea    0x5c(%ebx),%eax
    1b21:	89 04 24             	mov    %eax,(%esp)
    1b24:	e8 97 54 00 00       	call   6fc0 <tcp_tqueue_fini>
    1b29:	8b 43 70             	mov    0x70(%ebx),%eax
    1b2c:	85 c0                	test   %eax,%eax
    1b2e:	74 08                	je     1b38 <tcp_conn_delref+0x88>
    1b30:	89 04 24             	mov    %eax,(%esp)
    1b33:	e8 78 43 01 00       	call   15eb0 <free>
    1b38:	8b 83 88 00 00 00    	mov    0x88(%ebx),%eax
    1b3e:	85 c0                	test   %eax,%eax
    1b40:	74 08                	je     1b4a <tcp_conn_delref+0x9a>
    1b42:	89 04 24             	mov    %eax,(%esp)
    1b45:	e8 66 43 01 00       	call   15eb0 <free>
    1b4a:	8b 43 6c             	mov    0x6c(%ebx),%eax
    1b4d:	85 c0                	test   %eax,%eax
    1b4f:	74 08                	je     1b59 <tcp_conn_delref+0xa9>
    1b51:	89 04 24             	mov    %eax,(%esp)
    1b54:	e8 77 b9 00 00       	call   d4d0 <fibril_timer_destroy>
    1b59:	89 5d 08             	mov    %ebx,0x8(%ebp)
    1b5c:	83 c4 24             	add    $0x24,%esp
    1b5f:	5b                   	pop    %ebx
    1b60:	5d                   	pop    %ebp
    1b61:	e9 4a 43 01 00       	jmp    15eb0 <free>
    1b66:	8d 76 00             	lea    0x0(%esi),%esi
    1b69:	8d bc 27 00 00 00 00 	lea    0x0(%edi,%eiz,1),%edi

00001b70 <tcp_conn_delete>:
    1b70:	55                   	push   %ebp
    1b71:	89 e5                	mov    %esp,%ebp
    1b73:	53                   	push   %ebx
    1b74:	83 ec 24             	sub    $0x24,%esp
    1b77:	8b 5d 08             	mov    0x8(%ebp),%ebx
    1b7a:	89 5c 24 10          	mov    %ebx,0x10(%esp)
    1b7e:	8b 03                	mov    (%ebx),%eax
    1b80:	c7 44 24 08 33 96 02 	movl   $0x29633,0x8(%esp)
    1b87:	00 
    1b88:	89 44 24 0c          	mov    %eax,0xc(%esp)
    1b8c:	c7 44 24 04 04 00 00 	movl   $0x4,0x4(%esp)
    1b93:	00 
    1b94:	c7 04 24 ff ff ff ff 	movl   $0xffffffff,(%esp)
    1b9b:	e8 90 f1 00 00       	call   10d30 <log_msg>
    1ba0:	80 7b 41 00          	cmpb   $0x0,0x41(%ebx)
    1ba4:	0f 85 ac 00 00 00    	jne    1c56 <tcp_conn_delete+0xe6>
    1baa:	89 5c 24 10          	mov    %ebx,0x10(%esp)
    1bae:	8b 03                	mov    (%ebx),%eax
    1bb0:	c7 44 24 08 a6 95 02 	movl   $0x295a6,0x8(%esp)
    1bb7:	00 
    1bb8:	89 44 24 0c          	mov    %eax,0xc(%esp)
    1bbc:	c7 44 24 04 05 00 00 	movl   $0x5,0x4(%esp)
    1bc3:	00 
    1bc4:	c7 04 24 ff ff ff ff 	movl   $0xffffffff,(%esp)
    1bcb:	e8 60 f1 00 00       	call   10d30 <log_msg>
    1bd0:	83 c8 ff             	or     $0xffffffff,%eax
    1bd3:	f0 0f c1 43 38       	lock xadd %eax,0x38(%ebx)
    1bd8:	48                   	dec    %eax
    1bd9:	74 0d                	je     1be8 <tcp_conn_delete+0x78>
    1bdb:	83 c4 24             	add    $0x24,%esp
    1bde:	5b                   	pop    %ebx
    1bdf:	5d                   	pop    %ebp
    1be0:	c3                   	ret    
    1be1:	8d b4 26 00 00 00 00 	lea    0x0(%esi,%eiz,1),%esi
    1be8:	89 5c 24 10          	mov    %ebx,0x10(%esp)
    1bec:	8b 03                	mov    (%ebx),%eax
    1bee:	c7 44 24 08 5b 95 02 	movl   $0x2955b,0x8(%esp)
    1bf5:	00 
    1bf6:	89 44 24 0c          	mov    %eax,0xc(%esp)
    1bfa:	c7 44 24 04 04 00 00 	movl   $0x4,0x4(%esp)
    1c01:	00 
    1c02:	c7 04 24 ff ff ff ff 	movl   $0xffffffff,(%esp)
    1c09:	e8 22 f1 00 00       	call   10d30 <log_msg>
    1c0e:	8d 43 5c             	lea    0x5c(%ebx),%eax
    1c11:	89 04 24             	mov    %eax,(%esp)
    1c14:	e8 a7 53 00 00       	call   6fc0 <tcp_tqueue_fini>
    1c19:	8b 43 70             	mov    0x70(%ebx),%eax
    1c1c:	85 c0                	test   %eax,%eax
    1c1e:	74 08                	je     1c28 <tcp_conn_delete+0xb8>
    1c20:	89 04 24             	mov    %eax,(%esp)
    1c23:	e8 88 42 01 00       	call   15eb0 <free>
    1c28:	8b 83 88 00 00 00    	mov    0x88(%ebx),%eax
    1c2e:	85 c0                	test   %eax,%eax
    1c30:	74 08                	je     1c3a <tcp_conn_delete+0xca>
    1c32:	89 04 24             	mov    %eax,(%esp)
    1c35:	e8 76 42 01 00       	call   15eb0 <free>
    1c3a:	8b 43 6c             	mov    0x6c(%ebx),%eax
    1c3d:	85 c0                	test   %eax,%eax
    1c3f:	74 08                	je     1c49 <tcp_conn_delete+0xd9>
    1c41:	89 04 24             	mov    %eax,(%esp)
    1c44:	e8 87 b8 00 00       	call   d4d0 <fibril_timer_destroy>
    1c49:	89 5d 08             	mov    %ebx,0x8(%ebp)
    1c4c:	83 c4 24             	add    $0x24,%esp
    1c4f:	5b                   	pop    %ebx
    1c50:	5d                   	pop    %ebp
    1c51:	e9 5a 42 01 00       	jmp    15eb0 <free>
    1c56:	c7 44 24 08 d7 00 00 	movl   $0xd7,0x8(%esp)
    1c5d:	00 
    1c5e:	c7 44 24 04 88 95 02 	movl   $0x29588,0x4(%esp)
    1c65:	00 
    1c66:	c7 04 24 4b 96 02 00 	movl   $0x2964b,(%esp)
    1c6d:	e8 5e f5 01 00       	call   211d0 <assert_abort>
    1c72:	8d b4 26 00 00 00 00 	lea    0x0(%esi,%eiz,1),%esi
    1c79:	8d bc 27 00 00 00 00 	lea    0x0(%edi,%eiz,1),%edi

00001c80 <tcp_conn_add>:
    1c80:	55                   	push   %ebp
    1c81:	89 e5                	mov    %esp,%ebp
    1c83:	53                   	push   %ebx
    1c84:	83 ec 24             	sub    $0x24,%esp
    1c87:	8b 5d 08             	mov    0x8(%ebp),%ebx
    1c8a:	89 5c 24 10          	mov    %ebx,0x10(%esp)
    1c8e:	8b 03                	mov    (%ebx),%eax
    1c90:	c7 44 24 08 1b 96 02 	movl   $0x2961b,0x8(%esp)
    1c97:	00 
    1c98:	89 44 24 0c          	mov    %eax,0xc(%esp)
    1c9c:	c7 44 24 04 05 00 00 	movl   $0x5,0x4(%esp)
    1ca3:	00 
    1ca4:	c7 04 24 ff ff ff ff 	movl   $0xffffffff,(%esp)
    1cab:	e8 80 f0 00 00       	call   10d30 <log_msg>
    1cb0:	f0 ff 43 38          	lock incl 0x38(%ebx)
    1cb4:	c7 04 24 c0 d3 02 00 	movl   $0x2d3c0,(%esp)
    1cbb:	e8 e0 a9 00 00       	call   c6a0 <fibril_mutex_lock>
    1cc0:	8b 15 d0 d3 02 00    	mov    0x2d3d0,%edx
    1cc6:	8d 43 04             	lea    0x4(%ebx),%eax
    1cc9:	c7 43 08 d0 d3 02 00 	movl   $0x2d3d0,0x8(%ebx)
    1cd0:	89 53 04             	mov    %edx,0x4(%ebx)
    1cd3:	89 42 04             	mov    %eax,0x4(%edx)
    1cd6:	a3 d0 d3 02 00       	mov    %eax,0x2d3d0
    1cdb:	c7 45 08 c0 d3 02 00 	movl   $0x2d3c0,0x8(%ebp)
    1ce2:	83 c4 24             	add    $0x24,%esp
    1ce5:	5b                   	pop    %ebx
    1ce6:	5d                   	pop    %ebp
    1ce7:	e9 d4 aa 00 00       	jmp    c7c0 <fibril_mutex_unlock>
    1cec:	8d 74 26 00          	lea    0x0(%esi,%eiz,1),%esi

00001cf0 <tcp_conn_remove>:
    1cf0:	55                   	push   %ebp
    1cf1:	89 e5                	mov    %esp,%ebp
    1cf3:	53                   	push   %ebx
    1cf4:	83 ec 24             	sub    $0x24,%esp
    1cf7:	8b 5d 08             	mov    0x8(%ebp),%ebx
    1cfa:	c7 04 24 c0 d3 02 00 	movl   $0x2d3c0,(%esp)
    1d01:	e8 9a a9 00 00       	call   c6a0 <fibril_mutex_lock>
    1d06:	8b 53 04             	mov    0x4(%ebx),%edx
    1d09:	85 d2                	test   %edx,%edx
    1d0b:	74 0f                	je     1d1c <tcp_conn_remove+0x2c>
    1d0d:	8b 43 08             	mov    0x8(%ebx),%eax
    1d10:	85 c0                	test   %eax,%eax
    1d12:	74 08                	je     1d1c <tcp_conn_remove+0x2c>
    1d14:	89 10                	mov    %edx,(%eax)
    1d16:	8b 53 04             	mov    0x4(%ebx),%edx
    1d19:	89 42 04             	mov    %eax,0x4(%edx)
    1d1c:	c7 43 04 00 00 00 00 	movl   $0x0,0x4(%ebx)
    1d23:	c7 43 08 00 00 00 00 	movl   $0x0,0x8(%ebx)
    1d2a:	c7 04 24 c0 d3 02 00 	movl   $0x2d3c0,(%esp)
    1d31:	e8 8a aa 00 00       	call   c7c0 <fibril_mutex_unlock>
    1d36:	89 5c 24 10          	mov    %ebx,0x10(%esp)
    1d3a:	8b 03                	mov    (%ebx),%eax
    1d3c:	c7 44 24 08 a6 95 02 	movl   $0x295a6,0x8(%esp)
    1d43:	00 
    1d44:	89 44 24 0c          	mov    %eax,0xc(%esp)
    1d48:	c7 44 24 04 05 00 00 	movl   $0x5,0x4(%esp)
    1d4f:	00 
    1d50:	c7 04 24 ff ff ff ff 	movl   $0xffffffff,(%esp)
    1d57:	e8 d4 ef 00 00       	call   10d30 <log_msg>
    1d5c:	83 c8 ff             	or     $0xffffffff,%eax
    1d5f:	f0 0f c1 43 38       	lock xadd %eax,0x38(%ebx)
    1d64:	48                   	dec    %eax
    1d65:	74 09                	je     1d70 <tcp_conn_remove+0x80>
    1d67:	83 c4 24             	add    $0x24,%esp
    1d6a:	5b                   	pop    %ebx
    1d6b:	5d                   	pop    %ebp
    1d6c:	c3                   	ret    
    1d6d:	8d 76 00             	lea    0x0(%esi),%esi
    1d70:	89 5c 24 10          	mov    %ebx,0x10(%esp)
    1d74:	8b 03                	mov    (%ebx),%eax
    1d76:	c7 44 24 08 5b 95 02 	movl   $0x2955b,0x8(%esp)
    1d7d:	00 
    1d7e:	89 44 24 0c          	mov    %eax,0xc(%esp)
    1d82:	c7 44 24 04 04 00 00 	movl   $0x4,0x4(%esp)
    1d89:	00 
    1d8a:	c7 04 24 ff ff ff ff 	movl   $0xffffffff,(%esp)
    1d91:	e8 9a ef 00 00       	call   10d30 <log_msg>
    1d96:	8d 43 5c             	lea    0x5c(%ebx),%eax
    1d99:	89 04 24             	mov    %eax,(%esp)
    1d9c:	e8 1f 52 00 00       	call   6fc0 <tcp_tqueue_fini>
    1da1:	8b 43 70             	mov    0x70(%ebx),%eax
    1da4:	85 c0                	test   %eax,%eax
    1da6:	74 08                	je     1db0 <tcp_conn_remove+0xc0>
    1da8:	89 04 24             	mov    %eax,(%esp)
    1dab:	e8 00 41 01 00       	call   15eb0 <free>
    1db0:	8b 83 88 00 00 00    	mov    0x88(%ebx),%eax
    1db6:	85 c0                	test   %eax,%eax
    1db8:	74 08                	je     1dc2 <tcp_conn_remove+0xd2>
    1dba:	89 04 24             	mov    %eax,(%esp)
    1dbd:	e8 ee 40 01 00       	call   15eb0 <free>
    1dc2:	8b 43 6c             	mov    0x6c(%ebx),%eax
    1dc5:	85 c0                	test   %eax,%eax
    1dc7:	74 08                	je     1dd1 <tcp_conn_remove+0xe1>
    1dc9:	89 04 24             	mov    %eax,(%esp)
    1dcc:	e8 ff b6 00 00       	call   d4d0 <fibril_timer_destroy>
    1dd1:	89 5d 08             	mov    %ebx,0x8(%ebp)
    1dd4:	83 c4 24             	add    $0x24,%esp
    1dd7:	5b                   	pop    %ebx
    1dd8:	5d                   	pop    %ebp
    1dd9:	e9 d2 40 01 00       	jmp    15eb0 <free>
    1dde:	66 90                	xchg   %ax,%ax

00001de0 <tcp_conn_sync>:
    1de0:	55                   	push   %ebp
    1de1:	89 e5                	mov    %esp,%ebp
    1de3:	56                   	push   %esi
    1de4:	53                   	push   %ebx
    1de5:	83 ec 10             	sub    $0x10,%esp
    1de8:	8b 5d 08             	mov    0x8(%ebp),%ebx
    1deb:	c7 83 b8 00 00 00 01 	movl   $0x1,0xb8(%ebx)
    1df2:	00 00 00 
    1df5:	c7 83 a4 00 00 00 01 	movl   $0x1,0xa4(%ebx)
    1dfc:	00 00 00 
    1dff:	c7 83 a0 00 00 00 01 	movl   $0x1,0xa0(%ebx)
    1e06:	00 00 00 
    1e09:	c7 43 24 00 00 00 00 	movl   $0x0,0x24(%ebx)
    1e10:	c7 44 24 04 01 00 00 	movl   $0x1,0x4(%esp)
    1e17:	00 
    1e18:	89 1c 24             	mov    %ebx,(%esp)
    1e1b:	e8 60 54 00 00       	call   7280 <tcp_tqueue_ctrl_seg>
    1e20:	89 5c 24 0c          	mov    %ebx,0xc(%esp)
    1e24:	c7 44 24 08 71 95 02 	movl   $0x29571,0x8(%esp)
    1e2b:	00 
    1e2c:	c7 44 24 04 04 00 00 	movl   $0x4,0x4(%esp)
    1e33:	00 
    1e34:	c7 04 24 ff ff ff ff 	movl   $0xffffffff,(%esp)
    1e3b:	e8 f0 ee 00 00       	call   10d30 <log_msg>
    1e40:	8d 43 44             	lea    0x44(%ebx),%eax
    1e43:	8b 73 3c             	mov    0x3c(%ebx),%esi
    1e46:	c7 43 3c 01 00 00 00 	movl   $0x1,0x3c(%ebx)
    1e4d:	89 04 24             	mov    %eax,(%esp)
    1e50:	e8 6b b5 00 00       	call   d3c0 <fibril_condvar_broadcast>
    1e55:	8b 43 0c             	mov    0xc(%ebx),%eax
    1e58:	85 c0                	test   %eax,%eax
    1e5a:	74 3c                	je     1e98 <tcp_conn_sync+0xb8>
    1e5c:	c7 44 24 08 7c 91 02 	movl   $0x2917c,0x8(%esp)
    1e63:	00 
    1e64:	c7 44 24 04 04 00 00 	movl   $0x4,0x4(%esp)
    1e6b:	00 
    1e6c:	c7 04 24 ff ff ff ff 	movl   $0xffffffff,(%esp)
    1e73:	e8 b8 ee 00 00       	call   10d30 <log_msg>
    1e78:	8b 43 10             	mov    0x10(%ebx),%eax
    1e7b:	89 44 24 04          	mov    %eax,0x4(%esp)
    1e7f:	89 1c 24             	mov    %ebx,(%esp)
    1e82:	ff 53 0c             	call   *0xc(%ebx)
    1e85:	83 fe 0a             	cmp    $0xa,%esi
    1e88:	74 2c                	je     1eb6 <tcp_conn_sync+0xd6>
    1e8a:	83 c4 10             	add    $0x10,%esp
    1e8d:	5b                   	pop    %ebx
    1e8e:	5e                   	pop    %esi
    1e8f:	5d                   	pop    %ebp
    1e90:	c3                   	ret    
    1e91:	8d b4 26 00 00 00 00 	lea    0x0(%esi,%eiz,1),%esi
    1e98:	c7 44 24 08 a0 91 02 	movl   $0x291a0,0x8(%esp)
    1e9f:	00 
    1ea0:	c7 44 24 04 04 00 00 	movl   $0x4,0x4(%esp)
    1ea7:	00 
    1ea8:	c7 04 24 ff ff ff ff 	movl   $0xffffffff,(%esp)
    1eaf:	e8 7c ee 00 00       	call   10d30 <log_msg>
    1eb4:	eb cf                	jmp    1e85 <tcp_conn_sync+0xa5>
    1eb6:	c7 44 24 08 05 01 00 	movl   $0x105,0x8(%esp)
    1ebd:	00 
    1ebe:	c7 44 24 04 88 95 02 	movl   $0x29588,0x4(%esp)
    1ec5:	00 
    1ec6:	c7 04 24 8f 95 02 00 	movl   $0x2958f,(%esp)
    1ecd:	e8 fe f2 01 00       	call   211d0 <assert_abort>
    1ed2:	8d b4 26 00 00 00 00 	lea    0x0(%esi,%eiz,1),%esi
    1ed9:	8d bc 27 00 00 00 00 	lea    0x0(%edi,%eiz,1),%edi

00001ee0 <tcp_conn_fin_sent>:
    1ee0:	55                   	push   %ebp
    1ee1:	89 e5                	mov    %esp,%ebp
    1ee3:	56                   	push   %esi
    1ee4:	53                   	push   %ebx
    1ee5:	83 ec 20             	sub    $0x20,%esp
    1ee8:	8b 5d 08             	mov    0x8(%ebp),%ebx
    1eeb:	8b 43 3c             	mov    0x3c(%ebx),%eax
    1eee:	83 f8 02             	cmp    $0x2,%eax
    1ef1:	73 45                	jae    1f38 <tcp_conn_fin_sent+0x58>
    1ef3:	89 44 24 10          	mov    %eax,0x10(%esp)
    1ef7:	8b 03                	mov    (%ebx),%eax
    1ef9:	c7 44 24 08 96 96 02 	movl   $0x29696,0x8(%esp)
    1f00:	00 
    1f01:	89 44 24 0c          	mov    %eax,0xc(%esp)
    1f05:	c7 44 24 04 01 00 00 	movl   $0x1,0x4(%esp)
    1f0c:	00 
    1f0d:	c7 04 24 ff ff ff ff 	movl   $0xffffffff,(%esp)
    1f14:	e8 17 ee 00 00       	call   10d30 <log_msg>
    1f19:	c7 44 24 08 31 01 00 	movl   $0x131,0x8(%esp)
    1f20:	00 
    1f21:	c7 44 24 04 88 95 02 	movl   $0x29588,0x4(%esp)
    1f28:	00 
    1f29:	c7 04 24 5c 96 02 00 	movl   $0x2965c,(%esp)
    1f30:	e8 9b f2 01 00       	call   211d0 <assert_abort>
    1f35:	8d 76 00             	lea    0x0(%esi),%esi
    1f38:	83 f8 03             	cmp    $0x3,%eax
    1f3b:	0f 87 9f 00 00 00    	ja     1fe0 <tcp_conn_fin_sent+0x100>
    1f41:	8b 03                	mov    (%ebx),%eax
    1f43:	c7 44 24 08 62 96 02 	movl   $0x29662,0x8(%esp)
    1f4a:	00 
    1f4b:	89 44 24 0c          	mov    %eax,0xc(%esp)
    1f4f:	c7 44 24 04 04 00 00 	movl   $0x4,0x4(%esp)
    1f56:	00 
    1f57:	c7 04 24 ff ff ff ff 	movl   $0xffffffff,(%esp)
    1f5e:	e8 cd ed 00 00       	call   10d30 <log_msg>
    1f63:	89 5c 24 0c          	mov    %ebx,0xc(%esp)
    1f67:	c7 44 24 08 71 95 02 	movl   $0x29571,0x8(%esp)
    1f6e:	00 
    1f6f:	c7 44 24 04 04 00 00 	movl   $0x4,0x4(%esp)
    1f76:	00 
    1f77:	c7 04 24 ff ff ff ff 	movl   $0xffffffff,(%esp)
    1f7e:	e8 ad ed 00 00       	call   10d30 <log_msg>
    1f83:	8b 73 3c             	mov    0x3c(%ebx),%esi
    1f86:	c7 43 3c 04 00 00 00 	movl   $0x4,0x3c(%ebx)
    1f8d:	8d 43 44             	lea    0x44(%ebx),%eax
    1f90:	89 04 24             	mov    %eax,(%esp)
    1f93:	e8 28 b4 00 00       	call   d3c0 <fibril_condvar_broadcast>
    1f98:	8b 43 0c             	mov    0xc(%ebx),%eax
    1f9b:	85 c0                	test   %eax,%eax
    1f9d:	0f 84 9d 00 00 00    	je     2040 <tcp_conn_fin_sent+0x160>
    1fa3:	c7 44 24 08 7c 91 02 	movl   $0x2917c,0x8(%esp)
    1faa:	00 
    1fab:	c7 44 24 04 04 00 00 	movl   $0x4,0x4(%esp)
    1fb2:	00 
    1fb3:	c7 04 24 ff ff ff ff 	movl   $0xffffffff,(%esp)
    1fba:	e8 71 ed 00 00       	call   10d30 <log_msg>
    1fbf:	8b 43 10             	mov    0x10(%ebx),%eax
    1fc2:	89 44 24 04          	mov    %eax,0x4(%esp)
    1fc6:	89 1c 24             	mov    %ebx,(%esp)
    1fc9:	ff 53 0c             	call   *0xc(%ebx)
    1fcc:	83 fe 0a             	cmp    $0xa,%esi
    1fcf:	0f 84 8c 00 00 00    	je     2061 <tcp_conn_fin_sent+0x181>
    1fd5:	c6 43 4c 00          	movb   $0x0,0x4c(%ebx)
    1fd9:	83 c4 20             	add    $0x20,%esp
    1fdc:	5b                   	pop    %ebx
    1fdd:	5e                   	pop    %esi
    1fde:	5d                   	pop    %ebp
    1fdf:	c3                   	ret    
    1fe0:	83 f8 06             	cmp    $0x6,%eax
    1fe3:	0f 85 0a ff ff ff    	jne    1ef3 <tcp_conn_fin_sent+0x13>
    1fe9:	8b 03                	mov    (%ebx),%eax
    1feb:	c7 44 24 08 7d 96 02 	movl   $0x2967d,0x8(%esp)
    1ff2:	00 
    1ff3:	89 44 24 0c          	mov    %eax,0xc(%esp)
    1ff7:	c7 44 24 04 04 00 00 	movl   $0x4,0x4(%esp)
    1ffe:	00 
    1fff:	c7 04 24 ff ff ff ff 	movl   $0xffffffff,(%esp)
    2006:	e8 25 ed 00 00       	call   10d30 <log_msg>
    200b:	89 5c 24 0c          	mov    %ebx,0xc(%esp)
    200f:	c7 44 24 08 71 95 02 	movl   $0x29571,0x8(%esp)
    2016:	00 
    2017:	c7 44 24 04 04 00 00 	movl   $0x4,0x4(%esp)
    201e:	00 
    201f:	c7 04 24 ff ff ff ff 	movl   $0xffffffff,(%esp)
    2026:	e8 05 ed 00 00       	call   10d30 <log_msg>
    202b:	8b 73 3c             	mov    0x3c(%ebx),%esi
    202e:	c7 43 3c 08 00 00 00 	movl   $0x8,0x3c(%ebx)
    2035:	e9 53 ff ff ff       	jmp    1f8d <tcp_conn_fin_sent+0xad>
    203a:	8d b6 00 00 00 00    	lea    0x0(%esi),%esi
    2040:	c7 44 24 08 a0 91 02 	movl   $0x291a0,0x8(%esp)
    2047:	00 
    2048:	c7 44 24 04 04 00 00 	movl   $0x4,0x4(%esp)
    204f:	00 
    2050:	c7 04 24 ff ff ff ff 	movl   $0xffffffff,(%esp)
    2057:	e8 d4 ec 00 00       	call   10d30 <log_msg>
    205c:	e9 6b ff ff ff       	jmp    1fcc <tcp_conn_fin_sent+0xec>
    2061:	c7 44 24 08 05 01 00 	movl   $0x105,0x8(%esp)
    2068:	00 
    2069:	c7 44 24 04 88 95 02 	movl   $0x29588,0x4(%esp)
    2070:	00 
    2071:	c7 04 24 8f 95 02 00 	movl   $0x2958f,(%esp)
    2078:	e8 53 f1 01 00       	call   211d0 <assert_abort>
    207d:	8d 76 00             	lea    0x0(%esi),%esi

00002080 <tcp_conn_find_ref>:
    2080:	55                   	push   %ebp
    2081:	89 e5                	mov    %esp,%ebp
    2083:	57                   	push   %edi
    2084:	56                   	push   %esi
    2085:	53                   	push   %ebx
    2086:	83 ec 2c             	sub    $0x2c,%esp
    2089:	8b 75 08             	mov    0x8(%ebp),%esi
    208c:	89 74 24 0c          	mov    %esi,0xc(%esp)
    2090:	c7 44 24 08 ae 96 02 	movl   $0x296ae,0x8(%esp)
    2097:	00 
    2098:	c7 44 24 04 04 00 00 	movl   $0x4,0x4(%esp)
    209f:	00 
    20a0:	c7 04 24 ff ff ff ff 	movl   $0xffffffff,(%esp)
    20a7:	e8 84 ec 00 00       	call   10d30 <log_msg>
    20ac:	c7 04 24 c0 d3 02 00 	movl   $0x2d3c0,(%esp)
    20b3:	e8 e8 a5 00 00       	call   c6a0 <fibril_mutex_lock>
    20b8:	8b 3d d4 d3 02 00    	mov    0x2d3d4,%edi
    20be:	81 ff d0 d3 02 00    	cmp    $0x2d3d0,%edi
    20c4:	75 21                	jne    20e7 <tcp_conn_find_ref+0x67>
    20c6:	e9 c5 01 00 00       	jmp    2290 <tcp_conn_find_ref+0x210>
    20cb:	90                   	nop
    20cc:	8d 74 26 00          	lea    0x0(%esi,%eiz,1),%esi
    20d0:	3b 06                	cmp    (%esi),%eax
    20d2:	0f 84 c7 00 00 00    	je     219f <tcp_conn_find_ref+0x11f>
    20d8:	8b 7f 04             	mov    0x4(%edi),%edi
    20db:	81 ff d0 d3 02 00    	cmp    $0x2d3d0,%edi
    20e1:	0f 84 a9 01 00 00    	je     2290 <tcp_conn_find_ref+0x210>
    20e7:	8d 5f fc             	lea    -0x4(%edi),%ebx
    20ea:	8b 43 18             	mov    0x18(%ebx),%eax
    20ed:	25 ff ff 00 00       	and    $0xffff,%eax
    20f2:	89 44 24 18          	mov    %eax,0x18(%esp)
    20f6:	8b 43 14             	mov    0x14(%ebx),%eax
    20f9:	89 44 24 14          	mov    %eax,0x14(%esp)
    20fd:	8b 43 20             	mov    0x20(%ebx),%eax
    2100:	25 ff ff 00 00       	and    $0xffff,%eax
    2105:	89 44 24 10          	mov    %eax,0x10(%esp)
    2109:	8b 43 1c             	mov    0x1c(%ebx),%eax
    210c:	c7 44 24 08 c4 91 02 	movl   $0x291c4,0x8(%esp)
    2113:	00 
    2114:	89 44 24 0c          	mov    %eax,0xc(%esp)
    2118:	c7 44 24 04 05 00 00 	movl   $0x5,0x4(%esp)
    211f:	00 
    2120:	c7 04 24 ff ff ff ff 	movl   $0xffffffff,(%esp)
    2127:	e8 04 ec 00 00       	call   10d30 <log_msg>
    212c:	8d 47 10             	lea    0x10(%edi),%eax
    212f:	89 44 24 10          	mov    %eax,0x10(%esp)
    2133:	89 74 24 0c          	mov    %esi,0xc(%esp)
    2137:	c7 44 24 08 c4 96 02 	movl   $0x296c4,0x8(%esp)
    213e:	00 
    213f:	c7 44 24 04 05 00 00 	movl   $0x5,0x4(%esp)
    2146:	00 
    2147:	c7 04 24 ff ff ff ff 	movl   $0xffffffff,(%esp)
    214e:	e8 dd eb 00 00       	call   10d30 <log_msg>
    2153:	8b 43 18             	mov    0x18(%ebx),%eax
    2156:	25 ff ff 00 00       	and    $0xffff,%eax
    215b:	89 44 24 18          	mov    %eax,0x18(%esp)
    215f:	8b 43 14             	mov    0x14(%ebx),%eax
    2162:	89 44 24 14          	mov    %eax,0x14(%esp)
    2166:	8b 46 04             	mov    0x4(%esi),%eax
    2169:	25 ff ff 00 00       	and    $0xffff,%eax
    216e:	89 44 24 10          	mov    %eax,0x10(%esp)
    2172:	8b 06                	mov    (%esi),%eax
    2174:	c7 44 24 08 f0 91 02 	movl   $0x291f0,0x8(%esp)
    217b:	00 
    217c:	89 44 24 0c          	mov    %eax,0xc(%esp)
    2180:	c7 44 24 04 05 00 00 	movl   $0x5,0x4(%esp)
    2187:	00 
    2188:	c7 04 24 ff ff ff ff 	movl   $0xffffffff,(%esp)
    218f:	e8 9c eb 00 00       	call   10d30 <log_msg>
    2194:	8b 43 14             	mov    0x14(%ebx),%eax
    2197:	85 c0                	test   %eax,%eax
    2199:	0f 85 31 ff ff ff    	jne    20d0 <tcp_conn_find_ref+0x50>
    219f:	8b 43 18             	mov    0x18(%ebx),%eax
    21a2:	66 85 c0             	test   %ax,%ax
    21a5:	74 0a                	je     21b1 <tcp_conn_find_ref+0x131>
    21a7:	66 3b 46 04          	cmp    0x4(%esi),%ax
    21ab:	0f 85 27 ff ff ff    	jne    20d8 <tcp_conn_find_ref+0x58>
    21b1:	c7 44 24 08 df 96 02 	movl   $0x296df,0x8(%esp)
    21b8:	00 
    21b9:	c7 44 24 04 05 00 00 	movl   $0x5,0x4(%esp)
    21c0:	00 
    21c1:	c7 04 24 ff ff ff ff 	movl   $0xffffffff,(%esp)
    21c8:	e8 63 eb 00 00       	call   10d30 <log_msg>
    21cd:	8b 43 20             	mov    0x20(%ebx),%eax
    21d0:	25 ff ff 00 00       	and    $0xffff,%eax
    21d5:	89 44 24 18          	mov    %eax,0x18(%esp)
    21d9:	8b 43 1c             	mov    0x1c(%ebx),%eax
    21dc:	89 44 24 14          	mov    %eax,0x14(%esp)
    21e0:	8b 46 0c             	mov    0xc(%esi),%eax
    21e3:	25 ff ff 00 00       	and    $0xffff,%eax
    21e8:	89 44 24 10          	mov    %eax,0x10(%esp)
    21ec:	8b 46 08             	mov    0x8(%esi),%eax
    21ef:	c7 44 24 08 f0 91 02 	movl   $0x291f0,0x8(%esp)
    21f6:	00 
    21f7:	89 44 24 0c          	mov    %eax,0xc(%esp)
    21fb:	c7 44 24 04 05 00 00 	movl   $0x5,0x4(%esp)
    2202:	00 
    2203:	c7 04 24 ff ff ff ff 	movl   $0xffffffff,(%esp)
    220a:	e8 21 eb 00 00       	call   10d30 <log_msg>
    220f:	8b 43 1c             	mov    0x1c(%ebx),%eax
    2212:	85 c0                	test   %eax,%eax
    2214:	74 09                	je     221f <tcp_conn_find_ref+0x19f>
    2216:	3b 46 08             	cmp    0x8(%esi),%eax
    2219:	0f 85 b9 fe ff ff    	jne    20d8 <tcp_conn_find_ref+0x58>
    221f:	8b 43 20             	mov    0x20(%ebx),%eax
    2222:	66 85 c0             	test   %ax,%ax
    2225:	74 0a                	je     2231 <tcp_conn_find_ref+0x1b1>
    2227:	66 3b 46 0c          	cmp    0xc(%esi),%ax
    222b:	0f 85 a7 fe ff ff    	jne    20d8 <tcp_conn_find_ref+0x58>
    2231:	c7 44 24 08 df 96 02 	movl   $0x296df,0x8(%esp)
    2238:	00 
    2239:	c7 44 24 04 05 00 00 	movl   $0x5,0x4(%esp)
    2240:	00 
    2241:	c7 04 24 ff ff ff ff 	movl   $0xffffffff,(%esp)
    2248:	e8 e3 ea 00 00       	call   10d30 <log_msg>
    224d:	89 5c 24 10          	mov    %ebx,0x10(%esp)
    2251:	8b 03                	mov    (%ebx),%eax
    2253:	c7 44 24 08 1b 96 02 	movl   $0x2961b,0x8(%esp)
    225a:	00 
    225b:	89 44 24 0c          	mov    %eax,0xc(%esp)
    225f:	c7 44 24 04 05 00 00 	movl   $0x5,0x4(%esp)
    2266:	00 
    2267:	c7 04 24 ff ff ff ff 	movl   $0xffffffff,(%esp)
    226e:	e8 bd ea 00 00       	call   10d30 <log_msg>
    2273:	f0 ff 43 38          	lock incl 0x38(%ebx)
    2277:	c7 04 24 c0 d3 02 00 	movl   $0x2d3c0,(%esp)
    227e:	e8 3d a5 00 00       	call   c7c0 <fibril_mutex_unlock>
    2283:	83 c4 2c             	add    $0x2c,%esp
    2286:	89 d8                	mov    %ebx,%eax
    2288:	5b                   	pop    %ebx
    2289:	5e                   	pop    %esi
    228a:	5f                   	pop    %edi
    228b:	5d                   	pop    %ebp
    228c:	c3                   	ret    
    228d:	8d 76 00             	lea    0x0(%esi),%esi
    2290:	c7 04 24 c0 d3 02 00 	movl   $0x2d3c0,(%esp)
    2297:	31 db                	xor    %ebx,%ebx
    2299:	e8 22 a5 00 00       	call   c7c0 <fibril_mutex_unlock>
    229e:	83 c4 2c             	add    $0x2c,%esp
    22a1:	89 d8                	mov    %ebx,%eax
    22a3:	5b                   	pop    %ebx
    22a4:	5e                   	pop    %esi
    22a5:	5f                   	pop    %edi
    22a6:	5d                   	pop    %ebp
    22a7:	c3                   	ret    
    22a8:	90                   	nop
    22a9:	8d b4 26 00 00 00 00 	lea    0x0(%esi,%eiz,1),%esi

000022b0 <tcp_conn_got_syn>:
    22b0:	55                   	push   %ebp
    22b1:	89 e5                	mov    %esp,%ebp
    22b3:	83 ec 18             	sub    $0x18,%esp
    22b6:	8b 45 08             	mov    0x8(%ebp),%eax
    22b9:	83 78 3c 0a          	cmpl   $0xa,0x3c(%eax)
    22bd:	76 21                	jbe    22e0 <tcp_conn_got_syn+0x30>
    22bf:	c7 44 24 08 ac 01 00 	movl   $0x1ac,0x8(%esp)
    22c6:	00 
    22c7:	c7 44 24 04 88 95 02 	movl   $0x29588,0x4(%esp)
    22ce:	00 
    22cf:	c7 04 24 5c 96 02 00 	movl   $0x2965c,(%esp)
    22d6:	e8 f5 ee 01 00       	call   211d0 <assert_abort>
    22db:	90                   	nop
    22dc:	8d 74 26 00          	lea    0x0(%esi,%eiz,1),%esi
    22e0:	8b 40 3c             	mov    0x3c(%eax),%eax
    22e3:	ff 24 85 64 99 02 00 	jmp    *0x29964(,%eax,4)
    22ea:	8d b6 00 00 00 00    	lea    0x0(%esi),%esi
    22f0:	b0 01                	mov    $0x1,%al
    22f2:	c9                   	leave  
    22f3:	c3                   	ret    
    22f4:	8d 74 26 00          	lea    0x0(%esi,%eiz,1),%esi
    22f8:	31 c0                	xor    %eax,%eax
    22fa:	c9                   	leave  
    22fb:	c3                   	ret    
    22fc:	8d 74 26 00          	lea    0x0(%esi,%eiz,1),%esi
    2300:	c7 44 24 0c 0a 00 00 	movl   $0xa,0xc(%esp)
    2307:	00 
    2308:	c7 44 24 08 e9 96 02 	movl   $0x296e9,0x8(%esp)
    230f:	00 
    2310:	c7 44 24 04 02 00 00 	movl   $0x2,0x4(%esp)
    2317:	00 
    2318:	c7 04 24 ff ff ff ff 	movl   $0xffffffff,(%esp)
    231f:	e8 0c ea 00 00       	call   10d30 <log_msg>
    2324:	c7 44 24 08 a9 01 00 	movl   $0x1a9,0x8(%esp)
    232b:	00 
    232c:	c7 44 24 04 88 95 02 	movl   $0x29588,0x4(%esp)
    2333:	00 
    2334:	c7 04 24 5c 96 02 00 	movl   $0x2965c,(%esp)
    233b:	e8 90 ee 01 00       	call   211d0 <assert_abort>

00002340 <tcp_conn_segment_arrived>:
    2340:	55                   	push   %ebp
    2341:	89 e5                	mov    %esp,%ebp
    2343:	57                   	push   %edi
    2344:	56                   	push   %esi
    2345:	53                   	push   %ebx
    2346:	83 ec 4c             	sub    $0x4c,%esp
    2349:	8b 7d 08             	mov    0x8(%ebp),%edi
    234c:	8b 5d 0c             	mov    0xc(%ebp),%ebx
    234f:	89 5c 24 10          	mov    %ebx,0x10(%esp)
    2353:	8b 07                	mov    (%edi),%eax
    2355:	c7 44 24 08 1c 92 02 	movl   $0x2921c,0x8(%esp)
    235c:	00 
    235d:	89 44 24 0c          	mov    %eax,0xc(%esp)
    2361:	c7 44 24 04 04 00 00 	movl   $0x4,0x4(%esp)
    2368:	00 
    2369:	c7 04 24 ff ff ff ff 	movl   $0xffffffff,(%esp)
    2370:	e8 bb e9 00 00       	call   10d30 <log_msg>
    2375:	83 7f 3c 0a          	cmpl   $0xa,0x3c(%edi)
    2379:	0f 87 81 01 00 00    	ja     2500 <tcp_conn_segment_arrived+0x1c0>
    237f:	8b 47 3c             	mov    0x3c(%edi),%eax
    2382:	ff 24 85 90 99 02 00 	jmp    *0x29990(,%eax,4)
    2389:	8d b4 26 00 00 00 00 	lea    0x0(%esi,%eiz,1),%esi
    2390:	89 5c 24 10          	mov    %ebx,0x10(%esp)
    2394:	89 7c 24 0c          	mov    %edi,0xc(%esp)
    2398:	c7 44 24 08 f2 96 02 	movl   $0x296f2,0x8(%esp)
    239f:	00 
    23a0:	c7 44 24 04 04 00 00 	movl   $0x4,0x4(%esp)
    23a7:	00 
    23a8:	c7 04 24 ff ff ff ff 	movl   $0xffffffff,(%esp)
    23af:	e8 7c e9 00 00       	call   10d30 <log_msg>
    23b4:	8b 03                	mov    (%ebx),%eax
    23b6:	a8 04                	test   $0x4,%al
    23b8:	0f 85 f2 05 00 00    	jne    29b0 <tcp_conn_segment_arrived+0x670>
    23be:	a8 08                	test   $0x8,%al
    23c0:	0f 85 22 0b 00 00    	jne    2ee8 <tcp_conn_segment_arrived+0xba8>
    23c6:	a8 01                	test   $0x1,%al
    23c8:	0f 84 f2 0a 00 00    	je     2ec0 <tcp_conn_segment_arrived+0xb80>
    23ce:	c7 44 24 08 3a 97 02 	movl   $0x2973a,0x8(%esp)
    23d5:	00 
    23d6:	c7 44 24 04 04 00 00 	movl   $0x4,0x4(%esp)
    23dd:	00 
    23de:	c7 04 24 ff ff ff ff 	movl   $0xffffffff,(%esp)
    23e5:	e8 46 e9 00 00       	call   10d30 <log_msg>
    23ea:	8b 53 04             	mov    0x4(%ebx),%edx
    23ed:	8d 42 01             	lea    0x1(%edx),%eax
    23f0:	89 97 c8 00 00 00    	mov    %edx,0xc8(%edi)
    23f6:	89 87 bc 00 00 00    	mov    %eax,0xbc(%edi)
    23fc:	89 44 24 0c          	mov    %eax,0xc(%esp)
    2400:	c7 44 24 08 55 97 02 	movl   $0x29755,0x8(%esp)
    2407:	00 
    2408:	c7 44 24 04 04 00 00 	movl   $0x4,0x4(%esp)
    240f:	00 
    2410:	c7 04 24 ff ff ff ff 	movl   $0xffffffff,(%esp)
    2417:	e8 14 e9 00 00       	call   10d30 <log_msg>
    241c:	83 7b 0c 01          	cmpl   $0x1,0xc(%ebx)
    2420:	76 1c                	jbe    243e <tcp_conn_segment_arrived+0xfe>
    2422:	c7 44 24 08 88 92 02 	movl   $0x29288,0x8(%esp)
    2429:	00 
    242a:	c7 44 24 04 02 00 00 	movl   $0x2,0x4(%esp)
    2431:	00 
    2432:	c7 04 24 ff ff ff ff 	movl   $0xffffffff,(%esp)
    2439:	e8 f2 e8 00 00       	call   10d30 <log_msg>
    243e:	8b 43 10             	mov    0x10(%ebx),%eax
    2441:	c7 87 b8 00 00 00 01 	movl   $0x1,0xb8(%edi)
    2448:	00 00 00 
    244b:	89 87 a8 00 00 00    	mov    %eax,0xa8(%edi)
    2451:	8b 43 04             	mov    0x4(%ebx),%eax
    2454:	c7 87 a4 00 00 00 01 	movl   $0x1,0xa4(%edi)
    245b:	00 00 00 
    245e:	c7 87 a0 00 00 00 01 	movl   $0x1,0xa0(%edi)
    2465:	00 00 00 
    2468:	89 87 b0 00 00 00    	mov    %eax,0xb0(%edi)
    246e:	89 87 b4 00 00 00    	mov    %eax,0xb4(%edi)
    2474:	89 7c 24 0c          	mov    %edi,0xc(%esp)
    2478:	c7 44 24 08 71 95 02 	movl   $0x29571,0x8(%esp)
    247f:	00 
    2480:	c7 44 24 04 04 00 00 	movl   $0x4,0x4(%esp)
    2487:	00 
    2488:	c7 04 24 ff ff ff ff 	movl   $0xffffffff,(%esp)
    248f:	e8 9c e8 00 00       	call   10d30 <log_msg>
    2494:	8d 47 44             	lea    0x44(%edi),%eax
    2497:	8b 77 3c             	mov    0x3c(%edi),%esi
    249a:	c7 47 3c 02 00 00 00 	movl   $0x2,0x3c(%edi)
    24a1:	89 04 24             	mov    %eax,(%esp)
    24a4:	e8 17 af 00 00       	call   d3c0 <fibril_condvar_broadcast>
    24a9:	8b 47 0c             	mov    0xc(%edi),%eax
    24ac:	85 c0                	test   %eax,%eax
    24ae:	0f 84 84 0b 00 00    	je     3038 <tcp_conn_segment_arrived+0xcf8>
    24b4:	c7 44 24 08 7c 91 02 	movl   $0x2917c,0x8(%esp)
    24bb:	00 
    24bc:	c7 44 24 04 04 00 00 	movl   $0x4,0x4(%esp)
    24c3:	00 
    24c4:	c7 04 24 ff ff ff ff 	movl   $0xffffffff,(%esp)
    24cb:	e8 60 e8 00 00       	call   10d30 <log_msg>
    24d0:	8b 47 10             	mov    0x10(%edi),%eax
    24d3:	89 44 24 04          	mov    %eax,0x4(%esp)
    24d7:	89 3c 24             	mov    %edi,(%esp)
    24da:	ff 57 0c             	call   *0xc(%edi)
    24dd:	83 fe 0a             	cmp    $0xa,%esi
    24e0:	0f 84 23 08 00 00    	je     2d09 <tcp_conn_segment_arrived+0x9c9>
    24e6:	c7 44 24 04 09 00 00 	movl   $0x9,0x4(%esp)
    24ed:	00 
    24ee:	89 3c 24             	mov    %edi,(%esp)
    24f1:	e8 8a 4d 00 00       	call   7280 <tcp_tqueue_ctrl_seg>
    24f6:	89 1c 24             	mov    %ebx,(%esp)
    24f9:	e8 92 1e 00 00       	call   4390 <tcp_segment_delete>
    24fe:	66 90                	xchg   %ax,%ax
    2500:	83 c4 4c             	add    $0x4c,%esp
    2503:	5b                   	pop    %ebx
    2504:	5e                   	pop    %esi
    2505:	5f                   	pop    %edi
    2506:	5d                   	pop    %ebp
    2507:	c3                   	ret    
    2508:	89 5c 24 10          	mov    %ebx,0x10(%esp)
    250c:	89 7c 24 0c          	mov    %edi,0xc(%esp)
    2510:	c7 44 24 08 1f 98 02 	movl   $0x2981f,0x8(%esp)
    2517:	00 
    2518:	c7 44 24 04 04 00 00 	movl   $0x4,0x4(%esp)
    251f:	00 
    2520:	c7 04 24 ff ff ff ff 	movl   $0xffffffff,(%esp)
    2527:	e8 04 e8 00 00       	call   10d30 <log_msg>
    252c:	89 5c 24 04          	mov    %ebx,0x4(%esp)
    2530:	89 3c 24             	mov    %edi,(%esp)
    2533:	e8 48 26 00 00       	call   4b80 <seq_no_segment_acceptable>
    2538:	84 c0                	test   %al,%al
    253a:	0f 84 30 01 00 00    	je     2670 <tcp_conn_segment_arrived+0x330>
    2540:	8d 77 50             	lea    0x50(%edi),%esi
    2543:	89 5c 24 04          	mov    %ebx,0x4(%esp)
    2547:	89 34 24             	mov    %esi,(%esp)
    254a:	e8 e1 11 00 00       	call   3730 <tcp_iqueue_insert_seg>
    254f:	8d 87 80 00 00 00    	lea    0x80(%edi),%eax
    2555:	8d 57 44             	lea    0x44(%edi),%edx
    2558:	89 45 d4             	mov    %eax,-0x2c(%ebp)
    255b:	89 55 d0             	mov    %edx,-0x30(%ebp)
    255e:	8d 55 dc             	lea    -0x24(%ebp),%edx
    2561:	89 34 24             	mov    %esi,(%esp)
    2564:	89 54 24 04          	mov    %edx,0x4(%esp)
    2568:	e8 93 12 00 00       	call   3800 <tcp_iqueue_get_ready_seg>
    256d:	85 c0                	test   %eax,%eax
    256f:	75 8f                	jne    2500 <tcp_conn_segment_arrived+0x1c0>
    2571:	8b 5d dc             	mov    -0x24(%ebp),%ebx
    2574:	89 7c 24 0c          	mov    %edi,0xc(%esp)
    2578:	89 5c 24 10          	mov    %ebx,0x10(%esp)
    257c:	c7 44 24 08 37 98 02 	movl   $0x29837,0x8(%esp)
    2583:	00 
    2584:	c7 44 24 04 04 00 00 	movl   $0x4,0x4(%esp)
    258b:	00 
    258c:	c7 04 24 ff ff ff ff 	movl   $0xffffffff,(%esp)
    2593:	e8 98 e7 00 00       	call   10d30 <log_msg>
    2598:	89 1c 24             	mov    %ebx,(%esp)
    259b:	e8 70 21 00 00       	call   4710 <tcp_segment_dump>
    25a0:	8b 03                	mov    (%ebx),%eax
    25a2:	a8 04                	test   $0x4,%al
    25a4:	0f 84 ee 01 00 00    	je     2798 <tcp_conn_segment_arrived+0x458>
    25aa:	83 7f 3c 0a          	cmpl   $0xa,0x3c(%edi)
    25ae:	77 ae                	ja     255e <tcp_conn_segment_arrived+0x21e>
    25b0:	8b 47 3c             	mov    0x3c(%edi),%eax
    25b3:	ff 24 85 bc 99 02 00 	jmp    *0x299bc(,%eax,4)
    25ba:	8d b6 00 00 00 00    	lea    0x0(%esi),%esi
    25c0:	89 5c 24 10          	mov    %ebx,0x10(%esp)
    25c4:	89 7c 24 0c          	mov    %edi,0xc(%esp)
    25c8:	c7 44 24 08 60 97 02 	movl   $0x29760,0x8(%esp)
    25cf:	00 
    25d0:	c7 44 24 04 04 00 00 	movl   $0x4,0x4(%esp)
    25d7:	00 
    25d8:	c7 04 24 ff ff ff ff 	movl   $0xffffffff,(%esp)
    25df:	e8 4c e7 00 00       	call   10d30 <log_msg>
    25e4:	8b 03                	mov    (%ebx),%eax
    25e6:	a8 08                	test   $0x8,%al
    25e8:	0f 85 c2 00 00 00    	jne    26b0 <tcp_conn_segment_arrived+0x370>
    25ee:	a8 04                	test   $0x4,%al
    25f0:	0f 84 0a 02 00 00    	je     2800 <tcp_conn_segment_arrived+0x4c0>
    25f6:	a8 08                	test   $0x8,%al
    25f8:	8b 07                	mov    (%edi),%eax
    25fa:	89 44 24 0c          	mov    %eax,0xc(%esp)
    25fe:	0f 84 84 03 00 00    	je     2988 <tcp_conn_segment_arrived+0x648>
    2604:	c7 44 24 08 d4 92 02 	movl   $0x292d4,0x8(%esp)
    260b:	00 
    260c:	c7 44 24 04 04 00 00 	movl   $0x4,0x4(%esp)
    2613:	00 
    2614:	c7 04 24 ff ff ff ff 	movl   $0xffffffff,(%esp)
    261b:	e8 10 e7 00 00       	call   10d30 <log_msg>
    2620:	89 f8                	mov    %edi,%eax
    2622:	e8 39 f0 ff ff       	call   1660 <tcp_conn_reset>
    2627:	e9 d4 fe ff ff       	jmp    2500 <tcp_conn_segment_arrived+0x1c0>
    262c:	8d 74 26 00          	lea    0x0(%esi,%eiz,1),%esi
    2630:	c7 44 24 0c 0a 00 00 	movl   $0xa,0xc(%esp)
    2637:	00 
    2638:	c7 44 24 08 e9 96 02 	movl   $0x296e9,0x8(%esp)
    263f:	00 
    2640:	c7 44 24 04 04 00 00 	movl   $0x4,0x4(%esp)
    2647:	00 
    2648:	c7 04 24 ff ff ff ff 	movl   $0xffffffff,(%esp)
    264f:	e8 dc e6 00 00       	call   10d30 <log_msg>
    2654:	c7 44 24 08 90 04 00 	movl   $0x490,0x8(%esp)
    265b:	00 
    265c:	c7 44 24 04 88 95 02 	movl   $0x29588,0x4(%esp)
    2663:	00 
    2664:	c7 04 24 5c 96 02 00 	movl   $0x2965c,(%esp)
    266b:	e8 60 eb 01 00       	call   211d0 <assert_abort>
    2670:	c7 44 24 08 44 93 02 	movl   $0x29344,0x8(%esp)
    2677:	00 
    2678:	c7 44 24 04 04 00 00 	movl   $0x4,0x4(%esp)
    267f:	00 
    2680:	c7 04 24 ff ff ff ff 	movl   $0xffffffff,(%esp)
    2687:	e8 a4 e6 00 00       	call   10d30 <log_msg>
    268c:	c7 44 24 04 08 00 00 	movl   $0x8,0x4(%esp)
    2693:	00 
    2694:	89 3c 24             	mov    %edi,(%esp)
    2697:	e8 e4 4b 00 00       	call   7280 <tcp_tqueue_ctrl_seg>
    269c:	89 1c 24             	mov    %ebx,(%esp)
    269f:	e8 ec 1c 00 00       	call   4390 <tcp_segment_delete>
    26a4:	e9 57 fe ff ff       	jmp    2500 <tcp_conn_segment_arrived+0x1c0>
    26a9:	8d b4 26 00 00 00 00 	lea    0x0(%esi,%eiz,1),%esi
    26b0:	8b 87 a4 00 00 00    	mov    0xa4(%edi),%eax
    26b6:	89 44 24 14          	mov    %eax,0x14(%esp)
    26ba:	8b 43 08             	mov    0x8(%ebx),%eax
    26bd:	89 44 24 10          	mov    %eax,0x10(%esp)
    26c1:	8b 87 a0 00 00 00    	mov    0xa0(%edi),%eax
    26c7:	c7 44 24 08 b0 92 02 	movl   $0x292b0,0x8(%esp)
    26ce:	00 
    26cf:	89 44 24 0c          	mov    %eax,0xc(%esp)
    26d3:	c7 44 24 04 04 00 00 	movl   $0x4,0x4(%esp)
    26da:	00 
    26db:	c7 04 24 ff ff ff ff 	movl   $0xffffffff,(%esp)
    26e2:	e8 49 e6 00 00       	call   10d30 <log_msg>
    26e7:	8b 43 08             	mov    0x8(%ebx),%eax
    26ea:	89 44 24 04          	mov    %eax,0x4(%esp)
    26ee:	89 3c 24             	mov    %edi,(%esp)
    26f1:	e8 1a 21 00 00       	call   4810 <seq_no_ack_acceptable>
    26f6:	84 c0                	test   %al,%al
    26f8:	0f 85 02 03 00 00    	jne    2a00 <tcp_conn_segment_arrived+0x6c0>
    26fe:	f6 03 04             	testb  $0x4,(%ebx)
    2701:	0f 85 59 09 00 00    	jne    3060 <tcp_conn_segment_arrived+0xd20>
    2707:	c7 44 24 08 7d 97 02 	movl   $0x2977d,0x8(%esp)
    270e:	00 
    270f:	c7 44 24 04 02 00 00 	movl   $0x2,0x4(%esp)
    2716:	00 
    2717:	8d 77 14             	lea    0x14(%edi),%esi
    271a:	c7 04 24 ff ff ff ff 	movl   $0xffffffff,(%esp)
    2721:	e8 0a e6 00 00       	call   10d30 <log_msg>
    2726:	89 5c 24 10          	mov    %ebx,0x10(%esp)
    272a:	89 74 24 0c          	mov    %esi,0xc(%esp)
    272e:	c7 44 24 08 24 97 02 	movl   $0x29724,0x8(%esp)
    2735:	00 
    2736:	c7 44 24 04 04 00 00 	movl   $0x4,0x4(%esp)
    273d:	00 
    273e:	c7 04 24 ff ff ff ff 	movl   $0xffffffff,(%esp)
    2745:	e8 e6 e5 00 00       	call   10d30 <log_msg>
    274a:	89 1c 24             	mov    %ebx,(%esp)
    274d:	e8 3e 1d 00 00       	call   4490 <tcp_segment_make_rst>
    2752:	89 34 24             	mov    %esi,(%esp)
    2755:	89 44 24 04          	mov    %eax,0x4(%esp)
    2759:	e8 a2 51 00 00       	call   7900 <tcp_transmit_segment>
    275e:	e9 9d fd ff ff       	jmp    2500 <tcp_conn_segment_arrived+0x1c0>
    2763:	90                   	nop
    2764:	8d 74 26 00          	lea    0x0(%esi,%eiz,1),%esi
    2768:	8b 07                	mov    (%edi),%eax
    276a:	c7 44 24 08 54 98 02 	movl   $0x29854,0x8(%esp)
    2771:	00 
    2772:	89 44 24 0c          	mov    %eax,0xc(%esp)
    2776:	c7 44 24 04 04 00 00 	movl   $0x4,0x4(%esp)
    277d:	00 
    277e:	c7 04 24 ff ff ff ff 	movl   $0xffffffff,(%esp)
    2785:	e8 a6 e5 00 00       	call   10d30 <log_msg>
    278a:	89 f8                	mov    %edi,%eax
    278c:	e8 cf ee ff ff       	call   1660 <tcp_conn_reset>
    2791:	e9 c8 fd ff ff       	jmp    255e <tcp_conn_segment_arrived+0x21e>
    2796:	66 90                	xchg   %ax,%ax
    2798:	a8 01                	test   $0x1,%al
    279a:	0f 85 a0 01 00 00    	jne    2940 <tcp_conn_segment_arrived+0x600>
    27a0:	89 5c 24 14          	mov    %ebx,0x14(%esp)
    27a4:	89 7c 24 10          	mov    %edi,0x10(%esp)
    27a8:	8b 07                	mov    (%edi),%eax
    27aa:	c7 44 24 08 c4 93 02 	movl   $0x293c4,0x8(%esp)
    27b1:	00 
    27b2:	89 44 24 0c          	mov    %eax,0xc(%esp)
    27b6:	c7 44 24 04 04 00 00 	movl   $0x4,0x4(%esp)
    27bd:	00 
    27be:	c7 04 24 ff ff ff ff 	movl   $0xffffffff,(%esp)
    27c5:	e8 66 e5 00 00       	call   10d30 <log_msg>
    27ca:	f6 03 08             	testb  $0x8,(%ebx)
    27cd:	0f 84 0d 08 00 00    	je     2fe0 <tcp_conn_segment_arrived+0xca0>
    27d3:	83 7f 3c 0a          	cmpl   $0xa,0x3c(%edi)
    27d7:	0f 86 9b 01 00 00    	jbe    2978 <tcp_conn_segment_arrived+0x638>
    27dd:	c7 44 24 08 93 03 00 	movl   $0x393,0x8(%esp)
    27e4:	00 
    27e5:	c7 44 24 04 88 95 02 	movl   $0x29588,0x4(%esp)
    27ec:	00 
    27ed:	c7 04 24 5c 96 02 00 	movl   $0x2965c,(%esp)
    27f4:	e8 d7 e9 01 00       	call   211d0 <assert_abort>
    27f9:	8d b4 26 00 00 00 00 	lea    0x0(%esi,%eiz,1),%esi
    2800:	a8 01                	test   $0x1,%al
    2802:	0f 84 08 08 00 00    	je     3010 <tcp_conn_segment_arrived+0xcd0>
    2808:	8b 53 04             	mov    0x4(%ebx),%edx
    280b:	a8 08                	test   $0x8,%al
    280d:	89 97 c8 00 00 00    	mov    %edx,0xc8(%edi)
    2813:	8d 4a 01             	lea    0x1(%edx),%ecx
    2816:	89 8f bc 00 00 00    	mov    %ecx,0xbc(%edi)
    281c:	0f 85 a6 02 00 00    	jne    2ac8 <tcp_conn_segment_arrived+0x788>
    2822:	c7 44 24 08 ef 97 02 	movl   $0x297ef,0x8(%esp)
    2829:	00 
    282a:	c7 44 24 04 04 00 00 	movl   $0x4,0x4(%esp)
    2831:	00 
    2832:	c7 04 24 ff ff ff ff 	movl   $0xffffffff,(%esp)
    2839:	e8 f2 e4 00 00       	call   10d30 <log_msg>
    283e:	8b 43 04             	mov    0x4(%ebx),%eax
    2841:	89 44 24 14          	mov    %eax,0x14(%esp)
    2845:	89 44 24 10          	mov    %eax,0x10(%esp)
    2849:	8b 43 10             	mov    0x10(%ebx),%eax
    284c:	c7 44 24 08 f4 92 02 	movl   $0x292f4,0x8(%esp)
    2853:	00 
    2854:	89 44 24 0c          	mov    %eax,0xc(%esp)
    2858:	c7 44 24 04 04 00 00 	movl   $0x4,0x4(%esp)
    285f:	00 
    2860:	c7 04 24 ff ff ff ff 	movl   $0xffffffff,(%esp)
    2867:	e8 c4 e4 00 00       	call   10d30 <log_msg>
    286c:	8b 43 10             	mov    0x10(%ebx),%eax
    286f:	89 87 a8 00 00 00    	mov    %eax,0xa8(%edi)
    2875:	8b 43 04             	mov    0x4(%ebx),%eax
    2878:	89 87 b0 00 00 00    	mov    %eax,0xb0(%edi)
    287e:	89 87 b4 00 00 00    	mov    %eax,0xb4(%edi)
    2884:	89 3c 24             	mov    %edi,(%esp)
    2887:	e8 b4 22 00 00       	call   4b40 <seq_no_syn_acked>
    288c:	84 c0                	test   %al,%al
    288e:	8b 07                	mov    (%edi),%eax
    2890:	89 44 24 0c          	mov    %eax,0xc(%esp)
    2894:	0f 84 3e 01 00 00    	je     29d8 <tcp_conn_segment_arrived+0x698>
    289a:	c7 44 24 08 02 98 02 	movl   $0x29802,0x8(%esp)
    28a1:	00 
    28a2:	c7 44 24 04 04 00 00 	movl   $0x4,0x4(%esp)
    28a9:	00 
    28aa:	c7 04 24 ff ff ff ff 	movl   $0xffffffff,(%esp)
    28b1:	e8 7a e4 00 00       	call   10d30 <log_msg>
    28b6:	89 7c 24 0c          	mov    %edi,0xc(%esp)
    28ba:	c7 44 24 08 71 95 02 	movl   $0x29571,0x8(%esp)
    28c1:	00 
    28c2:	c7 44 24 04 04 00 00 	movl   $0x4,0x4(%esp)
    28c9:	00 
    28ca:	c7 04 24 ff ff ff ff 	movl   $0xffffffff,(%esp)
    28d1:	e8 5a e4 00 00       	call   10d30 <log_msg>
    28d6:	8d 47 44             	lea    0x44(%edi),%eax
    28d9:	8b 77 3c             	mov    0x3c(%edi),%esi
    28dc:	c7 47 3c 03 00 00 00 	movl   $0x3,0x3c(%edi)
    28e3:	89 04 24             	mov    %eax,(%esp)
    28e6:	e8 d5 aa 00 00       	call   d3c0 <fibril_condvar_broadcast>
    28eb:	8b 47 0c             	mov    0xc(%edi),%eax
    28ee:	85 c0                	test   %eax,%eax
    28f0:	0f 84 42 0a 00 00    	je     3338 <tcp_conn_segment_arrived+0xff8>
    28f6:	c7 44 24 08 7c 91 02 	movl   $0x2917c,0x8(%esp)
    28fd:	00 
    28fe:	c7 44 24 04 04 00 00 	movl   $0x4,0x4(%esp)
    2905:	00 
    2906:	c7 04 24 ff ff ff ff 	movl   $0xffffffff,(%esp)
    290d:	e8 1e e4 00 00       	call   10d30 <log_msg>
    2912:	8b 47 10             	mov    0x10(%edi),%eax
    2915:	89 44 24 04          	mov    %eax,0x4(%esp)
    2919:	89 3c 24             	mov    %edi,(%esp)
    291c:	ff 57 0c             	call   *0xc(%edi)
    291f:	83 fe 0a             	cmp    $0xa,%esi
    2922:	0f 84 e1 03 00 00    	je     2d09 <tcp_conn_segment_arrived+0x9c9>
    2928:	c7 44 24 04 08 00 00 	movl   $0x8,0x4(%esp)
    292f:	00 
    2930:	89 3c 24             	mov    %edi,(%esp)
    2933:	e8 48 49 00 00       	call   7280 <tcp_tqueue_ctrl_seg>
    2938:	e9 b9 fb ff ff       	jmp    24f6 <tcp_conn_segment_arrived+0x1b6>
    293d:	8d 76 00             	lea    0x0(%esi),%esi
    2940:	8b 43 04             	mov    0x4(%ebx),%eax
    2943:	89 3c 24             	mov    %edi,(%esp)
    2946:	89 44 24 04          	mov    %eax,0x4(%esp)
    294a:	e8 21 1f 00 00       	call   4870 <seq_no_in_rcv_wnd>
    294f:	84 c0                	test   %al,%al
    2951:	0f 84 22 0c 00 00    	je     3579 <tcp_conn_segment_arrived+0x1239>
    2957:	c7 44 24 08 90 93 02 	movl   $0x29390,0x8(%esp)
    295e:	00 
    295f:	c7 44 24 04 02 00 00 	movl   $0x2,0x4(%esp)
    2966:	00 
    2967:	c7 04 24 ff ff ff ff 	movl   $0xffffffff,(%esp)
    296e:	e8 bd e3 00 00       	call   10d30 <log_msg>
    2973:	e9 e6 fb ff ff       	jmp    255e <tcp_conn_segment_arrived+0x21e>
    2978:	8b 47 3c             	mov    0x3c(%edi),%eax
    297b:	ff 24 85 e8 99 02 00 	jmp    *0x299e8(,%eax,4)
    2982:	8d b6 00 00 00 00    	lea    0x0(%esi),%esi
    2988:	c7 44 24 08 b7 97 02 	movl   $0x297b7,0x8(%esp)
    298f:	00 
    2990:	c7 44 24 04 04 00 00 	movl   $0x4,0x4(%esp)
    2997:	00 
    2998:	c7 04 24 ff ff ff ff 	movl   $0xffffffff,(%esp)
    299f:	e8 8c e3 00 00       	call   10d30 <log_msg>
    29a4:	e9 57 fb ff ff       	jmp    2500 <tcp_conn_segment_arrived+0x1c0>
    29a9:	8d b4 26 00 00 00 00 	lea    0x0(%esi,%eiz,1),%esi
    29b0:	c7 44 24 08 0d 97 02 	movl   $0x2970d,0x8(%esp)
    29b7:	00 
    29b8:	c7 44 24 04 04 00 00 	movl   $0x4,0x4(%esp)
    29bf:	00 
    29c0:	c7 04 24 ff ff ff ff 	movl   $0xffffffff,(%esp)
    29c7:	e8 64 e3 00 00       	call   10d30 <log_msg>
    29cc:	e9 2f fb ff ff       	jmp    2500 <tcp_conn_segment_arrived+0x1c0>
    29d1:	8d b4 26 00 00 00 00 	lea    0x0(%esi,%eiz,1),%esi
    29d8:	c7 44 24 08 20 93 02 	movl   $0x29320,0x8(%esp)
    29df:	00 
    29e0:	c7 44 24 04 04 00 00 	movl   $0x4,0x4(%esp)
    29e7:	00 
    29e8:	c7 04 24 ff ff ff ff 	movl   $0xffffffff,(%esp)
    29ef:	e8 3c e3 00 00       	call   10d30 <log_msg>
    29f4:	e9 7b fa ff ff       	jmp    2474 <tcp_conn_segment_arrived+0x134>
    29f9:	8d b4 26 00 00 00 00 	lea    0x0(%esi,%eiz,1),%esi
    2a00:	8b 03                	mov    (%ebx),%eax
    2a02:	e9 e7 fb ff ff       	jmp    25ee <tcp_conn_segment_arrived+0x2ae>
    2a07:	90                   	nop
    2a08:	83 7f 24 01          	cmpl   $0x1,0x24(%edi)
    2a0c:	0f 85 78 fd ff ff    	jne    278a <tcp_conn_segment_arrived+0x44a>
    2a12:	89 7c 24 0c          	mov    %edi,0xc(%esp)
    2a16:	c7 44 24 08 71 95 02 	movl   $0x29571,0x8(%esp)
    2a1d:	00 
    2a1e:	c7 44 24 04 04 00 00 	movl   $0x4,0x4(%esp)
    2a25:	00 
    2a26:	c7 04 24 ff ff ff ff 	movl   $0xffffffff,(%esp)
    2a2d:	e8 fe e2 00 00       	call   10d30 <log_msg>
    2a32:	8b 45 d0             	mov    -0x30(%ebp),%eax
    2a35:	8b 5f 3c             	mov    0x3c(%edi),%ebx
    2a38:	c7 47 3c 00 00 00 00 	movl   $0x0,0x3c(%edi)
    2a3f:	89 04 24             	mov    %eax,(%esp)
    2a42:	e8 79 a9 00 00       	call   d3c0 <fibril_condvar_broadcast>
    2a47:	8b 47 0c             	mov    0xc(%edi),%eax
    2a4a:	85 c0                	test   %eax,%eax
    2a4c:	0f 84 14 0a 00 00    	je     3466 <tcp_conn_segment_arrived+0x1126>
    2a52:	c7 44 24 08 7c 91 02 	movl   $0x2917c,0x8(%esp)
    2a59:	00 
    2a5a:	c7 44 24 04 04 00 00 	movl   $0x4,0x4(%esp)
    2a61:	00 
    2a62:	c7 04 24 ff ff ff ff 	movl   $0xffffffff,(%esp)
    2a69:	e8 c2 e2 00 00       	call   10d30 <log_msg>
    2a6e:	8b 47 10             	mov    0x10(%edi),%eax
    2a71:	89 44 24 04          	mov    %eax,0x4(%esp)
    2a75:	89 3c 24             	mov    %edi,(%esp)
    2a78:	ff 57 0c             	call   *0xc(%edi)
    2a7b:	83 fb 0a             	cmp    $0xa,%ebx
    2a7e:	0f 84 85 02 00 00    	je     2d09 <tcp_conn_segment_arrived+0x9c9>
    2a84:	8b 47 6c             	mov    0x6c(%edi),%eax
    2a87:	89 04 24             	mov    %eax,(%esp)
    2a8a:	e8 31 ad 00 00       	call   d7c0 <fibril_timer_clear>
    2a8f:	48                   	dec    %eax
    2a90:	0f 84 2d 09 00 00    	je     33c3 <tcp_conn_segment_arrived+0x1083>
    2a96:	8d 5f 5c             	lea    0x5c(%edi),%ebx
    2a99:	89 1c 24             	mov    %ebx,(%esp)
    2a9c:	e8 bf 44 00 00       	call   6f60 <tcp_tqueue_clear>
    2aa1:	e9 b8 fa ff ff       	jmp    255e <tcp_conn_segment_arrived+0x21e>
    2aa6:	66 90                	xchg   %ax,%ax
    2aa8:	c7 44 24 08 87 02 00 	movl   $0x287,0x8(%esp)
    2aaf:	00 
    2ab0:	c7 44 24 04 88 95 02 	movl   $0x29588,0x4(%esp)
    2ab7:	00 
    2ab8:	c7 04 24 5c 96 02 00 	movl   $0x2965c,(%esp)
    2abf:	e8 0c e7 01 00       	call   211d0 <assert_abort>
    2ac4:	8d 74 26 00          	lea    0x0(%esi,%eiz,1),%esi
    2ac8:	8b 43 08             	mov    0x8(%ebx),%eax
    2acb:	89 87 a0 00 00 00    	mov    %eax,0xa0(%edi)
    2ad1:	89 3c 24             	mov    %edi,(%esp)
    2ad4:	e8 f7 4a 00 00       	call   75d0 <tcp_tqueue_ack_received>
    2ad9:	e9 44 fd ff ff       	jmp    2822 <tcp_conn_segment_arrived+0x4e2>
    2ade:	66 90                	xchg   %ax,%ax
    2ae0:	89 da                	mov    %ebx,%edx
    2ae2:	89 f8                	mov    %edi,%eax
    2ae4:	e8 d7 e5 ff ff       	call   10c0 <tcp_conn_seg_proc_ack_est>
    2ae9:	48                   	dec    %eax
    2aea:	0f 84 6e fa ff ff    	je     255e <tcp_conn_segment_arrived+0x21e>
    2af0:	89 5c 24 14          	mov    %ebx,0x14(%esp)
    2af4:	89 7c 24 10          	mov    %edi,0x10(%esp)
    2af8:	8b 07                	mov    (%edi),%eax
    2afa:	c7 44 24 08 14 94 02 	movl   $0x29414,0x8(%esp)
    2b01:	00 
    2b02:	89 44 24 0c          	mov    %eax,0xc(%esp)
    2b06:	c7 44 24 04 04 00 00 	movl   $0x4,0x4(%esp)
    2b0d:	00 
    2b0e:	c7 04 24 ff ff ff ff 	movl   $0xffffffff,(%esp)
    2b15:	e8 16 e2 00 00       	call   10d30 <log_msg>
    2b1a:	83 7f 3c 0a          	cmpl   $0xa,0x3c(%edi)
    2b1e:	0f 86 dc 03 00 00    	jbe    2f00 <tcp_conn_segment_arrived+0xbc0>
    2b24:	89 5c 24 04          	mov    %ebx,0x4(%esp)
    2b28:	89 3c 24             	mov    %edi,(%esp)
    2b2b:	e8 c0 1e 00 00       	call   49f0 <seq_no_segment_ready>
    2b30:	84 c0                	test   %al,%al
    2b32:	0f 84 5d 0a 00 00    	je     3595 <tcp_conn_segment_arrived+0x1255>
    2b38:	8d 55 e4             	lea    -0x1c(%ebp),%edx
    2b3b:	8d 45 e0             	lea    -0x20(%ebp),%eax
    2b3e:	89 54 24 0c          	mov    %edx,0xc(%esp)
    2b42:	89 44 24 08          	mov    %eax,0x8(%esp)
    2b46:	89 5c 24 04          	mov    %ebx,0x4(%esp)
    2b4a:	89 3c 24             	mov    %edi,(%esp)
    2b4d:	e8 0e 21 00 00       	call   4c60 <seq_no_seg_trim_calc>
    2b52:	8b 45 e4             	mov    -0x1c(%ebp),%eax
    2b55:	89 44 24 08          	mov    %eax,0x8(%esp)
    2b59:	8b 45 e0             	mov    -0x20(%ebp),%eax
    2b5c:	89 44 24 04          	mov    %eax,0x4(%esp)
    2b60:	89 1c 24             	mov    %ebx,(%esp)
    2b63:	e8 08 1a 00 00       	call   4570 <tcp_segment_trim>
    2b68:	89 1c 24             	mov    %ebx,(%esp)
    2b6b:	e8 70 1b 00 00       	call   46e0 <tcp_segment_text_size>
    2b70:	8b 4f 78             	mov    0x78(%edi),%ecx
    2b73:	8b 57 74             	mov    0x74(%edi),%edx
    2b76:	29 ca                	sub    %ecx,%edx
    2b78:	39 d0                	cmp    %edx,%eax
    2b7a:	76 02                	jbe    2b7e <tcp_conn_segment_arrived+0x83e>
    2b7c:	89 d0                	mov    %edx,%eax
    2b7e:	89 44 24 08          	mov    %eax,0x8(%esp)
    2b82:	8b 57 70             	mov    0x70(%edi),%edx
    2b85:	89 1c 24             	mov    %ebx,(%esp)
    2b88:	01 d1                	add    %edx,%ecx
    2b8a:	89 45 c8             	mov    %eax,-0x38(%ebp)
    2b8d:	89 4c 24 04          	mov    %ecx,0x4(%esp)
    2b91:	e8 ea 1a 00 00       	call   4680 <tcp_segment_text_copy>
    2b96:	8b 45 c8             	mov    -0x38(%ebp),%eax
    2b99:	8b 4f 78             	mov    0x78(%edi),%ecx
    2b9c:	8b 55 d4             	mov    -0x2c(%ebp),%edx
    2b9f:	01 c1                	add    %eax,%ecx
    2ba1:	89 4f 78             	mov    %ecx,0x78(%edi)
    2ba4:	89 14 24             	mov    %edx,(%esp)
    2ba7:	e8 14 a8 00 00       	call   d3c0 <fibril_condvar_broadcast>
    2bac:	8b 45 c8             	mov    -0x38(%ebp),%eax
    2baf:	89 44 24 0c          	mov    %eax,0xc(%esp)
    2bb3:	c7 44 24 08 da 98 02 	movl   $0x298da,0x8(%esp)
    2bba:	00 
    2bbb:	c7 44 24 04 04 00 00 	movl   $0x4,0x4(%esp)
    2bc2:	00 
    2bc3:	c7 04 24 ff ff ff ff 	movl   $0xffffffff,(%esp)
    2bca:	e8 61 e1 00 00       	call   10d30 <log_msg>
    2bcf:	8b 45 c8             	mov    -0x38(%ebp),%eax
    2bd2:	8b 97 bc 00 00 00    	mov    0xbc(%edi),%edx
    2bd8:	8b 8f c0 00 00 00    	mov    0xc0(%edi),%ecx
    2bde:	01 c2                	add    %eax,%edx
    2be0:	29 c1                	sub    %eax,%ecx
    2be2:	89 97 bc 00 00 00    	mov    %edx,0xbc(%edi)
    2be8:	89 8f c0 00 00 00    	mov    %ecx,0xc0(%edi)
    2bee:	85 c0                	test   %eax,%eax
    2bf0:	0f 85 2a 07 00 00    	jne    3320 <tcp_conn_segment_arrived+0xfe0>
    2bf6:	8b 53 0c             	mov    0xc(%ebx),%edx
    2bf9:	39 d0                	cmp    %edx,%eax
    2bfb:	0f 82 09 03 00 00    	jb     2f0a <tcp_conn_segment_arrived+0xbca>
    2c01:	8b 0b                	mov    (%ebx),%ecx
    2c03:	89 54 24 14          	mov    %edx,0x14(%esp)
    2c07:	89 4c 24 18          	mov    %ecx,0x18(%esp)
    2c0b:	89 44 24 10          	mov    %eax,0x10(%esp)
    2c0f:	8b 07                	mov    (%edi),%eax
    2c11:	c7 44 24 08 58 94 02 	movl   $0x29458,0x8(%esp)
    2c18:	00 
    2c19:	89 44 24 0c          	mov    %eax,0xc(%esp)
    2c1d:	c7 44 24 04 04 00 00 	movl   $0x4,0x4(%esp)
    2c24:	00 
    2c25:	c7 04 24 ff ff ff ff 	movl   $0xffffffff,(%esp)
    2c2c:	e8 ff e0 00 00       	call   10d30 <log_msg>
    2c31:	89 1c 24             	mov    %ebx,(%esp)
    2c34:	e8 57 17 00 00       	call   4390 <tcp_segment_delete>
    2c39:	e9 20 f9 ff ff       	jmp    255e <tcp_conn_segment_arrived+0x21e>
    2c3e:	66 90                	xchg   %ax,%ax
    2c40:	89 da                	mov    %ebx,%edx
    2c42:	89 f8                	mov    %edi,%eax
    2c44:	e8 77 e4 ff ff       	call   10c0 <tcp_conn_seg_proc_ack_est>
    2c49:	48                   	dec    %eax
    2c4a:	0f 94 c0             	sete   %al
    2c4d:	25 ff 00 00 00       	and    $0xff,%eax
    2c52:	e9 92 fe ff ff       	jmp    2ae9 <tcp_conn_segment_arrived+0x7a9>
    2c57:	89 da                	mov    %ebx,%edx
    2c59:	89 f8                	mov    %edi,%eax
    2c5b:	e8 60 e4 ff ff       	call   10c0 <tcp_conn_seg_proc_ack_est>
    2c60:	48                   	dec    %eax
    2c61:	0f 84 f7 f8 ff ff    	je     255e <tcp_conn_segment_arrived+0x21e>
    2c67:	80 7f 4c 00          	cmpb   $0x0,0x4c(%edi)
    2c6b:	0f 84 7f fe ff ff    	je     2af0 <tcp_conn_segment_arrived+0x7b0>
    2c71:	8b 07                	mov    (%edi),%eax
    2c73:	c7 44 24 08 a6 98 02 	movl   $0x298a6,0x8(%esp)
    2c7a:	00 
    2c7b:	89 44 24 0c          	mov    %eax,0xc(%esp)
    2c7f:	c7 44 24 04 04 00 00 	movl   $0x4,0x4(%esp)
    2c86:	00 
    2c87:	c7 04 24 ff ff ff ff 	movl   $0xffffffff,(%esp)
    2c8e:	e8 9d e0 00 00       	call   10d30 <log_msg>
    2c93:	89 7c 24 0c          	mov    %edi,0xc(%esp)
    2c97:	c7 44 24 08 71 95 02 	movl   $0x29571,0x8(%esp)
    2c9e:	00 
    2c9f:	c7 44 24 04 04 00 00 	movl   $0x4,0x4(%esp)
    2ca6:	00 
    2ca7:	c7 04 24 ff ff ff ff 	movl   $0xffffffff,(%esp)
    2cae:	e8 7d e0 00 00       	call   10d30 <log_msg>
    2cb3:	8b 45 d0             	mov    -0x30(%ebp),%eax
    2cb6:	8b 57 3c             	mov    0x3c(%edi),%edx
    2cb9:	c7 47 3c 05 00 00 00 	movl   $0x5,0x3c(%edi)
    2cc0:	89 04 24             	mov    %eax,(%esp)
    2cc3:	89 55 cc             	mov    %edx,-0x34(%ebp)
    2cc6:	e8 f5 a6 00 00       	call   d3c0 <fibril_condvar_broadcast>
    2ccb:	8b 47 0c             	mov    0xc(%edi),%eax
    2cce:	85 c0                	test   %eax,%eax
    2cd0:	0f 84 40 08 00 00    	je     3516 <tcp_conn_segment_arrived+0x11d6>
    2cd6:	c7 44 24 08 7c 91 02 	movl   $0x2917c,0x8(%esp)
    2cdd:	00 
    2cde:	c7 44 24 04 04 00 00 	movl   $0x4,0x4(%esp)
    2ce5:	00 
    2ce6:	c7 04 24 ff ff ff ff 	movl   $0xffffffff,(%esp)
    2ced:	e8 3e e0 00 00       	call   10d30 <log_msg>
    2cf2:	8b 47 10             	mov    0x10(%edi),%eax
    2cf5:	89 44 24 04          	mov    %eax,0x4(%esp)
    2cf9:	89 3c 24             	mov    %edi,(%esp)
    2cfc:	ff 57 0c             	call   *0xc(%edi)
    2cff:	83 7d cc 0a          	cmpl   $0xa,-0x34(%ebp)
    2d03:	0f 85 e7 fd ff ff    	jne    2af0 <tcp_conn_segment_arrived+0x7b0>
    2d09:	c7 44 24 08 05 01 00 	movl   $0x105,0x8(%esp)
    2d10:	00 
    2d11:	c7 44 24 04 88 95 02 	movl   $0x29588,0x4(%esp)
    2d18:	00 
    2d19:	c7 04 24 8f 95 02 00 	movl   $0x2958f,(%esp)
    2d20:	e8 ab e4 01 00       	call   211d0 <assert_abort>
    2d25:	8d 76 00             	lea    0x0(%esi),%esi
    2d28:	c7 44 24 08 90 03 00 	movl   $0x390,0x8(%esp)
    2d2f:	00 
    2d30:	c7 44 24 04 88 95 02 	movl   $0x29588,0x4(%esp)
    2d37:	00 
    2d38:	c7 04 24 5c 96 02 00 	movl   $0x2965c,(%esp)
    2d3f:	e8 8c e4 01 00       	call   211d0 <assert_abort>
    2d44:	89 da                	mov    %ebx,%edx
    2d46:	89 f8                	mov    %edi,%eax
    2d48:	e8 73 e3 ff ff       	call   10c0 <tcp_conn_seg_proc_ack_est>
    2d4d:	48                   	dec    %eax
    2d4e:	0f 84 0a f8 ff ff    	je     255e <tcp_conn_segment_arrived+0x21e>
    2d54:	80 7f 4c 00          	cmpb   $0x0,0x4c(%edi)
    2d58:	0f 84 92 fd ff ff    	je     2af0 <tcp_conn_segment_arrived+0x7b0>
    2d5e:	8b 07                	mov    (%edi),%eax
    2d60:	c7 44 24 08 c2 98 02 	movl   $0x298c2,0x8(%esp)
    2d67:	00 
    2d68:	89 44 24 0c          	mov    %eax,0xc(%esp)
    2d6c:	c7 44 24 04 04 00 00 	movl   $0x4,0x4(%esp)
    2d73:	00 
    2d74:	c7 04 24 ff ff ff ff 	movl   $0xffffffff,(%esp)
    2d7b:	e8 b0 df 00 00       	call   10d30 <log_msg>
    2d80:	c7 04 24 c0 d3 02 00 	movl   $0x2d3c0,(%esp)
    2d87:	e8 14 99 00 00       	call   c6a0 <fibril_mutex_lock>
    2d8c:	8b 57 04             	mov    0x4(%edi),%edx
    2d8f:	85 d2                	test   %edx,%edx
    2d91:	74 0f                	je     2da2 <tcp_conn_segment_arrived+0xa62>
    2d93:	8b 47 08             	mov    0x8(%edi),%eax
    2d96:	85 c0                	test   %eax,%eax
    2d98:	74 08                	je     2da2 <tcp_conn_segment_arrived+0xa62>
    2d9a:	89 10                	mov    %edx,(%eax)
    2d9c:	8b 57 04             	mov    0x4(%edi),%edx
    2d9f:	89 42 04             	mov    %eax,0x4(%edx)
    2da2:	c7 47 04 00 00 00 00 	movl   $0x0,0x4(%edi)
    2da9:	c7 47 08 00 00 00 00 	movl   $0x0,0x8(%edi)
    2db0:	c7 04 24 c0 d3 02 00 	movl   $0x2d3c0,(%esp)
    2db7:	e8 04 9a 00 00       	call   c7c0 <fibril_mutex_unlock>
    2dbc:	89 7c 24 10          	mov    %edi,0x10(%esp)
    2dc0:	8b 07                	mov    (%edi),%eax
    2dc2:	c7 44 24 08 a6 95 02 	movl   $0x295a6,0x8(%esp)
    2dc9:	00 
    2dca:	89 44 24 0c          	mov    %eax,0xc(%esp)
    2dce:	c7 44 24 04 05 00 00 	movl   $0x5,0x4(%esp)
    2dd5:	00 
    2dd6:	c7 04 24 ff ff ff ff 	movl   $0xffffffff,(%esp)
    2ddd:	e8 4e df 00 00       	call   10d30 <log_msg>
    2de2:	83 c8 ff             	or     $0xffffffff,%eax
    2de5:	f0 0f c1 47 38       	lock xadd %eax,0x38(%edi)
    2dea:	48                   	dec    %eax
    2deb:	0f 84 b7 06 00 00    	je     34a8 <tcp_conn_segment_arrived+0x1168>
    2df1:	ba 0a 00 00 00       	mov    $0xa,%edx
    2df6:	89 f8                	mov    %edi,%eax
    2df8:	e8 d3 e4 ff ff       	call   12d0 <tcp_conn_state_set>
    2dfd:	e9 5c f7 ff ff       	jmp    255e <tcp_conn_segment_arrived+0x21e>
    2e02:	8b 43 08             	mov    0x8(%ebx),%eax
    2e05:	89 3c 24             	mov    %edi,(%esp)
    2e08:	89 44 24 04          	mov    %eax,0x4(%esp)
    2e0c:	e8 ff 19 00 00       	call   4810 <seq_no_ack_acceptable>
    2e11:	84 c0                	test   %al,%al
    2e13:	0f 84 40 05 00 00    	je     3359 <tcp_conn_segment_arrived+0x1019>
    2e19:	8b 07                	mov    (%edi),%eax
    2e1b:	c7 44 24 08 89 98 02 	movl   $0x29889,0x8(%esp)
    2e22:	00 
    2e23:	89 44 24 0c          	mov    %eax,0xc(%esp)
    2e27:	c7 44 24 04 04 00 00 	movl   $0x4,0x4(%esp)
    2e2e:	00 
    2e2f:	c7 04 24 ff ff ff ff 	movl   $0xffffffff,(%esp)
    2e36:	e8 f5 de 00 00       	call   10d30 <log_msg>
    2e3b:	89 7c 24 0c          	mov    %edi,0xc(%esp)
    2e3f:	c7 44 24 08 71 95 02 	movl   $0x29571,0x8(%esp)
    2e46:	00 
    2e47:	c7 44 24 04 04 00 00 	movl   $0x4,0x4(%esp)
    2e4e:	00 
    2e4f:	c7 04 24 ff ff ff ff 	movl   $0xffffffff,(%esp)
    2e56:	e8 d5 de 00 00       	call   10d30 <log_msg>
    2e5b:	8b 45 d0             	mov    -0x30(%ebp),%eax
    2e5e:	8b 57 3c             	mov    0x3c(%edi),%edx
    2e61:	c7 47 3c 03 00 00 00 	movl   $0x3,0x3c(%edi)
    2e68:	89 04 24             	mov    %eax,(%esp)
    2e6b:	89 55 cc             	mov    %edx,-0x34(%ebp)
    2e6e:	e8 4d a5 00 00       	call   d3c0 <fibril_condvar_broadcast>
    2e73:	8b 47 0c             	mov    0xc(%edi),%eax
    2e76:	85 c0                	test   %eax,%eax
    2e78:	0f 84 09 06 00 00    	je     3487 <tcp_conn_segment_arrived+0x1147>
    2e7e:	c7 44 24 08 7c 91 02 	movl   $0x2917c,0x8(%esp)
    2e85:	00 
    2e86:	c7 44 24 04 04 00 00 	movl   $0x4,0x4(%esp)
    2e8d:	00 
    2e8e:	c7 04 24 ff ff ff ff 	movl   $0xffffffff,(%esp)
    2e95:	e8 96 de 00 00       	call   10d30 <log_msg>
    2e9a:	8b 47 10             	mov    0x10(%edi),%eax
    2e9d:	89 44 24 04          	mov    %eax,0x4(%esp)
    2ea1:	89 3c 24             	mov    %edi,(%esp)
    2ea4:	ff 57 0c             	call   *0xc(%edi)
    2ea7:	83 7d cc 0a          	cmpl   $0xa,-0x34(%ebp)
    2eab:	0f 84 58 fe ff ff    	je     2d09 <tcp_conn_segment_arrived+0x9c9>
    2eb1:	8b 43 08             	mov    0x8(%ebx),%eax
    2eb4:	89 87 a0 00 00 00    	mov    %eax,0xa0(%edi)
    2eba:	e9 31 fc ff ff       	jmp    2af0 <tcp_conn_segment_arrived+0x7b0>
    2ebf:	90                   	nop
    2ec0:	c7 44 24 08 64 92 02 	movl   $0x29264,0x8(%esp)
    2ec7:	00 
    2ec8:	c7 44 24 04 04 00 00 	movl   $0x4,0x4(%esp)
    2ecf:	00 
    2ed0:	c7 04 24 ff ff ff ff 	movl   $0xffffffff,(%esp)
    2ed7:	e8 54 de 00 00       	call   10d30 <log_msg>
    2edc:	e9 1f f6 ff ff       	jmp    2500 <tcp_conn_segment_arrived+0x1c0>
    2ee1:	8d b4 26 00 00 00 00 	lea    0x0(%esi,%eiz,1),%esi
    2ee8:	c7 44 24 08 40 92 02 	movl   $0x29240,0x8(%esp)
    2eef:	00 
    2ef0:	c7 44 24 04 04 00 00 	movl   $0x4,0x4(%esp)
    2ef7:	00 
    2ef8:	e9 1a f8 ff ff       	jmp    2717 <tcp_conn_segment_arrived+0x3d7>
    2efd:	8d 76 00             	lea    0x0(%esi),%esi
    2f00:	8b 47 3c             	mov    0x3c(%edi),%eax
    2f03:	ff 24 85 14 9a 02 00 	jmp    *0x29a14(,%eax,4)
    2f0a:	8d 45 e4             	lea    -0x1c(%ebp),%eax
    2f0d:	8d 55 e0             	lea    -0x20(%ebp),%edx
    2f10:	89 44 24 0c          	mov    %eax,0xc(%esp)
    2f14:	89 54 24 08          	mov    %edx,0x8(%esp)
    2f18:	89 5c 24 04          	mov    %ebx,0x4(%esp)
    2f1c:	89 3c 24             	mov    %edi,(%esp)
    2f1f:	e8 3c 1d 00 00       	call   4c60 <seq_no_seg_trim_calc>
    2f24:	8b 45 e4             	mov    -0x1c(%ebp),%eax
    2f27:	89 44 24 08          	mov    %eax,0x8(%esp)
    2f2b:	8b 45 e0             	mov    -0x20(%ebp),%eax
    2f2e:	89 44 24 04          	mov    %eax,0x4(%esp)
    2f32:	89 1c 24             	mov    %ebx,(%esp)
    2f35:	e8 36 16 00 00       	call   4570 <tcp_segment_trim>
    2f3a:	89 5c 24 14          	mov    %ebx,0x14(%esp)
    2f3e:	89 7c 24 10          	mov    %edi,0x10(%esp)
    2f42:	8b 07                	mov    (%edi),%eax
    2f44:	c7 44 24 08 ec 94 02 	movl   $0x294ec,0x8(%esp)
    2f4b:	00 
    2f4c:	89 44 24 0c          	mov    %eax,0xc(%esp)
    2f50:	c7 44 24 04 04 00 00 	movl   $0x4,0x4(%esp)
    2f57:	00 
    2f58:	c7 04 24 ff ff ff ff 	movl   $0xffffffff,(%esp)
    2f5f:	e8 cc dd 00 00       	call   10d30 <log_msg>
    2f64:	8b 03                	mov    (%ebx),%eax
    2f66:	89 44 24 10          	mov    %eax,0x10(%esp)
    2f6a:	8b 43 0c             	mov    0xc(%ebx),%eax
    2f6d:	c7 44 24 08 49 99 02 	movl   $0x29949,0x8(%esp)
    2f74:	00 
    2f75:	89 44 24 0c          	mov    %eax,0xc(%esp)
    2f79:	c7 44 24 04 04 00 00 	movl   $0x4,0x4(%esp)
    2f80:	00 
    2f81:	c7 04 24 ff ff ff ff 	movl   $0xffffffff,(%esp)
    2f88:	e8 a3 dd 00 00       	call   10d30 <log_msg>
    2f8d:	89 1c 24             	mov    %ebx,(%esp)
    2f90:	e8 4b 17 00 00       	call   46e0 <tcp_segment_text_size>
    2f95:	85 c0                	test   %eax,%eax
    2f97:	75 09                	jne    2fa2 <tcp_conn_segment_arrived+0xc62>
    2f99:	f6 03 02             	testb  $0x2,(%ebx)
    2f9c:	0f 85 14 01 00 00    	jne    30b6 <tcp_conn_segment_arrived+0xd76>
    2fa2:	8b 43 0c             	mov    0xc(%ebx),%eax
    2fa5:	85 c0                	test   %eax,%eax
    2fa7:	0f 85 d4 00 00 00    	jne    3081 <tcp_conn_segment_arrived+0xd41>
    2fad:	89 1c 24             	mov    %ebx,(%esp)
    2fb0:	e8 db 13 00 00       	call   4390 <tcp_segment_delete>
    2fb5:	e9 a4 f5 ff ff       	jmp    255e <tcp_conn_segment_arrived+0x21e>
    2fba:	8d b6 00 00 00 00    	lea    0x0(%esi),%esi
    2fc0:	c7 44 24 08 c1 03 00 	movl   $0x3c1,0x8(%esp)
    2fc7:	00 
    2fc8:	c7 44 24 04 88 95 02 	movl   $0x29588,0x4(%esp)
    2fcf:	00 
    2fd0:	c7 04 24 5c 96 02 00 	movl   $0x2965c,(%esp)
    2fd7:	e8 f4 e1 01 00       	call   211d0 <assert_abort>
    2fdc:	8d 74 26 00          	lea    0x0(%esi,%eiz,1),%esi
    2fe0:	c7 44 24 08 6b 98 02 	movl   $0x2986b,0x8(%esp)
    2fe7:	00 
    2fe8:	c7 44 24 04 02 00 00 	movl   $0x2,0x4(%esp)
    2fef:	00 
    2ff0:	c7 04 24 ff ff ff ff 	movl   $0xffffffff,(%esp)
    2ff7:	e8 34 dd 00 00       	call   10d30 <log_msg>
    2ffc:	89 1c 24             	mov    %ebx,(%esp)
    2fff:	e8 8c 13 00 00       	call   4390 <tcp_segment_delete>
    3004:	e9 55 f5 ff ff       	jmp    255e <tcp_conn_segment_arrived+0x21e>
    3009:	8d b4 26 00 00 00 00 	lea    0x0(%esi,%eiz,1),%esi
    3010:	c7 44 24 08 d1 97 02 	movl   $0x297d1,0x8(%esp)
    3017:	00 
    3018:	c7 44 24 04 04 00 00 	movl   $0x4,0x4(%esp)
    301f:	00 
    3020:	c7 04 24 ff ff ff ff 	movl   $0xffffffff,(%esp)
    3027:	e8 04 dd 00 00       	call   10d30 <log_msg>
    302c:	e9 cf f4 ff ff       	jmp    2500 <tcp_conn_segment_arrived+0x1c0>
    3031:	8d b4 26 00 00 00 00 	lea    0x0(%esi,%eiz,1),%esi
    3038:	c7 44 24 08 a0 91 02 	movl   $0x291a0,0x8(%esp)
    303f:	00 
    3040:	c7 44 24 04 04 00 00 	movl   $0x4,0x4(%esp)
    3047:	00 
    3048:	c7 04 24 ff ff ff ff 	movl   $0xffffffff,(%esp)
    304f:	e8 dc dc 00 00       	call   10d30 <log_msg>
    3054:	e9 84 f4 ff ff       	jmp    24dd <tcp_conn_segment_arrived+0x19d>
    3059:	8d b4 26 00 00 00 00 	lea    0x0(%esi,%eiz,1),%esi
    3060:	c7 44 24 08 9a 97 02 	movl   $0x2979a,0x8(%esp)
    3067:	00 
    3068:	c7 44 24 04 02 00 00 	movl   $0x2,0x4(%esp)
    306f:	00 
    3070:	c7 04 24 ff ff ff ff 	movl   $0xffffffff,(%esp)
    3077:	e8 b4 dc 00 00       	call   10d30 <log_msg>
    307c:	e9 7f f4 ff ff       	jmp    2500 <tcp_conn_segment_arrived+0x1c0>
    3081:	89 44 24 10          	mov    %eax,0x10(%esp)
    3085:	89 5c 24 0c          	mov    %ebx,0xc(%esp)
    3089:	c7 44 24 08 c8 94 02 	movl   $0x294c8,0x8(%esp)
    3090:	00 
    3091:	c7 44 24 04 04 00 00 	movl   $0x4,0x4(%esp)
    3098:	00 
    3099:	c7 04 24 ff ff ff ff 	movl   $0xffffffff,(%esp)
    30a0:	e8 8b dc 00 00       	call   10d30 <log_msg>
    30a5:	89 5c 24 04          	mov    %ebx,0x4(%esp)
    30a9:	89 34 24             	mov    %esi,(%esp)
    30ac:	e8 7f 06 00 00       	call   3730 <tcp_iqueue_insert_seg>
    30b1:	e9 a8 f4 ff ff       	jmp    255e <tcp_conn_segment_arrived+0x21e>
    30b6:	c7 44 24 08 f6 98 02 	movl   $0x298f6,0x8(%esp)
    30bd:	00 
    30be:	c7 44 24 04 04 00 00 	movl   $0x4,0x4(%esp)
    30c5:	00 
    30c6:	c7 04 24 ff ff ff ff 	movl   $0xffffffff,(%esp)
    30cd:	e8 5e dc 00 00       	call   10d30 <log_msg>
    30d2:	c7 44 24 04 08 00 00 	movl   $0x8,0x4(%esp)
    30d9:	00 
    30da:	89 3c 24             	mov    %edi,(%esp)
    30dd:	e8 9e 41 00 00       	call   7280 <tcp_tqueue_ctrl_seg>
    30e2:	8b 87 bc 00 00 00    	mov    0xbc(%edi),%eax
    30e8:	40                   	inc    %eax
    30e9:	89 87 bc 00 00 00    	mov    %eax,0xbc(%edi)
    30ef:	8b 87 c0 00 00 00    	mov    0xc0(%edi),%eax
    30f5:	48                   	dec    %eax
    30f6:	89 87 c0 00 00 00    	mov    %eax,0xc0(%edi)
    30fc:	83 7f 3c 0a          	cmpl   $0xa,0x3c(%edi)
    3100:	0f 87 eb 00 00 00    	ja     31f1 <tcp_conn_segment_arrived+0xeb1>
    3106:	8b 47 3c             	mov    0x3c(%edi),%eax
    3109:	ff 24 85 40 9a 02 00 	jmp    *0x29a40(,%eax,4)
    3110:	8b 07                	mov    (%edi),%eax
    3112:	c7 44 24 08 2b 99 02 	movl   $0x2992b,0x8(%esp)
    3119:	00 
    311a:	89 44 24 0c          	mov    %eax,0xc(%esp)
    311e:	c7 44 24 04 04 00 00 	movl   $0x4,0x4(%esp)
    3125:	00 
    3126:	c7 04 24 ff ff ff ff 	movl   $0xffffffff,(%esp)
    312d:	e8 fe db 00 00       	call   10d30 <log_msg>
    3132:	89 7c 24 0c          	mov    %edi,0xc(%esp)
    3136:	c7 44 24 08 71 95 02 	movl   $0x29571,0x8(%esp)
    313d:	00 
    313e:	c7 44 24 04 04 00 00 	movl   $0x4,0x4(%esp)
    3145:	00 
    3146:	c7 04 24 ff ff ff ff 	movl   $0xffffffff,(%esp)
    314d:	e8 de db 00 00       	call   10d30 <log_msg>
    3152:	8b 55 d0             	mov    -0x30(%ebp),%edx
    3155:	8b 47 3c             	mov    0x3c(%edi),%eax
    3158:	c7 47 3c 09 00 00 00 	movl   $0x9,0x3c(%edi)
    315f:	89 14 24             	mov    %edx,(%esp)
    3162:	89 45 cc             	mov    %eax,-0x34(%ebp)
    3165:	e8 56 a2 00 00       	call   d3c0 <fibril_condvar_broadcast>
    316a:	8b 47 0c             	mov    0xc(%edi),%eax
    316d:	85 c0                	test   %eax,%eax
    316f:	0f 84 e3 03 00 00    	je     3558 <tcp_conn_segment_arrived+0x1218>
    3175:	c7 44 24 08 7c 91 02 	movl   $0x2917c,0x8(%esp)
    317c:	00 
    317d:	c7 44 24 04 04 00 00 	movl   $0x4,0x4(%esp)
    3184:	00 
    3185:	c7 04 24 ff ff ff ff 	movl   $0xffffffff,(%esp)
    318c:	e8 9f db 00 00       	call   10d30 <log_msg>
    3191:	8b 47 10             	mov    0x10(%edi),%eax
    3194:	89 44 24 04          	mov    %eax,0x4(%esp)
    3198:	89 3c 24             	mov    %edi,(%esp)
    319b:	ff 57 0c             	call   *0xc(%edi)
    319e:	83 7d cc 0a          	cmpl   $0xa,-0x34(%ebp)
    31a2:	0f 84 61 fb ff ff    	je     2d09 <tcp_conn_segment_arrived+0x9c9>
    31a8:	89 7c 24 10          	mov    %edi,0x10(%esp)
    31ac:	8b 07                	mov    (%edi),%eax
    31ae:	c7 44 24 08 1b 96 02 	movl   $0x2961b,0x8(%esp)
    31b5:	00 
    31b6:	89 44 24 0c          	mov    %eax,0xc(%esp)
    31ba:	c7 44 24 04 05 00 00 	movl   $0x5,0x4(%esp)
    31c1:	00 
    31c2:	c7 04 24 ff ff ff ff 	movl   $0xffffffff,(%esp)
    31c9:	e8 62 db 00 00       	call   10d30 <log_msg>
    31ce:	f0 ff 47 38          	lock incl 0x38(%edi)
    31d2:	89 7c 24 0c          	mov    %edi,0xc(%esp)
    31d6:	c7 44 24 08 40 14 00 	movl   $0x1440,0x8(%esp)
    31dd:	00 
    31de:	c7 44 24 04 80 c3 c9 	movl   $0x1c9c380,0x4(%esp)
    31e5:	01 
    31e6:	8b 47 6c             	mov    0x6c(%edi),%eax
    31e9:	89 04 24             	mov    %eax,(%esp)
    31ec:	e8 5f a4 00 00       	call   d650 <fibril_timer_set>
    31f1:	8b 45 d4             	mov    -0x2c(%ebp),%eax
    31f4:	c6 47 7c 01          	movb   $0x1,0x7c(%edi)
    31f8:	89 04 24             	mov    %eax,(%esp)
    31fb:	e8 c0 a1 00 00       	call   d3c0 <fibril_condvar_broadcast>
    3200:	89 1c 24             	mov    %ebx,(%esp)
    3203:	e8 88 11 00 00       	call   4390 <tcp_segment_delete>
    3208:	e9 51 f3 ff ff       	jmp    255e <tcp_conn_segment_arrived+0x21e>
    320d:	8b 07                	mov    (%edi),%eax
    320f:	c7 44 24 08 0f 99 02 	movl   $0x2990f,0x8(%esp)
    3216:	00 
    3217:	89 44 24 0c          	mov    %eax,0xc(%esp)
    321b:	c7 44 24 04 04 00 00 	movl   $0x4,0x4(%esp)
    3222:	00 
    3223:	c7 04 24 ff ff ff ff 	movl   $0xffffffff,(%esp)
    322a:	e8 01 db 00 00       	call   10d30 <log_msg>
    322f:	89 7c 24 0c          	mov    %edi,0xc(%esp)
    3233:	c7 44 24 08 71 95 02 	movl   $0x29571,0x8(%esp)
    323a:	00 
    323b:	c7 44 24 04 04 00 00 	movl   $0x4,0x4(%esp)
    3242:	00 
    3243:	c7 04 24 ff ff ff ff 	movl   $0xffffffff,(%esp)
    324a:	e8 e1 da 00 00       	call   10d30 <log_msg>
    324f:	8b 47 3c             	mov    0x3c(%edi),%eax
    3252:	89 45 cc             	mov    %eax,-0x34(%ebp)
    3255:	c7 47 3c 07 00 00 00 	movl   $0x7,0x3c(%edi)
    325c:	8b 55 d0             	mov    -0x30(%ebp),%edx
    325f:	89 14 24             	mov    %edx,(%esp)
    3262:	e8 59 a1 00 00       	call   d3c0 <fibril_condvar_broadcast>
    3267:	8b 47 0c             	mov    0xc(%edi),%eax
    326a:	85 c0                	test   %eax,%eax
    326c:	0f 84 c5 02 00 00    	je     3537 <tcp_conn_segment_arrived+0x11f7>
    3272:	c7 44 24 08 7c 91 02 	movl   $0x2917c,0x8(%esp)
    3279:	00 
    327a:	c7 44 24 04 04 00 00 	movl   $0x4,0x4(%esp)
    3281:	00 
    3282:	c7 04 24 ff ff ff ff 	movl   $0xffffffff,(%esp)
    3289:	e8 a2 da 00 00       	call   10d30 <log_msg>
    328e:	8b 47 10             	mov    0x10(%edi),%eax
    3291:	89 44 24 04          	mov    %eax,0x4(%esp)
    3295:	89 3c 24             	mov    %edi,(%esp)
    3298:	ff 57 0c             	call   *0xc(%edi)
    329b:	83 7d cc 0a          	cmpl   $0xa,-0x34(%ebp)
    329f:	0f 85 4c ff ff ff    	jne    31f1 <tcp_conn_segment_arrived+0xeb1>
    32a5:	e9 5f fa ff ff       	jmp    2d09 <tcp_conn_segment_arrived+0x9c9>
    32aa:	8d b6 00 00 00 00    	lea    0x0(%esi),%esi
    32b0:	8b 07                	mov    (%edi),%eax
    32b2:	c7 44 24 08 a8 94 02 	movl   $0x294a8,0x8(%esp)
    32b9:	00 
    32ba:	89 44 24 0c          	mov    %eax,0xc(%esp)
    32be:	c7 44 24 04 04 00 00 	movl   $0x4,0x4(%esp)
    32c5:	00 
    32c6:	c7 04 24 ff ff ff ff 	movl   $0xffffffff,(%esp)
    32cd:	e8 5e da 00 00       	call   10d30 <log_msg>
    32d2:	89 7c 24 0c          	mov    %edi,0xc(%esp)
    32d6:	c7 44 24 08 71 95 02 	movl   $0x29571,0x8(%esp)
    32dd:	00 
    32de:	c7 44 24 04 04 00 00 	movl   $0x4,0x4(%esp)
    32e5:	00 
    32e6:	c7 04 24 ff ff ff ff 	movl   $0xffffffff,(%esp)
    32ed:	e8 3e da 00 00       	call   10d30 <log_msg>
    32f2:	8b 47 3c             	mov    0x3c(%edi),%eax
    32f5:	89 45 cc             	mov    %eax,-0x34(%ebp)
    32f8:	c7 47 3c 06 00 00 00 	movl   $0x6,0x3c(%edi)
    32ff:	e9 58 ff ff ff       	jmp    325c <tcp_conn_segment_arrived+0xf1c>
    3304:	c7 44 24 08 11 04 00 	movl   $0x411,0x8(%esp)
    330b:	00 
    330c:	c7 44 24 04 88 95 02 	movl   $0x29588,0x4(%esp)
    3313:	00 
    3314:	c7 04 24 5c 96 02 00 	movl   $0x2965c,(%esp)
    331b:	e8 b0 de 01 00       	call   211d0 <assert_abort>
    3320:	c7 44 24 04 08 00 00 	movl   $0x8,0x4(%esp)
    3327:	00 
    3328:	89 3c 24             	mov    %edi,(%esp)
    332b:	e8 50 3f 00 00       	call   7280 <tcp_tqueue_ctrl_seg>
    3330:	8b 45 c8             	mov    -0x38(%ebp),%eax
    3333:	e9 be f8 ff ff       	jmp    2bf6 <tcp_conn_segment_arrived+0x8b6>
    3338:	c7 44 24 08 a0 91 02 	movl   $0x291a0,0x8(%esp)
    333f:	00 
    3340:	c7 44 24 04 04 00 00 	movl   $0x4,0x4(%esp)
    3347:	00 
    3348:	c7 04 24 ff ff ff ff 	movl   $0xffffffff,(%esp)
    334f:	e8 dc d9 00 00       	call   10d30 <log_msg>
    3354:	e9 c6 f5 ff ff       	jmp    291f <tcp_conn_segment_arrived+0x5df>
    3359:	c7 44 24 08 e8 93 02 	movl   $0x293e8,0x8(%esp)
    3360:	00 
    3361:	c7 44 24 04 02 00 00 	movl   $0x2,0x4(%esp)
    3368:	00 
    3369:	c7 04 24 ff ff ff ff 	movl   $0xffffffff,(%esp)
    3370:	e8 bb d9 00 00       	call   10d30 <log_msg>
    3375:	8d 57 14             	lea    0x14(%edi),%edx
    3378:	89 54 24 0c          	mov    %edx,0xc(%esp)
    337c:	89 5c 24 10          	mov    %ebx,0x10(%esp)
    3380:	c7 44 24 08 24 97 02 	movl   $0x29724,0x8(%esp)
    3387:	00 
    3388:	c7 44 24 04 04 00 00 	movl   $0x4,0x4(%esp)
    338f:	00 
    3390:	c7 04 24 ff ff ff ff 	movl   $0xffffffff,(%esp)
    3397:	89 55 c8             	mov    %edx,-0x38(%ebp)
    339a:	e8 91 d9 00 00       	call   10d30 <log_msg>
    339f:	89 1c 24             	mov    %ebx,(%esp)
    33a2:	e8 e9 10 00 00       	call   4490 <tcp_segment_make_rst>
    33a7:	8b 55 c8             	mov    -0x38(%ebp),%edx
    33aa:	89 44 24 04          	mov    %eax,0x4(%esp)
    33ae:	89 14 24             	mov    %edx,(%esp)
    33b1:	e8 4a 45 00 00       	call   7900 <tcp_transmit_segment>
    33b6:	89 1c 24             	mov    %ebx,(%esp)
    33b9:	e8 d2 0f 00 00       	call   4390 <tcp_segment_delete>
    33be:	e9 9b f1 ff ff       	jmp    255e <tcp_conn_segment_arrived+0x21e>
    33c3:	89 7c 24 10          	mov    %edi,0x10(%esp)
    33c7:	8b 07                	mov    (%edi),%eax
    33c9:	c7 44 24 08 a6 95 02 	movl   $0x295a6,0x8(%esp)
    33d0:	00 
    33d1:	89 44 24 0c          	mov    %eax,0xc(%esp)
    33d5:	c7 44 24 04 05 00 00 	movl   $0x5,0x4(%esp)
    33dc:	00 
    33dd:	c7 04 24 ff ff ff ff 	movl   $0xffffffff,(%esp)
    33e4:	e8 47 d9 00 00       	call   10d30 <log_msg>
    33e9:	83 c8 ff             	or     $0xffffffff,%eax
    33ec:	f0 0f c1 47 38       	lock xadd %eax,0x38(%edi)
    33f1:	8d 5f 5c             	lea    0x5c(%edi),%ebx
    33f4:	48                   	dec    %eax
    33f5:	0f 85 9e f6 ff ff    	jne    2a99 <tcp_conn_segment_arrived+0x759>
    33fb:	89 7c 24 10          	mov    %edi,0x10(%esp)
    33ff:	8b 07                	mov    (%edi),%eax
    3401:	c7 44 24 08 5b 95 02 	movl   $0x2955b,0x8(%esp)
    3408:	00 
    3409:	89 44 24 0c          	mov    %eax,0xc(%esp)
    340d:	c7 44 24 04 04 00 00 	movl   $0x4,0x4(%esp)
    3414:	00 
    3415:	c7 04 24 ff ff ff ff 	movl   $0xffffffff,(%esp)
    341c:	e8 0f d9 00 00       	call   10d30 <log_msg>
    3421:	89 1c 24             	mov    %ebx,(%esp)
    3424:	e8 97 3b 00 00       	call   6fc0 <tcp_tqueue_fini>
    3429:	8b 47 70             	mov    0x70(%edi),%eax
    342c:	85 c0                	test   %eax,%eax
    342e:	74 08                	je     3438 <tcp_conn_segment_arrived+0x10f8>
    3430:	89 04 24             	mov    %eax,(%esp)
    3433:	e8 78 2a 01 00       	call   15eb0 <free>
    3438:	8b 87 88 00 00 00    	mov    0x88(%edi),%eax
    343e:	85 c0                	test   %eax,%eax
    3440:	74 08                	je     344a <tcp_conn_segment_arrived+0x110a>
    3442:	89 04 24             	mov    %eax,(%esp)
    3445:	e8 66 2a 01 00       	call   15eb0 <free>
    344a:	8b 47 6c             	mov    0x6c(%edi),%eax
    344d:	85 c0                	test   %eax,%eax
    344f:	74 08                	je     3459 <tcp_conn_segment_arrived+0x1119>
    3451:	89 04 24             	mov    %eax,(%esp)
    3454:	e8 77 a0 00 00       	call   d4d0 <fibril_timer_destroy>
    3459:	89 3c 24             	mov    %edi,(%esp)
    345c:	e8 4f 2a 01 00       	call   15eb0 <free>
    3461:	e9 33 f6 ff ff       	jmp    2a99 <tcp_conn_segment_arrived+0x759>
    3466:	c7 44 24 08 a0 91 02 	movl   $0x291a0,0x8(%esp)
    346d:	00 
    346e:	c7 44 24 04 04 00 00 	movl   $0x4,0x4(%esp)
    3475:	00 
    3476:	c7 04 24 ff ff ff ff 	movl   $0xffffffff,(%esp)
    347d:	e8 ae d8 00 00       	call   10d30 <log_msg>
    3482:	e9 f4 f5 ff ff       	jmp    2a7b <tcp_conn_segment_arrived+0x73b>
    3487:	c7 44 24 08 a0 91 02 	movl   $0x291a0,0x8(%esp)
    348e:	00 
    348f:	c7 44 24 04 04 00 00 	movl   $0x4,0x4(%esp)
    3496:	00 
    3497:	c7 04 24 ff ff ff ff 	movl   $0xffffffff,(%esp)
    349e:	e8 8d d8 00 00       	call   10d30 <log_msg>
    34a3:	e9 ff f9 ff ff       	jmp    2ea7 <tcp_conn_segment_arrived+0xb67>
    34a8:	89 7c 24 10          	mov    %edi,0x10(%esp)
    34ac:	8d 5f 5c             	lea    0x5c(%edi),%ebx
    34af:	8b 07                	mov    (%edi),%eax
    34b1:	c7 44 24 08 5b 95 02 	movl   $0x2955b,0x8(%esp)
    34b8:	00 
    34b9:	89 44 24 0c          	mov    %eax,0xc(%esp)
    34bd:	c7 44 24 04 04 00 00 	movl   $0x4,0x4(%esp)
    34c4:	00 
    34c5:	c7 04 24 ff ff ff ff 	movl   $0xffffffff,(%esp)
    34cc:	e8 5f d8 00 00       	call   10d30 <log_msg>
    34d1:	89 1c 24             	mov    %ebx,(%esp)
    34d4:	e8 e7 3a 00 00       	call   6fc0 <tcp_tqueue_fini>
    34d9:	8b 47 70             	mov    0x70(%edi),%eax
    34dc:	85 c0                	test   %eax,%eax
    34de:	74 08                	je     34e8 <tcp_conn_segment_arrived+0x11a8>
    34e0:	89 04 24             	mov    %eax,(%esp)
    34e3:	e8 c8 29 01 00       	call   15eb0 <free>
    34e8:	8b 87 88 00 00 00    	mov    0x88(%edi),%eax
    34ee:	85 c0                	test   %eax,%eax
    34f0:	74 08                	je     34fa <tcp_conn_segment_arrived+0x11ba>
    34f2:	89 04 24             	mov    %eax,(%esp)
    34f5:	e8 b6 29 01 00       	call   15eb0 <free>
    34fa:	8b 47 6c             	mov    0x6c(%edi),%eax
    34fd:	85 c0                	test   %eax,%eax
    34ff:	74 08                	je     3509 <tcp_conn_segment_arrived+0x11c9>
    3501:	89 04 24             	mov    %eax,(%esp)
    3504:	e8 c7 9f 00 00       	call   d4d0 <fibril_timer_destroy>
    3509:	89 3c 24             	mov    %edi,(%esp)
    350c:	e8 9f 29 01 00       	call   15eb0 <free>
    3511:	e9 db f8 ff ff       	jmp    2df1 <tcp_conn_segment_arrived+0xab1>
    3516:	c7 44 24 08 a0 91 02 	movl   $0x291a0,0x8(%esp)
    351d:	00 
    351e:	c7 44 24 04 04 00 00 	movl   $0x4,0x4(%esp)
    3525:	00 
    3526:	c7 04 24 ff ff ff ff 	movl   $0xffffffff,(%esp)
    352d:	e8 fe d7 00 00       	call   10d30 <log_msg>
    3532:	e9 c8 f7 ff ff       	jmp    2cff <tcp_conn_segment_arrived+0x9bf>
    3537:	c7 44 24 08 a0 91 02 	movl   $0x291a0,0x8(%esp)
    353e:	00 
    353f:	c7 44 24 04 04 00 00 	movl   $0x4,0x4(%esp)
    3546:	00 
    3547:	c7 04 24 ff ff ff ff 	movl   $0xffffffff,(%esp)
    354e:	e8 dd d7 00 00       	call   10d30 <log_msg>
    3553:	e9 43 fd ff ff       	jmp    329b <tcp_conn_segment_arrived+0xf5b>
    3558:	c7 44 24 08 a0 91 02 	movl   $0x291a0,0x8(%esp)
    355f:	00 
    3560:	c7 44 24 04 04 00 00 	movl   $0x4,0x4(%esp)
    3567:	00 
    3568:	c7 04 24 ff ff ff ff 	movl   $0xffffffff,(%esp)
    356f:	e8 bc d7 00 00       	call   10d30 <log_msg>
    3574:	e9 25 fc ff ff       	jmp    319e <tcp_conn_segment_arrived+0xe5e>
    3579:	c7 44 24 08 aa 02 00 	movl   $0x2aa,0x8(%esp)
    3580:	00 
    3581:	c7 44 24 04 88 95 02 	movl   $0x29588,0x4(%esp)
    3588:	00 
    3589:	c7 04 24 6c 93 02 00 	movl   $0x2936c,(%esp)
    3590:	e8 3b dc 01 00       	call   211d0 <assert_abort>
    3595:	c7 44 24 08 c7 03 00 	movl   $0x3c7,0x8(%esp)
    359c:	00 
    359d:	c7 44 24 04 88 95 02 	movl   $0x29588,0x4(%esp)
    35a4:	00 
    35a5:	c7 04 24 38 94 02 00 	movl   $0x29438,(%esp)
    35ac:	e8 1f dc 01 00       	call   211d0 <assert_abort>
    35b1:	eb 0d                	jmp    35c0 <tcp_conn_trim_seg_to_wnd>
    35b3:	90                   	nop
    35b4:	90                   	nop
    35b5:	90                   	nop
    35b6:	90                   	nop
    35b7:	90                   	nop
    35b8:	90                   	nop
    35b9:	90                   	nop
    35ba:	90                   	nop
    35bb:	90                   	nop
    35bc:	90                   	nop
    35bd:	90                   	nop
    35be:	90                   	nop
    35bf:	90                   	nop

000035c0 <tcp_conn_trim_seg_to_wnd>:
    35c0:	55                   	push   %ebp
    35c1:	89 e5                	mov    %esp,%ebp
    35c3:	53                   	push   %ebx
    35c4:	83 ec 24             	sub    $0x24,%esp
    35c7:	8d 45 f4             	lea    -0xc(%ebp),%eax
    35ca:	8b 5d 0c             	mov    0xc(%ebp),%ebx
    35cd:	89 44 24 0c          	mov    %eax,0xc(%esp)
    35d1:	8d 45 f0             	lea    -0x10(%ebp),%eax
    35d4:	89 44 24 08          	mov    %eax,0x8(%esp)
    35d8:	8b 45 08             	mov    0x8(%ebp),%eax
    35db:	89 5c 24 04          	mov    %ebx,0x4(%esp)
    35df:	89 04 24             	mov    %eax,(%esp)
    35e2:	e8 79 16 00 00       	call   4c60 <seq_no_seg_trim_calc>
    35e7:	8b 45 f4             	mov    -0xc(%ebp),%eax
    35ea:	89 44 24 08          	mov    %eax,0x8(%esp)
    35ee:	8b 45 f0             	mov    -0x10(%ebp),%eax
    35f1:	89 1c 24             	mov    %ebx,(%esp)
    35f4:	89 44 24 04          	mov    %eax,0x4(%esp)
    35f8:	e8 73 0f 00 00       	call   4570 <tcp_segment_trim>
    35fd:	83 c4 24             	add    $0x24,%esp
    3600:	5b                   	pop    %ebx
    3601:	5d                   	pop    %ebp
    3602:	c3                   	ret    
    3603:	8d b6 00 00 00 00    	lea    0x0(%esi),%esi
    3609:	8d bc 27 00 00 00 00 	lea    0x0(%edi,%eiz,1),%edi

00003610 <tcp_unexpected_segment>:
    3610:	55                   	push   %ebp
    3611:	89 e5                	mov    %esp,%ebp
    3613:	56                   	push   %esi
    3614:	53                   	push   %ebx
    3615:	83 ec 20             	sub    $0x20,%esp
    3618:	8b 5d 0c             	mov    0xc(%ebp),%ebx
    361b:	8b 75 08             	mov    0x8(%ebp),%esi
    361e:	89 5c 24 10          	mov    %ebx,0x10(%esp)
    3622:	89 74 24 0c          	mov    %esi,0xc(%esp)
    3626:	c7 44 24 08 10 95 02 	movl   $0x29510,0x8(%esp)
    362d:	00 
    362e:	c7 44 24 04 04 00 00 	movl   $0x4,0x4(%esp)
    3635:	00 
    3636:	c7 04 24 ff ff ff ff 	movl   $0xffffffff,(%esp)
    363d:	e8 ee d6 00 00       	call   10d30 <log_msg>
    3642:	f6 03 04             	testb  $0x4,(%ebx)
    3645:	74 09                	je     3650 <tcp_unexpected_segment+0x40>
    3647:	83 c4 20             	add    $0x20,%esp
    364a:	5b                   	pop    %ebx
    364b:	5e                   	pop    %esi
    364c:	5d                   	pop    %ebp
    364d:	c3                   	ret    
    364e:	66 90                	xchg   %ax,%ax
    3650:	89 5c 24 10          	mov    %ebx,0x10(%esp)
    3654:	89 74 24 0c          	mov    %esi,0xc(%esp)
    3658:	c7 44 24 08 24 97 02 	movl   $0x29724,0x8(%esp)
    365f:	00 
    3660:	c7 44 24 04 04 00 00 	movl   $0x4,0x4(%esp)
    3667:	00 
    3668:	c7 04 24 ff ff ff ff 	movl   $0xffffffff,(%esp)
    366f:	e8 bc d6 00 00       	call   10d30 <log_msg>
    3674:	89 1c 24             	mov    %ebx,(%esp)
    3677:	e8 14 0e 00 00       	call   4490 <tcp_segment_make_rst>
    367c:	89 75 08             	mov    %esi,0x8(%ebp)
    367f:	89 45 0c             	mov    %eax,0xc(%ebp)
    3682:	83 c4 20             	add    $0x20,%esp
    3685:	5b                   	pop    %ebx
    3686:	5e                   	pop    %esi
    3687:	5d                   	pop    %ebp
    3688:	e9 73 42 00 00       	jmp    7900 <tcp_transmit_segment>
    368d:	8d 76 00             	lea    0x0(%esi),%esi

00003690 <tcp_sockpair_flipped>:
    3690:	55                   	push   %ebp
    3691:	89 e5                	mov    %esp,%ebp
    3693:	53                   	push   %ebx
    3694:	8b 5d 08             	mov    0x8(%ebp),%ebx
    3697:	8b 4d 0c             	mov    0xc(%ebp),%ecx
    369a:	8b 43 08             	mov    0x8(%ebx),%eax
    369d:	8b 53 0c             	mov    0xc(%ebx),%edx
    36a0:	89 01                	mov    %eax,(%ecx)
    36a2:	89 51 04             	mov    %edx,0x4(%ecx)
    36a5:	8b 03                	mov    (%ebx),%eax
    36a7:	8b 53 04             	mov    0x4(%ebx),%edx
    36aa:	89 41 08             	mov    %eax,0x8(%ecx)
    36ad:	89 51 0c             	mov    %edx,0xc(%ecx)
    36b0:	5b                   	pop    %ebx
    36b1:	5d                   	pop    %ebp
    36b2:	c3                   	ret    
    36b3:	8d b6 00 00 00 00    	lea    0x0(%esi),%esi
    36b9:	8d bc 27 00 00 00 00 	lea    0x0(%edi,%eiz,1),%edi

000036c0 <tcp_reply_rst>:
    36c0:	55                   	push   %ebp
    36c1:	89 e5                	mov    %esp,%ebp
    36c3:	56                   	push   %esi
    36c4:	53                   	push   %ebx
    36c5:	83 ec 20             	sub    $0x20,%esp
    36c8:	8b 5d 08             	mov    0x8(%ebp),%ebx
    36cb:	8b 75 0c             	mov    0xc(%ebp),%esi
    36ce:	89 74 24 10          	mov    %esi,0x10(%esp)
    36d2:	89 5c 24 0c          	mov    %ebx,0xc(%esp)
    36d6:	c7 44 24 08 24 97 02 	movl   $0x29724,0x8(%esp)
    36dd:	00 
    36de:	c7 44 24 04 04 00 00 	movl   $0x4,0x4(%esp)
    36e5:	00 
    36e6:	c7 04 24 ff ff ff ff 	movl   $0xffffffff,(%esp)
    36ed:	e8 3e d6 00 00       	call   10d30 <log_msg>
    36f2:	89 34 24             	mov    %esi,(%esp)
    36f5:	e8 96 0d 00 00       	call   4490 <tcp_segment_make_rst>
    36fa:	89 5d 08             	mov    %ebx,0x8(%ebp)
    36fd:	89 45 0c             	mov    %eax,0xc(%ebp)
    3700:	83 c4 20             	add    $0x20,%esp
    3703:	5b                   	pop    %ebx
    3704:	5e                   	pop    %esi
    3705:	5d                   	pop    %ebp
    3706:	e9 f5 41 00 00       	jmp    7900 <tcp_transmit_segment>
    370b:	66 90                	xchg   %ax,%ax
    370d:	66 90                	xchg   %ax,%ax
    370f:	90                   	nop

00003710 <tcp_iqueue_init>:
    3710:	55                   	push   %ebp
    3711:	89 e5                	mov    %esp,%ebp
    3713:	8b 45 08             	mov    0x8(%ebp),%eax
    3716:	8d 50 04             	lea    0x4(%eax),%edx
    3719:	89 50 04             	mov    %edx,0x4(%eax)
    371c:	89 50 08             	mov    %edx,0x8(%eax)
    371f:	8b 55 0c             	mov    0xc(%ebp),%edx
    3722:	89 10                	mov    %edx,(%eax)
    3724:	5d                   	pop    %ebp
    3725:	c3                   	ret    
    3726:	8d 76 00             	lea    0x0(%esi),%esi
    3729:	8d bc 27 00 00 00 00 	lea    0x0(%edi,%eiz,1),%edi

00003730 <tcp_iqueue_insert_seg>:
    3730:	55                   	push   %ebp
    3731:	89 e5                	mov    %esp,%ebp
    3733:	57                   	push   %edi
    3734:	56                   	push   %esi
    3735:	53                   	push   %ebx
    3736:	83 ec 2c             	sub    $0x2c,%esp
    3739:	8b 55 0c             	mov    0xc(%ebp),%edx
    373c:	8b 7d 08             	mov    0x8(%ebp),%edi
    373f:	c7 44 24 08 6c 9a 02 	movl   $0x29a6c,0x8(%esp)
    3746:	00 
    3747:	c7 44 24 04 04 00 00 	movl   $0x4,0x4(%esp)
    374e:	00 
    374f:	c7 04 24 ff ff ff ff 	movl   $0xffffffff,(%esp)
    3756:	89 55 e4             	mov    %edx,-0x1c(%ebp)
    3759:	e8 d2 d5 00 00       	call   10d30 <log_msg>
    375e:	c7 44 24 04 0c 00 00 	movl   $0xc,0x4(%esp)
    3765:	00 
    3766:	c7 04 24 01 00 00 00 	movl   $0x1,(%esp)
    376d:	e8 ce 25 01 00       	call   15d40 <calloc>
    3772:	8b 55 e4             	mov    -0x1c(%ebp),%edx
    3775:	89 c6                	mov    %eax,%esi
    3777:	85 c0                	test   %eax,%eax
    3779:	74 63                	je     37de <tcp_iqueue_insert_seg+0xae>
    377b:	89 50 08             	mov    %edx,0x8(%eax)
    377e:	8b 5f 08             	mov    0x8(%edi),%ebx
    3781:	8d 47 04             	lea    0x4(%edi),%eax
    3784:	39 c3                	cmp    %eax,%ebx
    3786:	74 40                	je     37c8 <tcp_iqueue_insert_seg+0x98>
    3788:	85 db                	test   %ebx,%ebx
    378a:	75 07                	jne    3793 <tcp_iqueue_insert_seg+0x63>
    378c:	eb 3a                	jmp    37c8 <tcp_iqueue_insert_seg+0x98>
    378e:	66 90                	xchg   %ax,%ax
    3790:	8b 56 08             	mov    0x8(%esi),%edx
    3793:	8b 43 08             	mov    0x8(%ebx),%eax
    3796:	89 54 24 04          	mov    %edx,0x4(%esp)
    379a:	89 44 24 08          	mov    %eax,0x8(%esp)
    379e:	8b 07                	mov    (%edi),%eax
    37a0:	89 04 24             	mov    %eax,(%esp)
    37a3:	e8 f8 15 00 00       	call   4da0 <seq_no_seg_cmp>
    37a8:	85 c0                	test   %eax,%eax
    37aa:	78 e4                	js     3790 <tcp_iqueue_insert_seg+0x60>
    37ac:	8b 03                	mov    (%ebx),%eax
    37ae:	89 5e 04             	mov    %ebx,0x4(%esi)
    37b1:	89 06                	mov    %eax,(%esi)
    37b3:	8b 03                	mov    (%ebx),%eax
    37b5:	89 33                	mov    %esi,(%ebx)
    37b7:	89 70 04             	mov    %esi,0x4(%eax)
    37ba:	83 c4 2c             	add    $0x2c,%esp
    37bd:	5b                   	pop    %ebx
    37be:	5e                   	pop    %esi
    37bf:	5f                   	pop    %edi
    37c0:	5d                   	pop    %ebp
    37c1:	c3                   	ret    
    37c2:	8d b6 00 00 00 00    	lea    0x0(%esi),%esi
    37c8:	89 46 04             	mov    %eax,0x4(%esi)
    37cb:	8b 47 04             	mov    0x4(%edi),%eax
    37ce:	89 06                	mov    %eax,(%esi)
    37d0:	89 77 04             	mov    %esi,0x4(%edi)
    37d3:	89 70 04             	mov    %esi,0x4(%eax)
    37d6:	83 c4 2c             	add    $0x2c,%esp
    37d9:	5b                   	pop    %ebx
    37da:	5e                   	pop    %esi
    37db:	5f                   	pop    %edi
    37dc:	5d                   	pop    %ebp
    37dd:	c3                   	ret    
    37de:	c7 44 24 08 84 9a 02 	movl   $0x29a84,0x8(%esp)
    37e5:	00 
    37e6:	c7 44 24 04 01 00 00 	movl   $0x1,0x4(%esp)
    37ed:	00 
    37ee:	c7 04 24 ff ff ff ff 	movl   $0xffffffff,(%esp)
    37f5:	e8 36 d5 00 00       	call   10d30 <log_msg>
    37fa:	eb be                	jmp    37ba <tcp_iqueue_insert_seg+0x8a>
    37fc:	8d 74 26 00          	lea    0x0(%esi,%eiz,1),%esi

00003800 <tcp_iqueue_get_ready_seg>:
    3800:	55                   	push   %ebp
    3801:	89 e5                	mov    %esp,%ebp
    3803:	57                   	push   %edi
    3804:	56                   	push   %esi
    3805:	53                   	push   %ebx
    3806:	83 ec 3c             	sub    $0x3c,%esp
    3809:	8b 75 08             	mov    0x8(%ebp),%esi
    380c:	c7 44 24 08 9b 9a 02 	movl   $0x29a9b,0x8(%esp)
    3813:	00 
    3814:	c7 44 24 04 04 00 00 	movl   $0x4,0x4(%esp)
    381b:	00 
    381c:	c7 04 24 ff ff ff ff 	movl   $0xffffffff,(%esp)
    3823:	8d 7e 04             	lea    0x4(%esi),%edi
    3826:	e8 05 d5 00 00       	call   10d30 <log_msg>
    382b:	8b 5e 08             	mov    0x8(%esi),%ebx
    382e:	39 fb                	cmp    %edi,%ebx
    3830:	0f 84 b0 00 00 00    	je     38e6 <tcp_iqueue_get_ready_seg+0xe6>
    3836:	85 db                	test   %ebx,%ebx
    3838:	0f 84 a8 00 00 00    	je     38e6 <tcp_iqueue_get_ready_seg+0xe6>
    383e:	89 7d e4             	mov    %edi,-0x1c(%ebp)
    3841:	eb 0d                	jmp    3850 <tcp_iqueue_get_ready_seg+0x50>
    3843:	90                   	nop
    3844:	8d 74 26 00          	lea    0x0(%esi,%eiz,1),%esi
    3848:	85 db                	test   %ebx,%ebx
    384a:	0f 84 96 00 00 00    	je     38e6 <tcp_iqueue_get_ready_seg+0xe6>
    3850:	8b 43 08             	mov    0x8(%ebx),%eax
    3853:	89 44 24 04          	mov    %eax,0x4(%esp)
    3857:	8b 06                	mov    (%esi),%eax
    3859:	89 04 24             	mov    %eax,(%esp)
    385c:	e8 1f 13 00 00       	call   4b80 <seq_no_segment_acceptable>
    3861:	84 c0                	test   %al,%al
    3863:	0f 85 a7 00 00 00    	jne    3910 <tcp_iqueue_get_ready_seg+0x110>
    3869:	8b 4b 08             	mov    0x8(%ebx),%ecx
    386c:	8b 16                	mov    (%esi),%edx
    386e:	8b 79 0c             	mov    0xc(%ecx),%edi
    3871:	8b 82 bc 00 00 00    	mov    0xbc(%edx),%eax
    3877:	89 7c 24 18          	mov    %edi,0x18(%esp)
    387b:	8b 49 04             	mov    0x4(%ecx),%ecx
    387e:	89 4c 24 14          	mov    %ecx,0x14(%esp)
    3882:	8b 92 c0 00 00 00    	mov    0xc0(%edx),%edx
    3888:	89 44 24 0c          	mov    %eax,0xc(%esp)
    388c:	01 c2                	add    %eax,%edx
    388e:	c7 44 24 08 dc 9a 02 	movl   $0x29adc,0x8(%esp)
    3895:	00 
    3896:	89 54 24 10          	mov    %edx,0x10(%esp)
    389a:	c7 44 24 04 04 00 00 	movl   $0x4,0x4(%esp)
    38a1:	00 
    38a2:	c7 04 24 ff ff ff ff 	movl   $0xffffffff,(%esp)
    38a9:	e8 82 d4 00 00       	call   10d30 <log_msg>
    38ae:	8b 13                	mov    (%ebx),%edx
    38b0:	85 d2                	test   %edx,%edx
    38b2:	74 0e                	je     38c2 <tcp_iqueue_get_ready_seg+0xc2>
    38b4:	8b 43 04             	mov    0x4(%ebx),%eax
    38b7:	85 c0                	test   %eax,%eax
    38b9:	74 07                	je     38c2 <tcp_iqueue_get_ready_seg+0xc2>
    38bb:	89 10                	mov    %edx,(%eax)
    38bd:	8b 13                	mov    (%ebx),%edx
    38bf:	89 42 04             	mov    %eax,0x4(%edx)
    38c2:	8b 43 08             	mov    0x8(%ebx),%eax
    38c5:	c7 03 00 00 00 00    	movl   $0x0,(%ebx)
    38cb:	c7 43 04 00 00 00 00 	movl   $0x0,0x4(%ebx)
    38d2:	89 04 24             	mov    %eax,(%esp)
    38d5:	e8 b6 0a 00 00       	call   4390 <tcp_segment_delete>
    38da:	8b 5e 08             	mov    0x8(%esi),%ebx
    38dd:	39 5d e4             	cmp    %ebx,-0x1c(%ebp)
    38e0:	0f 85 62 ff ff ff    	jne    3848 <tcp_iqueue_get_ready_seg+0x48>
    38e6:	c7 44 24 08 af 9a 02 	movl   $0x29aaf,0x8(%esp)
    38ed:	00 
    38ee:	c7 44 24 04 04 00 00 	movl   $0x4,0x4(%esp)
    38f5:	00 
    38f6:	c7 04 24 ff ff ff ff 	movl   $0xffffffff,(%esp)
    38fd:	e8 2e d4 00 00       	call   10d30 <log_msg>
    3902:	83 c8 ff             	or     $0xffffffff,%eax
    3905:	83 c4 3c             	add    $0x3c,%esp
    3908:	5b                   	pop    %ebx
    3909:	5e                   	pop    %esi
    390a:	5f                   	pop    %edi
    390b:	5d                   	pop    %ebp
    390c:	c3                   	ret    
    390d:	8d 76 00             	lea    0x0(%esi),%esi
    3910:	8b 43 08             	mov    0x8(%ebx),%eax
    3913:	89 44 24 04          	mov    %eax,0x4(%esp)
    3917:	8b 06                	mov    (%esi),%eax
    3919:	89 04 24             	mov    %eax,(%esp)
    391c:	e8 cf 10 00 00       	call   49f0 <seq_no_segment_ready>
    3921:	84 c0                	test   %al,%al
    3923:	8b 43 08             	mov    0x8(%ebx),%eax
    3926:	74 53                	je     397b <tcp_iqueue_get_ready_seg+0x17b>
    3928:	89 44 24 0c          	mov    %eax,0xc(%esp)
    392c:	c7 44 24 08 bf 9a 02 	movl   $0x29abf,0x8(%esp)
    3933:	00 
    3934:	c7 44 24 04 04 00 00 	movl   $0x4,0x4(%esp)
    393b:	00 
    393c:	c7 04 24 ff ff ff ff 	movl   $0xffffffff,(%esp)
    3943:	e8 e8 d3 00 00       	call   10d30 <log_msg>
    3948:	8b 13                	mov    (%ebx),%edx
    394a:	85 d2                	test   %edx,%edx
    394c:	74 0e                	je     395c <tcp_iqueue_get_ready_seg+0x15c>
    394e:	8b 43 04             	mov    0x4(%ebx),%eax
    3951:	85 c0                	test   %eax,%eax
    3953:	74 07                	je     395c <tcp_iqueue_get_ready_seg+0x15c>
    3955:	89 10                	mov    %edx,(%eax)
    3957:	8b 13                	mov    (%ebx),%edx
    3959:	89 42 04             	mov    %eax,0x4(%edx)
    395c:	8b 45 0c             	mov    0xc(%ebp),%eax
    395f:	8b 53 08             	mov    0x8(%ebx),%edx
    3962:	c7 03 00 00 00 00    	movl   $0x0,(%ebx)
    3968:	c7 43 04 00 00 00 00 	movl   $0x0,0x4(%ebx)
    396f:	89 10                	mov    %edx,(%eax)
    3971:	83 c4 3c             	add    $0x3c,%esp
    3974:	31 c0                	xor    %eax,%eax
    3976:	5b                   	pop    %ebx
    3977:	5e                   	pop    %esi
    3978:	5f                   	pop    %edi
    3979:	5d                   	pop    %ebp
    397a:	c3                   	ret    
    397b:	8b 50 0c             	mov    0xc(%eax),%edx
    397e:	89 54 24 14          	mov    %edx,0x14(%esp)
    3982:	8b 16                	mov    (%esi),%edx
    3984:	8b 92 bc 00 00 00    	mov    0xbc(%edx),%edx
    398a:	89 54 24 10          	mov    %edx,0x10(%esp)
    398e:	8b 40 04             	mov    0x4(%eax),%eax
    3991:	c7 44 24 08 34 9b 02 	movl   $0x29b34,0x8(%esp)
    3998:	00 
    3999:	89 44 24 0c          	mov    %eax,0xc(%esp)
    399d:	c7 44 24 04 04 00 00 	movl   $0x4,0x4(%esp)
    39a4:	00 
    39a5:	c7 04 24 ff ff ff ff 	movl   $0xffffffff,(%esp)
    39ac:	e8 7f d3 00 00       	call   10d30 <log_msg>
    39b1:	83 c8 ff             	or     $0xffffffff,%eax
    39b4:	e9 4c ff ff ff       	jmp    3905 <tcp_iqueue_get_ready_seg+0x105>
    39b9:	66 90                	xchg   %ax,%ax
    39bb:	66 90                	xchg   %ax,%ax
    39bd:	66 90                	xchg   %ax,%ax
    39bf:	90                   	nop

000039c0 <tcp_ncsim_fibril>:
    39c0:	55                   	push   %ebp
    39c1:	89 e5                	mov    %esp,%ebp
    39c3:	53                   	push   %ebx
    39c4:	83 ec 14             	sub    $0x14,%esp
    39c7:	c7 44 24 08 6f 9b 02 	movl   $0x29b6f,0x8(%esp)
    39ce:	00 
    39cf:	c7 44 24 04 04 00 00 	movl   $0x4,0x4(%esp)
    39d6:	00 
    39d7:	c7 04 24 ff ff ff ff 	movl   $0xffffffff,(%esp)
    39de:	e8 4d d3 00 00       	call   10d30 <log_msg>
    39e3:	90                   	nop
    39e4:	8d 74 26 00          	lea    0x0(%esi,%eiz,1),%esi
    39e8:	c7 04 24 f0 d5 02 00 	movl   $0x2d5f0,(%esp)
    39ef:	e8 ac 8c 00 00       	call   c6a0 <fibril_mutex_lock>
    39f4:	8b 1d ec d5 02 00    	mov    0x2d5ec,%ebx
    39fa:	81 fb e8 d5 02 00    	cmp    $0x2d5e8,%ebx
    3a00:	75 46                	jne    3a48 <tcp_ncsim_fibril+0x88>
    3a02:	8d b6 00 00 00 00    	lea    0x0(%esi),%esi
    3a08:	c7 44 24 04 f0 d5 02 	movl   $0x2d5f0,0x4(%esp)
    3a0f:	00 
    3a10:	c7 04 24 00 d6 02 00 	movl   $0x2d600,(%esp)
    3a17:	e8 d4 98 00 00       	call   d2f0 <fibril_condvar_wait>
    3a1c:	8b 1d ec d5 02 00    	mov    0x2d5ec,%ebx
    3a22:	81 fb e8 d5 02 00    	cmp    $0x2d5e8,%ebx
    3a28:	74 de                	je     3a08 <tcp_ncsim_fibril+0x48>
    3a2a:	eb 1c                	jmp    3a48 <tcp_ncsim_fibril+0x88>
    3a2c:	8d 74 26 00          	lea    0x0(%esi,%eiz,1),%esi
    3a30:	8b 1d ec d5 02 00    	mov    0x2d5ec,%ebx
    3a36:	81 fb e8 d5 02 00    	cmp    $0x2d5e8,%ebx
    3a3c:	0f 95 c0             	setne  %al
    3a3f:	25 ff 00 00 00       	and    $0xff,%eax
    3a44:	f7 d8                	neg    %eax
    3a46:	21 c3                	and    %eax,%ebx
    3a48:	c7 44 24 08 82 9b 02 	movl   $0x29b82,0x8(%esp)
    3a4f:	00 
    3a50:	c7 44 24 04 04 00 00 	movl   $0x4,0x4(%esp)
    3a57:	00 
    3a58:	c7 04 24 ff ff ff ff 	movl   $0xffffffff,(%esp)
    3a5f:	e8 cc d2 00 00       	call   10d30 <log_msg>
    3a64:	8b 43 08             	mov    0x8(%ebx),%eax
    3a67:	89 44 24 08          	mov    %eax,0x8(%esp)
    3a6b:	c7 44 24 04 f0 d5 02 	movl   $0x2d5f0,0x4(%esp)
    3a72:	00 
    3a73:	c7 04 24 00 d6 02 00 	movl   $0x2d600,(%esp)
    3a7a:	e8 a1 92 00 00       	call   cd20 <fibril_condvar_wait_timeout>
    3a7f:	83 f8 f3             	cmp    $0xfffffff3,%eax
    3a82:	75 ac                	jne    3a30 <tcp_ncsim_fibril+0x70>
    3a84:	8b 13                	mov    (%ebx),%edx
    3a86:	85 d2                	test   %edx,%edx
    3a88:	74 0e                	je     3a98 <tcp_ncsim_fibril+0xd8>
    3a8a:	8b 43 04             	mov    0x4(%ebx),%eax
    3a8d:	85 c0                	test   %eax,%eax
    3a8f:	74 07                	je     3a98 <tcp_ncsim_fibril+0xd8>
    3a91:	89 10                	mov    %edx,(%eax)
    3a93:	8b 13                	mov    (%ebx),%edx
    3a95:	89 42 04             	mov    %eax,0x4(%edx)
    3a98:	c7 03 00 00 00 00    	movl   $0x0,(%ebx)
    3a9e:	c7 43 04 00 00 00 00 	movl   $0x0,0x4(%ebx)
    3aa5:	c7 04 24 f0 d5 02 00 	movl   $0x2d5f0,(%esp)
    3aac:	e8 0f 8d 00 00       	call   c7c0 <fibril_mutex_unlock>
    3ab1:	c7 44 24 08 90 9b 02 	movl   $0x29b90,0x8(%esp)
    3ab8:	00 
    3ab9:	c7 44 24 04 04 00 00 	movl   $0x4,0x4(%esp)
    3ac0:	00 
    3ac1:	c7 04 24 ff ff ff ff 	movl   $0xffffffff,(%esp)
    3ac8:	e8 63 d2 00 00       	call   10d30 <log_msg>
    3acd:	8b 43 1c             	mov    0x1c(%ebx),%eax
    3ad0:	89 44 24 04          	mov    %eax,0x4(%esp)
    3ad4:	8d 43 0c             	lea    0xc(%ebx),%eax
    3ad7:	89 04 24             	mov    %eax,(%esp)
    3ada:	e8 41 06 00 00       	call   4120 <tcp_rqueue_bounce_seg>
    3adf:	89 1c 24             	mov    %ebx,(%esp)
    3ae2:	e8 c9 23 01 00       	call   15eb0 <free>
    3ae7:	e9 fc fe ff ff       	jmp    39e8 <tcp_ncsim_fibril+0x28>
    3aec:	8d 74 26 00          	lea    0x0(%esi,%eiz,1),%esi

00003af0 <tcp_ncsim_init>:
    3af0:	55                   	push   %ebp
    3af1:	89 e5                	mov    %esp,%ebp
    3af3:	83 ec 18             	sub    $0x18,%esp
    3af6:	c7 05 e8 d5 02 00 e8 	movl   $0x2d5e8,0x2d5e8
    3afd:	d5 02 00 
    3b00:	c7 05 ec d5 02 00 e8 	movl   $0x2d5e8,0x2d5ec
    3b07:	d5 02 00 
    3b0a:	c7 04 24 f0 d5 02 00 	movl   $0x2d5f0,(%esp)
    3b11:	e8 6a 8b 00 00       	call   c680 <fibril_mutex_initialize>
    3b16:	c7 04 24 00 d6 02 00 	movl   $0x2d600,(%esp)
    3b1d:	e8 ee 91 00 00       	call   cd10 <fibril_condvar_initialize>
    3b22:	c9                   	leave  
    3b23:	c3                   	ret    
    3b24:	8d b6 00 00 00 00    	lea    0x0(%esi),%esi
    3b2a:	8d bf 00 00 00 00    	lea    0x0(%edi),%edi

00003b30 <tcp_ncsim_bounce_seg>:
    3b30:	55                   	push   %ebp
    3b31:	89 e5                	mov    %esp,%ebp
    3b33:	56                   	push   %esi
    3b34:	53                   	push   %ebx
    3b35:	83 ec 10             	sub    $0x10,%esp
    3b38:	8b 5d 08             	mov    0x8(%ebp),%ebx
    3b3b:	8b 75 0c             	mov    0xc(%ebp),%esi
    3b3e:	c7 44 24 08 a2 9b 02 	movl   $0x29ba2,0x8(%esp)
    3b45:	00 
    3b46:	c7 44 24 04 04 00 00 	movl   $0x4,0x4(%esp)
    3b4d:	00 
    3b4e:	c7 04 24 ff ff ff ff 	movl   $0xffffffff,(%esp)
    3b55:	e8 d6 d1 00 00       	call   10d30 <log_msg>
    3b5a:	89 75 0c             	mov    %esi,0xc(%ebp)
    3b5d:	89 5d 08             	mov    %ebx,0x8(%ebp)
    3b60:	83 c4 10             	add    $0x10,%esp
    3b63:	5b                   	pop    %ebx
    3b64:	5e                   	pop    %esi
    3b65:	5d                   	pop    %ebp
    3b66:	e9 b5 05 00 00       	jmp    4120 <tcp_rqueue_bounce_seg>
    3b6b:	90                   	nop
    3b6c:	8d 74 26 00          	lea    0x0(%esi,%eiz,1),%esi

00003b70 <tcp_ncsim_fibril_start>:
    3b70:	55                   	push   %ebp
    3b71:	89 e5                	mov    %esp,%ebp
    3b73:	83 ec 18             	sub    $0x18,%esp
    3b76:	c7 44 24 08 b9 9b 02 	movl   $0x29bb9,0x8(%esp)
    3b7d:	00 
    3b7e:	c7 44 24 04 04 00 00 	movl   $0x4,0x4(%esp)
    3b85:	00 
    3b86:	c7 04 24 ff ff ff ff 	movl   $0xffffffff,(%esp)
    3b8d:	e8 9e d1 00 00       	call   10d30 <log_msg>
    3b92:	c7 44 24 04 00 00 00 	movl   $0x0,0x4(%esp)
    3b99:	00 
    3b9a:	c7 04 24 c0 39 00 00 	movl   $0x39c0,(%esp)
    3ba1:	e8 1a 86 00 00       	call   c1c0 <fibril_create>
    3ba6:	85 c0                	test   %eax,%eax
    3ba8:	74 0e                	je     3bb8 <tcp_ncsim_fibril_start+0x48>
    3baa:	89 04 24             	mov    %eax,(%esp)
    3bad:	e8 4e 87 00 00       	call   c300 <fibril_add_ready>
    3bb2:	c9                   	leave  
    3bb3:	c3                   	ret    
    3bb4:	8d 74 26 00          	lea    0x0(%esi,%eiz,1),%esi
    3bb8:	c7 44 24 08 d2 9b 02 	movl   $0x29bd2,0x8(%esp)
    3bbf:	00 
    3bc0:	c7 44 24 04 01 00 00 	movl   $0x1,0x4(%esp)
    3bc7:	00 
    3bc8:	c7 04 24 ff ff ff ff 	movl   $0xffffffff,(%esp)
    3bcf:	e8 5c d1 00 00       	call   10d30 <log_msg>
    3bd4:	c9                   	leave  
    3bd5:	c3                   	ret    
    3bd6:	66 90                	xchg   %ax,%ax
    3bd8:	66 90                	xchg   %ax,%ax
    3bda:	66 90                	xchg   %ax,%ax
    3bdc:	66 90                	xchg   %ax,%ax
    3bde:	66 90                	xchg   %ax,%ax

00003be0 <tcp_pdu_create>:
    3be0:	55                   	push   %ebp
    3be1:	89 e5                	mov    %esp,%ebp
    3be3:	57                   	push   %edi
    3be4:	56                   	push   %esi
    3be5:	53                   	push   %ebx
    3be6:	83 ec 1c             	sub    $0x1c,%esp
    3be9:	8b 7d 0c             	mov    0xc(%ebp),%edi
    3bec:	8b 75 14             	mov    0x14(%ebp),%esi
    3bef:	c7 44 24 04 18 00 00 	movl   $0x18,0x4(%esp)
    3bf6:	00 
    3bf7:	c7 04 24 01 00 00 00 	movl   $0x1,(%esp)
    3bfe:	e8 3d 21 01 00       	call   15d40 <calloc>
    3c03:	89 c3                	mov    %eax,%ebx
    3c05:	85 c0                	test   %eax,%eax
    3c07:	74 76                	je     3c7f <tcp_pdu_create+0x9f>
    3c09:	89 3c 24             	mov    %edi,(%esp)
    3c0c:	e8 8f 21 01 00       	call   15da0 <malloc>
    3c11:	89 43 08             	mov    %eax,0x8(%ebx)
    3c14:	89 34 24             	mov    %esi,(%esp)
    3c17:	e8 84 21 01 00       	call   15da0 <malloc>
    3c1c:	8b 53 08             	mov    0x8(%ebx),%edx
    3c1f:	89 43 10             	mov    %eax,0x10(%ebx)
    3c22:	85 d2                	test   %edx,%edx
    3c24:	74 4d                	je     3c73 <tcp_pdu_create+0x93>
    3c26:	85 c0                	test   %eax,%eax
    3c28:	74 3e                	je     3c68 <tcp_pdu_create+0x88>
    3c2a:	8b 45 08             	mov    0x8(%ebp),%eax
    3c2d:	89 7c 24 08          	mov    %edi,0x8(%esp)
    3c31:	89 14 24             	mov    %edx,(%esp)
    3c34:	89 44 24 04          	mov    %eax,0x4(%esp)
    3c38:	e8 c3 7b 00 00       	call   b800 <memcpy>
    3c3d:	8b 45 10             	mov    0x10(%ebp),%eax
    3c40:	89 74 24 08          	mov    %esi,0x8(%esp)
    3c44:	89 44 24 04          	mov    %eax,0x4(%esp)
    3c48:	8b 43 10             	mov    0x10(%ebx),%eax
    3c4b:	89 04 24             	mov    %eax,(%esp)
    3c4e:	e8 ad 7b 00 00       	call   b800 <memcpy>
    3c53:	89 7b 0c             	mov    %edi,0xc(%ebx)
    3c56:	89 73 14             	mov    %esi,0x14(%ebx)
    3c59:	83 c4 1c             	add    $0x1c,%esp
    3c5c:	89 d8                	mov    %ebx,%eax
    3c5e:	5b                   	pop    %ebx
    3c5f:	5e                   	pop    %esi
    3c60:	5f                   	pop    %edi
    3c61:	5d                   	pop    %ebp
    3c62:	c3                   	ret    
    3c63:	90                   	nop
    3c64:	8d 74 26 00          	lea    0x0(%esi,%eiz,1),%esi
    3c68:	89 14 24             	mov    %edx,(%esp)
    3c6b:	e8 40 22 01 00       	call   15eb0 <free>
    3c70:	8b 43 10             	mov    0x10(%ebx),%eax
    3c73:	85 c0                	test   %eax,%eax
    3c75:	74 08                	je     3c7f <tcp_pdu_create+0x9f>
    3c77:	89 04 24             	mov    %eax,(%esp)
    3c7a:	e8 31 22 01 00       	call   15eb0 <free>
    3c7f:	83 c4 1c             	add    $0x1c,%esp
    3c82:	31 db                	xor    %ebx,%ebx
    3c84:	89 d8                	mov    %ebx,%eax
    3c86:	5b                   	pop    %ebx
    3c87:	5e                   	pop    %esi
    3c88:	5f                   	pop    %edi
    3c89:	5d                   	pop    %ebp
    3c8a:	c3                   	ret    
    3c8b:	90                   	nop
    3c8c:	8d 74 26 00          	lea    0x0(%esi,%eiz,1),%esi

00003c90 <tcp_pdu_delete>:
    3c90:	55                   	push   %ebp
    3c91:	89 e5                	mov    %esp,%ebp
    3c93:	53                   	push   %ebx
    3c94:	83 ec 14             	sub    $0x14,%esp
    3c97:	8b 5d 08             	mov    0x8(%ebp),%ebx
    3c9a:	8b 43 08             	mov    0x8(%ebx),%eax
    3c9d:	89 04 24             	mov    %eax,(%esp)
    3ca0:	e8 0b 22 01 00       	call   15eb0 <free>
    3ca5:	8b 43 10             	mov    0x10(%ebx),%eax
    3ca8:	89 04 24             	mov    %eax,(%esp)
    3cab:	e8 00 22 01 00       	call   15eb0 <free>
    3cb0:	89 5d 08             	mov    %ebx,0x8(%ebp)
    3cb3:	83 c4 14             	add    $0x14,%esp
    3cb6:	5b                   	pop    %ebx
    3cb7:	5d                   	pop    %ebp
    3cb8:	e9 f3 21 01 00       	jmp    15eb0 <free>
    3cbd:	8d 76 00             	lea    0x0(%esi),%esi

00003cc0 <tcp_pdu_decode>:
    3cc0:	55                   	push   %ebp
    3cc1:	89 e5                	mov    %esp,%ebp
    3cc3:	57                   	push   %edi
    3cc4:	56                   	push   %esi
    3cc5:	53                   	push   %ebx
    3cc6:	83 ec 1c             	sub    $0x1c,%esp
    3cc9:	8b 7d 08             	mov    0x8(%ebp),%edi
    3ccc:	8b 47 14             	mov    0x14(%edi),%eax
    3ccf:	89 44 24 08          	mov    %eax,0x8(%esp)
    3cd3:	8b 47 10             	mov    0x10(%edi),%eax
    3cd6:	c7 04 24 00 00 00 00 	movl   $0x0,(%esp)
    3cdd:	89 44 24 04          	mov    %eax,0x4(%esp)
    3ce1:	e8 0a 08 00 00       	call   44f0 <tcp_segment_make_data>
    3ce6:	89 c3                	mov    %eax,%ebx
    3ce8:	85 c0                	test   %eax,%eax
    3cea:	0f 84 b8 00 00 00    	je     3da8 <tcp_pdu_decode+0xe8>
    3cf0:	8b 4f 08             	mov    0x8(%edi),%ecx
    3cf3:	8b 41 0c             	mov    0xc(%ecx),%eax
    3cf6:	66 c1 c0 08          	rol    $0x8,%ax
    3cfa:	89 c2                	mov    %eax,%edx
    3cfc:	83 e2 10             	and    $0x10,%edx
    3cff:	66 83 fa 01          	cmp    $0x1,%dx
    3d03:	19 f6                	sbb    %esi,%esi
    3d05:	83 e6 f8             	and    $0xfffffff8,%esi
    3d08:	83 c6 0c             	add    $0xc,%esi
    3d0b:	66 83 fa 01          	cmp    $0x1,%dx
    3d0f:	19 d2                	sbb    %edx,%edx
    3d11:	83 f2 ff             	xor    $0xffffffff,%edx
    3d14:	83 e2 08             	and    $0x8,%edx
    3d17:	a8 04                	test   $0x4,%al
    3d19:	74 02                	je     3d1d <tcp_pdu_decode+0x5d>
    3d1b:	89 f2                	mov    %esi,%edx
    3d1d:	a8 02                	test   $0x2,%al
    3d1f:	75 7f                	jne    3da0 <tcp_pdu_decode+0xe0>
    3d21:	a8 01                	test   $0x1,%al
    3d23:	74 03                	je     3d28 <tcp_pdu_decode+0x68>
    3d25:	83 ca 02             	or     $0x2,%edx
    3d28:	8b 41 04             	mov    0x4(%ecx),%eax
    3d2b:	89 13                	mov    %edx,(%ebx)
    3d2d:	0f c8                	bswap  %eax
    3d2f:	89 43 04             	mov    %eax,0x4(%ebx)
    3d32:	8b 41 08             	mov    0x8(%ecx),%eax
    3d35:	0f c8                	bswap  %eax
    3d37:	89 43 08             	mov    %eax,0x8(%ebx)
    3d3a:	66 8b 41 0e          	mov    0xe(%ecx),%ax
    3d3e:	66 c1 c0 08          	rol    $0x8,%ax
    3d42:	25 ff ff 00 00       	and    $0xffff,%eax
    3d47:	8b 73 0c             	mov    0xc(%ebx),%esi
    3d4a:	89 43 10             	mov    %eax,0x10(%ebx)
    3d4d:	66 8b 41 12          	mov    0x12(%ecx),%ax
    3d51:	66 c1 c0 08          	rol    $0x8,%ax
    3d55:	25 ff ff 00 00       	and    $0xffff,%eax
    3d5a:	89 43 14             	mov    %eax,0x14(%ebx)
    3d5d:	89 14 24             	mov    %edx,(%esp)
    3d60:	e8 db 0e 00 00       	call   4c40 <seq_no_control_len>
    3d65:	8b 57 08             	mov    0x8(%edi),%edx
    3d68:	8b 4d 0c             	mov    0xc(%ebp),%ecx
    3d6b:	01 c6                	add    %eax,%esi
    3d6d:	66 8b 42 02          	mov    0x2(%edx),%ax
    3d71:	89 73 0c             	mov    %esi,0xc(%ebx)
    3d74:	66 c1 c0 08          	rol    $0x8,%ax
    3d78:	66 89 41 04          	mov    %ax,0x4(%ecx)
    3d7c:	8b 47 04             	mov    0x4(%edi),%eax
    3d7f:	89 01                	mov    %eax,(%ecx)
    3d81:	8b 02                	mov    (%edx),%eax
    3d83:	66 c1 c0 08          	rol    $0x8,%ax
    3d87:	66 89 41 0c          	mov    %ax,0xc(%ecx)
    3d8b:	8b 07                	mov    (%edi),%eax
    3d8d:	89 41 08             	mov    %eax,0x8(%ecx)
    3d90:	8b 45 10             	mov    0x10(%ebp),%eax
    3d93:	89 18                	mov    %ebx,(%eax)
    3d95:	31 c0                	xor    %eax,%eax
    3d97:	83 c4 1c             	add    $0x1c,%esp
    3d9a:	5b                   	pop    %ebx
    3d9b:	5e                   	pop    %esi
    3d9c:	5f                   	pop    %edi
    3d9d:	5d                   	pop    %ebp
    3d9e:	c3                   	ret    
    3d9f:	90                   	nop
    3da0:	83 ca 01             	or     $0x1,%edx
    3da3:	e9 79 ff ff ff       	jmp    3d21 <tcp_pdu_decode+0x61>
    3da8:	b8 fe ff ff ff       	mov    $0xfffffffe,%eax
    3dad:	eb e8                	jmp    3d97 <tcp_pdu_decode+0xd7>
    3daf:	90                   	nop

00003db0 <tcp_pdu_encode>:
    3db0:	55                   	push   %ebp
    3db1:	89 e5                	mov    %esp,%ebp
    3db3:	57                   	push   %edi
    3db4:	56                   	push   %esi
    3db5:	53                   	push   %ebx
    3db6:	83 ec 3c             	sub    $0x3c,%esp
    3db9:	8b 75 08             	mov    0x8(%ebp),%esi
    3dbc:	8b 5d 0c             	mov    0xc(%ebp),%ebx
    3dbf:	c7 44 24 04 18 00 00 	movl   $0x18,0x4(%esp)
    3dc6:	00 
    3dc7:	c7 04 24 01 00 00 00 	movl   $0x1,(%esp)
    3dce:	e8 6d 1f 01 00       	call   15d40 <calloc>
    3dd3:	89 c7                	mov    %eax,%edi
    3dd5:	85 c0                	test   %eax,%eax
    3dd7:	0f 84 c2 02 00 00    	je     409f <tcp_pdu_encode+0x2ef>
    3ddd:	8b 06                	mov    (%esi),%eax
    3ddf:	89 07                	mov    %eax,(%edi)
    3de1:	8b 46 08             	mov    0x8(%esi),%eax
    3de4:	c7 44 24 04 14 00 00 	movl   $0x14,0x4(%esp)
    3deb:	00 
    3dec:	c7 04 24 01 00 00 00 	movl   $0x1,(%esp)
    3df3:	89 47 04             	mov    %eax,0x4(%edi)
    3df6:	e8 45 1f 01 00       	call   15d40 <calloc>
    3dfb:	85 c0                	test   %eax,%eax
    3dfd:	0f 84 99 00 00 00    	je     3e9c <tcp_pdu_encode+0xec>
    3e03:	66 8b 56 0c          	mov    0xc(%esi),%dx
    3e07:	66 8b 4e 04          	mov    0x4(%esi),%cx
    3e0b:	66 c1 c2 08          	rol    $0x8,%dx
    3e0f:	66 89 50 02          	mov    %dx,0x2(%eax)
    3e13:	8b 53 04             	mov    0x4(%ebx),%edx
    3e16:	0f ca                	bswap  %edx
    3e18:	66 c1 c1 08          	rol    $0x8,%cx
    3e1c:	89 50 04             	mov    %edx,0x4(%eax)
    3e1f:	8b 53 08             	mov    0x8(%ebx),%edx
    3e22:	66 89 08             	mov    %cx,(%eax)
    3e25:	8b 0b                	mov    (%ebx),%ecx
    3e27:	0f ca                	bswap  %edx
    3e29:	89 50 08             	mov    %edx,0x8(%eax)
    3e2c:	f6 c1 08             	test   $0x8,%cl
    3e2f:	0f 85 5b 02 00 00    	jne    4090 <tcp_pdu_encode+0x2e0>
    3e35:	be 04 50 00 00       	mov    $0x5004,%esi
    3e3a:	ba 00 50 00 00       	mov    $0x5000,%edx
    3e3f:	f6 c1 04             	test   $0x4,%cl
    3e42:	74 02                	je     3e46 <tcp_pdu_encode+0x96>
    3e44:	89 f2                	mov    %esi,%edx
    3e46:	f6 c1 01             	test   $0x1,%cl
    3e49:	74 03                	je     3e4e <tcp_pdu_encode+0x9e>
    3e4b:	83 ca 02             	or     $0x2,%edx
    3e4e:	83 e1 02             	and    $0x2,%ecx
    3e51:	74 03                	je     3e56 <tcp_pdu_encode+0xa6>
    3e53:	83 ca 01             	or     $0x1,%edx
    3e56:	81 e2 ff ff 00 00    	and    $0xffff,%edx
    3e5c:	0f b7 4b 10          	movzwl 0x10(%ebx),%ecx
    3e60:	c1 e2 08             	shl    $0x8,%edx
    3e63:	66 c7 40 10 00 00    	movw   $0x0,0x10(%eax)
    3e69:	83 ca 50             	or     $0x50,%edx
    3e6c:	66 89 50 0c          	mov    %dx,0xc(%eax)
    3e70:	89 ca                	mov    %ecx,%edx
    3e72:	66 c1 ea 08          	shr    $0x8,%dx
    3e76:	c1 e1 08             	shl    $0x8,%ecx
    3e79:	09 ca                	or     %ecx,%edx
    3e7b:	0f b7 4b 14          	movzwl 0x14(%ebx),%ecx
    3e7f:	66 89 50 0e          	mov    %dx,0xe(%eax)
    3e83:	89 ca                	mov    %ecx,%edx
    3e85:	66 c1 ea 08          	shr    $0x8,%dx
    3e89:	89 47 08             	mov    %eax,0x8(%edi)
    3e8c:	c1 e1 08             	shl    $0x8,%ecx
    3e8f:	c7 47 0c 14 00 00 00 	movl   $0x14,0xc(%edi)
    3e96:	09 ca                	or     %ecx,%edx
    3e98:	66 89 50 12          	mov    %dx,0x12(%eax)
    3e9c:	89 1c 24             	mov    %ebx,(%esp)
    3e9f:	e8 3c 08 00 00       	call   46e0 <tcp_segment_text_size>
    3ea4:	c7 04 24 01 00 00 00 	movl   $0x1,(%esp)
    3eab:	89 44 24 04          	mov    %eax,0x4(%esp)
    3eaf:	89 c6                	mov    %eax,%esi
    3eb1:	e8 8a 1e 01 00       	call   15d40 <calloc>
    3eb6:	89 47 10             	mov    %eax,0x10(%edi)
    3eb9:	85 c0                	test   %eax,%eax
    3ebb:	0f 84 de 01 00 00    	je     409f <tcp_pdu_encode+0x2ef>
    3ec1:	89 74 24 08          	mov    %esi,0x8(%esp)
    3ec5:	89 77 14             	mov    %esi,0x14(%edi)
    3ec8:	8b 53 18             	mov    0x18(%ebx),%edx
    3ecb:	89 04 24             	mov    %eax,(%esp)
    3ece:	89 54 24 04          	mov    %edx,0x4(%esp)
    3ed2:	e8 29 79 00 00       	call   b800 <memcpy>
    3ed7:	8b 5f 14             	mov    0x14(%edi),%ebx
    3eda:	8b 17                	mov    (%edi),%edx
    3edc:	89 5d d0             	mov    %ebx,-0x30(%ebp)
    3edf:	0f ca                	bswap  %edx
    3ee1:	8b 4f 0c             	mov    0xc(%edi),%ecx
    3ee4:	8b 5d d0             	mov    -0x30(%ebp),%ebx
    3ee7:	01 cb                	add    %ecx,%ebx
    3ee9:	89 4d d4             	mov    %ecx,-0x2c(%ebp)
    3eec:	89 d1                	mov    %edx,%ecx
    3eee:	89 d6                	mov    %edx,%esi
    3ef0:	c1 e9 08             	shr    $0x8,%ecx
    3ef3:	89 55 dc             	mov    %edx,-0x24(%ebp)
    3ef6:	81 e1 00 ff 00 00    	and    $0xff00,%ecx
    3efc:	8b 47 04             	mov    0x4(%edi),%eax
    3eff:	66 c1 c6 08          	rol    $0x8,%si
    3f03:	c1 ea 18             	shr    $0x18,%edx
    3f06:	81 e6 ff ff 00 00    	and    $0xffff,%esi
    3f0c:	09 ca                	or     %ecx,%edx
    3f0e:	c6 45 e4 00          	movb   $0x0,-0x1c(%ebp)
    3f12:	01 f2                	add    %esi,%edx
    3f14:	c6 45 e5 06          	movb   $0x6,-0x1b(%ebp)
    3f18:	0f c8                	bswap  %eax
    3f1a:	89 d6                	mov    %edx,%esi
    3f1c:	89 c1                	mov    %eax,%ecx
    3f1e:	c1 ee 10             	shr    $0x10,%esi
    3f21:	89 45 e0             	mov    %eax,-0x20(%ebp)
    3f24:	01 f2                	add    %esi,%edx
    3f26:	8b 77 08             	mov    0x8(%edi),%esi
    3f29:	66 c1 c1 08          	rol    $0x8,%cx
    3f2d:	81 e1 ff ff 00 00    	and    $0xffff,%ecx
    3f33:	81 e2 ff ff 00 00    	and    $0xffff,%edx
    3f39:	01 ca                	add    %ecx,%edx
    3f3b:	89 75 c8             	mov    %esi,-0x38(%ebp)
    3f3e:	89 d1                	mov    %edx,%ecx
    3f40:	c1 e9 10             	shr    $0x10,%ecx
    3f43:	01 d1                	add    %edx,%ecx
    3f45:	89 c2                	mov    %eax,%edx
    3f47:	c1 ea 08             	shr    $0x8,%edx
    3f4a:	81 e1 ff ff 00 00    	and    $0xffff,%ecx
    3f50:	c1 e8 18             	shr    $0x18,%eax
    3f53:	81 e2 00 ff 00 00    	and    $0xff00,%edx
    3f59:	09 d0                	or     %edx,%eax
    3f5b:	01 c8                	add    %ecx,%eax
    3f5d:	89 c1                	mov    %eax,%ecx
    3f5f:	c1 e9 10             	shr    $0x10,%ecx
    3f62:	01 c8                	add    %ecx,%eax
    3f64:	25 ff ff 00 00       	and    $0xffff,%eax
    3f69:	83 c0 06             	add    $0x6,%eax
    3f6c:	89 c1                	mov    %eax,%ecx
    3f6e:	66 c1 c3 08          	rol    $0x8,%bx
    3f72:	c1 e9 10             	shr    $0x10,%ecx
    3f75:	66 89 5d e6          	mov    %bx,-0x1a(%ebp)
    3f79:	01 c8                	add    %ecx,%eax
    3f7b:	66 c1 c3 08          	rol    $0x8,%bx
    3f7f:	25 ff ff 00 00       	and    $0xffff,%eax
    3f84:	81 e3 ff ff 00 00    	and    $0xffff,%ebx
    3f8a:	8d 0c 18             	lea    (%eax,%ebx,1),%ecx
    3f8d:	89 c8                	mov    %ecx,%eax
    3f8f:	c1 e8 10             	shr    $0x10,%eax
    3f92:	01 c1                	add    %eax,%ecx
    3f94:	8b 45 d4             	mov    -0x2c(%ebp),%eax
    3f97:	d1 e8                	shr    %eax
    3f99:	89 45 cc             	mov    %eax,-0x34(%ebp)
    3f9c:	74 34                	je     3fd2 <tcp_pdu_encode+0x222>
    3f9e:	89 c2                	mov    %eax,%edx
    3fa0:	89 f0                	mov    %esi,%eax
    3fa2:	8d 34 56             	lea    (%esi,%edx,2),%esi
    3fa5:	8d 76 00             	lea    0x0(%esi),%esi
    3fa8:	31 db                	xor    %ebx,%ebx
    3faa:	31 d2                	xor    %edx,%edx
    3fac:	8a 18                	mov    (%eax),%bl
    3fae:	8a 50 01             	mov    0x1(%eax),%dl
    3fb1:	c1 e3 08             	shl    $0x8,%ebx
    3fb4:	81 e1 ff ff 00 00    	and    $0xffff,%ecx
    3fba:	09 da                	or     %ebx,%edx
    3fbc:	83 c0 02             	add    $0x2,%eax
    3fbf:	81 e2 ff ff 00 00    	and    $0xffff,%edx
    3fc5:	01 ca                	add    %ecx,%edx
    3fc7:	89 d1                	mov    %edx,%ecx
    3fc9:	c1 e9 10             	shr    $0x10,%ecx
    3fcc:	01 d1                	add    %edx,%ecx
    3fce:	39 f0                	cmp    %esi,%eax
    3fd0:	75 d6                	jne    3fa8 <tcp_pdu_encode+0x1f8>
    3fd2:	f6 45 d4 01          	testb  $0x1,-0x2c(%ebp)
    3fd6:	74 22                	je     3ffa <tcp_pdu_encode+0x24a>
    3fd8:	8b 5d cc             	mov    -0x34(%ebp),%ebx
    3fdb:	8b 75 c8             	mov    -0x38(%ebp),%esi
    3fde:	31 c0                	xor    %eax,%eax
    3fe0:	81 e1 ff ff 00 00    	and    $0xffff,%ecx
    3fe6:	8a 04 5e             	mov    (%esi,%ebx,2),%al
    3fe9:	c1 e0 08             	shl    $0x8,%eax
    3fec:	25 ff ff 00 00       	and    $0xffff,%eax
    3ff1:	01 c8                	add    %ecx,%eax
    3ff3:	89 c1                	mov    %eax,%ecx
    3ff5:	c1 e9 10             	shr    $0x10,%ecx
    3ff8:	01 c1                	add    %eax,%ecx
    3ffa:	8b 55 d0             	mov    -0x30(%ebp),%edx
    3ffd:	8b 47 10             	mov    0x10(%edi),%eax
    4000:	d1 ea                	shr    %edx
    4002:	89 45 d4             	mov    %eax,-0x2c(%ebp)
    4005:	89 55 cc             	mov    %edx,-0x34(%ebp)
    4008:	74 3e                	je     4048 <tcp_pdu_encode+0x298>
    400a:	89 d3                	mov    %edx,%ebx
    400c:	89 c2                	mov    %eax,%edx
    400e:	8d 04 58             	lea    (%eax,%ebx,2),%eax
    4011:	8d b4 26 00 00 00 00 	lea    0x0(%esi,%eiz,1),%esi
    4018:	8a 1a                	mov    (%edx),%bl
    401a:	81 e1 ff ff 00 00    	and    $0xffff,%ecx
    4020:	81 e3 ff 00 00 00    	and    $0xff,%ebx
    4026:	89 de                	mov    %ebx,%esi
    4028:	31 db                	xor    %ebx,%ebx
    402a:	c1 e6 08             	shl    $0x8,%esi
    402d:	8a 5a 01             	mov    0x1(%edx),%bl
    4030:	09 f3                	or     %esi,%ebx
    4032:	83 c2 02             	add    $0x2,%edx
    4035:	81 e3 ff ff 00 00    	and    $0xffff,%ebx
    403b:	01 cb                	add    %ecx,%ebx
    403d:	89 d9                	mov    %ebx,%ecx
    403f:	c1 e9 10             	shr    $0x10,%ecx
    4042:	01 d9                	add    %ebx,%ecx
    4044:	39 c2                	cmp    %eax,%edx
    4046:	75 d0                	jne    4018 <tcp_pdu_encode+0x268>
    4048:	f6 45 d0 01          	testb  $0x1,-0x30(%ebp)
    404c:	74 22                	je     4070 <tcp_pdu_encode+0x2c0>
    404e:	8b 75 cc             	mov    -0x34(%ebp),%esi
    4051:	8b 55 d4             	mov    -0x2c(%ebp),%edx
    4054:	31 c0                	xor    %eax,%eax
    4056:	81 e1 ff ff 00 00    	and    $0xffff,%ecx
    405c:	8a 04 72             	mov    (%edx,%esi,2),%al
    405f:	c1 e0 08             	shl    $0x8,%eax
    4062:	25 ff ff 00 00       	and    $0xffff,%eax
    4067:	01 c8                	add    %ecx,%eax
    4069:	89 c1                	mov    %eax,%ecx
    406b:	c1 e9 10             	shr    $0x10,%ecx
    406e:	01 c1                	add    %eax,%ecx
    4070:	8b 45 10             	mov    0x10(%ebp),%eax
    4073:	83 f1 ff             	xor    $0xffffffff,%ecx
    4076:	8b 5d c8             	mov    -0x38(%ebp),%ebx
    4079:	66 c1 c1 08          	rol    $0x8,%cx
    407d:	66 89 4b 10          	mov    %cx,0x10(%ebx)
    4081:	89 38                	mov    %edi,(%eax)
    4083:	31 c0                	xor    %eax,%eax
    4085:	83 c4 3c             	add    $0x3c,%esp
    4088:	5b                   	pop    %ebx
    4089:	5e                   	pop    %esi
    408a:	5f                   	pop    %edi
    408b:	5d                   	pop    %ebp
    408c:	c3                   	ret    
    408d:	8d 76 00             	lea    0x0(%esi),%esi
    4090:	be 14 50 00 00       	mov    $0x5014,%esi
    4095:	ba 10 50 00 00       	mov    $0x5010,%edx
    409a:	e9 a0 fd ff ff       	jmp    3e3f <tcp_pdu_encode+0x8f>
    409f:	b8 fe ff ff ff       	mov    $0xfffffffe,%eax
    40a4:	eb df                	jmp    4085 <tcp_pdu_encode+0x2d5>
    40a6:	66 90                	xchg   %ax,%ax
    40a8:	66 90                	xchg   %ax,%ax
    40aa:	66 90                	xchg   %ax,%ax
    40ac:	66 90                	xchg   %ax,%ax
    40ae:	66 90                	xchg   %ax,%ax

000040b0 <tcp_rqueue_fibril>:
    40b0:	55                   	push   %ebp
    40b1:	89 e5                	mov    %esp,%ebp
    40b3:	83 ec 18             	sub    $0x18,%esp
    40b6:	c7 44 24 08 f0 9b 02 	movl   $0x29bf0,0x8(%esp)
    40bd:	00 
    40be:	c7 44 24 04 04 00 00 	movl   $0x4,0x4(%esp)
    40c5:	00 
    40c6:	c7 04 24 ff ff ff ff 	movl   $0xffffffff,(%esp)
    40cd:	e8 5e cc 00 00       	call   10d30 <log_msg>
    40d2:	8d b6 00 00 00 00    	lea    0x0(%esi),%esi
    40d8:	c7 04 24 20 d6 02 00 	movl   $0x2d620,(%esp)
    40df:	e8 8c 8f 01 00       	call   1d070 <prodcons_consume>
    40e4:	8b 50 18             	mov    0x18(%eax),%edx
    40e7:	83 c0 08             	add    $0x8,%eax
    40ea:	89 54 24 04          	mov    %edx,0x4(%esp)
    40ee:	89 04 24             	mov    %eax,(%esp)
    40f1:	e8 1a 40 00 00       	call   8110 <tcp_as_segment_arrived>
    40f6:	eb e0                	jmp    40d8 <tcp_rqueue_fibril+0x28>
    40f8:	90                   	nop
    40f9:	8d b4 26 00 00 00 00 	lea    0x0(%esi,%eiz,1),%esi

00004100 <tcp_rqueue_init>:
    4100:	55                   	push   %ebp
    4101:	89 e5                	mov    %esp,%ebp
    4103:	83 ec 18             	sub    $0x18,%esp
    4106:	c7 04 24 20 d6 02 00 	movl   $0x2d620,(%esp)
    410d:	e8 de 8e 01 00       	call   1cff0 <prodcons_initialize>
    4112:	c9                   	leave  
    4113:	c3                   	ret    
    4114:	8d b6 00 00 00 00    	lea    0x0(%esi),%esi
    411a:	8d bf 00 00 00 00    	lea    0x0(%edi),%edi

00004120 <tcp_rqueue_bounce_seg>:
    4120:	55                   	push   %ebp
    4121:	89 e5                	mov    %esp,%ebp
    4123:	56                   	push   %esi
    4124:	53                   	push   %ebx
    4125:	83 ec 30             	sub    $0x30,%esp
    4128:	8b 5d 0c             	mov    0xc(%ebp),%ebx
    412b:	c7 44 24 08 04 9c 02 	movl   $0x29c04,0x8(%esp)
    4132:	00 
    4133:	c7 44 24 04 04 00 00 	movl   $0x4,0x4(%esp)
    413a:	00 
    413b:	c7 04 24 ff ff ff ff 	movl   $0xffffffff,(%esp)
    4142:	e8 e9 cb 00 00       	call   10d30 <log_msg>
    4147:	8d 45 e0             	lea    -0x20(%ebp),%eax
    414a:	89 44 24 08          	mov    %eax,0x8(%esp)
    414e:	8b 45 08             	mov    0x8(%ebp),%eax
    4151:	89 5c 24 04          	mov    %ebx,0x4(%esp)
    4155:	89 04 24             	mov    %eax,(%esp)
    4158:	e8 53 fc ff ff       	call   3db0 <tcp_pdu_encode>
    415d:	85 c0                	test   %eax,%eax
    415f:	75 1d                	jne    417e <tcp_rqueue_bounce_seg+0x5e>
    4161:	8d 45 e4             	lea    -0x1c(%ebp),%eax
    4164:	89 44 24 08          	mov    %eax,0x8(%esp)
    4168:	8d 45 e8             	lea    -0x18(%ebp),%eax
    416b:	89 44 24 04          	mov    %eax,0x4(%esp)
    416f:	8b 45 e0             	mov    -0x20(%ebp),%eax
    4172:	89 04 24             	mov    %eax,(%esp)
    4175:	e8 46 fb ff ff       	call   3cc0 <tcp_pdu_decode>
    417a:	85 c0                	test   %eax,%eax
    417c:	74 2a                	je     41a8 <tcp_rqueue_bounce_seg+0x88>
    417e:	c7 44 24 08 68 9c 02 	movl   $0x29c68,0x8(%esp)
    4185:	00 
    4186:	c7 44 24 04 02 00 00 	movl   $0x2,0x4(%esp)
    418d:	00 
    418e:	c7 04 24 ff ff ff ff 	movl   $0xffffffff,(%esp)
    4195:	e8 96 cb 00 00       	call   10d30 <log_msg>
    419a:	83 c4 30             	add    $0x30,%esp
    419d:	5b                   	pop    %ebx
    419e:	5e                   	pop    %esi
    419f:	5d                   	pop    %ebp
    41a0:	c3                   	ret    
    41a1:	8d b4 26 00 00 00 00 	lea    0x0(%esi,%eiz,1),%esi
    41a8:	8b 45 e0             	mov    -0x20(%ebp),%eax
    41ab:	89 04 24             	mov    %eax,(%esp)
    41ae:	e8 dd fa ff ff       	call   3c90 <tcp_pdu_delete>
    41b3:	8b 75 e4             	mov    -0x1c(%ebp),%esi
    41b6:	c7 44 24 08 1c 9c 02 	movl   $0x29c1c,0x8(%esp)
    41bd:	00 
    41be:	c7 44 24 04 04 00 00 	movl   $0x4,0x4(%esp)
    41c5:	00 
    41c6:	c7 04 24 ff ff ff ff 	movl   $0xffffffff,(%esp)
    41cd:	e8 5e cb 00 00       	call   10d30 <log_msg>
    41d2:	89 34 24             	mov    %esi,(%esp)
    41d5:	e8 36 05 00 00       	call   4710 <tcp_segment_dump>
    41da:	c7 44 24 04 1c 00 00 	movl   $0x1c,0x4(%esp)
    41e1:	00 
    41e2:	c7 04 24 01 00 00 00 	movl   $0x1,(%esp)
    41e9:	e8 52 1b 01 00       	call   15d40 <calloc>
    41ee:	85 c0                	test   %eax,%eax
    41f0:	74 3e                	je     4230 <tcp_rqueue_bounce_seg+0x110>
    41f2:	8b 55 e8             	mov    -0x18(%ebp),%edx
    41f5:	89 70 18             	mov    %esi,0x18(%eax)
    41f8:	89 50 08             	mov    %edx,0x8(%eax)
    41fb:	8b 55 ec             	mov    -0x14(%ebp),%edx
    41fe:	89 50 0c             	mov    %edx,0xc(%eax)
    4201:	8b 55 f0             	mov    -0x10(%ebp),%edx
    4204:	89 50 10             	mov    %edx,0x10(%eax)
    4207:	8b 55 f4             	mov    -0xc(%ebp),%edx
    420a:	89 50 14             	mov    %edx,0x14(%eax)
    420d:	89 44 24 04          	mov    %eax,0x4(%esp)
    4211:	c7 04 24 20 d6 02 00 	movl   $0x2d620,(%esp)
    4218:	e8 03 8e 01 00       	call   1d020 <prodcons_produce>
    421d:	89 1c 24             	mov    %ebx,(%esp)
    4220:	e8 6b 01 00 00       	call   4390 <tcp_segment_delete>
    4225:	83 c4 30             	add    $0x30,%esp
    4228:	5b                   	pop    %ebx
    4229:	5e                   	pop    %esi
    422a:	5d                   	pop    %ebp
    422b:	c3                   	ret    
    422c:	8d 74 26 00          	lea    0x0(%esi,%eiz,1),%esi
    4230:	c7 44 24 08 34 9c 02 	movl   $0x29c34,0x8(%esp)
    4237:	00 
    4238:	c7 44 24 04 01 00 00 	movl   $0x1,0x4(%esp)
    423f:	00 
    4240:	c7 04 24 ff ff ff ff 	movl   $0xffffffff,(%esp)
    4247:	e8 e4 ca 00 00       	call   10d30 <log_msg>
    424c:	eb cf                	jmp    421d <tcp_rqueue_bounce_seg+0xfd>
    424e:	66 90                	xchg   %ax,%ax

00004250 <tcp_rqueue_insert_seg>:
    4250:	55                   	push   %ebp
    4251:	89 e5                	mov    %esp,%ebp
    4253:	56                   	push   %esi
    4254:	53                   	push   %ebx
    4255:	83 ec 10             	sub    $0x10,%esp
    4258:	8b 75 0c             	mov    0xc(%ebp),%esi
    425b:	8b 5d 08             	mov    0x8(%ebp),%ebx
    425e:	c7 44 24 08 1c 9c 02 	movl   $0x29c1c,0x8(%esp)
    4265:	00 
    4266:	c7 44 24 04 04 00 00 	movl   $0x4,0x4(%esp)
    426d:	00 
    426e:	c7 04 24 ff ff ff ff 	movl   $0xffffffff,(%esp)
    4275:	e8 b6 ca 00 00       	call   10d30 <log_msg>
    427a:	89 34 24             	mov    %esi,(%esp)
    427d:	e8 8e 04 00 00       	call   4710 <tcp_segment_dump>
    4282:	c7 44 24 04 1c 00 00 	movl   $0x1c,0x4(%esp)
    4289:	00 
    428a:	c7 04 24 01 00 00 00 	movl   $0x1,(%esp)
    4291:	e8 aa 1a 01 00       	call   15d40 <calloc>
    4296:	85 c0                	test   %eax,%eax
    4298:	74 36                	je     42d0 <tcp_rqueue_insert_seg+0x80>
    429a:	8b 13                	mov    (%ebx),%edx
    429c:	89 50 08             	mov    %edx,0x8(%eax)
    429f:	8b 53 04             	mov    0x4(%ebx),%edx
    42a2:	89 50 0c             	mov    %edx,0xc(%eax)
    42a5:	8b 53 08             	mov    0x8(%ebx),%edx
    42a8:	89 50 10             	mov    %edx,0x10(%eax)
    42ab:	8b 53 0c             	mov    0xc(%ebx),%edx
    42ae:	89 70 18             	mov    %esi,0x18(%eax)
    42b1:	89 50 14             	mov    %edx,0x14(%eax)
    42b4:	89 45 0c             	mov    %eax,0xc(%ebp)
    42b7:	c7 45 08 20 d6 02 00 	movl   $0x2d620,0x8(%ebp)
    42be:	83 c4 10             	add    $0x10,%esp
    42c1:	5b                   	pop    %ebx
    42c2:	5e                   	pop    %esi
    42c3:	5d                   	pop    %ebp
    42c4:	e9 57 8d 01 00       	jmp    1d020 <prodcons_produce>
    42c9:	8d b4 26 00 00 00 00 	lea    0x0(%esi,%eiz,1),%esi
    42d0:	c7 44 24 08 34 9c 02 	movl   $0x29c34,0x8(%esp)
    42d7:	00 
    42d8:	c7 44 24 04 01 00 00 	movl   $0x1,0x4(%esp)
    42df:	00 
    42e0:	c7 04 24 ff ff ff ff 	movl   $0xffffffff,(%esp)
    42e7:	e8 44 ca 00 00       	call   10d30 <log_msg>
    42ec:	83 c4 10             	add    $0x10,%esp
    42ef:	5b                   	pop    %ebx
    42f0:	5e                   	pop    %esi
    42f1:	5d                   	pop    %ebp
    42f2:	c3                   	ret    
    42f3:	8d b6 00 00 00 00    	lea    0x0(%esi),%esi
    42f9:	8d bc 27 00 00 00 00 	lea    0x0(%edi,%eiz,1),%edi

00004300 <tcp_rqueue_fibril_start>:
    4300:	55                   	push   %ebp
    4301:	89 e5                	mov    %esp,%ebp
    4303:	83 ec 18             	sub    $0x18,%esp
    4306:	c7 44 24 08 4b 9c 02 	movl   $0x29c4b,0x8(%esp)
    430d:	00 
    430e:	c7 44 24 04 04 00 00 	movl   $0x4,0x4(%esp)
    4315:	00 
    4316:	c7 04 24 ff ff ff ff 	movl   $0xffffffff,(%esp)
    431d:	e8 0e ca 00 00       	call   10d30 <log_msg>
    4322:	c7 44 24 04 00 00 00 	movl   $0x0,0x4(%esp)
    4329:	00 
    432a:	c7 04 24 b0 40 00 00 	movl   $0x40b0,(%esp)
    4331:	e8 8a 7e 00 00       	call   c1c0 <fibril_create>
    4336:	85 c0                	test   %eax,%eax
    4338:	74 0e                	je     4348 <tcp_rqueue_fibril_start+0x48>
    433a:	89 04 24             	mov    %eax,(%esp)
    433d:	e8 be 7f 00 00       	call   c300 <fibril_add_ready>
    4342:	c9                   	leave  
    4343:	c3                   	ret    
    4344:	8d 74 26 00          	lea    0x0(%esi,%eiz,1),%esi
    4348:	c7 44 24 08 8c 9c 02 	movl   $0x29c8c,0x8(%esp)
    434f:	00 
    4350:	c7 44 24 04 01 00 00 	movl   $0x1,0x4(%esp)
    4357:	00 
    4358:	c7 04 24 ff ff ff ff 	movl   $0xffffffff,(%esp)
    435f:	e8 cc c9 00 00       	call   10d30 <log_msg>
    4364:	c9                   	leave  
    4365:	c3                   	ret    
    4366:	66 90                	xchg   %ax,%ax
    4368:	66 90                	xchg   %ax,%ax
    436a:	66 90                	xchg   %ax,%ax
    436c:	66 90                	xchg   %ax,%ax
    436e:	66 90                	xchg   %ax,%ax

00004370 <tcp_segment_new>:
    4370:	55                   	push   %ebp
    4371:	89 e5                	mov    %esp,%ebp
    4373:	83 ec 18             	sub    $0x18,%esp
    4376:	c7 44 24 04 20 00 00 	movl   $0x20,0x4(%esp)
    437d:	00 
    437e:	c7 04 24 01 00 00 00 	movl   $0x1,(%esp)
    4385:	e8 b6 19 01 00       	call   15d40 <calloc>
    438a:	c9                   	leave  
    438b:	c3                   	ret    
    438c:	8d 74 26 00          	lea    0x0(%esi,%eiz,1),%esi

00004390 <tcp_segment_delete>:
    4390:	55                   	push   %ebp
    4391:	89 e5                	mov    %esp,%ebp
    4393:	5d                   	pop    %ebp
    4394:	e9 17 1b 01 00       	jmp    15eb0 <free>
    4399:	8d b4 26 00 00 00 00 	lea    0x0(%esi,%eiz,1),%esi

000043a0 <tcp_segment_dup>:
    43a0:	55                   	push   %ebp
    43a1:	89 e5                	mov    %esp,%ebp
    43a3:	57                   	push   %edi
    43a4:	56                   	push   %esi
    43a5:	53                   	push   %ebx
    43a6:	83 ec 1c             	sub    $0x1c,%esp
    43a9:	8b 75 08             	mov    0x8(%ebp),%esi
    43ac:	c7 44 24 04 20 00 00 	movl   $0x20,0x4(%esp)
    43b3:	00 
    43b4:	c7 04 24 01 00 00 00 	movl   $0x1,(%esp)
    43bb:	e8 80 19 01 00       	call   15d40 <calloc>
    43c0:	89 c3                	mov    %eax,%ebx
    43c2:	85 c0                	test   %eax,%eax
    43c4:	74 61                	je     4427 <tcp_segment_dup+0x87>
    43c6:	8b 06                	mov    (%esi),%eax
    43c8:	89 03                	mov    %eax,(%ebx)
    43ca:	8b 46 04             	mov    0x4(%esi),%eax
    43cd:	89 43 04             	mov    %eax,0x4(%ebx)
    43d0:	8b 46 08             	mov    0x8(%esi),%eax
    43d3:	89 43 08             	mov    %eax,0x8(%ebx)
    43d6:	8b 46 0c             	mov    0xc(%esi),%eax
    43d9:	89 43 0c             	mov    %eax,0xc(%ebx)
    43dc:	8b 46 10             	mov    0x10(%esi),%eax
    43df:	89 43 10             	mov    %eax,0x10(%ebx)
    43e2:	8b 46 14             	mov    0x14(%esi),%eax
    43e5:	89 43 14             	mov    %eax,0x14(%ebx)
    43e8:	8b 06                	mov    (%esi),%eax
    43ea:	8b 7e 0c             	mov    0xc(%esi),%edi
    43ed:	89 04 24             	mov    %eax,(%esp)
    43f0:	e8 4b 08 00 00       	call   4c40 <seq_no_control_len>
    43f5:	c7 44 24 04 01 00 00 	movl   $0x1,0x4(%esp)
    43fc:	00 
    43fd:	29 c7                	sub    %eax,%edi
    43ff:	89 3c 24             	mov    %edi,(%esp)
    4402:	e8 39 19 01 00       	call   15d40 <calloc>
    4407:	89 43 18             	mov    %eax,0x18(%ebx)
    440a:	85 c0                	test   %eax,%eax
    440c:	74 2a                	je     4438 <tcp_segment_dup+0x98>
    440e:	89 7c 24 08          	mov    %edi,0x8(%esp)
    4412:	8b 56 18             	mov    0x18(%esi),%edx
    4415:	89 04 24             	mov    %eax,(%esp)
    4418:	89 54 24 04          	mov    %edx,0x4(%esp)
    441c:	e8 df 73 00 00       	call   b800 <memcpy>
    4421:	8b 43 18             	mov    0x18(%ebx),%eax
    4424:	89 43 1c             	mov    %eax,0x1c(%ebx)
    4427:	83 c4 1c             	add    $0x1c,%esp
    442a:	89 d8                	mov    %ebx,%eax
    442c:	5b                   	pop    %ebx
    442d:	5e                   	pop    %esi
    442e:	5f                   	pop    %edi
    442f:	5d                   	pop    %ebp
    4430:	c3                   	ret    
    4431:	8d b4 26 00 00 00 00 	lea    0x0(%esi,%eiz,1),%esi
    4438:	89 1c 24             	mov    %ebx,(%esp)
    443b:	31 db                	xor    %ebx,%ebx
    443d:	e8 6e 1a 01 00       	call   15eb0 <free>
    4442:	eb e3                	jmp    4427 <tcp_segment_dup+0x87>
    4444:	8d b6 00 00 00 00    	lea    0x0(%esi),%esi
    444a:	8d bf 00 00 00 00    	lea    0x0(%edi),%edi

00004450 <tcp_segment_make_ctrl>:
    4450:	55                   	push   %ebp
    4451:	89 e5                	mov    %esp,%ebp
    4453:	56                   	push   %esi
    4454:	53                   	push   %ebx
    4455:	83 ec 10             	sub    $0x10,%esp
    4458:	8b 75 08             	mov    0x8(%ebp),%esi
    445b:	c7 44 24 04 20 00 00 	movl   $0x20,0x4(%esp)
    4462:	00 
    4463:	c7 04 24 01 00 00 00 	movl   $0x1,(%esp)
    446a:	e8 d1 18 01 00       	call   15d40 <calloc>
    446f:	89 c3                	mov    %eax,%ebx
    4471:	85 c0                	test   %eax,%eax
    4473:	74 0d                	je     4482 <tcp_segment_make_ctrl+0x32>
    4475:	89 30                	mov    %esi,(%eax)
    4477:	89 34 24             	mov    %esi,(%esp)
    447a:	e8 c1 07 00 00       	call   4c40 <seq_no_control_len>
    447f:	89 43 0c             	mov    %eax,0xc(%ebx)
    4482:	83 c4 10             	add    $0x10,%esp
    4485:	89 d8                	mov    %ebx,%eax
    4487:	5b                   	pop    %ebx
    4488:	5e                   	pop    %esi
    4489:	5d                   	pop    %ebp
    448a:	c3                   	ret    
    448b:	90                   	nop
    448c:	8d 74 26 00          	lea    0x0(%esi,%eiz,1),%esi

00004490 <tcp_segment_make_rst>:
    4490:	55                   	push   %ebp
    4491:	89 e5                	mov    %esp,%ebp
    4493:	53                   	push   %ebx
    4494:	83 ec 14             	sub    $0x14,%esp
    4497:	8b 5d 08             	mov    0x8(%ebp),%ebx
    449a:	c7 44 24 04 20 00 00 	movl   $0x20,0x4(%esp)
    44a1:	00 
    44a2:	c7 04 24 01 00 00 00 	movl   $0x1,(%esp)
    44a9:	e8 92 18 01 00       	call   15d40 <calloc>
    44ae:	85 c0                	test   %eax,%eax
    44b0:	74 1d                	je     44cf <tcp_segment_make_rst+0x3f>
    44b2:	f6 03 08             	testb  $0x8,(%ebx)
    44b5:	75 21                	jne    44d8 <tcp_segment_make_rst+0x48>
    44b7:	c7 40 04 00 00 00 00 	movl   $0x0,0x4(%eax)
    44be:	8b 53 0c             	mov    0xc(%ebx),%edx
    44c1:	8b 4b 04             	mov    0x4(%ebx),%ecx
    44c4:	c7 00 0c 00 00 00    	movl   $0xc,(%eax)
    44ca:	01 ca                	add    %ecx,%edx
    44cc:	89 50 08             	mov    %edx,0x8(%eax)
    44cf:	83 c4 14             	add    $0x14,%esp
    44d2:	5b                   	pop    %ebx
    44d3:	5d                   	pop    %ebp
    44d4:	c3                   	ret    
    44d5:	8d 76 00             	lea    0x0(%esi),%esi
    44d8:	8b 53 08             	mov    0x8(%ebx),%edx
    44db:	c7 00 04 00 00 00    	movl   $0x4,(%eax)
    44e1:	89 50 04             	mov    %edx,0x4(%eax)
    44e4:	83 c4 14             	add    $0x14,%esp
    44e7:	5b                   	pop    %ebx
    44e8:	5d                   	pop    %ebp
    44e9:	c3                   	ret    
    44ea:	8d b6 00 00 00 00    	lea    0x0(%esi),%esi

000044f0 <tcp_segment_make_data>:
    44f0:	55                   	push   %ebp
    44f1:	89 e5                	mov    %esp,%ebp
    44f3:	57                   	push   %edi
    44f4:	56                   	push   %esi
    44f5:	53                   	push   %ebx
    44f6:	83 ec 1c             	sub    $0x1c,%esp
    44f9:	8b 7d 08             	mov    0x8(%ebp),%edi
    44fc:	8b 75 10             	mov    0x10(%ebp),%esi
    44ff:	c7 44 24 04 20 00 00 	movl   $0x20,0x4(%esp)
    4506:	00 
    4507:	c7 04 24 01 00 00 00 	movl   $0x1,(%esp)
    450e:	e8 2d 18 01 00       	call   15d40 <calloc>
    4513:	89 c3                	mov    %eax,%ebx
    4515:	85 c0                	test   %eax,%eax
    4517:	74 34                	je     454d <tcp_segment_make_data+0x5d>
    4519:	89 38                	mov    %edi,(%eax)
    451b:	89 3c 24             	mov    %edi,(%esp)
    451e:	e8 1d 07 00 00       	call   4c40 <seq_no_control_len>
    4523:	01 f0                	add    %esi,%eax
    4525:	89 43 0c             	mov    %eax,0xc(%ebx)
    4528:	89 34 24             	mov    %esi,(%esp)
    452b:	e8 70 18 01 00       	call   15da0 <malloc>
    4530:	89 43 18             	mov    %eax,0x18(%ebx)
    4533:	89 43 1c             	mov    %eax,0x1c(%ebx)
    4536:	85 c0                	test   %eax,%eax
    4538:	74 1e                	je     4558 <tcp_segment_make_data+0x68>
    453a:	8b 55 0c             	mov    0xc(%ebp),%edx
    453d:	89 74 24 08          	mov    %esi,0x8(%esp)
    4541:	89 54 24 04          	mov    %edx,0x4(%esp)
    4545:	89 04 24             	mov    %eax,(%esp)
    4548:	e8 b3 72 00 00       	call   b800 <memcpy>
    454d:	83 c4 1c             	add    $0x1c,%esp
    4550:	89 d8                	mov    %ebx,%eax
    4552:	5b                   	pop    %ebx
    4553:	5e                   	pop    %esi
    4554:	5f                   	pop    %edi
    4555:	5d                   	pop    %ebp
    4556:	c3                   	ret    
    4557:	90                   	nop
    4558:	89 1c 24             	mov    %ebx,(%esp)
    455b:	31 db                	xor    %ebx,%ebx
    455d:	e8 4e 19 01 00       	call   15eb0 <free>
    4562:	eb e9                	jmp    454d <tcp_segment_make_data+0x5d>
    4564:	8d b6 00 00 00 00    	lea    0x0(%esi),%esi
    456a:	8d bf 00 00 00 00    	lea    0x0(%edi),%edi

00004570 <tcp_segment_trim>:
    4570:	55                   	push   %ebp
    4571:	89 e5                	mov    %esp,%ebp
    4573:	57                   	push   %edi
    4574:	56                   	push   %esi
    4575:	53                   	push   %ebx
    4576:	83 ec 2c             	sub    $0x2c,%esp
    4579:	8b 5d 08             	mov    0x8(%ebp),%ebx
    457c:	8b 75 0c             	mov    0xc(%ebp),%esi
    457f:	8b 7d 10             	mov    0x10(%ebp),%edi
    4582:	8b 53 0c             	mov    0xc(%ebx),%edx
    4585:	8d 04 37             	lea    (%edi,%esi,1),%eax
    4588:	39 d0                	cmp    %edx,%eax
    458a:	0f 87 af 00 00 00    	ja     463f <tcp_segment_trim+0xcf>
    4590:	39 d6                	cmp    %edx,%esi
    4592:	0f 84 90 00 00 00    	je     4628 <tcp_segment_trim+0xb8>
    4598:	39 d7                	cmp    %edx,%edi
    459a:	74 54                	je     45f0 <tcp_segment_trim+0x80>
    459c:	8b 03                	mov    (%ebx),%eax
    459e:	89 55 e4             	mov    %edx,-0x1c(%ebp)
    45a1:	89 04 24             	mov    %eax,(%esp)
    45a4:	e8 97 06 00 00       	call   4c40 <seq_no_control_len>
    45a9:	85 f6                	test   %esi,%esi
    45ab:	8b 55 e4             	mov    -0x1c(%ebp),%edx
    45ae:	74 07                	je     45b7 <tcp_segment_trim+0x47>
    45b0:	8b 0b                	mov    (%ebx),%ecx
    45b2:	f6 c1 01             	test   $0x1,%cl
    45b5:	75 59                	jne    4610 <tcp_segment_trim+0xa0>
    45b7:	85 ff                	test   %edi,%edi
    45b9:	74 07                	je     45c2 <tcp_segment_trim+0x52>
    45bb:	8b 0b                	mov    (%ebx),%ecx
    45bd:	f6 c1 02             	test   $0x2,%cl
    45c0:	75 3e                	jne    4600 <tcp_segment_trim+0x90>
    45c2:	89 f9                	mov    %edi,%ecx
    45c4:	09 f1                	or     %esi,%ecx
    45c6:	74 2f                	je     45f7 <tcp_segment_trim+0x87>
    45c8:	01 f7                	add    %esi,%edi
    45ca:	29 c2                	sub    %eax,%edx
    45cc:	39 d7                	cmp    %edx,%edi
    45ce:	0f 87 87 00 00 00    	ja     465b <tcp_segment_trim+0xeb>
    45d4:	8b 43 18             	mov    0x18(%ebx),%eax
    45d7:	01 f0                	add    %esi,%eax
    45d9:	89 43 18             	mov    %eax,0x18(%ebx)
    45dc:	8b 43 0c             	mov    0xc(%ebx),%eax
    45df:	29 f8                	sub    %edi,%eax
    45e1:	89 43 0c             	mov    %eax,0xc(%ebx)
    45e4:	83 c4 2c             	add    $0x2c,%esp
    45e7:	5b                   	pop    %ebx
    45e8:	5e                   	pop    %esi
    45e9:	5f                   	pop    %edi
    45ea:	5d                   	pop    %ebp
    45eb:	c3                   	ret    
    45ec:	8d 74 26 00          	lea    0x0(%esi,%eiz,1),%esi
    45f0:	c7 43 0c 00 00 00 00 	movl   $0x0,0xc(%ebx)
    45f7:	83 c4 2c             	add    $0x2c,%esp
    45fa:	5b                   	pop    %ebx
    45fb:	5e                   	pop    %esi
    45fc:	5f                   	pop    %edi
    45fd:	5d                   	pop    %ebp
    45fe:	c3                   	ret    
    45ff:	90                   	nop
    4600:	83 e1 fd             	and    $0xfffffffd,%ecx
    4603:	4f                   	dec    %edi
    4604:	89 0b                	mov    %ecx,(%ebx)
    4606:	8b 4b 0c             	mov    0xc(%ebx),%ecx
    4609:	49                   	dec    %ecx
    460a:	89 4b 0c             	mov    %ecx,0xc(%ebx)
    460d:	eb b3                	jmp    45c2 <tcp_segment_trim+0x52>
    460f:	90                   	nop
    4610:	83 e1 fe             	and    $0xfffffffe,%ecx
    4613:	4e                   	dec    %esi
    4614:	89 0b                	mov    %ecx,(%ebx)
    4616:	8b 4b 04             	mov    0x4(%ebx),%ecx
    4619:	41                   	inc    %ecx
    461a:	89 4b 04             	mov    %ecx,0x4(%ebx)
    461d:	8b 4b 0c             	mov    0xc(%ebx),%ecx
    4620:	49                   	dec    %ecx
    4621:	89 4b 0c             	mov    %ecx,0xc(%ebx)
    4624:	eb 91                	jmp    45b7 <tcp_segment_trim+0x47>
    4626:	66 90                	xchg   %ax,%ax
    4628:	8b 7b 04             	mov    0x4(%ebx),%edi
    462b:	c7 43 0c 00 00 00 00 	movl   $0x0,0xc(%ebx)
    4632:	01 f7                	add    %esi,%edi
    4634:	89 7b 04             	mov    %edi,0x4(%ebx)
    4637:	83 c4 2c             	add    $0x2c,%esp
    463a:	5b                   	pop    %ebx
    463b:	5e                   	pop    %esi
    463c:	5f                   	pop    %edi
    463d:	5d                   	pop    %ebp
    463e:	c3                   	ret    
    463f:	c7 44 24 08 af 00 00 	movl   $0xaf,0x8(%esp)
    4646:	00 
    4647:	c7 44 24 04 ab 9c 02 	movl   $0x29cab,0x4(%esp)
    464e:	00 
    464f:	c7 04 24 b5 9c 02 00 	movl   $0x29cb5,(%esp)
    4656:	e8 75 cb 01 00       	call   211d0 <assert_abort>
    465b:	c7 44 24 08 d3 00 00 	movl   $0xd3,0x8(%esp)
    4662:	00 
    4663:	c7 44 24 04 ab 9c 02 	movl   $0x29cab,0x4(%esp)
    466a:	00 
    466b:	c7 04 24 ce 9c 02 00 	movl   $0x29cce,(%esp)
    4672:	e8 59 cb 01 00       	call   211d0 <assert_abort>
    4677:	89 f6                	mov    %esi,%esi
    4679:	8d bc 27 00 00 00 00 	lea    0x0(%edi,%eiz,1),%edi

00004680 <tcp_segment_text_copy>:
    4680:	55                   	push   %ebp
    4681:	89 e5                	mov    %esp,%ebp
    4683:	57                   	push   %edi
    4684:	56                   	push   %esi
    4685:	53                   	push   %ebx
    4686:	83 ec 2c             	sub    $0x2c,%esp
    4689:	8b 5d 08             	mov    0x8(%ebp),%ebx
    468c:	8b 45 0c             	mov    0xc(%ebp),%eax
    468f:	89 45 e4             	mov    %eax,-0x1c(%ebp)
    4692:	8b 7d 10             	mov    0x10(%ebp),%edi
    4695:	8b 03                	mov    (%ebx),%eax
    4697:	8b 73 0c             	mov    0xc(%ebx),%esi
    469a:	89 04 24             	mov    %eax,(%esp)
    469d:	e8 9e 05 00 00       	call   4c40 <seq_no_control_len>
    46a2:	29 c6                	sub    %eax,%esi
    46a4:	39 f7                	cmp    %esi,%edi
    46a6:	77 1b                	ja     46c3 <tcp_segment_text_copy+0x43>
    46a8:	89 7d 10             	mov    %edi,0x10(%ebp)
    46ab:	8b 43 18             	mov    0x18(%ebx),%eax
    46ae:	89 45 0c             	mov    %eax,0xc(%ebp)
    46b1:	8b 45 e4             	mov    -0x1c(%ebp),%eax
    46b4:	89 45 08             	mov    %eax,0x8(%ebp)
    46b7:	83 c4 2c             	add    $0x2c,%esp
    46ba:	5b                   	pop    %ebx
    46bb:	5e                   	pop    %esi
    46bc:	5f                   	pop    %edi
    46bd:	5d                   	pop    %ebp
    46be:	e9 3d 71 00 00       	jmp    b800 <memcpy>
    46c3:	c7 44 24 08 e6 00 00 	movl   $0xe6,0x8(%esp)
    46ca:	00 
    46cb:	c7 44 24 04 ab 9c 02 	movl   $0x29cab,0x4(%esp)
    46d2:	00 
    46d3:	c7 04 24 3c 9d 02 00 	movl   $0x29d3c,(%esp)
    46da:	e8 f1 ca 01 00       	call   211d0 <assert_abort>
    46df:	90                   	nop

000046e0 <tcp_segment_text_size>:
    46e0:	55                   	push   %ebp
    46e1:	89 e5                	mov    %esp,%ebp
    46e3:	53                   	push   %ebx
    46e4:	83 ec 14             	sub    $0x14,%esp
    46e7:	8b 55 08             	mov    0x8(%ebp),%edx
    46ea:	8b 02                	mov    (%edx),%eax
    46ec:	8b 5a 0c             	mov    0xc(%edx),%ebx
    46ef:	89 04 24             	mov    %eax,(%esp)
    46f2:	e8 49 05 00 00       	call   4c40 <seq_no_control_len>
    46f7:	83 c4 14             	add    $0x14,%esp
    46fa:	29 c3                	sub    %eax,%ebx
    46fc:	89 d8                	mov    %ebx,%eax
    46fe:	5b                   	pop    %ebx
    46ff:	5d                   	pop    %ebp
    4700:	c3                   	ret    
    4701:	eb 0d                	jmp    4710 <tcp_segment_dump>
    4703:	90                   	nop
    4704:	90                   	nop
    4705:	90                   	nop
    4706:	90                   	nop
    4707:	90                   	nop
    4708:	90                   	nop
    4709:	90                   	nop
    470a:	90                   	nop
    470b:	90                   	nop
    470c:	90                   	nop
    470d:	90                   	nop
    470e:	90                   	nop
    470f:	90                   	nop

00004710 <tcp_segment_dump>:
    4710:	55                   	push   %ebp
    4711:	89 e5                	mov    %esp,%ebp
    4713:	53                   	push   %ebx
    4714:	83 ec 14             	sub    $0x14,%esp
    4717:	8b 5d 08             	mov    0x8(%ebp),%ebx
    471a:	c7 44 24 08 e5 9c 02 	movl   $0x29ce5,0x8(%esp)
    4721:	00 
    4722:	c7 44 24 04 05 00 00 	movl   $0x5,0x4(%esp)
    4729:	00 
    472a:	c7 04 24 ff ff ff ff 	movl   $0xffffffff,(%esp)
    4731:	e8 fa c5 00 00       	call   10d30 <log_msg>
    4736:	8b 03                	mov    (%ebx),%eax
    4738:	89 44 24 0c          	mov    %eax,0xc(%esp)
    473c:	c7 44 24 08 f3 9c 02 	movl   $0x29cf3,0x8(%esp)
    4743:	00 
    4744:	c7 44 24 04 05 00 00 	movl   $0x5,0x4(%esp)
    474b:	00 
    474c:	c7 04 24 ff ff ff ff 	movl   $0xffffffff,(%esp)
    4753:	e8 d8 c5 00 00       	call   10d30 <log_msg>
    4758:	8b 43 04             	mov    0x4(%ebx),%eax
    475b:	89 44 24 0c          	mov    %eax,0xc(%esp)
    475f:	c7 44 24 08 00 9d 02 	movl   $0x29d00,0x8(%esp)
    4766:	00 
    4767:	c7 44 24 04 05 00 00 	movl   $0x5,0x4(%esp)
    476e:	00 
    476f:	c7 04 24 ff ff ff ff 	movl   $0xffffffff,(%esp)
    4776:	e8 b5 c5 00 00       	call   10d30 <log_msg>
    477b:	8b 43 08             	mov    0x8(%ebx),%eax
    477e:	89 44 24 0c          	mov    %eax,0xc(%esp)
    4782:	c7 44 24 08 0c 9d 02 	movl   $0x29d0c,0x8(%esp)
    4789:	00 
    478a:	c7 44 24 04 05 00 00 	movl   $0x5,0x4(%esp)
    4791:	00 
    4792:	c7 04 24 ff ff ff ff 	movl   $0xffffffff,(%esp)
    4799:	e8 92 c5 00 00       	call   10d30 <log_msg>
    479e:	8b 43 0c             	mov    0xc(%ebx),%eax
    47a1:	89 44 24 0c          	mov    %eax,0xc(%esp)
    47a5:	c7 44 24 08 18 9d 02 	movl   $0x29d18,0x8(%esp)
    47ac:	00 
    47ad:	c7 44 24 04 05 00 00 	movl   $0x5,0x4(%esp)
    47b4:	00 
    47b5:	c7 04 24 ff ff ff ff 	movl   $0xffffffff,(%esp)
    47bc:	e8 6f c5 00 00       	call   10d30 <log_msg>
    47c1:	8b 43 10             	mov    0x10(%ebx),%eax
    47c4:	89 44 24 0c          	mov    %eax,0xc(%esp)
    47c8:	c7 44 24 08 24 9d 02 	movl   $0x29d24,0x8(%esp)
    47cf:	00 
    47d0:	c7 44 24 04 05 00 00 	movl   $0x5,0x4(%esp)
    47d7:	00 
    47d8:	c7 04 24 ff ff ff ff 	movl   $0xffffffff,(%esp)
    47df:	e8 4c c5 00 00       	call   10d30 <log_msg>
    47e4:	8b 43 14             	mov    0x14(%ebx),%eax
    47e7:	89 44 24 0c          	mov    %eax,0xc(%esp)
    47eb:	c7 44 24 08 30 9d 02 	movl   $0x29d30,0x8(%esp)
    47f2:	00 
    47f3:	c7 44 24 04 05 00 00 	movl   $0x5,0x4(%esp)
    47fa:	00 
    47fb:	c7 04 24 ff ff ff ff 	movl   $0xffffffff,(%esp)
    4802:	e8 29 c5 00 00       	call   10d30 <log_msg>
    4807:	83 c4 14             	add    $0x14,%esp
    480a:	5b                   	pop    %ebx
    480b:	5d                   	pop    %ebp
    480c:	c3                   	ret    
    480d:	66 90                	xchg   %ax,%ax
    480f:	90                   	nop

00004810 <seq_no_ack_acceptable>:
    4810:	55                   	push   %ebp
    4811:	89 e5                	mov    %esp,%ebp
    4813:	53                   	push   %ebx
    4814:	8b 45 08             	mov    0x8(%ebp),%eax
    4817:	8b 55 0c             	mov    0xc(%ebp),%edx
    481a:	8b 88 a4 00 00 00    	mov    0xa4(%eax),%ecx
    4820:	8b 98 a0 00 00 00    	mov    0xa0(%eax),%ebx
    4826:	39 d9                	cmp    %ebx,%ecx
    4828:	73 16                	jae    4840 <seq_no_ack_acceptable+0x30>
    482a:	39 d3                	cmp    %edx,%ebx
    482c:	5b                   	pop    %ebx
    482d:	0f 92 c0             	setb   %al
    4830:	39 d1                	cmp    %edx,%ecx
    4832:	5d                   	pop    %ebp
    4833:	0f 93 c2             	setae  %dl
    4836:	09 d0                	or     %edx,%eax
    4838:	c3                   	ret    
    4839:	8d b4 26 00 00 00 00 	lea    0x0(%esi,%eiz,1),%esi
    4840:	39 d1                	cmp    %edx,%ecx
    4842:	0f 93 c0             	setae  %al
    4845:	39 d3                	cmp    %edx,%ebx
    4847:	5b                   	pop    %ebx
    4848:	0f 92 c2             	setb   %dl
    484b:	21 d0                	and    %edx,%eax
    484d:	5d                   	pop    %ebp
    484e:	c3                   	ret    
    484f:	90                   	nop

00004850 <seq_no_ack_duplicate>:
    4850:	55                   	push   %ebp
    4851:	89 e5                	mov    %esp,%ebp
    4853:	8b 55 08             	mov    0x8(%ebp),%edx
    4856:	8b 45 0c             	mov    0xc(%ebp),%eax
    4859:	5d                   	pop    %ebp
    485a:	8b 8a a0 00 00 00    	mov    0xa0(%edx),%ecx
    4860:	29 c8                	sub    %ecx,%eax
    4862:	85 c0                	test   %eax,%eax
    4864:	0f 9e c0             	setle  %al
    4867:	c3                   	ret    
    4868:	90                   	nop
    4869:	8d b4 26 00 00 00 00 	lea    0x0(%esi,%eiz,1),%esi

00004870 <seq_no_in_rcv_wnd>:
    4870:	55                   	push   %ebp
    4871:	89 e5                	mov    %esp,%ebp
    4873:	53                   	push   %ebx
    4874:	8b 45 08             	mov    0x8(%ebp),%eax
    4877:	8b 4d 0c             	mov    0xc(%ebp),%ecx
    487a:	8b 90 bc 00 00 00    	mov    0xbc(%eax),%edx
    4880:	89 d3                	mov    %edx,%ebx
    4882:	03 98 c0 00 00 00    	add    0xc0(%eax),%ebx
    4888:	73 16                	jae    48a0 <seq_no_in_rcv_wnd+0x30>
    488a:	39 ca                	cmp    %ecx,%edx
    488c:	0f 96 c0             	setbe  %al
    488f:	39 cb                	cmp    %ecx,%ebx
    4891:	5b                   	pop    %ebx
    4892:	0f 97 c2             	seta   %dl
    4895:	09 d0                	or     %edx,%eax
    4897:	5d                   	pop    %ebp
    4898:	c3                   	ret    
    4899:	8d b4 26 00 00 00 00 	lea    0x0(%esi,%eiz,1),%esi
    48a0:	39 cb                	cmp    %ecx,%ebx
    48a2:	5b                   	pop    %ebx
    48a3:	0f 97 c0             	seta   %al
    48a6:	39 ca                	cmp    %ecx,%edx
    48a8:	5d                   	pop    %ebp
    48a9:	0f 96 c2             	setbe  %dl
    48ac:	21 d0                	and    %edx,%eax
    48ae:	c3                   	ret    
    48af:	90                   	nop

000048b0 <seq_no_new_wnd_update>:
    48b0:	55                   	push   %ebp
    48b1:	89 e5                	mov    %esp,%ebp
    48b3:	57                   	push   %edi
    48b4:	56                   	push   %esi
    48b5:	53                   	push   %ebx
    48b6:	83 ec 2c             	sub    $0x2c,%esp
    48b9:	8b 4d 08             	mov    0x8(%ebp),%ecx
    48bc:	8b 5d 0c             	mov    0xc(%ebp),%ebx
    48bf:	8b 81 c0 00 00 00    	mov    0xc0(%ecx),%eax
    48c5:	8b b9 bc 00 00 00    	mov    0xbc(%ecx),%edi
    48cb:	89 45 e0             	mov    %eax,-0x20(%ebp)
    48ce:	01 f8                	add    %edi,%eax
    48d0:	8b 53 04             	mov    0x4(%ebx),%edx
    48d3:	89 45 e4             	mov    %eax,-0x1c(%ebp)
    48d6:	0f 82 84 00 00 00    	jb     4960 <seq_no_new_wnd_update+0xb0>
    48dc:	39 d0                	cmp    %edx,%eax
    48de:	0f 97 c0             	seta   %al
    48e1:	39 d7                	cmp    %edx,%edi
    48e3:	0f 96 c3             	setbe  %bl
    48e6:	21 d8                	and    %ebx,%eax
    48e8:	8b 5d 0c             	mov    0xc(%ebp),%ebx
    48eb:	8b 73 0c             	mov    0xc(%ebx),%esi
    48ee:	8d 5c 16 ff          	lea    -0x1(%esi,%edx,1),%ebx
    48f2:	39 5d e4             	cmp    %ebx,-0x1c(%ebp)
    48f5:	0f 97 45 db          	seta   -0x25(%ebp)
    48f9:	39 df                	cmp    %ebx,%edi
    48fb:	0f 96 c3             	setbe  %bl
    48fe:	20 5d db             	and    %bl,-0x25(%ebp)
    4901:	85 f6                	test   %esi,%esi
    4903:	74 4b                	je     4950 <seq_no_new_wnd_update+0xa0>
    4905:	8b 7d e0             	mov    -0x20(%ebp),%edi
    4908:	85 ff                	test   %edi,%edi
    490a:	0f 84 c1 00 00 00    	je     49d1 <seq_no_new_wnd_update+0x121>
    4910:	0a 45 db             	or     -0x25(%ebp),%al
    4913:	84 c0                	test   %al,%al
    4915:	0f 84 b6 00 00 00    	je     49d1 <seq_no_new_wnd_update+0x121>
    491b:	8b b1 a0 00 00 00    	mov    0xa0(%ecx),%esi
    4921:	8b 99 a8 00 00 00    	mov    0xa8(%ecx),%ebx
    4927:	01 f3                	add    %esi,%ebx
    4929:	8b b1 b0 00 00 00    	mov    0xb0(%ecx),%esi
    492f:	39 d3                	cmp    %edx,%ebx
    4931:	0f 93 45 e4          	setae  -0x1c(%ebp)
    4935:	39 d6                	cmp    %edx,%esi
    4937:	0f 92 c0             	setb   %al
    493a:	39 f3                	cmp    %esi,%ebx
    493c:	73 52                	jae    4990 <seq_no_new_wnd_update+0xe0>
    493e:	08 45 e4             	or     %al,-0x1c(%ebp)
    4941:	39 d6                	cmp    %edx,%esi
    4943:	74 52                	je     4997 <seq_no_new_wnd_update+0xe7>
    4945:	8a 45 e4             	mov    -0x1c(%ebp),%al
    4948:	83 c4 2c             	add    $0x2c,%esp
    494b:	5b                   	pop    %ebx
    494c:	5e                   	pop    %esi
    494d:	5f                   	pop    %edi
    494e:	5d                   	pop    %ebp
    494f:	c3                   	ret    
    4950:	8b 5d e0             	mov    -0x20(%ebp),%ebx
    4953:	85 db                	test   %ebx,%ebx
    4955:	75 bc                	jne    4913 <seq_no_new_wnd_update+0x63>
    4957:	39 d7                	cmp    %edx,%edi
    4959:	0f 94 c0             	sete   %al
    495c:	eb b5                	jmp    4913 <seq_no_new_wnd_update+0x63>
    495e:	66 90                	xchg   %ax,%ax
    4960:	39 55 e4             	cmp    %edx,-0x1c(%ebp)
    4963:	0f 97 c0             	seta   %al
    4966:	39 d7                	cmp    %edx,%edi
    4968:	0f 96 c3             	setbe  %bl
    496b:	09 d8                	or     %ebx,%eax
    496d:	8b 5d 0c             	mov    0xc(%ebp),%ebx
    4970:	8b 73 0c             	mov    0xc(%ebx),%esi
    4973:	8d 5c 16 ff          	lea    -0x1(%esi,%edx,1),%ebx
    4977:	39 df                	cmp    %ebx,%edi
    4979:	0f 96 45 db          	setbe  -0x25(%ebp)
    497d:	39 5d e4             	cmp    %ebx,-0x1c(%ebp)
    4980:	0f 97 c3             	seta   %bl
    4983:	08 5d db             	or     %bl,-0x25(%ebp)
    4986:	e9 76 ff ff ff       	jmp    4901 <seq_no_new_wnd_update+0x51>
    498b:	90                   	nop
    498c:	8d 74 26 00          	lea    0x0(%esi,%eiz,1),%esi
    4990:	20 45 e4             	and    %al,-0x1c(%ebp)
    4993:	39 d6                	cmp    %edx,%esi
    4995:	75 ae                	jne    4945 <seq_no_new_wnd_update+0x95>
    4997:	8b 45 0c             	mov    0xc(%ebp),%eax
    499a:	43                   	inc    %ebx
    499b:	8b 89 b4 00 00 00    	mov    0xb4(%ecx),%ecx
    49a1:	8b 70 08             	mov    0x8(%eax),%esi
    49a4:	39 f3                	cmp    %esi,%ebx
    49a6:	0f 97 c2             	seta   %dl
    49a9:	39 cb                	cmp    %ecx,%ebx
    49ab:	73 1b                	jae    49c8 <seq_no_new_wnd_update+0x118>
    49ad:	39 ce                	cmp    %ecx,%esi
    49af:	0f 93 c1             	setae  %cl
    49b2:	09 ca                	or     %ecx,%edx
    49b4:	84 d2                	test   %dl,%dl
    49b6:	74 8d                	je     4945 <seq_no_new_wnd_update+0x95>
    49b8:	c6 45 e4 01          	movb   $0x1,-0x1c(%ebp)
    49bc:	8a 45 e4             	mov    -0x1c(%ebp),%al
    49bf:	83 c4 2c             	add    $0x2c,%esp
    49c2:	5b                   	pop    %ebx
    49c3:	5e                   	pop    %esi
    49c4:	5f                   	pop    %edi
    49c5:	5d                   	pop    %ebp
    49c6:	c3                   	ret    
    49c7:	90                   	nop
    49c8:	39 ce                	cmp    %ecx,%esi
    49ca:	0f 93 c1             	setae  %cl
    49cd:	21 ca                	and    %ecx,%edx
    49cf:	eb e3                	jmp    49b4 <seq_no_new_wnd_update+0x104>
    49d1:	c7 44 24 08 69 00 00 	movl   $0x69,0x8(%esp)
    49d8:	00 
    49d9:	c7 44 24 04 5f 9d 02 	movl   $0x29d5f,0x4(%esp)
    49e0:	00 
    49e1:	c7 04 24 88 9d 02 00 	movl   $0x29d88,(%esp)
    49e8:	e8 e3 c7 01 00       	call   211d0 <assert_abort>
    49ed:	8d 76 00             	lea    0x0(%esi),%esi

000049f0 <seq_no_segment_ready>:
    49f0:	55                   	push   %ebp
    49f1:	89 e5                	mov    %esp,%ebp
    49f3:	57                   	push   %edi
    49f4:	56                   	push   %esi
    49f5:	53                   	push   %ebx
    49f6:	83 ec 2c             	sub    $0x2c,%esp
    49f9:	8b 45 08             	mov    0x8(%ebp),%eax
    49fc:	8b 7d 0c             	mov    0xc(%ebp),%edi
    49ff:	8b 90 bc 00 00 00    	mov    0xbc(%eax),%edx
    4a05:	8b 80 c0 00 00 00    	mov    0xc0(%eax),%eax
    4a0b:	89 45 e0             	mov    %eax,-0x20(%ebp)
    4a0e:	01 d0                	add    %edx,%eax
    4a10:	8b 4f 04             	mov    0x4(%edi),%ecx
    4a13:	89 45 e4             	mov    %eax,-0x1c(%ebp)
    4a16:	72 68                	jb     4a80 <seq_no_segment_ready+0x90>
    4a18:	39 c8                	cmp    %ecx,%eax
    4a1a:	0f 97 c0             	seta   %al
    4a1d:	39 ca                	cmp    %ecx,%edx
    4a1f:	0f 96 c3             	setbe  %bl
    4a22:	89 de                	mov    %ebx,%esi
    4a24:	21 f0                	and    %esi,%eax
    4a26:	8b 77 0c             	mov    0xc(%edi),%esi
    4a29:	8d 3c 0e             	lea    (%esi,%ecx,1),%edi
    4a2c:	8d 5f ff             	lea    -0x1(%edi),%ebx
    4a2f:	39 5d e4             	cmp    %ebx,-0x1c(%ebp)
    4a32:	0f 97 45 db          	seta   -0x25(%ebp)
    4a36:	39 da                	cmp    %ebx,%edx
    4a38:	0f 96 c3             	setbe  %bl
    4a3b:	20 5d db             	and    %bl,-0x25(%ebp)
    4a3e:	85 f6                	test   %esi,%esi
    4a40:	74 2e                	je     4a70 <seq_no_segment_ready+0x80>
    4a42:	8b 75 e0             	mov    -0x20(%ebp),%esi
    4a45:	85 f6                	test   %esi,%esi
    4a47:	74 7b                	je     4ac4 <seq_no_segment_ready+0xd4>
    4a49:	0a 45 db             	or     -0x25(%ebp),%al
    4a4c:	84 c0                	test   %al,%al
    4a4e:	74 74                	je     4ac4 <seq_no_segment_ready+0xd4>
    4a50:	8d 47 01             	lea    0x1(%edi),%eax
    4a53:	39 c8                	cmp    %ecx,%eax
    4a55:	73 59                	jae    4ab0 <seq_no_segment_ready+0xc0>
    4a57:	39 d0                	cmp    %edx,%eax
    4a59:	0f 97 c0             	seta   %al
    4a5c:	39 ca                	cmp    %ecx,%edx
    4a5e:	0f 93 c2             	setae  %dl
    4a61:	83 c4 2c             	add    $0x2c,%esp
    4a64:	09 d0                	or     %edx,%eax
    4a66:	5b                   	pop    %ebx
    4a67:	5e                   	pop    %esi
    4a68:	5f                   	pop    %edi
    4a69:	5d                   	pop    %ebp
    4a6a:	c3                   	ret    
    4a6b:	90                   	nop
    4a6c:	8d 74 26 00          	lea    0x0(%esi,%eiz,1),%esi
    4a70:	8b 5d e0             	mov    -0x20(%ebp),%ebx
    4a73:	85 db                	test   %ebx,%ebx
    4a75:	75 d5                	jne    4a4c <seq_no_segment_ready+0x5c>
    4a77:	39 ca                	cmp    %ecx,%edx
    4a79:	0f 94 c0             	sete   %al
    4a7c:	eb ce                	jmp    4a4c <seq_no_segment_ready+0x5c>
    4a7e:	66 90                	xchg   %ax,%ax
    4a80:	39 4d e4             	cmp    %ecx,-0x1c(%ebp)
    4a83:	0f 97 c0             	seta   %al
    4a86:	39 ca                	cmp    %ecx,%edx
    4a88:	0f 96 c3             	setbe  %bl
    4a8b:	89 de                	mov    %ebx,%esi
    4a8d:	09 f0                	or     %esi,%eax
    4a8f:	8b 77 0c             	mov    0xc(%edi),%esi
    4a92:	8d 3c 31             	lea    (%ecx,%esi,1),%edi
    4a95:	8d 5f ff             	lea    -0x1(%edi),%ebx
    4a98:	39 da                	cmp    %ebx,%edx
    4a9a:	0f 96 45 db          	setbe  -0x25(%ebp)
    4a9e:	39 5d e4             	cmp    %ebx,-0x1c(%ebp)
    4aa1:	0f 97 c3             	seta   %bl
    4aa4:	08 5d db             	or     %bl,-0x25(%ebp)
    4aa7:	eb 95                	jmp    4a3e <seq_no_segment_ready+0x4e>
    4aa9:	8d b4 26 00 00 00 00 	lea    0x0(%esi,%eiz,1),%esi
    4ab0:	39 d0                	cmp    %edx,%eax
    4ab2:	0f 97 c0             	seta   %al
    4ab5:	39 ca                	cmp    %ecx,%edx
    4ab7:	0f 93 c2             	setae  %dl
    4aba:	83 c4 2c             	add    $0x2c,%esp
    4abd:	21 d0                	and    %edx,%eax
    4abf:	5b                   	pop    %ebx
    4ac0:	5e                   	pop    %esi
    4ac1:	5f                   	pop    %edi
    4ac2:	5d                   	pop    %ebp
    4ac3:	c3                   	ret    
    4ac4:	c7 44 24 08 83 00 00 	movl   $0x83,0x8(%esp)
    4acb:	00 
    4acc:	c7 44 24 04 5f 9d 02 	movl   $0x29d5f,0x4(%esp)
    4ad3:	00 
    4ad4:	c7 04 24 88 9d 02 00 	movl   $0x29d88,(%esp)
    4adb:	e8 f0 c6 01 00       	call   211d0 <assert_abort>

00004ae0 <seq_no_segment_acked>:
    4ae0:	55                   	push   %ebp
    4ae1:	89 e5                	mov    %esp,%ebp
    4ae3:	83 ec 18             	sub    $0x18,%esp
    4ae6:	8b 55 0c             	mov    0xc(%ebp),%edx
    4ae9:	8b 42 0c             	mov    0xc(%edx),%eax
    4aec:	85 c0                	test   %eax,%eax
    4aee:	74 29                	je     4b19 <seq_no_segment_acked+0x39>
    4af0:	8b 52 04             	mov    0x4(%edx),%edx
    4af3:	8d 0c 02             	lea    (%edx,%eax,1),%ecx
    4af6:	3b 4d 10             	cmp    0x10(%ebp),%ecx
    4af9:	0f 96 c0             	setbe  %al
    4afc:	3b 55 10             	cmp    0x10(%ebp),%edx
    4aff:	76 0f                	jbe    4b10 <seq_no_segment_acked+0x30>
    4b01:	39 ca                	cmp    %ecx,%edx
    4b03:	c9                   	leave  
    4b04:	0f 92 c2             	setb   %dl
    4b07:	09 d0                	or     %edx,%eax
    4b09:	c3                   	ret    
    4b0a:	8d b6 00 00 00 00    	lea    0x0(%esi),%esi
    4b10:	39 ca                	cmp    %ecx,%edx
    4b12:	c9                   	leave  
    4b13:	0f 92 c2             	setb   %dl
    4b16:	21 d0                	and    %edx,%eax
    4b18:	c3                   	ret    
    4b19:	c7 44 24 08 8b 00 00 	movl   $0x8b,0x8(%esp)
    4b20:	00 
    4b21:	c7 44 24 04 5f 9d 02 	movl   $0x29d5f,0x4(%esp)
    4b28:	00 
    4b29:	c7 04 24 68 9d 02 00 	movl   $0x29d68,(%esp)
    4b30:	e8 9b c6 01 00       	call   211d0 <assert_abort>
    4b35:	8d 74 26 00          	lea    0x0(%esi,%eiz,1),%esi
    4b39:	8d bc 27 00 00 00 00 	lea    0x0(%edi,%eiz,1),%edi

00004b40 <seq_no_syn_acked>:
    4b40:	55                   	push   %ebp
    4b41:	89 e5                	mov    %esp,%ebp
    4b43:	53                   	push   %ebx
    4b44:	8b 45 08             	mov    0x8(%ebp),%eax
    4b47:	8b 88 a4 00 00 00    	mov    0xa4(%eax),%ecx
    4b4d:	8b 98 b8 00 00 00    	mov    0xb8(%eax),%ebx
    4b53:	8b 90 a0 00 00 00    	mov    0xa0(%eax),%edx
    4b59:	39 d9                	cmp    %ebx,%ecx
    4b5b:	73 13                	jae    4b70 <seq_no_syn_acked+0x30>
    4b5d:	39 da                	cmp    %ebx,%edx
    4b5f:	5b                   	pop    %ebx
    4b60:	0f 97 c0             	seta   %al
    4b63:	39 d1                	cmp    %edx,%ecx
    4b65:	5d                   	pop    %ebp
    4b66:	0f 93 c2             	setae  %dl
    4b69:	09 d0                	or     %edx,%eax
    4b6b:	c3                   	ret    
    4b6c:	8d 74 26 00          	lea    0x0(%esi,%eiz,1),%esi
    4b70:	39 d1                	cmp    %edx,%ecx
    4b72:	0f 93 c0             	setae  %al
    4b75:	39 da                	cmp    %ebx,%edx
    4b77:	5b                   	pop    %ebx
    4b78:	0f 97 c2             	seta   %dl
    4b7b:	21 d0                	and    %edx,%eax
    4b7d:	5d                   	pop    %ebp
    4b7e:	c3                   	ret    
    4b7f:	90                   	nop

00004b80 <seq_no_segment_acceptable>:
    4b80:	55                   	push   %ebp
    4b81:	89 e5                	mov    %esp,%ebp
    4b83:	57                   	push   %edi
    4b84:	56                   	push   %esi
    4b85:	53                   	push   %ebx
    4b86:	83 ec 0c             	sub    $0xc,%esp
    4b89:	8b 45 08             	mov    0x8(%ebp),%eax
    4b8c:	8b b8 c0 00 00 00    	mov    0xc0(%eax),%edi
    4b92:	8b 90 bc 00 00 00    	mov    0xbc(%eax),%edx
    4b98:	89 fb                	mov    %edi,%ebx
    4b9a:	8b 45 0c             	mov    0xc(%ebp),%eax
    4b9d:	01 d3                	add    %edx,%ebx
    4b9f:	8b 48 04             	mov    0x4(%eax),%ecx
    4ba2:	89 5d f0             	mov    %ebx,-0x10(%ebp)
    4ba5:	72 59                	jb     4c00 <seq_no_segment_acceptable+0x80>
    4ba7:	39 cb                	cmp    %ecx,%ebx
    4ba9:	0f 97 c0             	seta   %al
    4bac:	39 ca                	cmp    %ecx,%edx
    4bae:	0f 96 c3             	setbe  %bl
    4bb1:	89 de                	mov    %ebx,%esi
    4bb3:	8b 5d 0c             	mov    0xc(%ebp),%ebx
    4bb6:	21 f0                	and    %esi,%eax
    4bb8:	8b 73 0c             	mov    0xc(%ebx),%esi
    4bbb:	8d 5c 31 ff          	lea    -0x1(%ecx,%esi,1),%ebx
    4bbf:	39 5d f0             	cmp    %ebx,-0x10(%ebp)
    4bc2:	0f 97 45 eb          	seta   -0x15(%ebp)
    4bc6:	39 da                	cmp    %ebx,%edx
    4bc8:	0f 96 c3             	setbe  %bl
    4bcb:	20 5d eb             	and    %bl,-0x15(%ebp)
    4bce:	85 f6                	test   %esi,%esi
    4bd0:	74 16                	je     4be8 <seq_no_segment_acceptable+0x68>
    4bd2:	85 ff                	test   %edi,%edi
    4bd4:	74 5a                	je     4c30 <seq_no_segment_acceptable+0xb0>
    4bd6:	0a 45 eb             	or     -0x15(%ebp),%al
    4bd9:	83 c4 0c             	add    $0xc,%esp
    4bdc:	5b                   	pop    %ebx
    4bdd:	5e                   	pop    %esi
    4bde:	5f                   	pop    %edi
    4bdf:	5d                   	pop    %ebp
    4be0:	c3                   	ret    
    4be1:	8d b4 26 00 00 00 00 	lea    0x0(%esi,%eiz,1),%esi
    4be8:	85 ff                	test   %edi,%edi
    4bea:	75 ed                	jne    4bd9 <seq_no_segment_acceptable+0x59>
    4bec:	39 ca                	cmp    %ecx,%edx
    4bee:	0f 94 c0             	sete   %al
    4bf1:	83 c4 0c             	add    $0xc,%esp
    4bf4:	5b                   	pop    %ebx
    4bf5:	5e                   	pop    %esi
    4bf6:	5f                   	pop    %edi
    4bf7:	5d                   	pop    %ebp
    4bf8:	c3                   	ret    
    4bf9:	8d b4 26 00 00 00 00 	lea    0x0(%esi,%eiz,1),%esi
    4c00:	39 4d f0             	cmp    %ecx,-0x10(%ebp)
    4c03:	0f 97 c0             	seta   %al
    4c06:	39 ca                	cmp    %ecx,%edx
    4c08:	0f 96 c3             	setbe  %bl
    4c0b:	89 de                	mov    %ebx,%esi
    4c0d:	8b 5d 0c             	mov    0xc(%ebp),%ebx
    4c10:	09 f0                	or     %esi,%eax
    4c12:	8b 73 0c             	mov    0xc(%ebx),%esi
    4c15:	8d 5c 31 ff          	lea    -0x1(%ecx,%esi,1),%ebx
    4c19:	39 da                	cmp    %ebx,%edx
    4c1b:	0f 96 45 eb          	setbe  -0x15(%ebp)
    4c1f:	39 5d f0             	cmp    %ebx,-0x10(%ebp)
    4c22:	0f 97 c3             	seta   %bl
    4c25:	08 5d eb             	or     %bl,-0x15(%ebp)
    4c28:	eb a4                	jmp    4bce <seq_no_segment_acceptable+0x4e>
    4c2a:	8d b6 00 00 00 00    	lea    0x0(%esi),%esi
    4c30:	83 c4 0c             	add    $0xc,%esp
    4c33:	31 c0                	xor    %eax,%eax
    4c35:	5b                   	pop    %ebx
    4c36:	5e                   	pop    %esi
    4c37:	5f                   	pop    %edi
    4c38:	5d                   	pop    %ebp
    4c39:	c3                   	ret    
    4c3a:	8d b6 00 00 00 00    	lea    0x0(%esi),%esi

00004c40 <seq_no_control_len>:
    4c40:	55                   	push   %ebp
    4c41:	89 e5                	mov    %esp,%ebp
    4c43:	8b 55 08             	mov    0x8(%ebp),%edx
    4c46:	5d                   	pop    %ebp
    4c47:	89 d0                	mov    %edx,%eax
    4c49:	83 e2 02             	and    $0x2,%edx
    4c4c:	83 e0 01             	and    $0x1,%eax
    4c4f:	83 fa 01             	cmp    $0x1,%edx
    4c52:	83 d8 ff             	sbb    $0xffffffff,%eax
    4c55:	c3                   	ret    
    4c56:	8d 76 00             	lea    0x0(%esi),%esi
    4c59:	8d bc 27 00 00 00 00 	lea    0x0(%edi,%eiz,1),%edi

00004c60 <seq_no_seg_trim_calc>:
    4c60:	55                   	push   %ebp
    4c61:	89 e5                	mov    %esp,%ebp
    4c63:	57                   	push   %edi
    4c64:	56                   	push   %esi
    4c65:	53                   	push   %ebx
    4c66:	83 ec 2c             	sub    $0x2c,%esp
    4c69:	8b 55 08             	mov    0x8(%ebp),%edx
    4c6c:	8b 7d 0c             	mov    0xc(%ebp),%edi
    4c6f:	8b 8a c0 00 00 00    	mov    0xc0(%edx),%ecx
    4c75:	8b 82 bc 00 00 00    	mov    0xbc(%edx),%eax
    4c7b:	89 4d dc             	mov    %ecx,-0x24(%ebp)
    4c7e:	01 c1                	add    %eax,%ecx
    4c80:	8b 57 04             	mov    0x4(%edi),%edx
    4c83:	89 4d e0             	mov    %ecx,-0x20(%ebp)
    4c86:	0f 82 b4 00 00 00    	jb     4d40 <seq_no_seg_trim_calc+0xe0>
    4c8c:	8b 77 0c             	mov    0xc(%edi),%esi
    4c8f:	39 d1                	cmp    %edx,%ecx
    4c91:	0f 97 c1             	seta   %cl
    4c94:	39 d0                	cmp    %edx,%eax
    4c96:	0f 96 c3             	setbe  %bl
    4c99:	21 d9                	and    %ebx,%ecx
    4c9b:	8d 5c 16 ff          	lea    -0x1(%esi,%edx,1),%ebx
    4c9f:	39 5d e0             	cmp    %ebx,-0x20(%ebp)
    4ca2:	0f 97 45 db          	seta   -0x25(%ebp)
    4ca6:	39 d8                	cmp    %ebx,%eax
    4ca8:	0f 96 c3             	setbe  %bl
    4cab:	20 5d db             	and    %bl,-0x25(%ebp)
    4cae:	85 f6                	test   %esi,%esi
    4cb0:	74 7e                	je     4d30 <seq_no_seg_trim_calc+0xd0>
    4cb2:	8b 5d dc             	mov    -0x24(%ebp),%ebx
    4cb5:	85 db                	test   %ebx,%ebx
    4cb7:	0f 84 c1 00 00 00    	je     4d7e <seq_no_seg_trim_calc+0x11e>
    4cbd:	0a 4d db             	or     -0x25(%ebp),%cl
    4cc0:	84 c9                	test   %cl,%cl
    4cc2:	0f 84 b6 00 00 00    	je     4d7e <seq_no_seg_trim_calc+0x11e>
    4cc8:	3b 45 e0             	cmp    -0x20(%ebp),%eax
    4ccb:	0f 96 c1             	setbe  %cl
    4cce:	39 d0                	cmp    %edx,%eax
    4cd0:	0f 97 c3             	seta   %bl
    4cd3:	39 55 e0             	cmp    %edx,-0x20(%ebp)
    4cd6:	0f 83 8c 00 00 00    	jae    4d68 <seq_no_seg_trim_calc+0x108>
    4cdc:	09 d9                	or     %ebx,%ecx
    4cde:	31 db                	xor    %ebx,%ebx
    4ce0:	84 c9                	test   %cl,%cl
    4ce2:	74 04                	je     4ce8 <seq_no_seg_trim_calc+0x88>
    4ce4:	89 c3                	mov    %eax,%ebx
    4ce6:	29 d3                	sub    %edx,%ebx
    4ce8:	8b 45 10             	mov    0x10(%ebp),%eax
    4ceb:	8b 55 08             	mov    0x8(%ebp),%edx
    4cee:	89 18                	mov    %ebx,(%eax)
    4cf0:	8b 82 c0 00 00 00    	mov    0xc0(%edx),%eax
    4cf6:	8b b2 bc 00 00 00    	mov    0xbc(%edx),%esi
    4cfc:	8b 57 04             	mov    0x4(%edi),%edx
    4cff:	01 f0                	add    %esi,%eax
    4d01:	8b 4f 0c             	mov    0xc(%edi),%ecx
    4d04:	8d 5a ff             	lea    -0x1(%edx),%ebx
    4d07:	01 d1                	add    %edx,%ecx
    4d09:	39 d8                	cmp    %ebx,%eax
    4d0b:	72 63                	jb     4d70 <seq_no_seg_trim_calc+0x110>
    4d0d:	39 c8                	cmp    %ecx,%eax
    4d0f:	0f 93 c2             	setae  %dl
    4d12:	39 d9                	cmp    %ebx,%ecx
    4d14:	0f 97 c3             	seta   %bl
    4d17:	21 da                	and    %ebx,%edx
    4d19:	31 db                	xor    %ebx,%ebx
    4d1b:	84 d2                	test   %dl,%dl
    4d1d:	75 04                	jne    4d23 <seq_no_seg_trim_calc+0xc3>
    4d1f:	89 cb                	mov    %ecx,%ebx
    4d21:	29 c3                	sub    %eax,%ebx
    4d23:	8b 45 14             	mov    0x14(%ebp),%eax
    4d26:	89 18                	mov    %ebx,(%eax)
    4d28:	83 c4 2c             	add    $0x2c,%esp
    4d2b:	5b                   	pop    %ebx
    4d2c:	5e                   	pop    %esi
    4d2d:	5f                   	pop    %edi
    4d2e:	5d                   	pop    %ebp
    4d2f:	c3                   	ret    
    4d30:	8b 75 dc             	mov    -0x24(%ebp),%esi
    4d33:	85 f6                	test   %esi,%esi
    4d35:	75 89                	jne    4cc0 <seq_no_seg_trim_calc+0x60>
    4d37:	39 d0                	cmp    %edx,%eax
    4d39:	0f 94 c1             	sete   %cl
    4d3c:	eb 82                	jmp    4cc0 <seq_no_seg_trim_calc+0x60>
    4d3e:	66 90                	xchg   %ax,%ax
    4d40:	8b 77 0c             	mov    0xc(%edi),%esi
    4d43:	39 55 e0             	cmp    %edx,-0x20(%ebp)
    4d46:	0f 97 c1             	seta   %cl
    4d49:	39 d0                	cmp    %edx,%eax
    4d4b:	0f 96 c3             	setbe  %bl
    4d4e:	09 d9                	or     %ebx,%ecx
    4d50:	8d 5c 16 ff          	lea    -0x1(%esi,%edx,1),%ebx
    4d54:	39 d8                	cmp    %ebx,%eax
    4d56:	0f 96 45 db          	setbe  -0x25(%ebp)
    4d5a:	39 5d e0             	cmp    %ebx,-0x20(%ebp)
    4d5d:	0f 97 c3             	seta   %bl
    4d60:	08 5d db             	or     %bl,-0x25(%ebp)
    4d63:	e9 46 ff ff ff       	jmp    4cae <seq_no_seg_trim_calc+0x4e>
    4d68:	21 d9                	and    %ebx,%ecx
    4d6a:	e9 6f ff ff ff       	jmp    4cde <seq_no_seg_trim_calc+0x7e>
    4d6f:	90                   	nop
    4d70:	39 d9                	cmp    %ebx,%ecx
    4d72:	0f 97 c2             	seta   %dl
    4d75:	39 c8                	cmp    %ecx,%eax
    4d77:	0f 93 c3             	setae  %bl
    4d7a:	09 da                	or     %ebx,%edx
    4d7c:	eb 9b                	jmp    4d19 <seq_no_seg_trim_calc+0xb9>
    4d7e:	c7 44 24 08 bd 00 00 	movl   $0xbd,0x8(%esp)
    4d85:	00 
    4d86:	c7 44 24 04 5f 9d 02 	movl   $0x29d5f,0x4(%esp)
    4d8d:	00 
    4d8e:	c7 04 24 88 9d 02 00 	movl   $0x29d88,(%esp)
    4d95:	e8 36 c4 01 00       	call   211d0 <assert_abort>
    4d9a:	8d b6 00 00 00 00    	lea    0x0(%esi),%esi

00004da0 <seq_no_seg_cmp>:
    4da0:	55                   	push   %ebp
    4da1:	89 e5                	mov    %esp,%ebp
    4da3:	57                   	push   %edi
    4da4:	56                   	push   %esi
    4da5:	53                   	push   %ebx
    4da6:	83 ec 2c             	sub    $0x2c,%esp
    4da9:	8b 45 08             	mov    0x8(%ebp),%eax
    4dac:	8b 4d 0c             	mov    0xc(%ebp),%ecx
    4daf:	8b 90 bc 00 00 00    	mov    0xbc(%eax),%edx
    4db5:	8b 80 c0 00 00 00    	mov    0xc0(%eax),%eax
    4dbb:	89 45 dc             	mov    %eax,-0x24(%ebp)
    4dbe:	89 55 e4             	mov    %edx,-0x1c(%ebp)
    4dc1:	8b 7d dc             	mov    -0x24(%ebp),%edi
    4dc4:	8b 41 04             	mov    0x4(%ecx),%eax
    4dc7:	01 d7                	add    %edx,%edi
    4dc9:	0f 82 f9 00 00 00    	jb     4ec8 <seq_no_seg_cmp+0x128>
    4dcf:	39 c7                	cmp    %eax,%edi
    4dd1:	0f 97 c2             	seta   %dl
    4dd4:	39 45 e4             	cmp    %eax,-0x1c(%ebp)
    4dd7:	0f 96 c3             	setbe  %bl
    4dda:	21 da                	and    %ebx,%edx
    4ddc:	8b 59 0c             	mov    0xc(%ecx),%ebx
    4ddf:	8d 74 03 ff          	lea    -0x1(%ebx,%eax,1),%esi
    4de3:	39 f7                	cmp    %esi,%edi
    4de5:	0f 97 45 e0          	seta   -0x20(%ebp)
    4de9:	39 75 e4             	cmp    %esi,-0x1c(%ebp)
    4dec:	0f 96 c1             	setbe  %cl
    4def:	20 4d e0             	and    %cl,-0x20(%ebp)
    4df2:	85 db                	test   %ebx,%ebx
    4df4:	0f 84 b6 00 00 00    	je     4eb0 <seq_no_seg_cmp+0x110>
    4dfa:	8b 5d dc             	mov    -0x24(%ebp),%ebx
    4dfd:	85 db                	test   %ebx,%ebx
    4dff:	0f 84 4a 01 00 00    	je     4f4f <seq_no_seg_cmp+0x1af>
    4e05:	8b 4d e0             	mov    -0x20(%ebp),%ecx
    4e08:	09 ca                	or     %ecx,%edx
    4e0a:	84 d2                	test   %dl,%dl
    4e0c:	0f 84 3d 01 00 00    	je     4f4f <seq_no_seg_cmp+0x1af>
    4e12:	8b 5d 10             	mov    0x10(%ebp),%ebx
    4e15:	8b 53 04             	mov    0x4(%ebx),%edx
    4e18:	39 d7                	cmp    %edx,%edi
    4e1a:	0f 97 c1             	seta   %cl
    4e1d:	39 55 e4             	cmp    %edx,-0x1c(%ebp)
    4e20:	0f 96 c3             	setbe  %bl
    4e23:	39 7d e4             	cmp    %edi,-0x1c(%ebp)
    4e26:	0f 86 c4 00 00 00    	jbe    4ef0 <seq_no_seg_cmp+0x150>
    4e2c:	09 d9                	or     %ebx,%ecx
    4e2e:	8b 5d 10             	mov    0x10(%ebp),%ebx
    4e31:	8b 73 0c             	mov    0xc(%ebx),%esi
    4e34:	8d 5c 32 ff          	lea    -0x1(%edx,%esi,1),%ebx
    4e38:	39 5d e4             	cmp    %ebx,-0x1c(%ebp)
    4e3b:	0f 96 45 db          	setbe  -0x25(%ebp)
    4e3f:	39 df                	cmp    %ebx,%edi
    4e41:	0f 97 c3             	seta   %bl
    4e44:	08 5d db             	or     %bl,-0x25(%ebp)
    4e47:	85 f6                	test   %esi,%esi
    4e49:	0f 84 c4 00 00 00    	je     4f13 <seq_no_seg_cmp+0x173>
    4e4f:	8b 5d dc             	mov    -0x24(%ebp),%ebx
    4e52:	85 db                	test   %ebx,%ebx
    4e54:	0f 84 11 01 00 00    	je     4f6b <seq_no_seg_cmp+0x1cb>
    4e5a:	0a 4d db             	or     -0x25(%ebp),%cl
    4e5d:	84 c9                	test   %cl,%cl
    4e5f:	0f 84 06 01 00 00    	je     4f6b <seq_no_seg_cmp+0x1cb>
    4e65:	39 d7                	cmp    %edx,%edi
    4e67:	0f 93 c1             	setae  %cl
    4e6a:	39 d0                	cmp    %edx,%eax
    4e6c:	0f 92 c3             	setb   %bl
    4e6f:	39 c7                	cmp    %eax,%edi
    4e71:	0f 82 b9 00 00 00    	jb     4f30 <seq_no_seg_cmp+0x190>
    4e77:	21 d9                	and    %ebx,%ecx
    4e79:	84 c9                	test   %cl,%cl
    4e7b:	0f 85 07 01 00 00    	jne    4f88 <seq_no_seg_cmp+0x1e8>
    4e81:	39 c7                	cmp    %eax,%edi
    4e83:	0f 93 c1             	setae  %cl
    4e86:	39 d0                	cmp    %edx,%eax
    4e88:	0f 97 c3             	seta   %bl
    4e8b:	39 d7                	cmp    %edx,%edi
    4e8d:	0f 82 a5 00 00 00    	jb     4f38 <seq_no_seg_cmp+0x198>
    4e93:	21 d9                	and    %ebx,%ecx
    4e95:	84 c9                	test   %cl,%cl
    4e97:	0f 85 a5 00 00 00    	jne    4f42 <seq_no_seg_cmp+0x1a2>
    4e9d:	39 d0                	cmp    %edx,%eax
    4e9f:	0f 85 eb 00 00 00    	jne    4f90 <seq_no_seg_cmp+0x1f0>
    4ea5:	31 c0                	xor    %eax,%eax
    4ea7:	83 c4 2c             	add    $0x2c,%esp
    4eaa:	5b                   	pop    %ebx
    4eab:	5e                   	pop    %esi
    4eac:	5f                   	pop    %edi
    4ead:	5d                   	pop    %ebp
    4eae:	c3                   	ret    
    4eaf:	90                   	nop
    4eb0:	8b 75 dc             	mov    -0x24(%ebp),%esi
    4eb3:	85 f6                	test   %esi,%esi
    4eb5:	0f 85 4f ff ff ff    	jne    4e0a <seq_no_seg_cmp+0x6a>
    4ebb:	39 45 e4             	cmp    %eax,-0x1c(%ebp)
    4ebe:	0f 94 c2             	sete   %dl
    4ec1:	e9 44 ff ff ff       	jmp    4e0a <seq_no_seg_cmp+0x6a>
    4ec6:	66 90                	xchg   %ax,%ax
    4ec8:	39 c7                	cmp    %eax,%edi
    4eca:	0f 97 c2             	seta   %dl
    4ecd:	39 45 e4             	cmp    %eax,-0x1c(%ebp)
    4ed0:	0f 96 c3             	setbe  %bl
    4ed3:	09 da                	or     %ebx,%edx
    4ed5:	8b 59 0c             	mov    0xc(%ecx),%ebx
    4ed8:	8d 74 03 ff          	lea    -0x1(%ebx,%eax,1),%esi
    4edc:	39 75 e4             	cmp    %esi,-0x1c(%ebp)
    4edf:	0f 96 45 e0          	setbe  -0x20(%ebp)
    4ee3:	39 f7                	cmp    %esi,%edi
    4ee5:	0f 97 c1             	seta   %cl
    4ee8:	08 4d e0             	or     %cl,-0x20(%ebp)
    4eeb:	e9 02 ff ff ff       	jmp    4df2 <seq_no_seg_cmp+0x52>
    4ef0:	21 d9                	and    %ebx,%ecx
    4ef2:	8b 5d 10             	mov    0x10(%ebp),%ebx
    4ef5:	8b 73 0c             	mov    0xc(%ebx),%esi
    4ef8:	8d 5c 32 ff          	lea    -0x1(%edx,%esi,1),%ebx
    4efc:	39 df                	cmp    %ebx,%edi
    4efe:	0f 97 45 db          	seta   -0x25(%ebp)
    4f02:	39 5d e4             	cmp    %ebx,-0x1c(%ebp)
    4f05:	0f 96 c3             	setbe  %bl
    4f08:	20 5d db             	and    %bl,-0x25(%ebp)
    4f0b:	85 f6                	test   %esi,%esi
    4f0d:	0f 85 3c ff ff ff    	jne    4e4f <seq_no_seg_cmp+0xaf>
    4f13:	8b 75 dc             	mov    -0x24(%ebp),%esi
    4f16:	85 f6                	test   %esi,%esi
    4f18:	0f 85 3f ff ff ff    	jne    4e5d <seq_no_seg_cmp+0xbd>
    4f1e:	39 55 e4             	cmp    %edx,-0x1c(%ebp)
    4f21:	0f 94 c1             	sete   %cl
    4f24:	e9 34 ff ff ff       	jmp    4e5d <seq_no_seg_cmp+0xbd>
    4f29:	8d b4 26 00 00 00 00 	lea    0x0(%esi,%eiz,1),%esi
    4f30:	09 d9                	or     %ebx,%ecx
    4f32:	e9 42 ff ff ff       	jmp    4e79 <seq_no_seg_cmp+0xd9>
    4f37:	90                   	nop
    4f38:	09 d9                	or     %ebx,%ecx
    4f3a:	84 c9                	test   %cl,%cl
    4f3c:	0f 84 5b ff ff ff    	je     4e9d <seq_no_seg_cmp+0xfd>
    4f42:	83 c4 2c             	add    $0x2c,%esp
    4f45:	b8 01 00 00 00       	mov    $0x1,%eax
    4f4a:	5b                   	pop    %ebx
    4f4b:	5e                   	pop    %esi
    4f4c:	5f                   	pop    %edi
    4f4d:	5d                   	pop    %ebp
    4f4e:	c3                   	ret    
    4f4f:	c7 44 24 08 e4 00 00 	movl   $0xe4,0x8(%esp)
    4f56:	00 
    4f57:	c7 44 24 04 5f 9d 02 	movl   $0x29d5f,0x4(%esp)
    4f5e:	00 
    4f5f:	c7 04 24 b0 9d 02 00 	movl   $0x29db0,(%esp)
    4f66:	e8 65 c2 01 00       	call   211d0 <assert_abort>
    4f6b:	c7 44 24 08 e5 00 00 	movl   $0xe5,0x8(%esp)
    4f72:	00 
    4f73:	c7 44 24 04 5f 9d 02 	movl   $0x29d5f,0x4(%esp)
    4f7a:	00 
    4f7b:	c7 04 24 d4 9d 02 00 	movl   $0x29dd4,(%esp)
    4f82:	e8 49 c2 01 00       	call   211d0 <assert_abort>
    4f87:	90                   	nop
    4f88:	83 c8 ff             	or     $0xffffffff,%eax
    4f8b:	e9 17 ff ff ff       	jmp    4ea7 <seq_no_seg_cmp+0x107>
    4f90:	c7 44 24 08 ed 00 00 	movl   $0xed,0x8(%esp)
    4f97:	00 
    4f98:	c7 44 24 04 5f 9d 02 	movl   $0x29d5f,0x4(%esp)
    4f9f:	00 
    4fa0:	c7 04 24 75 9d 02 00 	movl   $0x29d75,(%esp)
    4fa7:	e8 24 c2 01 00       	call   211d0 <assert_abort>
    4fac:	66 90                	xchg   %ax,%ax
    4fae:	66 90                	xchg   %ax,%ax

00004fb0 <tcp_free_sock_data>:
    4fb0:	55                   	push   %ebp
    4fb1:	89 e5                	mov    %esp,%ebp
    4fb3:	5d                   	pop    %ebp
    4fb4:	c3                   	ret    
    4fb5:	8d 74 26 00          	lea    0x0(%esi,%eiz,1),%esi
    4fb9:	8d bc 27 00 00 00 00 	lea    0x0(%edi,%eiz,1),%edi

00004fc0 <tcp_sock_cstate_cb>:
    4fc0:	55                   	push   %ebp
    4fc1:	89 e5                	mov    %esp,%ebp
    4fc3:	57                   	push   %edi
    4fc4:	56                   	push   %esi
    4fc5:	53                   	push   %ebx
    4fc6:	83 ec 3c             	sub    $0x3c,%esp
    4fc9:	8b 5d 0c             	mov    0xc(%ebp),%ebx
    4fcc:	8b 73 04             	mov    0x4(%ebx),%esi
    4fcf:	c7 44 24 08 f8 9d 02 	movl   $0x29df8,0x8(%esp)
    4fd6:	00 
    4fd7:	c7 44 24 04 04 00 00 	movl   $0x4,0x4(%esp)
    4fde:	00 
    4fdf:	c7 04 24 ff ff ff ff 	movl   $0xffffffff,(%esp)
    4fe6:	e8 45 bd 00 00       	call   10d30 <log_msg>
    4feb:	89 34 24             	mov    %esi,(%esp)
    4fee:	e8 ad 76 00 00       	call   c6a0 <fibril_mutex_lock>
    4ff3:	8b 03                	mov    (%ebx),%eax
    4ff5:	3b 45 08             	cmp    0x8(%ebp),%eax
    4ff8:	0f 85 ff 00 00 00    	jne    50fd <tcp_sock_cstate_cb+0x13d>
    4ffe:	8d 55 e4             	lea    -0x1c(%ebp),%edx
    5001:	89 04 24             	mov    %eax,(%esp)
    5004:	89 54 24 04          	mov    %edx,0x4(%esp)
    5008:	e8 43 30 00 00       	call   8050 <tcp_uc_status>
    500d:	83 7d e4 03          	cmpl   $0x3,-0x1c(%ebp)
    5011:	0f 85 ba 00 00 00    	jne    50d1 <tcp_sock_cstate_cb+0x111>
    5017:	8b 53 0c             	mov    0xc(%ebx),%edx
    501a:	85 d2                	test   %edx,%edx
    501c:	0f 85 bf 00 00 00    	jne    50e1 <tcp_sock_cstate_cb+0x121>
    5022:	8b 43 10             	mov    0x10(%ebx),%eax
    5025:	85 c0                	test   %eax,%eax
    5027:	0f 85 b4 00 00 00    	jne    50e1 <tcp_sock_cstate_cb+0x121>
    502d:	8d 56 28             	lea    0x28(%esi),%edx
    5030:	8d 43 0c             	lea    0xc(%ebx),%eax
    5033:	89 53 10             	mov    %edx,0x10(%ebx)
    5036:	8b 56 28             	mov    0x28(%esi),%edx
    5039:	89 53 0c             	mov    %edx,0xc(%ebx)
    503c:	8b 56 28             	mov    0x28(%esi),%edx
    503f:	89 46 28             	mov    %eax,0x28(%esi)
    5042:	89 42 04             	mov    %eax,0x4(%edx)
    5045:	c7 44 24 08 40 a1 02 	movl   $0x2a140,0x8(%esp)
    504c:	00 
    504d:	c7 44 24 04 04 00 00 	movl   $0x4,0x4(%esp)
    5054:	00 
    5055:	c7 04 24 ff ff ff ff 	movl   $0xffffffff,(%esp)
    505c:	e8 cf bc 00 00       	call   10d30 <log_msg>
    5061:	8b 5e 10             	mov    0x10(%esi),%ebx
    5064:	8b 03                	mov    (%ebx),%eax
    5066:	c7 44 24 08 28 9e 02 	movl   $0x29e28,0x8(%esp)
    506d:	00 
    506e:	89 44 24 0c          	mov    %eax,0xc(%esp)
    5072:	c7 44 24 04 04 00 00 	movl   $0x4,0x4(%esp)
    5079:	00 
    507a:	c7 04 24 ff ff ff ff 	movl   $0xffffffff,(%esp)
    5081:	e8 aa bc 00 00       	call   10d30 <log_msg>
    5086:	8b 43 04             	mov    0x4(%ebx),%eax
    5089:	89 04 24             	mov    %eax,(%esp)
    508c:	e8 4f 42 01 00       	call   192e0 <async_exchange_begin>
    5091:	c7 44 24 18 00 00 00 	movl   $0x0,0x18(%esp)
    5098:	00 
    5099:	c7 44 24 14 00 00 00 	movl   $0x0,0x14(%esp)
    50a0:	00 
    50a1:	c7 44 24 10 00 00 00 	movl   $0x0,0x10(%esp)
    50a8:	00 
    50a9:	c7 44 24 0c 00 04 00 	movl   $0x400,0xc(%esp)
    50b0:	00 
    50b1:	89 c7                	mov    %eax,%edi
    50b3:	8b 03                	mov    (%ebx),%eax
    50b5:	c7 44 24 04 0c 04 00 	movl   $0x40c,0x4(%esp)
    50bc:	00 
    50bd:	89 44 24 08          	mov    %eax,0x8(%esp)
    50c1:	89 3c 24             	mov    %edi,(%esp)
    50c4:	e8 b7 37 01 00       	call   18880 <async_msg_5>
    50c9:	89 3c 24             	mov    %edi,(%esp)
    50cc:	e8 7f 45 01 00       	call   19650 <async_exchange_end>
    50d1:	89 34 24             	mov    %esi,(%esp)
    50d4:	e8 e7 76 00 00       	call   c7c0 <fibril_mutex_unlock>
    50d9:	83 c4 3c             	add    $0x3c,%esp
    50dc:	5b                   	pop    %ebx
    50dd:	5e                   	pop    %esi
    50de:	5f                   	pop    %edi
    50df:	5d                   	pop    %ebp
    50e0:	c3                   	ret    
    50e1:	c7 44 24 08 3b 03 00 	movl   $0x33b,0x8(%esp)
    50e8:	00 
    50e9:	c7 44 24 04 0d 9e 02 	movl   $0x29e0d,0x4(%esp)
    50f0:	00 
    50f1:	c7 04 24 f0 a0 02 00 	movl   $0x2a0f0,(%esp)
    50f8:	e8 d3 c0 01 00       	call   211d0 <assert_abort>
    50fd:	c7 44 24 08 33 03 00 	movl   $0x333,0x8(%esp)
    5104:	00 
    5105:	c7 44 24 04 0d 9e 02 	movl   $0x29e0d,0x4(%esp)
    510c:	00 
    510d:	c7 04 24 14 9e 02 00 	movl   $0x29e14,(%esp)
    5114:	e8 b7 c0 01 00       	call   211d0 <assert_abort>
    5119:	8d b4 26 00 00 00 00 	lea    0x0(%esi,%eiz,1),%esi

00005120 <tcp_sock_send.isra.11>:
    5120:	55                   	push   %ebp
    5121:	89 e5                	mov    %esp,%ebp
    5123:	57                   	push   %edi
    5124:	56                   	push   %esi
    5125:	53                   	push   %ebx
    5126:	81 ec 3c 04 00 00    	sub    $0x43c,%esp
    512c:	89 c3                	mov    %eax,%ebx
    512e:	89 ce                	mov    %ecx,%esi
    5130:	83 c3 04             	add    $0x4,%ebx
    5133:	c7 44 24 08 42 9e 02 	movl   $0x29e42,0x8(%esp)
    513a:	00 
    513b:	c7 44 24 04 04 00 00 	movl   $0x4,0x4(%esp)
    5142:	00 
    5143:	c7 04 24 ff ff ff ff 	movl   $0xffffffff,(%esp)
    514a:	89 95 d0 fb ff ff    	mov    %edx,-0x430(%ebp)
    5150:	e8 db bb 00 00       	call   10d30 <log_msg>
    5155:	89 74 24 04          	mov    %esi,0x4(%esp)
    5159:	89 1c 24             	mov    %ebx,(%esp)
    515c:	e8 9f 37 00 00       	call   8900 <socket_cores_find>
    5161:	85 c0                	test   %eax,%eax
    5163:	0f 84 6f 01 00 00    	je     52d8 <tcp_sock_send.isra.11+0x1b8>
    5169:	8b 70 20             	mov    0x20(%eax),%esi
    516c:	89 34 24             	mov    %esi,(%esp)
    516f:	e8 2c 75 00 00       	call   c6a0 <fibril_mutex_lock>
    5174:	8b 7e 18             	mov    0x18(%esi),%edi
    5177:	85 ff                	test   %edi,%edi
    5179:	0f 84 d1 01 00 00    	je     5350 <tcp_sock_send.isra.11+0x230>
    517f:	8b 5d 08             	mov    0x8(%ebp),%ebx
    5182:	85 db                	test   %ebx,%ebx
    5184:	0f 8e be 00 00 00    	jle    5248 <tcp_sock_send.isra.11+0x128>
    518a:	c7 85 d4 fb ff ff 00 	movl   $0x0,-0x42c(%ebp)
    5191:	00 00 00 
    5194:	8d bd e4 fb ff ff    	lea    -0x41c(%ebp),%edi
    519a:	8d 9d e8 fb ff ff    	lea    -0x418(%ebp),%ebx
    51a0:	8d 85 e0 fb ff ff    	lea    -0x420(%ebp),%eax
    51a6:	89 7c 24 04          	mov    %edi,0x4(%esp)
    51aa:	89 04 24             	mov    %eax,(%esp)
    51ad:	e8 be 51 01 00       	call   1a370 <async_data_write_receive>
    51b2:	84 c0                	test   %al,%al
    51b4:	0f 84 46 01 00 00    	je     5300 <tcp_sock_send.isra.11+0x1e0>
    51ba:	8b 85 e4 fb ff ff    	mov    -0x41c(%ebp),%eax
    51c0:	3d 00 04 00 00       	cmp    $0x400,%eax
    51c5:	76 0f                	jbe    51d6 <tcp_sock_send.isra.11+0xb6>
    51c7:	c7 85 e4 fb ff ff 00 	movl   $0x400,-0x41c(%ebp)
    51ce:	04 00 00 
    51d1:	b8 00 04 00 00       	mov    $0x400,%eax
    51d6:	89 44 24 08          	mov    %eax,0x8(%esp)
    51da:	8b 85 e0 fb ff ff    	mov    -0x420(%ebp),%eax
    51e0:	89 5c 24 04          	mov    %ebx,0x4(%esp)
    51e4:	89 04 24             	mov    %eax,(%esp)
    51e7:	e8 d4 51 01 00       	call   1a3c0 <async_data_write_finalize>
    51ec:	85 c0                	test   %eax,%eax
    51ee:	0f 85 2c 01 00 00    	jne    5320 <tcp_sock_send.isra.11+0x200>
    51f4:	8b 85 e4 fb ff ff    	mov    -0x41c(%ebp),%eax
    51fa:	c7 44 24 0c 00 00 00 	movl   $0x0,0xc(%esp)
    5201:	00 
    5202:	89 44 24 08          	mov    %eax,0x8(%esp)
    5206:	89 5c 24 04          	mov    %ebx,0x4(%esp)
    520a:	8b 46 18             	mov    0x18(%esi),%eax
    520d:	89 04 24             	mov    %eax,(%esp)
    5210:	e8 db 29 00 00       	call   7bf0 <tcp_uc_send>
    5215:	83 f8 04             	cmp    $0x4,%eax
    5218:	77 5e                	ja     5278 <tcp_sock_send.isra.11+0x158>
    521a:	83 f8 03             	cmp    $0x3,%eax
    521d:	0f 83 ad 00 00 00    	jae    52d0 <tcp_sock_send.isra.11+0x1b0>
    5223:	85 c0                	test   %eax,%eax
    5225:	75 56                	jne    527d <tcp_sock_send.isra.11+0x15d>
    5227:	8b 8d d4 fb ff ff    	mov    -0x42c(%ebp),%ecx
    522d:	41                   	inc    %ecx
    522e:	89 8d d4 fb ff ff    	mov    %ecx,-0x42c(%ebp)
    5234:	8b 85 d4 fb ff ff    	mov    -0x42c(%ebp),%eax
    523a:	39 45 08             	cmp    %eax,0x8(%ebp)
    523d:	0f 85 5d ff ff ff    	jne    51a0 <tcp_sock_send.isra.11+0x80>
    5243:	90                   	nop
    5244:	8d 74 26 00          	lea    0x0(%esi,%eiz,1),%esi
    5248:	8b 85 d0 fb ff ff    	mov    -0x430(%ebp),%eax
    524e:	c7 44 24 0c 00 04 00 	movl   $0x400,0xc(%esp)
    5255:	00 
    5256:	c7 44 24 08 00 00 00 	movl   $0x0,0x8(%esp)
    525d:	00 
    525e:	c7 44 24 04 00 00 00 	movl   $0x0,0x4(%esp)
    5265:	00 
    5266:	89 04 24             	mov    %eax,(%esp)
    5269:	e8 f2 36 01 00       	call   18960 <async_answer_2>
    526e:	89 34 24             	mov    %esi,(%esp)
    5271:	e8 4a 75 00 00       	call   c7c0 <fibril_mutex_unlock>
    5276:	eb 47                	jmp    52bf <tcp_sock_send.isra.11+0x19f>
    5278:	83 f8 07             	cmp    $0x7,%eax
    527b:	74 23                	je     52a0 <tcp_sock_send.isra.11+0x180>
    527d:	c7 44 24 08 52 02 00 	movl   $0x252,0x8(%esp)
    5284:	00 
    5285:	c7 44 24 04 0d 9e 02 	movl   $0x29e0d,0x4(%esp)
    528c:	00 
    528d:	c7 04 24 5c 96 02 00 	movl   $0x2965c,(%esp)
    5294:	e8 37 bf 01 00       	call   211d0 <assert_abort>
    5299:	8d b4 26 00 00 00 00 	lea    0x0(%esi,%eiz,1),%esi
    52a0:	bb b5 d8 ff ff       	mov    $0xffffd8b5,%ebx
    52a5:	89 34 24             	mov    %esi,(%esp)
    52a8:	e8 13 75 00 00       	call   c7c0 <fibril_mutex_unlock>
    52ad:	8b 85 d0 fb ff ff    	mov    -0x430(%ebp),%eax
    52b3:	89 5c 24 04          	mov    %ebx,0x4(%esp)
    52b7:	89 04 24             	mov    %eax,(%esp)
    52ba:	e8 21 36 01 00       	call   188e0 <async_answer_0>
    52bf:	81 c4 3c 04 00 00    	add    $0x43c,%esp
    52c5:	5b                   	pop    %ebx
    52c6:	5e                   	pop    %esi
    52c7:	5f                   	pop    %edi
    52c8:	5d                   	pop    %ebp
    52c9:	c3                   	ret    
    52ca:	8d b6 00 00 00 00    	lea    0x0(%esi),%esi
    52d0:	bb b7 d8 ff ff       	mov    $0xffffd8b7,%ebx
    52d5:	eb ce                	jmp    52a5 <tcp_sock_send.isra.11+0x185>
    52d7:	90                   	nop
    52d8:	8b 85 d0 fb ff ff    	mov    -0x430(%ebp),%eax
    52de:	c7 44 24 04 ca d8 ff 	movl   $0xffffd8ca,0x4(%esp)
    52e5:	ff 
    52e6:	89 04 24             	mov    %eax,(%esp)
    52e9:	e8 f2 35 01 00       	call   188e0 <async_answer_0>
    52ee:	81 c4 3c 04 00 00    	add    $0x43c,%esp
    52f4:	5b                   	pop    %ebx
    52f5:	5e                   	pop    %esi
    52f6:	5f                   	pop    %edi
    52f7:	5d                   	pop    %ebp
    52f8:	c3                   	ret    
    52f9:	8d b4 26 00 00 00 00 	lea    0x0(%esi,%eiz,1),%esi
    5300:	89 34 24             	mov    %esi,(%esp)
    5303:	e8 b8 74 00 00       	call   c7c0 <fibril_mutex_unlock>
    5308:	8b 85 d0 fb ff ff    	mov    -0x430(%ebp),%eax
    530e:	c7 44 24 04 f2 ff ff 	movl   $0xfffffff2,0x4(%esp)
    5315:	ff 
    5316:	89 04 24             	mov    %eax,(%esp)
    5319:	e8 c2 35 01 00       	call   188e0 <async_answer_0>
    531e:	eb 9f                	jmp    52bf <tcp_sock_send.isra.11+0x19f>
    5320:	89 34 24             	mov    %esi,(%esp)
    5323:	89 85 cc fb ff ff    	mov    %eax,-0x434(%ebp)
    5329:	e8 92 74 00 00       	call   c7c0 <fibril_mutex_unlock>
    532e:	8b 85 cc fb ff ff    	mov    -0x434(%ebp),%eax
    5334:	89 44 24 04          	mov    %eax,0x4(%esp)
    5338:	8b 85 d0 fb ff ff    	mov    -0x430(%ebp),%eax
    533e:	89 04 24             	mov    %eax,(%esp)
    5341:	e8 9a 35 01 00       	call   188e0 <async_answer_0>
    5346:	e9 74 ff ff ff       	jmp    52bf <tcp_sock_send.isra.11+0x19f>
    534b:	90                   	nop
    534c:	8d 74 26 00          	lea    0x0(%esi,%eiz,1),%esi
    5350:	89 34 24             	mov    %esi,(%esp)
    5353:	e8 68 74 00 00       	call   c7c0 <fibril_mutex_unlock>
    5358:	8b 85 d0 fb ff ff    	mov    -0x430(%ebp),%eax
    535e:	c7 44 24 04 b7 d8 ff 	movl   $0xffffd8b7,0x4(%esp)
    5365:	ff 
    5366:	89 04 24             	mov    %eax,(%esp)
    5369:	e8 72 35 01 00       	call   188e0 <async_answer_0>
    536e:	e9 4c ff ff ff       	jmp    52bf <tcp_sock_send.isra.11+0x19f>
    5373:	8d b6 00 00 00 00    	lea    0x0(%esi),%esi
    5379:	8d bc 27 00 00 00 00 	lea    0x0(%edi,%eiz,1),%edi

00005380 <tcp_sock_recv_fibril>:
    5380:	55                   	push   %ebp
    5381:	89 e5                	mov    %esp,%ebp
    5383:	57                   	push   %edi
    5384:	56                   	push   %esi
    5385:	53                   	push   %ebx
    5386:	83 ec 4c             	sub    $0x4c,%esp
    5389:	8b 5d 08             	mov    0x8(%ebp),%ebx
    538c:	c7 44 24 08 52 9e 02 	movl   $0x29e52,0x8(%esp)
    5393:	00 
    5394:	c7 44 24 04 04 00 00 	movl   $0x4,0x4(%esp)
    539b:	00 
    539c:	c7 04 24 ff ff ff ff 	movl   $0xffffffff,(%esp)
    53a3:	8d bb 38 04 00 00    	lea    0x438(%ebx),%edi
    53a9:	e8 82 b9 00 00       	call   10d30 <log_msg>
    53ae:	89 3c 24             	mov    %edi,(%esp)
    53b1:	e8 ea 72 00 00       	call   c6a0 <fibril_mutex_lock>
    53b6:	8d 43 34             	lea    0x34(%ebx),%eax
    53b9:	89 45 d4             	mov    %eax,-0x2c(%ebp)
    53bc:	8d b3 48 04 00 00    	lea    0x448(%ebx),%esi
    53c2:	8d b6 00 00 00 00    	lea    0x0(%esi),%esi
    53c8:	c7 44 24 08 69 9e 02 	movl   $0x29e69,0x8(%esp)
    53cf:	00 
    53d0:	c7 44 24 04 04 00 00 	movl   $0x4,0x4(%esp)
    53d7:	00 
    53d8:	c7 04 24 ff ff ff ff 	movl   $0xffffffff,(%esp)
    53df:	e8 4c b9 00 00       	call   10d30 <log_msg>
    53e4:	8b 83 34 04 00 00    	mov    0x434(%ebx),%eax
    53ea:	85 c0                	test   %eax,%eax
    53ec:	75 18                	jne    5406 <tcp_sock_recv_fibril+0x86>
    53ee:	eb 1d                	jmp    540d <tcp_sock_recv_fibril+0x8d>
    53f0:	89 7c 24 04          	mov    %edi,0x4(%esp)
    53f4:	89 34 24             	mov    %esi,(%esp)
    53f7:	e8 f4 7e 00 00       	call   d2f0 <fibril_condvar_wait>
    53fc:	8b 83 34 04 00 00    	mov    0x434(%ebx),%eax
    5402:	85 c0                	test   %eax,%eax
    5404:	74 07                	je     540d <tcp_sock_recv_fibril+0x8d>
