
file_bd:     file format elf32-i386


Disassembly of section .init:

00001094 <__entry>:
    1094:	66 8c d0             	mov    %ss,%ax
    1097:	8e d8                	mov    %eax,%ds
    1099:	8e c0                	mov    %eax,%es
    109b:	8e e0                	mov    %eax,%fs
    109d:	b8 01 00 00 00       	mov    $0x1,%eax
    10a2:	0f a2                	cpuid  
    10a4:	0f ba e2 0b          	bt     $0xb,%edx
    10a8:	73 0c                	jae    10b6 <__entry+0x22>
    10aa:	8d 05 74 0d 02 00    	lea    0x20d74,%eax
    10b0:	c7 00 a7 b4 01 00    	movl   $0x1b4a7,(%eax)
    10b6:	6a 00                	push   $0x0
    10b8:	89 e5                	mov    %esp,%ebp
    10ba:	57                   	push   %edi
    10bb:	e8 a0 06 00 00       	call   1760 <__main>

Disassembly of section .text:

000010c0 <file_bd_open>:
    10c0:	55                   	push   %ebp
    10c1:	31 c0                	xor    %eax,%eax
    10c3:	89 e5                	mov    %esp,%ebp
    10c5:	5d                   	pop    %ebp
    10c6:	c3                   	ret    
    10c7:	89 f6                	mov    %esi,%esi
    10c9:	8d bc 27 00 00 00 00 	lea    0x0(%edi,%eiz,1),%edi

000010d0 <file_bd_close>:
    10d0:	55                   	push   %ebp
    10d1:	31 c0                	xor    %eax,%eax
    10d3:	89 e5                	mov    %esp,%ebp
    10d5:	5d                   	pop    %ebp
    10d6:	c3                   	ret    
    10d7:	89 f6                	mov    %esi,%esi
    10d9:	8d bc 27 00 00 00 00 	lea    0x0(%edi,%eiz,1),%edi

000010e0 <file_bd_get_block_size>:
    10e0:	55                   	push   %ebp
    10e1:	8b 15 b0 0d 02 00    	mov    0x20db0,%edx
    10e7:	89 e5                	mov    %esp,%ebp
    10e9:	8b 45 0c             	mov    0xc(%ebp),%eax
    10ec:	89 10                	mov    %edx,(%eax)
    10ee:	31 c0                	xor    %eax,%eax
    10f0:	5d                   	pop    %ebp
    10f1:	c3                   	ret    
    10f2:	8d b4 26 00 00 00 00 	lea    0x0(%esi,%eiz,1),%esi
    10f9:	8d bc 27 00 00 00 00 	lea    0x0(%edi,%eiz,1),%edi

00001100 <file_bd_get_num_blocks>:
    1100:	55                   	push   %ebp
    1101:	a1 c8 0d 02 00       	mov    0x20dc8,%eax
    1106:	89 e5                	mov    %esp,%ebp
    1108:	8b 15 cc 0d 02 00    	mov    0x20dcc,%edx
    110e:	8b 4d 0c             	mov    0xc(%ebp),%ecx
    1111:	89 01                	mov    %eax,(%ecx)
    1113:	89 51 04             	mov    %edx,0x4(%ecx)
    1116:	31 c0                	xor    %eax,%eax
    1118:	5d                   	pop    %ebp
    1119:	c3                   	ret    
    111a:	8d b6 00 00 00 00    	lea    0x0(%esi),%esi

00001120 <file_bd_write_blocks>:
    1120:	55                   	push   %ebp
    1121:	89 e5                	mov    %esp,%ebp
    1123:	57                   	push   %edi
    1124:	56                   	push   %esi
    1125:	53                   	push   %ebx
    1126:	83 ec 2c             	sub    $0x2c,%esp
    1129:	8b 45 14             	mov    0x14(%ebp),%eax
    112c:	8b 15 b0 0d 02 00    	mov    0x20db0,%edx
    1132:	0f af c2             	imul   %edx,%eax
    1135:	8b 75 0c             	mov    0xc(%ebp),%esi
    1138:	8b 7d 10             	mov    0x10(%ebp),%edi
    113b:	3b 45 1c             	cmp    0x1c(%ebp),%eax
    113e:	0f 87 3c 01 00 00    	ja     1280 <file_bd_write_blocks+0x160>
    1144:	8b 45 14             	mov    0x14(%ebp),%eax
    1147:	31 d2                	xor    %edx,%edx
    1149:	01 f0                	add    %esi,%eax
    114b:	8b 1d cc 0d 02 00    	mov    0x20dcc,%ebx
    1151:	11 fa                	adc    %edi,%edx
    1153:	8b 0d c8 0d 02 00    	mov    0x20dc8,%ecx
    1159:	39 da                	cmp    %ebx,%edx
    115b:	0f 83 af 00 00 00    	jae    1210 <file_bd_write_blocks+0xf0>
    1161:	c7 04 24 d0 0d 02 00 	movl   $0x20dd0,(%esp)
    1168:	e8 c3 6e 00 00       	call   8030 <fibril_mutex_lock>
    116d:	a1 c0 0d 02 00       	mov    0x20dc0,%eax
    1172:	89 04 24             	mov    %eax,(%esp)
    1175:	e8 66 ad 00 00       	call   bee0 <clearerr>
    117a:	a1 b0 0d 02 00       	mov    0x20db0,%eax
    117f:	89 f9                	mov    %edi,%ecx
    1181:	c7 44 24 0c 00 00 00 	movl   $0x0,0xc(%esp)
    1188:	00 
    1189:	0f af c8             	imul   %eax,%ecx
    118c:	f7 e6                	mul    %esi
    118e:	01 ca                	add    %ecx,%edx
    1190:	89 44 24 04          	mov    %eax,0x4(%esp)
    1194:	a1 c0 0d 02 00       	mov    0x20dc0,%eax
    1199:	89 54 24 08          	mov    %edx,0x8(%esp)
    119d:	89 04 24             	mov    %eax,(%esp)
    11a0:	e8 fb 9d 00 00       	call   afa0 <fseek>
    11a5:	85 c0                	test   %eax,%eax
    11a7:	0f 88 b3 00 00 00    	js     1260 <file_bd_write_blocks+0x140>
    11ad:	a1 c0 0d 02 00       	mov    0x20dc0,%eax
    11b2:	89 44 24 0c          	mov    %eax,0xc(%esp)
    11b6:	8b 45 14             	mov    0x14(%ebp),%eax
    11b9:	89 44 24 08          	mov    %eax,0x8(%esp)
    11bd:	a1 b0 0d 02 00       	mov    0x20db0,%eax
    11c2:	89 44 24 04          	mov    %eax,0x4(%esp)
    11c6:	8b 45 18             	mov    0x18(%ebp),%eax
    11c9:	89 04 24             	mov    %eax,(%esp)
    11cc:	e8 5f a4 00 00       	call   b630 <fwrite>
    11d1:	89 c6                	mov    %eax,%esi
    11d3:	a1 c0 0d 02 00       	mov    0x20dc0,%eax
    11d8:	89 04 24             	mov    %eax,(%esp)
    11db:	e8 f0 ac 00 00       	call   bed0 <ferror>
    11e0:	85 c0                	test   %eax,%eax
    11e2:	75 7c                	jne    1260 <file_bd_write_blocks+0x140>
    11e4:	39 75 14             	cmp    %esi,0x14(%ebp)
    11e7:	77 77                	ja     1260 <file_bd_write_blocks+0x140>
    11e9:	a1 c0 0d 02 00       	mov    0x20dc0,%eax
    11ee:	89 04 24             	mov    %eax,(%esp)
    11f1:	e8 4a a1 00 00       	call   b340 <fflush>
    11f6:	85 c0                	test   %eax,%eax
    11f8:	75 66                	jne    1260 <file_bd_write_blocks+0x140>
    11fa:	c7 04 24 d0 0d 02 00 	movl   $0x20dd0,(%esp)
    1201:	e8 4a 6f 00 00       	call   8150 <fibril_mutex_unlock>
    1206:	31 c0                	xor    %eax,%eax
    1208:	83 c4 2c             	add    $0x2c,%esp
    120b:	5b                   	pop    %ebx
    120c:	5e                   	pop    %esi
    120d:	5f                   	pop    %edi
    120e:	5d                   	pop    %ebp
    120f:	c3                   	ret    
    1210:	76 3e                	jbe    1250 <file_bd_write_blocks+0x130>
    1212:	83 c1 ff             	add    $0xffffffff,%ecx
    1215:	89 74 24 04          	mov    %esi,0x4(%esp)
    1219:	83 d3 ff             	adc    $0xffffffff,%ebx
    121c:	83 c0 ff             	add    $0xffffffff,%eax
    121f:	83 d2 ff             	adc    $0xffffffff,%edx
    1222:	89 4c 24 14          	mov    %ecx,0x14(%esp)
    1226:	89 5c 24 18          	mov    %ebx,0x18(%esp)
    122a:	89 44 24 0c          	mov    %eax,0xc(%esp)
    122e:	89 54 24 10          	mov    %edx,0x10(%esp)
    1232:	89 7c 24 08          	mov    %edi,0x8(%esp)
    1236:	c7 04 24 c4 e0 01 00 	movl   $0x1e0c4,(%esp)
    123d:	e8 7e ad 00 00       	call   bfc0 <printf>
    1242:	b8 fd ff ff ff       	mov    $0xfffffffd,%eax
    1247:	eb bf                	jmp    1208 <file_bd_write_blocks+0xe8>
    1249:	8d b4 26 00 00 00 00 	lea    0x0(%esi,%eiz,1),%esi
    1250:	39 c8                	cmp    %ecx,%eax
    1252:	0f 86 09 ff ff ff    	jbe    1161 <file_bd_write_blocks+0x41>
    1258:	eb b8                	jmp    1212 <file_bd_write_blocks+0xf2>
    125a:	8d b6 00 00 00 00    	lea    0x0(%esi),%esi
    1260:	c7 04 24 d0 0d 02 00 	movl   $0x20dd0,(%esp)
    1267:	e8 e4 6e 00 00       	call   8150 <fibril_mutex_unlock>
    126c:	83 c4 2c             	add    $0x2c,%esp
    126f:	b8 f7 fe ff ff       	mov    $0xfffffef7,%eax
    1274:	5b                   	pop    %ebx
    1275:	5e                   	pop    %esi
    1276:	5f                   	pop    %edi
    1277:	5d                   	pop    %ebp
    1278:	c3                   	ret    
    1279:	8d b4 26 00 00 00 00 	lea    0x0(%esi,%eiz,1),%esi
    1280:	b8 f2 ff ff ff       	mov    $0xfffffff2,%eax
    1285:	eb 81                	jmp    1208 <file_bd_write_blocks+0xe8>
    1287:	89 f6                	mov    %esi,%esi
    1289:	8d bc 27 00 00 00 00 	lea    0x0(%edi,%eiz,1),%edi

00001290 <file_bd_read_blocks>:
    1290:	55                   	push   %ebp
    1291:	89 e5                	mov    %esp,%ebp
    1293:	57                   	push   %edi
    1294:	56                   	push   %esi
    1295:	53                   	push   %ebx
    1296:	83 ec 2c             	sub    $0x2c,%esp
    1299:	8b 45 14             	mov    0x14(%ebp),%eax
    129c:	8b 0d b0 0d 02 00    	mov    0x20db0,%ecx
    12a2:	0f af c1             	imul   %ecx,%eax
    12a5:	8b 75 0c             	mov    0xc(%ebp),%esi
    12a8:	8b 7d 10             	mov    0x10(%ebp),%edi
    12ab:	3b 45 1c             	cmp    0x1c(%ebp),%eax
    12ae:	0f 87 0c 01 00 00    	ja     13c0 <file_bd_read_blocks+0x130>
    12b4:	8b 45 14             	mov    0x14(%ebp),%eax
    12b7:	31 d2                	xor    %edx,%edx
    12b9:	01 f0                	add    %esi,%eax
    12bb:	8b 1d cc 0d 02 00    	mov    0x20dcc,%ebx
    12c1:	11 fa                	adc    %edi,%edx
    12c3:	8b 0d c8 0d 02 00    	mov    0x20dc8,%ecx
    12c9:	39 da                	cmp    %ebx,%edx
    12cb:	0f 83 9f 00 00 00    	jae    1370 <file_bd_read_blocks+0xe0>
    12d1:	c7 04 24 d0 0d 02 00 	movl   $0x20dd0,(%esp)
    12d8:	e8 53 6d 00 00       	call   8030 <fibril_mutex_lock>
    12dd:	a1 c0 0d 02 00       	mov    0x20dc0,%eax
    12e2:	89 04 24             	mov    %eax,(%esp)
    12e5:	e8 f6 ab 00 00       	call   bee0 <clearerr>
    12ea:	a1 b0 0d 02 00       	mov    0x20db0,%eax
    12ef:	89 f9                	mov    %edi,%ecx
    12f1:	c7 44 24 0c 00 00 00 	movl   $0x0,0xc(%esp)
    12f8:	00 
    12f9:	0f af c8             	imul   %eax,%ecx
    12fc:	f7 e6                	mul    %esi
    12fe:	01 ca                	add    %ecx,%edx
    1300:	89 44 24 04          	mov    %eax,0x4(%esp)
    1304:	a1 c0 0d 02 00       	mov    0x20dc0,%eax
    1309:	89 54 24 08          	mov    %edx,0x8(%esp)
    130d:	89 04 24             	mov    %eax,(%esp)
    1310:	e8 8b 9c 00 00       	call   afa0 <fseek>
    1315:	85 c0                	test   %eax,%eax
    1317:	0f 88 ab 00 00 00    	js     13c8 <file_bd_read_blocks+0x138>
    131d:	a1 c0 0d 02 00       	mov    0x20dc0,%eax
    1322:	89 44 24 0c          	mov    %eax,0xc(%esp)
    1326:	8b 45 14             	mov    0x14(%ebp),%eax
    1329:	89 44 24 08          	mov    %eax,0x8(%esp)
    132d:	a1 b0 0d 02 00       	mov    0x20db0,%eax
    1332:	89 44 24 04          	mov    %eax,0x4(%esp)
    1336:	8b 45 18             	mov    0x18(%ebp),%eax
    1339:	89 04 24             	mov    %eax,(%esp)
    133c:	e8 bf 91 00 00       	call   a500 <fread>
    1341:	89 c6                	mov    %eax,%esi
    1343:	a1 c0 0d 02 00       	mov    0x20dc0,%eax
    1348:	89 04 24             	mov    %eax,(%esp)
    134b:	e8 80 ab 00 00       	call   bed0 <ferror>
    1350:	85 c0                	test   %eax,%eax
    1352:	75 74                	jne    13c8 <file_bd_read_blocks+0x138>
    1354:	c7 04 24 d0 0d 02 00 	movl   $0x20dd0,(%esp)
    135b:	e8 f0 6d 00 00       	call   8150 <fibril_mutex_unlock>
    1360:	39 75 14             	cmp    %esi,0x14(%ebp)
    1363:	77 5b                	ja     13c0 <file_bd_read_blocks+0x130>
    1365:	31 c0                	xor    %eax,%eax
    1367:	83 c4 2c             	add    $0x2c,%esp
    136a:	5b                   	pop    %ebx
    136b:	5e                   	pop    %esi
    136c:	5f                   	pop    %edi
    136d:	5d                   	pop    %ebp
    136e:	c3                   	ret    
    136f:	90                   	nop
    1370:	76 3e                	jbe    13b0 <file_bd_read_blocks+0x120>
    1372:	83 c1 ff             	add    $0xffffffff,%ecx
    1375:	89 74 24 04          	mov    %esi,0x4(%esp)
    1379:	83 d3 ff             	adc    $0xffffffff,%ebx
    137c:	83 c0 ff             	add    $0xffffffff,%eax
    137f:	83 d2 ff             	adc    $0xffffffff,%edx
    1382:	89 4c 24 14          	mov    %ecx,0x14(%esp)
    1386:	89 5c 24 18          	mov    %ebx,0x18(%esp)
    138a:	89 44 24 0c          	mov    %eax,0xc(%esp)
    138e:	89 54 24 10          	mov    %edx,0x10(%esp)
    1392:	89 7c 24 08          	mov    %edi,0x8(%esp)
    1396:	c7 04 24 c4 e0 01 00 	movl   $0x1e0c4,(%esp)
    139d:	e8 1e ac 00 00       	call   bfc0 <printf>
    13a2:	b8 fd ff ff ff       	mov    $0xfffffffd,%eax
    13a7:	eb be                	jmp    1367 <file_bd_read_blocks+0xd7>
    13a9:	8d b4 26 00 00 00 00 	lea    0x0(%esi,%eiz,1),%esi
    13b0:	39 c8                	cmp    %ecx,%eax
    13b2:	0f 86 19 ff ff ff    	jbe    12d1 <file_bd_read_blocks+0x41>
    13b8:	eb b8                	jmp    1372 <file_bd_read_blocks+0xe2>
    13ba:	8d b6 00 00 00 00    	lea    0x0(%esi),%esi
    13c0:	b8 f2 ff ff ff       	mov    $0xfffffff2,%eax
    13c5:	eb a0                	jmp    1367 <file_bd_read_blocks+0xd7>
    13c7:	90                   	nop
    13c8:	c7 04 24 d0 0d 02 00 	movl   $0x20dd0,(%esp)
    13cf:	e8 7c 6d 00 00       	call   8150 <fibril_mutex_unlock>
    13d4:	b8 f7 fe ff ff       	mov    $0xfffffef7,%eax
    13d9:	eb 8c                	jmp    1367 <file_bd_read_blocks+0xd7>
    13db:	90                   	nop
    13dc:	8d 74 26 00          	lea    0x0(%esi,%eiz,1),%esi

000013e0 <file_bd_connection>:
    13e0:	55                   	push   %ebp
    13e1:	89 e5                	mov    %esp,%ebp
    13e3:	c7 45 10 b8 0d 02 00 	movl   $0x20db8,0x10(%ebp)
    13ea:	5d                   	pop    %ebp
    13eb:	e9 50 04 00 00       	jmp    1840 <bd_conn>

000013f0 <main>:
    13f0:	55                   	push   %ebp
    13f1:	89 e5                	mov    %esp,%ebp
    13f3:	57                   	push   %edi
    13f4:	56                   	push   %esi
    13f5:	53                   	push   %ebx
    13f6:	83 e4 f0             	and    $0xfffffff0,%esp
    13f9:	83 ec 20             	sub    $0x20,%esp
    13fc:	8b 75 0c             	mov    0xc(%ebp),%esi
    13ff:	c7 04 24 0c e1 01 00 	movl   $0x1e10c,(%esp)
    1406:	e8 b5 ab 00 00       	call   bfc0 <printf>
    140b:	8d 5e 04             	lea    0x4(%esi),%ebx
    140e:	8b 7d 08             	mov    0x8(%ebp),%edi
    1411:	8b 76 04             	mov    0x4(%esi),%esi
    1414:	4f                   	dec    %edi
    1415:	c7 05 b0 0d 02 00 00 	movl   $0x200,0x20db0
    141c:	02 00 00 
    141f:	85 f6                	test   %esi,%esi
    1421:	75 73                	jne    1496 <main+0xa6>
    1423:	eb 76                	jmp    149b <main+0xab>
    1425:	8d 76 00             	lea    0x0(%esi),%esi
    1428:	c7 44 24 04 bd e1 01 	movl   $0x1e1bd,0x4(%esp)
    142f:	00 
    1430:	89 34 24             	mov    %esi,(%esp)
    1433:	e8 08 3f 00 00       	call   5340 <str_cmp>
    1438:	85 c0                	test   %eax,%eax
    143a:	0f 85 9e 01 00 00    	jne    15de <main+0x1ee>
    1440:	83 ff 01             	cmp    $0x1,%edi
    1443:	0f 8e b8 01 00 00    	jle    1601 <main+0x211>
    1449:	c7 44 24 10 b0 0d 02 	movl   $0x20db0,0x10(%esp)
    1450:	00 
    1451:	c7 44 24 0c 01 00 00 	movl   $0x1,0xc(%esp)
    1458:	00 
    1459:	c7 44 24 08 0a 00 00 	movl   $0xa,0x8(%esp)
    1460:	00 
    1461:	c7 44 24 04 00 00 00 	movl   $0x0,0x4(%esp)
    1468:	00 
    1469:	8b 43 04             	mov    0x4(%ebx),%eax
    146c:	89 04 24             	mov    %eax,(%esp)
    146f:	e8 0c 5f 00 00       	call   7380 <str_size_t>
    1474:	85 c0                	test   %eax,%eax
    1476:	0f 85 36 01 00 00    	jne    15b2 <main+0x1c2>
    147c:	8b 35 b0 0d 02 00    	mov    0x20db0,%esi
    1482:	85 f6                	test   %esi,%esi
    1484:	0f 84 28 01 00 00    	je     15b2 <main+0x1c2>
    148a:	83 c3 08             	add    $0x8,%ebx
    148d:	83 ef 02             	sub    $0x2,%edi
    1490:	8b 33                	mov    (%ebx),%esi
    1492:	85 f6                	test   %esi,%esi
    1494:	74 05                	je     149b <main+0xab>
    1496:	80 3e 2d             	cmpb   $0x2d,(%esi)
    1499:	74 8d                	je     1428 <main+0x38>
    149b:	4f                   	dec    %edi
    149c:	0f 8e c1 01 00 00    	jle    1663 <main+0x273>
    14a2:	8b 5b 04             	mov    0x4(%ebx),%ebx
    14a5:	c7 04 24 b8 0d 02 00 	movl   $0x20db8,(%esp)
    14ac:	e8 6f 03 00 00       	call   1820 <bd_srvs_init>
    14b1:	c7 04 24 e0 13 00 00 	movl   $0x13e0,(%esp)
    14b8:	c7 05 b8 0d 02 00 80 	movl   $0x20b80,0x20db8
    14bf:	0b 02 00 
    14c2:	e8 69 0a 01 00       	call   11f30 <async_set_client_connection>
    14c7:	c7 04 24 17 e2 01 00 	movl   $0x1e217,(%esp)
    14ce:	e8 fd 10 00 00       	call   25d0 <loc_server_register>
    14d3:	85 c0                	test   %eax,%eax
    14d5:	0f 85 55 01 00 00    	jne    1630 <main+0x240>
    14db:	c7 44 24 04 1f e2 01 	movl   $0x1e21f,0x4(%esp)
    14e2:	00 
    14e3:	89 34 24             	mov    %esi,(%esp)
    14e6:	e8 75 8b 00 00       	call   a060 <fopen>
    14eb:	a3 c0 0d 02 00       	mov    %eax,0x20dc0
    14f0:	85 c0                	test   %eax,%eax
    14f2:	0f 84 33 01 00 00    	je     162b <main+0x23b>
    14f8:	c7 44 24 0c 02 00 00 	movl   $0x2,0xc(%esp)
    14ff:	00 
    1500:	c7 44 24 04 00 00 00 	movl   $0x0,0x4(%esp)
    1507:	00 
    1508:	c7 44 24 08 00 00 00 	movl   $0x0,0x8(%esp)
    150f:	00 
    1510:	89 04 24             	mov    %eax,(%esp)
    1513:	e8 88 9a 00 00       	call   afa0 <fseek>
    1518:	85 c0                	test   %eax,%eax
    151a:	a1 c0 0d 02 00       	mov    0x20dc0,%eax
    151f:	89 04 24             	mov    %eax,(%esp)
    1522:	0f 85 fe 00 00 00    	jne    1626 <main+0x236>
    1528:	e8 b3 9b 00 00       	call   b0e0 <ftell>
    152d:	85 d2                	test   %edx,%edx
    152f:	0f 88 e9 00 00 00    	js     161e <main+0x22e>
    1535:	8b 0d b0 0d 02 00    	mov    0x20db0,%ecx
    153b:	c7 44 24 0c 00 00 00 	movl   $0x0,0xc(%esp)
    1542:	00 
    1543:	89 4c 24 08          	mov    %ecx,0x8(%esp)
    1547:	89 04 24             	mov    %eax,(%esp)
    154a:	89 54 24 04          	mov    %edx,0x4(%esp)
    154e:	e8 0d c3 01 00       	call   1d860 <__divdi3>
    1553:	c7 04 24 d0 0d 02 00 	movl   $0x20dd0,(%esp)
    155a:	a3 c8 0d 02 00       	mov    %eax,0x20dc8
    155f:	89 15 cc 0d 02 00    	mov    %edx,0x20dcc
    1565:	e8 a6 6a 00 00       	call   8010 <fibril_mutex_initialize>
    156a:	c7 44 24 04 b4 0d 02 	movl   $0x20db4,0x4(%esp)
    1571:	00 
    1572:	89 1c 24             	mov    %ebx,(%esp)
    1575:	e8 66 14 00 00       	call   29e0 <loc_service_register>
    157a:	89 c6                	mov    %eax,%esi
    157c:	85 c0                	test   %eax,%eax
    157e:	0f 85 c2 00 00 00    	jne    1646 <main+0x256>
    1584:	c7 44 24 04 17 e2 01 	movl   $0x1e217,0x4(%esp)
    158b:	00 
    158c:	c7 04 24 23 e2 01 00 	movl   $0x1e223,(%esp)
    1593:	e8 28 aa 00 00       	call   bfc0 <printf>
    1598:	c7 04 24 00 00 00 00 	movl   $0x0,(%esp)
    159f:	e8 dc 83 00 00       	call   9980 <task_retval>
    15a4:	c7 04 24 01 00 00 00 	movl   $0x1,(%esp)
    15ab:	e8 b0 62 00 00       	call   7860 <fibril_switch>
    15b0:	eb 22                	jmp    15d4 <main+0x1e4>
    15b2:	8b 43 04             	mov    0x4(%ebx),%eax
    15b5:	c7 04 24 d3 e1 01 00 	movl   $0x1e1d3,(%esp)
    15bc:	89 44 24 04          	mov    %eax,0x4(%esp)
    15c0:	83 ce ff             	or     $0xffffffff,%esi
    15c3:	e8 f8 a9 00 00       	call   bfc0 <printf>
    15c8:	c7 04 24 38 e1 01 00 	movl   $0x1e138,(%esp)
    15cf:	e8 ec a9 00 00       	call   bfc0 <printf>
    15d4:	8d 65 f4             	lea    -0xc(%ebp),%esp
    15d7:	89 f0                	mov    %esi,%eax
    15d9:	5b                   	pop    %ebx
    15da:	5e                   	pop    %esi
    15db:	5f                   	pop    %edi
    15dc:	5d                   	pop    %ebp
    15dd:	c3                   	ret    
    15de:	8b 03                	mov    (%ebx),%eax
    15e0:	c7 04 24 ed e1 01 00 	movl   $0x1e1ed,(%esp)
    15e7:	89 44 24 04          	mov    %eax,0x4(%esp)
    15eb:	83 ce ff             	or     $0xffffffff,%esi
    15ee:	e8 cd a9 00 00       	call   bfc0 <printf>
    15f3:	c7 04 24 38 e1 01 00 	movl   $0x1e138,(%esp)
    15fa:	e8 c1 a9 00 00       	call   bfc0 <printf>
    15ff:	eb d3                	jmp    15d4 <main+0x1e4>
    1601:	c7 04 24 c0 e1 01 00 	movl   $0x1e1c0,(%esp)
    1608:	83 ce ff             	or     $0xffffffff,%esi
    160b:	e8 b0 a9 00 00       	call   bfc0 <printf>
    1610:	c7 04 24 38 e1 01 00 	movl   $0x1e138,(%esp)
    1617:	e8 a4 a9 00 00       	call   bfc0 <printf>
    161c:	eb b6                	jmp    15d4 <main+0x1e4>
    161e:	a1 c0 0d 02 00       	mov    0x20dc0,%eax
    1623:	89 04 24             	mov    %eax,(%esp)
    1626:	e8 25 8d 00 00       	call   a350 <fclose>
    162b:	83 ce ff             	or     $0xffffffff,%esi
    162e:	eb a4                	jmp    15d4 <main+0x1e4>
    1630:	c7 44 24 04 17 e2 01 	movl   $0x1e217,0x4(%esp)
    1637:	00 
    1638:	c7 04 24 78 e1 01 00 	movl   $0x1e178,(%esp)
    163f:	e8 7c a9 00 00       	call   bfc0 <printf>
    1644:	eb e5                	jmp    162b <main+0x23b>
    1646:	89 5c 24 08          	mov    %ebx,0x8(%esp)
    164a:	c7 44 24 04 17 e2 01 	movl   $0x1e217,0x4(%esp)
    1651:	00 
    1652:	c7 04 24 98 e1 01 00 	movl   $0x1e198,(%esp)
    1659:	e8 62 a9 00 00       	call   bfc0 <printf>
    165e:	e9 71 ff ff ff       	jmp    15d4 <main+0x1e4>
    1663:	c7 04 24 03 e2 01 00 	movl   $0x1e203,(%esp)
    166a:	83 ce ff             	or     $0xffffffff,%esi
    166d:	e8 4e a9 00 00       	call   bfc0 <printf>
    1672:	c7 04 24 38 e1 01 00 	movl   $0x1e138,(%esp)
    1679:	e8 42 a9 00 00       	call   bfc0 <printf>
    167e:	e9 51 ff ff ff       	jmp    15d4 <main+0x1e4>
    1683:	66 90                	xchg   %ax,%ax
    1685:	66 90                	xchg   %ax,%ax
    1687:	66 90                	xchg   %ax,%ax
    1689:	66 90                	xchg   %ax,%ax
    168b:	66 90                	xchg   %ax,%ax
    168d:	66 90                	xchg   %ax,%ax
    168f:	90                   	nop

00001690 <exit>:
    1690:	55                   	push   %ebp
    1691:	89 e5                	mov    %esp,%ebp
    1693:	83 ec 28             	sub    $0x28,%esp
    1696:	80 3d e0 0d 02 00 00 	cmpb   $0x0,0x20de0
    169d:	75 3f                	jne    16de <exit+0x4e>
    169f:	c7 44 24 18 0a 00 00 	movl   $0xa,0x18(%esp)
    16a6:	00 
    16a7:	c7 44 24 14 00 00 00 	movl   $0x0,0x14(%esp)
    16ae:	00 
    16af:	c7 44 24 10 00 00 00 	movl   $0x0,0x10(%esp)
    16b6:	00 
    16b7:	c7 44 24 0c 00 00 00 	movl   $0x0,0xc(%esp)
    16be:	00 
    16bf:	c7 44 24 08 00 00 00 	movl   $0x0,0x8(%esp)
    16c6:	00 
    16c7:	c7 44 24 04 00 00 00 	movl   $0x0,0x4(%esp)
    16ce:	00 
    16cf:	c7 04 24 00 00 00 00 	movl   $0x0,(%esp)
    16d6:	ff 15 74 0d 02 00    	call   *0x20d74
    16dc:	eb fe                	jmp    16dc <exit+0x4c>
    16de:	e8 7d 87 00 00       	call   9e60 <__stdio_done>
    16e3:	8b 45 08             	mov    0x8(%ebp),%eax
    16e6:	89 04 24             	mov    %eax,(%esp)
    16e9:	e8 92 82 00 00       	call   9980 <task_retval>
    16ee:	65 a1 00 00 00 00    	mov    %gs:0x0,%eax
    16f4:	8b 40 04             	mov    0x4(%eax),%eax
    16f7:	89 04 24             	mov    %eax,(%esp)
    16fa:	e8 71 60 00 00       	call   7770 <fibril_teardown>
    16ff:	eb 9e                	jmp    169f <exit+0xf>
    1701:	eb 0d                	jmp    1710 <abort>
    1703:	90                   	nop
    1704:	90                   	nop
    1705:	90                   	nop
    1706:	90                   	nop
    1707:	90                   	nop
    1708:	90                   	nop
    1709:	90                   	nop
    170a:	90                   	nop
    170b:	90                   	nop
    170c:	90                   	nop
    170d:	90                   	nop
    170e:	90                   	nop
    170f:	90                   	nop

00001710 <abort>:
    1710:	55                   	push   %ebp
    1711:	89 e5                	mov    %esp,%ebp
    1713:	83 ec 28             	sub    $0x28,%esp
    1716:	c7 44 24 18 0a 00 00 	movl   $0xa,0x18(%esp)
    171d:	00 
    171e:	c7 44 24 14 00 00 00 	movl   $0x0,0x14(%esp)
    1725:	00 
    1726:	c7 44 24 10 00 00 00 	movl   $0x0,0x10(%esp)
    172d:	00 
    172e:	c7 44 24 0c 00 00 00 	movl   $0x0,0xc(%esp)
    1735:	00 
    1736:	c7 44 24 08 00 00 00 	movl   $0x0,0x8(%esp)
    173d:	00 
    173e:	c7 44 24 04 00 00 00 	movl   $0x0,0x4(%esp)
    1745:	00 
    1746:	c7 04 24 01 00 00 00 	movl   $0x1,(%esp)
    174d:	ff 15 74 0d 02 00    	call   *0x20d74
    1753:	eb fe                	jmp    1753 <abort+0x43>
    1755:	8d 74 26 00          	lea    0x0(%esi,%eiz,1),%esi
    1759:	8d bc 27 00 00 00 00 	lea    0x0(%edi,%eiz,1),%edi

00001760 <__main>:
    1760:	55                   	push   %ebp
    1761:	89 e5                	mov    %esp,%ebp
    1763:	57                   	push   %edi
    1764:	56                   	push   %esi
    1765:	53                   	push   %ebx
    1766:	83 ec 2c             	sub    $0x2c,%esp
    1769:	8b 5d 08             	mov    0x8(%ebp),%ebx
    176c:	e8 cf f3 00 00       	call   10b40 <__malloc_init>
    1771:	e8 da 12 01 00       	call   12a50 <__async_init>
    1776:	e8 75 5f 00 00       	call   76f0 <fibril_setup>
    177b:	85 c0                	test   %eax,%eax
    177d:	0f 84 82 00 00 00    	je     1805 <__main+0xa5>
    1783:	c7 44 24 18 01 00 00 	movl   $0x1,0x18(%esp)
    178a:	00 
    178b:	c7 44 24 14 00 00 00 	movl   $0x0,0x14(%esp)
    1792:	00 
    1793:	c7 44 24 10 00 00 00 	movl   $0x0,0x10(%esp)
    179a:	00 
    179b:	c7 44 24 0c 00 00 00 	movl   $0x0,0xc(%esp)
    17a2:	00 
    17a3:	c7 44 24 08 00 00 00 	movl   $0x0,0x8(%esp)
    17aa:	00 
    17ab:	c7 44 24 04 00 00 00 	movl   $0x0,0x4(%esp)
    17b2:	00 
    17b3:	8b 40 30             	mov    0x30(%eax),%eax
    17b6:	89 04 24             	mov    %eax,(%esp)
    17b9:	ff 15 74 0d 02 00    	call   *0x20d74
    17bf:	89 1d a8 0d 02 00    	mov    %ebx,0x20da8
    17c5:	c6 05 e0 0d 02 00 01 	movb   $0x1,0x20de0
    17cc:	85 db                	test   %ebx,%ebx
    17ce:	74 3a                	je     180a <__main+0xaa>
    17d0:	8b 43 10             	mov    0x10(%ebx),%eax
    17d3:	8b 73 08             	mov    0x8(%ebx),%esi
    17d6:	8b 7b 0c             	mov    0xc(%ebx),%edi
    17d9:	89 04 24             	mov    %eax,(%esp)
    17dc:	e8 ef 83 00 00       	call   9bd0 <__stdio_init>
    17e1:	a1 a8 0d 02 00       	mov    0x20da8,%eax
    17e6:	8b 40 04             	mov    0x4(%eax),%eax
    17e9:	89 04 24             	mov    %eax,(%esp)
    17ec:	e8 bf 8f 01 00       	call   1a7b0 <chdir>
    17f1:	89 7c 24 04          	mov    %edi,0x4(%esp)
    17f5:	89 34 24             	mov    %esi,(%esp)
    17f8:	e8 f3 fb ff ff       	call   13f0 <main>
    17fd:	89 04 24             	mov    %eax,(%esp)
    1800:	e8 8b fe ff ff       	call   1690 <exit>
    1805:	e8 06 ff ff ff       	call   1710 <abort>
    180a:	c7 04 24 00 00 00 00 	movl   $0x0,(%esp)
    1811:	31 ff                	xor    %edi,%edi
    1813:	e8 b8 83 00 00       	call   9bd0 <__stdio_init>
    1818:	31 f6                	xor    %esi,%esi
    181a:	eb d5                	jmp    17f1 <__main+0x91>
    181c:	66 90                	xchg   %ax,%ax
    181e:	66 90                	xchg   %ax,%ax

00001820 <bd_srvs_init>:
    1820:	55                   	push   %ebp
    1821:	89 e5                	mov    %esp,%ebp
    1823:	8b 45 08             	mov    0x8(%ebp),%eax
    1826:	c7 00 00 00 00 00    	movl   $0x0,(%eax)
    182c:	c7 40 04 00 00 00 00 	movl   $0x0,0x4(%eax)
    1833:	5d                   	pop    %ebp
    1834:	c3                   	ret    
    1835:	8d 74 26 00          	lea    0x0(%esi,%eiz,1),%esi
    1839:	8d bc 27 00 00 00 00 	lea    0x0(%edi,%eiz,1),%edi

00001840 <bd_conn>:
    1840:	55                   	push   %ebp
    1841:	89 e5                	mov    %esp,%ebp
    1843:	57                   	push   %edi
    1844:	56                   	push   %esi
    1845:	53                   	push   %ebx
    1846:	83 ec 7c             	sub    $0x7c,%esp
    1849:	8b 45 08             	mov    0x8(%ebp),%eax
    184c:	c7 44 24 04 00 00 00 	movl   $0x0,0x4(%esp)
    1853:	00 
    1854:	89 04 24             	mov    %eax,(%esp)
    1857:	e8 24 1f 01 00       	call   13780 <async_answer_0>
    185c:	c7 44 24 04 04 00 00 	movl   $0x4,0x4(%esp)
    1863:	00 
    1864:	c7 04 24 01 00 00 00 	movl   $0x1,(%esp)
    186b:	e8 70 f3 00 00       	call   10be0 <calloc>
    1870:	89 c7                	mov    %eax,%edi
    1872:	85 c0                	test   %eax,%eax
    1874:	0f 84 ec 02 00 00    	je     1b66 <bd_conn+0x326>
    187a:	8b 55 10             	mov    0x10(%ebp),%edx
    187d:	89 10                	mov    %edx,(%eax)
    187f:	c7 04 24 02 00 00 00 	movl   $0x2,(%esp)
    1886:	e8 95 41 01 00       	call   15a20 <async_callback_receive>
    188b:	85 c0                	test   %eax,%eax
    188d:	0f 84 d3 02 00 00    	je     1b66 <bd_conn+0x326>
    1893:	8b 4d 10             	mov    0x10(%ebp),%ecx
    1896:	89 47 04             	mov    %eax,0x4(%edi)
    1899:	8b 01                	mov    (%ecx),%eax
    189b:	89 7c 24 04          	mov    %edi,0x4(%esp)
    189f:	89 0c 24             	mov    %ecx,(%esp)
    18a2:	ff 10                	call   *(%eax)
    18a4:	85 c0                	test   %eax,%eax
    18a6:	0f 85 c4 02 00 00    	jne    1b70 <bd_conn+0x330>
    18ac:	8d 5d c4             	lea    -0x3c(%ebp),%ebx
    18af:	90                   	nop
    18b0:	c7 44 24 04 00 00 00 	movl   $0x0,0x4(%esp)
    18b7:	00 
    18b8:	89 1c 24             	mov    %ebx,(%esp)
    18bb:	e8 90 08 01 00       	call   12150 <async_get_call_timeout>
    18c0:	89 c6                	mov    %eax,%esi
    18c2:	8b 45 c4             	mov    -0x3c(%ebp),%eax
    18c5:	85 c0                	test   %eax,%eax
    18c7:	0f 84 ab 02 00 00    	je     1b78 <bd_conn+0x338>
    18cd:	2d 00 04 00 00       	sub    $0x400,%eax
    18d2:	83 f8 04             	cmp    $0x4,%eax
    18d5:	76 19                	jbe    18f0 <bd_conn+0xb0>
    18d7:	c7 44 24 04 f2 ff ff 	movl   $0xfffffff2,0x4(%esp)
    18de:	ff 
    18df:	89 34 24             	mov    %esi,(%esp)
    18e2:	e8 99 1e 01 00       	call   13780 <async_answer_0>
    18e7:	eb c7                	jmp    18b0 <bd_conn+0x70>
    18e9:	8d b4 26 00 00 00 00 	lea    0x0(%esi,%eiz,1),%esi
    18f0:	ff 24 85 40 e2 01 00 	jmp    *0x1e240(,%eax,4)
    18f7:	90                   	nop
    18f8:	8b 4d cc             	mov    -0x34(%ebp),%ecx
    18fb:	8b 55 c8             	mov    -0x38(%ebp),%edx
    18fe:	89 4d a0             	mov    %ecx,-0x60(%ebp)
    1901:	8d 45 b0             	lea    -0x50(%ebp),%eax
    1904:	8d 4d b4             	lea    -0x4c(%ebp),%ecx
    1907:	89 55 a4             	mov    %edx,-0x5c(%ebp)
    190a:	89 4c 24 14          	mov    %ecx,0x14(%esp)
    190e:	8b 55 d0             	mov    -0x30(%ebp),%edx
    1911:	c7 44 24 10 00 00 00 	movl   $0x0,0x10(%esp)
    1918:	00 
    1919:	c7 44 24 0c 00 00 00 	movl   $0x0,0xc(%esp)
    1920:	00 
    1921:	c7 44 24 08 00 00 00 	movl   $0x0,0x8(%esp)
    1928:	00 
    1929:	c7 44 24 04 00 00 00 	movl   $0x0,0x4(%esp)
    1930:	00 
    1931:	89 04 24             	mov    %eax,(%esp)
    1934:	89 55 9c             	mov    %edx,-0x64(%ebp)
    1937:	e8 64 39 01 00       	call   152a0 <async_data_write_accept>
    193c:	85 c0                	test   %eax,%eax
    193e:	75 48                	jne    1988 <bd_conn+0x148>
    1940:	8b 07                	mov    (%edi),%eax
    1942:	8b 00                	mov    (%eax),%eax
    1944:	8b 40 10             	mov    0x10(%eax),%eax
    1947:	85 c0                	test   %eax,%eax
    1949:	0f 84 61 02 00 00    	je     1bb0 <bd_conn+0x370>
    194f:	8b 55 b4             	mov    -0x4c(%ebp),%edx
    1952:	8b 4d a4             	mov    -0x5c(%ebp),%ecx
    1955:	89 54 24 14          	mov    %edx,0x14(%esp)
    1959:	8b 55 b0             	mov    -0x50(%ebp),%edx
    195c:	89 54 24 10          	mov    %edx,0x10(%esp)
    1960:	8b 55 9c             	mov    -0x64(%ebp),%edx
    1963:	89 54 24 0c          	mov    %edx,0xc(%esp)
    1967:	8b 55 a0             	mov    -0x60(%ebp),%edx
    196a:	89 4c 24 04          	mov    %ecx,0x4(%esp)
    196e:	89 54 24 08          	mov    %edx,0x8(%esp)
    1972:	89 3c 24             	mov    %edi,(%esp)
    1975:	ff d0                	call   *%eax
    1977:	8b 55 b0             	mov    -0x50(%ebp),%edx
    197a:	89 14 24             	mov    %edx,(%esp)
    197d:	89 45 98             	mov    %eax,-0x68(%ebp)
    1980:	e8 cb f3 00 00       	call   10d50 <free>
    1985:	8b 45 98             	mov    -0x68(%ebp),%eax
    1988:	89 44 24 04          	mov    %eax,0x4(%esp)
    198c:	89 34 24             	mov    %esi,(%esp)
    198f:	e8 ec 1d 01 00       	call   13780 <async_answer_0>
    1994:	e9 17 ff ff ff       	jmp    18b0 <bd_conn+0x70>
    1999:	8d b4 26 00 00 00 00 	lea    0x0(%esi,%eiz,1),%esi
    19a0:	8d 45 ac             	lea    -0x54(%ebp),%eax
    19a3:	8b 4d c8             	mov    -0x38(%ebp),%ecx
    19a6:	89 44 24 04          	mov    %eax,0x4(%esp)
    19aa:	8d 45 b4             	lea    -0x4c(%ebp),%eax
    19ad:	89 4d a4             	mov    %ecx,-0x5c(%ebp)
    19b0:	8b 55 cc             	mov    -0x34(%ebp),%edx
    19b3:	8b 4d d0             	mov    -0x30(%ebp),%ecx
    19b6:	89 04 24             	mov    %eax,(%esp)
    19b9:	89 55 a0             	mov    %edx,-0x60(%ebp)
    19bc:	89 4d 9c             	mov    %ecx,-0x64(%ebp)
    19bf:	e8 2c 33 01 00       	call   14cf0 <async_data_read_receive>
    19c4:	84 c0                	test   %al,%al
    19c6:	0f 84 0b ff ff ff    	je     18d7 <bd_conn+0x97>
    19cc:	8b 45 ac             	mov    -0x54(%ebp),%eax
    19cf:	89 04 24             	mov    %eax,(%esp)
    19d2:	e8 69 f2 00 00       	call   10c40 <malloc>
    19d7:	89 c2                	mov    %eax,%edx
    19d9:	85 c0                	test   %eax,%eax
    19db:	0f 84 5d 01 00 00    	je     1b3e <bd_conn+0x2fe>
    19e1:	8b 07                	mov    (%edi),%eax
    19e3:	8b 00                	mov    (%eax),%eax
    19e5:	8b 40 08             	mov    0x8(%eax),%eax
    19e8:	85 c0                	test   %eax,%eax
    19ea:	0f 84 d8 01 00 00    	je     1bc8 <bd_conn+0x388>
    19f0:	8b 4d ac             	mov    -0x54(%ebp),%ecx
    19f3:	89 54 24 10          	mov    %edx,0x10(%esp)
    19f7:	89 4c 24 14          	mov    %ecx,0x14(%esp)
    19fb:	8b 4d 9c             	mov    -0x64(%ebp),%ecx
    19fe:	89 4c 24 0c          	mov    %ecx,0xc(%esp)
    1a02:	8b 4d a4             	mov    -0x5c(%ebp),%ecx
    1a05:	89 4c 24 04          	mov    %ecx,0x4(%esp)
    1a09:	8b 4d a0             	mov    -0x60(%ebp),%ecx
    1a0c:	89 55 98             	mov    %edx,-0x68(%ebp)
    1a0f:	89 4c 24 08          	mov    %ecx,0x8(%esp)
    1a13:	89 3c 24             	mov    %edi,(%esp)
    1a16:	ff d0                	call   *%eax
    1a18:	8b 55 98             	mov    -0x68(%ebp),%edx
    1a1b:	85 c0                	test   %eax,%eax
    1a1d:	0f 85 1b 01 00 00    	jne    1b3e <bd_conn+0x2fe>
    1a23:	8b 45 ac             	mov    -0x54(%ebp),%eax
    1a26:	89 54 24 04          	mov    %edx,0x4(%esp)
    1a2a:	89 44 24 08          	mov    %eax,0x8(%esp)
    1a2e:	8b 45 b4             	mov    -0x4c(%ebp),%eax
    1a31:	89 04 24             	mov    %eax,(%esp)
    1a34:	89 55 98             	mov    %edx,-0x68(%ebp)
    1a37:	e8 14 33 01 00       	call   14d50 <async_data_read_finalize>
    1a3c:	8b 55 98             	mov    -0x68(%ebp),%edx
    1a3f:	89 14 24             	mov    %edx,(%esp)
    1a42:	e8 09 f3 00 00       	call   10d50 <free>
    1a47:	c7 44 24 04 00 00 00 	movl   $0x0,0x4(%esp)
    1a4e:	00 
    1a4f:	89 34 24             	mov    %esi,(%esp)
    1a52:	e8 29 1d 01 00       	call   13780 <async_answer_0>
    1a57:	e9 54 fe ff ff       	jmp    18b0 <bd_conn+0x70>
    1a5c:	8d 74 26 00          	lea    0x0(%esi,%eiz,1),%esi
    1a60:	8b 07                	mov    (%edi),%eax
    1a62:	8b 00                	mov    (%eax),%eax
    1a64:	8b 40 18             	mov    0x18(%eax),%eax
    1a67:	85 c0                	test   %eax,%eax
    1a69:	0f 84 41 01 00 00    	je     1bb0 <bd_conn+0x370>
    1a6f:	8d 55 b8             	lea    -0x48(%ebp),%edx
    1a72:	89 3c 24             	mov    %edi,(%esp)
    1a75:	89 54 24 04          	mov    %edx,0x4(%esp)
    1a79:	ff d0                	call   *%eax
    1a7b:	8b 55 bc             	mov    -0x44(%ebp),%edx
    1a7e:	89 54 24 0c          	mov    %edx,0xc(%esp)
    1a82:	8b 55 b8             	mov    -0x48(%ebp),%edx
    1a85:	89 54 24 08          	mov    %edx,0x8(%esp)
    1a89:	89 44 24 04          	mov    %eax,0x4(%esp)
    1a8d:	89 34 24             	mov    %esi,(%esp)
    1a90:	e8 6b 1d 01 00       	call   13800 <async_answer_2>
    1a95:	e9 16 fe ff ff       	jmp    18b0 <bd_conn+0x70>
    1a9a:	8d b6 00 00 00 00    	lea    0x0(%esi),%esi
    1aa0:	8b 07                	mov    (%edi),%eax
    1aa2:	8b 00                	mov    (%eax),%eax
    1aa4:	8b 40 14             	mov    0x14(%eax),%eax
    1aa7:	85 c0                	test   %eax,%eax
    1aa9:	0f 84 01 01 00 00    	je     1bb0 <bd_conn+0x370>
    1aaf:	8d 4d b4             	lea    -0x4c(%ebp),%ecx
    1ab2:	89 3c 24             	mov    %edi,(%esp)
    1ab5:	89 4c 24 04          	mov    %ecx,0x4(%esp)
    1ab9:	ff d0                	call   *%eax
    1abb:	8b 55 b4             	mov    -0x4c(%ebp),%edx
    1abe:	89 54 24 08          	mov    %edx,0x8(%esp)
    1ac2:	89 44 24 04          	mov    %eax,0x4(%esp)
    1ac6:	89 34 24             	mov    %esi,(%esp)
    1ac9:	e8 f2 1c 01 00       	call   137c0 <async_answer_1>
    1ace:	e9 dd fd ff ff       	jmp    18b0 <bd_conn+0x70>
    1ad3:	90                   	nop
    1ad4:	8d 74 26 00          	lea    0x0(%esi,%eiz,1),%esi
    1ad8:	8d 45 ac             	lea    -0x54(%ebp),%eax
    1adb:	8d 4d b4             	lea    -0x4c(%ebp),%ecx
    1ade:	8b 55 c8             	mov    -0x38(%ebp),%edx
    1ae1:	89 44 24 04          	mov    %eax,0x4(%esp)
    1ae5:	89 0c 24             	mov    %ecx,(%esp)
    1ae8:	89 55 a4             	mov    %edx,-0x5c(%ebp)
    1aeb:	e8 00 32 01 00       	call   14cf0 <async_data_read_receive>
    1af0:	84 c0                	test   %al,%al
    1af2:	0f 84 df fd ff ff    	je     18d7 <bd_conn+0x97>
    1af8:	8b 45 ac             	mov    -0x54(%ebp),%eax
    1afb:	89 04 24             	mov    %eax,(%esp)
    1afe:	e8 3d f1 00 00       	call   10c40 <malloc>
    1b03:	89 c2                	mov    %eax,%edx
    1b05:	85 c0                	test   %eax,%eax
    1b07:	74 35                	je     1b3e <bd_conn+0x2fe>
    1b09:	8b 07                	mov    (%edi),%eax
    1b0b:	8b 00                	mov    (%eax),%eax
    1b0d:	8b 40 0c             	mov    0xc(%eax),%eax
    1b10:	85 c0                	test   %eax,%eax
    1b12:	0f 84 b0 00 00 00    	je     1bc8 <bd_conn+0x388>
    1b18:	8b 4d ac             	mov    -0x54(%ebp),%ecx
    1b1b:	89 54 24 08          	mov    %edx,0x8(%esp)
    1b1f:	89 4c 24 0c          	mov    %ecx,0xc(%esp)
    1b23:	89 55 98             	mov    %edx,-0x68(%ebp)
    1b26:	0f b6 4d a4          	movzbl -0x5c(%ebp),%ecx
    1b2a:	89 3c 24             	mov    %edi,(%esp)
    1b2d:	89 4c 24 04          	mov    %ecx,0x4(%esp)
    1b31:	ff d0                	call   *%eax
    1b33:	8b 55 98             	mov    -0x68(%ebp),%edx
    1b36:	85 c0                	test   %eax,%eax
    1b38:	0f 84 e5 fe ff ff    	je     1a23 <bd_conn+0x1e3>
    1b3e:	8b 45 b4             	mov    -0x4c(%ebp),%eax
    1b41:	c7 44 24 04 fe ff ff 	movl   $0xfffffffe,0x4(%esp)
    1b48:	ff 
    1b49:	89 04 24             	mov    %eax,(%esp)
    1b4c:	e8 2f 1c 01 00       	call   13780 <async_answer_0>
    1b51:	c7 44 24 04 fe ff ff 	movl   $0xfffffffe,0x4(%esp)
    1b58:	ff 
    1b59:	89 34 24             	mov    %esi,(%esp)
    1b5c:	e8 1f 1c 01 00       	call   13780 <async_answer_0>
    1b61:	e9 4a fd ff ff       	jmp    18b0 <bd_conn+0x70>
    1b66:	b8 fe ff ff ff       	mov    $0xfffffffe,%eax
    1b6b:	90                   	nop
    1b6c:	8d 74 26 00          	lea    0x0(%esi,%eiz,1),%esi
    1b70:	83 c4 7c             	add    $0x7c,%esp
    1b73:	5b                   	pop    %ebx
    1b74:	5e                   	pop    %esi
    1b75:	5f                   	pop    %edi
    1b76:	5d                   	pop    %ebp
    1b77:	c3                   	ret    
    1b78:	89 34 24             	mov    %esi,(%esp)
    1b7b:	c7 44 24 04 00 00 00 	movl   $0x0,0x4(%esp)
    1b82:	00 
    1b83:	e8 f8 1b 01 00       	call   13780 <async_answer_0>
    1b88:	8b 55 10             	mov    0x10(%ebp),%edx
    1b8b:	8b 02                	mov    (%edx),%eax
    1b8d:	89 3c 24             	mov    %edi,(%esp)
    1b90:	ff 50 04             	call   *0x4(%eax)
    1b93:	89 3c 24             	mov    %edi,(%esp)
    1b96:	89 45 98             	mov    %eax,-0x68(%ebp)
    1b99:	e8 b2 f1 00 00       	call   10d50 <free>
    1b9e:	8b 45 98             	mov    -0x68(%ebp),%eax
    1ba1:	83 c4 7c             	add    $0x7c,%esp
    1ba4:	5b                   	pop    %ebx
    1ba5:	5e                   	pop    %esi
    1ba6:	5f                   	pop    %edi
    1ba7:	5d                   	pop    %ebp
    1ba8:	c3                   	ret    
    1ba9:	8d b4 26 00 00 00 00 	lea    0x0(%esi,%eiz,1),%esi
    1bb0:	c7 44 24 04 f5 ff ff 	movl   $0xfffffff5,0x4(%esp)
    1bb7:	ff 
    1bb8:	89 34 24             	mov    %esi,(%esp)
    1bbb:	e8 c0 1b 01 00       	call   13780 <async_answer_0>
    1bc0:	e9 eb fc ff ff       	jmp    18b0 <bd_conn+0x70>
    1bc5:	8d 76 00             	lea    0x0(%esi),%esi
    1bc8:	8b 45 b4             	mov    -0x4c(%ebp),%eax
    1bcb:	c7 44 24 04 f5 ff ff 	movl   $0xfffffff5,0x4(%esp)
    1bd2:	ff 
    1bd3:	89 04 24             	mov    %eax,(%esp)
    1bd6:	e8 a5 1b 01 00       	call   13780 <async_answer_0>
    1bdb:	c7 44 24 04 f5 ff ff 	movl   $0xfffffff5,0x4(%esp)
    1be2:	ff 
    1be3:	89 34 24             	mov    %esi,(%esp)
    1be6:	e8 95 1b 01 00       	call   13780 <async_answer_0>
    1beb:	e9 c0 fc ff ff       	jmp    18b0 <bd_conn+0x70>

00001bf0 <loc_cb_conn>:
    1bf0:	55                   	push   %ebp
    1bf1:	89 e5                	mov    %esp,%ebp
    1bf3:	56                   	push   %esi
    1bf4:	53                   	push   %ebx
    1bf5:	83 ec 50             	sub    $0x50,%esp
    1bf8:	8d 5d d4             	lea    -0x2c(%ebp),%ebx
    1bfb:	90                   	nop
    1bfc:	8d 74 26 00          	lea    0x0(%esi,%eiz,1),%esi
    1c00:	c7 44 24 04 00 00 00 	movl   $0x0,0x4(%esp)
    1c07:	00 
    1c08:	89 1c 24             	mov    %ebx,(%esp)
    1c0b:	e8 40 05 01 00       	call   12150 <async_get_call_timeout>
    1c10:	8b 55 d4             	mov    -0x2c(%ebp),%edx
    1c13:	85 d2                	test   %edx,%edx
    1c15:	74 61                	je     1c78 <loc_cb_conn+0x88>
    1c17:	81 fa 00 04 00 00    	cmp    $0x400,%edx
    1c1d:	74 19                	je     1c38 <loc_cb_conn+0x48>
    1c1f:	c7 44 24 04 f5 ff ff 	movl   $0xfffffff5,0x4(%esp)
    1c26:	ff 
    1c27:	89 04 24             	mov    %eax,(%esp)
    1c2a:	e8 51 1b 01 00       	call   13780 <async_answer_0>
    1c2f:	eb cf                	jmp    1c00 <loc_cb_conn+0x10>
    1c31:	8d b4 26 00 00 00 00 	lea    0x0(%esi,%eiz,1),%esi
    1c38:	c7 04 24 dc 0b 02 00 	movl   $0x20bdc,(%esp)
    1c3f:	89 45 c4             	mov    %eax,-0x3c(%ebp)
    1c42:	e8 e9 63 00 00       	call   8030 <fibril_mutex_lock>
    1c47:	c7 04 24 dc 0b 02 00 	movl   $0x20bdc,(%esp)
    1c4e:	8b 35 f4 0d 02 00    	mov    0x20df4,%esi
    1c54:	e8 f7 64 00 00       	call   8150 <fibril_mutex_unlock>
    1c59:	8b 45 c4             	mov    -0x3c(%ebp),%eax
    1c5c:	c7 44 24 04 00 00 00 	movl   $0x0,0x4(%esp)
    1c63:	00 
    1c64:	89 04 24             	mov    %eax,(%esp)
    1c67:	e8 14 1b 01 00       	call   13780 <async_answer_0>
    1c6c:	85 f6                	test   %esi,%esi
    1c6e:	74 90                	je     1c00 <loc_cb_conn+0x10>
    1c70:	ff d6                	call   *%esi
    1c72:	eb 8c                	jmp    1c00 <loc_cb_conn+0x10>
    1c74:	8d 74 26 00          	lea    0x0(%esi,%eiz,1),%esi
    1c78:	83 c4 50             	add    $0x50,%esp
    1c7b:	5b                   	pop    %ebx
    1c7c:	5e                   	pop    %esi
    1c7d:	5d                   	pop    %ebp
    1c7e:	c3                   	ret    
    1c7f:	90                   	nop

00001c80 <loc_exchange_begin.part.0>:
    1c80:	55                   	push   %ebp
    1c81:	89 e5                	mov    %esp,%ebp
    1c83:	83 ec 18             	sub    $0x18,%esp
    1c86:	c7 04 24 ac 0b 02 00 	movl   $0x20bac,(%esp)
    1c8d:	e8 9e 63 00 00       	call   8030 <fibril_mutex_lock>
    1c92:	a1 e4 0d 02 00       	mov    0x20de4,%eax
    1c97:	85 c0                	test   %eax,%eax
    1c99:	74 25                	je     1cc0 <loc_exchange_begin.part.0+0x40>
    1c9b:	c7 04 24 ac 0b 02 00 	movl   $0x20bac,(%esp)
    1ca2:	e8 a9 64 00 00       	call   8150 <fibril_mutex_unlock>
    1ca7:	a1 e4 0d 02 00       	mov    0x20de4,%eax
    1cac:	85 c0                	test   %eax,%eax
    1cae:	74 40                	je     1cf0 <loc_exchange_begin.part.0+0x70>
    1cb0:	89 04 24             	mov    %eax,(%esp)
    1cb3:	e8 c8 24 01 00       	call   14180 <async_exchange_begin>
    1cb8:	c9                   	leave  
    1cb9:	c3                   	ret    
    1cba:	8d b6 00 00 00 00    	lea    0x0(%esi),%esi
    1cc0:	c7 44 24 0c 00 00 00 	movl   $0x0,0xc(%esp)
    1cc7:	00 
    1cc8:	c7 44 24 08 01 00 00 	movl   $0x1,0x8(%esp)
    1ccf:	00 
    1cd0:	c7 44 24 04 6c 6f 63 	movl   $0x20636f6c,0x4(%esp)
    1cd7:	20 
    1cd8:	c7 04 24 02 00 00 00 	movl   $0x2,(%esp)
    1cdf:	e8 6c f7 00 00       	call   11450 <service_connect>
    1ce4:	a3 e4 0d 02 00       	mov    %eax,0x20de4
    1ce9:	eb b0                	jmp    1c9b <loc_exchange_begin.part.0+0x1b>
    1ceb:	90                   	nop
    1cec:	8d 74 26 00          	lea    0x0(%esi,%eiz,1),%esi
    1cf0:	31 c0                	xor    %eax,%eax
    1cf2:	c9                   	leave  
    1cf3:	c3                   	ret    
    1cf4:	8d b6 00 00 00 00    	lea    0x0(%esi),%esi
    1cfa:	8d bf 00 00 00 00    	lea    0x0(%edi),%edi

00001d00 <loc_get_name_internal>:
    1d00:	55                   	push   %ebp
    1d01:	89 e5                	mov    %esp,%ebp
    1d03:	57                   	push   %edi
    1d04:	56                   	push   %esi
    1d05:	53                   	push   %ebx
    1d06:	81 ec 8c 01 00 00    	sub    $0x18c,%esp
    1d0c:	c7 01 00 00 00 00    	movl   $0x0,(%ecx)
    1d12:	89 85 94 fe ff ff    	mov    %eax,-0x16c(%ebp)
    1d18:	89 d7                	mov    %edx,%edi
    1d1a:	c7 04 24 bc 0b 02 00 	movl   $0x20bbc,(%esp)
    1d21:	89 ce                	mov    %ecx,%esi
    1d23:	e8 08 63 00 00       	call   8030 <fibril_mutex_lock>
    1d28:	a1 f0 0d 02 00       	mov    0x20df0,%eax
    1d2d:	85 c0                	test   %eax,%eax
    1d2f:	75 39                	jne    1d6a <loc_get_name_internal+0x6a>
    1d31:	c7 04 24 cc 0b 02 00 	movl   $0x20bcc,(%esp)
    1d38:	8b 1d ec 0d 02 00    	mov    0x20dec,%ebx
    1d3e:	e8 ed 62 00 00       	call   8030 <fibril_mutex_lock>
    1d43:	a1 f0 0d 02 00       	mov    0x20df0,%eax
    1d48:	85 c0                	test   %eax,%eax
    1d4a:	0f 84 40 01 00 00    	je     1e90 <loc_get_name_internal+0x190>
    1d50:	c7 04 24 cc 0b 02 00 	movl   $0x20bcc,(%esp)
    1d57:	e8 f4 63 00 00       	call   8150 <fibril_mutex_unlock>
    1d5c:	8b 1d f0 0d 02 00    	mov    0x20df0,%ebx
    1d62:	85 db                	test   %ebx,%ebx
    1d64:	0f 84 3e 01 00 00    	je     1ea8 <loc_get_name_internal+0x1a8>
    1d6a:	c7 04 24 bc 0b 02 00 	movl   $0x20bbc,(%esp)
    1d71:	e8 da 63 00 00       	call   8150 <fibril_mutex_unlock>
    1d76:	c7 04 24 cc 0b 02 00 	movl   $0x20bcc,(%esp)
    1d7d:	8b 1d f0 0d 02 00    	mov    0x20df0,%ebx
    1d83:	e8 a8 62 00 00       	call   8030 <fibril_mutex_lock>
    1d88:	8b 0d ec 0d 02 00    	mov    0x20dec,%ecx
    1d8e:	85 c9                	test   %ecx,%ecx
    1d90:	0f 84 62 01 00 00    	je     1ef8 <loc_get_name_internal+0x1f8>
    1d96:	c7 04 24 cc 0b 02 00 	movl   $0x20bcc,(%esp)
    1d9d:	e8 ae 63 00 00       	call   8150 <fibril_mutex_unlock>
    1da2:	a1 f0 0d 02 00       	mov    0x20df0,%eax
    1da7:	89 04 24             	mov    %eax,(%esp)
    1daa:	e8 d1 23 01 00       	call   14180 <async_exchange_begin>
    1daf:	89 7c 24 08          	mov    %edi,0x8(%esp)
    1db3:	89 c3                	mov    %eax,%ebx
    1db5:	8d 85 c4 fe ff ff    	lea    -0x13c(%ebp),%eax
    1dbb:	89 44 24 18          	mov    %eax,0x18(%esp)
    1dbf:	8b 85 94 fe ff ff    	mov    -0x16c(%ebp),%eax
    1dc5:	c7 44 24 14 00 00 00 	movl   $0x0,0x14(%esp)
    1dcc:	00 
    1dcd:	c7 44 24 10 00 00 00 	movl   $0x0,0x10(%esp)
    1dd4:	00 
    1dd5:	c7 44 24 0c 00 00 00 	movl   $0x0,0xc(%esp)
    1ddc:	00 
    1ddd:	89 44 24 04          	mov    %eax,0x4(%esp)
    1de1:	89 1c 24             	mov    %ebx,(%esp)
    1de4:	e8 37 0d 01 00       	call   12b20 <async_send_fast>
    1de9:	c7 44 24 08 ff 00 00 	movl   $0xff,0x8(%esp)
    1df0:	00 
    1df1:	89 c7                	mov    %eax,%edi
    1df3:	8d 85 a0 fe ff ff    	lea    -0x160(%ebp),%eax
    1df9:	89 44 24 0c          	mov    %eax,0xc(%esp)
    1dfd:	8d 85 e8 fe ff ff    	lea    -0x118(%ebp),%eax
    1e03:	89 44 24 04          	mov    %eax,0x4(%esp)
    1e07:	89 1c 24             	mov    %ebx,(%esp)
    1e0a:	e8 61 2c 01 00       	call   14a70 <async_data_read>
    1e0f:	8d 8d 98 fe ff ff    	lea    -0x168(%ebp),%ecx
    1e15:	89 4c 24 04          	mov    %ecx,0x4(%esp)
    1e19:	89 04 24             	mov    %eax,(%esp)
    1e1c:	e8 cf 0e 01 00       	call   12cf0 <async_wait_for>
    1e21:	89 1c 24             	mov    %ebx,(%esp)
    1e24:	e8 c7 26 01 00       	call   144f0 <async_exchange_end>
    1e29:	8b 95 98 fe ff ff    	mov    -0x168(%ebp),%edx
    1e2f:	85 d2                	test   %edx,%edx
    1e31:	0f 85 a1 00 00 00    	jne    1ed8 <loc_get_name_internal+0x1d8>
    1e37:	8d 85 9c fe ff ff    	lea    -0x164(%ebp),%eax
    1e3d:	89 3c 24             	mov    %edi,(%esp)
    1e40:	89 44 24 04          	mov    %eax,0x4(%esp)
    1e44:	e8 a7 0e 01 00       	call   12cf0 <async_wait_for>
    1e49:	8b 85 9c fe ff ff    	mov    -0x164(%ebp),%eax
    1e4f:	85 c0                	test   %eax,%eax
    1e51:	75 31                	jne    1e84 <loc_get_name_internal+0x184>
    1e53:	8b 85 a8 fe ff ff    	mov    -0x158(%ebp),%eax
    1e59:	3d ff 00 00 00       	cmp    $0xff,%eax
    1e5e:	0f 87 a7 00 00 00    	ja     1f0b <loc_get_name_internal+0x20b>
    1e64:	c6 84 05 e8 fe ff ff 	movb   $0x0,-0x118(%ebp,%eax,1)
    1e6b:	00 
    1e6c:	8d 85 e8 fe ff ff    	lea    -0x118(%ebp),%eax
    1e72:	89 04 24             	mov    %eax,(%esp)
    1e75:	e8 36 4f 00 00       	call   6db0 <str_dup>
    1e7a:	83 f8 01             	cmp    $0x1,%eax
    1e7d:	89 06                	mov    %eax,(%esi)
    1e7f:	19 c0                	sbb    %eax,%eax
    1e81:	83 e0 fe             	and    $0xfffffffe,%eax
    1e84:	81 c4 8c 01 00 00    	add    $0x18c,%esp
    1e8a:	5b                   	pop    %ebx
    1e8b:	5e                   	pop    %esi
    1e8c:	5f                   	pop    %edi
    1e8d:	5d                   	pop    %ebp
    1e8e:	c3                   	ret    
    1e8f:	90                   	nop
    1e90:	85 db                	test   %ebx,%ebx
    1e92:	0f 84 b8 fe ff ff    	je     1d50 <loc_get_name_internal+0x50>
    1e98:	89 1d f0 0d 02 00    	mov    %ebx,0x20df0
    1e9e:	e9 ad fe ff ff       	jmp    1d50 <loc_get_name_internal+0x50>
    1ea3:	90                   	nop
    1ea4:	8d 74 26 00          	lea    0x0(%esi,%eiz,1),%esi
    1ea8:	c7 44 24 0c 00 00 00 	movl   $0x0,0xc(%esp)
    1eaf:	00 
    1eb0:	c7 44 24 08 02 00 00 	movl   $0x2,0x8(%esp)
    1eb7:	00 
    1eb8:	c7 44 24 04 6c 6f 63 	movl   $0x20636f6c,0x4(%esp)
    1ebf:	20 
    1ec0:	c7 04 24 02 00 00 00 	movl   $0x2,(%esp)
    1ec7:	e8 04 f6 00 00       	call   114d0 <service_connect_blocking>
    1ecc:	a3 f0 0d 02 00       	mov    %eax,0x20df0
    1ed1:	e9 57 fe ff ff       	jmp    1d2d <loc_get_name_internal+0x2d>
    1ed6:	66 90                	xchg   %ax,%ax
    1ed8:	89 3c 24             	mov    %edi,(%esp)
    1edb:	e8 60 10 01 00       	call   12f40 <async_forget>
    1ee0:	8b 85 98 fe ff ff    	mov    -0x168(%ebp),%eax
    1ee6:	81 c4 8c 01 00 00    	add    $0x18c,%esp
    1eec:	5b                   	pop    %ebx
    1eed:	5e                   	pop    %esi
    1eee:	5f                   	pop    %edi
    1eef:	5d                   	pop    %ebp
    1ef0:	c3                   	ret    
    1ef1:	8d b4 26 00 00 00 00 	lea    0x0(%esi,%eiz,1),%esi
    1ef8:	85 db                	test   %ebx,%ebx
    1efa:	0f 84 96 fe ff ff    	je     1d96 <loc_get_name_internal+0x96>
    1f00:	89 1d ec 0d 02 00    	mov    %ebx,0x20dec
    1f06:	e9 8b fe ff ff       	jmp    1d96 <loc_get_name_internal+0x96>
    1f0b:	c7 44 24 08 9e 01 00 	movl   $0x19e,0x8(%esp)
    1f12:	00 
    1f13:	c7 44 24 04 54 e2 01 	movl   $0x1e254,0x4(%esp)
    1f1a:	00 
    1f1b:	c7 04 24 62 e2 01 00 	movl   $0x1e262,(%esp)
    1f22:	e8 f9 94 01 00       	call   1b420 <assert_abort>
    1f27:	89 f6                	mov    %esi,%esi
    1f29:	8d bc 27 00 00 00 00 	lea    0x0(%edi,%eiz,1),%edi

00001f30 <loc_get_ids_internal>:
    1f30:	55                   	push   %ebp
    1f31:	89 e5                	mov    %esp,%ebp
    1f33:	57                   	push   %edi
    1f34:	56                   	push   %esi
    1f35:	53                   	push   %ebx
    1f36:	83 ec 7c             	sub    $0x7c,%esp
    1f39:	89 55 ac             	mov    %edx,-0x54(%ebp)
    1f3c:	8b 55 08             	mov    0x8(%ebp),%edx
    1f3f:	c7 01 00 00 00 00    	movl   $0x0,(%ecx)
    1f45:	89 45 b0             	mov    %eax,-0x50(%ebp)
    1f48:	89 4d a8             	mov    %ecx,-0x58(%ebp)
    1f4b:	c7 02 00 00 00 00    	movl   $0x0,(%edx)
    1f51:	c7 04 24 bc 0b 02 00 	movl   $0x20bbc,(%esp)
    1f58:	e8 d3 60 00 00       	call   8030 <fibril_mutex_lock>
    1f5d:	a1 f0 0d 02 00       	mov    0x20df0,%eax
    1f62:	85 c0                	test   %eax,%eax
    1f64:	75 39                	jne    1f9f <loc_get_ids_internal+0x6f>
    1f66:	c7 04 24 cc 0b 02 00 	movl   $0x20bcc,(%esp)
    1f6d:	8b 1d ec 0d 02 00    	mov    0x20dec,%ebx
    1f73:	e8 b8 60 00 00       	call   8030 <fibril_mutex_lock>
    1f78:	8b 15 f0 0d 02 00    	mov    0x20df0,%edx
    1f7e:	85 d2                	test   %edx,%edx
    1f80:	0f 84 5a 02 00 00    	je     21e0 <loc_get_ids_internal+0x2b0>
    1f86:	c7 04 24 cc 0b 02 00 	movl   $0x20bcc,(%esp)
    1f8d:	e8 be 61 00 00       	call   8150 <fibril_mutex_unlock>
    1f92:	a1 f0 0d 02 00       	mov    0x20df0,%eax
    1f97:	85 c0                	test   %eax,%eax
    1f99:	0f 84 59 02 00 00    	je     21f8 <loc_get_ids_internal+0x2c8>
    1f9f:	c7 04 24 bc 0b 02 00 	movl   $0x20bbc,(%esp)
    1fa6:	e8 a5 61 00 00       	call   8150 <fibril_mutex_unlock>
    1fab:	c7 04 24 cc 0b 02 00 	movl   $0x20bcc,(%esp)
    1fb2:	8b 1d f0 0d 02 00    	mov    0x20df0,%ebx
    1fb8:	e8 73 60 00 00       	call   8030 <fibril_mutex_lock>
    1fbd:	a1 ec 0d 02 00       	mov    0x20dec,%eax
    1fc2:	85 c0                	test   %eax,%eax
    1fc4:	0f 84 d5 02 00 00    	je     229f <loc_get_ids_internal+0x36f>
    1fca:	c7 04 24 cc 0b 02 00 	movl   $0x20bcc,(%esp)
    1fd1:	e8 7a 61 00 00       	call   8150 <fibril_mutex_unlock>
    1fd6:	a1 f0 0d 02 00       	mov    0x20df0,%eax
    1fdb:	89 04 24             	mov    %eax,(%esp)
    1fde:	e8 9d 21 01 00       	call   14180 <async_exchange_begin>
    1fe3:	8b 55 ac             	mov    -0x54(%ebp),%edx
    1fe6:	89 c6                	mov    %eax,%esi
    1fe8:	8d 45 c4             	lea    -0x3c(%ebp),%eax
    1feb:	89 44 24 18          	mov    %eax,0x18(%esp)
    1fef:	8b 45 b0             	mov    -0x50(%ebp),%eax
    1ff2:	89 54 24 08          	mov    %edx,0x8(%esp)
    1ff6:	c7 44 24 14 00 00 00 	movl   $0x0,0x14(%esp)
    1ffd:	00 
    1ffe:	c7 44 24 10 00 00 00 	movl   $0x0,0x10(%esp)
    2005:	00 
    2006:	c7 44 24 0c 00 00 00 	movl   $0x0,0xc(%esp)
    200d:	00 
    200e:	89 44 24 04          	mov    %eax,0x4(%esp)
    2012:	89 34 24             	mov    %esi,(%esp)
    2015:	e8 06 0b 01 00       	call   12b20 <async_send_fast>
    201a:	c7 44 24 08 00 00 00 	movl   $0x0,0x8(%esp)
    2021:	00 
    2022:	c7 44 24 04 00 00 00 	movl   $0x0,0x4(%esp)
    2029:	00 
    202a:	89 34 24             	mov    %esi,(%esp)
    202d:	89 c3                	mov    %eax,%ebx
    202f:	e8 1c 2b 01 00       	call   14b50 <async_data_read_start>
    2034:	89 34 24             	mov    %esi,(%esp)
    2037:	89 c7                	mov    %eax,%edi
    2039:	e8 b2 24 01 00       	call   144f0 <async_exchange_end>
    203e:	85 ff                	test   %edi,%edi
    2040:	0f 85 3d 02 00 00    	jne    2283 <loc_get_ids_internal+0x353>
    2046:	8d 55 c0             	lea    -0x40(%ebp),%edx
    2049:	89 1c 24             	mov    %ebx,(%esp)
    204c:	89 54 24 04          	mov    %edx,0x4(%esp)
    2050:	e8 9b 0c 01 00       	call   12cf0 <async_wait_for>
    2055:	8b 45 c0             	mov    -0x40(%ebp),%eax
    2058:	85 c0                	test   %eax,%eax
    205a:	0f 85 72 01 00 00    	jne    21d2 <loc_get_ids_internal+0x2a2>
    2060:	8b 7d c8             	mov    -0x38(%ebp),%edi
    2063:	89 3c 24             	mov    %edi,(%esp)
    2066:	e8 d5 eb 00 00       	call   10c40 <malloc>
    206b:	89 c6                	mov    %eax,%esi
    206d:	85 c0                	test   %eax,%eax
    206f:	0f 85 0a 01 00 00    	jne    217f <loc_get_ids_internal+0x24f>
    2075:	e9 1b 02 00 00       	jmp    2295 <loc_get_ids_internal+0x365>
    207a:	8d b6 00 00 00 00    	lea    0x0(%esi),%esi
    2080:	c7 04 24 cc 0b 02 00 	movl   $0x20bcc,(%esp)
    2087:	e8 c4 60 00 00       	call   8150 <fibril_mutex_unlock>
    208c:	a1 f0 0d 02 00       	mov    0x20df0,%eax
    2091:	85 c0                	test   %eax,%eax
    2093:	0f 84 8f 01 00 00    	je     2228 <loc_get_ids_internal+0x2f8>
    2099:	c7 04 24 bc 0b 02 00 	movl   $0x20bbc,(%esp)
    20a0:	e8 ab 60 00 00       	call   8150 <fibril_mutex_unlock>
    20a5:	c7 04 24 cc 0b 02 00 	movl   $0x20bcc,(%esp)
    20ac:	8b 1d f0 0d 02 00    	mov    0x20df0,%ebx
    20b2:	e8 79 5f 00 00       	call   8030 <fibril_mutex_lock>
    20b7:	a1 ec 0d 02 00       	mov    0x20dec,%eax
    20bc:	85 c0                	test   %eax,%eax
    20be:	0f 84 ac 01 00 00    	je     2270 <loc_get_ids_internal+0x340>
    20c4:	c7 04 24 cc 0b 02 00 	movl   $0x20bcc,(%esp)
    20cb:	e8 80 60 00 00       	call   8150 <fibril_mutex_unlock>
    20d0:	a1 f0 0d 02 00       	mov    0x20df0,%eax
    20d5:	89 04 24             	mov    %eax,(%esp)
    20d8:	e8 a3 20 01 00       	call   14180 <async_exchange_begin>
    20dd:	8b 55 ac             	mov    -0x54(%ebp),%edx
    20e0:	89 c3                	mov    %eax,%ebx
    20e2:	8d 45 c4             	lea    -0x3c(%ebp),%eax
    20e5:	89 44 24 18          	mov    %eax,0x18(%esp)
    20e9:	8b 45 b0             	mov    -0x50(%ebp),%eax
    20ec:	89 54 24 08          	mov    %edx,0x8(%esp)
    20f0:	c7 44 24 14 00 00 00 	movl   $0x0,0x14(%esp)
    20f7:	00 
    20f8:	c7 44 24 10 00 00 00 	movl   $0x0,0x10(%esp)
    20ff:	00 
    2100:	c7 44 24 0c 00 00 00 	movl   $0x0,0xc(%esp)
    2107:	00 
    2108:	89 44 24 04          	mov    %eax,0x4(%esp)
    210c:	89 1c 24             	mov    %ebx,(%esp)
    210f:	e8 0c 0a 01 00       	call   12b20 <async_send_fast>
    2114:	89 7c 24 08          	mov    %edi,0x8(%esp)
    2118:	89 74 24 04          	mov    %esi,0x4(%esp)
    211c:	89 1c 24             	mov    %ebx,(%esp)
    211f:	89 45 b4             	mov    %eax,-0x4c(%ebp)
    2122:	e8 29 2a 01 00       	call   14b50 <async_data_read_start>
    2127:	89 1c 24             	mov    %ebx,(%esp)
    212a:	89 45 a4             	mov    %eax,-0x5c(%ebp)
    212d:	e8 be 23 01 00       	call   144f0 <async_exchange_end>
    2132:	8b 45 a4             	mov    -0x5c(%ebp),%eax
    2135:	85 c0                	test   %eax,%eax
    2137:	0f 85 1b 01 00 00    	jne    2258 <loc_get_ids_internal+0x328>
    213d:	8d 55 c0             	lea    -0x40(%ebp),%edx
    2140:	89 45 a4             	mov    %eax,-0x5c(%ebp)
    2143:	89 54 24 04          	mov    %edx,0x4(%esp)
    2147:	8b 55 b4             	mov    -0x4c(%ebp),%edx
    214a:	89 14 24             	mov    %edx,(%esp)
    214d:	e8 9e 0b 01 00       	call   12cf0 <async_wait_for>
    2152:	8b 55 c0             	mov    -0x40(%ebp),%edx
    2155:	85 d2                	test   %edx,%edx
    2157:	8b 45 a4             	mov    -0x5c(%ebp),%eax
    215a:	75 74                	jne    21d0 <loc_get_ids_internal+0x2a0>
    215c:	8b 5d c8             	mov    -0x38(%ebp),%ebx
    215f:	39 df                	cmp    %ebx,%edi
    2161:	0f 83 4b 01 00 00    	jae    22b2 <loc_get_ids_internal+0x382>
    2167:	89 34 24             	mov    %esi,(%esp)
    216a:	89 5c 24 04          	mov    %ebx,0x4(%esp)
    216e:	e8 2d ee 00 00       	call   10fa0 <realloc>
    2173:	89 df                	mov    %ebx,%edi
    2175:	89 c6                	mov    %eax,%esi
    2177:	85 c0                	test   %eax,%eax
    2179:	0f 84 16 01 00 00    	je     2295 <loc_get_ids_internal+0x365>
    217f:	c7 04 24 bc 0b 02 00 	movl   $0x20bbc,(%esp)
    2186:	e8 a5 5e 00 00       	call   8030 <fibril_mutex_lock>
    218b:	a1 f0 0d 02 00       	mov    0x20df0,%eax
    2190:	85 c0                	test   %eax,%eax
    2192:	0f 85 01 ff ff ff    	jne    2099 <loc_get_ids_internal+0x169>
    2198:	c7 04 24 cc 0b 02 00 	movl   $0x20bcc,(%esp)
    219f:	8b 1d ec 0d 02 00    	mov    0x20dec,%ebx
    21a5:	e8 86 5e 00 00       	call   8030 <fibril_mutex_lock>
    21aa:	a1 f0 0d 02 00       	mov    0x20df0,%eax
    21af:	85 c0                	test   %eax,%eax
    21b1:	0f 85 c9 fe ff ff    	jne    2080 <loc_get_ids_internal+0x150>
    21b7:	85 db                	test   %ebx,%ebx
    21b9:	0f 84 c1 fe ff ff    	je     2080 <loc_get_ids_internal+0x150>
    21bf:	89 1d f0 0d 02 00    	mov    %ebx,0x20df0
    21c5:	e9 b6 fe ff ff       	jmp    2080 <loc_get_ids_internal+0x150>
    21ca:	8d b6 00 00 00 00    	lea    0x0(%esi),%esi
    21d0:	89 d0                	mov    %edx,%eax
    21d2:	89 c7                	mov    %eax,%edi
    21d4:	83 c4 7c             	add    $0x7c,%esp
    21d7:	89 f8                	mov    %edi,%eax
    21d9:	5b                   	pop    %ebx
    21da:	5e                   	pop    %esi
    21db:	5f                   	pop    %edi
    21dc:	5d                   	pop    %ebp
    21dd:	c3                   	ret    
    21de:	66 90                	xchg   %ax,%ax
    21e0:	85 db                	test   %ebx,%ebx
    21e2:	0f 84 9e fd ff ff    	je     1f86 <loc_get_ids_internal+0x56>
    21e8:	89 1d f0 0d 02 00    	mov    %ebx,0x20df0
    21ee:	e9 93 fd ff ff       	jmp    1f86 <loc_get_ids_internal+0x56>
    21f3:	90                   	nop
    21f4:	8d 74 26 00          	lea    0x0(%esi,%eiz,1),%esi
    21f8:	c7 44 24 0c 00 00 00 	movl   $0x0,0xc(%esp)
    21ff:	00 
    2200:	c7 44 24 08 02 00 00 	movl   $0x2,0x8(%esp)
    2207:	00 
    2208:	c7 44 24 04 6c 6f 63 	movl   $0x20636f6c,0x4(%esp)
    220f:	20 
    2210:	c7 04 24 02 00 00 00 	movl   $0x2,(%esp)
    2217:	e8 b4 f2 00 00       	call   114d0 <service_connect_blocking>
    221c:	a3 f0 0d 02 00       	mov    %eax,0x20df0
    2221:	e9 3c fd ff ff       	jmp    1f62 <loc_get_ids_internal+0x32>
    2226:	66 90                	xchg   %ax,%ax
    2228:	c7 44 24 0c 00 00 00 	movl   $0x0,0xc(%esp)
    222f:	00 
    2230:	c7 44 24 08 02 00 00 	movl   $0x2,0x8(%esp)
    2237:	00 
    2238:	c7 44 24 04 6c 6f 63 	movl   $0x20636f6c,0x4(%esp)
    223f:	20 
    2240:	c7 04 24 02 00 00 00 	movl   $0x2,(%esp)
    2247:	e8 84 f2 00 00       	call   114d0 <service_connect_blocking>
    224c:	a3 f0 0d 02 00       	mov    %eax,0x20df0
    2251:	e9 3a ff ff ff       	jmp    2190 <loc_get_ids_internal+0x260>
    2256:	66 90                	xchg   %ax,%ax
    2258:	89 c7                	mov    %eax,%edi
    225a:	8b 45 b4             	mov    -0x4c(%ebp),%eax
    225d:	89 04 24             	mov    %eax,(%esp)
    2260:	e8 db 0c 01 00       	call   12f40 <async_forget>
    2265:	83 c4 7c             	add    $0x7c,%esp
    2268:	89 f8                	mov    %edi,%eax
    226a:	5b                   	pop    %ebx
    226b:	5e                   	pop    %esi
    226c:	5f                   	pop    %edi
    226d:	5d                   	pop    %ebp
    226e:	c3                   	ret    
    226f:	90                   	nop
    2270:	85 db                	test   %ebx,%ebx
    2272:	0f 84 4c fe ff ff    	je     20c4 <loc_get_ids_internal+0x194>
    2278:	89 1d ec 0d 02 00    	mov    %ebx,0x20dec
    227e:	e9 41 fe ff ff       	jmp    20c4 <loc_get_ids_internal+0x194>
    2283:	89 1c 24             	mov    %ebx,(%esp)
    2286:	e8 b5 0c 01 00       	call   12f40 <async_forget>
    228b:	83 c4 7c             	add    $0x7c,%esp
    228e:	89 f8                	mov    %edi,%eax
    2290:	5b                   	pop    %ebx
    2291:	5e                   	pop    %esi
    2292:	5f                   	pop    %edi
    2293:	5d                   	pop    %ebp
    2294:	c3                   	ret    
    2295:	bf fe ff ff ff       	mov    $0xfffffffe,%edi
    229a:	e9 35 ff ff ff       	jmp    21d4 <loc_get_ids_internal+0x2a4>
    229f:	85 db                	test   %ebx,%ebx
    22a1:	0f 84 23 fd ff ff    	je     1fca <loc_get_ids_internal+0x9a>
    22a7:	89 1d ec 0d 02 00    	mov    %ebx,0x20dec
    22ad:	e9 18 fd ff ff       	jmp    1fca <loc_get_ids_internal+0x9a>
    22b2:	89 c7                	mov    %eax,%edi
    22b4:	8b 55 08             	mov    0x8(%ebp),%edx
    22b7:	c1 eb 02             	shr    $0x2,%ebx
    22ba:	8b 45 a8             	mov    -0x58(%ebp),%eax
    22bd:	89 1a                	mov    %ebx,(%edx)
    22bf:	89 30                	mov    %esi,(%eax)
    22c1:	e9 0e ff ff ff       	jmp    21d4 <loc_get_ids_internal+0x2a4>
    22c6:	8d 76 00             	lea    0x0(%esi),%esi
    22c9:	8d bc 27 00 00 00 00 	lea    0x0(%edi,%eiz,1),%edi

000022d0 <loc_exchange_begin_blocking>:
    22d0:	55                   	push   %ebp
    22d1:	89 e5                	mov    %esp,%ebp
    22d3:	53                   	push   %ebx
    22d4:	83 ec 14             	sub    $0x14,%esp
    22d7:	8b 45 08             	mov    0x8(%ebp),%eax
    22da:	83 f8 01             	cmp    $0x1,%eax
    22dd:	74 11                	je     22f0 <loc_exchange_begin_blocking+0x20>
    22df:	83 f8 02             	cmp    $0x2,%eax
    22e2:	0f 84 b0 00 00 00    	je     2398 <loc_exchange_begin_blocking+0xc8>
    22e8:	83 c4 14             	add    $0x14,%esp
    22eb:	31 c0                	xor    %eax,%eax
    22ed:	5b                   	pop    %ebx
    22ee:	5d                   	pop    %ebp
    22ef:	c3                   	ret    
    22f0:	c7 04 24 9c 0b 02 00 	movl   $0x20b9c,(%esp)
    22f7:	e8 34 5d 00 00       	call   8030 <fibril_mutex_lock>
    22fc:	a1 e8 0d 02 00       	mov    0x20de8,%eax
    2301:	85 c0                	test   %eax,%eax
    2303:	75 34                	jne    2339 <loc_exchange_begin_blocking+0x69>
    2305:	c7 04 24 ac 0b 02 00 	movl   $0x20bac,(%esp)
    230c:	8b 1d e4 0d 02 00    	mov    0x20de4,%ebx
    2312:	e8 19 5d 00 00       	call   8030 <fibril_mutex_lock>
    2317:	a1 e8 0d 02 00       	mov    0x20de8,%eax
    231c:	85 c0                	test   %eax,%eax
    231e:	74 68                	je     2388 <loc_exchange_begin_blocking+0xb8>
    2320:	c7 04 24 ac 0b 02 00 	movl   $0x20bac,(%esp)
    2327:	e8 24 5e 00 00       	call   8150 <fibril_mutex_unlock>
    232c:	a1 e8 0d 02 00       	mov    0x20de8,%eax
    2331:	85 c0                	test   %eax,%eax
    2333:	0f 84 07 01 00 00    	je     2440 <loc_exchange_begin_blocking+0x170>
    2339:	c7 04 24 9c 0b 02 00 	movl   $0x20b9c,(%esp)
    2340:	e8 0b 5e 00 00       	call   8150 <fibril_mutex_unlock>
    2345:	c7 04 24 ac 0b 02 00 	movl   $0x20bac,(%esp)
    234c:	8b 1d e8 0d 02 00    	mov    0x20de8,%ebx
    2352:	e8 d9 5c 00 00       	call   8030 <fibril_mutex_lock>
    2357:	a1 e4 0d 02 00       	mov    0x20de4,%eax
    235c:	85 c0                	test   %eax,%eax
    235e:	0f 84 3c 01 00 00    	je     24a0 <loc_exchange_begin_blocking+0x1d0>
    2364:	c7 04 24 ac 0b 02 00 	movl   $0x20bac,(%esp)
    236b:	e8 e0 5d 00 00       	call   8150 <fibril_mutex_unlock>
    2370:	a1 e8 0d 02 00       	mov    0x20de8,%eax
    2375:	89 45 08             	mov    %eax,0x8(%ebp)
    2378:	83 c4 14             	add    $0x14,%esp
    237b:	5b                   	pop    %ebx
    237c:	5d                   	pop    %ebp
    237d:	e9 fe 1d 01 00       	jmp    14180 <async_exchange_begin>
    2382:	8d b6 00 00 00 00    	lea    0x0(%esi),%esi
    2388:	85 db                	test   %ebx,%ebx
    238a:	74 94                	je     2320 <loc_exchange_begin_blocking+0x50>
    238c:	89 1d e8 0d 02 00    	mov    %ebx,0x20de8
    2392:	eb 8c                	jmp    2320 <loc_exchange_begin_blocking+0x50>
    2394:	8d 74 26 00          	lea    0x0(%esi,%eiz,1),%esi
    2398:	c7 04 24 bc 0b 02 00 	movl   $0x20bbc,(%esp)
    239f:	e8 8c 5c 00 00       	call   8030 <fibril_mutex_lock>
    23a4:	a1 f0 0d 02 00       	mov    0x20df0,%eax
    23a9:	85 c0                	test   %eax,%eax
    23ab:	75 35                	jne    23e2 <loc_exchange_begin_blocking+0x112>
    23ad:	c7 04 24 cc 0b 02 00 	movl   $0x20bcc,(%esp)
    23b4:	8b 1d ec 0d 02 00    	mov    0x20dec,%ebx
    23ba:	e8 71 5c 00 00       	call   8030 <fibril_mutex_lock>
    23bf:	a1 f0 0d 02 00       	mov    0x20df0,%eax
    23c4:	85 c0                	test   %eax,%eax
    23c6:	74 68                	je     2430 <loc_exchange_begin_blocking+0x160>
    23c8:	c7 04 24 cc 0b 02 00 	movl   $0x20bcc,(%esp)
    23cf:	e8 7c 5d 00 00       	call   8150 <fibril_mutex_unlock>
    23d4:	8b 1d f0 0d 02 00    	mov    0x20df0,%ebx
    23da:	85 db                	test   %ebx,%ebx
    23dc:	0f 84 8e 00 00 00    	je     2470 <loc_exchange_begin_blocking+0x1a0>
    23e2:	c7 04 24 bc 0b 02 00 	movl   $0x20bbc,(%esp)
    23e9:	e8 62 5d 00 00       	call   8150 <fibril_mutex_unlock>
    23ee:	c7 04 24 cc 0b 02 00 	movl   $0x20bcc,(%esp)
    23f5:	8b 1d f0 0d 02 00    	mov    0x20df0,%ebx
    23fb:	e8 30 5c 00 00       	call   8030 <fibril_mutex_lock>
    2400:	8b 0d ec 0d 02 00    	mov    0x20dec,%ecx
    2406:	85 c9                	test   %ecx,%ecx
    2408:	0f 84 aa 00 00 00    	je     24b8 <loc_exchange_begin_blocking+0x1e8>
    240e:	c7 04 24 cc 0b 02 00 	movl   $0x20bcc,(%esp)
    2415:	e8 36 5d 00 00       	call   8150 <fibril_mutex_unlock>
    241a:	a1 f0 0d 02 00       	mov    0x20df0,%eax
    241f:	89 45 08             	mov    %eax,0x8(%ebp)
    2422:	83 c4 14             	add    $0x14,%esp
    2425:	5b                   	pop    %ebx
    2426:	5d                   	pop    %ebp
    2427:	e9 54 1d 01 00       	jmp    14180 <async_exchange_begin>
    242c:	8d 74 26 00          	lea    0x0(%esi,%eiz,1),%esi
    2430:	85 db                	test   %ebx,%ebx
    2432:	74 94                	je     23c8 <loc_exchange_begin_blocking+0xf8>
    2434:	89 1d f0 0d 02 00    	mov    %ebx,0x20df0
    243a:	eb 8c                	jmp    23c8 <loc_exchange_begin_blocking+0xf8>
    243c:	8d 74 26 00          	lea    0x0(%esi,%eiz,1),%esi
    2440:	c7 44 24 0c 00 00 00 	movl   $0x0,0xc(%esp)
    2447:	00 
    2448:	c7 44 24 08 01 00 00 	movl   $0x1,0x8(%esp)
    244f:	00 
    2450:	c7 44 24 04 6c 6f 63 	movl   $0x20636f6c,0x4(%esp)
    2457:	20 
    2458:	c7 04 24 02 00 00 00 	movl   $0x2,(%esp)
    245f:	e8 6c f0 00 00       	call   114d0 <service_connect_blocking>
    2464:	a3 e8 0d 02 00       	mov    %eax,0x20de8
    2469:	e9 93 fe ff ff       	jmp    2301 <loc_exchange_begin_blocking+0x31>
    246e:	66 90                	xchg   %ax,%ax
    2470:	c7 44 24 0c 00 00 00 	movl   $0x0,0xc(%esp)
    2477:	00 
    2478:	c7 44 24 08 02 00 00 	movl   $0x2,0x8(%esp)
    247f:	00 
    2480:	c7 44 24 04 6c 6f 63 	movl   $0x20636f6c,0x4(%esp)
    2487:	20 
    2488:	c7 04 24 02 00 00 00 	movl   $0x2,(%esp)
    248f:	e8 3c f0 00 00       	call   114d0 <service_connect_blocking>
    2494:	a3 f0 0d 02 00       	mov    %eax,0x20df0
    2499:	e9 0b ff ff ff       	jmp    23a9 <loc_exchange_begin_blocking+0xd9>
    249e:	66 90                	xchg   %ax,%ax
    24a0:	85 db                	test   %ebx,%ebx
    24a2:	0f 84 bc fe ff ff    	je     2364 <loc_exchange_begin_blocking+0x94>
    24a8:	89 1d e4 0d 02 00    	mov    %ebx,0x20de4
    24ae:	e9 b1 fe ff ff       	jmp    2364 <loc_exchange_begin_blocking+0x94>
    24b3:	90                   	nop
    24b4:	8d 74 26 00          	lea    0x0(%esi,%eiz,1),%esi
    24b8:	85 db                	test   %ebx,%ebx
    24ba:	0f 84 4e ff ff ff    	je     240e <loc_exchange_begin_blocking+0x13e>
    24c0:	89 1d ec 0d 02 00    	mov    %ebx,0x20dec
    24c6:	e9 43 ff ff ff       	jmp    240e <loc_exchange_begin_blocking+0x13e>
    24cb:	90                   	nop
    24cc:	8d 74 26 00          	lea    0x0(%esi,%eiz,1),%esi

000024d0 <loc_exchange_begin>:
    24d0:	55                   	push   %ebp
    24d1:	89 e5                	mov    %esp,%ebp
    24d3:	83 ec 18             	sub    $0x18,%esp
    24d6:	8b 45 08             	mov    0x8(%ebp),%eax
    24d9:	83 f8 01             	cmp    $0x1,%eax
    24dc:	74 0a                	je     24e8 <loc_exchange_begin+0x18>
    24de:	83 f8 02             	cmp    $0x2,%eax
    24e1:	74 3d                	je     2520 <loc_exchange_begin+0x50>
    24e3:	31 c0                	xor    %eax,%eax
    24e5:	c9                   	leave  
    24e6:	c3                   	ret    
    24e7:	90                   	nop
    24e8:	c7 04 24 ac 0b 02 00 	movl   $0x20bac,(%esp)
    24ef:	e8 3c 5b 00 00       	call   8030 <fibril_mutex_lock>
    24f4:	a1 e4 0d 02 00       	mov    0x20de4,%eax
    24f9:	85 c0                	test   %eax,%eax
    24fb:	74 5b                	je     2558 <loc_exchange_begin+0x88>
    24fd:	c7 04 24 ac 0b 02 00 	movl   $0x20bac,(%esp)
    2504:	e8 47 5c 00 00       	call   8150 <fibril_mutex_unlock>
    2509:	a1 e4 0d 02 00       	mov    0x20de4,%eax
    250e:	85 c0                	test   %eax,%eax
    2510:	74 d1                	je     24e3 <loc_exchange_begin+0x13>
    2512:	89 45 08             	mov    %eax,0x8(%ebp)
    2515:	c9                   	leave  
    2516:	e9 65 1c 01 00       	jmp    14180 <async_exchange_begin>
    251b:	90                   	nop
    251c:	8d 74 26 00          	lea    0x0(%esi,%eiz,1),%esi
    2520:	c7 04 24 cc 0b 02 00 	movl   $0x20bcc,(%esp)
    2527:	e8 04 5b 00 00       	call   8030 <fibril_mutex_lock>
    252c:	a1 ec 0d 02 00       	mov    0x20dec,%eax
    2531:	85 c0                	test   %eax,%eax
    2533:	74 53                	je     2588 <loc_exchange_begin+0xb8>
    2535:	c7 04 24 cc 0b 02 00 	movl   $0x20bcc,(%esp)
    253c:	e8 0f 5c 00 00       	call   8150 <fibril_mutex_unlock>
    2541:	a1 ec 0d 02 00       	mov    0x20dec,%eax
    2546:	85 c0                	test   %eax,%eax
    2548:	74 99                	je     24e3 <loc_exchange_begin+0x13>
    254a:	89 45 08             	mov    %eax,0x8(%ebp)
    254d:	c9                   	leave  
    254e:	e9 2d 1c 01 00       	jmp    14180 <async_exchange_begin>
    2553:	90                   	nop
    2554:	8d 74 26 00          	lea    0x0(%esi,%eiz,1),%esi
    2558:	c7 44 24 0c 00 00 00 	movl   $0x0,0xc(%esp)
    255f:	00 
    2560:	c7 44 24 08 01 00 00 	movl   $0x1,0x8(%esp)
    2567:	00 
    2568:	c7 44 24 04 6c 6f 63 	movl   $0x20636f6c,0x4(%esp)
    256f:	20 
    2570:	c7 04 24 02 00 00 00 	movl   $0x2,(%esp)
    2577:	e8 d4 ee 00 00       	call   11450 <service_connect>
    257c:	a3 e4 0d 02 00       	mov    %eax,0x20de4
    2581:	e9 77 ff ff ff       	jmp    24fd <loc_exchange_begin+0x2d>
    2586:	66 90                	xchg   %ax,%ax
    2588:	c7 44 24 0c 00 00 00 	movl   $0x0,0xc(%esp)
    258f:	00 
    2590:	c7 44 24 08 02 00 00 	movl   $0x2,0x8(%esp)
    2597:	00 
    2598:	c7 44 24 04 6c 6f 63 	movl   $0x20636f6c,0x4(%esp)
    259f:	20 
    25a0:	c7 04 24 02 00 00 00 	movl   $0x2,(%esp)
    25a7:	e8 a4 ee 00 00       	call   11450 <service_connect>
    25ac:	a3 ec 0d 02 00       	mov    %eax,0x20dec
    25b1:	eb 82                	jmp    2535 <loc_exchange_begin+0x65>
    25b3:	8d b6 00 00 00 00    	lea    0x0(%esi),%esi
    25b9:	8d bc 27 00 00 00 00 	lea    0x0(%edi,%eiz,1),%edi

000025c0 <loc_exchange_end>:
    25c0:	55                   	push   %ebp
    25c1:	89 e5                	mov    %esp,%ebp
    25c3:	5d                   	pop    %ebp
    25c4:	e9 27 1f 01 00       	jmp    144f0 <async_exchange_end>
    25c9:	8d b4 26 00 00 00 00 	lea    0x0(%esi,%eiz,1),%esi

000025d0 <loc_server_register>:
    25d0:	55                   	push   %ebp
    25d1:	89 e5                	mov    %esp,%ebp
    25d3:	57                   	push   %edi
    25d4:	56                   	push   %esi
    25d5:	53                   	push   %ebx
    25d6:	83 ec 5c             	sub    $0x5c,%esp
    25d9:	8b 75 08             	mov    0x8(%ebp),%esi
    25dc:	c7 04 24 9c 0b 02 00 	movl   $0x20b9c,(%esp)
    25e3:	e8 48 5a 00 00       	call   8030 <fibril_mutex_lock>
    25e8:	a1 e8 0d 02 00       	mov    0x20de8,%eax
    25ed:	85 c0                	test   %eax,%eax
    25ef:	75 38                	jne    2629 <loc_server_register+0x59>
    25f1:	c7 04 24 ac 0b 02 00 	movl   $0x20bac,(%esp)
    25f8:	8b 1d e4 0d 02 00    	mov    0x20de4,%ebx
    25fe:	e8 2d 5a 00 00       	call   8030 <fibril_mutex_lock>
    2603:	a1 e8 0d 02 00       	mov    0x20de8,%eax
    2608:	85 c0                	test   %eax,%eax
    260a:	0f 84 58 01 00 00    	je     2768 <loc_server_register+0x198>
    2610:	c7 04 24 ac 0b 02 00 	movl   $0x20bac,(%esp)
    2617:	e8 34 5b 00 00       	call   8150 <fibril_mutex_unlock>
    261c:	a1 e8 0d 02 00       	mov    0x20de8,%eax
    2621:	85 c0                	test   %eax,%eax
    2623:	0f 84 57 01 00 00    	je     2780 <loc_server_register+0x1b0>
    2629:	c7 04 24 9c 0b 02 00 	movl   $0x20b9c,(%esp)
    2630:	e8 1b 5b 00 00       	call   8150 <fibril_mutex_unlock>
    2635:	c7 04 24 ac 0b 02 00 	movl   $0x20bac,(%esp)
    263c:	8b 1d e8 0d 02 00    	mov    0x20de8,%ebx
    2642:	e8 e9 59 00 00       	call   8030 <fibril_mutex_lock>
    2647:	8b 3d e4 0d 02 00    	mov    0x20de4,%edi
    264d:	85 ff                	test   %edi,%edi
    264f:	0f 84 73 01 00 00    	je     27c8 <loc_server_register+0x1f8>
    2655:	c7 04 24 ac 0b 02 00 	movl   $0x20bac,(%esp)
    265c:	e8 ef 5a 00 00       	call   8150 <fibril_mutex_unlock>
    2661:	a1 e8 0d 02 00       	mov    0x20de8,%eax
    2666:	89 04 24             	mov    %eax,(%esp)
    2669:	e8 12 1b 01 00       	call   14180 <async_exchange_begin>
    266e:	c7 44 24 14 00 00 00 	movl   $0x0,0x14(%esp)
    2675:	00 
    2676:	89 c3                	mov    %eax,%ebx
    2678:	8d 45 c4             	lea    -0x3c(%ebp),%eax
    267b:	89 44 24 18          	mov    %eax,0x18(%esp)
    267f:	c7 44 24 10 00 00 00 	movl   $0x0,0x10(%esp)
    2686:	00 
    2687:	c7 44 24 0c 00 00 00 	movl   $0x0,0xc(%esp)
    268e:	00 
    268f:	c7 44 24 08 00 00 00 	movl   $0x0,0x8(%esp)
    2696:	00 
    2697:	c7 44 24 04 00 04 00 	movl   $0x400,0x4(%esp)
    269e:	00 
    269f:	89 1c 24             	mov    %ebx,(%esp)
    26a2:	e8 79 04 01 00       	call   12b20 <async_send_fast>
    26a7:	89 34 24             	mov    %esi,(%esp)
    26aa:	89 c7                	mov    %eax,%edi
    26ac:	e8 5f 27 00 00       	call   4e10 <str_size>
    26b1:	89 74 24 04          	mov    %esi,0x4(%esp)
    26b5:	89 44 24 08          	mov    %eax,0x8(%esp)
    26b9:	89 1c 24             	mov    %ebx,(%esp)
    26bc:	e8 af 29 01 00       	call   15070 <async_data_write_start>
    26c1:	89 1c 24             	mov    %ebx,(%esp)
    26c4:	89 45 c0             	mov    %eax,-0x40(%ebp)
    26c7:	e8 24 1e 01 00       	call   144f0 <async_exchange_end>
    26cc:	8b 4d c0             	mov    -0x40(%ebp),%ecx
    26cf:	85 c9                	test   %ecx,%ecx
    26d1:	0f 85 d9 00 00 00    	jne    27b0 <loc_server_register+0x1e0>
    26d7:	c7 04 24 ac 0b 02 00 	movl   $0x20bac,(%esp)
    26de:	e8 4d 59 00 00       	call   8030 <fibril_mutex_lock>
    26e3:	8b 15 e4 0d 02 00    	mov    0x20de4,%edx
    26e9:	85 d2                	test   %edx,%edx
    26eb:	0f 84 ea 00 00 00    	je     27db <loc_server_register+0x20b>
    26f1:	c7 04 24 ac 0b 02 00 	movl   $0x20bac,(%esp)
    26f8:	e8 53 5a 00 00       	call   8150 <fibril_mutex_unlock>
    26fd:	a1 e4 0d 02 00       	mov    0x20de4,%eax
    2702:	85 c0                	test   %eax,%eax
    2704:	0f 84 ff 00 00 00    	je     2809 <loc_server_register+0x239>
    270a:	89 04 24             	mov    %eax,(%esp)
    270d:	e8 6e 1a 01 00       	call   14180 <async_exchange_begin>
    2712:	89 c3                	mov    %eax,%ebx
    2714:	89 1c 24             	mov    %ebx,(%esp)
    2717:	c7 44 24 14 00 00 00 	movl   $0x0,0x14(%esp)
    271e:	00 
    271f:	c7 44 24 10 00 00 00 	movl   $0x0,0x10(%esp)
    2726:	00 
    2727:	c7 44 24 0c 00 00 00 	movl   $0x0,0xc(%esp)
    272e:	00 
    272f:	c7 44 24 08 00 00 00 	movl   $0x0,0x8(%esp)
    2736:	00 
    2737:	c7 44 24 04 00 00 00 	movl   $0x0,0x4(%esp)
    273e:	00 
    273f:	e8 dc 11 01 00       	call   13920 <async_connect_to_me>
    2744:	89 1c 24             	mov    %ebx,(%esp)
    2747:	e8 a4 1d 01 00       	call   144f0 <async_exchange_end>
    274c:	8d 45 c0             	lea    -0x40(%ebp),%eax
    274f:	89 44 24 04          	mov    %eax,0x4(%esp)
    2753:	89 3c 24             	mov    %edi,(%esp)
    2756:	e8 95 05 01 00       	call   12cf0 <async_wait_for>
    275b:	8b 45 c0             	mov    -0x40(%ebp),%eax
    275e:	83 c4 5c             	add    $0x5c,%esp
    2761:	5b                   	pop    %ebx
    2762:	5e                   	pop    %esi
    2763:	5f                   	pop    %edi
    2764:	5d                   	pop    %ebp
    2765:	c3                   	ret    
    2766:	66 90                	xchg   %ax,%ax
    2768:	85 db                	test   %ebx,%ebx
    276a:	0f 84 a0 fe ff ff    	je     2610 <loc_server_register+0x40>
    2770:	89 1d e8 0d 02 00    	mov    %ebx,0x20de8
    2776:	e9 95 fe ff ff       	jmp    2610 <loc_server_register+0x40>
    277b:	90                   	nop
    277c:	8d 74 26 00          	lea    0x0(%esi,%eiz,1),%esi
    2780:	c7 44 24 0c 00 00 00 	movl   $0x0,0xc(%esp)
    2787:	00 
    2788:	c7 44 24 08 01 00 00 	movl   $0x1,0x8(%esp)
    278f:	00 
    2790:	c7 44 24 04 6c 6f 63 	movl   $0x20636f6c,0x4(%esp)
    2797:	20 
    2798:	c7 04 24 02 00 00 00 	movl   $0x2,(%esp)
    279f:	e8 2c ed 00 00       	call   114d0 <service_connect_blocking>
    27a4:	a3 e8 0d 02 00       	mov    %eax,0x20de8
    27a9:	e9 3f fe ff ff       	jmp    25ed <loc_server_register+0x1d>
    27ae:	66 90                	xchg   %ax,%ax
    27b0:	89 3c 24             	mov    %edi,(%esp)
    27b3:	e8 88 07 01 00       	call   12f40 <async_forget>
    27b8:	8b 45 c0             	mov    -0x40(%ebp),%eax
    27bb:	83 c4 5c             	add    $0x5c,%esp
    27be:	5b                   	pop    %ebx
    27bf:	5e                   	pop    %esi
    27c0:	5f                   	pop    %edi
    27c1:	5d                   	pop    %ebp
    27c2:	c3                   	ret    
    27c3:	90                   	nop
    27c4:	8d 74 26 00          	lea    0x0(%esi,%eiz,1),%esi
    27c8:	85 db                	test   %ebx,%ebx
    27ca:	0f 84 85 fe ff ff    	je     2655 <loc_server_register+0x85>
    27d0:	89 1d e4 0d 02 00    	mov    %ebx,0x20de4
    27d6:	e9 7a fe ff ff       	jmp    2655 <loc_server_register+0x85>
    27db:	c7 44 24 0c 00 00 00 	movl   $0x0,0xc(%esp)
    27e2:	00 
    27e3:	c7 44 24 08 01 00 00 	movl   $0x1,0x8(%esp)
    27ea:	00 
    27eb:	c7 44 24 04 6c 6f 63 	movl   $0x20636f6c,0x4(%esp)
    27f2:	20 
    27f3:	c7 04 24 02 00 00 00 	movl   $0x2,(%esp)
    27fa:	e8 51 ec 00 00       	call   11450 <service_connect>
    27ff:	a3 e4 0d 02 00       	mov    %eax,0x20de4
    2804:	e9 e8 fe ff ff       	jmp    26f1 <loc_server_register+0x121>
    2809:	31 db                	xor    %ebx,%ebx
    280b:	e9 04 ff ff ff       	jmp    2714 <loc_server_register+0x144>

00002810 <loc_service_register_with_iface>:
    2810:	55                   	push   %ebp
    2811:	89 e5                	mov    %esp,%ebp
    2813:	57                   	push   %edi
    2814:	56                   	push   %esi
    2815:	53                   	push   %ebx
    2816:	83 ec 5c             	sub    $0x5c,%esp
    2819:	8b 75 08             	mov    0x8(%ebp),%esi
    281c:	c7 04 24 9c 0b 02 00 	movl   $0x20b9c,(%esp)
    2823:	e8 08 58 00 00       	call   8030 <fibril_mutex_lock>
    2828:	a1 e8 0d 02 00       	mov    0x20de8,%eax
    282d:	85 c0                	test   %eax,%eax
    282f:	75 38                	jne    2869 <loc_service_register_with_iface+0x59>
    2831:	c7 04 24 ac 0b 02 00 	movl   $0x20bac,(%esp)
    2838:	8b 1d e4 0d 02 00    	mov    0x20de4,%ebx
    283e:	e8 ed 57 00 00       	call   8030 <fibril_mutex_lock>
    2843:	a1 e8 0d 02 00       	mov    0x20de8,%eax
    2848:	85 c0                	test   %eax,%eax
    284a:	0f 84 f8 00 00 00    	je     2948 <loc_service_register_with_iface+0x138>
    2850:	c7 04 24 ac 0b 02 00 	movl   $0x20bac,(%esp)
    2857:	e8 f4 58 00 00       	call   8150 <fibril_mutex_unlock>
    285c:	a1 e8 0d 02 00       	mov    0x20de8,%eax
    2861:	85 c0                	test   %eax,%eax
    2863:	0f 84 f7 00 00 00    	je     2960 <loc_service_register_with_iface+0x150>
    2869:	c7 04 24 9c 0b 02 00 	movl   $0x20b9c,(%esp)
    2870:	e8 db 58 00 00       	call   8150 <fibril_mutex_unlock>
    2875:	c7 04 24 ac 0b 02 00 	movl   $0x20bac,(%esp)
    287c:	8b 1d e8 0d 02 00    	mov    0x20de8,%ebx
    2882:	e8 a9 57 00 00       	call   8030 <fibril_mutex_lock>
    2887:	8b 3d e4 0d 02 00    	mov    0x20de4,%edi
    288d:	85 ff                	test   %edi,%edi
    288f:	0f 84 33 01 00 00    	je     29c8 <loc_service_register_with_iface+0x1b8>
    2895:	c7 04 24 ac 0b 02 00 	movl   $0x20bac,(%esp)
    289c:	e8 af 58 00 00       	call   8150 <fibril_mutex_unlock>
    28a1:	a1 e8 0d 02 00       	mov    0x20de8,%eax
    28a6:	89 04 24             	mov    %eax,(%esp)
    28a9:	e8 d2 18 01 00       	call   14180 <async_exchange_begin>
    28ae:	c7 44 24 14 00 00 00 	movl   $0x0,0x14(%esp)
    28b5:	00 
    28b6:	89 c7                	mov    %eax,%edi
    28b8:	8d 45 c4             	lea    -0x3c(%ebp),%eax
    28bb:	89 44 24 18          	mov    %eax,0x18(%esp)
    28bf:	8b 45 10             	mov    0x10(%ebp),%eax
    28c2:	c7 44 24 10 00 00 00 	movl   $0x0,0x10(%esp)
    28c9:	00 
    28ca:	c7 44 24 0c 00 00 00 	movl   $0x0,0xc(%esp)
    28d1:	00 
    28d2:	89 44 24 08          	mov    %eax,0x8(%esp)
    28d6:	c7 44 24 04 03 04 00 	movl   $0x403,0x4(%esp)
    28dd:	00 
    28de:	89 3c 24             	mov    %edi,(%esp)
    28e1:	e8 3a 02 01 00       	call   12b20 <async_send_fast>
    28e6:	89 34 24             	mov    %esi,(%esp)
    28e9:	89 c3                	mov    %eax,%ebx
    28eb:	e8 20 25 00 00       	call   4e10 <str_size>
    28f0:	89 74 24 04          	mov    %esi,0x4(%esp)
    28f4:	89 44 24 08          	mov    %eax,0x8(%esp)
    28f8:	89 3c 24             	mov    %edi,(%esp)
    28fb:	e8 70 27 01 00       	call   15070 <async_data_write_start>
    2900:	89 3c 24             	mov    %edi,(%esp)
    2903:	89 45 c0             	mov    %eax,-0x40(%ebp)
    2906:	e8 e5 1b 01 00       	call   144f0 <async_exchange_end>
    290b:	8b 4d c0             	mov    -0x40(%ebp),%ecx
    290e:	85 c9                	test   %ecx,%ecx
    2910:	0f 85 9a 00 00 00    	jne    29b0 <loc_service_register_with_iface+0x1a0>
    2916:	8d 45 c0             	lea    -0x40(%ebp),%eax
    2919:	89 1c 24             	mov    %ebx,(%esp)
    291c:	89 44 24 04          	mov    %eax,0x4(%esp)
    2920:	e8 cb 03 01 00       	call   12cf0 <async_wait_for>
    2925:	8b 45 c0             	mov    -0x40(%ebp),%eax
    2928:	85 c0                	test   %eax,%eax
    292a:	74 64                	je     2990 <loc_service_register_with_iface+0x180>
    292c:	8b 55 0c             	mov    0xc(%ebp),%edx
    292f:	85 d2                	test   %edx,%edx
    2931:	74 09                	je     293c <loc_service_register_with_iface+0x12c>
    2933:	8b 55 0c             	mov    0xc(%ebp),%edx
    2936:	c7 02 ff ff ff ff    	movl   $0xffffffff,(%edx)
    293c:	83 c4 5c             	add    $0x5c,%esp
    293f:	5b                   	pop    %ebx
    2940:	5e                   	pop    %esi
    2941:	5f                   	pop    %edi
    2942:	5d                   	pop    %ebp
    2943:	c3                   	ret    
    2944:	8d 74 26 00          	lea    0x0(%esi,%eiz,1),%esi
    2948:	85 db                	test   %ebx,%ebx
    294a:	0f 84 00 ff ff ff    	je     2850 <loc_service_register_with_iface+0x40>
    2950:	89 1d e8 0d 02 00    	mov    %ebx,0x20de8
    2956:	e9 f5 fe ff ff       	jmp    2850 <loc_service_register_with_iface+0x40>
    295b:	90                   	nop
    295c:	8d 74 26 00          	lea    0x0(%esi,%eiz,1),%esi
    2960:	c7 44 24 0c 00 00 00 	movl   $0x0,0xc(%esp)
    2967:	00 
    2968:	c7 44 24 08 01 00 00 	movl   $0x1,0x8(%esp)
    296f:	00 
    2970:	c7 44 24 04 6c 6f 63 	movl   $0x20636f6c,0x4(%esp)
    2977:	20 
    2978:	c7 04 24 02 00 00 00 	movl   $0x2,(%esp)
    297f:	e8 4c eb 00 00       	call   114d0 <service_connect_blocking>
    2984:	a3 e8 0d 02 00       	mov    %eax,0x20de8
    2989:	e9 9f fe ff ff       	jmp    282d <loc_service_register_with_iface+0x1d>
    298e:	66 90                	xchg   %ax,%ax
    2990:	8b 45 0c             	mov    0xc(%ebp),%eax
    2993:	85 c0                	test   %eax,%eax
    2995:	74 08                	je     299f <loc_service_register_with_iface+0x18f>
    2997:	8b 55 0c             	mov    0xc(%ebp),%edx
    299a:	8b 45 c8             	mov    -0x38(%ebp),%eax
    299d:	89 02                	mov    %eax,(%edx)
    299f:	83 c4 5c             	add    $0x5c,%esp
    29a2:	31 c0                	xor    %eax,%eax
    29a4:	5b                   	pop    %ebx
    29a5:	5e                   	pop    %esi
    29a6:	5f                   	pop    %edi
    29a7:	5d                   	pop    %ebp
    29a8:	c3                   	ret    
    29a9:	8d b4 26 00 00 00 00 	lea    0x0(%esi,%eiz,1),%esi
    29b0:	89 1c 24             	mov    %ebx,(%esp)
    29b3:	e8 88 05 01 00       	call   12f40 <async_forget>
    29b8:	8b 45 c0             	mov    -0x40(%ebp),%eax
    29bb:	83 c4 5c             	add    $0x5c,%esp
    29be:	5b                   	pop    %ebx
    29bf:	5e                   	pop    %esi
    29c0:	5f                   	pop    %edi
    29c1:	5d                   	pop    %ebp
    29c2:	c3                   	ret    
    29c3:	90                   	nop
    29c4:	8d 74 26 00          	lea    0x0(%esi,%eiz,1),%esi
    29c8:	85 db                	test   %ebx,%ebx
    29ca:	0f 84 c5 fe ff ff    	je     2895 <loc_service_register_with_iface+0x85>
    29d0:	89 1d e4 0d 02 00    	mov    %ebx,0x20de4
    29d6:	e9 ba fe ff ff       	jmp    2895 <loc_service_register_with_iface+0x85>
    29db:	90                   	nop
    29dc:	8d 74 26 00          	lea    0x0(%esi,%eiz,1),%esi

000029e0 <loc_service_register>:
    29e0:	55                   	push   %ebp
    29e1:	89 e5                	mov    %esp,%ebp
    29e3:	57                   	push   %edi
    29e4:	56                   	push   %esi
    29e5:	53                   	push   %ebx
    29e6:	83 ec 5c             	sub    $0x5c,%esp
    29e9:	8b 75 08             	mov    0x8(%ebp),%esi
    29ec:	c7 04 24 9c 0b 02 00 	movl   $0x20b9c,(%esp)
    29f3:	e8 38 56 00 00       	call   8030 <fibril_mutex_lock>
    29f8:	a1 e8 0d 02 00       	mov    0x20de8,%eax
    29fd:	85 c0                	test   %eax,%eax
    29ff:	75 38                	jne    2a39 <loc_service_register+0x59>
    2a01:	c7 04 24 ac 0b 02 00 	movl   $0x20bac,(%esp)
    2a08:	8b 1d e4 0d 02 00    	mov    0x20de4,%ebx
    2a0e:	e8 1d 56 00 00       	call   8030 <fibril_mutex_lock>
    2a13:	a1 e8 0d 02 00       	mov    0x20de8,%eax
    2a18:	85 c0                	test   %eax,%eax
    2a1a:	0f 84 f8 00 00 00    	je     2b18 <loc_service_register+0x138>
    2a20:	c7 04 24 ac 0b 02 00 	movl   $0x20bac,(%esp)
    2a27:	e8 24 57 00 00       	call   8150 <fibril_mutex_unlock>
    2a2c:	a1 e8 0d 02 00       	mov    0x20de8,%eax
    2a31:	85 c0                	test   %eax,%eax
    2a33:	0f 84 f7 00 00 00    	je     2b30 <loc_service_register+0x150>
    2a39:	c7 04 24 9c 0b 02 00 	movl   $0x20b9c,(%esp)
    2a40:	e8 0b 57 00 00       	call   8150 <fibril_mutex_unlock>
    2a45:	c7 04 24 ac 0b 02 00 	movl   $0x20bac,(%esp)
    2a4c:	8b 1d e8 0d 02 00    	mov    0x20de8,%ebx
    2a52:	e8 d9 55 00 00       	call   8030 <fibril_mutex_lock>
    2a57:	8b 3d e4 0d 02 00    	mov    0x20de4,%edi
    2a5d:	85 ff                	test   %edi,%edi
    2a5f:	0f 84 33 01 00 00    	je     2b98 <loc_service_register+0x1b8>
    2a65:	c7 04 24 ac 0b 02 00 	movl   $0x20bac,(%esp)
    2a6c:	e8 df 56 00 00       	call   8150 <fibril_mutex_unlock>
    2a71:	a1 e8 0d 02 00       	mov    0x20de8,%eax
    2a76:	89 04 24             	mov    %eax,(%esp)
    2a79:	e8 02 17 01 00       	call   14180 <async_exchange_begin>
    2a7e:	c7 44 24 14 00 00 00 	movl   $0x0,0x14(%esp)
    2a85:	00 
    2a86:	89 c7                	mov    %eax,%edi
    2a88:	8d 45 c4             	lea    -0x3c(%ebp),%eax
    2a8b:	89 44 24 18          	mov    %eax,0x18(%esp)
    2a8f:	c7 44 24 10 00 00 00 	movl   $0x0,0x10(%esp)
    2a96:	00 
    2a97:	c7 44 24 0c 00 00 00 	movl   $0x0,0xc(%esp)
    2a9e:	00 
    2a9f:	c7 44 24 08 00 00 00 	movl   $0x0,0x8(%esp)
    2aa6:	00 
    2aa7:	c7 44 24 04 03 04 00 	movl   $0x403,0x4(%esp)
    2aae:	00 
    2aaf:	89 3c 24             	mov    %edi,(%esp)
    2ab2:	e8 69 00 01 00       	call   12b20 <async_send_fast>
    2ab7:	89 34 24             	mov    %esi,(%esp)
    2aba:	89 c3                	mov    %eax,%ebx
    2abc:	e8 4f 23 00 00       	call   4e10 <str_size>
    2ac1:	89 74 24 04          	mov    %esi,0x4(%esp)
    2ac5:	89 44 24 08          	mov    %eax,0x8(%esp)
    2ac9:	89 3c 24             	mov    %edi,(%esp)
    2acc:	e8 9f 25 01 00       	call   15070 <async_data_write_start>
    2ad1:	89 3c 24             	mov    %edi,(%esp)
    2ad4:	89 45 c0             	mov    %eax,-0x40(%ebp)
    2ad7:	e8 14 1a 01 00       	call   144f0 <async_exchange_end>
    2adc:	8b 4d c0             	mov    -0x40(%ebp),%ecx
    2adf:	85 c9                	test   %ecx,%ecx
    2ae1:	0f 85 99 00 00 00    	jne    2b80 <loc_service_register+0x1a0>
    2ae7:	8d 45 c0             	lea    -0x40(%ebp),%eax
    2aea:	89 1c 24             	mov    %ebx,(%esp)
    2aed:	89 44 24 04          	mov    %eax,0x4(%esp)
    2af1:	e8 fa 01 01 00       	call   12cf0 <async_wait_for>
    2af6:	8b 45 c0             	mov    -0x40(%ebp),%eax
    2af9:	85 c0                	test   %eax,%eax
    2afb:	74 63                	je     2b60 <loc_service_register+0x180>
    2afd:	8b 55 0c             	mov    0xc(%ebp),%edx
    2b00:	85 d2                	test   %edx,%edx
    2b02:	74 09                	je     2b0d <loc_service_register+0x12d>
    2b04:	8b 55 0c             	mov    0xc(%ebp),%edx
    2b07:	c7 02 ff ff ff ff    	movl   $0xffffffff,(%edx)
    2b0d:	83 c4 5c             	add    $0x5c,%esp
    2b10:	5b                   	pop    %ebx
    2b11:	5e                   	pop    %esi
    2b12:	5f                   	pop    %edi
    2b13:	5d                   	pop    %ebp
    2b14:	c3                   	ret    
    2b15:	8d 76 00             	lea    0x0(%esi),%esi
    2b18:	85 db                	test   %ebx,%ebx
    2b1a:	0f 84 00 ff ff ff    	je     2a20 <loc_service_register+0x40>
    2b20:	89 1d e8 0d 02 00    	mov    %ebx,0x20de8
    2b26:	e9 f5 fe ff ff       	jmp    2a20 <loc_service_register+0x40>
    2b2b:	90                   	nop
    2b2c:	8d 74 26 00          	lea    0x0(%esi,%eiz,1),%esi
    2b30:	c7 44 24 0c 00 00 00 	movl   $0x0,0xc(%esp)
    2b37:	00 
    2b38:	c7 44 24 08 01 00 00 	movl   $0x1,0x8(%esp)
    2b3f:	00 
    2b40:	c7 44 24 04 6c 6f 63 	movl   $0x20636f6c,0x4(%esp)
    2b47:	20 
    2b48:	c7 04 24 02 00 00 00 	movl   $0x2,(%esp)
    2b4f:	e8 7c e9 00 00       	call   114d0 <service_connect_blocking>
    2b54:	a3 e8 0d 02 00       	mov    %eax,0x20de8
    2b59:	e9 9f fe ff ff       	jmp    29fd <loc_service_register+0x1d>
    2b5e:	66 90                	xchg   %ax,%ax
    2b60:	8b 45 0c             	mov    0xc(%ebp),%eax
    2b63:	85 c0                	test   %eax,%eax
    2b65:	74 08                	je     2b6f <loc_service_register+0x18f>
    2b67:	8b 55 0c             	mov    0xc(%ebp),%edx
    2b6a:	8b 45 c8             	mov    -0x38(%ebp),%eax
    2b6d:	89 02                	mov    %eax,(%edx)
    2b6f:	83 c4 5c             	add    $0x5c,%esp
    2b72:	31 c0                	xor    %eax,%eax
    2b74:	5b                   	pop    %ebx
    2b75:	5e                   	pop    %esi
    2b76:	5f                   	pop    %edi
    2b77:	5d                   	pop    %ebp
    2b78:	c3                   	ret    
    2b79:	8d b4 26 00 00 00 00 	lea    0x0(%esi,%eiz,1),%esi
    2b80:	89 1c 24             	mov    %ebx,(%esp)
    2b83:	e8 b8 03 01 00       	call   12f40 <async_forget>
    2b88:	8b 45 c0             	mov    -0x40(%ebp),%eax
    2b8b:	83 c4 5c             	add    $0x5c,%esp
    2b8e:	5b                   	pop    %ebx
    2b8f:	5e                   	pop    %esi
    2b90:	5f                   	pop    %edi
    2b91:	5d                   	pop    %ebp
    2b92:	c3                   	ret    
    2b93:	90                   	nop
    2b94:	8d 74 26 00          	lea    0x0(%esi,%eiz,1),%esi
    2b98:	85 db                	test   %ebx,%ebx
    2b9a:	0f 84 c5 fe ff ff    	je     2a65 <loc_service_register+0x85>
    2ba0:	89 1d e4 0d 02 00    	mov    %ebx,0x20de4
    2ba6:	e9 ba fe ff ff       	jmp    2a65 <loc_service_register+0x85>
    2bab:	90                   	nop
    2bac:	8d 74 26 00          	lea    0x0(%esi,%eiz,1),%esi

00002bb0 <loc_service_unregister>:
    2bb0:	55                   	push   %ebp
    2bb1:	89 e5                	mov    %esp,%ebp
    2bb3:	53                   	push   %ebx
    2bb4:	83 ec 44             	sub    $0x44,%esp
    2bb7:	c7 04 24 9c 0b 02 00 	movl   $0x20b9c,(%esp)
    2bbe:	e8 6d 54 00 00       	call   8030 <fibril_mutex_lock>
    2bc3:	a1 e8 0d 02 00       	mov    0x20de8,%eax
    2bc8:	85 c0                	test   %eax,%eax
    2bca:	75 38                	jne    2c04 <loc_service_unregister+0x54>
    2bcc:	c7 04 24 ac 0b 02 00 	movl   $0x20bac,(%esp)
    2bd3:	8b 1d e4 0d 02 00    	mov    0x20de4,%ebx
    2bd9:	e8 52 54 00 00       	call   8030 <fibril_mutex_lock>
    2bde:	a1 e8 0d 02 00       	mov    0x20de8,%eax
    2be3:	85 c0                	test   %eax,%eax
    2be5:	0f 84 cd 00 00 00    	je     2cb8 <loc_service_unregister+0x108>
    2beb:	c7 04 24 ac 0b 02 00 	movl   $0x20bac,(%esp)
    2bf2:	e8 59 55 00 00       	call   8150 <fibril_mutex_unlock>
    2bf7:	a1 e8 0d 02 00       	mov    0x20de8,%eax
    2bfc:	85 c0                	test   %eax,%eax
    2bfe:	0f 84 cc 00 00 00    	je     2cd0 <loc_service_unregister+0x120>
    2c04:	c7 04 24 9c 0b 02 00 	movl   $0x20b9c,(%esp)
    2c0b:	e8 40 55 00 00       	call   8150 <fibril_mutex_unlock>
    2c10:	c7 04 24 ac 0b 02 00 	movl   $0x20bac,(%esp)
    2c17:	8b 1d e8 0d 02 00    	mov    0x20de8,%ebx
    2c1d:	e8 0e 54 00 00       	call   8030 <fibril_mutex_lock>
    2c22:	a1 e4 0d 02 00       	mov    0x20de4,%eax
    2c27:	85 c0                	test   %eax,%eax
    2c29:	0f 84 d1 00 00 00    	je     2d00 <loc_service_unregister+0x150>
    2c2f:	c7 04 24 ac 0b 02 00 	movl   $0x20bac,(%esp)
    2c36:	e8 15 55 00 00       	call   8150 <fibril_mutex_unlock>
    2c3b:	a1 e8 0d 02 00       	mov    0x20de8,%eax
    2c40:	89 04 24             	mov    %eax,(%esp)
    2c43:	e8 38 15 01 00       	call   14180 <async_exchange_begin>
    2c48:	c7 44 24 28 00 00 00 	movl   $0x0,0x28(%esp)
    2c4f:	00 
    2c50:	89 c3                	mov    %eax,%ebx
    2c52:	8b 45 08             	mov    0x8(%ebp),%eax
    2c55:	89 1c 24             	mov    %ebx,(%esp)
    2c58:	c7 44 24 24 00 00 00 	movl   $0x0,0x24(%esp)
    2c5f:	00 
    2c60:	c7 44 24 20 00 00 00 	movl   $0x0,0x20(%esp)
    2c67:	00 
    2c68:	c7 44 24 1c 00 00 00 	movl   $0x0,0x1c(%esp)
    2c6f:	00 
    2c70:	c7 44 24 18 00 00 00 	movl   $0x0,0x18(%esp)
    2c77:	00 
    2c78:	c7 44 24 14 00 00 00 	movl   $0x0,0x14(%esp)
    2c7f:	00 
    2c80:	c7 44 24 10 00 00 00 	movl   $0x0,0x10(%esp)
    2c87:	00 
    2c88:	c7 44 24 0c 00 00 00 	movl   $0x0,0xc(%esp)
    2c8f:	00 
    2c90:	89 44 24 08          	mov    %eax,0x8(%esp)
    2c94:	c7 44 24 04 04 04 00 	movl   $0x404,0x4(%esp)
    2c9b:	00 
    2c9c:	e8 8f 04 01 00       	call   13130 <async_req_fast>
    2ca1:	89 1c 24             	mov    %ebx,(%esp)
    2ca4:	89 45 f4             	mov    %eax,-0xc(%ebp)
    2ca7:	e8 44 18 01 00       	call   144f0 <async_exchange_end>
    2cac:	8b 45 f4             	mov    -0xc(%ebp),%eax
    2caf:	83 c4 44             	add    $0x44,%esp
    2cb2:	5b                   	pop    %ebx
    2cb3:	5d                   	pop    %ebp
    2cb4:	c3                   	ret    
    2cb5:	8d 76 00             	lea    0x0(%esi),%esi
    2cb8:	85 db                	test   %ebx,%ebx
    2cba:	0f 84 2b ff ff ff    	je     2beb <loc_service_unregister+0x3b>
    2cc0:	89 1d e8 0d 02 00    	mov    %ebx,0x20de8
    2cc6:	e9 20 ff ff ff       	jmp    2beb <loc_service_unregister+0x3b>
    2ccb:	90                   	nop
    2ccc:	8d 74 26 00          	lea    0x0(%esi,%eiz,1),%esi
    2cd0:	c7 44 24 0c 00 00 00 	movl   $0x0,0xc(%esp)
    2cd7:	00 
    2cd8:	c7 44 24 08 01 00 00 	movl   $0x1,0x8(%esp)
    2cdf:	00 
    2ce0:	c7 44 24 04 6c 6f 63 	movl   $0x20636f6c,0x4(%esp)
    2ce7:	20 
    2ce8:	c7 04 24 02 00 00 00 	movl   $0x2,(%esp)
    2cef:	e8 dc e7 00 00       	call   114d0 <service_connect_blocking>
    2cf4:	a3 e8 0d 02 00       	mov    %eax,0x20de8
    2cf9:	e9 ca fe ff ff       	jmp    2bc8 <loc_service_unregister+0x18>
    2cfe:	66 90                	xchg   %ax,%ax
    2d00:	85 db                	test   %ebx,%ebx
    2d02:	0f 84 27 ff ff ff    	je     2c2f <loc_service_unregister+0x7f>
    2d08:	89 1d e4 0d 02 00    	mov    %ebx,0x20de4
    2d0e:	e9 1c ff ff ff       	jmp    2c2f <loc_service_unregister+0x7f>
    2d13:	8d b6 00 00 00 00    	lea    0x0(%esi),%esi
    2d19:	8d bc 27 00 00 00 00 	lea    0x0(%edi,%eiz,1),%edi

00002d20 <loc_service_get_id>:
    2d20:	55                   	push   %ebp
    2d21:	89 e5                	mov    %esp,%ebp
    2d23:	57                   	push   %edi
    2d24:	56                   	push   %esi
    2d25:	53                   	push   %ebx
    2d26:	83 ec 5c             	sub    $0x5c,%esp
    2d29:	8b 75 10             	mov    0x10(%ebp),%esi
    2d2c:	8b 7d 08             	mov    0x8(%ebp),%edi
    2d2f:	f7 c6 01 00 00 00    	test   $0x1,%esi
    2d35:	0f 84 45 01 00 00    	je     2e80 <loc_service_get_id+0x160>
    2d3b:	c7 04 24 bc 0b 02 00 	movl   $0x20bbc,(%esp)
    2d42:	e8 e9 52 00 00       	call   8030 <fibril_mutex_lock>
    2d47:	a1 f0 0d 02 00       	mov    0x20df0,%eax
    2d4c:	85 c0                	test   %eax,%eax
    2d4e:	75 38                	jne    2d88 <loc_service_get_id+0x68>
    2d50:	c7 04 24 cc 0b 02 00 	movl   $0x20bcc,(%esp)
    2d57:	8b 1d ec 0d 02 00    	mov    0x20dec,%ebx
    2d5d:	e8 ce 52 00 00       	call   8030 <fibril_mutex_lock>
    2d62:	a1 f0 0d 02 00       	mov    0x20df0,%eax
    2d67:	85 c0                	test   %eax,%eax
    2d69:	0f 84 f9 00 00 00    	je     2e68 <loc_service_get_id+0x148>
    2d6f:	c7 04 24 cc 0b 02 00 	movl   $0x20bcc,(%esp)
    2d76:	e8 d5 53 00 00       	call   8150 <fibril_mutex_unlock>
    2d7b:	a1 f0 0d 02 00       	mov    0x20df0,%eax
    2d80:	85 c0                	test   %eax,%eax
    2d82:	0f 84 68 01 00 00    	je     2ef0 <loc_service_get_id+0x1d0>
    2d88:	c7 04 24 bc 0b 02 00 	movl   $0x20bbc,(%esp)
    2d8f:	e8 bc 53 00 00       	call   8150 <fibril_mutex_unlock>
    2d94:	c7 04 24 cc 0b 02 00 	movl   $0x20bcc,(%esp)
    2d9b:	8b 1d f0 0d 02 00    	mov    0x20df0,%ebx
    2da1:	e8 8a 52 00 00       	call   8030 <fibril_mutex_lock>
    2da6:	a1 ec 0d 02 00       	mov    0x20dec,%eax
    2dab:	85 c0                	test   %eax,%eax
    2dad:	0f 84 85 01 00 00    	je     2f38 <loc_service_get_id+0x218>
    2db3:	c7 04 24 cc 0b 02 00 	movl   $0x20bcc,(%esp)
    2dba:	e8 91 53 00 00       	call   8150 <fibril_mutex_unlock>
    2dbf:	a1 f0 0d 02 00       	mov    0x20df0,%eax
    2dc4:	89 04 24             	mov    %eax,(%esp)
    2dc7:	e8 b4 13 01 00       	call   14180 <async_exchange_begin>
    2dcc:	89 c3                	mov    %eax,%ebx
    2dce:	8d 45 c4             	lea    -0x3c(%ebp),%eax
    2dd1:	89 74 24 08          	mov    %esi,0x8(%esp)
    2dd5:	89 44 24 18          	mov    %eax,0x18(%esp)
    2dd9:	c7 44 24 14 00 00 00 	movl   $0x0,0x14(%esp)
    2de0:	00 
    2de1:	c7 44 24 10 00 00 00 	movl   $0x0,0x10(%esp)
    2de8:	00 
    2de9:	c7 44 24 0c 00 00 00 	movl   $0x0,0xc(%esp)
    2df0:	00 
    2df1:	c7 44 24 04 05 04 00 	movl   $0x405,0x4(%esp)
    2df8:	00 
    2df9:	89 1c 24             	mov    %ebx,(%esp)
    2dfc:	e8 1f fd 00 00       	call   12b20 <async_send_fast>
    2e01:	89 3c 24             	mov    %edi,(%esp)
    2e04:	89 c6                	mov    %eax,%esi
    2e06:	e8 05 20 00 00       	call   4e10 <str_size>
    2e0b:	89 7c 24 04          	mov    %edi,0x4(%esp)
    2e0f:	89 44 24 08          	mov    %eax,0x8(%esp)
    2e13:	89 1c 24             	mov    %ebx,(%esp)
    2e16:	e8 55 22 01 00       	call   15070 <async_data_write_start>
    2e1b:	89 1c 24             	mov    %ebx,(%esp)
    2e1e:	89 45 c0             	mov    %eax,-0x40(%ebp)
    2e21:	e8 ca 16 01 00       	call   144f0 <async_exchange_end>
    2e26:	8b 4d c0             	mov    -0x40(%ebp),%ecx
    2e29:	85 c9                	test   %ecx,%ecx
    2e2b:	0f 85 ef 00 00 00    	jne    2f20 <loc_service_get_id+0x200>
    2e31:	8d 45 c0             	lea    -0x40(%ebp),%eax
    2e34:	89 34 24             	mov    %esi,(%esp)
    2e37:	89 44 24 04          	mov    %eax,0x4(%esp)
    2e3b:	e8 b0 fe 00 00       	call   12cf0 <async_wait_for>
    2e40:	8b 45 c0             	mov    -0x40(%ebp),%eax
    2e43:	85 c0                	test   %eax,%eax
    2e45:	0f 84 85 00 00 00    	je     2ed0 <loc_service_get_id+0x1b0>
    2e4b:	8b 55 0c             	mov    0xc(%ebp),%edx
    2e4e:	85 d2                	test   %edx,%edx
    2e50:	74 09                	je     2e5b <loc_service_get_id+0x13b>
    2e52:	8b 55 0c             	mov    0xc(%ebp),%edx
    2e55:	c7 02 ff ff ff ff    	movl   $0xffffffff,(%edx)
    2e5b:	83 c4 5c             	add    $0x5c,%esp
    2e5e:	5b                   	pop    %ebx
    2e5f:	5e                   	pop    %esi
    2e60:	5f                   	pop    %edi
    2e61:	5d                   	pop    %ebp
    2e62:	c3                   	ret    
    2e63:	90                   	nop
    2e64:	8d 74 26 00          	lea    0x0(%esi,%eiz,1),%esi
    2e68:	85 db                	test   %ebx,%ebx
    2e6a:	0f 84 ff fe ff ff    	je     2d6f <loc_service_get_id+0x4f>
    2e70:	89 1d f0 0d 02 00    	mov    %ebx,0x20df0
    2e76:	e9 f4 fe ff ff       	jmp    2d6f <loc_service_get_id+0x4f>
    2e7b:	90                   	nop
    2e7c:	8d 74 26 00          	lea    0x0(%esi,%eiz,1),%esi
    2e80:	c7 04 24 cc 0b 02 00 	movl   $0x20bcc,(%esp)
    2e87:	e8 a4 51 00 00       	call   8030 <fibril_mutex_lock>
    2e8c:	8b 1d ec 0d 02 00    	mov    0x20dec,%ebx
    2e92:	85 db                	test   %ebx,%ebx
    2e94:	0f 84 b1 00 00 00    	je     2f4b <loc_service_get_id+0x22b>
    2e9a:	c7 04 24 cc 0b 02 00 	movl   $0x20bcc,(%esp)
    2ea1:	e8 aa 52 00 00       	call   8150 <fibril_mutex_unlock>
    2ea6:	a1 ec 0d 02 00       	mov    0x20dec,%eax
    2eab:	85 c0                	test   %eax,%eax
    2ead:	74 12                	je     2ec1 <loc_service_get_id+0x1a1>
    2eaf:	89 04 24             	mov    %eax,(%esp)
    2eb2:	e8 c9 12 01 00       	call   14180 <async_exchange_begin>
    2eb7:	89 c3                	mov    %eax,%ebx
    2eb9:	85 c0                	test   %eax,%eax
    2ebb:	0f 85 0d ff ff ff    	jne    2dce <loc_service_get_id+0xae>
    2ec1:	e8 2a 8f 01 00       	call   1bdf0 <__errno>
    2ec6:	8b 00                	mov    (%eax),%eax
    2ec8:	eb 91                	jmp    2e5b <loc_service_get_id+0x13b>
    2eca:	8d b6 00 00 00 00    	lea    0x0(%esi),%esi
    2ed0:	8b 45 0c             	mov    0xc(%ebp),%eax
    2ed3:	85 c0                	test   %eax,%eax
    2ed5:	74 08                	je     2edf <loc_service_get_id+0x1bf>
    2ed7:	8b 55 0c             	mov    0xc(%ebp),%edx
    2eda:	8b 45 c8             	mov    -0x38(%ebp),%eax
    2edd:	89 02                	mov    %eax,(%edx)
    2edf:	83 c4 5c             	add    $0x5c,%esp
    2ee2:	31 c0                	xor    %eax,%eax
    2ee4:	5b                   	pop    %ebx
    2ee5:	5e                   	pop    %esi
    2ee6:	5f                   	pop    %edi
    2ee7:	5d                   	pop    %ebp
    2ee8:	c3                   	ret    
    2ee9:	8d b4 26 00 00 00 00 	lea    0x0(%esi,%eiz,1),%esi
    2ef0:	c7 44 24 0c 00 00 00 	movl   $0x0,0xc(%esp)
    2ef7:	00 
    2ef8:	c7 44 24 08 02 00 00 	movl   $0x2,0x8(%esp)
    2eff:	00 
    2f00:	c7 44 24 04 6c 6f 63 	movl   $0x20636f6c,0x4(%esp)
    2f07:	20 
    2f08:	c7 04 24 02 00 00 00 	movl   $0x2,(%esp)
    2f0f:	e8 bc e5 00 00       	call   114d0 <service_connect_blocking>
    2f14:	a3 f0 0d 02 00       	mov    %eax,0x20df0
    2f19:	e9 2e fe ff ff       	jmp    2d4c <loc_service_get_id+0x2c>
    2f1e:	66 90                	xchg   %ax,%ax
    2f20:	89 34 24             	mov    %esi,(%esp)
    2f23:	e8 18 00 01 00       	call   12f40 <async_forget>
    2f28:	8b 45 c0             	mov    -0x40(%ebp),%eax
    2f2b:	83 c4 5c             	add    $0x5c,%esp
    2f2e:	5b                   	pop    %ebx
    2f2f:	5e                   	pop    %esi
    2f30:	5f                   	pop    %edi
    2f31:	5d                   	pop    %ebp
    2f32:	c3                   	ret    
    2f33:	90                   	nop
    2f34:	8d 74 26 00          	lea    0x0(%esi,%eiz,1),%esi
    2f38:	85 db                	test   %ebx,%ebx
    2f3a:	0f 84 73 fe ff ff    	je     2db3 <loc_service_get_id+0x93>
    2f40:	89 1d ec 0d 02 00    	mov    %ebx,0x20dec
    2f46:	e9 68 fe ff ff       	jmp    2db3 <loc_service_get_id+0x93>
    2f4b:	c7 44 24 0c 00 00 00 	movl   $0x0,0xc(%esp)
    2f52:	00 
    2f53:	c7 44 24 08 02 00 00 	movl   $0x2,0x8(%esp)
    2f5a:	00 
    2f5b:	c7 44 24 04 6c 6f 63 	movl   $0x20636f6c,0x4(%esp)
    2f62:	20 
    2f63:	c7 04 24 02 00 00 00 	movl   $0x2,(%esp)
    2f6a:	e8 e1 e4 00 00       	call   11450 <service_connect>
    2f6f:	a3 ec 0d 02 00       	mov    %eax,0x20dec
    2f74:	e9 21 ff ff ff       	jmp    2e9a <loc_service_get_id+0x17a>
    2f79:	8d b4 26 00 00 00 00 	lea    0x0(%esi,%eiz,1),%esi

00002f80 <loc_category_get_name>:
    2f80:	55                   	push   %ebp
    2f81:	b8 0b 04 00 00       	mov    $0x40b,%eax
    2f86:	89 e5                	mov    %esp,%ebp
    2f88:	8b 4d 0c             	mov    0xc(%ebp),%ecx
    2f8b:	8b 55 08             	mov    0x8(%ebp),%edx
    2f8e:	5d                   	pop    %ebp
    2f8f:	e9 6c ed ff ff       	jmp    1d00 <loc_get_name_internal>
    2f94:	8d b6 00 00 00 00    	lea    0x0(%esi),%esi
    2f9a:	8d bf 00 00 00 00    	lea    0x0(%edi),%edi

00002fa0 <loc_service_get_name>:
    2fa0:	55                   	push   %ebp
    2fa1:	b8 06 04 00 00       	mov    $0x406,%eax
    2fa6:	89 e5                	mov    %esp,%ebp
    2fa8:	8b 4d 0c             	mov    0xc(%ebp),%ecx
    2fab:	8b 55 08             	mov    0x8(%ebp),%edx
    2fae:	5d                   	pop    %ebp
    2faf:	e9 4c ed ff ff       	jmp    1d00 <loc_get_name_internal>
    2fb4:	8d b6 00 00 00 00    	lea    0x0(%esi),%esi
    2fba:	8d bf 00 00 00 00    	lea    0x0(%edi),%edi

00002fc0 <loc_service_get_server_name>:
    2fc0:	55                   	push   %ebp
    2fc1:	b8 07 04 00 00       	mov    $0x407,%eax
    2fc6:	89 e5                	mov    %esp,%ebp
    2fc8:	8b 4d 0c             	mov    0xc(%ebp),%ecx
    2fcb:	8b 55 08             	mov    0x8(%ebp),%edx
    2fce:	5d                   	pop    %ebp
    2fcf:	e9 2c ed ff ff       	jmp    1d00 <loc_get_name_internal>
    2fd4:	8d b6 00 00 00 00    	lea    0x0(%esi),%esi
    2fda:	8d bf 00 00 00 00    	lea    0x0(%edi),%edi

00002fe0 <loc_namespace_get_id>:
    2fe0:	55                   	push   %ebp
    2fe1:	89 e5                	mov    %esp,%ebp
    2fe3:	57                   	push   %edi
    2fe4:	56                   	push   %esi
    2fe5:	53                   	push   %ebx
    2fe6:	83 ec 5c             	sub    $0x5c,%esp
    2fe9:	8b 75 10             	mov    0x10(%ebp),%esi
    2fec:	8b 7d 08             	mov    0x8(%ebp),%edi
    2fef:	f7 c6 01 00 00 00    	test   $0x1,%esi
    2ff5:	0f 84 45 01 00 00    	je     3140 <loc_namespace_get_id+0x160>
    2ffb:	c7 04 24 bc 0b 02 00 	movl   $0x20bbc,(%esp)
    3002:	e8 29 50 00 00       	call   8030 <fibril_mutex_lock>
    3007:	a1 f0 0d 02 00       	mov    0x20df0,%eax
    300c:	85 c0                	test   %eax,%eax
    300e:	75 38                	jne    3048 <loc_namespace_get_id+0x68>
    3010:	c7 04 24 cc 0b 02 00 	movl   $0x20bcc,(%esp)
    3017:	8b 1d ec 0d 02 00    	mov    0x20dec,%ebx
    301d:	e8 0e 50 00 00       	call   8030 <fibril_mutex_lock>
    3022:	a1 f0 0d 02 00       	mov    0x20df0,%eax
    3027:	85 c0                	test   %eax,%eax
    3029:	0f 84 f9 00 00 00    	je     3128 <loc_namespace_get_id+0x148>
    302f:	c7 04 24 cc 0b 02 00 	movl   $0x20bcc,(%esp)
    3036:	e8 15 51 00 00       	call   8150 <fibril_mutex_unlock>
    303b:	a1 f0 0d 02 00       	mov    0x20df0,%eax
    3040:	85 c0                	test   %eax,%eax
    3042:	0f 84 68 01 00 00    	je     31b0 <loc_namespace_get_id+0x1d0>
    3048:	c7 04 24 bc 0b 02 00 	movl   $0x20bbc,(%esp)
    304f:	e8 fc 50 00 00       	call   8150 <fibril_mutex_unlock>
    3054:	c7 04 24 cc 0b 02 00 	movl   $0x20bcc,(%esp)
    305b:	8b 1d f0 0d 02 00    	mov    0x20df0,%ebx
    3061:	e8 ca 4f 00 00       	call   8030 <fibril_mutex_lock>
    3066:	a1 ec 0d 02 00       	mov    0x20dec,%eax
    306b:	85 c0                	test   %eax,%eax
    306d:	0f 84 85 01 00 00    	je     31f8 <loc_namespace_get_id+0x218>
    3073:	c7 04 24 cc 0b 02 00 	movl   $0x20bcc,(%esp)
    307a:	e8 d1 50 00 00       	call   8150 <fibril_mutex_unlock>
    307f:	a1 f0 0d 02 00       	mov    0x20df0,%eax
    3084:	89 04 24             	mov    %eax,(%esp)
    3087:	e8 f4 10 01 00       	call   14180 <async_exchange_begin>
    308c:	89 c3                	mov    %eax,%ebx
    308e:	8d 45 c4             	lea    -0x3c(%ebp),%eax
    3091:	89 74 24 08          	mov    %esi,0x8(%esp)
    3095:	89 44 24 18          	mov    %eax,0x18(%esp)
    3099:	c7 44 24 14 00 00 00 	movl   $0x0,0x14(%esp)
    30a0:	00 
    30a1:	c7 44 24 10 00 00 00 	movl   $0x0,0x10(%esp)
    30a8:	00 
    30a9:	c7 44 24 0c 00 00 00 	movl   $0x0,0xc(%esp)
    30b0:	00 
    30b1:	c7 44 24 04 08 04 00 	movl   $0x408,0x4(%esp)
    30b8:	00 
    30b9:	89 1c 24             	mov    %ebx,(%esp)
    30bc:	e8 5f fa 00 00       	call   12b20 <async_send_fast>
    30c1:	89 3c 24             	mov    %edi,(%esp)
    30c4:	89 c6                	mov    %eax,%esi
    30c6:	e8 45 1d 00 00       	call   4e10 <str_size>
    30cb:	89 7c 24 04          	mov    %edi,0x4(%esp)
    30cf:	89 44 24 08          	mov    %eax,0x8(%esp)
    30d3:	89 1c 24             	mov    %ebx,(%esp)
    30d6:	e8 95 1f 01 00       	call   15070 <async_data_write_start>
    30db:	89 1c 24             	mov    %ebx,(%esp)
    30de:	89 45 c0             	mov    %eax,-0x40(%ebp)
    30e1:	e8 0a 14 01 00       	call   144f0 <async_exchange_end>
    30e6:	8b 4d c0             	mov    -0x40(%ebp),%ecx
    30e9:	85 c9                	test   %ecx,%ecx
    30eb:	0f 85 ef 00 00 00    	jne    31e0 <loc_namespace_get_id+0x200>
    30f1:	8d 45 c0             	lea    -0x40(%ebp),%eax
    30f4:	89 34 24             	mov    %esi,(%esp)
    30f7:	89 44 24 04          	mov    %eax,0x4(%esp)
    30fb:	e8 f0 fb 00 00       	call   12cf0 <async_wait_for>
    3100:	8b 45 c0             	mov    -0x40(%ebp),%eax
    3103:	85 c0                	test   %eax,%eax
    3105:	0f 84 85 00 00 00    	je     3190 <loc_namespace_get_id+0x1b0>
    310b:	8b 55 0c             	mov    0xc(%ebp),%edx
    310e:	85 d2                	test   %edx,%edx
    3110:	74 09                	je     311b <loc_namespace_get_id+0x13b>
    3112:	8b 55 0c             	mov    0xc(%ebp),%edx
    3115:	c7 02 ff ff ff ff    	movl   $0xffffffff,(%edx)
    311b:	83 c4 5c             	add    $0x5c,%esp
    311e:	5b                   	pop    %ebx
    311f:	5e                   	pop    %esi
    3120:	5f                   	pop    %edi
    3121:	5d                   	pop    %ebp
    3122:	c3                   	ret    
    3123:	90                   	nop
    3124:	8d 74 26 00          	lea    0x0(%esi,%eiz,1),%esi
    3128:	85 db                	test   %ebx,%ebx
    312a:	0f 84 ff fe ff ff    	je     302f <loc_namespace_get_id+0x4f>
    3130:	89 1d f0 0d 02 00    	mov    %ebx,0x20df0
    3136:	e9 f4 fe ff ff       	jmp    302f <loc_namespace_get_id+0x4f>
    313b:	90                   	nop
    313c:	8d 74 26 00          	lea    0x0(%esi,%eiz,1),%esi
    3140:	c7 04 24 cc 0b 02 00 	movl   $0x20bcc,(%esp)
    3147:	e8 e4 4e 00 00       	call   8030 <fibril_mutex_lock>
    314c:	8b 1d ec 0d 02 00    	mov    0x20dec,%ebx
    3152:	85 db                	test   %ebx,%ebx
    3154:	0f 84 b1 00 00 00    	je     320b <loc_namespace_get_id+0x22b>
    315a:	c7 04 24 cc 0b 02 00 	movl   $0x20bcc,(%esp)
    3161:	e8 ea 4f 00 00       	call   8150 <fibril_mutex_unlock>
    3166:	a1 ec 0d 02 00       	mov    0x20dec,%eax
    316b:	85 c0                	test   %eax,%eax
    316d:	74 12                	je     3181 <loc_namespace_get_id+0x1a1>
    316f:	89 04 24             	mov    %eax,(%esp)
    3172:	e8 09 10 01 00       	call   14180 <async_exchange_begin>
    3177:	89 c3                	mov    %eax,%ebx
    3179:	85 c0                	test   %eax,%eax
    317b:	0f 85 0d ff ff ff    	jne    308e <loc_namespace_get_id+0xae>
    3181:	e8 6a 8c 01 00       	call   1bdf0 <__errno>
    3186:	8b 00                	mov    (%eax),%eax
    3188:	eb 91                	jmp    311b <loc_namespace_get_id+0x13b>
    318a:	8d b6 00 00 00 00    	lea    0x0(%esi),%esi
    3190:	8b 45 0c             	mov    0xc(%ebp),%eax
    3193:	85 c0                	test   %eax,%eax
    3195:	74 08                	je     319f <loc_namespace_get_id+0x1bf>
    3197:	8b 55 0c             	mov    0xc(%ebp),%edx
    319a:	8b 45 c8             	mov    -0x38(%ebp),%eax
    319d:	89 02                	mov    %eax,(%edx)
    319f:	83 c4 5c             	add    $0x5c,%esp
    31a2:	31 c0                	xor    %eax,%eax
    31a4:	5b                   	pop    %ebx
    31a5:	5e                   	pop    %esi
    31a6:	5f                   	pop    %edi
    31a7:	5d                   	pop    %ebp
    31a8:	c3                   	ret    
    31a9:	8d b4 26 00 00 00 00 	lea    0x0(%esi,%eiz,1),%esi
    31b0:	c7 44 24 0c 00 00 00 	movl   $0x0,0xc(%esp)
    31b7:	00 
    31b8:	c7 44 24 08 02 00 00 	movl   $0x2,0x8(%esp)
    31bf:	00 
    31c0:	c7 44 24 04 6c 6f 63 	movl   $0x20636f6c,0x4(%esp)
    31c7:	20 
    31c8:	c7 04 24 02 00 00 00 	movl   $0x2,(%esp)
    31cf:	e8 fc e2 00 00       	call   114d0 <service_connect_blocking>
    31d4:	a3 f0 0d 02 00       	mov    %eax,0x20df0
    31d9:	e9 2e fe ff ff       	jmp    300c <loc_namespace_get_id+0x2c>
    31de:	66 90                	xchg   %ax,%ax
    31e0:	89 34 24             	mov    %esi,(%esp)
    31e3:	e8 58 fd 00 00       	call   12f40 <async_forget>
    31e8:	8b 45 c0             	mov    -0x40(%ebp),%eax
    31eb:	83 c4 5c             	add    $0x5c,%esp
    31ee:	5b                   	pop    %ebx
    31ef:	5e                   	pop    %esi
    31f0:	5f                   	pop    %edi
    31f1:	5d                   	pop    %ebp
    31f2:	c3                   	ret    
    31f3:	90                   	nop
    31f4:	8d 74 26 00          	lea    0x0(%esi,%eiz,1),%esi
    31f8:	85 db                	test   %ebx,%ebx
    31fa:	0f 84 73 fe ff ff    	je     3073 <loc_namespace_get_id+0x93>
    3200:	89 1d ec 0d 02 00    	mov    %ebx,0x20dec
    3206:	e9 68 fe ff ff       	jmp    3073 <loc_namespace_get_id+0x93>
    320b:	c7 44 24 0c 00 00 00 	movl   $0x0,0xc(%esp)
    3212:	00 
    3213:	c7 44 24 08 02 00 00 	movl   $0x2,0x8(%esp)
    321a:	00 
    321b:	c7 44 24 04 6c 6f 63 	movl   $0x20636f6c,0x4(%esp)
    3222:	20 
    3223:	c7 04 24 02 00 00 00 	movl   $0x2,(%esp)
    322a:	e8 21 e2 00 00       	call   11450 <service_connect>
    322f:	a3 ec 0d 02 00       	mov    %eax,0x20dec
    3234:	e9 21 ff ff ff       	jmp    315a <loc_namespace_get_id+0x17a>
    3239:	8d b4 26 00 00 00 00 	lea    0x0(%esi,%eiz,1),%esi

00003240 <loc_category_get_id>:
    3240:	55                   	push   %ebp
    3241:	89 e5                	mov    %esp,%ebp
    3243:	57                   	push   %edi
    3244:	56                   	push   %esi
    3245:	53                   	push   %ebx
    3246:	83 ec 5c             	sub    $0x5c,%esp
    3249:	8b 75 08             	mov    0x8(%ebp),%esi
    324c:	f6 45 10 01          	testb  $0x1,0x10(%ebp)
    3250:	0f 84 4a 01 00 00    	je     33a0 <loc_category_get_id+0x160>
    3256:	c7 04 24 bc 0b 02 00 	movl   $0x20bbc,(%esp)
    325d:	e8 ce 4d 00 00       	call   8030 <fibril_mutex_lock>
    3262:	a1 f0 0d 02 00       	mov    0x20df0,%eax
    3267:	85 c0                	test   %eax,%eax
    3269:	75 38                	jne    32a3 <loc_category_get_id+0x63>
    326b:	c7 04 24 cc 0b 02 00 	movl   $0x20bcc,(%esp)
    3272:	8b 1d ec 0d 02 00    	mov    0x20dec,%ebx
    3278:	e8 b3 4d 00 00       	call   8030 <fibril_mutex_lock>
    327d:	a1 f0 0d 02 00       	mov    0x20df0,%eax
    3282:	85 c0                	test   %eax,%eax
    3284:	0f 84 fe 00 00 00    	je     3388 <loc_category_get_id+0x148>
    328a:	c7 04 24 cc 0b 02 00 	movl   $0x20bcc,(%esp)
    3291:	e8 ba 4e 00 00       	call   8150 <fibril_mutex_unlock>
    3296:	a1 f0 0d 02 00       	mov    0x20df0,%eax
    329b:	85 c0                	test   %eax,%eax
    329d:	0f 84 6d 01 00 00    	je     3410 <loc_category_get_id+0x1d0>
    32a3:	c7 04 24 bc 0b 02 00 	movl   $0x20bbc,(%esp)
    32aa:	e8 a1 4e 00 00       	call   8150 <fibril_mutex_unlock>
    32af:	c7 04 24 cc 0b 02 00 	movl   $0x20bcc,(%esp)
    32b6:	8b 1d f0 0d 02 00    	mov    0x20df0,%ebx
    32bc:	e8 6f 4d 00 00       	call   8030 <fibril_mutex_lock>
    32c1:	8b 3d ec 0d 02 00    	mov    0x20dec,%edi
    32c7:	85 ff                	test   %edi,%edi
    32c9:	0f 84 89 01 00 00    	je     3458 <loc_category_get_id+0x218>
    32cf:	c7 04 24 cc 0b 02 00 	movl   $0x20bcc,(%esp)
    32d6:	e8 75 4e 00 00       	call   8150 <fibril_mutex_unlock>
    32db:	a1 f0 0d 02 00       	mov    0x20df0,%eax
    32e0:	89 04 24             	mov    %eax,(%esp)
    32e3:	e8 98 0e 01 00       	call   14180 <async_exchange_begin>
    32e8:	89 c3                	mov    %eax,%ebx
    32ea:	8d 45 c4             	lea    -0x3c(%ebp),%eax
    32ed:	c7 44 24 14 00 00 00 	movl   $0x0,0x14(%esp)
    32f4:	00 
    32f5:	89 44 24 18          	mov    %eax,0x18(%esp)
    32f9:	c7 44 24 10 00 00 00 	movl   $0x0,0x10(%esp)
    3300:	00 
    3301:	c7 44 24 0c 00 00 00 	movl   $0x0,0xc(%esp)
    3308:	00 
    3309:	c7 44 24 08 00 00 00 	movl   $0x0,0x8(%esp)
    3310:	00 
    3311:	c7 44 24 04 0a 04 00 	movl   $0x40a,0x4(%esp)
    3318:	00 
    3319:	89 1c 24             	mov    %ebx,(%esp)
    331c:	e8 ff f7 00 00       	call   12b20 <async_send_fast>
    3321:	89 34 24             	mov    %esi,(%esp)
    3324:	89 c7                	mov    %eax,%edi
    3326:	e8 e5 1a 00 00       	call   4e10 <str_size>
    332b:	89 74 24 04          	mov    %esi,0x4(%esp)
    332f:	89 44 24 08          	mov    %eax,0x8(%esp)
    3333:	89 1c 24             	mov    %ebx,(%esp)
    3336:	e8 35 1d 01 00       	call   15070 <async_data_write_start>
    333b:	89 1c 24             	mov    %ebx,(%esp)
    333e:	89 45 c0             	mov    %eax,-0x40(%ebp)
    3341:	e8 aa 11 01 00       	call   144f0 <async_exchange_end>
    3346:	8b 4d c0             	mov    -0x40(%ebp),%ecx
    3349:	85 c9                	test   %ecx,%ecx
    334b:	0f 85 ef 00 00 00    	jne    3440 <loc_category_get_id+0x200>
    3351:	8d 45 c0             	lea    -0x40(%ebp),%eax
    3354:	89 3c 24             	mov    %edi,(%esp)
    3357:	89 44 24 04          	mov    %eax,0x4(%esp)
    335b:	e8 90 f9 00 00       	call   12cf0 <async_wait_for>
    3360:	8b 45 c0             	mov    -0x40(%ebp),%eax
    3363:	85 c0                	test   %eax,%eax
    3365:	0f 84 85 00 00 00    	je     33f0 <loc_category_get_id+0x1b0>
    336b:	8b 55 0c             	mov    0xc(%ebp),%edx
    336e:	85 d2                	test   %edx,%edx
    3370:	74 09                	je     337b <loc_category_get_id+0x13b>
    3372:	8b 55 0c             	mov    0xc(%ebp),%edx
    3375:	c7 02 ff ff ff ff    	movl   $0xffffffff,(%edx)
    337b:	83 c4 5c             	add    $0x5c,%esp
    337e:	5b                   	pop    %ebx
    337f:	5e                   	pop    %esi
    3380:	5f                   	pop    %edi
    3381:	5d                   	pop    %ebp
    3382:	c3                   	ret    
    3383:	90                   	nop
    3384:	8d 74 26 00          	lea    0x0(%esi,%eiz,1),%esi
    3388:	85 db                	test   %ebx,%ebx
    338a:	0f 84 fa fe ff ff    	je     328a <loc_category_get_id+0x4a>
    3390:	89 1d f0 0d 02 00    	mov    %ebx,0x20df0
    3396:	e9 ef fe ff ff       	jmp    328a <loc_category_get_id+0x4a>
    339b:	90                   	nop
    339c:	8d 74 26 00          	lea    0x0(%esi,%eiz,1),%esi
    33a0:	c7 04 24 cc 0b 02 00 	movl   $0x20bcc,(%esp)
    33a7:	e8 84 4c 00 00       	call   8030 <fibril_mutex_lock>
    33ac:	8b 1d ec 0d 02 00    	mov    0x20dec,%ebx
    33b2:	85 db                	test   %ebx,%ebx
    33b4:	0f 84 b1 00 00 00    	je     346b <loc_category_get_id+0x22b>
    33ba:	c7 04 24 cc 0b 02 00 	movl   $0x20bcc,(%esp)
    33c1:	e8 8a 4d 00 00       	call   8150 <fibril_mutex_unlock>
    33c6:	a1 ec 0d 02 00       	mov    0x20dec,%eax
    33cb:	85 c0                	test   %eax,%eax
    33cd:	74 12                	je     33e1 <loc_category_get_id+0x1a1>
    33cf:	89 04 24             	mov    %eax,(%esp)
    33d2:	e8 a9 0d 01 00       	call   14180 <async_exchange_begin>
    33d7:	89 c3                	mov    %eax,%ebx
    33d9:	85 c0                	test   %eax,%eax
    33db:	0f 85 09 ff ff ff    	jne    32ea <loc_category_get_id+0xaa>
    33e1:	e8 0a 8a 01 00       	call   1bdf0 <__errno>
    33e6:	8b 00                	mov    (%eax),%eax
    33e8:	eb 91                	jmp    337b <loc_category_get_id+0x13b>
    33ea:	8d b6 00 00 00 00    	lea    0x0(%esi),%esi
    33f0:	8b 45 0c             	mov    0xc(%ebp),%eax
    33f3:	85 c0                	test   %eax,%eax
    33f5:	74 08                	je     33ff <loc_category_get_id+0x1bf>
    33f7:	8b 55 0c             	mov    0xc(%ebp),%edx
    33fa:	8b 45 c8             	mov    -0x38(%ebp),%eax
    33fd:	89 02                	mov    %eax,(%edx)
    33ff:	83 c4 5c             	add    $0x5c,%esp
    3402:	31 c0                	xor    %eax,%eax
    3404:	5b                   	pop    %ebx
    3405:	5e                   	pop    %esi
    3406:	5f                   	pop    %edi
    3407:	5d                   	pop    %ebp
    3408:	c3                   	ret    
    3409:	8d b4 26 00 00 00 00 	lea    0x0(%esi,%eiz,1),%esi
    3410:	c7 44 24 0c 00 00 00 	movl   $0x0,0xc(%esp)
    3417:	00 
    3418:	c7 44 24 08 02 00 00 	movl   $0x2,0x8(%esp)
    341f:	00 
    3420:	c7 44 24 04 6c 6f 63 	movl   $0x20636f6c,0x4(%esp)
    3427:	20 
    3428:	c7 04 24 02 00 00 00 	movl   $0x2,(%esp)
    342f:	e8 9c e0 00 00       	call   114d0 <service_connect_blocking>
    3434:	a3 f0 0d 02 00       	mov    %eax,0x20df0
    3439:	e9 29 fe ff ff       	jmp    3267 <loc_category_get_id+0x27>
    343e:	66 90                	xchg   %ax,%ax
    3440:	89 3c 24             	mov    %edi,(%esp)
    3443:	e8 f8 fa 00 00       	call   12f40 <async_forget>
    3448:	8b 45 c0             	mov    -0x40(%ebp),%eax
    344b:	83 c4 5c             	add    $0x5c,%esp
    344e:	5b                   	pop    %ebx
    344f:	5e                   	pop    %esi
    3450:	5f                   	pop    %edi
    3451:	5d                   	pop    %ebp
    3452:	c3                   	ret    
    3453:	90                   	nop
    3454:	8d 74 26 00          	lea    0x0(%esi,%eiz,1),%esi
    3458:	85 db                	test   %ebx,%ebx
    345a:	0f 84 6f fe ff ff    	je     32cf <loc_category_get_id+0x8f>
    3460:	89 1d ec 0d 02 00    	mov    %ebx,0x20dec
    3466:	e9 64 fe ff ff       	jmp    32cf <loc_category_get_id+0x8f>
    346b:	c7 44 24 0c 00 00 00 	movl   $0x0,0xc(%esp)
    3472:	00 
    3473:	c7 44 24 08 02 00 00 	movl   $0x2,0x8(%esp)
    347a:	00 
    347b:	c7 44 24 04 6c 6f 63 	movl   $0x20636f6c,0x4(%esp)
    3482:	20 
    3483:	c7 04 24 02 00 00 00 	movl   $0x2,(%esp)
    348a:	e8 c1 df 00 00       	call   11450 <service_connect>
    348f:	a3 ec 0d 02 00       	mov    %eax,0x20dec
    3494:	e9 21 ff ff ff       	jmp    33ba <loc_category_get_id+0x17a>
    3499:	8d b4 26 00 00 00 00 	lea    0x0(%esi,%eiz,1),%esi

000034a0 <loc_id_probe>:
    34a0:	55                   	push   %ebp
    34a1:	89 e5                	mov    %esp,%ebp
    34a3:	56                   	push   %esi
    34a4:	53                   	push   %ebx
    34a5:	83 ec 40             	sub    $0x40,%esp
    34a8:	c7 04 24 bc 0b 02 00 	movl   $0x20bbc,(%esp)
    34af:	e8 7c 4b 00 00       	call   8030 <fibril_mutex_lock>
    34b4:	a1 f0 0d 02 00       	mov    0x20df0,%eax
    34b9:	85 c0                	test   %eax,%eax
    34bb:	75 38                	jne    34f5 <loc_id_probe+0x55>
    34bd:	c7 04 24 cc 0b 02 00 	movl   $0x20bcc,(%esp)
    34c4:	8b 1d ec 0d 02 00    	mov    0x20dec,%ebx
    34ca:	e8 61 4b 00 00       	call   8030 <fibril_mutex_lock>
    34cf:	a1 f0 0d 02 00       	mov    0x20df0,%eax
    34d4:	85 c0                	test   %eax,%eax
    34d6:	0f 84 d4 00 00 00    	je     35b0 <loc_id_probe+0x110>
    34dc:	c7 04 24 cc 0b 02 00 	movl   $0x20bcc,(%esp)
    34e3:	e8 68 4c 00 00       	call   8150 <fibril_mutex_unlock>
    34e8:	a1 f0 0d 02 00       	mov    0x20df0,%eax
    34ed:	85 c0                	test   %eax,%eax
    34ef:	0f 84 d3 00 00 00    	je     35c8 <loc_id_probe+0x128>
    34f5:	c7 04 24 bc 0b 02 00 	movl   $0x20bbc,(%esp)
    34fc:	e8 4f 4c 00 00       	call   8150 <fibril_mutex_unlock>
    3501:	c7 04 24 cc 0b 02 00 	movl   $0x20bcc,(%esp)
    3508:	8b 1d f0 0d 02 00    	mov    0x20df0,%ebx
    350e:	e8 1d 4b 00 00       	call   8030 <fibril_mutex_lock>
    3513:	a1 ec 0d 02 00       	mov    0x20dec,%eax
    3518:	85 c0                	test   %eax,%eax
    351a:	0f 84 d8 00 00 00    	je     35f8 <loc_id_probe+0x158>
    3520:	c7 04 24 cc 0b 02 00 	movl   $0x20bcc,(%esp)
    3527:	e8 24 4c 00 00       	call   8150 <fibril_mutex_unlock>
    352c:	a1 f0 0d 02 00       	mov    0x20df0,%eax
    3531:	89 04 24             	mov    %eax,(%esp)
    3534:	e8 47 0c 01 00       	call   14180 <async_exchange_begin>
    3539:	c7 44 24 28 00 00 00 	movl   $0x0,0x28(%esp)
    3540:	00 
    3541:	89 c3                	mov    %eax,%ebx
    3543:	8d 45 f4             	lea    -0xc(%ebp),%eax
    3546:	89 44 24 18          	mov    %eax,0x18(%esp)
    354a:	8b 45 08             	mov    0x8(%ebp),%eax
    354d:	c7 44 24 24 00 00 00 	movl   $0x0,0x24(%esp)
    3554:	00 
    3555:	c7 44 24 20 00 00 00 	movl   $0x0,0x20(%esp)
    355c:	00 
    355d:	c7 44 24 1c 00 00 00 	movl   $0x0,0x1c(%esp)
    3564:	00 
    3565:	c7 44 24 14 00 00 00 	movl   $0x0,0x14(%esp)
    356c:	00 
    356d:	c7 44 24 10 00 00 00 	movl   $0x0,0x10(%esp)
    3574:	00 
    3575:	c7 44 24 0c 00 00 00 	movl   $0x0,0xc(%esp)
    357c:	00 
    357d:	89 44 24 08          	mov    %eax,0x8(%esp)
    3581:	c7 44 24 04 0d 04 00 	movl   $0x40d,0x4(%esp)
    3588:	00 
    3589:	89 1c 24             	mov    %ebx,(%esp)
    358c:	e8 9f fb 00 00       	call   13130 <async_req_fast>
    3591:	89 1c 24             	mov    %ebx,(%esp)
    3594:	89 c6                	mov    %eax,%esi
    3596:	e8 55 0f 01 00       	call   144f0 <async_exchange_end>
    359b:	31 c0                	xor    %eax,%eax
    359d:	85 f6                	test   %esi,%esi
    359f:	75 03                	jne    35a4 <loc_id_probe+0x104>
    35a1:	8b 45 f4             	mov    -0xc(%ebp),%eax
    35a4:	83 c4 40             	add    $0x40,%esp
    35a7:	5b                   	pop    %ebx
    35a8:	5e                   	pop    %esi
    35a9:	5d                   	pop    %ebp
    35aa:	c3                   	ret    
    35ab:	90                   	nop
    35ac:	8d 74 26 00          	lea    0x0(%esi,%eiz,1),%esi
    35b0:	85 db                	test   %ebx,%ebx
    35b2:	0f 84 24 ff ff ff    	je     34dc <loc_id_probe+0x3c>
    35b8:	89 1d f0 0d 02 00    	mov    %ebx,0x20df0
    35be:	e9 19 ff ff ff       	jmp    34dc <loc_id_probe+0x3c>
    35c3:	90                   	nop
    35c4:	8d 74 26 00          	lea    0x0(%esi,%eiz,1),%esi
    35c8:	c7 44 24 0c 00 00 00 	movl   $0x0,0xc(%esp)
    35cf:	00 
    35d0:	c7 44 24 08 02 00 00 	movl   $0x2,0x8(%esp)
    35d7:	00 
    35d8:	c7 44 24 04 6c 6f 63 	movl   $0x20636f6c,0x4(%esp)
    35df:	20 
    35e0:	c7 04 24 02 00 00 00 	movl   $0x2,(%esp)
    35e7:	e8 e4 de 00 00       	call   114d0 <service_connect_blocking>
    35ec:	a3 f0 0d 02 00       	mov    %eax,0x20df0
    35f1:	e9 c3 fe ff ff       	jmp    34b9 <loc_id_probe+0x19>
    35f6:	66 90                	xchg   %ax,%ax
    35f8:	85 db                	test   %ebx,%ebx
    35fa:	0f 84 20 ff ff ff    	je     3520 <loc_id_probe+0x80>
    3600:	89 1d ec 0d 02 00    	mov    %ebx,0x20dec
    3606:	e9 15 ff ff ff       	jmp    3520 <loc_id_probe+0x80>
    360b:	90                   	nop
    360c:	8d 74 26 00          	lea    0x0(%esi,%eiz,1),%esi

00003610 <loc_service_connect>:
    3610:	55                   	push   %ebp
    3611:	89 e5                	mov    %esp,%ebp
    3613:	83 ec 18             	sub    $0x18,%esp
    3616:	8b 45 08             	mov    0x8(%ebp),%eax
    3619:	8b 55 0c             	mov    0xc(%ebp),%edx
    361c:	f6 45 10 01          	testb  $0x1,0x10(%ebp)
    3620:	89 54 24 0c          	mov    %edx,0xc(%esp)
    3624:	c7 44 24 08 03 00 00 	movl   $0x3,0x8(%esp)
    362b:	00 
    362c:	c7 44 24 04 6c 6f 63 	movl   $0x20636f6c,0x4(%esp)
    3633:	20 
    3634:	89 04 24             	mov    %eax,(%esp)
    3637:	75 07                	jne    3640 <loc_service_connect+0x30>
    3639:	e8 12 de 00 00       	call   11450 <service_connect>
    363e:	c9                   	leave  
    363f:	c3                   	ret    
    3640:	e8 8b de 00 00       	call   114d0 <service_connect_blocking>
    3645:	c9                   	leave  
    3646:	c3                   	ret    
    3647:	89 f6                	mov    %esi,%esi
    3649:	8d bc 27 00 00 00 00 	lea    0x0(%edi,%eiz,1),%edi

00003650 <loc_null_create>:
    3650:	55                   	push   %ebp
    3651:	89 e5                	mov    %esp,%ebp
    3653:	56                   	push   %esi
    3654:	53                   	push   %ebx
    3655:	83 ec 40             	sub    $0x40,%esp
    3658:	c7 04 24 bc 0b 02 00 	movl   $0x20bbc,(%esp)
    365f:	e8 cc 49 00 00       	call   8030 <fibril_mutex_lock>
    3664:	a1 f0 0d 02 00       	mov    0x20df0,%eax
    3669:	85 c0                	test   %eax,%eax
    366b:	75 3a                	jne    36a7 <loc_null_create+0x57>
    366d:	c7 04 24 cc 0b 02 00 	movl   $0x20bcc,(%esp)
    3674:	8b 1d ec 0d 02 00    	mov    0x20dec,%ebx
    367a:	e8 b1 49 00 00       	call   8030 <fibril_mutex_lock>
    367f:	8b 0d f0 0d 02 00    	mov    0x20df0,%ecx
    3685:	85 c9                	test   %ecx,%ecx
    3687:	0f 84 d3 00 00 00    	je     3760 <loc_null_create+0x110>
    368d:	c7 04 24 cc 0b 02 00 	movl   $0x20bcc,(%esp)
    3694:	e8 b7 4a 00 00       	call   8150 <fibril_mutex_unlock>
    3699:	8b 15 f0 0d 02 00    	mov    0x20df0,%edx
    369f:	85 d2                	test   %edx,%edx
    36a1:	0f 84 d1 00 00 00    	je     3778 <loc_null_create+0x128>
    36a7:	c7 04 24 bc 0b 02 00 	movl   $0x20bbc,(%esp)
    36ae:	e8 9d 4a 00 00       	call   8150 <fibril_mutex_unlock>
    36b3:	c7 04 24 cc 0b 02 00 	movl   $0x20bcc,(%esp)
    36ba:	8b 1d f0 0d 02 00    	mov    0x20df0,%ebx
    36c0:	e8 6b 49 00 00       	call   8030 <fibril_mutex_lock>
    36c5:	a1 ec 0d 02 00       	mov    0x20dec,%eax
    36ca:	85 c0                	test   %eax,%eax
    36cc:	0f 84 d6 00 00 00    	je     37a8 <loc_null_create+0x158>
    36d2:	c7 04 24 cc 0b 02 00 	movl   $0x20bcc,(%esp)
    36d9:	e8 72 4a 00 00       	call   8150 <fibril_mutex_unlock>
    36de:	a1 f0 0d 02 00       	mov    0x20df0,%eax
    36e3:	89 04 24             	mov    %eax,(%esp)
    36e6:	e8 95 0a 01 00       	call   14180 <async_exchange_begin>
    36eb:	c7 44 24 28 00 00 00 	movl   $0x0,0x28(%esp)
    36f2:	00 
    36f3:	89 c3                	mov    %eax,%ebx
    36f5:	8d 45 f4             	lea    -0xc(%ebp),%eax
    36f8:	c7 44 24 24 00 00 00 	movl   $0x0,0x24(%esp)
    36ff:	00 
    3700:	c7 44 24 20 00 00 00 	movl   $0x0,0x20(%esp)
    3707:	00 
    3708:	c7 44 24 1c 00 00 00 	movl   $0x0,0x1c(%esp)
    370f:	00 
    3710:	89 44 24 18          	mov    %eax,0x18(%esp)
    3714:	c7 44 24 14 00 00 00 	movl   $0x0,0x14(%esp)
    371b:	00 
    371c:	c7 44 24 10 00 00 00 	movl   $0x0,0x10(%esp)
    3723:	00 
    3724:	c7 44 24 0c 00 00 00 	movl   $0x0,0xc(%esp)
    372b:	00 
    372c:	c7 44 24 08 00 00 00 	movl   $0x0,0x8(%esp)
    3733:	00 
    3734:	c7 44 24 04 0e 04 00 	movl   $0x40e,0x4(%esp)
    373b:	00 
    373c:	89 1c 24             	mov    %ebx,(%esp)
    373f:	e8 ec f9 00 00       	call   13130 <async_req_fast>
    3744:	89 1c 24             	mov    %ebx,(%esp)
    3747:	89 c6                	mov    %eax,%esi
    3749:	e8 a2 0d 01 00       	call   144f0 <async_exchange_end>
    374e:	85 f6                	test   %esi,%esi
    3750:	75 69                	jne    37bb <loc_null_create+0x16b>
    3752:	8b 45 f4             	mov    -0xc(%ebp),%eax
    3755:	83 c4 40             	add    $0x40,%esp
    3758:	5b                   	pop    %ebx
    3759:	5e                   	pop    %esi
    375a:	5d                   	pop    %ebp
    375b:	c3                   	ret    
    375c:	8d 74 26 00          	lea    0x0(%esi,%eiz,1),%esi
    3760:	85 db                	test   %ebx,%ebx
    3762:	0f 84 25 ff ff ff    	je     368d <loc_null_create+0x3d>
    3768:	89 1d f0 0d 02 00    	mov    %ebx,0x20df0
    376e:	e9 1a ff ff ff       	jmp    368d <loc_null_create+0x3d>
    3773:	90                   	nop
    3774:	8d 74 26 00          	lea    0x0(%esi,%eiz,1),%esi
    3778:	c7 44 24 0c 00 00 00 	movl   $0x0,0xc(%esp)
    377f:	00 
    3780:	c7 44 24 08 02 00 00 	movl   $0x2,0x8(%esp)
    3787:	00 
    3788:	c7 44 24 04 6c 6f 63 	movl   $0x20636f6c,0x4(%esp)
    378f:	20 
    3790:	c7 04 24 02 00 00 00 	movl   $0x2,(%esp)
    3797:	e8 34 dd 00 00       	call   114d0 <service_connect_blocking>
    379c:	a3 f0 0d 02 00       	mov    %eax,0x20df0
    37a1:	e9 c3 fe ff ff       	jmp    3669 <loc_null_create+0x19>
    37a6:	66 90                	xchg   %ax,%ax
    37a8:	85 db                	test   %ebx,%ebx
    37aa:	0f 84 22 ff ff ff    	je     36d2 <loc_null_create+0x82>
    37b0:	89 1d ec 0d 02 00    	mov    %ebx,0x20dec
    37b6:	e9 17 ff ff ff       	jmp    36d2 <loc_null_create+0x82>
    37bb:	83 c8 ff             	or     $0xffffffff,%eax
    37be:	eb 95                	jmp    3755 <loc_null_create+0x105>

000037c0 <loc_null_destroy>:
    37c0:	55                   	push   %ebp
    37c1:	89 e5                	mov    %esp,%ebp
    37c3:	56                   	push   %esi
    37c4:	53                   	push   %ebx
    37c5:	83 ec 30             	sub    $0x30,%esp
    37c8:	8b 75 08             	mov    0x8(%ebp),%esi
    37cb:	c7 04 24 bc 0b 02 00 	movl   $0x20bbc,(%esp)
    37d2:	e8 59 48 00 00       	call   8030 <fibril_mutex_lock>
    37d7:	a1 f0 0d 02 00       	mov    0x20df0,%eax
    37dc:	85 c0                	test   %eax,%eax
    37de:	75 38                	jne    3818 <loc_null_destroy+0x58>
    37e0:	c7 04 24 cc 0b 02 00 	movl   $0x20bcc,(%esp)
    37e7:	8b 1d ec 0d 02 00    	mov    0x20dec,%ebx
    37ed:	e8 3e 48 00 00       	call   8030 <fibril_mutex_lock>
    37f2:	a1 f0 0d 02 00       	mov    0x20df0,%eax
    37f7:	85 c0                	test   %eax,%eax
    37f9:	0f 84 c1 00 00 00    	je     38c0 <loc_null_destroy+0x100>
    37ff:	c7 04 24 cc 0b 02 00 	movl   $0x20bcc,(%esp)
    3806:	e8 45 49 00 00       	call   8150 <fibril_mutex_unlock>
    380b:	a1 f0 0d 02 00       	mov    0x20df0,%eax
    3810:	85 c0                	test   %eax,%eax
    3812:	0f 84 c0 00 00 00    	je     38d8 <loc_null_destroy+0x118>
    3818:	c7 04 24 bc 0b 02 00 	movl   $0x20bbc,(%esp)
    381f:	e8 2c 49 00 00       	call   8150 <fibril_mutex_unlock>
    3824:	c7 04 24 cc 0b 02 00 	movl   $0x20bcc,(%esp)
    382b:	8b 1d f0 0d 02 00    	mov    0x20df0,%ebx
    3831:	e8 fa 47 00 00       	call   8030 <fibril_mutex_lock>
    3836:	a1 ec 0d 02 00       	mov    0x20dec,%eax
    383b:	85 c0                	test   %eax,%eax
    383d:	0f 84 c5 00 00 00    	je     3908 <loc_null_destroy+0x148>
    3843:	c7 04 24 cc 0b 02 00 	movl   $0x20bcc,(%esp)
    384a:	e8 01 49 00 00       	call   8150 <fibril_mutex_unlock>
    384f:	a1 f0 0d 02 00       	mov    0x20df0,%eax
    3854:	89 04 24             	mov    %eax,(%esp)
    3857:	e8 24 09 01 00       	call   14180 <async_exchange_begin>
    385c:	89 74 24 08          	mov    %esi,0x8(%esp)
    3860:	c7 44 24 28 00 00 00 	movl   $0x0,0x28(%esp)
    3867:	00 
    3868:	c7 44 24 24 00 00 00 	movl   $0x0,0x24(%esp)
    386f:	00 
    3870:	c7 44 24 20 00 00 00 	movl   $0x0,0x20(%esp)
    3877:	00 
    3878:	c7 44 24 1c 00 00 00 	movl   $0x0,0x1c(%esp)
    387f:	00 
    3880:	c7 44 24 18 00 00 00 	movl   $0x0,0x18(%esp)
    3887:	00 
    3888:	c7 44 24 14 00 00 00 	movl   $0x0,0x14(%esp)
    388f:	00 
    3890:	c7 44 24 10 00 00 00 	movl   $0x0,0x10(%esp)
    3897:	00 
    3898:	c7 44 24 0c 00 00 00 	movl   $0x0,0xc(%esp)
    389f:	00 
    38a0:	c7 44 24 04 0f 04 00 	movl   $0x40f,0x4(%esp)
    38a7:	00 
    38a8:	89 04 24             	mov    %eax,(%esp)
    38ab:	89 c3                	mov    %eax,%ebx
    38ad:	e8 7e f8 00 00       	call   13130 <async_req_fast>
    38b2:	89 5d 08             	mov    %ebx,0x8(%ebp)
    38b5:	83 c4 30             	add    $0x30,%esp
    38b8:	5b                   	pop    %ebx
    38b9:	5e                   	pop    %esi
    38ba:	5d                   	pop    %ebp
    38bb:	e9 30 0c 01 00       	jmp    144f0 <async_exchange_end>
    38c0:	85 db                	test   %ebx,%ebx
    38c2:	0f 84 37 ff ff ff    	je     37ff <loc_null_destroy+0x3f>
    38c8:	89 1d f0 0d 02 00    	mov    %ebx,0x20df0
    38ce:	e9 2c ff ff ff       	jmp    37ff <loc_null_destroy+0x3f>
    38d3:	90                   	nop
    38d4:	8d 74 26 00          	lea    0x0(%esi,%eiz,1),%esi
    38d8:	c7 44 24 0c 00 00 00 	movl   $0x0,0xc(%esp)
    38df:	00 
    38e0:	c7 44 24 08 02 00 00 	movl   $0x2,0x8(%esp)
    38e7:	00 
    38e8:	c7 44 24 04 6c 6f 63 	movl   $0x20636f6c,0x4(%esp)
    38ef:	20 
    38f0:	c7 04 24 02 00 00 00 	movl   $0x2,(%esp)
    38f7:	e8 d4 db 00 00       	call   114d0 <service_connect_blocking>
    38fc:	a3 f0 0d 02 00       	mov    %eax,0x20df0
    3901:	e9 d6 fe ff ff       	jmp    37dc <loc_null_destroy+0x1c>
    3906:	66 90                	xchg   %ax,%ax
    3908:	85 db                	test   %ebx,%ebx
    390a:	0f 84 33 ff ff ff    	je     3843 <loc_null_destroy+0x83>
    3910:	89 1d ec 0d 02 00    	mov    %ebx,0x20dec
    3916:	e9 28 ff ff ff       	jmp    3843 <loc_null_destroy+0x83>
    391b:	90                   	nop
    391c:	8d 74 26 00          	lea    0x0(%esi,%eiz,1),%esi

00003920 <loc_service_add_to_cat>:
    3920:	55                   	push   %ebp
    3921:	89 e5                	mov    %esp,%ebp
    3923:	53                   	push   %ebx
    3924:	83 ec 44             	sub    $0x44,%esp
    3927:	c7 04 24 9c 0b 02 00 	movl   $0x20b9c,(%esp)
    392e:	e8 fd 46 00 00       	call   8030 <fibril_mutex_lock>
    3933:	a1 e8 0d 02 00       	mov    0x20de8,%eax
    3938:	85 c0                	test   %eax,%eax
    393a:	75 38                	jne    3974 <loc_service_add_to_cat+0x54>
    393c:	c7 04 24 ac 0b 02 00 	movl   $0x20bac,(%esp)
    3943:	8b 1d e4 0d 02 00    	mov    0x20de4,%ebx
    3949:	e8 e2 46 00 00       	call   8030 <fibril_mutex_lock>
    394e:	a1 e8 0d 02 00       	mov    0x20de8,%eax
    3953:	85 c0                	test   %eax,%eax
    3955:	0f 84 cd 00 00 00    	je     3a28 <loc_service_add_to_cat+0x108>
    395b:	c7 04 24 ac 0b 02 00 	movl   $0x20bac,(%esp)
    3962:	e8 e9 47 00 00       	call   8150 <fibril_mutex_unlock>
    3967:	a1 e8 0d 02 00       	mov    0x20de8,%eax
    396c:	85 c0                	test   %eax,%eax
    396e:	0f 84 cc 00 00 00    	je     3a40 <loc_service_add_to_cat+0x120>
    3974:	c7 04 24 9c 0b 02 00 	movl   $0x20b9c,(%esp)
    397b:	e8 d0 47 00 00       	call   8150 <fibril_mutex_unlock>
    3980:	c7 04 24 ac 0b 02 00 	movl   $0x20bac,(%esp)
    3987:	8b 1d e8 0d 02 00    	mov    0x20de8,%ebx
    398d:	e8 9e 46 00 00       	call   8030 <fibril_mutex_lock>
    3992:	a1 e4 0d 02 00       	mov    0x20de4,%eax
    3997:	85 c0                	test   %eax,%eax
    3999:	0f 84 d1 00 00 00    	je     3a70 <loc_service_add_to_cat+0x150>
    399f:	c7 04 24 ac 0b 02 00 	movl   $0x20bac,(%esp)
    39a6:	e8 a5 47 00 00       	call   8150 <fibril_mutex_unlock>
    39ab:	a1 e8 0d 02 00       	mov    0x20de8,%eax
    39b0:	89 04 24             	mov    %eax,(%esp)
    39b3:	e8 c8 07 01 00       	call   14180 <async_exchange_begin>
    39b8:	c7 44 24 28 00 00 00 	movl   $0x0,0x28(%esp)
    39bf:	00 
    39c0:	89 c3                	mov    %eax,%ebx
    39c2:	8b 45 0c             	mov    0xc(%ebp),%eax
    39c5:	89 44 24 0c          	mov    %eax,0xc(%esp)
    39c9:	8b 45 08             	mov    0x8(%ebp),%eax
    39cc:	89 1c 24             	mov    %ebx,(%esp)
    39cf:	c7 44 24 24 00 00 00 	movl   $0x0,0x24(%esp)
    39d6:	00 
    39d7:	c7 44 24 20 00 00 00 	movl   $0x0,0x20(%esp)
    39de:	00 
    39df:	c7 44 24 1c 00 00 00 	movl   $0x0,0x1c(%esp)
    39e6:	00 
    39e7:	c7 44 24 18 00 00 00 	movl   $0x0,0x18(%esp)
    39ee:	00 
    39ef:	c7 44 24 14 00 00 00 	movl   $0x0,0x14(%esp)
    39f6:	00 
    39f7:	c7 44 24 10 00 00 00 	movl   $0x0,0x10(%esp)
    39fe:	00 
    39ff:	89 44 24 08          	mov    %eax,0x8(%esp)
    3a03:	c7 44 24 04 02 04 00 	movl   $0x402,0x4(%esp)
    3a0a:	00 
    3a0b:	e8 20 f7 00 00       	call   13130 <async_req_fast>
    3a10:	89 1c 24             	mov    %ebx,(%esp)
    3a13:	89 45 f4             	mov    %eax,-0xc(%ebp)
    3a16:	e8 d5 0a 01 00       	call   144f0 <async_exchange_end>
    3a1b:	8b 45 f4             	mov    -0xc(%ebp),%eax
    3a1e:	83 c4 44             	add    $0x44,%esp
    3a21:	5b                   	pop    %ebx
    3a22:	5d                   	pop    %ebp
    3a23:	c3                   	ret    
    3a24:	8d 74 26 00          	lea    0x0(%esi,%eiz,1),%esi
    3a28:	85 db                	test   %ebx,%ebx
    3a2a:	0f 84 2b ff ff ff    	je     395b <loc_service_add_to_cat+0x3b>
    3a30:	89 1d e8 0d 02 00    	mov    %ebx,0x20de8
    3a36:	e9 20 ff ff ff       	jmp    395b <loc_service_add_to_cat+0x3b>
    3a3b:	90                   	nop
    3a3c:	8d 74 26 00          	lea    0x0(%esi,%eiz,1),%esi
    3a40:	c7 44 24 0c 00 00 00 	movl   $0x0,0xc(%esp)
    3a47:	00 
    3a48:	c7 44 24 08 01 00 00 	movl   $0x1,0x8(%esp)
    3a4f:	00 
    3a50:	c7 44 24 04 6c 6f 63 	movl   $0x20636f6c,0x4(%esp)
    3a57:	20 
    3a58:	c7 04 24 02 00 00 00 	movl   $0x2,(%esp)
    3a5f:	e8 6c da 00 00       	call   114d0 <service_connect_blocking>
    3a64:	a3 e8 0d 02 00       	mov    %eax,0x20de8
    3a69:	e9 ca fe ff ff       	jmp    3938 <loc_service_add_to_cat+0x18>
    3a6e:	66 90                	xchg   %ax,%ax
    3a70:	85 db                	test   %ebx,%ebx
    3a72:	0f 84 27 ff ff ff    	je     399f <loc_service_add_to_cat+0x7f>
    3a78:	89 1d e4 0d 02 00    	mov    %ebx,0x20de4
    3a7e:	e9 1c ff ff ff       	jmp    399f <loc_service_add_to_cat+0x7f>
    3a83:	8d b6 00 00 00 00    	lea    0x0(%esi),%esi
    3a89:	8d bc 27 00 00 00 00 	lea    0x0(%edi,%eiz,1),%edi

00003a90 <loc_count_namespaces>:
    3a90:	55                   	push   %ebp
    3a91:	89 e5                	mov    %esp,%ebp
    3a93:	56                   	push   %esi
    3a94:	53                   	push   %ebx
    3a95:	83 ec 40             	sub    $0x40,%esp
    3a98:	c7 04 24 bc 0b 02 00 	movl   $0x20bbc,(%esp)
    3a9f:	e8 8c 45 00 00       	call   8030 <fibril_mutex_lock>
    3aa4:	a1 f0 0d 02 00       	mov    0x20df0,%eax
    3aa9:	85 c0                	test   %eax,%eax
    3aab:	75 3a                	jne    3ae7 <loc_count_namespaces+0x57>
    3aad:	c7 04 24 cc 0b 02 00 	movl   $0x20bcc,(%esp)
    3ab4:	8b 1d ec 0d 02 00    	mov    0x20dec,%ebx
    3aba:	e8 71 45 00 00       	call   8030 <fibril_mutex_lock>
    3abf:	8b 35 f0 0d 02 00    	mov    0x20df0,%esi
    3ac5:	85 f6                	test   %esi,%esi
    3ac7:	0f 84 d3 00 00 00    	je     3ba0 <loc_count_namespaces+0x110>
    3acd:	c7 04 24 cc 0b 02 00 	movl   $0x20bcc,(%esp)
    3ad4:	e8 77 46 00 00       	call   8150 <fibril_mutex_unlock>
    3ad9:	8b 0d f0 0d 02 00    	mov    0x20df0,%ecx
    3adf:	85 c9                	test   %ecx,%ecx
    3ae1:	0f 84 d1 00 00 00    	je     3bb8 <loc_count_namespaces+0x128>
    3ae7:	c7 04 24 bc 0b 02 00 	movl   $0x20bbc,(%esp)
    3aee:	e8 5d 46 00 00       	call   8150 <fibril_mutex_unlock>
    3af3:	c7 04 24 cc 0b 02 00 	movl   $0x20bcc,(%esp)
    3afa:	8b 1d f0 0d 02 00    	mov    0x20df0,%ebx
    3b00:	e8 2b 45 00 00       	call   8030 <fibril_mutex_lock>
    3b05:	8b 15 ec 0d 02 00    	mov    0x20dec,%edx
    3b0b:	85 d2                	test   %edx,%edx
    3b0d:	0f 84 d5 00 00 00    	je     3be8 <loc_count_namespaces+0x158>
    3b13:	c7 04 24 cc 0b 02 00 	movl   $0x20bcc,(%esp)
    3b1a:	31 f6                	xor    %esi,%esi
    3b1c:	e8 2f 46 00 00       	call   8150 <fibril_mutex_unlock>
    3b21:	a1 f0 0d 02 00       	mov    0x20df0,%eax
    3b26:	89 04 24             	mov    %eax,(%esp)
    3b29:	e8 52 06 01 00       	call   14180 <async_exchange_begin>
    3b2e:	c7 44 24 28 00 00 00 	movl   $0x0,0x28(%esp)
    3b35:	00 
    3b36:	89 c3                	mov    %eax,%ebx
    3b38:	8d 45 f4             	lea    -0xc(%ebp),%eax
    3b3b:	c7 44 24 24 00 00 00 	movl   $0x0,0x24(%esp)
    3b42:	00 
    3b43:	c7 44 24 20 00 00 00 	movl   $0x0,0x20(%esp)
    3b4a:	00 
    3b4b:	c7 44 24 1c 00 00 00 	movl   $0x0,0x1c(%esp)
    3b52:	00 
    3b53:	89 44 24 18          	mov    %eax,0x18(%esp)
    3b57:	c7 44 24 14 00 00 00 	movl   $0x0,0x14(%esp)
    3b5e:	00 
    3b5f:	c7 44 24 10 00 00 00 	movl   $0x0,0x10(%esp)
    3b66:	00 
    3b67:	c7 44 24 0c 00 00 00 	movl   $0x0,0xc(%esp)
    3b6e:	00 
    3b6f:	c7 44 24 08 00 00 00 	movl   $0x0,0x8(%esp)
    3b76:	00 
    3b77:	c7 44 24 04 10 04 00 	movl   $0x410,0x4(%esp)
    3b7e:	00 
    3b7f:	89 1c 24             	mov    %ebx,(%esp)
    3b82:	e8 a9 f5 00 00       	call   13130 <async_req_fast>
    3b87:	85 c0                	test   %eax,%eax
    3b89:	75 03                	jne    3b8e <loc_count_namespaces+0xfe>
    3b8b:	8b 75 f4             	mov    -0xc(%ebp),%esi
    3b8e:	89 1c 24             	mov    %ebx,(%esp)
    3b91:	e8 5a 09 01 00       	call   144f0 <async_exchange_end>
    3b96:	83 c4 40             	add    $0x40,%esp
    3b99:	89 f0                	mov    %esi,%eax
    3b9b:	5b                   	pop    %ebx
    3b9c:	5e                   	pop    %esi
    3b9d:	5d                   	pop    %ebp
    3b9e:	c3                   	ret    
    3b9f:	90                   	nop
    3ba0:	85 db                	test   %ebx,%ebx
    3ba2:	0f 84 25 ff ff ff    	je     3acd <loc_count_namespaces+0x3d>
    3ba8:	89 1d f0 0d 02 00    	mov    %ebx,0x20df0
    3bae:	e9 1a ff ff ff       	jmp    3acd <loc_count_namespaces+0x3d>
    3bb3:	90                   	nop
    3bb4:	8d 74 26 00          	lea    0x0(%esi,%eiz,1),%esi
    3bb8:	c7 44 24 0c 00 00 00 	movl   $0x0,0xc(%esp)
    3bbf:	00 
    3bc0:	c7 44 24 08 02 00 00 	movl   $0x2,0x8(%esp)
    3bc7:	00 
    3bc8:	c7 44 24 04 6c 6f 63 	movl   $0x20636f6c,0x4(%esp)
    3bcf:	20 
    3bd0:	c7 04 24 02 00 00 00 	movl   $0x2,(%esp)
    3bd7:	e8 f4 d8 00 00       	call   114d0 <service_connect_blocking>
    3bdc:	a3 f0 0d 02 00       	mov    %eax,0x20df0
    3be1:	e9 c3 fe ff ff       	jmp    3aa9 <loc_count_namespaces+0x19>
    3be6:	66 90                	xchg   %ax,%ax
    3be8:	85 db                	test   %ebx,%ebx
    3bea:	0f 84 23 ff ff ff    	je     3b13 <loc_count_namespaces+0x83>
    3bf0:	89 1d ec 0d 02 00    	mov    %ebx,0x20dec
    3bf6:	e9 18 ff ff ff       	jmp    3b13 <loc_count_namespaces+0x83>
    3bfb:	90                   	nop
    3bfc:	8d 74 26 00          	lea    0x0(%esi,%eiz,1),%esi

00003c00 <loc_count_services>:
    3c00:	55                   	push   %ebp
    3c01:	89 e5                	mov    %esp,%ebp
    3c03:	56                   	push   %esi
    3c04:	53                   	push   %ebx
    3c05:	83 ec 40             	sub    $0x40,%esp
    3c08:	c7 04 24 bc 0b 02 00 	movl   $0x20bbc,(%esp)
    3c0f:	e8 1c 44 00 00       	call   8030 <fibril_mutex_lock>
    3c14:	a1 f0 0d 02 00       	mov    0x20df0,%eax
    3c19:	85 c0                	test   %eax,%eax
    3c1b:	75 38                	jne    3c55 <loc_count_services+0x55>
    3c1d:	c7 04 24 cc 0b 02 00 	movl   $0x20bcc,(%esp)
    3c24:	8b 1d ec 0d 02 00    	mov    0x20dec,%ebx
    3c2a:	e8 01 44 00 00       	call   8030 <fibril_mutex_lock>
    3c2f:	a1 f0 0d 02 00       	mov    0x20df0,%eax
    3c34:	85 c0                	test   %eax,%eax
    3c36:	0f 84 d4 00 00 00    	je     3d10 <loc_count_services+0x110>
    3c3c:	c7 04 24 cc 0b 02 00 	movl   $0x20bcc,(%esp)
    3c43:	e8 08 45 00 00       	call   8150 <fibril_mutex_unlock>
    3c48:	a1 f0 0d 02 00       	mov    0x20df0,%eax
    3c4d:	85 c0                	test   %eax,%eax
    3c4f:	0f 84 d3 00 00 00    	je     3d28 <loc_count_services+0x128>
    3c55:	c7 04 24 bc 0b 02 00 	movl   $0x20bbc,(%esp)
    3c5c:	e8 ef 44 00 00       	call   8150 <fibril_mutex_unlock>
    3c61:	c7 04 24 cc 0b 02 00 	movl   $0x20bcc,(%esp)
    3c68:	8b 1d f0 0d 02 00    	mov    0x20df0,%ebx
    3c6e:	e8 bd 43 00 00       	call   8030 <fibril_mutex_lock>
    3c73:	a1 ec 0d 02 00       	mov    0x20dec,%eax
    3c78:	85 c0                	test   %eax,%eax
    3c7a:	0f 84 d8 00 00 00    	je     3d58 <loc_count_services+0x158>
    3c80:	c7 04 24 cc 0b 02 00 	movl   $0x20bcc,(%esp)
    3c87:	31 f6                	xor    %esi,%esi
    3c89:	e8 c2 44 00 00       	call   8150 <fibril_mutex_unlock>
    3c8e:	a1 f0 0d 02 00       	mov    0x20df0,%eax
    3c93:	89 04 24             	mov    %eax,(%esp)
    3c96:	e8 e5 04 01 00       	call   14180 <async_exchange_begin>
    3c9b:	c7 44 24 28 00 00 00 	movl   $0x0,0x28(%esp)
    3ca2:	00 
    3ca3:	89 c3                	mov    %eax,%ebx
    3ca5:	8d 45 f4             	lea    -0xc(%ebp),%eax
    3ca8:	89 44 24 18          	mov    %eax,0x18(%esp)
    3cac:	8b 45 08             	mov    0x8(%ebp),%eax
    3caf:	c7 44 24 24 00 00 00 	movl   $0x0,0x24(%esp)
    3cb6:	00 
    3cb7:	c7 44 24 20 00 00 00 	movl   $0x0,0x20(%esp)
    3cbe:	00 
    3cbf:	c7 44 24 1c 00 00 00 	movl   $0x0,0x1c(%esp)
    3cc6:	00 
    3cc7:	c7 44 24 14 00 00 00 	movl   $0x0,0x14(%esp)
    3cce:	00 
    3ccf:	c7 44 24 10 00 00 00 	movl   $0x0,0x10(%esp)
    3cd6:	00 
    3cd7:	c7 44 24 0c 00 00 00 	movl   $0x0,0xc(%esp)
    3cde:	00 
    3cdf:	89 44 24 08          	mov    %eax,0x8(%esp)
    3ce3:	c7 44 24 04 11 04 00 	movl   $0x411,0x4(%esp)
    3cea:	00 
    3ceb:	89 1c 24             	mov    %ebx,(%esp)
    3cee:	e8 3d f4 00 00       	call   13130 <async_req_fast>
    3cf3:	85 c0                	test   %eax,%eax
    3cf5:	75 03                	jne    3cfa <loc_count_services+0xfa>
    3cf7:	8b 75 f4             	mov    -0xc(%ebp),%esi
    3cfa:	89 1c 24             	mov    %ebx,(%esp)
    3cfd:	e8 ee 07 01 00       	call   144f0 <async_exchange_end>
    3d02:	83 c4 40             	add    $0x40,%esp
    3d05:	89 f0                	mov    %esi,%eax
    3d07:	5b                   	pop    %ebx
    3d08:	5e                   	pop    %esi
    3d09:	5d                   	pop    %ebp
    3d0a:	c3                   	ret    
    3d0b:	90                   	nop
    3d0c:	8d 74 26 00          	lea    0x0(%esi,%eiz,1),%esi
    3d10:	85 db                	test   %ebx,%ebx
    3d12:	0f 84 24 ff ff ff    	je     3c3c <loc_count_services+0x3c>
    3d18:	89 1d f0 0d 02 00    	mov    %ebx,0x20df0
    3d1e:	e9 19 ff ff ff       	jmp    3c3c <loc_count_services+0x3c>
    3d23:	90                   	nop
    3d24:	8d 74 26 00          	lea    0x0(%esi,%eiz,1),%esi
    3d28:	c7 44 24 0c 00 00 00 	movl   $0x0,0xc(%esp)
    3d2f:	00 
    3d30:	c7 44 24 08 02 00 00 	movl   $0x2,0x8(%esp)
    3d37:	00 
    3d38:	c7 44 24 04 6c 6f 63 	movl   $0x20636f6c,0x4(%esp)
    3d3f:	20 
    3d40:	c7 04 24 02 00 00 00 	movl   $0x2,(%esp)
    3d47:	e8 84 d7 00 00       	call   114d0 <service_connect_blocking>
    3d4c:	a3 f0 0d 02 00       	mov    %eax,0x20df0
    3d51:	e9 c3 fe ff ff       	jmp    3c19 <loc_count_services+0x19>
    3d56:	66 90                	xchg   %ax,%ax
    3d58:	85 db                	test   %ebx,%ebx
    3d5a:	0f 84 20 ff ff ff    	je     3c80 <loc_count_services+0x80>
    3d60:	89 1d ec 0d 02 00    	mov    %ebx,0x20dec
    3d66:	e9 15 ff ff ff       	jmp    3c80 <loc_count_services+0x80>
    3d6b:	90                   	nop
    3d6c:	8d 74 26 00          	lea    0x0(%esi,%eiz,1),%esi

00003d70 <loc_get_namespaces>:
    3d70:	55                   	push   %ebp
    3d71:	89 e5                	mov    %esp,%ebp
    3d73:	57                   	push   %edi
    3d74:	56                   	push   %esi
    3d75:	53                   	push   %ebx
    3d76:	83 ec 7c             	sub    $0x7c,%esp
    3d79:	c7 04 24 bc 0b 02 00 	movl   $0x20bbc,(%esp)
    3d80:	e8 ab 42 00 00       	call   8030 <fibril_mutex_lock>
    3d85:	a1 f0 0d 02 00       	mov    0x20df0,%eax
    3d8a:	85 c0                	test   %eax,%eax
    3d8c:	75 3a                	jne    3dc8 <loc_get_namespaces+0x58>
    3d8e:	c7 04 24 cc 0b 02 00 	movl   $0x20bcc,(%esp)
    3d95:	8b 1d ec 0d 02 00    	mov    0x20dec,%ebx
    3d9b:	e8 90 42 00 00       	call   8030 <fibril_mutex_lock>
    3da0:	8b 0d f0 0d 02 00    	mov    0x20df0,%ecx
    3da6:	85 c9                	test   %ecx,%ecx
    3da8:	0f 84 da 01 00 00    	je     3f88 <loc_get_namespaces+0x218>
    3dae:	c7 04 24 cc 0b 02 00 	movl   $0x20bcc,(%esp)
    3db5:	e8 96 43 00 00       	call   8150 <fibril_mutex_unlock>
    3dba:	8b 15 f0 0d 02 00    	mov    0x20df0,%edx
    3dc0:	85 d2                	test   %edx,%edx
    3dc2:	0f 84 d8 01 00 00    	je     3fa0 <loc_get_namespaces+0x230>
    3dc8:	c7 04 24 bc 0b 02 00 	movl   $0x20bbc,(%esp)
    3dcf:	e8 7c 43 00 00       	call   8150 <fibril_mutex_unlock>
    3dd4:	c7 04 24 cc 0b 02 00 	movl   $0x20bcc,(%esp)
    3ddb:	8b 1d f0 0d 02 00    	mov    0x20df0,%ebx
    3de1:	e8 4a 42 00 00       	call   8030 <fibril_mutex_lock>
    3de6:	a1 ec 0d 02 00       	mov    0x20dec,%eax
    3deb:	85 c0                	test   %eax,%eax
    3ded:	0f 84 fd 01 00 00    	je     3ff0 <loc_get_namespaces+0x280>
    3df3:	c7 04 24 cc 0b 02 00 	movl   $0x20bcc,(%esp)
    3dfa:	e8 51 43 00 00       	call   8150 <fibril_mutex_unlock>
    3dff:	a1 f0 0d 02 00       	mov    0x20df0,%eax
    3e04:	89 04 24             	mov    %eax,(%esp)
    3e07:	e8 74 03 01 00       	call   14180 <async_exchange_begin>
    3e0c:	c7 44 24 28 00 00 00 	movl   $0x0,0x28(%esp)
    3e13:	00 
    3e14:	89 c6                	mov    %eax,%esi
    3e16:	8d 45 c0             	lea    -0x40(%ebp),%eax
    3e19:	c7 44 24 24 00 00 00 	movl   $0x0,0x24(%esp)
    3e20:	00 
    3e21:	c7 44 24 20 00 00 00 	movl   $0x0,0x20(%esp)
    3e28:	00 
    3e29:	c7 44 24 1c 00 00 00 	movl   $0x0,0x1c(%esp)
    3e30:	00 
    3e31:	89 44 24 18          	mov    %eax,0x18(%esp)
    3e35:	c7 44 24 14 00 00 00 	movl   $0x0,0x14(%esp)
    3e3c:	00 
    3e3d:	c7 44 24 10 00 00 00 	movl   $0x0,0x10(%esp)
    3e44:	00 
    3e45:	c7 44 24 0c 00 00 00 	movl   $0x0,0xc(%esp)
    3e4c:	00 
    3e4d:	c7 44 24 08 00 00 00 	movl   $0x0,0x8(%esp)
    3e54:	00 
    3e55:	c7 44 24 04 10 04 00 	movl   $0x410,0x4(%esp)
    3e5c:	00 
    3e5d:	89 34 24             	mov    %esi,(%esp)
    3e60:	e8 cb f2 00 00       	call   13130 <async_req_fast>
    3e65:	85 c0                	test   %eax,%eax
    3e67:	0f 85 03 01 00 00    	jne    3f70 <loc_get_namespaces+0x200>
    3e6d:	8b 5d c0             	mov    -0x40(%ebp),%ebx
    3e70:	89 34 24             	mov    %esi,(%esp)
    3e73:	e8 78 06 01 00       	call   144f0 <async_exchange_end>
    3e78:	85 db                	test   %ebx,%ebx
    3e7a:	0f 84 f8 00 00 00    	je     3f78 <loc_get_namespaces+0x208>
    3e80:	c7 44 24 04 04 01 00 	movl   $0x104,0x4(%esp)
    3e87:	00 
    3e88:	89 1c 24             	mov    %ebx,(%esp)
    3e8b:	e8 50 cd 00 00       	call   10be0 <calloc>
    3e90:	89 c7                	mov    %eax,%edi
    3e92:	85 c0                	test   %eax,%eax
    3e94:	0f 84 de 00 00 00    	je     3f78 <loc_get_namespaces+0x208>
    3e9a:	c7 04 24 cc 0b 02 00 	movl   $0x20bcc,(%esp)
    3ea1:	e8 8a 41 00 00       	call   8030 <fibril_mutex_lock>
    3ea6:	a1 ec 0d 02 00       	mov    0x20dec,%eax
    3eab:	85 c0                	test   %eax,%eax
    3ead:	0f 84 5d 01 00 00    	je     4010 <loc_get_namespaces+0x2a0>
    3eb3:	c7 04 24 cc 0b 02 00 	movl   $0x20bcc,(%esp)
    3eba:	e8 91 42 00 00       	call   8150 <fibril_mutex_unlock>
    3ebf:	a1 ec 0d 02 00       	mov    0x20dec,%eax
    3ec4:	85 c0                	test   %eax,%eax
    3ec6:	0f 84 72 01 00 00    	je     403e <loc_get_namespaces+0x2ce>
    3ecc:	89 04 24             	mov    %eax,(%esp)
    3ecf:	e8 ac 02 01 00       	call   14180 <async_exchange_begin>
    3ed4:	89 c6                	mov    %eax,%esi
    3ed6:	8d 45 c4             	lea    -0x3c(%ebp),%eax
    3ed9:	c7 44 24 14 00 00 00 	movl   $0x0,0x14(%esp)
    3ee0:	00 
    3ee1:	89 44 24 18          	mov    %eax,0x18(%esp)
    3ee5:	c7 44 24 10 00 00 00 	movl   $0x0,0x10(%esp)
    3eec:	00 
    3eed:	c7 44 24 0c 00 00 00 	movl   $0x0,0xc(%esp)
    3ef4:	00 
    3ef5:	c7 44 24 08 00 00 00 	movl   $0x0,0x8(%esp)
    3efc:	00 
    3efd:	c7 44 24 04 13 04 00 	movl   $0x413,0x4(%esp)
    3f04:	00 
    3f05:	89 34 24             	mov    %esi,(%esp)
    3f08:	e8 13 ec 00 00       	call   12b20 <async_send_fast>
    3f0d:	89 7c 24 04          	mov    %edi,0x4(%esp)
    3f11:	89 45 b4             	mov    %eax,-0x4c(%ebp)
    3f14:	89 d8                	mov    %ebx,%eax
    3f16:	c1 e0 08             	shl    $0x8,%eax
    3f19:	89 34 24             	mov    %esi,(%esp)
    3f1c:	8d 04 98             	lea    (%eax,%ebx,4),%eax
    3f1f:	89 44 24 08          	mov    %eax,0x8(%esp)
    3f23:	e8 28 0c 01 00       	call   14b50 <async_data_read_start>
    3f28:	89 34 24             	mov    %esi,(%esp)
    3f2b:	89 45 b0             	mov    %eax,-0x50(%ebp)
    3f2e:	e8 bd 05 01 00       	call   144f0 <async_exchange_end>
    3f33:	8b 45 b0             	mov    -0x50(%ebp),%eax
    3f36:	83 f8 f0             	cmp    $0xfffffff0,%eax
    3f39:	0f 84 c4 00 00 00    	je     4003 <loc_get_namespaces+0x293>
    3f3f:	85 c0                	test   %eax,%eax
    3f41:	0f 85 89 00 00 00    	jne    3fd0 <loc_get_namespaces+0x260>
    3f47:	8d 45 c0             	lea    -0x40(%ebp),%eax
    3f4a:	89 44 24 04          	mov    %eax,0x4(%esp)
    3f4e:	8b 45 b4             	mov    -0x4c(%ebp),%eax
    3f51:	89 04 24             	mov    %eax,(%esp)
    3f54:	e8 97 ed 00 00       	call   12cf0 <async_wait_for>
    3f59:	8b 45 c0             	mov    -0x40(%ebp),%eax
    3f5c:	85 c0                	test   %eax,%eax
    3f5e:	75 18                	jne    3f78 <loc_get_namespaces+0x208>
    3f60:	8b 45 08             	mov    0x8(%ebp),%eax
    3f63:	89 38                	mov    %edi,(%eax)
    3f65:	83 c4 7c             	add    $0x7c,%esp
    3f68:	89 d8                	mov    %ebx,%eax
    3f6a:	5b                   	pop    %ebx
    3f6b:	5e                   	pop    %esi
    3f6c:	5f                   	pop    %edi
    3f6d:	5d                   	pop    %ebp
    3f6e:	c3                   	ret    
    3f6f:	90                   	nop
    3f70:	89 34 24             	mov    %esi,(%esp)
    3f73:	e8 78 05 01 00       	call   144f0 <async_exchange_end>
    3f78:	83 c4 7c             	add    $0x7c,%esp
    3f7b:	31 db                	xor    %ebx,%ebx
    3f7d:	89 d8                	mov    %ebx,%eax
    3f7f:	5b                   	pop    %ebx
    3f80:	5e                   	pop    %esi
    3f81:	5f                   	pop    %edi
    3f82:	5d                   	pop    %ebp
    3f83:	c3                   	ret    
    3f84:	8d 74 26 00          	lea    0x0(%esi,%eiz,1),%esi
    3f88:	85 db                	test   %ebx,%ebx
    3f8a:	0f 84 1e fe ff ff    	je     3dae <loc_get_namespaces+0x3e>
    3f90:	89 1d f0 0d 02 00    	mov    %ebx,0x20df0
    3f96:	e9 13 fe ff ff       	jmp    3dae <loc_get_namespaces+0x3e>
    3f9b:	90                   	nop
    3f9c:	8d 74 26 00          	lea    0x0(%esi,%eiz,1),%esi
    3fa0:	c7 44 24 0c 00 00 00 	movl   $0x0,0xc(%esp)
    3fa7:	00 
    3fa8:	c7 44 24 08 02 00 00 	movl   $0x2,0x8(%esp)
    3faf:	00 
    3fb0:	c7 44 24 04 6c 6f 63 	movl   $0x20636f6c,0x4(%esp)
    3fb7:	20 
    3fb8:	c7 04 24 02 00 00 00 	movl   $0x2,(%esp)
    3fbf:	e8 0c d5 00 00       	call   114d0 <service_connect_blocking>
    3fc4:	a3 f0 0d 02 00       	mov    %eax,0x20df0
    3fc9:	e9 bc fd ff ff       	jmp    3d8a <loc_get_namespaces+0x1a>
    3fce:	66 90                	xchg   %ax,%ax
    3fd0:	8b 45 b4             	mov    -0x4c(%ebp),%eax
    3fd3:	31 db                	xor    %ebx,%ebx
    3fd5:	89 04 24             	mov    %eax,(%esp)
    3fd8:	e8 63 ef 00 00       	call   12f40 <async_forget>
    3fdd:	89 3c 24             	mov    %edi,(%esp)
    3fe0:	e8 6b cd 00 00       	call   10d50 <free>
    3fe5:	83 c4 7c             	add    $0x7c,%esp
    3fe8:	89 d8                	mov    %ebx,%eax
    3fea:	5b                   	pop    %ebx
    3feb:	5e                   	pop    %esi
    3fec:	5f                   	pop    %edi
    3fed:	5d                   	pop    %ebp
    3fee:	c3                   	ret    
    3fef:	90                   	nop
    3ff0:	85 db                	test   %ebx,%ebx
    3ff2:	0f 84 fb fd ff ff    	je     3df3 <loc_get_namespaces+0x83>
    3ff8:	89 1d ec 0d 02 00    	mov    %ebx,0x20dec
    3ffe:	e9 f0 fd ff ff       	jmp    3df3 <loc_get_namespaces+0x83>
    4003:	89 3c 24             	mov    %edi,(%esp)
    4006:	e8 45 cd 00 00       	call   10d50 <free>
    400b:	e9 69 fd ff ff       	jmp    3d79 <loc_get_namespaces+0x9>
    4010:	c7 44 24 0c 00 00 00 	movl   $0x0,0xc(%esp)
    4017:	00 
    4018:	c7 44 24 08 02 00 00 	movl   $0x2,0x8(%esp)
    401f:	00 
    4020:	c7 44 24 04 6c 6f 63 	movl   $0x20636f6c,0x4(%esp)
    4027:	20 
    4028:	c7 04 24 02 00 00 00 	movl   $0x2,(%esp)
    402f:	e8 1c d4 00 00       	call   11450 <service_connect>
    4034:	a3 ec 0d 02 00       	mov    %eax,0x20dec
    4039:	e9 75 fe ff ff       	jmp    3eb3 <loc_get_namespaces+0x143>
    403e:	31 f6                	xor    %esi,%esi
    4040:	e9 91 fe ff ff       	jmp    3ed6 <loc_get_namespaces+0x166>
    4045:	8d 74 26 00          	lea    0x0(%esi,%eiz,1),%esi
    4049:	8d bc 27 00 00 00 00 	lea    0x0(%edi,%eiz,1),%edi

00004050 <loc_get_services>:
    4050:	55                   	push   %ebp
    4051:	89 e5                	mov    %esp,%ebp
    4053:	57                   	push   %edi
    4054:	56                   	push   %esi
    4055:	53                   	push   %ebx
    4056:	83 ec 7c             	sub    $0x7c,%esp
    4059:	c7 04 24 bc 0b 02 00 	movl   $0x20bbc,(%esp)
    4060:	e8 cb 3f 00 00       	call   8030 <fibril_mutex_lock>
    4065:	a1 f0 0d 02 00       	mov    0x20df0,%eax
    406a:	85 c0                	test   %eax,%eax
    406c:	75 38                	jne    40a6 <loc_get_services+0x56>
    406e:	c7 04 24 cc 0b 02 00 	movl   $0x20bcc,(%esp)
    4075:	8b 1d ec 0d 02 00    	mov    0x20dec,%ebx
    407b:	e8 b0 3f 00 00       	call   8030 <fibril_mutex_lock>
    4080:	a1 f0 0d 02 00       	mov    0x20df0,%eax
    4085:	85 c0                	test   %eax,%eax
    4087:	0f 84 db 01 00 00    	je     4268 <loc_get_services+0x218>
    408d:	c7 04 24 cc 0b 02 00 	movl   $0x20bcc,(%esp)
    4094:	e8 b7 40 00 00       	call   8150 <fibril_mutex_unlock>
    4099:	a1 f0 0d 02 00       	mov    0x20df0,%eax
    409e:	85 c0                	test   %eax,%eax
    40a0:	0f 84 da 01 00 00    	je     4280 <loc_get_services+0x230>
    40a6:	c7 04 24 bc 0b 02 00 	movl   $0x20bbc,(%esp)
    40ad:	e8 9e 40 00 00       	call   8150 <fibril_mutex_unlock>
    40b2:	c7 04 24 cc 0b 02 00 	movl   $0x20bcc,(%esp)
    40b9:	8b 1d f0 0d 02 00    	mov    0x20df0,%ebx
    40bf:	e8 6c 3f 00 00       	call   8030 <fibril_mutex_lock>
    40c4:	a1 ec 0d 02 00       	mov    0x20dec,%eax
    40c9:	85 c0                	test   %eax,%eax
    40cb:	0f 84 ff 01 00 00    	je     42d0 <loc_get_services+0x280>
    40d1:	c7 04 24 cc 0b 02 00 	movl   $0x20bcc,(%esp)
    40d8:	e8 73 40 00 00       	call   8150 <fibril_mutex_unlock>
    40dd:	a1 f0 0d 02 00       	mov    0x20df0,%eax
    40e2:	89 04 24             	mov    %eax,(%esp)
    40e5:	e8 96 00 01 00       	call   14180 <async_exchange_begin>
    40ea:	c7 44 24 28 00 00 00 	movl   $0x0,0x28(%esp)
    40f1:	00 
    40f2:	89 c6                	mov    %eax,%esi
    40f4:	8d 45 c0             	lea    -0x40(%ebp),%eax
    40f7:	89 44 24 18          	mov    %eax,0x18(%esp)
    40fb:	8b 45 08             	mov    0x8(%ebp),%eax
    40fe:	c7 44 24 24 00 00 00 	movl   $0x0,0x24(%esp)
    4105:	00 
    4106:	c7 44 24 20 00 00 00 	movl   $0x0,0x20(%esp)
    410d:	00 
    410e:	c7 44 24 1c 00 00 00 	movl   $0x0,0x1c(%esp)
    4115:	00 
    4116:	c7 44 24 14 00 00 00 	movl   $0x0,0x14(%esp)
    411d:	00 
    411e:	c7 44 24 10 00 00 00 	movl   $0x0,0x10(%esp)
    4125:	00 
    4126:	c7 44 24 0c 00 00 00 	movl   $0x0,0xc(%esp)
    412d:	00 
    412e:	89 44 24 08          	mov    %eax,0x8(%esp)
    4132:	c7 44 24 04 11 04 00 	movl   $0x411,0x4(%esp)
    4139:	00 
    413a:	89 34 24             	mov    %esi,(%esp)
    413d:	e8 ee ef 00 00       	call   13130 <async_req_fast>
    4142:	85 c0                	test   %eax,%eax
    4144:	0f 85 06 01 00 00    	jne    4250 <loc_get_services+0x200>
    414a:	8b 5d c0             	mov    -0x40(%ebp),%ebx
    414d:	89 34 24             	mov    %esi,(%esp)
    4150:	e8 9b 03 01 00       	call   144f0 <async_exchange_end>
    4155:	85 db                	test   %ebx,%ebx
    4157:	0f 84 fb 00 00 00    	je     4258 <loc_get_services+0x208>
    415d:	c7 44 24 04 04 01 00 	movl   $0x104,0x4(%esp)
    4164:	00 
    4165:	89 1c 24             	mov    %ebx,(%esp)
    4168:	e8 73 ca 00 00       	call   10be0 <calloc>
    416d:	89 c7                	mov    %eax,%edi
    416f:	85 c0                	test   %eax,%eax
    4171:	0f 84 e1 00 00 00    	je     4258 <loc_get_services+0x208>
    4177:	c7 04 24 cc 0b 02 00 	movl   $0x20bcc,(%esp)
    417e:	e8 ad 3e 00 00       	call   8030 <fibril_mutex_lock>
    4183:	a1 ec 0d 02 00       	mov    0x20dec,%eax
    4188:	85 c0                	test   %eax,%eax
    418a:	0f 84 60 01 00 00    	je     42f0 <loc_get_services+0x2a0>
    4190:	c7 04 24 cc 0b 02 00 	movl   $0x20bcc,(%esp)
    4197:	e8 b4 3f 00 00       	call   8150 <fibril_mutex_unlock>
    419c:	a1 ec 0d 02 00       	mov    0x20dec,%eax
    41a1:	85 c0                	test   %eax,%eax
    41a3:	0f 84 75 01 00 00    	je     431e <loc_get_services+0x2ce>
    41a9:	89 04 24             	mov    %eax,(%esp)
    41ac:	e8 cf ff 00 00       	call   14180 <async_exchange_begin>
    41b1:	89 c6                	mov    %eax,%esi
    41b3:	8d 45 c4             	lea    -0x3c(%ebp),%eax
    41b6:	c7 44 24 14 00 00 00 	movl   $0x0,0x14(%esp)
    41bd:	00 
    41be:	89 44 24 18          	mov    %eax,0x18(%esp)
    41c2:	8b 45 08             	mov    0x8(%ebp),%eax
    41c5:	c7 44 24 10 00 00 00 	movl   $0x0,0x10(%esp)
    41cc:	00 
    41cd:	c7 44 24 0c 00 00 00 	movl   $0x0,0xc(%esp)
    41d4:	00 
    41d5:	89 44 24 08          	mov    %eax,0x8(%esp)
    41d9:	c7 44 24 04 14 04 00 	movl   $0x414,0x4(%esp)
    41e0:	00 
    41e1:	89 34 24             	mov    %esi,(%esp)
    41e4:	e8 37 e9 00 00       	call   12b20 <async_send_fast>
    41e9:	89 7c 24 04          	mov    %edi,0x4(%esp)
    41ed:	89 45 b4             	mov    %eax,-0x4c(%ebp)
    41f0:	89 d8                	mov    %ebx,%eax
    41f2:	c1 e0 08             	shl    $0x8,%eax
    41f5:	89 34 24             	mov    %esi,(%esp)
    41f8:	8d 04 98             	lea    (%eax,%ebx,4),%eax
    41fb:	89 44 24 08          	mov    %eax,0x8(%esp)
    41ff:	e8 4c 09 01 00       	call   14b50 <async_data_read_start>
    4204:	89 34 24             	mov    %esi,(%esp)
    4207:	89 45 b0             	mov    %eax,-0x50(%ebp)
    420a:	e8 e1 02 01 00       	call   144f0 <async_exchange_end>
    420f:	8b 45 b0             	mov    -0x50(%ebp),%eax
    4212:	83 f8 f0             	cmp    $0xfffffff0,%eax
    4215:	0f 84 c8 00 00 00    	je     42e3 <loc_get_services+0x293>
    421b:	85 c0                	test   %eax,%eax
    421d:	0f 85 8d 00 00 00    	jne    42b0 <loc_get_services+0x260>
    4223:	8d 45 c0             	lea    -0x40(%ebp),%eax
    4226:	89 44 24 04          	mov    %eax,0x4(%esp)
    422a:	8b 45 b4             	mov    -0x4c(%ebp),%eax
    422d:	89 04 24             	mov    %eax,(%esp)
    4230:	e8 bb ea 00 00       	call   12cf0 <async_wait_for>
    4235:	8b 75 c0             	mov    -0x40(%ebp),%esi
    4238:	85 f6                	test   %esi,%esi
    423a:	75 1c                	jne    4258 <loc_get_services+0x208>
    423c:	8b 45 0c             	mov    0xc(%ebp),%eax
    423f:	89 38                	mov    %edi,(%eax)
    4241:	83 c4 7c             	add    $0x7c,%esp
    4244:	89 d8                	mov    %ebx,%eax
    4246:	5b                   	pop    %ebx
    4247:	5e                   	pop    %esi
    4248:	5f                   	pop    %edi
    4249:	5d                   	pop    %ebp
    424a:	c3                   	ret    
    424b:	90                   	nop
    424c:	8d 74 26 00          	lea    0x0(%esi,%eiz,1),%esi
    4250:	89 34 24             	mov    %esi,(%esp)
    4253:	e8 98 02 01 00       	call   144f0 <async_exchange_end>
    4258:	83 c4 7c             	add    $0x7c,%esp
    425b:	31 db                	xor    %ebx,%ebx
    425d:	89 d8                	mov    %ebx,%eax
    425f:	5b                   	pop    %ebx
    4260:	5e                   	pop    %esi
    4261:	5f                   	pop    %edi
    4262:	5d                   	pop    %ebp
    4263:	c3                   	ret    
    4264:	8d 74 26 00          	lea    0x0(%esi,%eiz,1),%esi
    4268:	85 db                	test   %ebx,%ebx
    426a:	0f 84 1d fe ff ff    	je     408d <loc_get_services+0x3d>
    4270:	89 1d f0 0d 02 00    	mov    %ebx,0x20df0
    4276:	e9 12 fe ff ff       	jmp    408d <loc_get_services+0x3d>
    427b:	90                   	nop
    427c:	8d 74 26 00          	lea    0x0(%esi,%eiz,1),%esi
    4280:	c7 44 24 0c 00 00 00 	movl   $0x0,0xc(%esp)
    4287:	00 
    4288:	c7 44 24 08 02 00 00 	movl   $0x2,0x8(%esp)
    428f:	00 
    4290:	c7 44 24 04 6c 6f 63 	movl   $0x20636f6c,0x4(%esp)
    4297:	20 
    4298:	c7 04 24 02 00 00 00 	movl   $0x2,(%esp)
    429f:	e8 2c d2 00 00       	call   114d0 <service_connect_blocking>
    42a4:	a3 f0 0d 02 00       	mov    %eax,0x20df0
    42a9:	e9 bc fd ff ff       	jmp    406a <loc_get_services+0x1a>
    42ae:	66 90                	xchg   %ax,%ax
    42b0:	8b 45 b4             	mov    -0x4c(%ebp),%eax
    42b3:	31 db                	xor    %ebx,%ebx
    42b5:	89 04 24             	mov    %eax,(%esp)
    42b8:	e8 83 ec 00 00       	call   12f40 <async_forget>
    42bd:	89 3c 24             	mov    %edi,(%esp)
    42c0:	e8 8b ca 00 00       	call   10d50 <free>
    42c5:	83 c4 7c             	add    $0x7c,%esp
    42c8:	89 d8                	mov    %ebx,%eax
    42ca:	5b                   	pop    %ebx
    42cb:	5e                   	pop    %esi
    42cc:	5f                   	pop    %edi
    42cd:	5d                   	pop    %ebp
    42ce:	c3                   	ret    
    42cf:	90                   	nop
    42d0:	85 db                	test   %ebx,%ebx
    42d2:	0f 84 f9 fd ff ff    	je     40d1 <loc_get_services+0x81>
    42d8:	89 1d ec 0d 02 00    	mov    %ebx,0x20dec
    42de:	e9 ee fd ff ff       	jmp    40d1 <loc_get_services+0x81>
    42e3:	89 3c 24             	mov    %edi,(%esp)
    42e6:	e8 65 ca 00 00       	call   10d50 <free>
    42eb:	e9 69 fd ff ff       	jmp    4059 <loc_get_services+0x9>
    42f0:	c7 44 24 0c 00 00 00 	movl   $0x0,0xc(%esp)
    42f7:	00 
    42f8:	c7 44 24 08 02 00 00 	movl   $0x2,0x8(%esp)
    42ff:	00 
    4300:	c7 44 24 04 6c 6f 63 	movl   $0x20636f6c,0x4(%esp)
    4307:	20 
    4308:	c7 04 24 02 00 00 00 	movl   $0x2,(%esp)
    430f:	e8 3c d1 00 00       	call   11450 <service_connect>
    4314:	a3 ec 0d 02 00       	mov    %eax,0x20dec
    4319:	e9 72 fe ff ff       	jmp    4190 <loc_get_services+0x140>
    431e:	31 f6                	xor    %esi,%esi
    4320:	e9 8e fe ff ff       	jmp    41b3 <loc_get_services+0x163>
    4325:	8d 74 26 00          	lea    0x0(%esi,%eiz,1),%esi
    4329:	8d bc 27 00 00 00 00 	lea    0x0(%edi,%eiz,1),%edi

00004330 <loc_category_get_svcs>:
    4330:	55                   	push   %ebp
    4331:	89 e5                	mov    %esp,%ebp
    4333:	8b 45 10             	mov    0x10(%ebp),%eax
    4336:	8b 55 08             	mov    0x8(%ebp),%edx
    4339:	8b 4d 0c             	mov    0xc(%ebp),%ecx
    433c:	89 45 08             	mov    %eax,0x8(%ebp)
    433f:	b8 0c 04 00 00       	mov    $0x40c,%eax
    4344:	5d                   	pop    %ebp
    4345:	e9 e6 db ff ff       	jmp    1f30 <loc_get_ids_internal>
    434a:	8d b6 00 00 00 00    	lea    0x0(%esi),%esi

00004350 <loc_get_categories>:
    4350:	55                   	push   %ebp
    4351:	31 d2                	xor    %edx,%edx
    4353:	89 e5                	mov    %esp,%ebp
    4355:	8b 45 0c             	mov    0xc(%ebp),%eax
    4358:	8b 4d 08             	mov    0x8(%ebp),%ecx
    435b:	89 45 08             	mov    %eax,0x8(%ebp)
    435e:	b8 12 04 00 00       	mov    $0x412,%eax
    4363:	5d                   	pop    %ebp
    4364:	e9 c7 db ff ff       	jmp    1f30 <loc_get_ids_internal>
    4369:	8d b4 26 00 00 00 00 	lea    0x0(%esi,%eiz,1),%esi

00004370 <loc_register_cat_change_cb>:
    4370:	55                   	push   %ebp
    4371:	89 e5                	mov    %esp,%ebp
    4373:	57                   	push   %edi
    4374:	56                   	push   %esi
    4375:	53                   	push   %ebx
    4376:	83 ec 5c             	sub    $0x5c,%esp
    4379:	c7 04 24 dc 0b 02 00 	movl   $0x20bdc,(%esp)
    4380:	e8 ab 3c 00 00       	call   8030 <fibril_mutex_lock>
    4385:	80 3d f8 0d 02 00 00 	cmpb   $0x0,0x20df8
    438c:	74 22                	je     43b0 <loc_register_cat_change_cb+0x40>
    438e:	8b 45 08             	mov    0x8(%ebp),%eax
    4391:	c7 04 24 dc 0b 02 00 	movl   $0x20bdc,(%esp)
    4398:	a3 f4 0d 02 00       	mov    %eax,0x20df4
    439d:	e8 ae 3d 00 00       	call   8150 <fibril_mutex_unlock>
    43a2:	83 c4 5c             	add    $0x5c,%esp
    43a5:	31 c0                	xor    %eax,%eax
    43a7:	5b                   	pop    %ebx
    43a8:	5e                   	pop    %esi
    43a9:	5f                   	pop    %edi
    43aa:	5d                   	pop    %ebp
    43ab:	c3                   	ret    
    43ac:	8d 74 26 00          	lea    0x0(%esi,%eiz,1),%esi
    43b0:	c7 04 24 bc 0b 02 00 	movl   $0x20bbc,(%esp)
    43b7:	e8 74 3c 00 00       	call   8030 <fibril_mutex_lock>
    43bc:	a1 f0 0d 02 00       	mov    0x20df0,%eax
    43c1:	85 c0                	test   %eax,%eax
    43c3:	75 3a                	jne    43ff <loc_register_cat_change_cb+0x8f>
    43c5:	c7 04 24 cc 0b 02 00 	movl   $0x20bcc,(%esp)
    43cc:	8b 1d ec 0d 02 00    	mov    0x20dec,%ebx
    43d2:	e8 59 3c 00 00       	call   8030 <fibril_mutex_lock>
    43d7:	8b 0d f0 0d 02 00    	mov    0x20df0,%ecx
    43dd:	85 c9                	test   %ecx,%ecx
    43df:	0f 84 f3 00 00 00    	je     44d8 <loc_register_cat_change_cb+0x168>
    43e5:	c7 04 24 cc 0b 02 00 	movl   $0x20bcc,(%esp)
    43ec:	e8 5f 3d 00 00       	call   8150 <fibril_mutex_unlock>
    43f1:	8b 15 f0 0d 02 00    	mov    0x20df0,%edx
    43f7:	85 d2                	test   %edx,%edx
    43f9:	0f 84 f1 00 00 00    	je     44f0 <loc_register_cat_change_cb+0x180>
    43ff:	c7 04 24 bc 0b 02 00 	movl   $0x20bbc,(%esp)
    4406:	e8 45 3d 00 00       	call   8150 <fibril_mutex_unlock>
    440b:	c7 04 24 cc 0b 02 00 	movl   $0x20bcc,(%esp)
    4412:	8b 1d f0 0d 02 00    	mov    0x20df0,%ebx
    4418:	e8 13 3c 00 00       	call   8030 <fibril_mutex_lock>
    441d:	a1 ec 0d 02 00       	mov    0x20dec,%eax
    4422:	85 c0                	test   %eax,%eax
    4424:	0f 84 1e 01 00 00    	je     4548 <loc_register_cat_change_cb+0x1d8>
    442a:	c7 04 24 cc 0b 02 00 	movl   $0x20bcc,(%esp)
    4431:	e8 1a 3d 00 00       	call   8150 <fibril_mutex_unlock>
    4436:	a1 f0 0d 02 00       	mov    0x20df0,%eax
    443b:	89 04 24             	mov    %eax,(%esp)
    443e:	e8 3d fd 00 00       	call   14180 <async_exchange_begin>
    4443:	c7 44 24 14 00 00 00 	movl   $0x0,0x14(%esp)
    444a:	00 
    444b:	89 c3                	mov    %eax,%ebx
    444d:	8d 45 c4             	lea    -0x3c(%ebp),%eax
    4450:	89 44 24 18          	mov    %eax,0x18(%esp)
    4454:	c7 44 24 10 00 00 00 	movl   $0x0,0x10(%esp)
    445b:	00 
    445c:	c7 44 24 0c 00 00 00 	movl   $0x0,0xc(%esp)
    4463:	00 
    4464:	c7 44 24 08 00 00 00 	movl   $0x0,0x8(%esp)
    446b:	00 
    446c:	c7 44 24 04 09 04 00 	movl   $0x409,0x4(%esp)
    4473:	00 
    4474:	89 1c 24             	mov    %ebx,(%esp)
    4477:	e8 a4 e6 00 00       	call   12b20 <async_send_fast>
    447c:	c7 44 24 14 00 00 00 	movl   $0x0,0x14(%esp)
    4483:	00 
    4484:	c7 44 24 10 f0 1b 00 	movl   $0x1bf0,0x10(%esp)
    448b:	00 
    448c:	c7 44 24 0c 00 00 00 	movl   $0x0,0xc(%esp)
    4493:	00 
    4494:	c7 44 24 08 00 00 00 	movl   $0x0,0x8(%esp)
    449b:	00 
    449c:	c7 44 24 04 00 00 00 	movl   $0x0,0x4(%esp)
    44a3:	00 
    44a4:	89 1c 24             	mov    %ebx,(%esp)
    44a7:	89 c7                	mov    %eax,%edi
    44a9:	e8 72 f4 00 00       	call   13920 <async_connect_to_me>
    44ae:	89 1c 24             	mov    %ebx,(%esp)
    44b1:	89 c6                	mov    %eax,%esi
    44b3:	e8 38 00 01 00       	call   144f0 <async_exchange_end>
    44b8:	85 f6                	test   %esi,%esi
    44ba:	74 64                	je     4520 <loc_register_cat_change_cb+0x1b0>
    44bc:	c7 04 24 dc 0b 02 00 	movl   $0x20bdc,(%esp)
    44c3:	e8 88 3c 00 00       	call   8150 <fibril_mutex_unlock>
    44c8:	83 c4 5c             	add    $0x5c,%esp
    44cb:	b8 f7 fe ff ff       	mov    $0xfffffef7,%eax
    44d0:	5b                   	pop    %ebx
    44d1:	5e                   	pop    %esi
    44d2:	5f                   	pop    %edi
    44d3:	5d                   	pop    %ebp
    44d4:	c3                   	ret    
    44d5:	8d 76 00             	lea    0x0(%esi),%esi
    44d8:	85 db                	test   %ebx,%ebx
    44da:	0f 84 05 ff ff ff    	je     43e5 <loc_register_cat_change_cb+0x75>
    44e0:	89 1d f0 0d 02 00    	mov    %ebx,0x20df0
    44e6:	e9 fa fe ff ff       	jmp    43e5 <loc_register_cat_change_cb+0x75>
    44eb:	90                   	nop
    44ec:	8d 74 26 00          	lea    0x0(%esi,%eiz,1),%esi
    44f0:	c7 44 24 0c 00 00 00 	movl   $0x0,0xc(%esp)
    44f7:	00 
    44f8:	c7 44 24 08 02 00 00 	movl   $0x2,0x8(%esp)
    44ff:	00 
    4500:	c7 44 24 04 6c 6f 63 	movl   $0x20636f6c,0x4(%esp)
    4507:	20 
    4508:	c7 04 24 02 00 00 00 	movl   $0x2,(%esp)
    450f:	e8 bc cf 00 00       	call   114d0 <service_connect_blocking>
    4514:	a3 f0 0d 02 00       	mov    %eax,0x20df0
    4519:	e9 a3 fe ff ff       	jmp    43c1 <loc_register_cat_change_cb+0x51>
    451e:	66 90                	xchg   %ax,%ax
    4520:	8d 45 c0             	lea    -0x40(%ebp),%eax
    4523:	89 3c 24             	mov    %edi,(%esp)
    4526:	89 44 24 04          	mov    %eax,0x4(%esp)
    452a:	e8 c1 e7 00 00       	call   12cf0 <async_wait_for>
    452f:	8b 45 c0             	mov    -0x40(%ebp),%eax
    4532:	85 c0                	test   %eax,%eax
    4534:	75 86                	jne    44bc <loc_register_cat_change_cb+0x14c>
    4536:	c6 05 f8 0d 02 00 01 	movb   $0x1,0x20df8
    453d:	e9 4c fe ff ff       	jmp    438e <loc_register_cat_change_cb+0x1e>
    4542:	8d b6 00 00 00 00    	lea    0x0(%esi),%esi
    4548:	85 db                	test   %ebx,%ebx
    454a:	0f 84 da fe ff ff    	je     442a <loc_register_cat_change_cb+0xba>
    4550:	89 1d ec 0d 02 00    	mov    %ebx,0x20dec
    4556:	e9 cf fe ff ff       	jmp    442a <loc_register_cat_change_cb+0xba>
    455b:	66 90                	xchg   %ax,%ax
    455d:	66 90                	xchg   %ax,%ax
    455f:	90                   	nop

00004560 <_strtoul>:
    4560:	55                   	push   %ebp
    4561:	89 e5                	mov    %esp,%ebp
    4563:	57                   	push   %edi
    4564:	56                   	push   %esi
    4565:	53                   	push   %ebx
    4566:	83 ec 08             	sub    $0x8,%esp
    4569:	89 45 f0             	mov    %eax,-0x10(%ebp)
    456c:	8a 00                	mov    (%eax),%al
    456e:	89 55 ec             	mov    %edx,-0x14(%ebp)
    4571:	0f be d0             	movsbl %al,%edx
    4574:	83 ea 09             	sub    $0x9,%edx
    4577:	8b 5d f0             	mov    -0x10(%ebp),%ebx
    457a:	83 fa 17             	cmp    $0x17,%edx
    457d:	77 23                	ja     45a2 <_strtoul+0x42>
    457f:	8b 3c 95 c0 e3 01 00 	mov    0x1e3c0(,%edx,4),%edi
    4586:	85 ff                	test   %edi,%edi
    4588:	0f 84 94 01 00 00    	je     4722 <_strtoul+0x1c2>
    458e:	66 90                	xchg   %ax,%ax
    4590:	43                   	inc    %ebx
    4591:	8a 03                	mov    (%ebx),%al
    4593:	0f be d0             	movsbl %al,%edx
    4596:	83 ea 09             	sub    $0x9,%edx
    4599:	83 fa 17             	cmp    $0x17,%edx
    459c:	0f 86 a6 00 00 00    	jbe    4648 <_strtoul+0xe8>
    45a2:	3c 2d                	cmp    $0x2d,%al
    45a4:	0f 84 1e 01 00 00    	je     46c8 <_strtoul+0x168>
    45aa:	3c 2b                	cmp    $0x2b,%al
    45ac:	0f 94 c0             	sete   %al
    45af:	25 ff 00 00 00       	and    $0xff,%eax
    45b4:	01 c3                	add    %eax,%ebx
    45b6:	85 c9                	test   %ecx,%ecx
    45b8:	0f 84 a2 00 00 00    	je     4660 <_strtoul+0x100>
    45be:	83 f9 24             	cmp    $0x24,%ecx
    45c1:	0f 8f 21 01 00 00    	jg     46e8 <_strtoul+0x188>
    45c7:	83 f9 01             	cmp    $0x1,%ecx
    45ca:	0f 84 18 01 00 00    	je     46e8 <_strtoul+0x188>
    45d0:	8a 13                	mov    (%ebx),%dl
    45d2:	83 f9 10             	cmp    $0x10,%ecx
    45d5:	0f 84 16 01 00 00    	je     46f1 <_strtoul+0x191>
    45db:	84 d2                	test   %dl,%dl
    45dd:	0f 84 2c 01 00 00    	je     470f <_strtoul+0x1af>
    45e3:	89 de                	mov    %ebx,%esi
    45e5:	31 c0                	xor    %eax,%eax
    45e7:	eb 4a                	jmp    4633 <_strtoul+0xd3>
    45e9:	8d b4 26 00 00 00 00 	lea    0x0(%esi,%eiz,1),%esi
    45f0:	83 ea 57             	sub    $0x57,%edx
    45f3:	81 e2 ff 00 00 00    	and    $0xff,%edx
    45f9:	39 d1                	cmp    %edx,%ecx
    45fb:	0f 8e 94 00 00 00    	jle    4695 <_strtoul+0x135>
    4601:	0f b6 f8             	movzbl %al,%edi
    4604:	0f af f9             	imul   %ecx,%edi
    4607:	c1 e8 08             	shr    $0x8,%eax
    460a:	01 fa                	add    %edi,%edx
    460c:	0f af c1             	imul   %ecx,%eax
    460f:	89 d7                	mov    %edx,%edi
    4611:	c1 ef 08             	shr    $0x8,%edi
    4614:	01 f8                	add    %edi,%eax
    4616:	3d ff ff ff 00       	cmp    $0xffffff,%eax
    461b:	0f 87 b7 00 00 00    	ja     46d8 <_strtoul+0x178>
    4621:	46                   	inc    %esi
    4622:	81 e2 ff 00 00 00    	and    $0xff,%edx
    4628:	c1 e0 08             	shl    $0x8,%eax
    462b:	01 d0                	add    %edx,%eax
    462d:	8a 16                	mov    (%esi),%dl
    462f:	84 d2                	test   %dl,%dl
    4631:	74 62                	je     4695 <_strtoul+0x135>
    4633:	80 fa 60             	cmp    $0x60,%dl
    4636:	77 b8                	ja     45f0 <_strtoul+0x90>
    4638:	80 fa 40             	cmp    $0x40,%dl
    463b:	76 53                	jbe    4690 <_strtoul+0x130>
    463d:	83 ea 37             	sub    $0x37,%edx
    4640:	eb b1                	jmp    45f3 <_strtoul+0x93>
    4642:	8d b6 00 00 00 00    	lea    0x0(%esi),%esi
    4648:	8b 34 95 c0 e3 01 00 	mov    0x1e3c0(,%edx,4),%esi
    464f:	85 f6                	test   %esi,%esi
    4651:	0f 85 39 ff ff ff    	jne    4590 <_strtoul+0x30>
    4657:	e9 46 ff ff ff       	jmp    45a2 <_strtoul+0x42>
    465c:	8d 74 26 00          	lea    0x0(%esi,%eiz,1),%esi
    4660:	8a 13                	mov    (%ebx),%dl
    4662:	b9 0a 00 00 00       	mov    $0xa,%ecx
    4667:	80 fa 30             	cmp    $0x30,%dl
    466a:	0f 85 6b ff ff ff    	jne    45db <_strtoul+0x7b>
    4670:	8a 43 01             	mov    0x1(%ebx),%al
    4673:	83 e0 df             	and    $0xffffffdf,%eax
    4676:	3c 58                	cmp    $0x58,%al
    4678:	0f 85 98 00 00 00    	jne    4716 <_strtoul+0x1b6>
    467e:	8a 53 02             	mov    0x2(%ebx),%dl
    4681:	b1 10                	mov    $0x10,%cl
    4683:	83 c3 02             	add    $0x2,%ebx
    4686:	e9 50 ff ff ff       	jmp    45db <_strtoul+0x7b>
    468b:	90                   	nop
    468c:	8d 74 26 00          	lea    0x0(%esi,%eiz,1),%esi
    4690:	80 fa 39             	cmp    $0x39,%dl
    4693:	76 2b                	jbe    46c0 <_strtoul+0x160>
    4695:	39 f3                	cmp    %esi,%ebx
    4697:	74 76                	je     470f <_strtoul+0x1af>
    4699:	8b 5d ec             	mov    -0x14(%ebp),%ebx
    469c:	85 db                	test   %ebx,%ebx
    469e:	74 05                	je     46a5 <_strtoul+0x145>
    46a0:	8b 55 ec             	mov    -0x14(%ebp),%edx
    46a3:	89 32                	mov    %esi,(%edx)
    46a5:	39 75 f0             	cmp    %esi,-0x10(%ebp)
    46a8:	0f 95 c2             	setne  %dl
    46ab:	81 e2 ff 00 00 00    	and    $0xff,%edx
    46b1:	f7 da                	neg    %edx
    46b3:	21 d0                	and    %edx,%eax
    46b5:	5a                   	pop    %edx
    46b6:	59                   	pop    %ecx
    46b7:	5b                   	pop    %ebx
    46b8:	5e                   	pop    %esi
    46b9:	5f                   	pop    %edi
    46ba:	5d                   	pop    %ebp
    46bb:	c3                   	ret    
    46bc:	8d 74 26 00          	lea    0x0(%esi,%eiz,1),%esi
    46c0:	83 ea 30             	sub    $0x30,%edx
    46c3:	e9 2b ff ff ff       	jmp    45f3 <_strtoul+0x93>
    46c8:	8b 45 08             	mov    0x8(%ebp),%eax
    46cb:	43                   	inc    %ebx
    46cc:	c6 00 01             	movb   $0x1,(%eax)
    46cf:	e9 e2 fe ff ff       	jmp    45b6 <_strtoul+0x56>
    46d4:	8d 74 26 00          	lea    0x0(%esi,%eiz,1),%esi
    46d8:	5a                   	pop    %edx
    46d9:	83 c8 ff             	or     $0xffffffff,%eax
    46dc:	59                   	pop    %ecx
    46dd:	5b                   	pop    %ebx
    46de:	5e                   	pop    %esi
    46df:	5f                   	pop    %edi
    46e0:	5d                   	pop    %ebp
    46e1:	c3                   	ret    
    46e2:	8d b6 00 00 00 00    	lea    0x0(%esi),%esi
    46e8:	5a                   	pop    %edx
    46e9:	31 c0                	xor    %eax,%eax
    46eb:	59                   	pop    %ecx
    46ec:	5b                   	pop    %ebx
    46ed:	5e                   	pop    %esi
    46ee:	5f                   	pop    %edi
    46ef:	5d                   	pop    %ebp
    46f0:	c3                   	ret    
    46f1:	80 fa 30             	cmp    $0x30,%dl
    46f4:	0f 85 e1 fe ff ff    	jne    45db <_strtoul+0x7b>
    46fa:	8a 43 01             	mov    0x1(%ebx),%al
    46fd:	83 e0 df             	and    $0xffffffdf,%eax
    4700:	3c 58                	cmp    $0x58,%al
    4702:	75 17                	jne    471b <_strtoul+0x1bb>
    4704:	8a 53 02             	mov    0x2(%ebx),%dl
    4707:	83 c3 02             	add    $0x2,%ebx
    470a:	e9 cc fe ff ff       	jmp    45db <_strtoul+0x7b>
    470f:	8b 75 f0             	mov    -0x10(%ebp),%esi
    4712:	31 c0                	xor    %eax,%eax
    4714:	eb 83                	jmp    4699 <_strtoul+0x139>
    4716:	b9 08 00 00 00       	mov    $0x8,%ecx
    471b:	b2 30                	mov    $0x30,%dl
    471d:	e9 c1 fe ff ff       	jmp    45e3 <_strtoul+0x83>
    4722:	8b 5d f0             	mov    -0x10(%ebp),%ebx
    4725:	e9 78 fe ff ff       	jmp    45a2 <_strtoul+0x42>
    472a:	8d b6 00 00 00 00    	lea    0x0(%esi),%esi

00004730 <str_uint>:
    4730:	55                   	push   %ebp
    4731:	89 e5                	mov    %esp,%ebp
    4733:	57                   	push   %edi
    4734:	56                   	push   %esi
    4735:	53                   	push   %ebx
    4736:	83 ec 3c             	sub    $0x3c,%esp
    4739:	89 45 dc             	mov    %eax,-0x24(%ebp)
    473c:	89 55 d8             	mov    %edx,-0x28(%ebp)
    473f:	8b 75 08             	mov    0x8(%ebp),%esi
    4742:	85 d2                	test   %edx,%edx
    4744:	0f 84 5f 02 00 00    	je     49a9 <str_uint+0x279>
    474a:	85 f6                	test   %esi,%esi
    474c:	0f 84 3b 02 00 00    	je     498d <str_uint+0x25d>
    4752:	8b 45 0c             	mov    0xc(%ebp),%eax
    4755:	85 c0                	test   %eax,%eax
    4757:	0f 84 14 02 00 00    	je     4971 <str_uint+0x241>
    475d:	8b 45 dc             	mov    -0x24(%ebp),%eax
    4760:	c6 06 00             	movb   $0x0,(%esi)
    4763:	8b 5d dc             	mov    -0x24(%ebp),%ebx
    4766:	8a 10                	mov    (%eax),%dl
    4768:	0f be c2             	movsbl %dl,%eax
    476b:	83 e8 09             	sub    $0x9,%eax
    476e:	83 f8 17             	cmp    $0x17,%eax
    4771:	77 27                	ja     479a <str_uint+0x6a>
    4773:	8b 04 85 c0 e3 01 00 	mov    0x1e3c0(,%eax,4),%eax
    477a:	85 c0                	test   %eax,%eax
    477c:	0f 84 e7 01 00 00    	je     4969 <str_uint+0x239>
    4782:	8d b6 00 00 00 00    	lea    0x0(%esi),%esi
    4788:	43                   	inc    %ebx
    4789:	8a 13                	mov    (%ebx),%dl
    478b:	0f be c2             	movsbl %dl,%eax
    478e:	83 e8 09             	sub    $0x9,%eax
    4791:	83 f8 17             	cmp    $0x17,%eax
    4794:	0f 86 06 01 00 00    	jbe    48a0 <str_uint+0x170>
    479a:	80 fa 2d             	cmp    $0x2d,%dl
    479d:	0f 84 4d 01 00 00    	je     48f0 <str_uint+0x1c0>
    47a3:	80 fa 2b             	cmp    $0x2b,%dl
    47a6:	0f 94 c0             	sete   %al
    47a9:	25 ff 00 00 00       	and    $0xff,%eax
    47ae:	01 c3                	add    %eax,%ebx
    47b0:	85 c9                	test   %ecx,%ecx
    47b2:	0f 85 18 01 00 00    	jne    48d0 <str_uint+0x1a0>
    47b8:	b1 0a                	mov    $0xa,%cl
    47ba:	80 3b 30             	cmpb   $0x30,(%ebx)
    47bd:	0f 84 3d 01 00 00    	je     4900 <str_uint+0x1d0>
    47c3:	8b 45 0c             	mov    0xc(%ebp),%eax
    47c6:	c7 00 00 00 00 00    	movl   $0x0,(%eax)
    47cc:	c7 40 04 00 00 00 00 	movl   $0x0,0x4(%eax)
    47d3:	8a 03                	mov    (%ebx),%al
    47d5:	84 c0                	test   %al,%al
    47d7:	0f 84 37 01 00 00    	je     4914 <str_uint+0x1e4>
    47dd:	8d 50 9f             	lea    -0x61(%eax),%edx
    47e0:	c7 45 e0 00 00 00 00 	movl   $0x0,-0x20(%ebp)
    47e7:	c7 45 e4 00 00 00 00 	movl   $0x0,-0x1c(%ebp)
    47ee:	89 5d d4             	mov    %ebx,-0x2c(%ebp)
    47f1:	80 fa 19             	cmp    $0x19,%dl
    47f4:	77 64                	ja     485a <str_uint+0x12a>
    47f6:	66 90                	xchg   %ax,%ax
    47f8:	0f be f0             	movsbl %al,%esi
    47fb:	83 ee 57             	sub    $0x57,%esi
    47fe:	39 f1                	cmp    %esi,%ecx
    4800:	76 6e                	jbe    4870 <str_uint+0x140>
    4802:	8b 45 e0             	mov    -0x20(%ebp),%eax
    4805:	8b 7d e4             	mov    -0x1c(%ebp),%edi
    4808:	f7 e1                	mul    %ecx
    480a:	0f af f9             	imul   %ecx,%edi
    480d:	89 45 c8             	mov    %eax,-0x38(%ebp)
    4810:	01 fa                	add    %edi,%edx
    4812:	31 ff                	xor    %edi,%edi
    4814:	03 75 c8             	add    -0x38(%ebp),%esi
    4817:	89 55 cc             	mov    %edx,-0x34(%ebp)
    481a:	8b 55 0c             	mov    0xc(%ebp),%edx
    481d:	13 7d cc             	adc    -0x34(%ebp),%edi
    4820:	89 32                	mov    %esi,(%edx)
    4822:	89 7a 04             	mov    %edi,0x4(%edx)
    4825:	3b 7d e4             	cmp    -0x1c(%ebp),%edi
    4828:	77 1b                	ja     4845 <str_uint+0x115>
    482a:	73 14                	jae    4840 <str_uint+0x110>
    482c:	8b 45 d8             	mov    -0x28(%ebp),%eax
    482f:	89 18                	mov    %ebx,(%eax)
    4831:	b8 f0 ff ff ff       	mov    $0xfffffff0,%eax
    4836:	83 c4 3c             	add    $0x3c,%esp
    4839:	5b                   	pop    %ebx
    483a:	5e                   	pop    %esi
    483b:	5f                   	pop    %edi
    483c:	5d                   	pop    %ebp
    483d:	c3                   	ret    
    483e:	66 90                	xchg   %ax,%ax
    4840:	3b 75 e0             	cmp    -0x20(%ebp),%esi
    4843:	72 e7                	jb     482c <str_uint+0xfc>
    4845:	43                   	inc    %ebx
    4846:	8a 03                	mov    (%ebx),%al
    4848:	84 c0                	test   %al,%al
    484a:	74 24                	je     4870 <str_uint+0x140>
    484c:	8d 50 9f             	lea    -0x61(%eax),%edx
    484f:	89 75 e0             	mov    %esi,-0x20(%ebp)
    4852:	89 7d e4             	mov    %edi,-0x1c(%ebp)
    4855:	80 fa 19             	cmp    $0x19,%dl
    4858:	76 9e                	jbe    47f8 <str_uint+0xc8>
    485a:	8d 50 bf             	lea    -0x41(%eax),%edx
    485d:	80 fa 19             	cmp    $0x19,%dl
    4860:	77 56                	ja     48b8 <str_uint+0x188>
    4862:	0f be f0             	movsbl %al,%esi
    4865:	83 ee 37             	sub    $0x37,%esi
    4868:	39 f1                	cmp    %esi,%ecx
    486a:	77 96                	ja     4802 <str_uint+0xd2>
    486c:	8d 74 26 00          	lea    0x0(%esi,%eiz,1),%esi
    4870:	89 da                	mov    %ebx,%edx
    4872:	8b 5d d4             	mov    -0x2c(%ebp),%ebx
    4875:	39 d3                	cmp    %edx,%ebx
    4877:	0f 84 97 00 00 00    	je     4914 <str_uint+0x1e4>
    487d:	8b 45 d8             	mov    -0x28(%ebp),%eax
    4880:	39 55 dc             	cmp    %edx,-0x24(%ebp)
    4883:	89 10                	mov    %edx,(%eax)
    4885:	0f 95 c0             	setne  %al
    4888:	25 ff 00 00 00       	and    $0xff,%eax
    488d:	83 c4 3c             	add    $0x3c,%esp
    4890:	48                   	dec    %eax
    4891:	5b                   	pop    %ebx
    4892:	83 e0 f2             	and    $0xfffffff2,%eax
    4895:	5e                   	pop    %esi
    4896:	5f                   	pop    %edi
    4897:	5d                   	pop    %ebp
    4898:	c3                   	ret    
    4899:	8d b4 26 00 00 00 00 	lea    0x0(%esi,%eiz,1),%esi
    48a0:	8b 3c 85 c0 e3 01 00 	mov    0x1e3c0(,%eax,4),%edi
    48a7:	85 ff                	test   %edi,%edi
    48a9:	0f 85 d9 fe ff ff    	jne    4788 <str_uint+0x58>
    48af:	e9 e6 fe ff ff       	jmp    479a <str_uint+0x6a>
    48b4:	8d 74 26 00          	lea    0x0(%esi,%eiz,1),%esi
    48b8:	8d 50 d0             	lea    -0x30(%eax),%edx
    48bb:	80 fa 09             	cmp    $0x9,%dl
    48be:	77 b0                	ja     4870 <str_uint+0x140>
    48c0:	0f be f0             	movsbl %al,%esi
    48c3:	83 ee 30             	sub    $0x30,%esi
    48c6:	e9 33 ff ff ff       	jmp    47fe <str_uint+0xce>
    48cb:	90                   	nop
    48cc:	8d 74 26 00          	lea    0x0(%esi,%eiz,1),%esi
    48d0:	8d 41 fe             	lea    -0x2(%ecx),%eax
    48d3:	83 f8 22             	cmp    $0x22,%eax
    48d6:	0f 86 e7 fe ff ff    	jbe    47c3 <str_uint+0x93>
    48dc:	8b 55 d8             	mov    -0x28(%ebp),%edx
    48df:	b8 f2 ff ff ff       	mov    $0xfffffff2,%eax
    48e4:	89 1a                	mov    %ebx,(%edx)
    48e6:	e9 4b ff ff ff       	jmp    4836 <str_uint+0x106>
    48eb:	90                   	nop
    48ec:	8d 74 26 00          	lea    0x0(%esi,%eiz,1),%esi
    48f0:	c6 06 01             	movb   $0x1,(%esi)
    48f3:	43                   	inc    %ebx
    48f4:	e9 b7 fe ff ff       	jmp    47b0 <str_uint+0x80>
    48f9:	8d b4 26 00 00 00 00 	lea    0x0(%esi,%eiz,1),%esi
    4900:	8a 43 01             	mov    0x1(%ebx),%al
    4903:	83 e8 42             	sub    $0x42,%eax
    4906:	3c 36                	cmp    $0x36,%al
    4908:	76 1f                	jbe    4929 <str_uint+0x1f9>
    490a:	b9 08 00 00 00       	mov    $0x8,%ecx
    490f:	e9 af fe ff ff       	jmp    47c3 <str_uint+0x93>
    4914:	8b 55 d8             	mov    -0x28(%ebp),%edx
    4917:	8b 45 dc             	mov    -0x24(%ebp),%eax
    491a:	89 02                	mov    %eax,(%edx)
    491c:	83 c4 3c             	add    $0x3c,%esp
    491f:	b8 f2 ff ff ff       	mov    $0xfffffff2,%eax
    4924:	5b                   	pop    %ebx
    4925:	5e                   	pop    %esi
    4926:	5f                   	pop    %edi
    4927:	5d                   	pop    %ebp
    4928:	c3                   	ret    
    4929:	25 ff 00 00 00       	and    $0xff,%eax
    492e:	ff 24 85 e0 e2 01 00 	jmp    *0x1e2e0(,%eax,4)
    4935:	83 c3 02             	add    $0x2,%ebx
    4938:	b9 10 00 00 00       	mov    $0x10,%ecx
    493d:	e9 81 fe ff ff       	jmp    47c3 <str_uint+0x93>
    4942:	83 c3 02             	add    $0x2,%ebx
    4945:	b9 08 00 00 00       	mov    $0x8,%ecx
    494a:	e9 74 fe ff ff       	jmp    47c3 <str_uint+0x93>
    494f:	83 c3 02             	add    $0x2,%ebx
    4952:	b9 0a 00 00 00       	mov    $0xa,%ecx
    4957:	e9 67 fe ff ff       	jmp    47c3 <str_uint+0x93>
    495c:	83 c3 02             	add    $0x2,%ebx
    495f:	b9 02 00 00 00       	mov    $0x2,%ecx
    4964:	e9 5a fe ff ff       	jmp    47c3 <str_uint+0x93>
    4969:	8b 5d dc             	mov    -0x24(%ebp),%ebx
    496c:	e9 29 fe ff ff       	jmp    479a <str_uint+0x6a>
    4971:	c7 44 24 08 82 05 00 	movl   $0x582,0x8(%esp)
    4978:	00 
    4979:	c7 44 24 04 7e e2 01 	movl   $0x1e27e,0x4(%esp)
    4980:	00 
    4981:	c7 04 24 a7 e2 01 00 	movl   $0x1e2a7,(%esp)
    4988:	e8 93 6a 01 00       	call   1b420 <assert_abort>
    498d:	c7 44 24 08 81 05 00 	movl   $0x581,0x8(%esp)
    4994:	00 
    4995:	c7 44 24 04 7e e2 01 	movl   $0x1e27e,0x4(%esp)
    499c:	00 
    499d:	c7 04 24 9b e2 01 00 	movl   $0x1e29b,(%esp)
    49a4:	e8 77 6a 01 00       	call   1b420 <assert_abort>
    49a9:	c7 44 24 08 80 05 00 	movl   $0x580,0x8(%esp)
    49b0:	00 
    49b1:	c7 44 24 04 7e e2 01 	movl   $0x1e27e,0x4(%esp)
    49b8:	00 
    49b9:	c7 04 24 8c e2 01 00 	movl   $0x1e28c,(%esp)
    49c0:	e8 5b 6a 01 00       	call   1b420 <assert_abort>
    49c5:	8d 74 26 00          	lea    0x0(%esi,%eiz,1),%esi
    49c9:	8d bc 27 00 00 00 00 	lea    0x0(%edi,%eiz,1),%edi

000049d0 <str_decode>:
    49d0:	55                   	push   %ebp
    49d1:	89 e5                	mov    %esp,%ebp
    49d3:	57                   	push   %edi
    49d4:	56                   	push   %esi
    49d5:	53                   	push   %ebx
    49d6:	83 ec 0c             	sub    $0xc,%esp
    49d9:	8b 45 0c             	mov    0xc(%ebp),%eax
    49dc:	8b 7d 08             	mov    0x8(%ebp),%edi
    49df:	8b 10                	mov    (%eax),%edx
    49e1:	31 c0                	xor    %eax,%eax
    49e3:	8d 4a 01             	lea    0x1(%edx),%ecx
    49e6:	3b 4d 10             	cmp    0x10(%ebp),%ecx
    49e9:	77 0d                	ja     49f8 <str_decode+0x28>
    49eb:	0f be 04 17          	movsbl (%edi,%edx,1),%eax
    49ef:	8b 5d 0c             	mov    0xc(%ebp),%ebx
    49f2:	84 c0                	test   %al,%al
    49f4:	89 0b                	mov    %ecx,(%ebx)
    49f6:	78 08                	js     4a00 <str_decode+0x30>
    49f8:	83 c4 0c             	add    $0xc,%esp
    49fb:	5b                   	pop    %ebx
    49fc:	5e                   	pop    %esi
    49fd:	5f                   	pop    %edi
    49fe:	5d                   	pop    %ebp
    49ff:	c3                   	ret    
    4a00:	be e0 ff ff ff       	mov    $0xffffffe0,%esi
    4a05:	21 c6                	and    %eax,%esi
    4a07:	89 f3                	mov    %esi,%ebx
    4a09:	80 fb c0             	cmp    $0xc0,%bl
    4a0c:	74 32                	je     4a40 <str_decode+0x70>
    4a0e:	be f0 ff ff ff       	mov    $0xfffffff0,%esi
    4a13:	21 c6                	and    %eax,%esi
    4a15:	89 f3                	mov    %esi,%ebx
    4a17:	80 fb e0             	cmp    $0xe0,%bl
    4a1a:	0f 84 90 00 00 00    	je     4ab0 <str_decode+0xe0>
    4a20:	be f8 ff ff ff       	mov    $0xfffffff8,%esi
    4a25:	21 c6                	and    %eax,%esi
    4a27:	89 f3                	mov    %esi,%ebx
    4a29:	80 fb f0             	cmp    $0xf0,%bl
    4a2c:	0f 84 87 00 00 00    	je     4ab9 <str_decode+0xe9>
    4a32:	83 c4 0c             	add    $0xc,%esp
    4a35:	b8 3f 00 00 00       	mov    $0x3f,%eax
    4a3a:	5b                   	pop    %ebx
    4a3b:	5e                   	pop    %esi
    4a3c:	5f                   	pop    %edi
    4a3d:	5d                   	pop    %ebp
    4a3e:	c3                   	ret    
    4a3f:	90                   	nop
    4a40:	b3 1f                	mov    $0x1f,%bl
    4a42:	be 01 00 00 00       	mov    $0x1,%esi
    4a47:	01 f1                	add    %esi,%ecx
    4a49:	89 4d f0             	mov    %ecx,-0x10(%ebp)
    4a4c:	39 4d 10             	cmp    %ecx,0x10(%ebp)
    4a4f:	72 e1                	jb     4a32 <str_decode+0x62>
    4a51:	21 d8                	and    %ebx,%eax
    4a53:	8a 4c 17 01          	mov    0x1(%edi,%edx,1),%cl
    4a57:	8b 5d 0c             	mov    0xc(%ebp),%ebx
    4a5a:	be c0 ff ff ff       	mov    $0xffffffc0,%esi
    4a5f:	83 c2 02             	add    $0x2,%edx
    4a62:	21 ce                	and    %ecx,%esi
    4a64:	89 13                	mov    %edx,(%ebx)
    4a66:	89 f3                	mov    %esi,%ebx
    4a68:	25 ff 00 00 00       	and    $0xff,%eax
    4a6d:	80 fb 80             	cmp    $0x80,%bl
    4a70:	75 c0                	jne    4a32 <str_decode+0x62>
    4a72:	8b 5d 0c             	mov    0xc(%ebp),%ebx
    4a75:	89 5d e8             	mov    %ebx,-0x18(%ebp)
    4a78:	eb 1d                	jmp    4a97 <str_decode+0xc7>
    4a7a:	8d b6 00 00 00 00    	lea    0x0(%esi),%esi
    4a80:	8a 0c 17             	mov    (%edi,%edx,1),%cl
    4a83:	8b 5d e8             	mov    -0x18(%ebp),%ebx
    4a86:	be c0 ff ff ff       	mov    $0xffffffc0,%esi
    4a8b:	42                   	inc    %edx
    4a8c:	21 ce                	and    %ecx,%esi
    4a8e:	89 13                	mov    %edx,(%ebx)
    4a90:	89 f3                	mov    %esi,%ebx
    4a92:	80 fb 80             	cmp    $0x80,%bl
    4a95:	75 9b                	jne    4a32 <str_decode+0x62>
    4a97:	89 c6                	mov    %eax,%esi
    4a99:	89 c8                	mov    %ecx,%eax
    4a9b:	c1 e6 06             	shl    $0x6,%esi
    4a9e:	83 e0 3f             	and    $0x3f,%eax
    4aa1:	09 f0                	or     %esi,%eax
    4aa3:	39 55 f0             	cmp    %edx,-0x10(%ebp)
    4aa6:	75 d8                	jne    4a80 <str_decode+0xb0>
    4aa8:	e9 4b ff ff ff       	jmp    49f8 <str_decode+0x28>
    4aad:	8d 76 00             	lea    0x0(%esi),%esi
    4ab0:	b3 0f                	mov    $0xf,%bl
    4ab2:	be 02 00 00 00       	mov    $0x2,%esi
    4ab7:	eb 8e                	jmp    4a47 <str_decode+0x77>
    4ab9:	b3 07                	mov    $0x7,%bl
    4abb:	be 03 00 00 00       	mov    $0x3,%esi
    4ac0:	eb 85                	jmp    4a47 <str_decode+0x77>
    4ac2:	8d b4 26 00 00 00 00 	lea    0x0(%esi,%eiz,1),%esi
    4ac9:	8d bc 27 00 00 00 00 	lea    0x0(%edi,%eiz,1),%edi

00004ad0 <str_decode_reverse>:
    4ad0:	55                   	push   %ebp
    4ad1:	89 e5                	mov    %esp,%ebp
    4ad3:	57                   	push   %edi
    4ad4:	56                   	push   %esi
    4ad5:	53                   	push   %ebx
    4ad6:	50                   	push   %eax
    4ad7:	31 c0                	xor    %eax,%eax
    4ad9:	8b 7d 0c             	mov    0xc(%ebp),%edi
    4adc:	8b 1f                	mov    (%edi),%ebx
    4ade:	85 db                	test   %ebx,%ebx
    4ae0:	0f 84 24 01 00 00    	je     4c0a <str_decode_reverse+0x13a>
    4ae6:	8d 73 ff             	lea    -0x1(%ebx),%esi
    4ae9:	8b 55 08             	mov    0x8(%ebp),%edx
    4aec:	89 37                	mov    %esi,(%edi)
    4aee:	8a 14 32             	mov    (%edx,%esi,1),%dl
    4af1:	88 55 f1             	mov    %dl,-0xf(%ebp)
    4af4:	84 d2                	test   %dl,%dl
    4af6:	0f 89 c4 01 00 00    	jns    4cc0 <str_decode_reverse+0x1f0>
    4afc:	88 d1                	mov    %dl,%cl
    4afe:	83 e1 e0             	and    $0xffffffe0,%ecx
    4b01:	88 4d f2             	mov    %cl,-0xe(%ebp)
    4b04:	80 f9 c0             	cmp    $0xc0,%cl
    4b07:	0f 84 d8 01 00 00    	je     4ce5 <str_decode_reverse+0x215>
    4b0d:	88 d1                	mov    %dl,%cl
    4b0f:	83 e1 f0             	and    $0xfffffff0,%ecx
    4b12:	80 f9 e0             	cmp    $0xe0,%cl
    4b15:	0f 84 f1 01 00 00    	je     4d0c <str_decode_reverse+0x23c>
    4b1b:	88 d0                	mov    %dl,%al
    4b1d:	83 e0 f8             	and    $0xfffffff8,%eax
    4b20:	3c f0                	cmp    $0xf0,%al
    4b22:	0f 84 ee 00 00 00    	je     4c16 <str_decode_reverse+0x146>
    4b28:	88 d1                	mov    %dl,%cl
    4b2a:	83 e1 c0             	and    $0xffffffc0,%ecx
    4b2d:	80 f9 80             	cmp    $0x80,%cl
    4b30:	0f 85 cf 00 00 00    	jne    4c05 <str_decode_reverse+0x135>
    4b36:	85 f6                	test   %esi,%esi
    4b38:	0f 84 c7 00 00 00    	je     4c05 <str_decode_reverse+0x135>
    4b3e:	8d 43 fe             	lea    -0x2(%ebx),%eax
    4b41:	8b 4d 08             	mov    0x8(%ebp),%ecx
    4b44:	89 07                	mov    %eax,(%edi)
    4b46:	8a 14 01             	mov    (%ecx,%eax,1),%dl
    4b49:	88 d1                	mov    %dl,%cl
    4b4b:	88 55 f1             	mov    %dl,-0xf(%ebp)
    4b4e:	83 e1 e0             	and    $0xffffffe0,%ecx
    4b51:	88 4d f2             	mov    %cl,-0xe(%ebp)
    4b54:	80 f9 c0             	cmp    $0xc0,%cl
    4b57:	0f 84 b3 00 00 00    	je     4c10 <str_decode_reverse+0x140>
    4b5d:	88 d1                	mov    %dl,%cl
    4b5f:	83 e1 f0             	and    $0xfffffff0,%ecx
    4b62:	80 f9 e0             	cmp    $0xe0,%cl
    4b65:	0f 84 65 01 00 00    	je     4cd0 <str_decode_reverse+0x200>
    4b6b:	88 d1                	mov    %dl,%cl
    4b6d:	83 e1 f8             	and    $0xfffffff8,%ecx
    4b70:	80 f9 f0             	cmp    $0xf0,%cl
    4b73:	0f 84 57 01 00 00    	je     4cd0 <str_decode_reverse+0x200>
    4b79:	83 e2 c0             	and    $0xffffffc0,%edx
    4b7c:	80 fa 80             	cmp    $0x80,%dl
    4b7f:	0f 85 80 00 00 00    	jne    4c05 <str_decode_reverse+0x135>
    4b85:	85 c0                	test   %eax,%eax
    4b87:	74 7c                	je     4c05 <str_decode_reverse+0x135>
    4b89:	8d 73 fd             	lea    -0x3(%ebx),%esi
    4b8c:	8b 4d 08             	mov    0x8(%ebp),%ecx
    4b8f:	89 37                	mov    %esi,(%edi)
    4b91:	8a 14 31             	mov    (%ecx,%esi,1),%dl
    4b94:	88 d1                	mov    %dl,%cl
    4b96:	88 55 f1             	mov    %dl,-0xf(%ebp)
    4b99:	83 e1 e0             	and    $0xffffffe0,%ecx
    4b9c:	88 4d f2             	mov    %cl,-0xe(%ebp)
    4b9f:	80 f9 c0             	cmp    $0xc0,%cl
    4ba2:	0f 84 36 01 00 00    	je     4cde <str_decode_reverse+0x20e>
    4ba8:	88 d1                	mov    %dl,%cl
    4baa:	83 e1 f0             	and    $0xfffffff0,%ecx
    4bad:	80 f9 e0             	cmp    $0xe0,%cl
    4bb0:	0f 84 21 01 00 00    	je     4cd7 <str_decode_reverse+0x207>
    4bb6:	88 d1                	mov    %dl,%cl
    4bb8:	83 e1 f8             	and    $0xfffffff8,%ecx
    4bbb:	80 f9 f0             	cmp    $0xf0,%cl
    4bbe:	0f 84 13 01 00 00    	je     4cd7 <str_decode_reverse+0x207>
    4bc4:	83 e2 c0             	and    $0xffffffc0,%edx
    4bc7:	80 fa 80             	cmp    $0x80,%dl
    4bca:	75 39                	jne    4c05 <str_decode_reverse+0x135>
    4bcc:	85 f6                	test   %esi,%esi
    4bce:	74 35                	je     4c05 <str_decode_reverse+0x135>
    4bd0:	83 eb 04             	sub    $0x4,%ebx
    4bd3:	8b 45 08             	mov    0x8(%ebp),%eax
    4bd6:	89 1f                	mov    %ebx,(%edi)
    4bd8:	8a 14 18             	mov    (%eax,%ebx,1),%dl
    4bdb:	88 d1                	mov    %dl,%cl
    4bdd:	88 55 f1             	mov    %dl,-0xf(%ebp)
    4be0:	83 e1 e0             	and    $0xffffffe0,%ecx
    4be3:	88 4d f2             	mov    %cl,-0xe(%ebp)
    4be6:	80 f9 c0             	cmp    $0xc0,%cl
    4be9:	74 25                	je     4c10 <str_decode_reverse+0x140>
    4beb:	88 d0                	mov    %dl,%al
    4bed:	83 e0 f0             	and    $0xfffffff0,%eax
    4bf0:	3c e0                	cmp    $0xe0,%al
    4bf2:	0f 84 d8 00 00 00    	je     4cd0 <str_decode_reverse+0x200>
    4bf8:	88 d0                	mov    %dl,%al
    4bfa:	83 e0 f8             	and    $0xfffffff8,%eax
    4bfd:	3c f0                	cmp    $0xf0,%al
    4bff:	0f 84 cb 00 00 00    	je     4cd0 <str_decode_reverse+0x200>
    4c05:	b8 3f 00 00 00       	mov    $0x3f,%eax
    4c0a:	5a                   	pop    %edx
    4c0b:	5b                   	pop    %ebx
    4c0c:	5e                   	pop    %esi
    4c0d:	5f                   	pop    %edi
    4c0e:	5d                   	pop    %ebp
    4c0f:	c3                   	ret    
    4c10:	89 f3                	mov    %esi,%ebx
    4c12:	c6 45 f2 c0          	movb   $0xc0,-0xe(%ebp)
    4c16:	31 c0                	xor    %eax,%eax
    4c18:	39 5d 10             	cmp    %ebx,0x10(%ebp)
    4c1b:	72 ed                	jb     4c0a <str_decode_reverse+0x13a>
    4c1d:	84 d2                	test   %dl,%dl
    4c1f:	78 69                	js     4c8a <str_decode_reverse+0x1ba>
    4c21:	bf 7f 00 00 00       	mov    $0x7f,%edi
    4c26:	31 d2                	xor    %edx,%edx
    4c28:	8d 34 1a             	lea    (%edx,%ebx,1),%esi
    4c2b:	b8 3f 00 00 00       	mov    $0x3f,%eax
    4c30:	39 75 10             	cmp    %esi,0x10(%ebp)
    4c33:	72 d5                	jb     4c0a <str_decode_reverse+0x13a>
    4c35:	8a 4d f1             	mov    -0xf(%ebp),%cl
    4c38:	31 c0                	xor    %eax,%eax
    4c3a:	21 f9                	and    %edi,%ecx
    4c3c:	85 d2                	test   %edx,%edx
    4c3e:	88 c8                	mov    %cl,%al
    4c40:	74 c8                	je     4c0a <str_decode_reverse+0x13a>
    4c42:	8b 4d 08             	mov    0x8(%ebp),%ecx
    4c45:	8d 73 01             	lea    0x1(%ebx),%esi
    4c48:	8a 0c 19             	mov    (%ecx,%ebx,1),%cl
    4c4b:	88 4d f3             	mov    %cl,-0xd(%ebp)
    4c4e:	83 e1 c0             	and    $0xffffffc0,%ecx
    4c51:	80 f9 80             	cmp    $0x80,%cl
    4c54:	75 af                	jne    4c05 <str_decode_reverse+0x135>
    4c56:	8b 7d 08             	mov    0x8(%ebp),%edi
    4c59:	8b 4d 08             	mov    0x8(%ebp),%ecx
    4c5c:	01 fb                	add    %edi,%ebx
    4c5e:	01 ce                	add    %ecx,%esi
    4c60:	01 da                	add    %ebx,%edx
    4c62:	8a 4d f3             	mov    -0xd(%ebp),%cl
    4c65:	eb 0e                	jmp    4c75 <str_decode_reverse+0x1a5>
    4c67:	90                   	nop
    4c68:	8a 0e                	mov    (%esi),%cl
    4c6a:	46                   	inc    %esi
    4c6b:	88 cb                	mov    %cl,%bl
    4c6d:	83 e3 c0             	and    $0xffffffc0,%ebx
    4c70:	80 fb 80             	cmp    $0x80,%bl
    4c73:	75 90                	jne    4c05 <str_decode_reverse+0x135>
    4c75:	89 c3                	mov    %eax,%ebx
    4c77:	89 c8                	mov    %ecx,%eax
    4c79:	c1 e3 06             	shl    $0x6,%ebx
    4c7c:	83 e0 3f             	and    $0x3f,%eax
    4c7f:	09 d8                	or     %ebx,%eax
    4c81:	39 d6                	cmp    %edx,%esi
    4c83:	75 e3                	jne    4c68 <str_decode_reverse+0x198>
    4c85:	e9 80 ff ff ff       	jmp    4c0a <str_decode_reverse+0x13a>
    4c8a:	80 7d f2 c0          	cmpb   $0xc0,-0xe(%ebp)
    4c8e:	74 5e                	je     4cee <str_decode_reverse+0x21e>
    4c90:	8a 45 f1             	mov    -0xf(%ebp),%al
    4c93:	83 e0 f0             	and    $0xfffffff0,%eax
    4c96:	3c e0                	cmp    $0xe0,%al
    4c98:	74 63                	je     4cfd <str_decode_reverse+0x22d>
    4c9a:	8a 55 f1             	mov    -0xf(%ebp),%dl
    4c9d:	b8 3f 00 00 00       	mov    $0x3f,%eax
    4ca2:	83 e2 f8             	and    $0xfffffff8,%edx
    4ca5:	80 fa f0             	cmp    $0xf0,%dl
    4ca8:	0f 85 5c ff ff ff    	jne    4c0a <str_decode_reverse+0x13a>
    4cae:	bf 07 00 00 00       	mov    $0x7,%edi
    4cb3:	ba 03 00 00 00       	mov    $0x3,%edx
    4cb8:	e9 6b ff ff ff       	jmp    4c28 <str_decode_reverse+0x158>
    4cbd:	8d 76 00             	lea    0x0(%esi),%esi
    4cc0:	0f be 45 f1          	movsbl -0xf(%ebp),%eax
    4cc4:	e9 41 ff ff ff       	jmp    4c0a <str_decode_reverse+0x13a>
    4cc9:	8d b4 26 00 00 00 00 	lea    0x0(%esi,%eiz,1),%esi
    4cd0:	89 f3                	mov    %esi,%ebx
    4cd2:	e9 3f ff ff ff       	jmp    4c16 <str_decode_reverse+0x146>
    4cd7:	89 c3                	mov    %eax,%ebx
    4cd9:	e9 38 ff ff ff       	jmp    4c16 <str_decode_reverse+0x146>
    4cde:	89 c3                	mov    %eax,%ebx
    4ce0:	e9 2d ff ff ff       	jmp    4c12 <str_decode_reverse+0x142>
    4ce5:	3b 5d 10             	cmp    0x10(%ebp),%ebx
    4ce8:	0f 87 1c ff ff ff    	ja     4c0a <str_decode_reverse+0x13a>
    4cee:	bf 1f 00 00 00       	mov    $0x1f,%edi
    4cf3:	ba 01 00 00 00       	mov    $0x1,%edx
    4cf8:	e9 2b ff ff ff       	jmp    4c28 <str_decode_reverse+0x158>
    4cfd:	bf 0f 00 00 00       	mov    $0xf,%edi
    4d02:	ba 02 00 00 00       	mov    $0x2,%edx
    4d07:	e9 1c ff ff ff       	jmp    4c28 <str_decode_reverse+0x158>
    4d0c:	3b 5d 10             	cmp    0x10(%ebp),%ebx
    4d0f:	0f 86 7b ff ff ff    	jbe    4c90 <str_decode_reverse+0x1c0>
    4d15:	e9 f0 fe ff ff       	jmp    4c0a <str_decode_reverse+0x13a>
    4d1a:	8d b6 00 00 00 00    	lea    0x0(%esi),%esi

00004d20 <chr_encode>:
    4d20:	55                   	push   %ebp
    4d21:	89 e5                	mov    %esp,%ebp
    4d23:	57                   	push   %edi
    4d24:	56                   	push   %esi
    4d25:	53                   	push   %ebx
    4d26:	83 ec 24             	sub    $0x24,%esp
    4d29:	8b 7d 10             	mov    0x10(%ebp),%edi
    4d2c:	8b 1f                	mov    (%edi),%ebx
    4d2e:	3b 5d 14             	cmp    0x14(%ebp),%ebx
    4d31:	0f 83 c5 00 00 00    	jae    4dfc <chr_encode+0xdc>
    4d37:	8b 4d 08             	mov    0x8(%ebp),%ecx
    4d3a:	b8 f2 ff ff ff       	mov    $0xfffffff2,%eax
    4d3f:	81 f9 ff ff 10 00    	cmp    $0x10ffff,%ecx
    4d45:	77 34                	ja     4d7b <chr_encode+0x5b>
    4d47:	f7 c1 80 ff ff ff    	test   $0xffffff80,%ecx
    4d4d:	75 39                	jne    4d88 <chr_encode+0x68>
    4d4f:	c6 45 d0 00          	movb   $0x0,-0x30(%ebp)
    4d53:	c6 45 e0 7f          	movb   $0x7f,-0x20(%ebp)
    4d57:	c7 45 f0 00 00 00 00 	movl   $0x0,-0x10(%ebp)
    4d5e:	8b 45 e0             	mov    -0x20(%ebp),%eax
    4d61:	8b 55 0c             	mov    0xc(%ebp),%edx
    4d64:	21 c1                	and    %eax,%ecx
    4d66:	8b 45 d0             	mov    -0x30(%ebp),%eax
    4d69:	09 c1                	or     %eax,%ecx
    4d6b:	88 0c 1a             	mov    %cl,(%edx,%ebx,1)
    4d6e:	8b 55 f0             	mov    -0x10(%ebp),%edx
    4d71:	8b 07                	mov    (%edi),%eax
    4d73:	8d 44 02 01          	lea    0x1(%edx,%eax,1),%eax
    4d77:	89 07                	mov    %eax,(%edi)
    4d79:	31 c0                	xor    %eax,%eax
    4d7b:	83 c4 24             	add    $0x24,%esp
    4d7e:	5b                   	pop    %ebx
    4d7f:	5e                   	pop    %esi
    4d80:	5f                   	pop    %edi
    4d81:	5d                   	pop    %ebp
    4d82:	c3                   	ret    
    4d83:	90                   	nop
    4d84:	8d 74 26 00          	lea    0x0(%esi,%eiz,1),%esi
    4d88:	f7 c1 00 f8 ff ff    	test   $0xfffff800,%ecx
    4d8e:	74 58                	je     4de8 <chr_encode+0xc8>
    4d90:	89 c8                	mov    %ecx,%eax
    4d92:	25 00 00 ff ff       	and    $0xffff0000,%eax
    4d97:	83 f8 01             	cmp    $0x1,%eax
    4d9a:	19 d2                	sbb    %edx,%edx
    4d9c:	83 e2 f0             	and    $0xfffffff0,%edx
    4d9f:	83 ea 10             	sub    $0x10,%edx
    4da2:	83 f8 01             	cmp    $0x1,%eax
    4da5:	88 55 d0             	mov    %dl,-0x30(%ebp)
    4da8:	19 d2                	sbb    %edx,%edx
    4daa:	83 e2 08             	and    $0x8,%edx
    4dad:	83 c2 07             	add    $0x7,%edx
    4db0:	83 f8 01             	cmp    $0x1,%eax
    4db3:	19 c0                	sbb    %eax,%eax
    4db5:	88 55 e0             	mov    %dl,-0x20(%ebp)
    4db8:	83 c0 03             	add    $0x3,%eax
    4dbb:	89 45 f0             	mov    %eax,-0x10(%ebp)
    4dbe:	01 d8                	add    %ebx,%eax
    4dc0:	39 45 14             	cmp    %eax,0x14(%ebp)
    4dc3:	76 37                	jbe    4dfc <chr_encode+0xdc>
    4dc5:	8b 45 f0             	mov    -0x10(%ebp),%eax
    4dc8:	89 ca                	mov    %ecx,%edx
    4dca:	8b 75 0c             	mov    0xc(%ebp),%esi
    4dcd:	01 c6                	add    %eax,%esi
    4dcf:	83 e2 3f             	and    $0x3f,%edx
    4dd2:	c1 e9 06             	shr    $0x6,%ecx
    4dd5:	80 ca 80             	or     $0x80,%dl
    4dd8:	88 14 1e             	mov    %dl,(%esi,%ebx,1)
    4ddb:	48                   	dec    %eax
    4ddc:	8b 1f                	mov    (%edi),%ebx
    4dde:	75 e8                	jne    4dc8 <chr_encode+0xa8>
    4de0:	e9 79 ff ff ff       	jmp    4d5e <chr_encode+0x3e>
    4de5:	8d 76 00             	lea    0x0(%esi),%esi
    4de8:	c7 45 f0 01 00 00 00 	movl   $0x1,-0x10(%ebp)
    4def:	c6 45 d0 c0          	movb   $0xc0,-0x30(%ebp)
    4df3:	c6 45 e0 1f          	movb   $0x1f,-0x20(%ebp)
    4df7:	8b 45 f0             	mov    -0x10(%ebp),%eax
    4dfa:	eb c2                	jmp    4dbe <chr_encode+0x9e>
    4dfc:	b8 f0 ff ff ff       	mov    $0xfffffff0,%eax
    4e01:	e9 75 ff ff ff       	jmp    4d7b <chr_encode+0x5b>
    4e06:	8d 76 00             	lea    0x0(%esi),%esi
    4e09:	8d bc 27 00 00 00 00 	lea    0x0(%edi,%eiz,1),%edi

00004e10 <str_size>:
    4e10:	55                   	push   %ebp
    4e11:	31 c0                	xor    %eax,%eax
    4e13:	89 e5                	mov    %esp,%ebp
    4e15:	8b 55 08             	mov    0x8(%ebp),%edx
    4e18:	80 3a 00             	cmpb   $0x0,(%edx)
    4e1b:	74 0a                	je     4e27 <str_size+0x17>
    4e1d:	8d 76 00             	lea    0x0(%esi),%esi
    4e20:	40                   	inc    %eax
    4e21:	80 3c 02 00          	cmpb   $0x0,(%edx,%eax,1)
    4e25:	75 f9                	jne    4e20 <str_size+0x10>
    4e27:	5d                   	pop    %ebp
    4e28:	c3                   	ret    
    4e29:	8d b4 26 00 00 00 00 	lea    0x0(%esi,%eiz,1),%esi

00004e30 <wstr_size>:
    4e30:	55                   	push   %ebp
    4e31:	31 c0                	xor    %eax,%eax
    4e33:	89 e5                	mov    %esp,%ebp
    4e35:	8b 55 08             	mov    0x8(%ebp),%edx
    4e38:	8b 0a                	mov    (%edx),%ecx
    4e3a:	85 c9                	test   %ecx,%ecx
    4e3c:	74 0d                	je     4e4b <wstr_size+0x1b>
    4e3e:	66 90                	xchg   %ax,%ax
    4e40:	40                   	inc    %eax
    4e41:	8b 0c 82             	mov    (%edx,%eax,4),%ecx
    4e44:	85 c9                	test   %ecx,%ecx
    4e46:	75 f8                	jne    4e40 <wstr_size+0x10>
    4e48:	c1 e0 02             	shl    $0x2,%eax
    4e4b:	5d                   	pop    %ebp
    4e4c:	c3                   	ret    
    4e4d:	8d 76 00             	lea    0x0(%esi),%esi

00004e50 <str_lsize>:
    4e50:	55                   	push   %ebp
    4e51:	31 c0                	xor    %eax,%eax
    4e53:	89 e5                	mov    %esp,%ebp
    4e55:	57                   	push   %edi
    4e56:	56                   	push   %esi
    4e57:	53                   	push   %ebx
    4e58:	83 ec 0c             	sub    $0xc,%esp
    4e5b:	8b 7d 0c             	mov    0xc(%ebp),%edi
    4e5e:	8b 5d 08             	mov    0x8(%ebp),%ebx
    4e61:	85 ff                	test   %edi,%edi
    4e63:	74 5b                	je     4ec0 <str_lsize+0x70>
    4e65:	c7 45 f0 00 00 00 00 	movl   $0x0,-0x10(%ebp)
    4e6c:	eb 17                	jmp    4e85 <str_lsize+0x35>
    4e6e:	66 90                	xchg   %ax,%ax
    4e70:	89 f8                	mov    %edi,%eax
    4e72:	85 d2                	test   %edx,%edx
    4e74:	74 4a                	je     4ec0 <str_lsize+0x70>
    4e76:	8b 75 f0             	mov    -0x10(%ebp),%esi
    4e79:	8b 55 0c             	mov    0xc(%ebp),%edx
    4e7c:	46                   	inc    %esi
    4e7d:	89 75 f0             	mov    %esi,-0x10(%ebp)
    4e80:	39 55 f0             	cmp    %edx,-0x10(%ebp)
    4e83:	74 3b                	je     4ec0 <str_lsize+0x70>
    4e85:	0f be 14 03          	movsbl (%ebx,%eax,1),%edx
    4e89:	8d 78 01             	lea    0x1(%eax),%edi
    4e8c:	84 d2                	test   %dl,%dl
    4e8e:	79 e0                	jns    4e70 <str_lsize+0x20>
    4e90:	88 d1                	mov    %dl,%cl
    4e92:	83 e1 e0             	and    $0xffffffe0,%ecx
    4e95:	80 f9 c0             	cmp    $0xc0,%cl
    4e98:	74 2e                	je     4ec8 <str_lsize+0x78>
    4e9a:	88 d1                	mov    %dl,%cl
    4e9c:	83 e1 f0             	and    $0xfffffff0,%ecx
    4e9f:	80 f9 e0             	cmp    $0xe0,%cl
    4ea2:	74 7d                	je     4f21 <str_lsize+0xd1>
    4ea4:	88 d1                	mov    %dl,%cl
    4ea6:	83 e1 f8             	and    $0xfffffff8,%ecx
    4ea9:	80 f9 f0             	cmp    $0xf0,%cl
    4eac:	74 7c                	je     4f2a <str_lsize+0xda>
    4eae:	8b 75 f0             	mov    -0x10(%ebp),%esi
    4eb1:	8b 55 0c             	mov    0xc(%ebp),%edx
    4eb4:	46                   	inc    %esi
    4eb5:	89 f8                	mov    %edi,%eax
    4eb7:	89 75 f0             	mov    %esi,-0x10(%ebp)
    4eba:	39 55 f0             	cmp    %edx,-0x10(%ebp)
    4ebd:	75 c6                	jne    4e85 <str_lsize+0x35>
    4ebf:	90                   	nop
    4ec0:	83 c4 0c             	add    $0xc,%esp
    4ec3:	5b                   	pop    %ebx
    4ec4:	5e                   	pop    %esi
    4ec5:	5f                   	pop    %edi
    4ec6:	5d                   	pop    %ebp
    4ec7:	c3                   	ret    
    4ec8:	b1 1f                	mov    $0x1f,%cl
    4eca:	be 01 00 00 00       	mov    $0x1,%esi
    4ecf:	21 ca                	and    %ecx,%edx
    4ed1:	8a 0c 3b             	mov    (%ebx,%edi,1),%cl
    4ed4:	88 4d ee             	mov    %cl,-0x12(%ebp)
    4ed7:	83 e1 c0             	and    $0xffffffc0,%ecx
    4eda:	81 e2 ff 00 00 00    	and    $0xff,%edx
    4ee0:	83 c0 02             	add    $0x2,%eax
    4ee3:	80 f9 80             	cmp    $0x80,%cl
    4ee6:	75 8e                	jne    4e76 <str_lsize+0x26>
    4ee8:	01 f7                	add    %esi,%edi
    4eea:	8a 4d ee             	mov    -0x12(%ebp),%cl
    4eed:	89 5d e8             	mov    %ebx,-0x18(%ebp)
    4ef0:	89 d6                	mov    %edx,%esi
    4ef2:	89 ca                	mov    %ecx,%edx
    4ef4:	c1 e6 06             	shl    $0x6,%esi
    4ef7:	83 e2 3f             	and    $0x3f,%edx
    4efa:	09 f2                	or     %esi,%edx
    4efc:	8b 5d e8             	mov    -0x18(%ebp),%ebx
    4eff:	39 f8                	cmp    %edi,%eax
    4f01:	0f 84 6b ff ff ff    	je     4e72 <str_lsize+0x22>
    4f07:	8a 0c 03             	mov    (%ebx,%eax,1),%cl
    4f0a:	be c0 ff ff ff       	mov    $0xffffffc0,%esi
    4f0f:	21 ce                	and    %ecx,%esi
    4f11:	40                   	inc    %eax
    4f12:	89 f3                	mov    %esi,%ebx
    4f14:	80 fb 80             	cmp    $0x80,%bl
    4f17:	74 d7                	je     4ef0 <str_lsize+0xa0>
    4f19:	8b 5d e8             	mov    -0x18(%ebp),%ebx
    4f1c:	e9 55 ff ff ff       	jmp    4e76 <str_lsize+0x26>
    4f21:	b1 0f                	mov    $0xf,%cl
    4f23:	be 02 00 00 00       	mov    $0x2,%esi
    4f28:	eb a5                	jmp    4ecf <str_lsize+0x7f>
    4f2a:	b1 07                	mov    $0x7,%cl
    4f2c:	be 03 00 00 00       	mov    $0x3,%esi
    4f31:	eb 9c                	jmp    4ecf <str_lsize+0x7f>
    4f33:	8d b6 00 00 00 00    	lea    0x0(%esi),%esi
    4f39:	8d bc 27 00 00 00 00 	lea    0x0(%edi,%eiz,1),%edi

00004f40 <str_nsize>:
    4f40:	55                   	push   %ebp
    4f41:	31 c0                	xor    %eax,%eax
    4f43:	89 e5                	mov    %esp,%ebp
    4f45:	8b 55 08             	mov    0x8(%ebp),%edx
    4f48:	8b 4d 0c             	mov    0xc(%ebp),%ecx
    4f4b:	80 3a 00             	cmpb   $0x0,(%edx)
    4f4e:	74 13                	je     4f63 <str_nsize+0x23>
    4f50:	85 c9                	test   %ecx,%ecx
    4f52:	75 08                	jne    4f5c <str_nsize+0x1c>
    4f54:	eb 0d                	jmp    4f63 <str_nsize+0x23>
    4f56:	66 90                	xchg   %ax,%ax
    4f58:	39 c8                	cmp    %ecx,%eax
    4f5a:	74 07                	je     4f63 <str_nsize+0x23>
    4f5c:	40                   	inc    %eax
    4f5d:	80 3c 02 00          	cmpb   $0x0,(%edx,%eax,1)
    4f61:	75 f5                	jne    4f58 <str_nsize+0x18>
    4f63:	5d                   	pop    %ebp
    4f64:	c3                   	ret    
    4f65:	8d 74 26 00          	lea    0x0(%esi,%eiz,1),%esi
    4f69:	8d bc 27 00 00 00 00 	lea    0x0(%edi,%eiz,1),%edi

00004f70 <wstr_nsize>:
    4f70:	55                   	push   %ebp
    4f71:	89 e5                	mov    %esp,%ebp
    4f73:	53                   	push   %ebx
    4f74:	8b 5d 0c             	mov    0xc(%ebp),%ebx
    4f77:	8b 4d 08             	mov    0x8(%ebp),%ecx
    4f7a:	83 e3 fc             	and    $0xfffffffc,%ebx
    4f7d:	74 26                	je     4fa5 <wstr_nsize+0x35>
    4f7f:	8b 01                	mov    (%ecx),%eax
    4f81:	85 c0                	test   %eax,%eax
    4f83:	74 20                	je     4fa5 <wstr_nsize+0x35>
    4f85:	31 d2                	xor    %edx,%edx
    4f87:	eb 0d                	jmp    4f96 <wstr_nsize+0x26>
    4f89:	8d b4 26 00 00 00 00 	lea    0x0(%esi,%eiz,1),%esi
    4f90:	83 3c 91 00          	cmpl   $0x0,(%ecx,%edx,4)
    4f94:	74 0c                	je     4fa2 <wstr_nsize+0x32>
    4f96:	42                   	inc    %edx
    4f97:	8d 04 95 00 00 00 00 	lea    0x0(,%edx,4),%eax
    4f9e:	39 c3                	cmp    %eax,%ebx
    4fa0:	77 ee                	ja     4f90 <wstr_nsize+0x20>
    4fa2:	5b                   	pop    %ebx
    4fa3:	5d                   	pop    %ebp
    4fa4:	c3                   	ret    
    4fa5:	31 c0                	xor    %eax,%eax
    4fa7:	eb f9                	jmp    4fa2 <wstr_nsize+0x32>
    4fa9:	8d b4 26 00 00 00 00 	lea    0x0(%esi,%eiz,1),%esi

00004fb0 <wstr_lsize>:
    4fb0:	55                   	push   %ebp
    4fb1:	89 e5                	mov    %esp,%ebp
    4fb3:	53                   	push   %ebx
    4fb4:	8b 5d 0c             	mov    0xc(%ebp),%ebx
    4fb7:	8b 4d 08             	mov    0x8(%ebp),%ecx
    4fba:	c1 e3 02             	shl    $0x2,%ebx
    4fbd:	74 26                	je     4fe5 <wstr_lsize+0x35>
    4fbf:	8b 01                	mov    (%ecx),%eax
    4fc1:	85 c0                	test   %eax,%eax
    4fc3:	74 20                	je     4fe5 <wstr_lsize+0x35>
    4fc5:	31 d2                	xor    %edx,%edx
    4fc7:	eb 0d                	jmp    4fd6 <wstr_lsize+0x26>
    4fc9:	8d b4 26 00 00 00 00 	lea    0x0(%esi,%eiz,1),%esi
    4fd0:	83 3c 91 00          	cmpl   $0x0,(%ecx,%edx,4)
    4fd4:	74 0c                	je     4fe2 <wstr_lsize+0x32>
    4fd6:	42                   	inc    %edx
    4fd7:	8d 04 95 00 00 00 00 	lea    0x0(,%edx,4),%eax
    4fde:	39 c3                	cmp    %eax,%ebx
    4fe0:	77 ee                	ja     4fd0 <wstr_lsize+0x20>
    4fe2:	5b                   	pop    %ebx
    4fe3:	5d                   	pop    %ebp
    4fe4:	c3                   	ret    
    4fe5:	31 c0                	xor    %eax,%eax
    4fe7:	eb f9                	jmp    4fe2 <wstr_lsize+0x32>
    4fe9:	8d b4 26 00 00 00 00 	lea    0x0(%esi,%eiz,1),%esi

00004ff0 <str_length>:
    4ff0:	55                   	push   %ebp
    4ff1:	89 e5                	mov    %esp,%ebp
    4ff3:	57                   	push   %edi
    4ff4:	56                   	push   %esi
    4ff5:	53                   	push   %ebx
    4ff6:	83 ec 0c             	sub    $0xc,%esp
    4ff9:	31 ff                	xor    %edi,%edi
    4ffb:	8b 5d 08             	mov    0x8(%ebp),%ebx
    4ffe:	c7 45 f0 00 00 00 00 	movl   $0x0,-0x10(%ebp)
    5005:	eb 0e                	jmp    5015 <str_length+0x25>
    5007:	90                   	nop
    5008:	85 c0                	test   %eax,%eax
    500a:	74 3b                	je     5047 <str_length+0x57>
    500c:	89 d7                	mov    %edx,%edi
    500e:	8b 55 f0             	mov    -0x10(%ebp),%edx
    5011:	42                   	inc    %edx
    5012:	89 55 f0             	mov    %edx,-0x10(%ebp)
    5015:	0f be 04 3b          	movsbl (%ebx,%edi,1),%eax
    5019:	8d 57 01             	lea    0x1(%edi),%edx
    501c:	84 c0                	test   %al,%al
    501e:	79 e8                	jns    5008 <str_length+0x18>
    5020:	88 c1                	mov    %al,%cl
    5022:	83 e1 e0             	and    $0xffffffe0,%ecx
    5025:	80 f9 c0             	cmp    $0xc0,%cl
    5028:	74 28                	je     5052 <str_length+0x62>
    502a:	88 c1                	mov    %al,%cl
    502c:	83 e1 f0             	and    $0xfffffff0,%ecx
    502f:	80 f9 e0             	cmp    $0xe0,%cl
    5032:	74 7d                	je     50b1 <str_length+0xc1>
    5034:	88 c1                	mov    %al,%cl
    5036:	83 e1 f8             	and    $0xfffffff8,%ecx
    5039:	80 f9 f0             	cmp    $0xf0,%cl
    503c:	75 ce                	jne    500c <str_length+0x1c>
    503e:	b1 07                	mov    $0x7,%cl
    5040:	be 03 00 00 00       	mov    $0x3,%esi
    5045:	eb 12                	jmp    5059 <str_length+0x69>
    5047:	8b 45 f0             	mov    -0x10(%ebp),%eax
    504a:	83 c4 0c             	add    $0xc,%esp
    504d:	5b                   	pop    %ebx
    504e:	5e                   	pop    %esi
    504f:	5f                   	pop    %edi
    5050:	5d                   	pop    %ebp
    5051:	c3                   	ret    
    5052:	b1 1f                	mov    $0x1f,%cl
    5054:	be 01 00 00 00       	mov    $0x1,%esi
    5059:	21 c8                	and    %ecx,%eax
    505b:	8a 0c 13             	mov    (%ebx,%edx,1),%cl
    505e:	83 c7 02             	add    $0x2,%edi
    5061:	88 4d eb             	mov    %cl,-0x15(%ebp)
    5064:	83 e1 c0             	and    $0xffffffc0,%ecx
    5067:	25 ff 00 00 00       	and    $0xff,%eax
    506c:	89 7d ec             	mov    %edi,-0x14(%ebp)
    506f:	80 f9 80             	cmp    $0x80,%cl
    5072:	75 46                	jne    50ba <str_length+0xca>
    5074:	8d 3c 32             	lea    (%edx,%esi,1),%edi
    5077:	8a 4d eb             	mov    -0x15(%ebp),%cl
    507a:	8b 55 ec             	mov    -0x14(%ebp),%edx
    507d:	89 5d ec             	mov    %ebx,-0x14(%ebp)
    5080:	89 c6                	mov    %eax,%esi
    5082:	89 c8                	mov    %ecx,%eax
    5084:	c1 e6 06             	shl    $0x6,%esi
    5087:	83 e0 3f             	and    $0x3f,%eax
    508a:	09 f0                	or     %esi,%eax
    508c:	8b 5d ec             	mov    -0x14(%ebp),%ebx
    508f:	39 fa                	cmp    %edi,%edx
    5091:	0f 84 71 ff ff ff    	je     5008 <str_length+0x18>
    5097:	8a 0c 13             	mov    (%ebx,%edx,1),%cl
    509a:	be c0 ff ff ff       	mov    $0xffffffc0,%esi
    509f:	21 ce                	and    %ecx,%esi
    50a1:	42                   	inc    %edx
    50a2:	89 f3                	mov    %esi,%ebx
    50a4:	80 fb 80             	cmp    $0x80,%bl
    50a7:	74 d7                	je     5080 <str_length+0x90>
    50a9:	8b 5d ec             	mov    -0x14(%ebp),%ebx
    50ac:	e9 5b ff ff ff       	jmp    500c <str_length+0x1c>
    50b1:	b1 0f                	mov    $0xf,%cl
    50b3:	be 02 00 00 00       	mov    $0x2,%esi
    50b8:	eb 9f                	jmp    5059 <str_length+0x69>
    50ba:	89 fa                	mov    %edi,%edx
    50bc:	e9 4b ff ff ff       	jmp    500c <str_length+0x1c>
    50c1:	eb 0d                	jmp    50d0 <wstr_length>
    50c3:	90                   	nop
    50c4:	90                   	nop
    50c5:	90                   	nop
    50c6:	90                   	nop
    50c7:	90                   	nop
    50c8:	90                   	nop
    50c9:	90                   	nop
    50ca:	90                   	nop
    50cb:	90                   	nop
    50cc:	90                   	nop
    50cd:	90                   	nop
    50ce:	90                   	nop
    50cf:	90                   	nop

000050d0 <wstr_length>:
    50d0:	55                   	push   %ebp
    50d1:	31 c0                	xor    %eax,%eax
    50d3:	89 e5                	mov    %esp,%ebp
    50d5:	8b 55 08             	mov    0x8(%ebp),%edx
    50d8:	8b 0a                	mov    (%edx),%ecx
    50da:	85 c9                	test   %ecx,%ecx
    50dc:	74 0a                	je     50e8 <wstr_length+0x18>
    50de:	66 90                	xchg   %ax,%ax
    50e0:	40                   	inc    %eax
    50e1:	8b 0c 82             	mov    (%edx,%eax,4),%ecx
    50e4:	85 c9                	test   %ecx,%ecx
    50e6:	75 f8                	jne    50e0 <wstr_length+0x10>
    50e8:	5d                   	pop    %ebp
    50e9:	c3                   	ret    
    50ea:	8d b6 00 00 00 00    	lea    0x0(%esi),%esi

000050f0 <str_nlength>:
    50f0:	55                   	push   %ebp
    50f1:	89 e5                	mov    %esp,%ebp
    50f3:	57                   	push   %edi
    50f4:	56                   	push   %esi
    50f5:	53                   	push   %ebx
    50f6:	57                   	push   %edi
    50f7:	c7 45 f0 00 00 00 00 	movl   $0x0,-0x10(%ebp)
    50fe:	8b 45 0c             	mov    0xc(%ebp),%eax
    5101:	8b 7d 08             	mov    0x8(%ebp),%edi
    5104:	85 c0                	test   %eax,%eax
    5106:	74 2c                	je     5134 <str_nlength+0x44>
    5108:	bb 01 00 00 00       	mov    $0x1,%ebx
    510d:	31 c0                	xor    %eax,%eax
    510f:	90                   	nop
    5110:	8a 04 07             	mov    (%edi,%eax,1),%al
    5113:	84 c0                	test   %al,%al
    5115:	78 79                	js     5190 <str_nlength+0xa0>
    5117:	b2 7f                	mov    $0x7f,%dl
    5119:	31 c9                	xor    %ecx,%ecx
    511b:	8d 34 19             	lea    (%ecx,%ebx,1),%esi
    511e:	39 75 0c             	cmp    %esi,0xc(%ebp)
    5121:	73 1d                	jae    5140 <str_nlength+0x50>
    5123:	89 d8                	mov    %ebx,%eax
    5125:	8b 75 f0             	mov    -0x10(%ebp),%esi
    5128:	8d 58 01             	lea    0x1(%eax),%ebx
    512b:	46                   	inc    %esi
    512c:	39 5d 0c             	cmp    %ebx,0xc(%ebp)
    512f:	89 75 f0             	mov    %esi,-0x10(%ebp)
    5132:	73 dc                	jae    5110 <str_nlength+0x20>
    5134:	8b 45 f0             	mov    -0x10(%ebp),%eax
    5137:	5b                   	pop    %ebx
    5138:	5b                   	pop    %ebx
    5139:	5e                   	pop    %esi
    513a:	5f                   	pop    %edi
    513b:	5d                   	pop    %ebp
    513c:	c3                   	ret    
    513d:	8d 76 00             	lea    0x0(%esi),%esi
    5140:	21 c2                	and    %eax,%edx
    5142:	81 e2 ff 00 00 00    	and    $0xff,%edx
    5148:	85 c9                	test   %ecx,%ecx
    514a:	0f 84 94 00 00 00    	je     51e4 <str_nlength+0xf4>
    5150:	8a 0c 1f             	mov    (%edi,%ebx,1),%cl
    5153:	8d 43 01             	lea    0x1(%ebx),%eax
    5156:	88 cb                	mov    %cl,%bl
    5158:	83 e3 c0             	and    $0xffffffc0,%ebx
    515b:	80 fb 80             	cmp    $0x80,%bl
    515e:	74 16                	je     5176 <str_nlength+0x86>
    5160:	eb 5e                	jmp    51c0 <str_nlength+0xd0>
    5162:	8d b6 00 00 00 00    	lea    0x0(%esi),%esi
    5168:	8a 0c 07             	mov    (%edi,%eax,1),%cl
    516b:	40                   	inc    %eax
    516c:	88 cb                	mov    %cl,%bl
    516e:	83 e3 c0             	and    $0xffffffc0,%ebx
    5171:	80 fb 80             	cmp    $0x80,%bl
    5174:	75 4a                	jne    51c0 <str_nlength+0xd0>
    5176:	89 d3                	mov    %edx,%ebx
    5178:	89 ca                	mov    %ecx,%edx
    517a:	c1 e3 06             	shl    $0x6,%ebx
    517d:	83 e2 3f             	and    $0x3f,%edx
    5180:	09 da                	or     %ebx,%edx
    5182:	39 c6                	cmp    %eax,%esi
    5184:	75 e2                	jne    5168 <str_nlength+0x78>
    5186:	85 d2                	test   %edx,%edx
    5188:	75 9b                	jne    5125 <str_nlength+0x35>
    518a:	eb a8                	jmp    5134 <str_nlength+0x44>
    518c:	8d 74 26 00          	lea    0x0(%esi,%eiz,1),%esi
    5190:	88 c2                	mov    %al,%dl
    5192:	83 e2 e0             	and    $0xffffffe0,%edx
    5195:	80 fa c0             	cmp    $0xc0,%dl
    5198:	74 2e                	je     51c8 <str_nlength+0xd8>
    519a:	88 c2                	mov    %al,%dl
    519c:	83 e2 f0             	and    $0xfffffff0,%edx
    519f:	80 fa e0             	cmp    $0xe0,%dl
    51a2:	74 34                	je     51d8 <str_nlength+0xe8>
    51a4:	88 c2                	mov    %al,%dl
    51a6:	83 e2 f8             	and    $0xfffffff8,%edx
    51a9:	80 fa f0             	cmp    $0xf0,%dl
    51ac:	0f 85 71 ff ff ff    	jne    5123 <str_nlength+0x33>
    51b2:	b2 07                	mov    $0x7,%dl
    51b4:	b9 03 00 00 00       	mov    $0x3,%ecx
    51b9:	e9 5d ff ff ff       	jmp    511b <str_nlength+0x2b>
    51be:	66 90                	xchg   %ax,%ax
    51c0:	89 c3                	mov    %eax,%ebx
    51c2:	e9 5c ff ff ff       	jmp    5123 <str_nlength+0x33>
    51c7:	90                   	nop
    51c8:	b2 1f                	mov    $0x1f,%dl
    51ca:	b9 01 00 00 00       	mov    $0x1,%ecx
    51cf:	e9 47 ff ff ff       	jmp    511b <str_nlength+0x2b>
    51d4:	8d 74 26 00          	lea    0x0(%esi,%eiz,1),%esi
    51d8:	b2 0f                	mov    $0xf,%dl
    51da:	b9 02 00 00 00       	mov    $0x2,%ecx
    51df:	e9 37 ff ff ff       	jmp    511b <str_nlength+0x2b>
    51e4:	89 d8                	mov    %ebx,%eax
    51e6:	eb 9e                	jmp    5186 <str_nlength+0x96>
    51e8:	90                   	nop
    51e9:	8d b4 26 00 00 00 00 	lea    0x0(%esi,%eiz,1),%esi

000051f0 <wstr_nlength>:
    51f0:	55                   	push   %ebp
    51f1:	31 c0                	xor    %eax,%eax
    51f3:	89 e5                	mov    %esp,%ebp
    51f5:	53                   	push   %ebx
    51f6:	8b 5d 0c             	mov    0xc(%ebp),%ebx
    51f9:	8b 4d 08             	mov    0x8(%ebp),%ecx
    51fc:	83 e3 fc             	and    $0xfffffffc,%ebx
    51ff:	74 22                	je     5223 <wstr_nlength+0x33>
    5201:	8b 11                	mov    (%ecx),%edx
    5203:	85 d2                	test   %edx,%edx
    5205:	75 10                	jne    5217 <wstr_nlength+0x27>
    5207:	eb 1a                	jmp    5223 <wstr_nlength+0x33>
    5209:	8d b4 26 00 00 00 00 	lea    0x0(%esi,%eiz,1),%esi
    5210:	8b 14 81             	mov    (%ecx,%eax,4),%edx
    5213:	85 d2                	test   %edx,%edx
    5215:	74 0c                	je     5223 <wstr_nlength+0x33>
    5217:	40                   	inc    %eax
    5218:	8d 14 85 00 00 00 00 	lea    0x0(,%eax,4),%edx
    521f:	39 da                	cmp    %ebx,%edx
    5221:	72 ed                	jb     5210 <wstr_nlength+0x20>
    5223:	5b                   	pop    %ebx
    5224:	5d                   	pop    %ebp
    5225:	c3                   	ret    
    5226:	8d 76 00             	lea    0x0(%esi),%esi
    5229:	8d bc 27 00 00 00 00 	lea    0x0(%edi,%eiz,1),%edi

00005230 <chr_width>:
    5230:	55                   	push   %ebp
    5231:	b8 01 00 00 00       	mov    $0x1,%eax
    5236:	89 e5                	mov    %esp,%ebp
    5238:	5d                   	pop    %ebp
    5239:	c3                   	ret    
    523a:	8d b6 00 00 00 00    	lea    0x0(%esi),%esi

00005240 <str_width>:
    5240:	55                   	push   %ebp
    5241:	89 e5                	mov    %esp,%ebp
    5243:	57                   	push   %edi
    5244:	56                   	push   %esi
    5245:	53                   	push   %ebx
    5246:	83 ec 0c             	sub    $0xc,%esp
    5249:	31 ff                	xor    %edi,%edi
    524b:	8b 5d 08             	mov    0x8(%ebp),%ebx
    524e:	c7 45 f0 00 00 00 00 	movl   $0x0,-0x10(%ebp)
    5255:	eb 0e                	jmp    5265 <str_width+0x25>
    5257:	90                   	nop
    5258:	85 c0                	test   %eax,%eax
    525a:	74 3b                	je     5297 <str_width+0x57>
    525c:	8b 4d f0             	mov    -0x10(%ebp),%ecx
    525f:	89 d7                	mov    %edx,%edi
    5261:	41                   	inc    %ecx
    5262:	89 4d f0             	mov    %ecx,-0x10(%ebp)
    5265:	0f be 04 3b          	movsbl (%ebx,%edi,1),%eax
    5269:	8d 57 01             	lea    0x1(%edi),%edx
    526c:	84 c0                	test   %al,%al
    526e:	79 e8                	jns    5258 <str_width+0x18>
    5270:	88 c1                	mov    %al,%cl
    5272:	83 e1 e0             	and    $0xffffffe0,%ecx
    5275:	80 f9 c0             	cmp    $0xc0,%cl
    5278:	74 28                	je     52a2 <str_width+0x62>
    527a:	88 c1                	mov    %al,%cl
    527c:	83 e1 f0             	and    $0xfffffff0,%ecx
    527f:	80 f9 e0             	cmp    $0xe0,%cl
    5282:	74 7d                	je     5301 <str_width+0xc1>
    5284:	88 c1                	mov    %al,%cl
    5286:	83 e1 f8             	and    $0xfffffff8,%ecx
    5289:	80 f9 f0             	cmp    $0xf0,%cl
    528c:	75 ce                	jne    525c <str_width+0x1c>
    528e:	b1 07                	mov    $0x7,%cl
    5290:	be 03 00 00 00       	mov    $0x3,%esi
    5295:	eb 12                	jmp    52a9 <str_width+0x69>
    5297:	8b 45 f0             	mov    -0x10(%ebp),%eax
    529a:	83 c4 0c             	add    $0xc,%esp
    529d:	5b                   	pop    %ebx
    529e:	5e                   	pop    %esi
    529f:	5f                   	pop    %edi
    52a0:	5d                   	pop    %ebp
    52a1:	c3                   	ret    
    52a2:	b1 1f                	mov    $0x1f,%cl
    52a4:	be 01 00 00 00       	mov    $0x1,%esi
    52a9:	21 c8                	and    %ecx,%eax
    52ab:	8a 0c 13             	mov    (%ebx,%edx,1),%cl
    52ae:	83 c7 02             	add    $0x2,%edi
    52b1:	88 4d eb             	mov    %cl,-0x15(%ebp)
    52b4:	83 e1 c0             	and    $0xffffffc0,%ecx
    52b7:	25 ff 00 00 00       	and    $0xff,%eax
    52bc:	89 7d ec             	mov    %edi,-0x14(%ebp)
    52bf:	80 f9 80             	cmp    $0x80,%cl
    52c2:	75 46                	jne    530a <str_width+0xca>
