
ns8250:     file format elf32-i386


Disassembly of section .init:

00001094 <__entry>:
    1094:	66 8c d0             	mov    %ss,%ax
    1097:	8e d8                	mov    %eax,%ds
    1099:	8e c0                	mov    %eax,%es
    109b:	8e e0                	mov    %eax,%fs
    109d:	b8 01 00 00 00       	mov    $0x1,%eax
    10a2:	0f a2                	cpuid  
    10a4:	0f ba e2 0b          	bt     $0xb,%edx
    10a8:	73 0c                	jae    10b6 <__entry+0x22>
    10aa:	8d 05 10 9d 02 00    	lea    0x29d10,%eax
    10b0:	c7 00 17 1f 02 00    	movl   $0x21f17,(%eax)
    10b6:	6a 00                	push   $0x0
    10b8:	89 e5                	mov    %esp,%ebp
    10ba:	57                   	push   %edi
    10bb:	e8 d0 69 00 00       	call   7a90 <__main>

Disassembly of section .text:

000010c0 <ns8250_interrupt_handler>:
    10c0:	55                   	push   %ebp
    10c1:	89 e5                	mov    %esp,%ebp
    10c3:	57                   	push   %edi
    10c4:	56                   	push   %esi
    10c5:	53                   	push   %ebx
    10c6:	83 ec 2c             	sub    $0x2c,%esp
    10c9:	8b 45 08             	mov    0x8(%ebp),%eax
    10cc:	89 04 24             	mov    %eax,(%esp)
    10cf:	e8 ec 18 00 00       	call   29c0 <ddf_dev_data_get>
    10d4:	89 c3                	mov    %eax,%ebx
    10d6:	8b 40 08             	mov    0x8(%eax),%eax
    10d9:	83 c0 02             	add    $0x2,%eax
    10dc:	89 04 24             	mov    %eax,(%esp)
    10df:	e8 1c 6e 00 00       	call   7f00 <pio_read_8>
    10e4:	83 e0 0e             	and    $0xe,%eax
    10e7:	3c 06                	cmp    $0x6,%al
    10e9:	0f 84 19 01 00 00    	je     1208 <ns8250_interrupt_handler+0x148>
    10ef:	8b 43 08             	mov    0x8(%ebx),%eax
    10f2:	89 45 e4             	mov    %eax,-0x1c(%ebp)
    10f5:	8d 83 24 10 00 00    	lea    0x1024(%ebx),%eax
    10fb:	89 04 24             	mov    %eax,(%esp)
    10fe:	89 45 e0             	mov    %eax,-0x20(%ebp)
    1101:	e8 7a d0 00 00       	call   e180 <fibril_mutex_lock>
    1106:	8b 45 e4             	mov    -0x1c(%ebp),%eax
    1109:	8d 70 05             	lea    0x5(%eax),%esi
    110c:	8d 83 34 10 00 00    	lea    0x1034(%ebx),%eax
    1112:	89 45 dc             	mov    %eax,-0x24(%ebp)
    1115:	8d 76 00             	lea    0x0(%esi),%esi
    1118:	89 34 24             	mov    %esi,(%esp)
    111b:	e8 e0 6d 00 00       	call   7f00 <pio_read_8>
    1120:	a8 01                	test   $0x1,%al
    1122:	75 24                	jne    1148 <ns8250_interrupt_handler+0x88>
    1124:	8b 45 e0             	mov    -0x20(%ebp),%eax
    1127:	89 04 24             	mov    %eax,(%esp)
    112a:	e8 71 d1 00 00       	call   e2a0 <fibril_mutex_unlock>
    112f:	c7 45 08 00 00 00 00 	movl   $0x0,0x8(%ebp)
    1136:	83 c4 2c             	add    $0x2c,%esp
    1139:	5b                   	pop    %ebx
    113a:	5e                   	pop    %esi
    113b:	5f                   	pop    %edi
    113c:	5d                   	pop    %ebp
    113d:	e9 6e c8 00 00       	jmp    d9b0 <fibril_switch>
    1142:	8d b6 00 00 00 00    	lea    0x0(%esi),%esi
    1148:	8b 45 e4             	mov    -0x1c(%ebp),%eax
    114b:	89 04 24             	mov    %eax,(%esp)
    114e:	e8 ad 6d 00 00       	call   7f00 <pio_read_8>
    1153:	80 7b 0c 00          	cmpb   $0x0,0xc(%ebx)
    1157:	88 c2                	mov    %al,%dl
    1159:	74 bd                	je     1118 <ns8250_interrupt_handler+0x58>
    115b:	8b bb 20 10 00 00    	mov    0x1020(%ebx),%edi
    1161:	81 ff ff 0f 00 00    	cmp    $0xfff,%edi
    1167:	7f 77                	jg     11e0 <ns8250_interrupt_handler+0x120>
    1169:	8b 83 1c 10 00 00    	mov    0x101c(%ebx),%eax
    116f:	01 f8                	add    %edi,%eax
    1171:	89 c1                	mov    %eax,%ecx
    1173:	c1 f9 1f             	sar    $0x1f,%ecx
    1176:	c1 e9 14             	shr    $0x14,%ecx
    1179:	01 c8                	add    %ecx,%eax
    117b:	25 ff 0f 00 00       	and    $0xfff,%eax
    1180:	29 c8                	sub    %ecx,%eax
    1182:	88 54 03 1c          	mov    %dl,0x1c(%ebx,%eax,1)
    1186:	8d 47 01             	lea    0x1(%edi),%eax
    1189:	89 83 20 10 00 00    	mov    %eax,0x1020(%ebx)
    118f:	8b 03                	mov    (%ebx),%eax
    1191:	89 04 24             	mov    %eax,(%esp)
    1194:	88 55 d8             	mov    %dl,-0x28(%ebp)
    1197:	e8 44 18 00 00       	call   29e0 <ddf_dev_get_name>
    119c:	8a 55 d8             	mov    -0x28(%ebp),%dl
    119f:	81 e2 ff 00 00 00    	and    $0xff,%edx
    11a5:	89 44 24 0c          	mov    %eax,0xc(%esp)
    11a9:	89 54 24 08          	mov    %edx,0x8(%esp)
    11ad:	c7 44 24 04 e8 65 02 	movl   $0x265e8,0x4(%esp)
    11b4:	00 
    11b5:	c7 04 24 05 00 00 00 	movl   $0x5,(%esp)
    11bc:	e8 5f 23 00 00       	call   3520 <ddf_msg>
    11c1:	85 ff                	test   %edi,%edi
    11c3:	0f 85 4f ff ff ff    	jne    1118 <ns8250_interrupt_handler+0x58>
    11c9:	8b 45 dc             	mov    -0x24(%ebp),%eax
    11cc:	89 04 24             	mov    %eax,(%esp)
    11cf:	e8 cc dc 00 00       	call   eea0 <fibril_condvar_broadcast>
    11d4:	e9 3f ff ff ff       	jmp    1118 <ns8250_interrupt_handler+0x58>
    11d9:	8d b4 26 00 00 00 00 	lea    0x0(%esi,%eiz,1),%esi
    11e0:	8b 03                	mov    (%ebx),%eax
    11e2:	89 04 24             	mov    %eax,(%esp)
    11e5:	e8 f6 17 00 00       	call   29e0 <ddf_dev_get_name>
    11ea:	c7 44 24 04 f6 64 02 	movl   $0x264f6,0x4(%esp)
    11f1:	00 
    11f2:	89 44 24 08          	mov    %eax,0x8(%esp)
    11f6:	c7 04 24 02 00 00 00 	movl   $0x2,(%esp)
    11fd:	e8 1e 23 00 00       	call   3520 <ddf_msg>
    1202:	e9 1d ff ff ff       	jmp    1124 <ns8250_interrupt_handler+0x64>
    1207:	90                   	nop
    1208:	8b 43 08             	mov    0x8(%ebx),%eax
    120b:	83 c0 05             	add    $0x5,%eax
    120e:	89 04 24             	mov    %eax,(%esp)
    1211:	e8 ea 6c 00 00       	call   7f00 <pio_read_8>
    1216:	a8 02                	test   $0x2,%al
    1218:	0f 84 d1 fe ff ff    	je     10ef <ns8250_interrupt_handler+0x2f>
    121e:	8b 03                	mov    (%ebx),%eax
    1220:	89 04 24             	mov    %eax,(%esp)
    1223:	e8 b8 17 00 00       	call   29e0 <ddf_dev_get_name>
    1228:	c7 44 24 04 e2 64 02 	movl   $0x264e2,0x4(%esp)
    122f:	00 
    1230:	89 44 24 08          	mov    %eax,0x8(%esp)
    1234:	c7 04 24 02 00 00 00 	movl   $0x2,(%esp)
    123b:	e8 e0 22 00 00       	call   3520 <ddf_msg>
    1240:	e9 aa fe ff ff       	jmp    10ef <ns8250_interrupt_handler+0x2f>
    1245:	8d 74 26 00          	lea    0x0(%esi,%eiz,1),%esi
    1249:	8d bc 27 00 00 00 00 	lea    0x0(%edi,%eiz,1),%edi

00001250 <ns8250_read>:
    1250:	55                   	push   %ebp
    1251:	89 e5                	mov    %esp,%ebp
    1253:	57                   	push   %edi
    1254:	56                   	push   %esi
    1255:	53                   	push   %ebx
    1256:	83 ec 2c             	sub    $0x2c,%esp
    1259:	8b 45 08             	mov    0x8(%ebp),%eax
    125c:	89 04 24             	mov    %eax,(%esp)
    125f:	e8 3c 18 00 00       	call   2aa0 <ddf_fun_get_dev>
    1264:	89 04 24             	mov    %eax,(%esp)
    1267:	e8 54 17 00 00       	call   29c0 <ddf_dev_data_get>
    126c:	8b 55 10             	mov    0x10(%ebp),%edx
    126f:	89 c3                	mov    %eax,%ebx
    1271:	31 c0                	xor    %eax,%eax
    1273:	85 d2                	test   %edx,%edx
    1275:	75 09                	jne    1280 <ns8250_read+0x30>
    1277:	83 c4 2c             	add    $0x2c,%esp
    127a:	5b                   	pop    %ebx
    127b:	5e                   	pop    %esi
    127c:	5f                   	pop    %edi
    127d:	5d                   	pop    %ebp
    127e:	c3                   	ret    
    127f:	90                   	nop
    1280:	8d 83 24 10 00 00    	lea    0x1024(%ebx),%eax
    1286:	89 04 24             	mov    %eax,(%esp)
    1289:	89 45 e0             	mov    %eax,-0x20(%ebp)
    128c:	e8 ef ce 00 00       	call   e180 <fibril_mutex_lock>
    1291:	8b 8b 20 10 00 00    	mov    0x1020(%ebx),%ecx
    1297:	85 c9                	test   %ecx,%ecx
    1299:	75 23                	jne    12be <ns8250_read+0x6e>
    129b:	8d b3 34 10 00 00    	lea    0x1034(%ebx),%esi
    12a1:	8b 7d e0             	mov    -0x20(%ebp),%edi
    12a4:	8d 74 26 00          	lea    0x0(%esi,%eiz,1),%esi
    12a8:	89 7c 24 04          	mov    %edi,0x4(%esp)
    12ac:	89 34 24             	mov    %esi,(%esp)
    12af:	e8 1c db 00 00       	call   edd0 <fibril_condvar_wait>
    12b4:	8b 8b 20 10 00 00    	mov    0x1020(%ebx),%ecx
    12ba:	85 c9                	test   %ecx,%ecx
    12bc:	74 ea                	je     12a8 <ns8250_read+0x58>
    12be:	31 ff                	xor    %edi,%edi
    12c0:	31 c0                	xor    %eax,%eax
    12c2:	eb 0b                	jmp    12cf <ns8250_read+0x7f>
    12c4:	8d 74 26 00          	lea    0x0(%esi,%eiz,1),%esi
    12c8:	89 c7                	mov    %eax,%edi
    12ca:	3b 45 10             	cmp    0x10(%ebp),%eax
    12cd:	74 43                	je     1312 <ns8250_read+0xc2>
    12cf:	8b b3 1c 10 00 00    	mov    0x101c(%ebx),%esi
    12d5:	49                   	dec    %ecx
    12d6:	89 8b 20 10 00 00    	mov    %ecx,0x1020(%ebx)
    12dc:	40                   	inc    %eax
    12dd:	8a 54 33 1c          	mov    0x1c(%ebx,%esi,1),%dl
    12e1:	88 55 e7             	mov    %dl,-0x19(%ebp)
    12e4:	8d 56 01             	lea    0x1(%esi),%edx
    12e7:	89 d6                	mov    %edx,%esi
    12e9:	8a 4d e7             	mov    -0x19(%ebp),%cl
    12ec:	c1 fe 1f             	sar    $0x1f,%esi
    12ef:	c1 ee 14             	shr    $0x14,%esi
    12f2:	01 f2                	add    %esi,%edx
    12f4:	81 e2 ff 0f 00 00    	and    $0xfff,%edx
    12fa:	29 f2                	sub    %esi,%edx
    12fc:	89 93 1c 10 00 00    	mov    %edx,0x101c(%ebx)
    1302:	8b 55 0c             	mov    0xc(%ebp),%edx
    1305:	88 0c 3a             	mov    %cl,(%edx,%edi,1)
    1308:	8b 8b 20 10 00 00    	mov    0x1020(%ebx),%ecx
    130e:	85 c9                	test   %ecx,%ecx
    1310:	75 b6                	jne    12c8 <ns8250_read+0x78>
    1312:	8b 4d e0             	mov    -0x20(%ebp),%ecx
    1315:	89 45 dc             	mov    %eax,-0x24(%ebp)
    1318:	89 0c 24             	mov    %ecx,(%esp)
    131b:	e8 80 cf 00 00       	call   e2a0 <fibril_mutex_unlock>
    1320:	8b 45 dc             	mov    -0x24(%ebp),%eax
    1323:	83 c4 2c             	add    $0x2c,%esp
    1326:	5b                   	pop    %ebx
    1327:	5e                   	pop    %esi
    1328:	5f                   	pop    %edi
    1329:	5d                   	pop    %ebp
    132a:	c3                   	ret    
    132b:	90                   	nop
    132c:	8d 74 26 00          	lea    0x0(%esi,%eiz,1),%esi

00001330 <ns8250_dev_remove>:
    1330:	55                   	push   %ebp
    1331:	89 e5                	mov    %esp,%ebp
    1333:	56                   	push   %esi
    1334:	53                   	push   %ebx
    1335:	83 ec 10             	sub    $0x10,%esp
    1338:	8b 45 08             	mov    0x8(%ebp),%eax
    133b:	89 04 24             	mov    %eax,(%esp)
    133e:	e8 7d 16 00 00       	call   29c0 <ddf_dev_data_get>
    1343:	89 c3                	mov    %eax,%ebx
    1345:	8d b0 24 10 00 00    	lea    0x1024(%eax),%esi
    134b:	89 34 24             	mov    %esi,(%esp)
    134e:	e8 2d ce 00 00       	call   e180 <fibril_mutex_lock>
    1353:	80 7b 0c 00          	cmpb   $0x0,0xc(%ebx)
    1357:	0f 85 ab 00 00 00    	jne    1408 <ns8250_dev_remove+0xd8>
    135d:	c6 83 3c 10 00 00 01 	movb   $0x1,0x103c(%ebx)
    1364:	89 34 24             	mov    %esi,(%esp)
    1367:	e8 34 cf 00 00       	call   e2a0 <fibril_mutex_unlock>
    136c:	8b 43 04             	mov    0x4(%ebx),%eax
    136f:	89 04 24             	mov    %eax,(%esp)
    1372:	e8 e9 1a 00 00       	call   2e60 <ddf_fun_unbind>
    1377:	89 c6                	mov    %eax,%esi
    1379:	85 c0                	test   %eax,%eax
    137b:	75 6b                	jne    13e8 <ns8250_dev_remove+0xb8>
    137d:	8b 43 04             	mov    0x4(%ebx),%eax
    1380:	89 04 24             	mov    %eax,(%esp)
    1383:	e8 b8 18 00 00       	call   2c40 <ddf_fun_destroy>
    1388:	c7 44 24 04 00 00 00 	movl   $0x0,0x4(%esp)
    138f:	00 
    1390:	8b 43 08             	mov    0x8(%ebx),%eax
    1393:	83 c0 02             	add    $0x2,%eax
    1396:	89 04 24             	mov    %eax,(%esp)
    1399:	e8 72 6a 00 00       	call   7e10 <pio_write_8>
    139e:	c7 44 24 04 00 00 00 	movl   $0x0,0x4(%esp)
    13a5:	00 
    13a6:	8b 43 08             	mov    0x8(%ebx),%eax
    13a9:	83 c0 04             	add    $0x4,%eax
    13ac:	89 04 24             	mov    %eax,(%esp)
    13af:	e8 5c 6a 00 00       	call   7e10 <pio_write_8>
    13b4:	c7 44 24 04 00 00 00 	movl   $0x0,0x4(%esp)
    13bb:	00 
    13bc:	8b 43 08             	mov    0x8(%ebx),%eax
    13bf:	40                   	inc    %eax
    13c0:	89 04 24             	mov    %eax,(%esp)
    13c3:	e8 48 6a 00 00       	call   7e10 <pio_write_8>
    13c8:	8b 43 10             	mov    0x10(%ebx),%eax
    13cb:	89 44 24 04          	mov    %eax,0x4(%esp)
    13cf:	8b 03                	mov    (%ebx),%eax
    13d1:	89 04 24             	mov    %eax,(%esp)
    13d4:	e8 57 20 00 00       	call   3430 <unregister_interrupt_handler>
    13d9:	83 c4 10             	add    $0x10,%esp
    13dc:	89 f0                	mov    %esi,%eax
    13de:	5b                   	pop    %ebx
    13df:	5e                   	pop    %esi
    13e0:	5d                   	pop    %ebp
    13e1:	c3                   	ret    
    13e2:	8d b6 00 00 00 00    	lea    0x0(%esi),%esi
    13e8:	c7 44 24 04 0d 65 02 	movl   $0x2650d,0x4(%esp)
    13ef:	00 
    13f0:	c7 04 24 01 00 00 00 	movl   $0x1,(%esp)
    13f7:	e8 24 21 00 00       	call   3520 <ddf_msg>
    13fc:	83 c4 10             	add    $0x10,%esp
    13ff:	89 f0                	mov    %esi,%eax
    1401:	5b                   	pop    %ebx
    1402:	5e                   	pop    %esi
    1403:	5d                   	pop    %ebp
    1404:	c3                   	ret    
    1405:	8d 76 00             	lea    0x0(%esi),%esi
    1408:	89 34 24             	mov    %esi,(%esp)
    140b:	be f1 ff ff ff       	mov    $0xfffffff1,%esi
    1410:	e8 8b ce 00 00       	call   e2a0 <fibril_mutex_unlock>
    1415:	eb c2                	jmp    13d9 <ns8250_dev_remove+0xa9>
    1417:	89 f6                	mov    %esi,%esi
    1419:	8d bc 27 00 00 00 00 	lea    0x0(%edi,%eiz,1),%edi

00001420 <ns8250_close>:
    1420:	55                   	push   %ebp
    1421:	89 e5                	mov    %esp,%ebp
    1423:	56                   	push   %esi
    1424:	53                   	push   %ebx
    1425:	83 ec 10             	sub    $0x10,%esp
    1428:	8b 45 08             	mov    0x8(%ebp),%eax
    142b:	89 04 24             	mov    %eax,(%esp)
    142e:	e8 6d 16 00 00       	call   2aa0 <ddf_fun_get_dev>
    1433:	89 04 24             	mov    %eax,(%esp)
    1436:	e8 85 15 00 00       	call   29c0 <ddf_dev_data_get>
    143b:	89 c3                	mov    %eax,%ebx
    143d:	8d b0 24 10 00 00    	lea    0x1024(%eax),%esi
    1443:	89 34 24             	mov    %esi,(%esp)
    1446:	e8 35 cd 00 00       	call   e180 <fibril_mutex_lock>
    144b:	80 7b 0c 00          	cmpb   $0x0,0xc(%ebx)
    144f:	74 1c                	je     146d <ns8250_close+0x4d>
    1451:	c6 43 0c 00          	movb   $0x0,0xc(%ebx)
    1455:	c7 83 20 10 00 00 00 	movl   $0x0,0x1020(%ebx)
    145c:	00 00 00 
    145f:	89 75 08             	mov    %esi,0x8(%ebp)
    1462:	83 c4 10             	add    $0x10,%esp
    1465:	5b                   	pop    %ebx
    1466:	5e                   	pop    %esi
    1467:	5d                   	pop    %ebp
    1468:	e9 33 ce 00 00       	jmp    e2a0 <fibril_mutex_unlock>
    146d:	c7 44 24 08 d0 03 00 	movl   $0x3d0,0x8(%esp)
    1474:	00 
    1475:	c7 44 24 04 28 65 02 	movl   $0x26528,0x4(%esp)
    147c:	00 
    147d:	c7 04 24 31 65 02 00 	movl   $0x26531,(%esp)
    1484:	e8 37 08 02 00       	call   21cc0 <assert_abort>
    1489:	8d b4 26 00 00 00 00 	lea    0x0(%esi,%eiz,1),%esi

00001490 <ns8250_write>:
    1490:	55                   	push   %ebp
    1491:	89 e5                	mov    %esp,%ebp
    1493:	57                   	push   %edi
    1494:	56                   	push   %esi
    1495:	53                   	push   %ebx
    1496:	83 ec 2c             	sub    $0x2c,%esp
    1499:	8b 45 08             	mov    0x8(%ebp),%eax
    149c:	89 04 24             	mov    %eax,(%esp)
    149f:	e8 fc 15 00 00       	call   2aa0 <ddf_fun_get_dev>
    14a4:	89 04 24             	mov    %eax,(%esp)
    14a7:	e8 14 15 00 00       	call   29c0 <ddf_dev_data_get>
    14ac:	8b 75 10             	mov    0x10(%ebp),%esi
    14af:	89 45 dc             	mov    %eax,-0x24(%ebp)
    14b2:	85 f6                	test   %esi,%esi
    14b4:	74 72                	je     1528 <ns8250_write+0x98>
    14b6:	8b 45 0c             	mov    0xc(%ebp),%eax
    14b9:	8b 5d 10             	mov    0x10(%ebp),%ebx
    14bc:	89 45 e4             	mov    %eax,-0x1c(%ebp)
    14bf:	01 d8                	add    %ebx,%eax
    14c1:	89 45 d8             	mov    %eax,-0x28(%ebp)
    14c4:	8b 45 dc             	mov    -0x24(%ebp),%eax
    14c7:	05 24 10 00 00       	add    $0x1024,%eax
    14cc:	89 45 e0             	mov    %eax,-0x20(%ebp)
    14cf:	90                   	nop
    14d0:	8b 45 e4             	mov    -0x1c(%ebp),%eax
    14d3:	0f b6 38             	movzbl (%eax),%edi
    14d6:	8b 45 e0             	mov    -0x20(%ebp),%eax
    14d9:	89 04 24             	mov    %eax,(%esp)
    14dc:	e8 9f cc 00 00       	call   e180 <fibril_mutex_lock>
    14e1:	8b 45 dc             	mov    -0x24(%ebp),%eax
    14e4:	8b 70 08             	mov    0x8(%eax),%esi
    14e7:	8d 5e 05             	lea    0x5(%esi),%ebx
    14ea:	8d b6 00 00 00 00    	lea    0x0(%esi),%esi
    14f0:	89 1c 24             	mov    %ebx,(%esp)
    14f3:	e8 08 6a 00 00       	call   7f00 <pio_read_8>
    14f8:	a8 20                	test   $0x20,%al
    14fa:	74 f4                	je     14f0 <ns8250_write+0x60>
    14fc:	81 e7 ff 00 00 00    	and    $0xff,%edi
    1502:	89 34 24             	mov    %esi,(%esp)
    1505:	89 7c 24 04          	mov    %edi,0x4(%esp)
    1509:	e8 02 69 00 00       	call   7e10 <pio_write_8>
    150e:	8b 45 e0             	mov    -0x20(%ebp),%eax
    1511:	89 04 24             	mov    %eax,(%esp)
    1514:	e8 87 cd 00 00       	call   e2a0 <fibril_mutex_unlock>
    1519:	8b 4d e4             	mov    -0x1c(%ebp),%ecx
    151c:	41                   	inc    %ecx
    151d:	8b 45 d8             	mov    -0x28(%ebp),%eax
    1520:	89 4d e4             	mov    %ecx,-0x1c(%ebp)
    1523:	39 45 e4             	cmp    %eax,-0x1c(%ebp)
    1526:	75 a8                	jne    14d0 <ns8250_write+0x40>
    1528:	8b 45 10             	mov    0x10(%ebp),%eax
    152b:	83 c4 2c             	add    $0x2c,%esp
    152e:	5b                   	pop    %ebx
    152f:	5e                   	pop    %esi
    1530:	5f                   	pop    %edi
    1531:	5d                   	pop    %ebp
    1532:	c3                   	ret    
    1533:	8d b6 00 00 00 00    	lea    0x0(%esi),%esi
    1539:	8d bc 27 00 00 00 00 	lea    0x0(%edi,%eiz,1),%edi

00001540 <ns8250_open>:
    1540:	55                   	push   %ebp
    1541:	89 e5                	mov    %esp,%ebp
    1543:	56                   	push   %esi
    1544:	53                   	push   %ebx
    1545:	83 ec 10             	sub    $0x10,%esp
    1548:	8b 45 08             	mov    0x8(%ebp),%eax
    154b:	89 04 24             	mov    %eax,(%esp)
    154e:	e8 4d 15 00 00       	call   2aa0 <ddf_fun_get_dev>
    1553:	89 04 24             	mov    %eax,(%esp)
    1556:	e8 65 14 00 00       	call   29c0 <ddf_dev_data_get>
    155b:	89 c3                	mov    %eax,%ebx
    155d:	8d b0 24 10 00 00    	lea    0x1024(%eax),%esi
    1563:	89 34 24             	mov    %esi,(%esp)
    1566:	e8 15 cc 00 00       	call   e180 <fibril_mutex_lock>
    156b:	80 7b 0c 00          	cmpb   $0x0,0xc(%ebx)
    156f:	75 27                	jne    1598 <ns8250_open+0x58>
    1571:	80 bb 3c 10 00 00 00 	cmpb   $0x0,0x103c(%ebx)
    1578:	75 26                	jne    15a0 <ns8250_open+0x60>
    157a:	c6 43 0c 01          	movb   $0x1,0xc(%ebx)
    157e:	31 db                	xor    %ebx,%ebx
    1580:	89 34 24             	mov    %esi,(%esp)
    1583:	e8 18 cd 00 00       	call   e2a0 <fibril_mutex_unlock>
    1588:	83 c4 10             	add    $0x10,%esp
    158b:	89 d8                	mov    %ebx,%eax
    158d:	5b                   	pop    %ebx
    158e:	5e                   	pop    %esi
    158f:	5d                   	pop    %ebp
    1590:	c3                   	ret    
    1591:	8d b4 26 00 00 00 00 	lea    0x0(%esi,%eiz,1),%esi
    1598:	bb fd ff ff ff       	mov    $0xfffffffd,%ebx
    159d:	eb e1                	jmp    1580 <ns8250_open+0x40>
    159f:	90                   	nop
    15a0:	bb f5 fe ff ff       	mov    $0xfffffef5,%ebx
    15a5:	eb d9                	jmp    1580 <ns8250_open+0x40>
    15a7:	89 f6                	mov    %esi,%esi
    15a9:	8d bc 27 00 00 00 00 	lea    0x0(%edi,%eiz,1),%edi

000015b0 <ns8250_dev_add>:
    15b0:	55                   	push   %ebp
    15b1:	89 e5                	mov    %esp,%ebp
    15b3:	57                   	push   %edi
    15b4:	56                   	push   %esi
    15b5:	53                   	push   %ebx
    15b6:	83 ec 3c             	sub    $0x3c,%esp
    15b9:	8b 45 08             	mov    0x8(%ebp),%eax
    15bc:	89 04 24             	mov    %eax,(%esp)
    15bf:	e8 0c 14 00 00       	call   29d0 <ddf_dev_get_handle>
    15c4:	89 c3                	mov    %eax,%ebx
    15c6:	8b 45 08             	mov    0x8(%ebp),%eax
    15c9:	89 04 24             	mov    %eax,(%esp)
    15cc:	e8 0f 14 00 00       	call   29e0 <ddf_dev_get_name>
    15d1:	89 5c 24 0c          	mov    %ebx,0xc(%esp)
    15d5:	89 44 24 08          	mov    %eax,0x8(%esp)
    15d9:	c7 44 24 04 10 66 02 	movl   $0x26610,0x4(%esp)
    15e0:	00 
    15e1:	c7 04 24 04 00 00 00 	movl   $0x4,(%esp)
    15e8:	e8 33 1f 00 00       	call   3520 <ddf_msg>
    15ed:	8b 45 08             	mov    0x8(%ebp),%eax
    15f0:	c7 44 24 04 40 10 00 	movl   $0x1040,0x4(%esp)
    15f7:	00 
    15f8:	89 04 24             	mov    %eax,(%esp)
    15fb:	e8 30 13 00 00       	call   2930 <ddf_dev_data_alloc>
    1600:	89 c7                	mov    %eax,%edi
    1602:	85 c0                	test   %eax,%eax
    1604:	0f 84 86 01 00 00    	je     1790 <ns8250_dev_add+0x1e0>
    160a:	8d 80 24 10 00 00    	lea    0x1024(%eax),%eax
    1610:	8d 5d e0             	lea    -0x20(%ebp),%ebx
    1613:	89 04 24             	mov    %eax,(%esp)
    1616:	e8 45 cb 00 00       	call   e160 <fibril_mutex_initialize>
    161b:	8d 87 34 10 00 00    	lea    0x1034(%edi),%eax
    1621:	89 04 24             	mov    %eax,(%esp)
    1624:	e8 c7 d1 00 00       	call   e7f0 <fibril_condvar_initialize>
    1629:	8b 45 08             	mov    0x8(%ebp),%eax
    162c:	89 07                	mov    %eax,(%edi)
    162e:	89 04 24             	mov    %eax,(%esp)
    1631:	e8 aa 13 00 00       	call   29e0 <ddf_dev_get_name>
    1636:	c7 44 24 04 48 65 02 	movl   $0x26548,0x4(%esp)
    163d:	00 
    163e:	89 44 24 08          	mov    %eax,0x8(%esp)
    1642:	c7 04 24 04 00 00 00 	movl   $0x4,(%esp)
    1649:	e8 d2 1e 00 00       	call   3520 <ddf_msg>
    164e:	c7 44 24 08 08 00 00 	movl   $0x8,0x8(%esp)
    1655:	00 
    1656:	c7 44 24 04 00 00 00 	movl   $0x0,0x4(%esp)
    165d:	00 
    165e:	89 1c 24             	mov    %ebx,(%esp)
    1661:	e8 ba 88 00 00       	call   9f20 <memset>
    1666:	c7 44 24 04 02 00 00 	movl   $0x2,0x4(%esp)
    166d:	00 
    166e:	8b 07                	mov    (%edi),%eax
    1670:	89 04 24             	mov    %eax,(%esp)
    1673:	e8 78 13 00 00       	call   29f0 <ddf_dev_parent_sess_create>
    1678:	85 c0                	test   %eax,%eax
    167a:	0f 84 80 02 00 00    	je     1900 <ns8250_dev_add+0x350>
    1680:	89 5c 24 04          	mov    %ebx,0x4(%esp)
    1684:	89 04 24             	mov    %eax,(%esp)
    1687:	e8 f4 86 00 00       	call   9d80 <hw_res_get_resource_list>
    168c:	89 45 d0             	mov    %eax,-0x30(%ebp)
    168f:	85 c0                	test   %eax,%eax
    1691:	0f 85 11 01 00 00    	jne    17a8 <ns8250_dev_add+0x1f8>
    1697:	8b 45 e0             	mov    -0x20(%ebp),%eax
    169a:	85 c0                	test   %eax,%eax
    169c:	0f 84 a4 00 00 00    	je     1746 <ns8250_dev_add+0x196>
    16a2:	c6 45 d7 00          	movb   $0x0,-0x29(%ebp)
    16a6:	c6 45 d6 00          	movb   $0x0,-0x2a(%ebp)
    16aa:	31 db                	xor    %ebx,%ebx
    16ac:	eb 3a                	jmp    16e8 <ns8250_dev_add+0x138>
    16ae:	66 90                	xchg   %ax,%ax
    16b0:	8b 72 04             	mov    0x4(%edx),%esi
    16b3:	8b 07                	mov    (%edi),%eax
    16b5:	89 77 10             	mov    %esi,0x10(%edi)
    16b8:	89 04 24             	mov    %eax,(%esp)
    16bb:	e8 20 13 00 00       	call   29e0 <ddf_dev_get_name>
    16c0:	89 74 24 0c          	mov    %esi,0xc(%esp)
    16c4:	89 44 24 08          	mov    %eax,0x8(%esp)
    16c8:	c7 44 24 04 b8 66 02 	movl   $0x266b8,0x4(%esp)
    16cf:	00 
    16d0:	c7 04 24 03 00 00 00 	movl   $0x3,(%esp)
    16d7:	e8 44 1e 00 00       	call   3520 <ddf_msg>
    16dc:	8b 45 e0             	mov    -0x20(%ebp),%eax
    16df:	c6 45 d6 01          	movb   $0x1,-0x2a(%ebp)
    16e3:	43                   	inc    %ebx
    16e4:	39 d8                	cmp    %ebx,%eax
    16e6:	76 54                	jbe    173c <ns8250_dev_add+0x18c>
    16e8:	8d 0c 9b             	lea    (%ebx,%ebx,4),%ecx
    16eb:	8b 55 e4             	mov    -0x1c(%ebp),%edx
    16ee:	8d 14 8a             	lea    (%edx,%ecx,4),%edx
    16f1:	8b 0a                	mov    (%edx),%ecx
    16f3:	85 c9                	test   %ecx,%ecx
    16f5:	74 b9                	je     16b0 <ns8250_dev_add+0x100>
    16f7:	49                   	dec    %ecx
    16f8:	75 e9                	jne    16e3 <ns8250_dev_add+0x133>
    16fa:	8b 72 04             	mov    0x4(%edx),%esi
    16fd:	8b 07                	mov    (%edi),%eax
    16ff:	89 77 14             	mov    %esi,0x14(%edi)
    1702:	83 7a 10 06          	cmpl   $0x6,0x10(%edx)
    1706:	89 04 24             	mov    %eax,(%esp)
    1709:	0f 86 21 02 00 00    	jbe    1930 <ns8250_dev_add+0x380>
    170f:	e8 cc 12 00 00       	call   29e0 <ddf_dev_get_name>
    1714:	89 74 24 0c          	mov    %esi,0xc(%esp)
    1718:	89 44 24 08          	mov    %eax,0x8(%esp)
    171c:	c7 44 24 04 0c 67 02 	movl   $0x2670c,0x4(%esp)
    1723:	00 
    1724:	c7 04 24 03 00 00 00 	movl   $0x3,(%esp)
    172b:	43                   	inc    %ebx
    172c:	e8 ef 1d 00 00       	call   3520 <ddf_msg>
    1731:	8b 45 e0             	mov    -0x20(%ebp),%eax
    1734:	c6 45 d7 01          	movb   $0x1,-0x29(%ebp)
    1738:	39 d8                	cmp    %ebx,%eax
    173a:	77 ac                	ja     16e8 <ns8250_dev_add+0x138>
    173c:	80 7d d7 00          	cmpb   $0x0,-0x29(%ebp)
    1740:	0f 85 8a 00 00 00    	jne    17d0 <ns8250_dev_add+0x220>
    1746:	8b 07                	mov    (%edi),%eax
    1748:	89 04 24             	mov    %eax,(%esp)
    174b:	e8 90 12 00 00       	call   29e0 <ddf_dev_get_name>
    1750:	c7 44 24 04 64 66 02 	movl   $0x26664,0x4(%esp)
    1757:	00 
    1758:	89 44 24 08          	mov    %eax,0x8(%esp)
    175c:	c7 04 24 01 00 00 00 	movl   $0x1,(%esp)
    1763:	e8 b8 1d 00 00       	call   3520 <ddf_msg>
    1768:	c7 45 d0 ff ff ff ff 	movl   $0xffffffff,-0x30(%ebp)
    176f:	8b 45 e4             	mov    -0x1c(%ebp),%eax
    1772:	85 c0                	test   %eax,%eax
    1774:	74 21                	je     1797 <ns8250_dev_add+0x1e7>
    1776:	89 04 24             	mov    %eax,(%esp)
    1779:	e8 f2 5d 01 00       	call   17570 <free>
    177e:	8b 45 d0             	mov    -0x30(%ebp),%eax
    1781:	83 c4 3c             	add    $0x3c,%esp
    1784:	5b                   	pop    %ebx
    1785:	5e                   	pop    %esi
    1786:	5f                   	pop    %edi
    1787:	5d                   	pop    %ebp
    1788:	c3                   	ret    
    1789:	8d b4 26 00 00 00 00 	lea    0x0(%esi,%eiz,1),%esi
    1790:	c7 45 d0 fe ff ff ff 	movl   $0xfffffffe,-0x30(%ebp)
    1797:	8b 45 d0             	mov    -0x30(%ebp),%eax
    179a:	83 c4 3c             	add    $0x3c,%esp
    179d:	5b                   	pop    %ebx
    179e:	5e                   	pop    %esi
    179f:	5f                   	pop    %edi
    17a0:	5d                   	pop    %ebp
    17a1:	c3                   	ret    
    17a2:	8d b6 00 00 00 00    	lea    0x0(%esi),%esi
    17a8:	8b 07                	mov    (%edi),%eax
    17aa:	89 04 24             	mov    %eax,(%esp)
    17ad:	e8 2e 12 00 00       	call   29e0 <ddf_dev_get_name>
    17b2:	c7 44 24 04 8c 66 02 	movl   $0x2668c,0x4(%esp)
    17b9:	00 
    17ba:	89 44 24 08          	mov    %eax,0x8(%esp)
    17be:	c7 04 24 01 00 00 00 	movl   $0x1,(%esp)
    17c5:	e8 56 1d 00 00       	call   3520 <ddf_msg>
    17ca:	eb a3                	jmp    176f <ns8250_dev_add+0x1bf>
    17cc:	8d 74 26 00          	lea    0x0(%esi,%eiz,1),%esi
    17d0:	80 7d d6 00          	cmpb   $0x0,-0x2a(%ebp)
    17d4:	0f 84 6c ff ff ff    	je     1746 <ns8250_dev_add+0x196>
    17da:	8b 45 e4             	mov    -0x1c(%ebp),%eax
    17dd:	85 c0                	test   %eax,%eax
    17df:	74 08                	je     17e9 <ns8250_dev_add+0x239>
    17e1:	89 04 24             	mov    %eax,(%esp)
    17e4:	e8 87 5d 01 00       	call   17570 <free>
    17e9:	8b 07                	mov    (%edi),%eax
    17eb:	89 04 24             	mov    %eax,(%esp)
    17ee:	e8 ed 11 00 00       	call   29e0 <ddf_dev_get_name>
    17f3:	c7 44 24 04 61 65 02 	movl   $0x26561,0x4(%esp)
    17fa:	00 
    17fb:	89 44 24 08          	mov    %eax,0x8(%esp)
    17ff:	c7 04 24 04 00 00 00 	movl   $0x4,(%esp)
    1806:	e8 15 1d 00 00       	call   3520 <ddf_msg>
    180b:	8d 47 18             	lea    0x18(%edi),%eax
    180e:	89 44 24 08          	mov    %eax,0x8(%esp)
    1812:	c7 44 24 04 07 00 00 	movl   $0x7,0x4(%esp)
    1819:	00 
    181a:	8b 47 14             	mov    0x14(%edi),%eax
    181d:	89 04 24             	mov    %eax,(%esp)
    1820:	e8 fb 64 00 00       	call   7d20 <pio_enable>
    1825:	85 c0                	test   %eax,%eax
    1827:	0f 85 2c 01 00 00    	jne    1959 <ns8250_dev_add+0x3a9>
    182d:	8b 47 18             	mov    0x18(%edi),%eax
    1830:	89 47 08             	mov    %eax,0x8(%edi)
    1833:	8b 07                	mov    (%edi),%eax
    1835:	89 04 24             	mov    %eax,(%esp)
    1838:	e8 a3 11 00 00       	call   29e0 <ddf_dev_get_name>
    183d:	c7 44 24 04 76 65 02 	movl   $0x26576,0x4(%esp)
    1844:	00 
    1845:	89 44 24 08          	mov    %eax,0x8(%esp)
    1849:	c7 04 24 04 00 00 00 	movl   $0x4,(%esp)
    1850:	e8 cb 1c 00 00       	call   3520 <ddf_msg>
    1855:	8b 47 08             	mov    0x8(%edi),%eax
    1858:	83 c0 04             	add    $0x4,%eax
    185b:	89 04 24             	mov    %eax,(%esp)
    185e:	e8 9d 66 00 00       	call   7f00 <pio_read_8>
    1863:	c7 44 24 04 10 00 00 	movl   $0x10,0x4(%esp)
    186a:	00 
    186b:	88 c3                	mov    %al,%bl
    186d:	8b 47 08             	mov    0x8(%edi),%eax
    1870:	83 c0 04             	add    $0x4,%eax
    1873:	81 e3 ff 00 00 00    	and    $0xff,%ebx
    1879:	89 04 24             	mov    %eax,(%esp)
    187c:	e8 8f 65 00 00       	call   7e10 <pio_write_8>
    1881:	8b 47 08             	mov    0x8(%edi),%eax
    1884:	83 c0 06             	add    $0x6,%eax
    1887:	89 04 24             	mov    %eax,(%esp)
    188a:	e8 71 66 00 00       	call   7f00 <pio_read_8>
    188f:	c7 44 24 04 1f 00 00 	movl   $0x1f,0x4(%esp)
    1896:	00 
    1897:	89 c6                	mov    %eax,%esi
    1899:	8b 47 08             	mov    0x8(%edi),%eax
    189c:	83 c0 04             	add    $0x4,%eax
    189f:	89 04 24             	mov    %eax,(%esp)
    18a2:	e8 69 65 00 00       	call   7e10 <pio_write_8>
    18a7:	8b 47 08             	mov    0x8(%edi),%eax
    18aa:	83 c0 06             	add    $0x6,%eax
    18ad:	89 04 24             	mov    %eax,(%esp)
    18b0:	e8 4b 66 00 00       	call   7f00 <pio_read_8>
    18b5:	89 5c 24 04          	mov    %ebx,0x4(%esp)
    18b9:	83 e0 f0             	and    $0xfffffff0,%eax
    18bc:	3c f0                	cmp    $0xf0,%al
    18be:	8b 47 08             	mov    0x8(%edi),%eax
    18c1:	0f 84 c7 00 00 00    	je     198e <ns8250_dev_add+0x3de>
    18c7:	83 c0 04             	add    $0x4,%eax
    18ca:	89 04 24             	mov    %eax,(%esp)
    18cd:	e8 3e 65 00 00       	call   7e10 <pio_write_8>
    18d2:	8b 07                	mov    (%edi),%eax
    18d4:	89 04 24             	mov    %eax,(%esp)
    18d7:	e8 04 11 00 00       	call   29e0 <ddf_dev_get_name>
    18dc:	c7 44 24 04 8a 65 02 	movl   $0x2658a,0x4(%esp)
    18e3:	00 
    18e4:	89 44 24 08          	mov    %eax,0x8(%esp)
    18e8:	c7 04 24 04 00 00 00 	movl   $0x4,(%esp)
    18ef:	e8 2c 1c 00 00       	call   3520 <ddf_msg>
    18f4:	c7 45 d0 ff ff ff ff 	movl   $0xffffffff,-0x30(%ebp)
    18fb:	e9 97 fe ff ff       	jmp    1797 <ns8250_dev_add+0x1e7>
    1900:	8b 07                	mov    (%edi),%eax
    1902:	89 04 24             	mov    %eax,(%esp)
    1905:	e8 d6 10 00 00       	call   29e0 <ddf_dev_get_name>
    190a:	c7 44 24 04 30 66 02 	movl   $0x26630,0x4(%esp)
    1911:	00 
    1912:	89 44 24 08          	mov    %eax,0x8(%esp)
    1916:	c7 04 24 01 00 00 00 	movl   $0x1,(%esp)
    191d:	e8 fe 1b 00 00       	call   3520 <ddf_msg>
    1922:	c7 45 d0 ff ff ff ff 	movl   $0xffffffff,-0x30(%ebp)
    1929:	e9 41 fe ff ff       	jmp    176f <ns8250_dev_add+0x1bf>
    192e:	66 90                	xchg   %ax,%ax
    1930:	e8 ab 10 00 00       	call   29e0 <ddf_dev_get_name>
    1935:	c7 44 24 04 dc 66 02 	movl   $0x266dc,0x4(%esp)
    193c:	00 
    193d:	89 44 24 08          	mov    %eax,0x8(%esp)
    1941:	c7 04 24 01 00 00 00 	movl   $0x1,(%esp)
    1948:	e8 d3 1b 00 00       	call   3520 <ddf_msg>
    194d:	c7 45 d0 fd ff ff ff 	movl   $0xfffffffd,-0x30(%ebp)
    1954:	e9 16 fe ff ff       	jmp    176f <ns8250_dev_add+0x1bf>
    1959:	8b 07                	mov    (%edi),%eax
    195b:	89 04 24             	mov    %eax,(%esp)
    195e:	e8 7d 10 00 00       	call   29e0 <ddf_dev_get_name>
    1963:	89 44 24 0c          	mov    %eax,0xc(%esp)
    1967:	8b 47 14             	mov    0x14(%edi),%eax
    196a:	c7 44 24 04 38 67 02 	movl   $0x26738,0x4(%esp)
    1971:	00 
    1972:	89 44 24 08          	mov    %eax,0x8(%esp)
    1976:	c7 04 24 01 00 00 00 	movl   $0x1,(%esp)
    197d:	e8 9e 1b 00 00       	call   3520 <ddf_msg>
    1982:	c7 45 d0 f4 ff ff ff 	movl   $0xfffffff4,-0x30(%ebp)
    1989:	e9 09 fe ff ff       	jmp    1797 <ns8250_dev_add+0x1e7>
    198e:	83 c0 04             	add    $0x4,%eax
    1991:	89 04 24             	mov    %eax,(%esp)
    1994:	e8 77 64 00 00       	call   7e10 <pio_write_8>
    1999:	81 e6 f0 00 00 00    	and    $0xf0,%esi
    199f:	0f 85 2d ff ff ff    	jne    18d2 <ns8250_dev_add+0x322>
    19a5:	c7 44 24 04 00 00 00 	movl   $0x0,0x4(%esp)
    19ac:	00 
    19ad:	8b 47 08             	mov    0x8(%edi),%eax
    19b0:	40                   	inc    %eax
    19b1:	89 04 24             	mov    %eax,(%esp)
    19b4:	e8 57 64 00 00       	call   7e10 <pio_write_8>
    19b9:	8b 77 08             	mov    0x8(%edi),%esi
    19bc:	8d 5e 03             	lea    0x3(%esi),%ebx
    19bf:	89 1c 24             	mov    %ebx,(%esp)
    19c2:	e8 39 65 00 00       	call   7f00 <pio_read_8>
    19c7:	89 1c 24             	mov    %ebx,(%esp)
    19ca:	83 c8 80             	or     $0xffffff80,%eax
    19cd:	25 ff 00 00 00       	and    $0xff,%eax
    19d2:	89 44 24 04          	mov    %eax,0x4(%esp)
    19d6:	e8 35 64 00 00       	call   7e10 <pio_write_8>
    19db:	89 34 24             	mov    %esi,(%esp)
    19de:	c7 44 24 04 03 00 00 	movl   $0x3,0x4(%esp)
    19e5:	00 
    19e6:	46                   	inc    %esi
    19e7:	e8 24 64 00 00       	call   7e10 <pio_write_8>
    19ec:	c7 44 24 04 00 00 00 	movl   $0x0,0x4(%esp)
    19f3:	00 
    19f4:	89 34 24             	mov    %esi,(%esp)
    19f7:	e8 14 64 00 00       	call   7e10 <pio_write_8>
    19fc:	89 1c 24             	mov    %ebx,(%esp)
    19ff:	e8 fc 64 00 00       	call   7f00 <pio_read_8>
    1a04:	89 1c 24             	mov    %ebx,(%esp)
    1a07:	83 e0 7f             	and    $0x7f,%eax
    1a0a:	89 44 24 04          	mov    %eax,0x4(%esp)
    1a0e:	e8 fd 63 00 00       	call   7e10 <pio_write_8>
    1a13:	c7 44 24 04 13 00 00 	movl   $0x13,0x4(%esp)
    1a1a:	00 
    1a1b:	8b 47 08             	mov    0x8(%edi),%eax
    1a1e:	83 c0 03             	add    $0x3,%eax
    1a21:	89 04 24             	mov    %eax,(%esp)
    1a24:	e8 e7 63 00 00       	call   7e10 <pio_write_8>
    1a29:	c7 44 24 04 47 00 00 	movl   $0x47,0x4(%esp)
    1a30:	00 
    1a31:	8b 47 08             	mov    0x8(%edi),%eax
    1a34:	83 c0 02             	add    $0x2,%eax
    1a37:	89 04 24             	mov    %eax,(%esp)
    1a3a:	e8 d1 63 00 00       	call   7e10 <pio_write_8>
    1a3f:	c7 44 24 04 0b 00 00 	movl   $0xb,0x4(%esp)
    1a46:	00 
    1a47:	8b 47 08             	mov    0x8(%edi),%eax
    1a4a:	83 c0 04             	add    $0x4,%eax
    1a4d:	89 04 24             	mov    %eax,(%esp)
    1a50:	e8 bb 63 00 00       	call   7e10 <pio_write_8>
    1a55:	c7 44 24 0c 00 00 00 	movl   $0x0,0xc(%esp)
    1a5c:	00 
    1a5d:	c7 44 24 08 c0 10 00 	movl   $0x10c0,0x8(%esp)
    1a64:	00 
    1a65:	8b 47 10             	mov    0x10(%edi),%eax
    1a68:	89 44 24 04          	mov    %eax,0x4(%esp)
    1a6c:	8b 07                	mov    (%edi),%eax
    1a6e:	89 04 24             	mov    %eax,(%esp)
    1a71:	e8 9a 18 00 00       	call   3310 <register_interrupt_handler>
    1a76:	85 c0                	test   %eax,%eax
    1a78:	74 20                	je     1a9a <ns8250_dev_add+0x4ea>
    1a7a:	c7 44 24 04 60 67 02 	movl   $0x26760,0x4(%esp)
    1a81:	00 
    1a82:	c7 04 24 01 00 00 00 	movl   $0x1,(%esp)
    1a89:	e8 92 1a 00 00       	call   3520 <ddf_msg>
    1a8e:	c7 45 d0 f4 ff ff ff 	movl   $0xfffffff4,-0x30(%ebp)
    1a95:	e9 fd fc ff ff       	jmp    1797 <ns8250_dev_add+0x1e7>
    1a9a:	c7 44 24 0c 00 00 00 	movl   $0x0,0xc(%esp)
    1aa1:	00 
    1aa2:	c7 44 24 08 00 00 00 	movl   $0x0,0x8(%esp)
    1aa9:	00 
    1aaa:	c7 44 24 04 69 72 63 	movl   $0x20637269,0x4(%esp)
    1ab1:	20 
    1ab2:	c7 04 24 02 00 00 00 	movl   $0x2,(%esp)
    1ab9:	e8 32 62 01 00       	call   17cf0 <service_connect_blocking>
    1abe:	85 c0                	test   %eax,%eax
    1ac0:	0f 84 1d 01 00 00    	je     1be3 <ns8250_dev_add+0x633>
    1ac6:	89 04 24             	mov    %eax,(%esp)
    1ac9:	e8 d2 8e 01 00       	call   1a9a0 <async_exchange_begin>
    1ace:	89 c3                	mov    %eax,%ebx
    1ad0:	85 c0                	test   %eax,%eax
    1ad2:	0f 84 0b 01 00 00    	je     1be3 <ns8250_dev_add+0x633>
    1ad8:	8b 47 10             	mov    0x10(%edi),%eax
    1adb:	89 1c 24             	mov    %ebx,(%esp)
    1ade:	89 44 24 08          	mov    %eax,0x8(%esp)
    1ae2:	c7 44 24 04 00 04 00 	movl   $0x400,0x4(%esp)
    1ae9:	00 
    1aea:	e8 d1 82 01 00       	call   19dc0 <async_msg_1>
    1aef:	89 1c 24             	mov    %ebx,(%esp)
    1af2:	e8 19 92 01 00       	call   1ad10 <async_exchange_end>
    1af7:	8b 47 08             	mov    0x8(%edi),%eax
    1afa:	83 c0 05             	add    $0x5,%eax
    1afd:	89 04 24             	mov    %eax,(%esp)
    1b00:	e8 fb 63 00 00       	call   7f00 <pio_read_8>
    1b05:	8b 5f 08             	mov    0x8(%edi),%ebx
    1b08:	8d 43 01             	lea    0x1(%ebx),%eax
    1b0b:	c7 44 24 04 05 00 00 	movl   $0x5,0x4(%esp)
    1b12:	00 
    1b13:	89 04 24             	mov    %eax,(%esp)
    1b16:	83 c3 04             	add    $0x4,%ebx
    1b19:	e8 f2 62 00 00       	call   7e10 <pio_write_8>
    1b1e:	89 1c 24             	mov    %ebx,(%esp)
    1b21:	c7 44 24 04 0b 00 00 	movl   $0xb,0x4(%esp)
    1b28:	00 
    1b29:	e8 e2 62 00 00       	call   7e10 <pio_write_8>
    1b2e:	8b 45 08             	mov    0x8(%ebp),%eax
    1b31:	c7 44 24 08 c9 78 02 	movl   $0x278c9,0x8(%esp)
    1b38:	00 
    1b39:	c7 44 24 04 02 00 00 	movl   $0x2,0x4(%esp)
    1b40:	00 
    1b41:	89 04 24             	mov    %eax,(%esp)
    1b44:	e8 77 0f 00 00       	call   2ac0 <ddf_fun_create>
    1b49:	89 c3                	mov    %eax,%ebx
    1b4b:	85 c0                	test   %eax,%eax
    1b4d:	74 7b                	je     1bca <ns8250_dev_add+0x61a>
    1b4f:	89 04 24             	mov    %eax,(%esp)
    1b52:	c7 44 24 04 a0 9d 02 	movl   $0x29da0,0x4(%esp)
    1b59:	00 
    1b5a:	e8 f1 14 00 00       	call   3050 <ddf_fun_set_ops>
    1b5f:	89 1c 24             	mov    %ebx,(%esp)
    1b62:	e8 e9 11 00 00       	call   2d50 <ddf_fun_bind>
    1b67:	89 45 d0             	mov    %eax,-0x30(%ebp)
    1b6a:	85 c0                	test   %eax,%eax
    1b6c:	74 21                	je     1b8f <ns8250_dev_add+0x5df>
    1b6e:	c7 44 24 04 be 65 02 	movl   $0x265be,0x4(%esp)
    1b75:	00 
    1b76:	c7 04 24 01 00 00 00 	movl   $0x1,(%esp)
    1b7d:	e8 9e 19 00 00       	call   3520 <ddf_msg>
    1b82:	89 1c 24             	mov    %ebx,(%esp)
    1b85:	e8 b6 10 00 00       	call   2c40 <ddf_fun_destroy>
    1b8a:	e9 08 fc ff ff       	jmp    1797 <ns8250_dev_add+0x1e7>
    1b8f:	89 5f 04             	mov    %ebx,0x4(%edi)
    1b92:	c7 44 24 04 d7 65 02 	movl   $0x265d7,0x4(%esp)
    1b99:	00 
    1b9a:	89 1c 24             	mov    %ebx,(%esp)
    1b9d:	e8 2e 15 00 00       	call   30d0 <ddf_fun_add_to_category>
    1ba2:	8b 45 08             	mov    0x8(%ebp),%eax
    1ba5:	89 04 24             	mov    %eax,(%esp)
    1ba8:	e8 33 0e 00 00       	call   29e0 <ddf_dev_get_name>
    1bad:	c7 44 24 04 88 67 02 	movl   $0x26788,0x4(%esp)
    1bb4:	00 
    1bb5:	89 44 24 08          	mov    %eax,0x8(%esp)
    1bb9:	c7 04 24 03 00 00 00 	movl   $0x3,(%esp)
    1bc0:	e8 5b 19 00 00       	call   3520 <ddf_msg>
    1bc5:	e9 cd fb ff ff       	jmp    1797 <ns8250_dev_add+0x1e7>
    1bca:	c7 44 24 04 a4 65 02 	movl   $0x265a4,0x4(%esp)
    1bd1:	00 
    1bd2:	c7 04 24 01 00 00 00 	movl   $0x1,(%esp)
    1bd9:	e8 42 19 00 00       	call   3520 <ddf_msg>
    1bde:	e9 b4 fb ff ff       	jmp    1797 <ns8250_dev_add+0x1e7>
    1be3:	c7 44 24 08 f7 fe ff 	movl   $0xfffffef7,0x8(%esp)
    1bea:	ff 
    1beb:	c7 44 24 04 ac 67 02 	movl   $0x267ac,0x4(%esp)
    1bf2:	00 
    1bf3:	c7 04 24 01 00 00 00 	movl   $0x1,(%esp)
    1bfa:	e8 21 19 00 00       	call   3520 <ddf_msg>
    1bff:	c7 45 d0 f7 fe ff ff 	movl   $0xfffffef7,-0x30(%ebp)
    1c06:	e9 8c fb ff ff       	jmp    1797 <ns8250_dev_add+0x1e7>
    1c0b:	90                   	nop
    1c0c:	8d 74 26 00          	lea    0x0(%esi,%eiz,1),%esi

00001c10 <ns8250_default_handler>:
    1c10:	55                   	push   %ebp
    1c11:	89 e5                	mov    %esp,%ebp
    1c13:	57                   	push   %edi
    1c14:	56                   	push   %esi
    1c15:	53                   	push   %ebx
    1c16:	83 ec 4c             	sub    $0x4c,%esp
    1c19:	8b 45 0c             	mov    0xc(%ebp),%eax
    1c1c:	8b 4d 08             	mov    0x8(%ebp),%ecx
    1c1f:	89 45 dc             	mov    %eax,-0x24(%ebp)
    1c22:	8b 45 10             	mov    0x10(%ebp),%eax
    1c25:	8b 10                	mov    (%eax),%edx
    1c27:	81 fa 0b 04 00 00    	cmp    $0x40b,%edx
    1c2d:	74 29                	je     1c58 <ns8250_default_handler+0x48>
    1c2f:	81 fa 0c 04 00 00    	cmp    $0x40c,%edx
    1c35:	0f 84 95 01 00 00    	je     1dd0 <ns8250_default_handler+0x1c0>
    1c3b:	8b 55 dc             	mov    -0x24(%ebp),%edx
    1c3e:	c7 45 0c f5 ff ff ff 	movl   $0xfffffff5,0xc(%ebp)
    1c45:	89 55 08             	mov    %edx,0x8(%ebp)
    1c48:	83 c4 4c             	add    $0x4c,%esp
    1c4b:	5b                   	pop    %ebx
    1c4c:	5e                   	pop    %esi
    1c4d:	5f                   	pop    %edi
    1c4e:	5d                   	pop    %ebp
    1c4f:	e9 4c 83 01 00       	jmp    19fa0 <async_answer_0>
    1c54:	8d 74 26 00          	lea    0x0(%esi,%eiz,1),%esi
    1c58:	89 0c 24             	mov    %ecx,(%esp)
    1c5b:	e8 40 0e 00 00       	call   2aa0 <ddf_fun_get_dev>
    1c60:	89 04 24             	mov    %eax,(%esp)
    1c63:	e8 58 0d 00 00       	call   29c0 <ddf_dev_data_get>
    1c68:	8b 70 08             	mov    0x8(%eax),%esi
    1c6b:	05 24 10 00 00       	add    $0x1024,%eax
    1c70:	89 04 24             	mov    %eax,(%esp)
    1c73:	89 45 e4             	mov    %eax,-0x1c(%ebp)
    1c76:	e8 05 c5 00 00       	call   e180 <fibril_mutex_lock>
    1c7b:	8d 4e 01             	lea    0x1(%esi),%ecx
    1c7e:	89 0c 24             	mov    %ecx,(%esp)
    1c81:	8d 5e 03             	lea    0x3(%esi),%ebx
    1c84:	c7 44 24 04 00 00 00 	movl   $0x0,0x4(%esp)
    1c8b:	00 
    1c8c:	89 4d cc             	mov    %ecx,-0x34(%ebp)
    1c8f:	e8 7c 61 00 00       	call   7e10 <pio_write_8>
    1c94:	89 1c 24             	mov    %ebx,(%esp)
    1c97:	e8 64 62 00 00       	call   7f00 <pio_read_8>
    1c9c:	89 1c 24             	mov    %ebx,(%esp)
    1c9f:	83 c8 80             	or     $0xffffff80,%eax
    1ca2:	25 ff 00 00 00       	and    $0xff,%eax
    1ca7:	89 44 24 04          	mov    %eax,0x4(%esp)
    1cab:	e8 60 61 00 00       	call   7e10 <pio_write_8>
    1cb0:	89 34 24             	mov    %esi,(%esp)
    1cb3:	e8 48 62 00 00       	call   7f00 <pio_read_8>
    1cb8:	8b 4d cc             	mov    -0x34(%ebp),%ecx
    1cbb:	89 0c 24             	mov    %ecx,(%esp)
    1cbe:	89 c7                	mov    %eax,%edi
    1cc0:	e8 3b 62 00 00       	call   7f00 <pio_read_8>
    1cc5:	89 1c 24             	mov    %ebx,(%esp)
    1cc8:	88 45 c8             	mov    %al,-0x38(%ebp)
    1ccb:	e8 30 62 00 00       	call   7f00 <pio_read_8>
    1cd0:	83 e0 7f             	and    $0x7f,%eax
    1cd3:	89 1c 24             	mov    %ebx,(%esp)
    1cd6:	89 44 24 04          	mov    %eax,0x4(%esp)
    1cda:	81 e7 ff 00 00 00    	and    $0xff,%edi
    1ce0:	e8 2b 61 00 00       	call   7e10 <pio_write_8>
    1ce5:	8a 55 c8             	mov    -0x38(%ebp),%dl
    1ce8:	c1 e2 08             	shl    $0x8,%edx
    1ceb:	b8 00 c2 01 00       	mov    $0x1c200,%eax
    1cf0:	09 fa                	or     %edi,%edx
    1cf2:	89 1c 24             	mov    %ebx,(%esp)
    1cf5:	89 d7                	mov    %edx,%edi
    1cf7:	89 c2                	mov    %eax,%edx
    1cf9:	c1 fa 1f             	sar    $0x1f,%edx
    1cfc:	81 e7 ff ff 00 00    	and    $0xffff,%edi
    1d02:	f7 ff                	idiv   %edi
    1d04:	89 45 e0             	mov    %eax,-0x20(%ebp)
    1d07:	e8 f4 61 00 00       	call   7f00 <pio_read_8>
    1d0c:	88 c2                	mov    %al,%dl
    1d0e:	8b 4d cc             	mov    -0x34(%ebp),%ecx
    1d11:	83 e2 03             	and    $0x3,%edx
    1d14:	80 fa 02             	cmp    $0x2,%dl
    1d17:	0f 84 3b 02 00 00    	je     1f58 <ns8250_default_handler+0x348>
    1d1d:	80 fa 03             	cmp    $0x3,%dl
    1d20:	0f 84 22 02 00 00    	je     1f48 <ns8250_default_handler+0x338>
    1d26:	fe ca                	dec    %dl
    1d28:	0f 94 c3             	sete   %bl
    1d2b:	81 e3 ff 00 00 00    	and    $0xff,%ebx
    1d31:	83 c3 05             	add    $0x5,%ebx
    1d34:	c0 e8 04             	shr    $0x4,%al
    1d37:	89 0c 24             	mov    %ecx,(%esp)
    1d3a:	83 e0 01             	and    $0x1,%eax
    1d3d:	c7 44 24 04 05 00 00 	movl   $0x5,0x4(%esp)
    1d44:	00 
    1d45:	3c 01                	cmp    $0x1,%al
    1d47:	19 ff                	sbb    %edi,%edi
    1d49:	83 c6 04             	add    $0x4,%esi
    1d4c:	e8 bf 60 00 00       	call   7e10 <pio_write_8>
    1d51:	89 34 24             	mov    %esi,(%esp)
    1d54:	c7 44 24 04 0b 00 00 	movl   $0xb,0x4(%esp)
    1d5b:	00 
    1d5c:	83 c7 02             	add    $0x2,%edi
    1d5f:	e8 ac 60 00 00       	call   7e10 <pio_write_8>
    1d64:	8b 55 e4             	mov    -0x1c(%ebp),%edx
    1d67:	89 14 24             	mov    %edx,(%esp)
    1d6a:	e8 31 c5 00 00       	call   e2a0 <fibril_mutex_unlock>
    1d6f:	8b 45 e0             	mov    -0x20(%ebp),%eax
    1d72:	89 7c 24 14          	mov    %edi,0x14(%esp)
    1d76:	89 5c 24 10          	mov    %ebx,0x10(%esp)
    1d7a:	89 44 24 08          	mov    %eax,0x8(%esp)
    1d7e:	c7 44 24 0c 00 00 00 	movl   $0x0,0xc(%esp)
    1d85:	00 
    1d86:	c7 44 24 04 e0 67 02 	movl   $0x267e0,0x4(%esp)
    1d8d:	00 
    1d8e:	c7 04 24 04 00 00 00 	movl   $0x4,(%esp)
    1d95:	e8 86 17 00 00       	call   3520 <ddf_msg>
    1d9a:	8b 45 e0             	mov    -0x20(%ebp),%eax
    1d9d:	8b 55 dc             	mov    -0x24(%ebp),%edx
    1da0:	89 7c 24 14          	mov    %edi,0x14(%esp)
    1da4:	89 5c 24 10          	mov    %ebx,0x10(%esp)
    1da8:	c7 44 24 0c 00 00 00 	movl   $0x0,0xc(%esp)
    1daf:	00 
    1db0:	89 44 24 08          	mov    %eax,0x8(%esp)
    1db4:	c7 44 24 04 00 00 00 	movl   $0x0,0x4(%esp)
    1dbb:	00 
    1dbc:	89 14 24             	mov    %edx,(%esp)
    1dbf:	e8 dc 82 01 00       	call   1a0a0 <async_answer_4>
    1dc4:	83 c4 4c             	add    $0x4c,%esp
    1dc7:	5b                   	pop    %ebx
    1dc8:	5e                   	pop    %esi
    1dc9:	5f                   	pop    %edi
    1dca:	5d                   	pop    %ebp
    1dcb:	c3                   	ret    
    1dcc:	8d 74 26 00          	lea    0x0(%esi,%eiz,1),%esi
    1dd0:	8b 50 08             	mov    0x8(%eax),%edx
    1dd3:	8b 70 04             	mov    0x4(%eax),%esi
    1dd6:	89 55 d0             	mov    %edx,-0x30(%ebp)
    1dd9:	8b 50 0c             	mov    0xc(%eax),%edx
    1ddc:	8b 40 10             	mov    0x10(%eax),%eax
    1ddf:	89 0c 24             	mov    %ecx,(%esp)
    1de2:	89 55 e0             	mov    %edx,-0x20(%ebp)
    1de5:	89 45 d4             	mov    %eax,-0x2c(%ebp)
    1de8:	e8 b3 0c 00 00       	call   2aa0 <ddf_fun_get_dev>
    1ded:	8b 55 e0             	mov    -0x20(%ebp),%edx
    1df0:	89 c3                	mov    %eax,%ebx
    1df2:	8b 45 d4             	mov    -0x2c(%ebp),%eax
    1df5:	89 44 24 14          	mov    %eax,0x14(%esp)
    1df9:	8b 45 d0             	mov    -0x30(%ebp),%eax
    1dfc:	89 54 24 10          	mov    %edx,0x10(%esp)
    1e00:	89 44 24 0c          	mov    %eax,0xc(%esp)
    1e04:	89 74 24 08          	mov    %esi,0x8(%esp)
    1e08:	c7 44 24 04 2c 68 02 	movl   $0x2682c,0x4(%esp)
    1e0f:	00 
    1e10:	c7 04 24 04 00 00 00 	movl   $0x4,(%esp)
    1e17:	e8 04 17 00 00       	call   3520 <ddf_msg>
    1e1c:	89 1c 24             	mov    %ebx,(%esp)
    1e1f:	e8 9c 0b 00 00       	call   29c0 <ddf_dev_data_get>
    1e24:	8b 78 08             	mov    0x8(%eax),%edi
    1e27:	05 24 10 00 00       	add    $0x1024,%eax
    1e2c:	89 04 24             	mov    %eax,(%esp)
    1e2f:	89 45 d8             	mov    %eax,-0x28(%ebp)
    1e32:	e8 49 c3 00 00       	call   e180 <fibril_mutex_lock>
    1e37:	8d 57 01             	lea    0x1(%edi),%edx
    1e3a:	c7 44 24 04 00 00 00 	movl   $0x0,0x4(%esp)
    1e41:	00 
    1e42:	89 14 24             	mov    %edx,(%esp)
    1e45:	89 55 e4             	mov    %edx,-0x1c(%ebp)
    1e48:	e8 c3 5f 00 00       	call   7e10 <pio_write_8>
    1e4d:	83 fe 31             	cmp    $0x31,%esi
    1e50:	0f 86 6a 01 00 00    	jbe    1fc0 <ns8250_default_handler+0x3b0>
    1e56:	31 d2                	xor    %edx,%edx
    1e58:	b8 00 c2 01 00       	mov    $0x1c200,%eax
    1e5d:	f7 f6                	div    %esi
    1e5f:	89 c3                	mov    %eax,%ebx
    1e61:	85 d2                	test   %edx,%edx
    1e63:	0f 85 57 01 00 00    	jne    1fc0 <ns8250_default_handler+0x3b0>
    1e69:	8d 77 03             	lea    0x3(%edi),%esi
    1e6c:	89 34 24             	mov    %esi,(%esp)
    1e6f:	e8 8c 60 00 00       	call   7f00 <pio_read_8>
    1e74:	89 34 24             	mov    %esi,(%esp)
    1e77:	83 c8 80             	or     $0xffffff80,%eax
    1e7a:	25 ff 00 00 00       	and    $0xff,%eax
    1e7f:	89 44 24 04          	mov    %eax,0x4(%esp)
    1e83:	e8 88 5f 00 00       	call   7e10 <pio_write_8>
    1e88:	89 3c 24             	mov    %edi,(%esp)
    1e8b:	0f b6 c3             	movzbl %bl,%eax
    1e8e:	89 44 24 04          	mov    %eax,0x4(%esp)
    1e92:	e8 79 5f 00 00       	call   7e10 <pio_write_8>
    1e97:	8b 45 e4             	mov    -0x1c(%ebp),%eax
    1e9a:	0f b6 df             	movzbl %bh,%ebx
    1e9d:	89 04 24             	mov    %eax,(%esp)
    1ea0:	89 5c 24 04          	mov    %ebx,0x4(%esp)
    1ea4:	e8 67 5f 00 00       	call   7e10 <pio_write_8>
    1ea9:	89 34 24             	mov    %esi,(%esp)
    1eac:	e8 4f 60 00 00       	call   7f00 <pio_read_8>
    1eb1:	89 34 24             	mov    %esi,(%esp)
    1eb4:	83 e0 7f             	and    $0x7f,%eax
    1eb7:	89 44 24 04          	mov    %eax,0x4(%esp)
    1ebb:	e8 50 5f 00 00       	call   7e10 <pio_write_8>
    1ec0:	83 7d e0 06          	cmpl   $0x6,-0x20(%ebp)
    1ec4:	0f 84 ce 00 00 00    	je     1f98 <ns8250_default_handler+0x388>
    1eca:	77 5c                	ja     1f28 <ns8250_default_handler+0x318>
    1ecc:	83 7d e0 05          	cmpl   $0x5,-0x20(%ebp)
    1ed0:	0f 84 92 00 00 00    	je     1f68 <ns8250_default_handler+0x358>
    1ed6:	bb f2 ff ff ff       	mov    $0xfffffff2,%ebx
    1edb:	8b 45 e4             	mov    -0x1c(%ebp),%eax
    1ede:	c7 44 24 04 05 00 00 	movl   $0x5,0x4(%esp)
    1ee5:	00 
    1ee6:	89 04 24             	mov    %eax,(%esp)
    1ee9:	e8 22 5f 00 00       	call   7e10 <pio_write_8>
    1eee:	8d 47 04             	lea    0x4(%edi),%eax
    1ef1:	89 04 24             	mov    %eax,(%esp)
    1ef4:	c7 44 24 04 0b 00 00 	movl   $0xb,0x4(%esp)
    1efb:	00 
    1efc:	e8 0f 5f 00 00       	call   7e10 <pio_write_8>
    1f01:	8b 55 d8             	mov    -0x28(%ebp),%edx
    1f04:	89 14 24             	mov    %edx,(%esp)
    1f07:	e8 94 c3 00 00       	call   e2a0 <fibril_mutex_unlock>
    1f0c:	8b 45 dc             	mov    -0x24(%ebp),%eax
    1f0f:	89 5d 0c             	mov    %ebx,0xc(%ebp)
    1f12:	89 45 08             	mov    %eax,0x8(%ebp)
    1f15:	83 c4 4c             	add    $0x4c,%esp
    1f18:	5b                   	pop    %ebx
    1f19:	5e                   	pop    %esi
    1f1a:	5f                   	pop    %edi
    1f1b:	5d                   	pop    %ebp
    1f1c:	e9 7f 80 01 00       	jmp    19fa0 <async_answer_0>
    1f21:	8d b4 26 00 00 00 00 	lea    0x0(%esi,%eiz,1),%esi
    1f28:	83 7d e0 07          	cmpl   $0x7,-0x20(%ebp)
    1f2c:	0f 84 b6 00 00 00    	je     1fe8 <ns8250_default_handler+0x3d8>
    1f32:	83 7d e0 08          	cmpl   $0x8,-0x20(%ebp)
    1f36:	75 9e                	jne    1ed6 <ns8250_default_handler+0x2c6>
    1f38:	b8 03 00 00 00       	mov    $0x3,%eax
    1f3d:	ba 13 00 00 00       	mov    $0x13,%edx
    1f42:	eb 2b                	jmp    1f6f <ns8250_default_handler+0x35f>
    1f44:	8d 74 26 00          	lea    0x0(%esi,%eiz,1),%esi
    1f48:	bb 08 00 00 00       	mov    $0x8,%ebx
    1f4d:	e9 e2 fd ff ff       	jmp    1d34 <ns8250_default_handler+0x124>
    1f52:	8d b6 00 00 00 00    	lea    0x0(%esi),%esi
    1f58:	bb 07 00 00 00       	mov    $0x7,%ebx
    1f5d:	e9 d2 fd ff ff       	jmp    1d34 <ns8250_default_handler+0x124>
    1f62:	8d b6 00 00 00 00    	lea    0x0(%esi),%esi
    1f68:	31 c0                	xor    %eax,%eax
    1f6a:	ba 10 00 00 00       	mov    $0x10,%edx
    1f6f:	83 7d d4 01          	cmpl   $0x1,-0x2c(%ebp)
    1f73:	74 0c                	je     1f81 <ns8250_default_handler+0x371>
    1f75:	83 7d d4 02          	cmpl   $0x2,-0x2c(%ebp)
    1f79:	0f 85 57 ff ff ff    	jne    1ed6 <ns8250_default_handler+0x2c6>
    1f7f:	89 d0                	mov    %edx,%eax
    1f81:	83 7d d0 07          	cmpl   $0x7,-0x30(%ebp)
    1f85:	0f 87 4b ff ff ff    	ja     1ed6 <ns8250_default_handler+0x2c6>
    1f8b:	8b 55 d0             	mov    -0x30(%ebp),%edx
    1f8e:	ff 24 95 bc 68 02 00 	jmp    *0x268bc(,%edx,4)
    1f95:	8d 76 00             	lea    0x0(%esi),%esi
    1f98:	b8 01 00 00 00       	mov    $0x1,%eax
    1f9d:	ba 11 00 00 00       	mov    $0x11,%edx
    1fa2:	eb cb                	jmp    1f6f <ns8250_default_handler+0x35f>
    1fa4:	8d 74 26 00          	lea    0x0(%esi,%eiz,1),%esi
    1fa8:	89 44 24 04          	mov    %eax,0x4(%esp)
    1fac:	89 34 24             	mov    %esi,(%esp)
    1faf:	e8 5c 5e 00 00       	call   7e10 <pio_write_8>
    1fb4:	31 db                	xor    %ebx,%ebx
    1fb6:	e9 20 ff ff ff       	jmp    1edb <ns8250_default_handler+0x2cb>
    1fbb:	90                   	nop
    1fbc:	8d 74 26 00          	lea    0x0(%esi,%eiz,1),%esi
    1fc0:	89 74 24 08          	mov    %esi,0x8(%esp)
    1fc4:	c7 44 24 04 78 68 02 	movl   $0x26878,0x4(%esp)
    1fcb:	00 
    1fcc:	c7 04 24 01 00 00 00 	movl   $0x1,(%esp)
    1fd3:	bb f2 ff ff ff       	mov    $0xfffffff2,%ebx
    1fd8:	e8 43 15 00 00       	call   3520 <ddf_msg>
    1fdd:	e9 f9 fe ff ff       	jmp    1edb <ns8250_default_handler+0x2cb>
    1fe2:	8d b6 00 00 00 00    	lea    0x0(%esi),%esi
    1fe8:	b8 02 00 00 00       	mov    $0x2,%eax
    1fed:	ba 12 00 00 00       	mov    $0x12,%edx
    1ff2:	e9 78 ff ff ff       	jmp    1f6f <ns8250_default_handler+0x35f>
    1ff7:	66 90                	xchg   %ax,%ax
    1ff9:	66 90                	xchg   %ax,%ax
    1ffb:	66 90                	xchg   %ax,%ax
    1ffd:	66 90                	xchg   %ax,%ax
    1fff:	90                   	nop

00002000 <main>:
    2000:	55                   	push   %ebp
    2001:	89 e5                	mov    %esp,%ebp
    2003:	83 e4 f0             	and    $0xfffffff0,%esp
    2006:	83 ec 10             	sub    $0x10,%esp
    2009:	c7 04 24 98 68 02 00 	movl   $0x26898,(%esp)
    2010:	e8 fb 00 01 00       	call   12110 <printf>
    2015:	c7 04 24 de 65 02 00 	movl   $0x265de,(%esp)
    201c:	e8 ef 14 00 00       	call   3510 <ddf_log_init>
    2021:	c7 04 24 e0 98 02 00 	movl   $0x298e0,(%esp)
    2028:	c7 05 a0 9d 02 00 40 	movl   $0x1540,0x29da0
    202f:	15 00 00 
    2032:	c7 05 a4 9d 02 00 20 	movl   $0x1420,0x29da4
    2039:	14 00 00 
    203c:	c7 05 ac 9d 02 00 e8 	movl   $0x298e8,0x29dac
    2043:	98 02 00 
    2046:	c7 05 d4 9d 02 00 10 	movl   $0x1c10,0x29dd4
    204d:	1c 00 00 
    2050:	e8 db 10 00 00       	call   3130 <ddf_driver_main>
    2055:	c9                   	leave  
    2056:	c3                   	ret    
    2057:	66 90                	xchg   %ax,%ax
    2059:	66 90                	xchg   %ax,%ax
    205b:	66 90                	xchg   %ax,%ax
    205d:	66 90                	xchg   %ax,%ax
    205f:	90                   	nop

00002060 <driver_connection_gen.isra.8>:
    2060:	55                   	push   %ebp
    2061:	89 e5                	mov    %esp,%ebp
    2063:	57                   	push   %edi
    2064:	56                   	push   %esi
    2065:	53                   	push   %ebx
    2066:	83 ec 5c             	sub    $0x5c,%esp
    2069:	89 c6                	mov    %eax,%esi
    206b:	8b 7a 08             	mov    0x8(%edx),%edi
    206e:	89 55 a8             	mov    %edx,-0x58(%ebp)
    2071:	c7 04 24 04 99 02 00 	movl   $0x29904,(%esp)
    2078:	e8 03 c1 00 00       	call   e180 <fibril_mutex_lock>
    207d:	c7 04 24 04 99 02 00 	movl   $0x29904,(%esp)
    2084:	e8 27 c3 00 00       	call   e3b0 <fibril_mutex_is_locked>
    2089:	8b 55 a8             	mov    -0x58(%ebp),%edx
    208c:	84 c0                	test   %al,%al
    208e:	0f 84 a6 02 00 00    	je     233a <driver_connection_gen.isra.8+0x2da>
    2094:	a1 18 99 02 00       	mov    0x29918,%eax
    2099:	3d 14 99 02 00       	cmp    $0x29914,%eax
    209e:	75 12                	jne    20b2 <driver_connection_gen.isra.8+0x52>
    20a0:	eb 46                	jmp    20e8 <driver_connection_gen.isra.8+0x88>
    20a2:	8d b6 00 00 00 00    	lea    0x0(%esi),%esi
    20a8:	8b 40 04             	mov    0x4(%eax),%eax
    20ab:	3d 14 99 02 00       	cmp    $0x29914,%eax
    20b0:	74 36                	je     20e8 <driver_connection_gen.isra.8+0x88>
    20b2:	8d 58 d4             	lea    -0x2c(%eax),%ebx
    20b5:	3b 7b 04             	cmp    0x4(%ebx),%edi
    20b8:	75 ee                	jne    20a8 <driver_connection_gen.isra.8+0x48>
    20ba:	c7 04 24 04 99 02 00 	movl   $0x29904,(%esp)
    20c1:	89 55 a8             	mov    %edx,-0x58(%ebp)
    20c4:	e8 d7 c1 00 00       	call   e2a0 <fibril_mutex_unlock>
    20c9:	8b 43 28             	mov    0x28(%ebx),%eax
    20cc:	85 c0                	test   %eax,%eax
    20ce:	8b 55 a8             	mov    -0x58(%ebp),%edx
    20d1:	74 55                	je     2128 <driver_connection_gen.isra.8+0xc8>
    20d3:	89 5c 24 08          	mov    %ebx,0x8(%esp)
    20d7:	89 34 24             	mov    %esi,(%esp)
    20da:	89 54 24 04          	mov    %edx,0x4(%esp)
    20de:	ff d0                	call   *%eax
    20e0:	83 c4 5c             	add    $0x5c,%esp
    20e3:	5b                   	pop    %ebx
    20e4:	5e                   	pop    %esi
    20e5:	5f                   	pop    %edi
    20e6:	5d                   	pop    %ebp
    20e7:	c3                   	ret    
    20e8:	c7 04 24 04 99 02 00 	movl   $0x29904,(%esp)
    20ef:	e8 ac c1 00 00       	call   e2a0 <fibril_mutex_unlock>
    20f4:	a1 d8 9d 02 00       	mov    0x29dd8,%eax
    20f9:	89 7c 24 08          	mov    %edi,0x8(%esp)
    20fd:	8b 00                	mov    (%eax),%eax
    20ff:	c7 04 24 24 6b 02 00 	movl   $0x26b24,(%esp)
    2106:	89 44 24 04          	mov    %eax,0x4(%esp)
    210a:	e8 01 00 01 00       	call   12110 <printf>
    210f:	c7 44 24 04 ff ff ff 	movl   $0xffffffff,0x4(%esp)
    2116:	ff 
    2117:	89 34 24             	mov    %esi,(%esp)
    211a:	e8 81 7e 01 00       	call   19fa0 <async_answer_0>
    211f:	83 c4 5c             	add    $0x5c,%esp
    2122:	5b                   	pop    %ebx
    2123:	5e                   	pop    %esi
    2124:	5f                   	pop    %edi
    2125:	5d                   	pop    %ebp
    2126:	c3                   	ret    
    2127:	90                   	nop
    2128:	8b 43 24             	mov    0x24(%ebx),%eax
    212b:	85 c0                	test   %eax,%eax
    212d:	0f 84 cd 01 00 00    	je     2300 <driver_connection_gen.isra.8+0x2a0>
    2133:	8b 00                	mov    (%eax),%eax
    2135:	85 c0                	test   %eax,%eax
    2137:	0f 84 c3 01 00 00    	je     2300 <driver_connection_gen.isra.8+0x2a0>
    213d:	89 1c 24             	mov    %ebx,(%esp)
    2140:	ff d0                	call   *%eax
    2142:	89 34 24             	mov    %esi,(%esp)
    2145:	89 44 24 04          	mov    %eax,0x4(%esp)
    2149:	89 45 a8             	mov    %eax,-0x58(%ebp)
    214c:	e8 4f 7e 01 00       	call   19fa0 <async_answer_0>
    2151:	8b 55 a8             	mov    -0x58(%ebp),%edx
    2154:	85 d2                	test   %edx,%edx
    2156:	75 c7                	jne    211f <driver_connection_gen.isra.8+0xbf>
    2158:	8d 55 c4             	lea    -0x3c(%ebp),%edx
    215b:	89 7d ac             	mov    %edi,-0x54(%ebp)
    215e:	89 55 b4             	mov    %edx,-0x4c(%ebp)
    2161:	8d b4 26 00 00 00 00 	lea    0x0(%esi,%eiz,1),%esi
    2168:	c7 44 24 04 00 00 00 	movl   $0x0,0x4(%esp)
    216f:	00 
    2170:	89 14 24             	mov    %edx,(%esp)
    2173:	e8 f8 67 01 00       	call   18970 <async_get_call_timeout>
    2178:	8b 75 c4             	mov    -0x3c(%ebp),%esi
    217b:	89 c7                	mov    %eax,%edi
    217d:	85 f6                	test   %esi,%esi
    217f:	0f 84 eb 00 00 00    	je     2270 <driver_connection_gen.isra.8+0x210>
    2185:	81 ee 00 04 00 00    	sub    $0x400,%esi
    218b:	89 34 24             	mov    %esi,(%esp)
    218e:	e8 8d 10 00 00       	call   3220 <is_valid_iface_idx>
    2193:	84 c0                	test   %al,%al
    2195:	75 31                	jne    21c8 <driver_connection_gen.isra.8+0x168>
    2197:	8b 43 24             	mov    0x24(%ebx),%eax
    219a:	85 c0                	test   %eax,%eax
    219c:	0f 84 96 00 00 00    	je     2238 <driver_connection_gen.isra.8+0x1d8>
    21a2:	8b 40 34             	mov    0x34(%eax),%eax
    21a5:	85 c0                	test   %eax,%eax
    21a7:	0f 84 8b 00 00 00    	je     2238 <driver_connection_gen.isra.8+0x1d8>
    21ad:	8b 55 b4             	mov    -0x4c(%ebp),%edx
    21b0:	89 7c 24 04          	mov    %edi,0x4(%esp)
    21b4:	89 54 24 08          	mov    %edx,0x8(%esp)
    21b8:	89 1c 24             	mov    %ebx,(%esp)
    21bb:	ff d0                	call   *%eax
    21bd:	8b 55 b4             	mov    -0x4c(%ebp),%edx
    21c0:	eb a6                	jmp    2168 <driver_connection_gen.isra.8+0x108>
    21c2:	8d b6 00 00 00 00    	lea    0x0(%esi),%esi
    21c8:	89 34 24             	mov    %esi,(%esp)
    21cb:	e8 50 10 00 00       	call   3220 <is_valid_iface_idx>
    21d0:	84 c0                	test   %al,%al
    21d2:	0f 84 46 01 00 00    	je     231e <driver_connection_gen.isra.8+0x2be>
    21d8:	8b 43 24             	mov    0x24(%ebx),%eax
    21db:	85 c0                	test   %eax,%eax
    21dd:	0f 84 bd 00 00 00    	je     22a0 <driver_connection_gen.isra.8+0x240>
    21e3:	8b 44 b0 08          	mov    0x8(%eax,%esi,4),%eax
    21e7:	89 45 b0             	mov    %eax,-0x50(%ebp)
    21ea:	85 c0                	test   %eax,%eax
    21ec:	0f 84 ae 00 00 00    	je     22a0 <driver_connection_gen.isra.8+0x240>
    21f2:	89 34 24             	mov    %esi,(%esp)
    21f5:	e8 c6 0f 00 00       	call   31c0 <get_remote_iface>
    21fa:	85 c0                	test   %eax,%eax
    21fc:	0f 84 54 01 00 00    	je     2356 <driver_connection_gen.isra.8+0x2f6>
    2202:	8b 55 c8             	mov    -0x38(%ebp),%edx
    2205:	89 04 24             	mov    %eax,(%esp)
    2208:	89 54 24 04          	mov    %edx,0x4(%esp)
    220c:	e8 ef 0f 00 00       	call   3200 <get_remote_method>
    2211:	85 c0                	test   %eax,%eax
    2213:	0f 84 b7 00 00 00    	je     22d0 <driver_connection_gen.isra.8+0x270>
    2219:	8b 55 b4             	mov    -0x4c(%ebp),%edx
    221c:	89 7c 24 08          	mov    %edi,0x8(%esp)
    2220:	89 54 24 0c          	mov    %edx,0xc(%esp)
    2224:	8b 55 b0             	mov    -0x50(%ebp),%edx
    2227:	89 54 24 04          	mov    %edx,0x4(%esp)
    222b:	89 1c 24             	mov    %ebx,(%esp)
    222e:	ff d0                	call   *%eax
    2230:	8b 55 b4             	mov    -0x4c(%ebp),%edx
    2233:	e9 30 ff ff ff       	jmp    2168 <driver_connection_gen.isra.8+0x108>
    2238:	a1 d8 9d 02 00       	mov    0x29dd8,%eax
    223d:	89 74 24 08          	mov    %esi,0x8(%esp)
    2241:	8b 00                	mov    (%eax),%eax
    2243:	c7 04 24 50 6a 02 00 	movl   $0x26a50,(%esp)
    224a:	89 44 24 04          	mov    %eax,0x4(%esp)
    224e:	e8 bd fe 00 00       	call   12110 <printf>
    2253:	c7 44 24 04 f5 ff ff 	movl   $0xfffffff5,0x4(%esp)
    225a:	ff 
    225b:	89 3c 24             	mov    %edi,(%esp)
    225e:	e8 3d 7d 01 00       	call   19fa0 <async_answer_0>
    2263:	8b 55 b4             	mov    -0x4c(%ebp),%edx
    2266:	e9 fd fe ff ff       	jmp    2168 <driver_connection_gen.isra.8+0x108>
    226b:	90                   	nop
    226c:	8d 74 26 00          	lea    0x0(%esi,%eiz,1),%esi
    2270:	8b 43 24             	mov    0x24(%ebx),%eax
    2273:	85 c0                	test   %eax,%eax
    2275:	74 0c                	je     2283 <driver_connection_gen.isra.8+0x223>
    2277:	8b 40 04             	mov    0x4(%eax),%eax
    227a:	85 c0                	test   %eax,%eax
    227c:	74 05                	je     2283 <driver_connection_gen.isra.8+0x223>
    227e:	89 1c 24             	mov    %ebx,(%esp)
    2281:	ff d0                	call   *%eax
    2283:	89 3c 24             	mov    %edi,(%esp)
    2286:	c7 44 24 04 00 00 00 	movl   $0x0,0x4(%esp)
    228d:	00 
    228e:	e8 0d 7d 01 00       	call   19fa0 <async_answer_0>
    2293:	83 c4 5c             	add    $0x5c,%esp
    2296:	5b                   	pop    %ebx
    2297:	5e                   	pop    %esi
    2298:	5f                   	pop    %edi
    2299:	5d                   	pop    %ebp
    229a:	c3                   	ret    
    229b:	90                   	nop
    229c:	8d 74 26 00          	lea    0x0(%esi,%eiz,1),%esi
    22a0:	a1 d8 9d 02 00       	mov    0x29dd8,%eax
    22a5:	8b 00                	mov    (%eax),%eax
    22a7:	c7 04 24 8c 6a 02 00 	movl   $0x26a8c,(%esp)
    22ae:	89 44 24 04          	mov    %eax,0x4(%esp)
    22b2:	e8 59 fe 00 00       	call   12110 <printf>
    22b7:	8b 55 ac             	mov    -0x54(%ebp),%edx
    22ba:	89 74 24 08          	mov    %esi,0x8(%esp)
    22be:	89 54 24 04          	mov    %edx,0x4(%esp)
    22c2:	c7 04 24 b0 6a 02 00 	movl   $0x26ab0,(%esp)
    22c9:	eb 83                	jmp    224e <driver_connection_gen.isra.8+0x1ee>
    22cb:	90                   	nop
    22cc:	8d 74 26 00          	lea    0x0(%esi,%eiz,1),%esi
    22d0:	a1 d8 9d 02 00       	mov    0x29dd8,%eax
    22d5:	8b 00                	mov    (%eax),%eax
    22d7:	c7 04 24 e8 6a 02 00 	movl   $0x26ae8,(%esp)
    22de:	89 44 24 04          	mov    %eax,0x4(%esp)
    22e2:	e8 29 fe 00 00       	call   12110 <printf>
    22e7:	c7 44 24 04 f5 ff ff 	movl   $0xfffffff5,0x4(%esp)
    22ee:	ff 
    22ef:	89 3c 24             	mov    %edi,(%esp)
    22f2:	e8 a9 7c 01 00       	call   19fa0 <async_answer_0>
    22f7:	8b 55 b4             	mov    -0x4c(%ebp),%edx
    22fa:	e9 69 fe ff ff       	jmp    2168 <driver_connection_gen.isra.8+0x108>
    22ff:	90                   	nop
    2300:	c7 44 24 04 00 00 00 	movl   $0x0,0x4(%esp)
    2307:	00 
    2308:	89 34 24             	mov    %esi,(%esp)
    230b:	e8 90 7c 01 00       	call   19fa0 <async_answer_0>
    2310:	8d 55 c4             	lea    -0x3c(%ebp),%edx
    2313:	89 55 b4             	mov    %edx,-0x4c(%ebp)
    2316:	89 7d ac             	mov    %edi,-0x54(%ebp)
    2319:	e9 4a fe ff ff       	jmp    2168 <driver_connection_gen.isra.8+0x108>
    231e:	c7 44 24 08 1e 03 00 	movl   $0x31e,0x8(%esp)
    2325:	00 
    2326:	c7 44 24 04 dc 68 02 	movl   $0x268dc,0x4(%esp)
    232d:	00 
    232e:	c7 04 24 ed 68 02 00 	movl   $0x268ed,(%esp)
    2335:	e8 86 f9 01 00       	call   21cc0 <assert_abort>
    233a:	c7 44 24 08 75 00 00 	movl   $0x75,0x8(%esp)
    2341:	00 
    2342:	c7 44 24 04 dc 68 02 	movl   $0x268dc,0x4(%esp)
    2349:	00 
    234a:	c7 04 24 24 6a 02 00 	movl   $0x26a24,(%esp)
    2351:	e8 6a f9 01 00       	call   21cc0 <assert_abort>
    2356:	c7 44 24 08 a6 01 00 	movl   $0x1a6,0x8(%esp)
    235d:	00 
    235e:	c7 44 24 04 dc 68 02 	movl   $0x268dc,0x4(%esp)
    2365:	00 
    2366:	c7 04 24 05 69 02 00 	movl   $0x26905,(%esp)
    236d:	e8 4e f9 01 00       	call   21cc0 <assert_abort>
    2372:	8d b4 26 00 00 00 00 	lea    0x0(%esi,%eiz,1),%esi
    2379:	8d bc 27 00 00 00 00 	lea    0x0(%edi,%eiz,1),%edi

00002380 <driver_connection>:
    2380:	55                   	push   %ebp
    2381:	89 e5                	mov    %esp,%ebp
    2383:	57                   	push   %edi
    2384:	56                   	push   %esi
    2385:	53                   	push   %ebx
    2386:	83 ec 6c             	sub    $0x6c,%esp
    2389:	8b 45 08             	mov    0x8(%ebp),%eax
    238c:	85 c0                	test   %eax,%eax
    238e:	75 58                	jne    23e8 <driver_connection+0x68>
    2390:	c7 44 24 04 00 00 00 	movl   $0x0,0x4(%esp)
    2397:	00 
    2398:	89 04 24             	mov    %eax,(%esp)
    239b:	e8 00 7c 01 00       	call   19fa0 <async_answer_0>
    23a0:	8d 45 c4             	lea    -0x3c(%ebp),%eax
    23a3:	c7 44 24 04 00 00 00 	movl   $0x0,0x4(%esp)
    23aa:	00 
    23ab:	89 04 24             	mov    %eax,(%esp)
    23ae:	e8 bd 65 01 00       	call   18970 <async_get_call_timeout>
    23b3:	89 c6                	mov    %eax,%esi
    23b5:	8b 45 c4             	mov    -0x3c(%ebp),%eax
    23b8:	85 c0                	test   %eax,%eax
    23ba:	74 3e                	je     23fa <driver_connection+0x7a>
    23bc:	2d 00 04 00 00       	sub    $0x400,%eax
    23c1:	83 f8 04             	cmp    $0x4,%eax
    23c4:	76 12                	jbe    23d8 <driver_connection+0x58>
    23c6:	c7 44 24 04 f5 ff ff 	movl   $0xfffffff5,0x4(%esp)
    23cd:	ff 
    23ce:	89 34 24             	mov    %esi,(%esp)
    23d1:	e8 ca 7b 01 00       	call   19fa0 <async_answer_0>
    23d6:	eb c8                	jmp    23a0 <driver_connection+0x20>
    23d8:	8b 7d c8             	mov    -0x38(%ebp),%edi
    23db:	ff 24 85 d4 6b 02 00 	jmp    *0x26bd4(,%eax,4)
    23e2:	8d b6 00 00 00 00    	lea    0x0(%esi),%esi
    23e8:	8b 4d 0c             	mov    0xc(%ebp),%ecx
    23eb:	8b 51 04             	mov    0x4(%ecx),%edx
    23ee:	83 fa 02             	cmp    $0x2,%edx
    23f1:	75 15                	jne    2408 <driver_connection+0x88>
    23f3:	89 ca                	mov    %ecx,%edx
    23f5:	e8 66 fc ff ff       	call   2060 <driver_connection_gen.isra.8>
    23fa:	83 c4 6c             	add    $0x6c,%esp
    23fd:	5b                   	pop    %ebx
    23fe:	5e                   	pop    %esi
    23ff:	5f                   	pop    %edi
    2400:	5d                   	pop    %ebp
    2401:	c3                   	ret    
    2402:	8d b6 00 00 00 00    	lea    0x0(%esi),%esi
    2408:	83 fa 03             	cmp    $0x3,%edx
    240b:	0f 84 2f 03 00 00    	je     2740 <driver_connection+0x3c0>
    2411:	4a                   	dec    %edx
    2412:	0f 84 78 ff ff ff    	je     2390 <driver_connection+0x10>
    2418:	c7 44 24 04 ff ff ff 	movl   $0xffffffff,0x4(%esp)
    241f:	ff 
    2420:	89 04 24             	mov    %eax,(%esp)
    2423:	e8 78 7b 01 00       	call   19fa0 <async_answer_0>
    2428:	83 c4 6c             	add    $0x6c,%esp
    242b:	5b                   	pop    %ebx
    242c:	5e                   	pop    %esi
    242d:	5f                   	pop    %edi
    242e:	5d                   	pop    %ebp
    242f:	c3                   	ret    
    2430:	c7 04 24 04 99 02 00 	movl   $0x29904,(%esp)
    2437:	e8 44 bd 00 00       	call   e180 <fibril_mutex_lock>
    243c:	c7 04 24 04 99 02 00 	movl   $0x29904,(%esp)
    2443:	e8 68 bf 00 00       	call   e3b0 <fibril_mutex_is_locked>
    2448:	84 c0                	test   %al,%al
    244a:	0f 84 a0 04 00 00    	je     28f0 <driver_connection+0x570>
    2450:	a1 18 99 02 00       	mov    0x29918,%eax
    2455:	3d 14 99 02 00       	cmp    $0x29914,%eax
    245a:	75 1a                	jne    2476 <driver_connection+0xf6>
    245c:	e9 87 03 00 00       	jmp    27e8 <driver_connection+0x468>
    2461:	8d b4 26 00 00 00 00 	lea    0x0(%esi,%eiz,1),%esi
    2468:	8b 40 04             	mov    0x4(%eax),%eax
    246b:	3d 14 99 02 00       	cmp    $0x29914,%eax
    2470:	0f 84 72 03 00 00    	je     27e8 <driver_connection+0x468>
    2476:	8d 58 d4             	lea    -0x2c(%eax),%ebx
    2479:	3b 7b 04             	cmp    0x4(%ebx),%edi
    247c:	75 ea                	jne    2468 <driver_connection+0xe8>
    247e:	8b 43 0c             	mov    0xc(%ebx),%eax
    2481:	f0 ff 40 04          	lock incl 0x4(%eax)
    2485:	8d 7b 08             	lea    0x8(%ebx),%edi
    2488:	f0 ff 43 08          	lock incl 0x8(%ebx)
    248c:	c7 04 24 04 99 02 00 	movl   $0x29904,(%esp)
    2493:	e8 08 be 00 00       	call   e2a0 <fibril_mutex_unlock>
    2498:	a1 d8 9d 02 00       	mov    0x29dd8,%eax
    249d:	8b 40 04             	mov    0x4(%eax),%eax
    24a0:	8b 40 0c             	mov    0xc(%eax),%eax
    24a3:	85 c0                	test   %eax,%eax
    24a5:	0f 84 e5 02 00 00    	je     2790 <driver_connection+0x410>
    24ab:	89 1c 24             	mov    %ebx,(%esp)
    24ae:	ff d0                	call   *%eax
    24b0:	89 45 b0             	mov    %eax,-0x50(%ebp)
    24b3:	8b 4b 0c             	mov    0xc(%ebx),%ecx
    24b6:	83 c8 ff             	or     $0xffffffff,%eax
    24b9:	89 4d b4             	mov    %ecx,-0x4c(%ebp)
    24bc:	f0 0f c1 07          	lock xadd %eax,(%edi)
    24c0:	48                   	dec    %eax
    24c1:	0f 84 81 03 00 00    	je     2848 <driver_connection+0x4c8>
    24c7:	83 c8 ff             	or     $0xffffffff,%eax
    24ca:	8b 55 b4             	mov    -0x4c(%ebp),%edx
    24cd:	f0 0f c1 42 04       	lock xadd %eax,0x4(%edx)
    24d2:	48                   	dec    %eax
    24d3:	0f 84 37 03 00 00    	je     2810 <driver_connection+0x490>
    24d9:	8b 45 b0             	mov    -0x50(%ebp),%eax
    24dc:	e9 88 00 00 00       	jmp    2569 <driver_connection+0x1e9>
    24e1:	8d b4 26 00 00 00 00 	lea    0x0(%esi,%eiz,1),%esi
    24e8:	c7 04 24 1c 99 02 00 	movl   $0x2991c,(%esp)
    24ef:	e8 8c bc 00 00       	call   e180 <fibril_mutex_lock>
    24f4:	c7 04 24 1c 99 02 00 	movl   $0x2991c,(%esp)
    24fb:	e8 b0 be 00 00       	call   e3b0 <fibril_mutex_is_locked>
    2500:	84 c0                	test   %al,%al
    2502:	0f 84 04 04 00 00    	je     290c <driver_connection+0x58c>
    2508:	a1 30 99 02 00       	mov    0x29930,%eax
    250d:	3d 2c 99 02 00       	cmp    $0x2992c,%eax
    2512:	75 1a                	jne    252e <driver_connection+0x1ae>
    2514:	e9 a7 02 00 00       	jmp    27c0 <driver_connection+0x440>
    2519:	8d b4 26 00 00 00 00 	lea    0x0(%esi,%eiz,1),%esi
    2520:	8b 40 04             	mov    0x4(%eax),%eax
    2523:	3d 2c 99 02 00       	cmp    $0x2992c,%eax
    2528:	0f 84 92 02 00 00    	je     27c0 <driver_connection+0x440>
    252e:	8d 58 ec             	lea    -0x14(%eax),%ebx
    2531:	3b 78 ec             	cmp    -0x14(%eax),%edi
    2534:	75 ea                	jne    2520 <driver_connection+0x1a0>
    2536:	8d 7b 04             	lea    0x4(%ebx),%edi
    2539:	f0 ff 43 04          	lock incl 0x4(%ebx)
    253d:	c7 04 24 1c 99 02 00 	movl   $0x2991c,(%esp)
    2544:	e8 57 bd 00 00       	call   e2a0 <fibril_mutex_unlock>
    2549:	a1 d8 9d 02 00       	mov    0x29dd8,%eax
    254e:	8b 40 04             	mov    0x4(%eax),%eax
    2551:	8b 40 08             	mov    0x8(%eax),%eax
    2554:	85 c0                	test   %eax,%eax
    2556:	0f 84 58 01 00 00    	je     26b4 <driver_connection+0x334>
    255c:	89 1c 24             	mov    %ebx,(%esp)
    255f:	ff d0                	call   *%eax
    2561:	85 c0                	test   %eax,%eax
    2563:	0f 84 e7 01 00 00    	je     2750 <driver_connection+0x3d0>
    2569:	89 44 24 04          	mov    %eax,0x4(%esp)
    256d:	89 34 24             	mov    %esi,(%esp)
    2570:	e8 2b 7a 01 00       	call   19fa0 <async_answer_0>
    2575:	e9 26 fe ff ff       	jmp    23a0 <driver_connection+0x20>
    257a:	8d b6 00 00 00 00    	lea    0x0(%esi),%esi
    2580:	c7 44 24 04 1c 00 00 	movl   $0x1c,0x4(%esp)
    2587:	00 
    2588:	c7 04 24 01 00 00 00 	movl   $0x1,(%esp)
    258f:	e8 6c 4e 01 00       	call   17400 <calloc>
    2594:	89 c3                	mov    %eax,%ebx
    2596:	f0 ff 40 04          	lock incl 0x4(%eax)
    259a:	8d 55 c0             	lea    -0x40(%ebp),%edx
    259d:	89 38                	mov    %edi,(%eax)
    259f:	89 14 24             	mov    %edx,(%esp)
    25a2:	c7 44 24 14 00 00 00 	movl   $0x0,0x14(%esp)
    25a9:	00 
    25aa:	c7 44 24 10 00 00 00 	movl   $0x0,0x10(%esp)
    25b1:	00 
    25b2:	c7 44 24 0c 00 00 00 	movl   $0x0,0xc(%esp)
    25b9:	00 
    25ba:	c7 44 24 08 00 00 00 	movl   $0x0,0x8(%esp)
    25c1:	00 
    25c2:	c7 44 24 04 01 00 00 	movl   $0x1,0x4(%esp)
    25c9:	00 
    25ca:	c7 45 c0 00 00 00 00 	movl   $0x0,-0x40(%ebp)
    25d1:	e8 ea 94 01 00       	call   1bac0 <async_data_write_accept>
    25d6:	8b 45 c0             	mov    -0x40(%ebp),%eax
    25d9:	89 43 0c             	mov    %eax,0xc(%ebx)
    25dc:	a1 d8 9d 02 00       	mov    0x29dd8,%eax
    25e1:	8b 40 04             	mov    0x4(%eax),%eax
    25e4:	89 1c 24             	mov    %ebx,(%esp)
    25e7:	ff 10                	call   *(%eax)
    25e9:	89 c7                	mov    %eax,%edi
    25eb:	85 c0                	test   %eax,%eax
    25ed:	0f 85 ad 01 00 00    	jne    27a0 <driver_connection+0x420>
    25f3:	c7 04 24 1c 99 02 00 	movl   $0x2991c,(%esp)
    25fa:	e8 81 bb 00 00       	call   e180 <fibril_mutex_lock>
    25ff:	8b 15 2c 99 02 00    	mov    0x2992c,%edx
    2605:	8d 43 14             	lea    0x14(%ebx),%eax
    2608:	c7 43 18 2c 99 02 00 	movl   $0x2992c,0x18(%ebx)
    260f:	89 53 14             	mov    %edx,0x14(%ebx)
    2612:	89 42 04             	mov    %eax,0x4(%edx)
    2615:	c7 04 24 1c 99 02 00 	movl   $0x2991c,(%esp)
    261c:	a3 2c 99 02 00       	mov    %eax,0x2992c
    2621:	e8 7a bc 00 00       	call   e2a0 <fibril_mutex_unlock>
    2626:	c7 44 24 04 00 00 00 	movl   $0x0,0x4(%esp)
    262d:	00 
    262e:	89 34 24             	mov    %esi,(%esp)
    2631:	e8 6a 79 01 00       	call   19fa0 <async_answer_0>
    2636:	e9 65 fd ff ff       	jmp    23a0 <driver_connection+0x20>
    263b:	90                   	nop
    263c:	8d 74 26 00          	lea    0x0(%esi,%eiz,1),%esi
    2640:	c7 04 24 1c 99 02 00 	movl   $0x2991c,(%esp)
    2647:	e8 34 bb 00 00       	call   e180 <fibril_mutex_lock>
    264c:	c7 04 24 1c 99 02 00 	movl   $0x2991c,(%esp)
    2653:	e8 58 bd 00 00       	call   e3b0 <fibril_mutex_is_locked>
    2658:	84 c0                	test   %al,%al
    265a:	0f 84 ac 02 00 00    	je     290c <driver_connection+0x58c>
    2660:	a1 30 99 02 00       	mov    0x29930,%eax
    2665:	3d 2c 99 02 00       	cmp    $0x2992c,%eax
    266a:	75 1a                	jne    2686 <driver_connection+0x306>
    266c:	e9 4f 01 00 00       	jmp    27c0 <driver_connection+0x440>
    2671:	8d b4 26 00 00 00 00 	lea    0x0(%esi,%eiz,1),%esi
    2678:	8b 40 04             	mov    0x4(%eax),%eax
    267b:	3d 2c 99 02 00       	cmp    $0x2992c,%eax
    2680:	0f 84 3a 01 00 00    	je     27c0 <driver_connection+0x440>
    2686:	8d 58 ec             	lea    -0x14(%eax),%ebx
    2689:	3b 78 ec             	cmp    -0x14(%eax),%edi
    268c:	75 ea                	jne    2678 <driver_connection+0x2f8>
    268e:	8d 7b 04             	lea    0x4(%ebx),%edi
    2691:	f0 ff 43 04          	lock incl 0x4(%ebx)
    2695:	c7 04 24 1c 99 02 00 	movl   $0x2991c,(%esp)
    269c:	e8 ff bb 00 00       	call   e2a0 <fibril_mutex_unlock>
    26a1:	a1 d8 9d 02 00       	mov    0x29dd8,%eax
    26a6:	8b 40 04             	mov    0x4(%eax),%eax
    26a9:	8b 40 04             	mov    0x4(%eax),%eax
    26ac:	85 c0                	test   %eax,%eax
    26ae:	0f 85 a8 fe ff ff    	jne    255c <driver_connection+0x1dc>
    26b4:	b8 f5 ff ff ff       	mov    $0xfffffff5,%eax
    26b9:	e9 ab fe ff ff       	jmp    2569 <driver_connection+0x1e9>
    26be:	66 90                	xchg   %ax,%ax
    26c0:	c7 04 24 04 99 02 00 	movl   $0x29904,(%esp)
    26c7:	e8 b4 ba 00 00       	call   e180 <fibril_mutex_lock>
    26cc:	c7 04 24 04 99 02 00 	movl   $0x29904,(%esp)
    26d3:	e8 d8 bc 00 00       	call   e3b0 <fibril_mutex_is_locked>
    26d8:	84 c0                	test   %al,%al
    26da:	0f 84 10 02 00 00    	je     28f0 <driver_connection+0x570>
    26e0:	a1 18 99 02 00       	mov    0x29918,%eax
    26e5:	3d 14 99 02 00       	cmp    $0x29914,%eax
    26ea:	75 1a                	jne    2706 <driver_connection+0x386>
    26ec:	e9 f7 00 00 00       	jmp    27e8 <driver_connection+0x468>
    26f1:	8d b4 26 00 00 00 00 	lea    0x0(%esi,%eiz,1),%esi
    26f8:	8b 40 04             	mov    0x4(%eax),%eax
    26fb:	3d 14 99 02 00       	cmp    $0x29914,%eax
    2700:	0f 84 e2 00 00 00    	je     27e8 <driver_connection+0x468>
    2706:	8d 58 d4             	lea    -0x2c(%eax),%ebx
    2709:	3b 7b 04             	cmp    0x4(%ebx),%edi
    270c:	75 ea                	jne    26f8 <driver_connection+0x378>
    270e:	8b 43 0c             	mov    0xc(%ebx),%eax
    2711:	f0 ff 40 04          	lock incl 0x4(%eax)
    2715:	f0 ff 43 08          	lock incl 0x8(%ebx)
    2719:	c7 04 24 04 99 02 00 	movl   $0x29904,(%esp)
    2720:	e8 7b bb 00 00       	call   e2a0 <fibril_mutex_unlock>
    2725:	a1 d8 9d 02 00       	mov    0x29dd8,%eax
    272a:	8b 40 04             	mov    0x4(%eax),%eax
    272d:	8b 40 10             	mov    0x10(%eax),%eax
    2730:	85 c0                	test   %eax,%eax
    2732:	74 80                	je     26b4 <driver_connection+0x334>
    2734:	89 1c 24             	mov    %ebx,(%esp)
    2737:	ff d0                	call   *%eax
    2739:	e9 2b fe ff ff       	jmp    2569 <driver_connection+0x1e9>
    273e:	66 90                	xchg   %ax,%ax
    2740:	8b 55 0c             	mov    0xc(%ebp),%edx
    2743:	e8 18 f9 ff ff       	call   2060 <driver_connection_gen.isra.8>
    2748:	83 c4 6c             	add    $0x6c,%esp
    274b:	5b                   	pop    %ebx
    274c:	5e                   	pop    %esi
    274d:	5f                   	pop    %edi
    274e:	5d                   	pop    %ebp
    274f:	c3                   	ret    
    2750:	83 ca ff             	or     $0xffffffff,%edx
    2753:	f0 0f c1 17          	lock xadd %edx,(%edi)
    2757:	4a                   	dec    %edx
    2758:	0f 85 0b fe ff ff    	jne    2569 <driver_connection+0x1e9>
    275e:	8b 43 08             	mov    0x8(%ebx),%eax
    2761:	85 c0                	test   %eax,%eax
    2763:	74 08                	je     276d <driver_connection+0x3ed>
    2765:	89 04 24             	mov    %eax,(%esp)
    2768:	e8 33 81 01 00       	call   1a8a0 <async_hangup>
    276d:	8b 43 10             	mov    0x10(%ebx),%eax
    2770:	85 c0                	test   %eax,%eax
    2772:	74 08                	je     277c <driver_connection+0x3fc>
    2774:	89 04 24             	mov    %eax,(%esp)
    2777:	e8 f4 4d 01 00       	call   17570 <free>
    277c:	89 1c 24             	mov    %ebx,(%esp)
    277f:	e8 ec 4d 01 00       	call   17570 <free>
    2784:	31 c0                	xor    %eax,%eax
    2786:	e9 de fd ff ff       	jmp    2569 <driver_connection+0x1e9>
    278b:	90                   	nop
    278c:	8d 74 26 00          	lea    0x0(%esi,%eiz,1),%esi
    2790:	c7 45 b0 f5 ff ff ff 	movl   $0xfffffff5,-0x50(%ebp)
    2797:	e9 17 fd ff ff       	jmp    24b3 <driver_connection+0x133>
    279c:	8d 74 26 00          	lea    0x0(%esi,%eiz,1),%esi
    27a0:	83 c8 ff             	or     $0xffffffff,%eax
    27a3:	f0 0f c1 43 04       	lock xadd %eax,0x4(%ebx)
    27a8:	48                   	dec    %eax
    27a9:	0f 84 16 01 00 00    	je     28c5 <driver_connection+0x545>
    27af:	89 7c 24 04          	mov    %edi,0x4(%esp)
    27b3:	89 34 24             	mov    %esi,(%esp)
    27b6:	e8 e5 77 01 00       	call   19fa0 <async_answer_0>
    27bb:	e9 e0 fb ff ff       	jmp    23a0 <driver_connection+0x20>
    27c0:	c7 04 24 1c 99 02 00 	movl   $0x2991c,(%esp)
    27c7:	e8 d4 ba 00 00       	call   e2a0 <fibril_mutex_unlock>
    27cc:	c7 44 24 04 ff ff ff 	movl   $0xffffffff,0x4(%esp)
    27d3:	ff 
    27d4:	89 34 24             	mov    %esi,(%esp)
    27d7:	e8 c4 77 01 00       	call   19fa0 <async_answer_0>
    27dc:	e9 bf fb ff ff       	jmp    23a0 <driver_connection+0x20>
    27e1:	8d b4 26 00 00 00 00 	lea    0x0(%esi,%eiz,1),%esi
    27e8:	c7 04 24 04 99 02 00 	movl   $0x29904,(%esp)
    27ef:	e8 ac ba 00 00       	call   e2a0 <fibril_mutex_unlock>
    27f4:	c7 44 24 04 ff ff ff 	movl   $0xffffffff,0x4(%esp)
    27fb:	ff 
    27fc:	89 34 24             	mov    %esi,(%esp)
    27ff:	e8 9c 77 01 00       	call   19fa0 <async_answer_0>
    2804:	e9 97 fb ff ff       	jmp    23a0 <driver_connection+0x20>
    2809:	8d b4 26 00 00 00 00 	lea    0x0(%esi,%eiz,1),%esi
    2810:	8b 42 08             	mov    0x8(%edx),%eax
    2813:	85 c0                	test   %eax,%eax
    2815:	74 08                	je     281f <driver_connection+0x49f>
    2817:	89 04 24             	mov    %eax,(%esp)
    281a:	e8 81 80 01 00       	call   1a8a0 <async_hangup>
    281f:	8b 4d b4             	mov    -0x4c(%ebp),%ecx
    2822:	8b 41 10             	mov    0x10(%ecx),%eax
    2825:	85 c0                	test   %eax,%eax
    2827:	74 08                	je     2831 <driver_connection+0x4b1>
    2829:	89 04 24             	mov    %eax,(%esp)
    282c:	e8 3f 4d 01 00       	call   17570 <free>
    2831:	8b 55 b4             	mov    -0x4c(%ebp),%edx
    2834:	89 14 24             	mov    %edx,(%esp)
    2837:	e8 34 4d 01 00       	call   17570 <free>
    283c:	e9 98 fc ff ff       	jmp    24d9 <driver_connection+0x159>
    2841:	8d b4 26 00 00 00 00 	lea    0x0(%esi,%eiz,1),%esi
    2848:	8d 7b 18             	lea    0x18(%ebx),%edi
    284b:	8b 43 1c             	mov    0x1c(%ebx),%eax
    284e:	39 f8                	cmp    %edi,%eax
    2850:	74 48                	je     289a <driver_connection+0x51a>
    2852:	89 5d ac             	mov    %ebx,-0x54(%ebp)
    2855:	89 c3                	mov    %eax,%ebx
    2857:	90                   	nop
    2858:	8b 0b                	mov    (%ebx),%ecx
    285a:	85 c9                	test   %ecx,%ecx
    285c:	74 0e                	je     286c <driver_connection+0x4ec>
    285e:	8b 53 04             	mov    0x4(%ebx),%edx
    2861:	85 d2                	test   %edx,%edx
    2863:	74 07                	je     286c <driver_connection+0x4ec>
    2865:	89 0a                	mov    %ecx,(%edx)
    2867:	8b 0b                	mov    (%ebx),%ecx
    2869:	89 51 04             	mov    %edx,0x4(%ecx)
    286c:	8b 53 08             	mov    0x8(%ebx),%edx
    286f:	c7 03 00 00 00 00    	movl   $0x0,(%ebx)
    2875:	c7 43 04 00 00 00 00 	movl   $0x0,0x4(%ebx)
    287c:	85 d2                	test   %edx,%edx
    287e:	74 08                	je     2888 <driver_connection+0x508>
    2880:	89 14 24             	mov    %edx,(%esp)
    2883:	e8 e8 4c 01 00       	call   17570 <free>
    2888:	89 1c 24             	mov    %ebx,(%esp)
    288b:	e8 e0 4c 01 00       	call   17570 <free>
    2890:	8b 5f 04             	mov    0x4(%edi),%ebx
    2893:	39 fb                	cmp    %edi,%ebx
    2895:	75 c1                	jne    2858 <driver_connection+0x4d8>
    2897:	8b 5d ac             	mov    -0x54(%ebp),%ebx
    289a:	8b 43 20             	mov    0x20(%ebx),%eax
    289d:	85 c0                	test   %eax,%eax
    289f:	74 08                	je     28a9 <driver_connection+0x529>
    28a1:	89 04 24             	mov    %eax,(%esp)
    28a4:	e8 c7 4c 01 00       	call   17570 <free>
    28a9:	8b 43 14             	mov    0x14(%ebx),%eax
    28ac:	85 c0                	test   %eax,%eax
    28ae:	74 08                	je     28b8 <driver_connection+0x538>
    28b0:	89 04 24             	mov    %eax,(%esp)
    28b3:	e8 b8 4c 01 00       	call   17570 <free>
    28b8:	89 1c 24             	mov    %ebx,(%esp)
    28bb:	e8 b0 4c 01 00       	call   17570 <free>
    28c0:	e9 02 fc ff ff       	jmp    24c7 <driver_connection+0x147>
    28c5:	8b 43 08             	mov    0x8(%ebx),%eax
    28c8:	85 c0                	test   %eax,%eax
    28ca:	74 08                	je     28d4 <driver_connection+0x554>
    28cc:	89 04 24             	mov    %eax,(%esp)
    28cf:	e8 cc 7f 01 00       	call   1a8a0 <async_hangup>
    28d4:	8b 43 10             	mov    0x10(%ebx),%eax
    28d7:	85 c0                	test   %eax,%eax
    28d9:	74 08                	je     28e3 <driver_connection+0x563>
    28db:	89 04 24             	mov    %eax,(%esp)
    28de:	e8 8d 4c 01 00       	call   17570 <free>
    28e3:	89 1c 24             	mov    %ebx,(%esp)
    28e6:	e8 85 4c 01 00       	call   17570 <free>
    28eb:	e9 bf fe ff ff       	jmp    27af <driver_connection+0x42f>
    28f0:	c7 44 24 08 75 00 00 	movl   $0x75,0x8(%esp)
    28f7:	00 
    28f8:	c7 44 24 04 dc 68 02 	movl   $0x268dc,0x4(%esp)
    28ff:	00 
    2900:	c7 04 24 24 6a 02 00 	movl   $0x26a24,(%esp)
    2907:	e8 b4 f3 01 00       	call   21cc0 <assert_abort>
    290c:	c7 44 24 08 66 00 00 	movl   $0x66,0x8(%esp)
    2913:	00 
    2914:	c7 44 24 04 dc 68 02 	movl   $0x268dc,0x4(%esp)
    291b:	00 
    291c:	c7 04 24 70 6b 02 00 	movl   $0x26b70,(%esp)
    2923:	e8 98 f3 01 00       	call   21cc0 <assert_abort>
    2928:	90                   	nop
    2929:	8d b4 26 00 00 00 00 	lea    0x0(%esi,%eiz,1),%esi

00002930 <ddf_dev_data_alloc>:
    2930:	55                   	push   %ebp
    2931:	89 e5                	mov    %esp,%ebp
    2933:	53                   	push   %ebx
    2934:	83 ec 14             	sub    $0x14,%esp
    2937:	8b 5d 08             	mov    0x8(%ebp),%ebx
    293a:	8b 43 10             	mov    0x10(%ebx),%eax
    293d:	85 c0                	test   %eax,%eax
    293f:	75 20                	jne    2961 <ddf_dev_data_alloc+0x31>
    2941:	8b 45 0c             	mov    0xc(%ebp),%eax
    2944:	c7 04 24 01 00 00 00 	movl   $0x1,(%esp)
    294b:	89 44 24 04          	mov    %eax,0x4(%esp)
    294f:	e8 ac 4a 01 00       	call   17400 <calloc>
    2954:	85 c0                	test   %eax,%eax
    2956:	74 03                	je     295b <ddf_dev_data_alloc+0x2b>
    2958:	89 43 10             	mov    %eax,0x10(%ebx)
    295b:	83 c4 14             	add    $0x14,%esp
    295e:	5b                   	pop    %ebx
    295f:	5d                   	pop    %ebp
    2960:	c3                   	ret    
    2961:	c7 44 24 08 52 02 00 	movl   $0x252,0x8(%esp)
    2968:	00 
    2969:	c7 44 24 04 dc 68 02 	movl   $0x268dc,0x4(%esp)
    2970:	00 
    2971:	c7 04 24 17 69 02 00 	movl   $0x26917,(%esp)
    2978:	e8 43 f3 01 00       	call   21cc0 <assert_abort>
    297d:	8d 76 00             	lea    0x0(%esi),%esi

00002980 <ddf_fun_data_implant>:
    2980:	55                   	push   %ebp
    2981:	89 e5                	mov    %esp,%ebp
    2983:	83 ec 18             	sub    $0x18,%esp
    2986:	8b 45 08             	mov    0x8(%ebp),%eax
    2989:	8b 50 20             	mov    0x20(%eax),%edx
    298c:	85 d2                	test   %edx,%edx
    298e:	75 08                	jne    2998 <ddf_fun_data_implant+0x18>
    2990:	8b 55 0c             	mov    0xc(%ebp),%edx
    2993:	89 50 20             	mov    %edx,0x20(%eax)
    2996:	c9                   	leave  
    2997:	c3                   	ret    
    2998:	c7 44 24 08 63 02 00 	movl   $0x263,0x8(%esp)
    299f:	00 
    29a0:	c7 44 24 04 dc 68 02 	movl   $0x268dc,0x4(%esp)
    29a7:	00 
    29a8:	c7 04 24 30 69 02 00 	movl   $0x26930,(%esp)
    29af:	e8 0c f3 01 00       	call   21cc0 <assert_abort>
    29b4:	8d b6 00 00 00 00    	lea    0x0(%esi),%esi
    29ba:	8d bf 00 00 00 00    	lea    0x0(%edi),%edi

000029c0 <ddf_dev_data_get>:
    29c0:	55                   	push   %ebp
    29c1:	89 e5                	mov    %esp,%ebp
    29c3:	8b 45 08             	mov    0x8(%ebp),%eax
    29c6:	5d                   	pop    %ebp
    29c7:	8b 40 10             	mov    0x10(%eax),%eax
    29ca:	c3                   	ret    
    29cb:	90                   	nop
    29cc:	8d 74 26 00          	lea    0x0(%esi,%eiz,1),%esi

000029d0 <ddf_dev_get_handle>:
    29d0:	55                   	push   %ebp
    29d1:	89 e5                	mov    %esp,%ebp
    29d3:	8b 45 08             	mov    0x8(%ebp),%eax
    29d6:	5d                   	pop    %ebp
    29d7:	8b 00                	mov    (%eax),%eax
    29d9:	c3                   	ret    
    29da:	8d b6 00 00 00 00    	lea    0x0(%esi),%esi

000029e0 <ddf_dev_get_name>:
    29e0:	55                   	push   %ebp
    29e1:	89 e5                	mov    %esp,%ebp
    29e3:	8b 45 08             	mov    0x8(%ebp),%eax
    29e6:	5d                   	pop    %ebp
    29e7:	8b 40 0c             	mov    0xc(%eax),%eax
    29ea:	c3                   	ret    
    29eb:	90                   	nop
    29ec:	8d 74 26 00          	lea    0x0(%esi,%eiz,1),%esi

000029f0 <ddf_dev_parent_sess_create>:
    29f0:	55                   	push   %ebp
    29f1:	89 e5                	mov    %esp,%ebp
    29f3:	53                   	push   %ebx
    29f4:	83 ec 14             	sub    $0x14,%esp
    29f7:	8b 5d 08             	mov    0x8(%ebp),%ebx
    29fa:	8b 4b 08             	mov    0x8(%ebx),%ecx
    29fd:	85 c9                	test   %ecx,%ecx
    29ff:	75 22                	jne    2a23 <ddf_dev_parent_sess_create+0x33>
    2a01:	c7 44 24 08 01 00 00 	movl   $0x1,0x8(%esp)
    2a08:	00 
    2a09:	8b 03                	mov    (%ebx),%eax
    2a0b:	89 44 24 04          	mov    %eax,0x4(%esp)
    2a0f:	8b 45 0c             	mov    0xc(%ebp),%eax
    2a12:	89 04 24             	mov    %eax,(%esp)
    2a15:	e8 f6 63 00 00       	call   8e10 <devman_parent_device_connect>
    2a1a:	89 43 08             	mov    %eax,0x8(%ebx)
    2a1d:	83 c4 14             	add    $0x14,%esp
    2a20:	5b                   	pop    %ebx
    2a21:	5d                   	pop    %ebp
    2a22:	c3                   	ret    
    2a23:	c7 44 24 08 87 02 00 	movl   $0x287,0x8(%esp)
    2a2a:	00 
    2a2b:	c7 44 24 04 dc 68 02 	movl   $0x268dc,0x4(%esp)
    2a32:	00 
    2a33:	c7 04 24 49 69 02 00 	movl   $0x26949,(%esp)
    2a3a:	e8 81 f2 01 00       	call   21cc0 <assert_abort>
    2a3f:	90                   	nop

00002a40 <ddf_dev_parent_sess_get>:
    2a40:	55                   	push   %ebp
    2a41:	89 e5                	mov    %esp,%ebp
    2a43:	8b 45 08             	mov    0x8(%ebp),%eax
    2a46:	5d                   	pop    %ebp
    2a47:	8b 40 08             	mov    0x8(%eax),%eax
    2a4a:	c3                   	ret    
    2a4b:	90                   	nop
    2a4c:	8d 74 26 00          	lea    0x0(%esi,%eiz,1),%esi

00002a50 <ddf_fun_set_name>:
    2a50:	55                   	push   %ebp
    2a51:	89 e5                	mov    %esp,%ebp
    2a53:	53                   	push   %ebx
    2a54:	83 ec 14             	sub    $0x14,%esp
    2a57:	8b 5d 08             	mov    0x8(%ebp),%ebx
    2a5a:	8b 43 14             	mov    0x14(%ebx),%eax
    2a5d:	85 c0                	test   %eax,%eax
    2a5f:	75 19                	jne    2a7a <ddf_fun_set_name+0x2a>
    2a61:	8b 45 0c             	mov    0xc(%ebp),%eax
    2a64:	89 04 24             	mov    %eax,(%esp)
    2a67:	e8 e4 a3 00 00       	call   ce50 <str_dup>
    2a6c:	83 f8 01             	cmp    $0x1,%eax
    2a6f:	89 43 14             	mov    %eax,0x14(%ebx)
    2a72:	19 c0                	sbb    %eax,%eax
    2a74:	83 c4 14             	add    $0x14,%esp
    2a77:	5b                   	pop    %ebx
    2a78:	5d                   	pop    %ebp
    2a79:	c3                   	ret    
    2a7a:	c7 44 24 08 a0 02 00 	movl   $0x2a0,0x8(%esp)
    2a81:	00 
    2a82:	c7 44 24 04 dc 68 02 	movl   $0x268dc,0x4(%esp)
    2a89:	00 
    2a8a:	c7 04 24 62 69 02 00 	movl   $0x26962,(%esp)
    2a91:	e8 2a f2 01 00       	call   21cc0 <assert_abort>
    2a96:	8d 76 00             	lea    0x0(%esi),%esi
    2a99:	8d bc 27 00 00 00 00 	lea    0x0(%edi,%eiz,1),%edi

00002aa0 <ddf_fun_get_dev>:
    2aa0:	55                   	push   %ebp
    2aa1:	89 e5                	mov    %esp,%ebp
    2aa3:	8b 45 08             	mov    0x8(%ebp),%eax
    2aa6:	5d                   	pop    %ebp
    2aa7:	8b 40 0c             	mov    0xc(%eax),%eax
    2aaa:	c3                   	ret    
    2aab:	90                   	nop
    2aac:	8d 74 26 00          	lea    0x0(%esi,%eiz,1),%esi

00002ab0 <ddf_fun_get_handle>:
    2ab0:	55                   	push   %ebp
    2ab1:	89 e5                	mov    %esp,%ebp
    2ab3:	8b 45 08             	mov    0x8(%ebp),%eax
    2ab6:	5d                   	pop    %ebp
    2ab7:	8b 40 04             	mov    0x4(%eax),%eax
    2aba:	c3                   	ret    
    2abb:	90                   	nop
    2abc:	8d 74 26 00          	lea    0x0(%esi,%eiz,1),%esi

00002ac0 <ddf_fun_create>:
    2ac0:	55                   	push   %ebp
    2ac1:	89 e5                	mov    %esp,%ebp
    2ac3:	57                   	push   %edi
    2ac4:	56                   	push   %esi
    2ac5:	53                   	push   %ebx
    2ac6:	83 ec 1c             	sub    $0x1c,%esp
    2ac9:	8b 75 08             	mov    0x8(%ebp),%esi
    2acc:	c7 44 24 04 34 00 00 	movl   $0x34,0x4(%esp)
    2ad3:	00 
    2ad4:	c7 04 24 01 00 00 00 	movl   $0x1,(%esp)
    2adb:	e8 20 49 01 00       	call   17400 <calloc>
    2ae0:	89 c3                	mov    %eax,%ebx
    2ae2:	85 c0                	test   %eax,%eax
    2ae4:	74 44                	je     2b2a <ddf_fun_create+0x6a>
    2ae6:	8d 78 18             	lea    0x18(%eax),%edi
    2ae9:	c7 40 2c 00 00 00 00 	movl   $0x0,0x2c(%eax)
    2af0:	89 78 18             	mov    %edi,0x18(%eax)
    2af3:	89 78 1c             	mov    %edi,0x1c(%eax)
    2af6:	c7 40 30 00 00 00 00 	movl   $0x0,0x30(%eax)
    2afd:	89 70 0c             	mov    %esi,0xc(%eax)
    2b00:	f0 ff 46 04          	lock incl 0x4(%esi)
    2b04:	f0 ff 40 08          	lock incl 0x8(%eax)
    2b08:	c6 00 00             	movb   $0x0,(%eax)
    2b0b:	8b 45 0c             	mov    0xc(%ebp),%eax
    2b0e:	89 43 10             	mov    %eax,0x10(%ebx)
    2b11:	8b 45 10             	mov    0x10(%ebp),%eax
    2b14:	85 c0                	test   %eax,%eax
    2b16:	74 12                	je     2b2a <ddf_fun_create+0x6a>
    2b18:	8b 45 10             	mov    0x10(%ebp),%eax
    2b1b:	89 04 24             	mov    %eax,(%esp)
    2b1e:	e8 2d a3 00 00       	call   ce50 <str_dup>
    2b23:	89 43 14             	mov    %eax,0x14(%ebx)
    2b26:	85 c0                	test   %eax,%eax
    2b28:	74 0a                	je     2b34 <ddf_fun_create+0x74>
    2b2a:	83 c4 1c             	add    $0x1c,%esp
    2b2d:	89 d8                	mov    %ebx,%eax
    2b2f:	5b                   	pop    %ebx
    2b30:	5e                   	pop    %esi
    2b31:	5f                   	pop    %edi
    2b32:	5d                   	pop    %ebp
    2b33:	c3                   	ret    
    2b34:	8b 73 1c             	mov    0x1c(%ebx),%esi
    2b37:	39 fe                	cmp    %edi,%esi
    2b39:	74 44                	je     2b7f <ddf_fun_create+0xbf>
    2b3b:	90                   	nop
    2b3c:	8d 74 26 00          	lea    0x0(%esi,%eiz,1),%esi
    2b40:	8b 0e                	mov    (%esi),%ecx
    2b42:	85 c9                	test   %ecx,%ecx
    2b44:	74 0e                	je     2b54 <ddf_fun_create+0x94>
    2b46:	8b 46 04             	mov    0x4(%esi),%eax
    2b49:	85 c0                	test   %eax,%eax
    2b4b:	74 07                	je     2b54 <ddf_fun_create+0x94>
    2b4d:	89 08                	mov    %ecx,(%eax)
    2b4f:	8b 0e                	mov    (%esi),%ecx
    2b51:	89 41 04             	mov    %eax,0x4(%ecx)
    2b54:	8b 46 08             	mov    0x8(%esi),%eax
    2b57:	c7 06 00 00 00 00    	movl   $0x0,(%esi)
    2b5d:	c7 46 04 00 00 00 00 	movl   $0x0,0x4(%esi)
    2b64:	85 c0                	test   %eax,%eax
    2b66:	74 08                	je     2b70 <ddf_fun_create+0xb0>
    2b68:	89 04 24             	mov    %eax,(%esp)
    2b6b:	e8 00 4a 01 00       	call   17570 <free>
    2b70:	89 34 24             	mov    %esi,(%esp)
    2b73:	e8 f8 49 01 00       	call   17570 <free>
    2b78:	8b 77 04             	mov    0x4(%edi),%esi
    2b7b:	39 fe                	cmp    %edi,%esi
    2b7d:	75 c1                	jne    2b40 <ddf_fun_create+0x80>
    2b7f:	8b 43 20             	mov    0x20(%ebx),%eax
    2b82:	85 c0                	test   %eax,%eax
    2b84:	74 08                	je     2b8e <ddf_fun_create+0xce>
    2b86:	89 04 24             	mov    %eax,(%esp)
    2b89:	e8 e2 49 01 00       	call   17570 <free>
    2b8e:	8b 43 14             	mov    0x14(%ebx),%eax
    2b91:	85 c0                	test   %eax,%eax
    2b93:	74 08                	je     2b9d <ddf_fun_create+0xdd>
    2b95:	89 04 24             	mov    %eax,(%esp)
    2b98:	e8 d3 49 01 00       	call   17570 <free>
    2b9d:	89 1c 24             	mov    %ebx,(%esp)
    2ba0:	31 db                	xor    %ebx,%ebx
    2ba2:	e8 c9 49 01 00       	call   17570 <free>
    2ba7:	eb 81                	jmp    2b2a <ddf_fun_create+0x6a>
    2ba9:	8d b4 26 00 00 00 00 	lea    0x0(%esi,%eiz,1),%esi

00002bb0 <ddf_fun_data_alloc>:
    2bb0:	55                   	push   %ebp
    2bb1:	89 e5                	mov    %esp,%ebp
    2bb3:	53                   	push   %ebx
    2bb4:	83 ec 14             	sub    $0x14,%esp
    2bb7:	8b 5d 08             	mov    0x8(%ebp),%ebx
    2bba:	80 3b 00             	cmpb   $0x0,(%ebx)
    2bbd:	75 27                	jne    2be6 <ddf_fun_data_alloc+0x36>
    2bbf:	8b 43 20             	mov    0x20(%ebx),%eax
    2bc2:	85 c0                	test   %eax,%eax
    2bc4:	75 3c                	jne    2c02 <ddf_fun_data_alloc+0x52>
    2bc6:	8b 45 0c             	mov    0xc(%ebp),%eax
    2bc9:	c7 04 24 01 00 00 00 	movl   $0x1,(%esp)
    2bd0:	89 44 24 04          	mov    %eax,0x4(%esp)
    2bd4:	e8 27 48 01 00       	call   17400 <calloc>
    2bd9:	85 c0                	test   %eax,%eax
    2bdb:	74 03                	je     2be0 <ddf_fun_data_alloc+0x30>
    2bdd:	89 43 20             	mov    %eax,0x20(%ebx)
    2be0:	83 c4 14             	add    $0x14,%esp
    2be3:	5b                   	pop    %ebx
    2be4:	5d                   	pop    %ebp
    2be5:	c3                   	ret    
    2be6:	c7 44 24 08 ec 02 00 	movl   $0x2ec,0x8(%esp)
    2bed:	00 
    2bee:	c7 44 24 04 dc 68 02 	movl   $0x268dc,0x4(%esp)
    2bf5:	00 
    2bf6:	c7 04 24 74 69 02 00 	movl   $0x26974,(%esp)
    2bfd:	e8 be f0 01 00       	call   21cc0 <assert_abort>
    2c02:	c7 44 24 08 ed 02 00 	movl   $0x2ed,0x8(%esp)
    2c09:	00 
    2c0a:	c7 44 24 04 dc 68 02 	movl   $0x268dc,0x4(%esp)
    2c11:	00 
    2c12:	c7 04 24 30 69 02 00 	movl   $0x26930,(%esp)
    2c19:	e8 a2 f0 01 00       	call   21cc0 <assert_abort>
    2c1e:	66 90                	xchg   %ax,%ax

00002c20 <ddf_fun_data_get>:
    2c20:	55                   	push   %ebp
    2c21:	89 e5                	mov    %esp,%ebp
    2c23:	8b 45 08             	mov    0x8(%ebp),%eax
    2c26:	5d                   	pop    %ebp
    2c27:	8b 40 20             	mov    0x20(%eax),%eax
    2c2a:	c3                   	ret    
    2c2b:	90                   	nop
    2c2c:	8d 74 26 00          	lea    0x0(%esi,%eiz,1),%esi

00002c30 <ddf_fun_get_name>:
    2c30:	55                   	push   %ebp
    2c31:	89 e5                	mov    %esp,%ebp
    2c33:	8b 45 08             	mov    0x8(%ebp),%eax
    2c36:	5d                   	pop    %ebp
    2c37:	8b 40 14             	mov    0x14(%eax),%eax
    2c3a:	c3                   	ret    
    2c3b:	90                   	nop
    2c3c:	8d 74 26 00          	lea    0x0(%esi,%eiz,1),%esi

00002c40 <ddf_fun_destroy>:
    2c40:	55                   	push   %ebp
    2c41:	89 e5                	mov    %esp,%ebp
    2c43:	57                   	push   %edi
    2c44:	56                   	push   %esi
    2c45:	53                   	push   %ebx
    2c46:	83 ec 2c             	sub    $0x2c,%esp
    2c49:	8b 5d 08             	mov    0x8(%ebp),%ebx
    2c4c:	80 3b 00             	cmpb   $0x0,(%ebx)
    2c4f:	0f 85 d8 00 00 00    	jne    2d2d <ddf_fun_destroy+0xed>
    2c55:	8b 73 0c             	mov    0xc(%ebx),%esi
    2c58:	83 c8 ff             	or     $0xffffffff,%eax
    2c5b:	f0 0f c1 43 08       	lock xadd %eax,0x8(%ebx)
    2c60:	48                   	dec    %eax
    2c61:	74 1d                	je     2c80 <ddf_fun_destroy+0x40>
    2c63:	83 c8 ff             	or     $0xffffffff,%eax
    2c66:	f0 0f c1 46 04       	lock xadd %eax,0x4(%esi)
    2c6b:	48                   	dec    %eax
    2c6c:	0f 84 8e 00 00 00    	je     2d00 <ddf_fun_destroy+0xc0>
    2c72:	83 c4 2c             	add    $0x2c,%esp
    2c75:	5b                   	pop    %ebx
    2c76:	5e                   	pop    %esi
    2c77:	5f                   	pop    %edi
    2c78:	5d                   	pop    %ebp
    2c79:	c3                   	ret    
    2c7a:	8d b6 00 00 00 00    	lea    0x0(%esi),%esi
    2c80:	8d 7b 18             	lea    0x18(%ebx),%edi
    2c83:	8b 43 1c             	mov    0x1c(%ebx),%eax
    2c86:	39 f8                	cmp    %edi,%eax
    2c88:	74 4b                	je     2cd5 <ddf_fun_destroy+0x95>
    2c8a:	8d b6 00 00 00 00    	lea    0x0(%esi),%esi
    2c90:	8b 08                	mov    (%eax),%ecx
    2c92:	85 c9                	test   %ecx,%ecx
    2c94:	74 0e                	je     2ca4 <ddf_fun_destroy+0x64>
    2c96:	8b 50 04             	mov    0x4(%eax),%edx
    2c99:	85 d2                	test   %edx,%edx
    2c9b:	74 07                	je     2ca4 <ddf_fun_destroy+0x64>
    2c9d:	89 0a                	mov    %ecx,(%edx)
    2c9f:	8b 08                	mov    (%eax),%ecx
    2ca1:	89 51 04             	mov    %edx,0x4(%ecx)
    2ca4:	8b 50 08             	mov    0x8(%eax),%edx
    2ca7:	c7 00 00 00 00 00    	movl   $0x0,(%eax)
    2cad:	c7 40 04 00 00 00 00 	movl   $0x0,0x4(%eax)
    2cb4:	85 d2                	test   %edx,%edx
    2cb6:	74 0e                	je     2cc6 <ddf_fun_destroy+0x86>
    2cb8:	89 14 24             	mov    %edx,(%esp)
    2cbb:	89 45 e4             	mov    %eax,-0x1c(%ebp)
    2cbe:	e8 ad 48 01 00       	call   17570 <free>
    2cc3:	8b 45 e4             	mov    -0x1c(%ebp),%eax
    2cc6:	89 04 24             	mov    %eax,(%esp)
    2cc9:	e8 a2 48 01 00       	call   17570 <free>
    2cce:	8b 47 04             	mov    0x4(%edi),%eax
    2cd1:	39 f8                	cmp    %edi,%eax
    2cd3:	75 bb                	jne    2c90 <ddf_fun_destroy+0x50>
    2cd5:	8b 43 20             	mov    0x20(%ebx),%eax
    2cd8:	85 c0                	test   %eax,%eax
    2cda:	74 08                	je     2ce4 <ddf_fun_destroy+0xa4>
    2cdc:	89 04 24             	mov    %eax,(%esp)
    2cdf:	e8 8c 48 01 00       	call   17570 <free>
    2ce4:	8b 43 14             	mov    0x14(%ebx),%eax
    2ce7:	85 c0                	test   %eax,%eax
    2ce9:	74 08                	je     2cf3 <ddf_fun_destroy+0xb3>
    2ceb:	89 04 24             	mov    %eax,(%esp)
    2cee:	e8 7d 48 01 00       	call   17570 <free>
    2cf3:	89 1c 24             	mov    %ebx,(%esp)
    2cf6:	e8 75 48 01 00       	call   17570 <free>
    2cfb:	e9 63 ff ff ff       	jmp    2c63 <ddf_fun_destroy+0x23>
    2d00:	8b 46 08             	mov    0x8(%esi),%eax
    2d03:	85 c0                	test   %eax,%eax
    2d05:	74 08                	je     2d0f <ddf_fun_destroy+0xcf>
    2d07:	89 04 24             	mov    %eax,(%esp)
    2d0a:	e8 91 7b 01 00       	call   1a8a0 <async_hangup>
    2d0f:	8b 46 10             	mov    0x10(%esi),%eax
    2d12:	85 c0                	test   %eax,%eax
    2d14:	74 08                	je     2d1e <ddf_fun_destroy+0xde>
    2d16:	89 04 24             	mov    %eax,(%esp)
    2d19:	e8 52 48 01 00       	call   17570 <free>
    2d1e:	89 75 08             	mov    %esi,0x8(%ebp)
    2d21:	83 c4 2c             	add    $0x2c,%esp
    2d24:	5b                   	pop    %ebx
    2d25:	5e                   	pop    %esi
    2d26:	5f                   	pop    %edi
    2d27:	5d                   	pop    %ebp
    2d28:	e9 43 48 01 00       	jmp    17570 <free>
    2d2d:	c7 44 24 08 11 03 00 	movl   $0x311,0x8(%esp)
    2d34:	00 
    2d35:	c7 44 24 04 dc 68 02 	movl   $0x268dc,0x4(%esp)
    2d3c:	00 
    2d3d:	c7 04 24 74 69 02 00 	movl   $0x26974,(%esp)
    2d44:	e8 77 ef 01 00       	call   21cc0 <assert_abort>
    2d49:	8d b4 26 00 00 00 00 	lea    0x0(%esi,%eiz,1),%esi

00002d50 <ddf_fun_bind>:
    2d50:	55                   	push   %ebp
    2d51:	89 e5                	mov    %esp,%ebp
    2d53:	53                   	push   %ebx
    2d54:	83 ec 34             	sub    $0x34,%esp
    2d57:	8b 5d 08             	mov    0x8(%ebp),%ebx
    2d5a:	80 3b 00             	cmpb   $0x0,(%ebx)
    2d5d:	0f 85 c3 00 00 00    	jne    2e26 <ddf_fun_bind+0xd6>
    2d63:	8b 43 14             	mov    0x14(%ebx),%eax
    2d66:	85 c0                	test   %eax,%eax
    2d68:	0f 84 d4 00 00 00    	je     2e42 <ddf_fun_bind+0xf2>
    2d6e:	c7 04 24 04 99 02 00 	movl   $0x29904,(%esp)
    2d75:	e8 06 b4 00 00       	call   e180 <fibril_mutex_lock>
    2d7a:	8b 15 14 99 02 00    	mov    0x29914,%edx
    2d80:	8d 43 2c             	lea    0x2c(%ebx),%eax
    2d83:	c7 43 30 14 99 02 00 	movl   $0x29914,0x30(%ebx)
    2d8a:	89 53 2c             	mov    %edx,0x2c(%ebx)
    2d8d:	89 42 04             	mov    %eax,0x4(%edx)
    2d90:	c7 04 24 04 99 02 00 	movl   $0x29904,(%esp)
    2d97:	a3 14 99 02 00       	mov    %eax,0x29914
    2d9c:	e8 ff b4 00 00       	call   e2a0 <fibril_mutex_unlock>
    2da1:	8d 43 04             	lea    0x4(%ebx),%eax
    2da4:	89 44 24 10          	mov    %eax,0x10(%esp)
    2da8:	8b 43 0c             	mov    0xc(%ebx),%eax
    2dab:	8b 00                	mov    (%eax),%eax
    2dad:	89 44 24 0c          	mov    %eax,0xc(%esp)
    2db1:	8d 43 18             	lea    0x18(%ebx),%eax
    2db4:	89 44 24 08          	mov    %eax,0x8(%esp)
    2db8:	8b 43 10             	mov    0x10(%ebx),%eax
    2dbb:	89 44 24 04          	mov    %eax,0x4(%esp)
    2dbf:	8b 43 14             	mov    0x14(%ebx),%eax
    2dc2:	89 04 24             	mov    %eax,(%esp)
    2dc5:	e8 56 58 00 00       	call   8620 <devman_add_function>
    2dca:	85 c0                	test   %eax,%eax
    2dcc:	75 0a                	jne    2dd8 <ddf_fun_bind+0x88>
    2dce:	c6 03 01             	movb   $0x1,(%ebx)
    2dd1:	83 c4 34             	add    $0x34,%esp
    2dd4:	5b                   	pop    %ebx
    2dd5:	5d                   	pop    %ebp
    2dd6:	c3                   	ret    
    2dd7:	90                   	nop
    2dd8:	c7 04 24 04 99 02 00 	movl   $0x29904,(%esp)
    2ddf:	89 45 f4             	mov    %eax,-0xc(%ebp)
    2de2:	e8 99 b3 00 00       	call   e180 <fibril_mutex_lock>
    2de7:	8b 4b 2c             	mov    0x2c(%ebx),%ecx
    2dea:	85 c9                	test   %ecx,%ecx
    2dec:	8b 45 f4             	mov    -0xc(%ebp),%eax
    2def:	74 0f                	je     2e00 <ddf_fun_bind+0xb0>
    2df1:	8b 53 30             	mov    0x30(%ebx),%edx
    2df4:	85 d2                	test   %edx,%edx
    2df6:	74 08                	je     2e00 <ddf_fun_bind+0xb0>
    2df8:	89 0a                	mov    %ecx,(%edx)
    2dfa:	8b 4b 2c             	mov    0x2c(%ebx),%ecx
    2dfd:	89 51 04             	mov    %edx,0x4(%ecx)
    2e00:	c7 43 2c 00 00 00 00 	movl   $0x0,0x2c(%ebx)
    2e07:	c7 43 30 00 00 00 00 	movl   $0x0,0x30(%ebx)
    2e0e:	c7 04 24 04 99 02 00 	movl   $0x29904,(%esp)
    2e15:	89 45 f4             	mov    %eax,-0xc(%ebp)
    2e18:	e8 83 b4 00 00       	call   e2a0 <fibril_mutex_unlock>
    2e1d:	8b 45 f4             	mov    -0xc(%ebp),%eax
    2e20:	83 c4 34             	add    $0x34,%esp
    2e23:	5b                   	pop    %ebx
    2e24:	5d                   	pop    %ebp
    2e25:	c3                   	ret    
    2e26:	c7 44 24 08 35 03 00 	movl   $0x335,0x8(%esp)
    2e2d:	00 
    2e2e:	c7 44 24 04 dc 68 02 	movl   $0x268dc,0x4(%esp)
    2e35:	00 
    2e36:	c7 04 24 74 69 02 00 	movl   $0x26974,(%esp)
    2e3d:	e8 7e ee 01 00       	call   21cc0 <assert_abort>
    2e42:	c7 44 24 08 36 03 00 	movl   $0x336,0x8(%esp)
    2e49:	00 
    2e4a:	c7 44 24 04 dc 68 02 	movl   $0x268dc,0x4(%esp)
    2e51:	00 
    2e52:	c7 04 24 88 69 02 00 	movl   $0x26988,(%esp)
    2e59:	e8 62 ee 01 00       	call   21cc0 <assert_abort>
    2e5e:	66 90                	xchg   %ax,%ax

00002e60 <ddf_fun_unbind>:
    2e60:	55                   	push   %ebp
    2e61:	89 e5                	mov    %esp,%ebp
    2e63:	53                   	push   %ebx
    2e64:	83 ec 24             	sub    $0x24,%esp
    2e67:	8b 5d 08             	mov    0x8(%ebp),%ebx
    2e6a:	80 3b 00             	cmpb   $0x0,(%ebx)
    2e6d:	74 6a                	je     2ed9 <ddf_fun_unbind+0x79>
    2e6f:	8b 43 04             	mov    0x4(%ebx),%eax
    2e72:	89 04 24             	mov    %eax,(%esp)
    2e75:	e8 46 5c 00 00       	call   8ac0 <devman_remove_function>
    2e7a:	85 c0                	test   %eax,%eax
    2e7c:	74 0a                	je     2e88 <ddf_fun_unbind+0x28>
    2e7e:	83 c4 24             	add    $0x24,%esp
    2e81:	5b                   	pop    %ebx
    2e82:	5d                   	pop    %ebp
    2e83:	c3                   	ret    
    2e84:	8d 74 26 00          	lea    0x0(%esi,%eiz,1),%esi
    2e88:	c7 04 24 04 99 02 00 	movl   $0x29904,(%esp)
    2e8f:	89 45 f4             	mov    %eax,-0xc(%ebp)
    2e92:	e8 e9 b2 00 00       	call   e180 <fibril_mutex_lock>
    2e97:	8b 4b 2c             	mov    0x2c(%ebx),%ecx
    2e9a:	85 c9                	test   %ecx,%ecx
    2e9c:	8b 45 f4             	mov    -0xc(%ebp),%eax
    2e9f:	74 0f                	je     2eb0 <ddf_fun_unbind+0x50>
    2ea1:	8b 53 30             	mov    0x30(%ebx),%edx
    2ea4:	85 d2                	test   %edx,%edx
    2ea6:	74 08                	je     2eb0 <ddf_fun_unbind+0x50>
    2ea8:	89 0a                	mov    %ecx,(%edx)
    2eaa:	8b 4b 2c             	mov    0x2c(%ebx),%ecx
    2ead:	89 51 04             	mov    %edx,0x4(%ecx)
    2eb0:	c7 43 2c 00 00 00 00 	movl   $0x0,0x2c(%ebx)
    2eb7:	c7 43 30 00 00 00 00 	movl   $0x0,0x30(%ebx)
    2ebe:	c7 04 24 04 99 02 00 	movl   $0x29904,(%esp)
    2ec5:	89 45 f4             	mov    %eax,-0xc(%ebp)
    2ec8:	e8 d3 b3 00 00       	call   e2a0 <fibril_mutex_unlock>
    2ecd:	c6 03 00             	movb   $0x0,(%ebx)
    2ed0:	8b 45 f4             	mov    -0xc(%ebp),%eax
    2ed3:	83 c4 24             	add    $0x24,%esp
    2ed6:	5b                   	pop    %ebx
    2ed7:	5d                   	pop    %ebp
    2ed8:	c3                   	ret    
    2ed9:	c7 44 24 08 50 03 00 	movl   $0x350,0x8(%esp)
    2ee0:	00 
    2ee1:	c7 44 24 04 dc 68 02 	movl   $0x268dc,0x4(%esp)
    2ee8:	00 
    2ee9:	c7 04 24 9a 69 02 00 	movl   $0x2699a,(%esp)
    2ef0:	e8 cb ed 01 00       	call   21cc0 <assert_abort>
    2ef5:	8d 74 26 00          	lea    0x0(%esi,%eiz,1),%esi
    2ef9:	8d bc 27 00 00 00 00 	lea    0x0(%edi,%eiz,1),%edi

00002f00 <ddf_fun_online>:
    2f00:	55                   	push   %ebp
    2f01:	89 e5                	mov    %esp,%ebp
    2f03:	83 ec 18             	sub    $0x18,%esp
    2f06:	8b 45 08             	mov    0x8(%ebp),%eax
    2f09:	80 38 00             	cmpb   $0x0,(%eax)
    2f0c:	74 0c                	je     2f1a <ddf_fun_online+0x1a>
    2f0e:	8b 40 04             	mov    0x4(%eax),%eax
    2f11:	89 45 08             	mov    %eax,0x8(%ebp)
    2f14:	c9                   	leave  
    2f15:	e9 16 5d 00 00       	jmp    8c30 <devman_drv_fun_online>
    2f1a:	c7 44 24 08 65 03 00 	movl   $0x365,0x8(%esp)
    2f21:	00 
    2f22:	c7 44 24 04 dc 68 02 	movl   $0x268dc,0x4(%esp)
    2f29:	00 
    2f2a:	c7 04 24 9a 69 02 00 	movl   $0x2699a,(%esp)
    2f31:	e8 8a ed 01 00       	call   21cc0 <assert_abort>
    2f36:	8d 76 00             	lea    0x0(%esi),%esi
    2f39:	8d bc 27 00 00 00 00 	lea    0x0(%edi,%eiz,1),%edi

00002f40 <ddf_fun_offline>:
    2f40:	55                   	push   %ebp
    2f41:	89 e5                	mov    %esp,%ebp
    2f43:	83 ec 18             	sub    $0x18,%esp
    2f46:	8b 45 08             	mov    0x8(%ebp),%eax
    2f49:	80 38 00             	cmpb   $0x0,(%eax)
    2f4c:	74 0c                	je     2f5a <ddf_fun_offline+0x1a>
    2f4e:	8b 40 04             	mov    0x4(%eax),%eax
    2f51:	89 45 08             	mov    %eax,0x8(%ebp)
    2f54:	c9                   	leave  
    2f55:	e9 c6 5d 00 00       	jmp    8d20 <devman_drv_fun_offline>
    2f5a:	c7 44 24 08 77 03 00 	movl   $0x377,0x8(%esp)
    2f61:	00 
    2f62:	c7 44 24 04 dc 68 02 	movl   $0x268dc,0x4(%esp)
    2f69:	00 
    2f6a:	c7 04 24 9a 69 02 00 	movl   $0x2699a,(%esp)
    2f71:	e8 4a ed 01 00       	call   21cc0 <assert_abort>
    2f76:	8d 76 00             	lea    0x0(%esi),%esi
    2f79:	8d bc 27 00 00 00 00 	lea    0x0(%edi,%eiz,1),%edi

00002f80 <ddf_fun_add_match_id>:
    2f80:	55                   	push   %ebp
    2f81:	89 e5                	mov    %esp,%ebp
    2f83:	57                   	push   %edi
    2f84:	56                   	push   %esi
    2f85:	53                   	push   %ebx
    2f86:	83 ec 1c             	sub    $0x1c,%esp
    2f89:	8b 75 08             	mov    0x8(%ebp),%esi
    2f8c:	8b 5d 10             	mov    0x10(%ebp),%ebx
    2f8f:	80 3e 00             	cmpb   $0x0,(%esi)
    2f92:	0f 85 97 00 00 00    	jne    302f <ddf_fun_add_match_id+0xaf>
    2f98:	83 7e 10 01          	cmpl   $0x1,0x10(%esi)
    2f9c:	75 75                	jne    3013 <ddf_fun_add_match_id+0x93>
    2f9e:	c7 04 24 10 00 00 00 	movl   $0x10,(%esp)
    2fa5:	e8 b6 44 01 00       	call   17460 <malloc>
    2faa:	c7 44 24 08 10 00 00 	movl   $0x10,0x8(%esp)
    2fb1:	00 
    2fb2:	89 c7                	mov    %eax,%edi
    2fb4:	c7 44 24 04 00 00 00 	movl   $0x0,0x4(%esp)
    2fbb:	00 
    2fbc:	89 04 24             	mov    %eax,(%esp)
    2fbf:	e8 5c 6f 00 00       	call   9f20 <memset>
    2fc4:	85 ff                	test   %edi,%edi
    2fc6:	74 44                	je     300c <ddf_fun_add_match_id+0x8c>
    2fc8:	8b 45 0c             	mov    0xc(%ebp),%eax
    2fcb:	89 04 24             	mov    %eax,(%esp)
    2fce:	e8 7d 9e 00 00       	call   ce50 <str_dup>
    2fd3:	8b 56 1c             	mov    0x1c(%esi),%edx
    2fd6:	8d 4e 18             	lea    0x18(%esi),%ecx
    2fd9:	89 47 08             	mov    %eax,0x8(%edi)
    2fdc:	89 5f 0c             	mov    %ebx,0xc(%edi)
    2fdf:	39 ca                	cmp    %ecx,%edx
    2fe1:	75 0c                	jne    2fef <ddf_fun_add_match_id+0x6f>
    2fe3:	eb 0f                	jmp    2ff4 <ddf_fun_add_match_id+0x74>
    2fe5:	8d 76 00             	lea    0x0(%esi),%esi
    2fe8:	8b 52 04             	mov    0x4(%edx),%edx
    2feb:	39 ca                	cmp    %ecx,%edx
    2fed:	74 05                	je     2ff4 <ddf_fun_add_match_id+0x74>
    2fef:	3b 5a 0c             	cmp    0xc(%edx),%ebx
    2ff2:	76 f4                	jbe    2fe8 <ddf_fun_add_match_id+0x68>
    2ff4:	8b 02                	mov    (%edx),%eax
    2ff6:	89 57 04             	mov    %edx,0x4(%edi)
    2ff9:	89 07                	mov    %eax,(%edi)
    2ffb:	8b 02                	mov    (%edx),%eax
    2ffd:	89 3a                	mov    %edi,(%edx)
    2fff:	89 78 04             	mov    %edi,0x4(%eax)
    3002:	31 c0                	xor    %eax,%eax
    3004:	83 c4 1c             	add    $0x1c,%esp
    3007:	5b                   	pop    %ebx
    3008:	5e                   	pop    %esi
    3009:	5f                   	pop    %edi
    300a:	5d                   	pop    %ebp
    300b:	c3                   	ret    
    300c:	b8 fe ff ff ff       	mov    $0xfffffffe,%eax
    3011:	eb f1                	jmp    3004 <ddf_fun_add_match_id+0x84>
    3013:	c7 44 24 08 91 03 00 	movl   $0x391,0x8(%esp)
    301a:	00 
    301b:	c7 44 24 04 dc 68 02 	movl   $0x268dc,0x4(%esp)
    3022:	00 
    3023:	c7 04 24 ad 69 02 00 	movl   $0x269ad,(%esp)
    302a:	e8 91 ec 01 00       	call   21cc0 <assert_abort>
    302f:	c7 44 24 08 90 03 00 	movl   $0x390,0x8(%esp)
    3036:	00 
    3037:	c7 44 24 04 dc 68 02 	movl   $0x268dc,0x4(%esp)
    303e:	00 
    303f:	c7 04 24 74 69 02 00 	movl   $0x26974,(%esp)
    3046:	e8 75 ec 01 00       	call   21cc0 <assert_abort>
    304b:	90                   	nop
    304c:	8d 74 26 00          	lea    0x0(%esi,%eiz,1),%esi

00003050 <ddf_fun_set_ops>:
    3050:	55                   	push   %ebp
    3051:	89 e5                	mov    %esp,%ebp
    3053:	83 ec 18             	sub    $0x18,%esp
    3056:	8b 45 08             	mov    0x8(%ebp),%eax
    3059:	8b 50 28             	mov    0x28(%eax),%edx
    305c:	85 d2                	test   %edx,%edx
    305e:	75 08                	jne    3068 <ddf_fun_set_ops+0x18>
    3060:	8b 55 0c             	mov    0xc(%ebp),%edx
    3063:	89 50 24             	mov    %edx,0x24(%eax)
    3066:	c9                   	leave  
    3067:	c3                   	ret    
    3068:	c7 44 24 08 a1 03 00 	movl   $0x3a1,0x8(%esp)
    306f:	00 
    3070:	c7 44 24 04 dc 68 02 	movl   $0x268dc,0x4(%esp)
    3077:	00 
    3078:	c7 04 24 c5 69 02 00 	movl   $0x269c5,(%esp)
    307f:	e8 3c ec 01 00       	call   21cc0 <assert_abort>
    3084:	8d b6 00 00 00 00    	lea    0x0(%esi),%esi
    308a:	8d bf 00 00 00 00    	lea    0x0(%edi),%edi

00003090 <ddf_fun_set_conn_handler>:
    3090:	55                   	push   %ebp
    3091:	89 e5                	mov    %esp,%ebp
    3093:	83 ec 18             	sub    $0x18,%esp
    3096:	8b 45 08             	mov    0x8(%ebp),%eax
    3099:	8b 48 24             	mov    0x24(%eax),%ecx
    309c:	85 c9                	test   %ecx,%ecx
    309e:	75 08                	jne    30a8 <ddf_fun_set_conn_handler+0x18>
    30a0:	8b 55 0c             	mov    0xc(%ebp),%edx
    30a3:	89 50 28             	mov    %edx,0x28(%eax)
    30a6:	c9                   	leave  
    30a7:	c3                   	ret    
    30a8:	c7 44 24 08 ab 03 00 	movl   $0x3ab,0x8(%esp)
    30af:	00 
    30b0:	c7 44 24 04 dc 68 02 	movl   $0x268dc,0x4(%esp)
    30b7:	00 
    30b8:	c7 04 24 df 69 02 00 	movl   $0x269df,(%esp)
    30bf:	e8 fc eb 01 00       	call   21cc0 <assert_abort>
    30c4:	8d b6 00 00 00 00    	lea    0x0(%esi),%esi
    30ca:	8d bf 00 00 00 00    	lea    0x0(%edi),%edi

000030d0 <ddf_fun_add_to_category>:
    30d0:	55                   	push   %ebp
    30d1:	89 e5                	mov    %esp,%ebp
    30d3:	83 ec 18             	sub    $0x18,%esp
    30d6:	8b 45 08             	mov    0x8(%ebp),%eax
    30d9:	8b 55 0c             	mov    0xc(%ebp),%edx
    30dc:	80 38 00             	cmpb   $0x0,(%eax)
    30df:	74 15                	je     30f6 <ddf_fun_add_to_category+0x26>
    30e1:	83 78 10 02          	cmpl   $0x2,0x10(%eax)
    30e5:	75 2b                	jne    3112 <ddf_fun_add_to_category+0x42>
    30e7:	89 55 0c             	mov    %edx,0xc(%ebp)
    30ea:	8b 40 04             	mov    0x4(%eax),%eax
    30ed:	89 45 08             	mov    %eax,0x8(%ebp)
    30f0:	c9                   	leave  
    30f1:	e9 ea 57 00 00       	jmp    88e0 <devman_add_device_to_category>
    30f6:	c7 44 24 08 be 03 00 	movl   $0x3be,0x8(%esp)
    30fd:	00 
    30fe:	c7 44 24 04 dc 68 02 	movl   $0x268dc,0x4(%esp)
    3105:	00 
    3106:	c7 04 24 9a 69 02 00 	movl   $0x2699a,(%esp)
    310d:	e8 ae eb 01 00       	call   21cc0 <assert_abort>
    3112:	c7 44 24 08 bf 03 00 	movl   $0x3bf,0x8(%esp)
    3119:	00 
    311a:	c7 44 24 04 dc 68 02 	movl   $0x268dc,0x4(%esp)
    3121:	00 
    3122:	c7 04 24 f0 69 02 00 	movl   $0x269f0,(%esp)
    3129:	e8 92 eb 01 00       	call   21cc0 <assert_abort>
    312e:	66 90                	xchg   %ax,%ax

00003130 <ddf_driver_main>:
    3130:	55                   	push   %ebp
    3131:	89 e5                	mov    %esp,%ebp
    3133:	53                   	push   %ebx
    3134:	83 ec 14             	sub    $0x14,%esp
    3137:	8b 45 08             	mov    0x8(%ebp),%eax
    313a:	a3 d8 9d 02 00       	mov    %eax,0x29dd8
    313f:	e8 7c 01 00 00       	call   32c0 <interrupt_init>
    3144:	c7 04 24 80 23 00 00 	movl   $0x2380,(%esp)
    314b:	e8 00 56 01 00       	call   18750 <async_set_client_connection>
    3150:	a1 d8 9d 02 00       	mov    0x29dd8,%eax
    3155:	8b 00                	mov    (%eax),%eax
    3157:	89 04 24             	mov    %eax,(%esp)
    315a:	e8 81 52 00 00       	call   83e0 <devman_driver_register>
    315f:	89 c3                	mov    %eax,%ebx
    3161:	85 c0                	test   %eax,%eax
    3163:	74 2b                	je     3190 <ddf_driver_main+0x60>
    3165:	b8 0a 6a 02 00       	mov    $0x26a0a,%eax
    316a:	83 fb f7             	cmp    $0xfffffff7,%ebx
    316d:	74 08                	je     3177 <ddf_driver_main+0x47>
    316f:	89 1c 24             	mov    %ebx,(%esp)
    3172:	e8 19 a6 00 00       	call   d790 <str_error>
    3177:	89 44 24 04          	mov    %eax,0x4(%esp)
    317b:	c7 04 24 98 6b 02 00 	movl   $0x26b98,(%esp)
    3182:	e8 89 ef 00 00       	call   12110 <printf>
    3187:	83 c4 14             	add    $0x14,%esp
    318a:	89 d8                	mov    %ebx,%eax
    318c:	5b                   	pop    %ebx
    318d:	5d                   	pop    %ebp
    318e:	c3                   	ret    
    318f:	90                   	nop
    3190:	c7 04 24 00 00 00 00 	movl   $0x0,(%esp)
    3197:	e8 34 c9 00 00       	call   fad0 <task_retval>
    319c:	89 c3                	mov    %eax,%ebx
    319e:	85 c0                	test   %eax,%eax
    31a0:	75 e5                	jne    3187 <ddf_driver_main+0x57>
    31a2:	c7 04 24 01 00 00 00 	movl   $0x1,(%esp)
    31a9:	e8 02 a8 00 00       	call   d9b0 <fibril_switch>
    31ae:	83 c4 14             	add    $0x14,%esp
    31b1:	89 d8                	mov    %ebx,%eax
    31b3:	5b                   	pop    %ebx
    31b4:	5d                   	pop    %ebp
    31b5:	c3                   	ret    
    31b6:	66 90                	xchg   %ax,%ax
    31b8:	66 90                	xchg   %ax,%ax
    31ba:	66 90                	xchg   %ax,%ax
    31bc:	66 90                	xchg   %ax,%ax
    31be:	66 90                	xchg   %ax,%ax

000031c0 <get_remote_iface>:
    31c0:	55                   	push   %ebp
    31c1:	89 e5                	mov    %esp,%ebp
    31c3:	83 ec 18             	sub    $0x18,%esp
    31c6:	8b 45 08             	mov    0x8(%ebp),%eax
    31c9:	83 f8 0a             	cmp    $0xa,%eax
    31cc:	77 09                	ja     31d7 <get_remote_iface+0x17>
    31ce:	8b 04 85 00 6c 02 00 	mov    0x26c00(,%eax,4),%eax
    31d5:	c9                   	leave  
    31d6:	c3                   	ret    
    31d7:	c7 44 24 08 47 00 00 	movl   $0x47,0x8(%esp)
    31de:	00 
    31df:	c7 44 24 04 e8 6b 02 	movl   $0x26be8,0x4(%esp)
    31e6:	00 
    31e7:	c7 04 24 ed 68 02 00 	movl   $0x268ed,(%esp)
    31ee:	e8 cd ea 01 00       	call   21cc0 <assert_abort>
    31f3:	8d b6 00 00 00 00    	lea    0x0(%esi),%esi
    31f9:	8d bc 27 00 00 00 00 	lea    0x0(%edi,%eiz,1),%edi

00003200 <get_remote_method>:
    3200:	55                   	push   %ebp
    3201:	89 e5                	mov    %esp,%ebp
    3203:	8b 55 08             	mov    0x8(%ebp),%edx
    3206:	8b 45 0c             	mov    0xc(%ebp),%eax
    3209:	39 02                	cmp    %eax,(%edx)
    320b:	76 0b                	jbe    3218 <get_remote_method+0x18>
    320d:	8b 52 04             	mov    0x4(%edx),%edx
    3210:	5d                   	pop    %ebp
    3211:	8b 04 82             	mov    (%edx,%eax,4),%eax
    3214:	c3                   	ret    
    3215:	8d 76 00             	lea    0x0(%esi),%esi
    3218:	31 c0                	xor    %eax,%eax
    321a:	5d                   	pop    %ebp
    321b:	c3                   	ret    
    321c:	8d 74 26 00          	lea    0x0(%esi,%eiz,1),%esi

00003220 <is_valid_iface_idx>:
    3220:	55                   	push   %ebp
    3221:	89 e5                	mov    %esp,%ebp
    3223:	83 7d 08 0a          	cmpl   $0xa,0x8(%ebp)
    3227:	5d                   	pop    %ebp
    3228:	0f 96 c0             	setbe  %al
    322b:	c3                   	ret    
    322c:	66 90                	xchg   %ax,%ax
    322e:	66 90                	xchg   %ax,%ax

00003230 <driver_irq_handler>:
    3230:	55                   	push   %ebp
    3231:	89 e5                	mov    %esp,%ebp
    3233:	57                   	push   %edi
    3234:	56                   	push   %esi
    3235:	53                   	push   %ebx
    3236:	83 ec 2c             	sub    $0x2c,%esp
    3239:	8b 5d 0c             	mov    0xc(%ebp),%ebx
    323c:	8b 45 08             	mov    0x8(%ebp),%eax
    323f:	89 45 e4             	mov    %eax,-0x1c(%ebp)
    3242:	8b 33                	mov    (%ebx),%esi
    3244:	c7 04 24 e8 9d 02 00 	movl   $0x29de8,(%esp)
    324b:	e8 30 af 00 00       	call   e180 <fibril_mutex_lock>
    3250:	a1 e4 9d 02 00       	mov    0x29de4,%eax
    3255:	3d e0 9d 02 00       	cmp    $0x29de0,%eax
    325a:	75 0e                	jne    326a <driver_irq_handler+0x3a>
    325c:	eb 42                	jmp    32a0 <driver_irq_handler+0x70>
    325e:	66 90                	xchg   %ax,%ax
    3260:	8b 40 04             	mov    0x4(%eax),%eax
    3263:	3d e0 9d 02 00       	cmp    $0x29de0,%eax
    3268:	74 36                	je     32a0 <driver_irq_handler+0x70>
    326a:	8d 78 f0             	lea    -0x10(%eax),%edi
    326d:	3b 70 f0             	cmp    -0x10(%eax),%esi
    3270:	75 ee                	jne    3260 <driver_irq_handler+0x30>
    3272:	c7 04 24 e8 9d 02 00 	movl   $0x29de8,(%esp)
    3279:	e8 22 b0 00 00       	call   e2a0 <fibril_mutex_unlock>
    327e:	8b 47 0c             	mov    0xc(%edi),%eax
    3281:	85 c0                	test   %eax,%eax
    3283:	74 13                	je     3298 <driver_irq_handler+0x68>
    3285:	8b 55 e4             	mov    -0x1c(%ebp),%edx
    3288:	89 5c 24 08          	mov    %ebx,0x8(%esp)
    328c:	89 54 24 04          	mov    %edx,0x4(%esp)
    3290:	8b 57 04             	mov    0x4(%edi),%edx
    3293:	89 14 24             	mov    %edx,(%esp)
    3296:	ff d0                	call   *%eax
    3298:	83 c4 2c             	add    $0x2c,%esp
    329b:	5b                   	pop    %ebx
    329c:	5e                   	pop    %esi
    329d:	5f                   	pop    %edi
    329e:	5d                   	pop    %ebp
    329f:	c3                   	ret    
    32a0:	c7 45 08 e8 9d 02 00 	movl   $0x29de8,0x8(%ebp)
    32a7:	83 c4 2c             	add    $0x2c,%esp
    32aa:	5b                   	pop    %ebx
    32ab:	5e                   	pop    %esi
    32ac:	5f                   	pop    %edi
    32ad:	5d                   	pop    %ebp
    32ae:	e9 ed af 00 00       	jmp    e2a0 <fibril_mutex_unlock>
    32b3:	8d b6 00 00 00 00    	lea    0x0(%esi),%esi
    32b9:	8d bc 27 00 00 00 00 	lea    0x0(%edi,%eiz,1),%edi

000032c0 <interrupt_init>:
    32c0:	55                   	push   %ebp
    32c1:	89 e5                	mov    %esp,%ebp
    32c3:	83 ec 18             	sub    $0x18,%esp
    32c6:	c7 44 24 08 1c 00 00 	movl   $0x1c,0x8(%esp)
    32cd:	00 
    32ce:	c7 44 24 04 00 00 00 	movl   $0x0,0x4(%esp)
    32d5:	00 
    32d6:	c7 04 24 dc 9d 02 00 	movl   $0x29ddc,(%esp)
    32dd:	e8 3e 6c 00 00       	call   9f20 <memset>
    32e2:	c7 04 24 e8 9d 02 00 	movl   $0x29de8,(%esp)
    32e9:	e8 72 ae 00 00       	call   e160 <fibril_mutex_initialize>
    32ee:	c7 04 24 30 32 00 00 	movl   $0x3230,(%esp)
    32f5:	c7 05 e0 9d 02 00 e0 	movl   $0x29de0,0x29de0
    32fc:	9d 02 00 
    32ff:	c7 05 e4 9d 02 00 e0 	movl   $0x29de0,0x29de4
    3306:	9d 02 00 
    3309:	e8 82 54 01 00       	call   18790 <async_set_interrupt_received>
    330e:	c9                   	leave  
    330f:	c3                   	ret    

00003310 <register_interrupt_handler>:
    3310:	55                   	push   %ebp
    3311:	89 e5                	mov    %esp,%ebp
    3313:	57                   	push   %edi
    3314:	56                   	push   %esi
    3315:	53                   	push   %ebx
    3316:	83 ec 2c             	sub    $0x2c,%esp
    3319:	8b 7d 08             	mov    0x8(%ebp),%edi
    331c:	8b 5d 14             	mov    0x14(%ebp),%ebx
    331f:	c7 04 24 18 00 00 00 	movl   $0x18,(%esp)
    3326:	e8 35 41 01 00       	call   17460 <malloc>
    332b:	89 c6                	mov    %eax,%esi
    332d:	85 c0                	test   %eax,%eax
    332f:	74 18                	je     3349 <register_interrupt_handler+0x39>
    3331:	c7 44 24 08 18 00 00 	movl   $0x18,0x8(%esp)
    3338:	00 
    3339:	c7 44 24 04 00 00 00 	movl   $0x0,0x4(%esp)
    3340:	00 
    3341:	89 04 24             	mov    %eax,(%esp)
    3344:	e8 d7 6b 00 00       	call   9f20 <memset>
    3349:	8b 45 0c             	mov    0xc(%ebp),%eax
    334c:	c7 04 24 e8 9d 02 00 	movl   $0x29de8,(%esp)
    3353:	89 46 08             	mov    %eax,0x8(%esi)
    3356:	8b 45 10             	mov    0x10(%ebp),%eax
    3359:	89 46 0c             	mov    %eax,0xc(%esi)
    335c:	89 7e 04             	mov    %edi,0x4(%esi)
    335f:	e8 1c ae 00 00       	call   e180 <fibril_mutex_lock>
    3364:	a1 dc 9d 02 00       	mov    0x29ddc,%eax
    3369:	8b 0d e0 9d 02 00    	mov    0x29de0,%ecx
    336f:	89 06                	mov    %eax,(%esi)
    3371:	40                   	inc    %eax
    3372:	c7 46 14 e0 9d 02 00 	movl   $0x29de0,0x14(%esi)
    3379:	a3 dc 9d 02 00       	mov    %eax,0x29ddc
    337e:	8d 46 10             	lea    0x10(%esi),%eax
    3381:	89 41 04             	mov    %eax,0x4(%ecx)
    3384:	c7 04 24 e8 9d 02 00 	movl   $0x29de8,(%esp)
    338b:	89 4e 10             	mov    %ecx,0x10(%esi)
    338e:	a3 e0 9d 02 00       	mov    %eax,0x29de0
    3393:	e8 08 af 00 00       	call   e2a0 <fibril_mutex_unlock>
    3398:	85 db                	test   %ebx,%ebx
    339a:	0f 84 80 00 00 00    	je     3420 <register_interrupt_handler+0x110>
    33a0:	8b 06                	mov    (%esi),%eax
    33a2:	89 5c 24 0c          	mov    %ebx,0xc(%esp)
    33a6:	89 44 24 08          	mov    %eax,0x8(%esp)
    33aa:	8b 07                	mov    (%edi),%eax
    33ac:	89 44 24 04          	mov    %eax,0x4(%esp)
    33b0:	8b 45 0c             	mov    0xc(%ebp),%eax
    33b3:	89 04 24             	mov    %eax,(%esp)
    33b6:	e8 05 4c 00 00       	call   7fc0 <irq_register>
    33bb:	85 c0                	test   %eax,%eax
    33bd:	75 09                	jne    33c8 <register_interrupt_handler+0xb8>
    33bf:	83 c4 2c             	add    $0x2c,%esp
    33c2:	5b                   	pop    %ebx
    33c3:	5e                   	pop    %esi
    33c4:	5f                   	pop    %edi
    33c5:	5d                   	pop    %ebp
    33c6:	c3                   	ret    
    33c7:	90                   	nop
    33c8:	c7 04 24 e8 9d 02 00 	movl   $0x29de8,(%esp)
    33cf:	89 45 e4             	mov    %eax,-0x1c(%ebp)
    33d2:	e8 a9 ad 00 00       	call   e180 <fibril_mutex_lock>
    33d7:	8b 5e 10             	mov    0x10(%esi),%ebx
    33da:	85 db                	test   %ebx,%ebx
    33dc:	8b 45 e4             	mov    -0x1c(%ebp),%eax
    33df:	74 0f                	je     33f0 <register_interrupt_handler+0xe0>
    33e1:	8b 4e 14             	mov    0x14(%esi),%ecx
    33e4:	85 c9                	test   %ecx,%ecx
    33e6:	74 08                	je     33f0 <register_interrupt_handler+0xe0>
    33e8:	89 19                	mov    %ebx,(%ecx)
    33ea:	8b 5e 10             	mov    0x10(%esi),%ebx
    33ed:	89 4b 04             	mov    %ecx,0x4(%ebx)
    33f0:	c7 04 24 e8 9d 02 00 	movl   $0x29de8,(%esp)
    33f7:	89 45 e4             	mov    %eax,-0x1c(%ebp)
    33fa:	c7 46 10 00 00 00 00 	movl   $0x0,0x10(%esi)
    3401:	c7 46 14 00 00 00 00 	movl   $0x0,0x14(%esi)
    3408:	e8 93 ae 00 00       	call   e2a0 <fibril_mutex_unlock>
    340d:	89 34 24             	mov    %esi,(%esp)
    3410:	e8 5b 41 01 00       	call   17570 <free>
    3415:	8b 45 e4             	mov    -0x1c(%ebp),%eax
    3418:	83 c4 2c             	add    $0x2c,%esp
    341b:	5b                   	pop    %ebx
    341c:	5e                   	pop    %esi
    341d:	5f                   	pop    %edi
    341e:	5d                   	pop    %ebp
    341f:	c3                   	ret    
    3420:	bb 34 99 02 00       	mov    $0x29934,%ebx
    3425:	e9 76 ff ff ff       	jmp    33a0 <register_interrupt_handler+0x90>
    342a:	8d b6 00 00 00 00    	lea    0x0(%esi),%esi

00003430 <unregister_interrupt_handler>:
    3430:	55                   	push   %ebp
    3431:	89 e5                	mov    %esp,%ebp
    3433:	57                   	push   %edi
    3434:	56                   	push   %esi
    3435:	53                   	push   %ebx
    3436:	83 ec 1c             	sub    $0x1c,%esp
    3439:	8b 7d 08             	mov    0x8(%ebp),%edi
    343c:	8b 75 0c             	mov    0xc(%ebp),%esi
    343f:	c7 04 24 e8 9d 02 00 	movl   $0x29de8,(%esp)
    3446:	e8 35 ad 00 00       	call   e180 <fibril_mutex_lock>
    344b:	a1 e4 9d 02 00       	mov    0x29de4,%eax
    3450:	3d e0 9d 02 00       	cmp    $0x29de0,%eax
    3455:	75 13                	jne    346a <unregister_interrupt_handler+0x3a>
    3457:	e9 8c 00 00 00       	jmp    34e8 <unregister_interrupt_handler+0xb8>
    345c:	8d 74 26 00          	lea    0x0(%esi,%eiz,1),%esi
    3460:	8b 40 04             	mov    0x4(%eax),%eax
    3463:	3d e0 9d 02 00       	cmp    $0x29de0,%eax
    3468:	74 7e                	je     34e8 <unregister_interrupt_handler+0xb8>
    346a:	8d 58 f0             	lea    -0x10(%eax),%ebx
    346d:	3b 73 08             	cmp    0x8(%ebx),%esi
    3470:	75 ee                	jne    3460 <unregister_interrupt_handler+0x30>
    3472:	3b 7b 04             	cmp    0x4(%ebx),%edi
    3475:	75 e9                	jne    3460 <unregister_interrupt_handler+0x30>
    3477:	c7 04 24 e8 9d 02 00 	movl   $0x29de8,(%esp)
    347e:	e8 1d ae 00 00       	call   e2a0 <fibril_mutex_unlock>
    3483:	8b 07                	mov    (%edi),%eax
    3485:	89 44 24 04          	mov    %eax,0x4(%esp)
    3489:	89 34 24             	mov    %esi,(%esp)
    348c:	e8 7f 4b 00 00       	call   8010 <irq_unregister>
    3491:	c7 04 24 e8 9d 02 00 	movl   $0x29de8,(%esp)
    3498:	89 c6                	mov    %eax,%esi
    349a:	e8 e1 ac 00 00       	call   e180 <fibril_mutex_lock>
    349f:	8b 43 10             	mov    0x10(%ebx),%eax
    34a2:	85 c0                	test   %eax,%eax
    34a4:	74 0f                	je     34b5 <unregister_interrupt_handler+0x85>
    34a6:	8b 53 14             	mov    0x14(%ebx),%edx
    34a9:	85 d2                	test   %edx,%edx
    34ab:	74 08                	je     34b5 <unregister_interrupt_handler+0x85>
    34ad:	89 02                	mov    %eax,(%edx)
    34af:	8b 4b 10             	mov    0x10(%ebx),%ecx
    34b2:	89 51 04             	mov    %edx,0x4(%ecx)
    34b5:	c7 43 10 00 00 00 00 	movl   $0x0,0x10(%ebx)
    34bc:	c7 43 14 00 00 00 00 	movl   $0x0,0x14(%ebx)
    34c3:	c7 04 24 e8 9d 02 00 	movl   $0x29de8,(%esp)
    34ca:	e8 d1 ad 00 00       	call   e2a0 <fibril_mutex_unlock>
    34cf:	89 1c 24             	mov    %ebx,(%esp)
    34d2:	e8 99 40 01 00       	call   17570 <free>
    34d7:	83 c4 1c             	add    $0x1c,%esp
    34da:	89 f0                	mov    %esi,%eax
    34dc:	5b                   	pop    %ebx
    34dd:	5e                   	pop    %esi
    34de:	5f                   	pop    %edi
    34df:	5d                   	pop    %ebp
    34e0:	c3                   	ret    
    34e1:	8d b4 26 00 00 00 00 	lea    0x0(%esi,%eiz,1),%esi
    34e8:	c7 04 24 e8 9d 02 00 	movl   $0x29de8,(%esp)
    34ef:	e8 ac ad 00 00       	call   e2a0 <fibril_mutex_unlock>
    34f4:	8b 07                	mov    (%edi),%eax
    34f6:	89 45 0c             	mov    %eax,0xc(%ebp)
    34f9:	89 75 08             	mov    %esi,0x8(%ebp)
    34fc:	83 c4 1c             	add    $0x1c,%esp
    34ff:	5b                   	pop    %ebx
    3500:	5e                   	pop    %esi
    3501:	5f                   	pop    %edi
    3502:	5d                   	pop    %ebp
    3503:	e9 08 4b 00 00       	jmp    8010 <irq_unregister>
    3508:	66 90                	xchg   %ax,%ax
    350a:	66 90                	xchg   %ax,%ax
    350c:	66 90                	xchg   %ax,%ax
    350e:	66 90                	xchg   %ax,%ax

00003510 <ddf_log_init>:
    3510:	55                   	push   %ebp
    3511:	89 e5                	mov    %esp,%ebp
    3513:	5d                   	pop    %ebp
    3514:	e9 d7 ec 00 00       	jmp    121f0 <log_init>
    3519:	8d b4 26 00 00 00 00 	lea    0x0(%esi,%eiz,1),%esi

00003520 <ddf_msg>:
    3520:	55                   	push   %ebp
    3521:	89 e5                	mov    %esp,%ebp
    3523:	83 ec 18             	sub    $0x18,%esp
    3526:	8d 45 10             	lea    0x10(%ebp),%eax
    3529:	c7 04 24 ff ff ff ff 	movl   $0xffffffff,(%esp)
    3530:	89 44 24 0c          	mov    %eax,0xc(%esp)
    3534:	8b 45 0c             	mov    0xc(%ebp),%eax
    3537:	89 44 24 08          	mov    %eax,0x8(%esp)
    353b:	8b 45 08             	mov    0x8(%ebp),%eax
    353e:	89 44 24 04          	mov    %eax,0x4(%esp)
    3542:	e8 99 ef 00 00       	call   124e0 <log_msgv>
    3547:	c9                   	leave  
    3548:	c3                   	ret    
    3549:	66 90                	xchg   %ax,%ax
    354b:	66 90                	xchg   %ax,%ax
    354d:	66 90                	xchg   %ax,%ax
    354f:	90                   	nop

00003550 <remote_hw_res_enable_interrupt>:
    3550:	55                   	push   %ebp
    3551:	89 e5                	mov    %esp,%ebp
    3553:	53                   	push   %ebx
    3554:	83 ec 14             	sub    $0x14,%esp
    3557:	8b 45 0c             	mov    0xc(%ebp),%eax
    355a:	8b 55 08             	mov    0x8(%ebp),%edx
    355d:	8b 5d 10             	mov    0x10(%ebp),%ebx
    3560:	8b 40 04             	mov    0x4(%eax),%eax
    3563:	85 c0                	test   %eax,%eax
    3565:	74 39                	je     35a0 <remote_hw_res_enable_interrupt+0x50>
    3567:	89 14 24             	mov    %edx,(%esp)
    356a:	ff d0                	call   *%eax
    356c:	84 c0                	test   %al,%al
    356e:	75 18                	jne    3588 <remote_hw_res_enable_interrupt+0x38>
    3570:	89 5d 08             	mov    %ebx,0x8(%ebp)
    3573:	c7 45 0c fc ff ff ff 	movl   $0xfffffffc,0xc(%ebp)
    357a:	83 c4 14             	add    $0x14,%esp
    357d:	5b                   	pop    %ebx
    357e:	5d                   	pop    %ebp
    357f:	e9 1c 6a 01 00       	jmp    19fa0 <async_answer_0>
    3584:	8d 74 26 00          	lea    0x0(%esi,%eiz,1),%esi
    3588:	89 5d 08             	mov    %ebx,0x8(%ebp)
    358b:	c7 45 0c 00 00 00 00 	movl   $0x0,0xc(%ebp)
    3592:	83 c4 14             	add    $0x14,%esp
    3595:	5b                   	pop    %ebx
    3596:	5d                   	pop    %ebp
    3597:	e9 04 6a 01 00       	jmp    19fa0 <async_answer_0>
    359c:	8d 74 26 00          	lea    0x0(%esi,%eiz,1),%esi
    35a0:	89 5d 08             	mov    %ebx,0x8(%ebp)
    35a3:	c7 45 0c f5 ff ff ff 	movl   $0xfffffff5,0xc(%ebp)
    35aa:	83 c4 14             	add    $0x14,%esp
    35ad:	5b                   	pop    %ebx
    35ae:	5d                   	pop    %ebp
    35af:	e9 ec 69 01 00       	jmp    19fa0 <async_answer_0>
    35b4:	8d b6 00 00 00 00    	lea    0x0(%esi),%esi
    35ba:	8d bf 00 00 00 00    	lea    0x0(%edi),%edi

000035c0 <remote_hw_res_get_resource_list>:
    35c0:	55                   	push   %ebp
    35c1:	89 e5                	mov    %esp,%ebp
    35c3:	53                   	push   %ebx
    35c4:	83 ec 24             	sub    $0x24,%esp
    35c7:	8b 45 0c             	mov    0xc(%ebp),%eax
    35ca:	8b 00                	mov    (%eax),%eax
    35cc:	85 c0                	test   %eax,%eax
    35ce:	74 48                	je     3618 <remote_hw_res_get_resource_list+0x58>
    35d0:	8b 55 08             	mov    0x8(%ebp),%edx
    35d3:	89 14 24             	mov    %edx,(%esp)
    35d6:	ff d0                	call   *%eax
    35d8:	89 c3                	mov    %eax,%ebx
    35da:	85 c0                	test   %eax,%eax
    35dc:	74 7a                	je     3658 <remote_hw_res_get_resource_list+0x98>
    35de:	8b 00                	mov    (%eax),%eax
    35e0:	c7 44 24 04 00 00 00 	movl   $0x0,0x4(%esp)
    35e7:	00 
    35e8:	89 44 24 08          	mov    %eax,0x8(%esp)
    35ec:	8b 45 10             	mov    0x10(%ebp),%eax
    35ef:	89 04 24             	mov    %eax,(%esp)
    35f2:	e8 e9 69 01 00       	call   19fe0 <async_answer_1>
    35f7:	8d 45 f4             	lea    -0xc(%ebp),%eax
    35fa:	89 44 24 04          	mov    %eax,0x4(%esp)
    35fe:	8d 45 10             	lea    0x10(%ebp),%eax
    3601:	89 04 24             	mov    %eax,(%esp)
    3604:	e8 07 7f 01 00       	call   1b510 <async_data_read_receive>
    3609:	84 c0                	test   %al,%al
    360b:	75 2b                	jne    3638 <remote_hw_res_get_resource_list+0x78>
    360d:	83 c4 24             	add    $0x24,%esp
    3610:	5b                   	pop    %ebx
    3611:	5d                   	pop    %ebp
    3612:	c3                   	ret    
    3613:	90                   	nop
    3614:	8d 74 26 00          	lea    0x0(%esi,%eiz,1),%esi
    3618:	8b 45 10             	mov    0x10(%ebp),%eax
    361b:	c7 44 24 04 f5 ff ff 	movl   $0xfffffff5,0x4(%esp)
    3622:	ff 
    3623:	89 04 24             	mov    %eax,(%esp)
    3626:	e8 75 69 01 00       	call   19fa0 <async_answer_0>
    362b:	83 c4 24             	add    $0x24,%esp
    362e:	5b                   	pop    %ebx
    362f:	5d                   	pop    %ebp
    3630:	c3                   	ret    
    3631:	8d b4 26 00 00 00 00 	lea    0x0(%esi,%eiz,1),%esi
    3638:	8b 45 f4             	mov    -0xc(%ebp),%eax
    363b:	89 44 24 08          	mov    %eax,0x8(%esp)
    363f:	8b 43 04             	mov    0x4(%ebx),%eax
    3642:	89 44 24 04          	mov    %eax,0x4(%esp)
    3646:	8b 45 10             	mov    0x10(%ebp),%eax
    3649:	89 04 24             	mov    %eax,(%esp)
    364c:	e8 1f 7f 01 00       	call   1b570 <async_data_read_finalize>
    3651:	83 c4 24             	add    $0x24,%esp
    3654:	5b                   	pop    %ebx
    3655:	5d                   	pop    %ebp
    3656:	c3                   	ret    
    3657:	90                   	nop
    3658:	8b 45 10             	mov    0x10(%ebp),%eax
    365b:	c7 44 24 04 ff ff ff 	movl   $0xffffffff,0x4(%esp)
    3662:	ff 
    3663:	89 04 24             	mov    %eax,(%esp)
    3666:	e8 35 69 01 00       	call   19fa0 <async_answer_0>
    366b:	83 c4 24             	add    $0x24,%esp
    366e:	5b                   	pop    %ebx
    366f:	5d                   	pop    %ebp
    3670:	c3                   	ret    
    3671:	66 90                	xchg   %ax,%ax
    3673:	66 90                	xchg   %ax,%ax
    3675:	66 90                	xchg   %ax,%ax
    3677:	66 90                	xchg   %ax,%ax
    3679:	66 90                	xchg   %ax,%ax
    367b:	66 90                	xchg   %ax,%ax
    367d:	66 90                	xchg   %ax,%ax
    367f:	90                   	nop

00003680 <remote_char_write>:
    3680:	55                   	push   %ebp
    3681:	89 e5                	mov    %esp,%ebp
    3683:	56                   	push   %esi
    3684:	53                   	push   %ebx
    3685:	81 ec 20 01 00 00    	sub    $0x120,%esp
    368b:	8d 85 f4 fe ff ff    	lea    -0x10c(%ebp),%eax
    3691:	8b 5d 0c             	mov    0xc(%ebp),%ebx
    3694:	89 44 24 04          	mov    %eax,0x4(%esp)
    3698:	8d 85 f0 fe ff ff    	lea    -0x110(%ebp),%eax
    369e:	89 04 24             	mov    %eax,(%esp)
    36a1:	e8 8a 83 01 00       	call   1ba30 <async_data_write_receive>
    36a6:	84 c0                	test   %al,%al
    36a8:	0f 84 82 00 00 00    	je     3730 <remote_char_write+0xb0>
    36ae:	8b 43 04             	mov    0x4(%ebx),%eax
    36b1:	85 c0                	test   %eax,%eax
    36b3:	0f 84 b7 00 00 00    	je     3770 <remote_char_write+0xf0>
    36b9:	8b 85 f4 fe ff ff    	mov    -0x10c(%ebp),%eax
    36bf:	3d 00 01 00 00       	cmp    $0x100,%eax
    36c4:	76 0f                	jbe    36d5 <remote_char_write+0x55>
    36c6:	c7 85 f4 fe ff ff 00 	movl   $0x100,-0x10c(%ebp)
    36cd:	01 00 00 
    36d0:	b8 00 01 00 00       	mov    $0x100,%eax
    36d5:	89 44 24 08          	mov    %eax,0x8(%esp)
    36d9:	8d b5 f8 fe ff ff    	lea    -0x108(%ebp),%esi
    36df:	8b 85 f0 fe ff ff    	mov    -0x110(%ebp),%eax
    36e5:	89 74 24 04          	mov    %esi,0x4(%esp)
    36e9:	89 04 24             	mov    %eax,(%esp)
    36ec:	e8 8f 83 01 00       	call   1ba80 <async_data_write_finalize>
    36f1:	8b 85 f4 fe ff ff    	mov    -0x10c(%ebp),%eax
    36f7:	89 44 24 08          	mov    %eax,0x8(%esp)
    36fb:	8b 45 08             	mov    0x8(%ebp),%eax
    36fe:	89 74 24 04          	mov    %esi,0x4(%esp)
    3702:	89 04 24             	mov    %eax,(%esp)
    3705:	ff 53 04             	call   *0x4(%ebx)
    3708:	85 c0                	test   %eax,%eax
    370a:	78 44                	js     3750 <remote_char_write+0xd0>
    370c:	89 44 24 08          	mov    %eax,0x8(%esp)
    3710:	8b 45 10             	mov    0x10(%ebp),%eax
    3713:	c7 44 24 04 00 00 00 	movl   $0x0,0x4(%esp)
    371a:	00 
    371b:	89 04 24             	mov    %eax,(%esp)
    371e:	e8 bd 68 01 00       	call   19fe0 <async_answer_1>
    3723:	81 c4 20 01 00 00    	add    $0x120,%esp
    3729:	5b                   	pop    %ebx
    372a:	5e                   	pop    %esi
    372b:	5d                   	pop    %ebp
    372c:	c3                   	ret    
    372d:	8d 76 00             	lea    0x0(%esi),%esi
    3730:	8b 45 10             	mov    0x10(%ebp),%eax
    3733:	c7 44 24 04 f2 ff ff 	movl   $0xfffffff2,0x4(%esp)
    373a:	ff 
    373b:	89 04 24             	mov    %eax,(%esp)
    373e:	e8 5d 68 01 00       	call   19fa0 <async_answer_0>
    3743:	81 c4 20 01 00 00    	add    $0x120,%esp
    3749:	5b                   	pop    %ebx
    374a:	5e                   	pop    %esi
    374b:	5d                   	pop    %ebp
    374c:	c3                   	ret    
    374d:	8d 76 00             	lea    0x0(%esi),%esi
    3750:	89 44 24 04          	mov    %eax,0x4(%esp)
    3754:	8b 45 10             	mov    0x10(%ebp),%eax
    3757:	89 04 24             	mov    %eax,(%esp)
    375a:	e8 41 68 01 00       	call   19fa0 <async_answer_0>
    375f:	81 c4 20 01 00 00    	add    $0x120,%esp
    3765:	5b                   	pop    %ebx
    3766:	5e                   	pop    %esi
    3767:	5d                   	pop    %ebp
    3768:	c3                   	ret    
    3769:	8d b4 26 00 00 00 00 	lea    0x0(%esi,%eiz,1),%esi
    3770:	8b 85 f0 fe ff ff    	mov    -0x110(%ebp),%eax
    3776:	c7 44 24 08 00 00 00 	movl   $0x0,0x8(%esp)
    377d:	00 
    377e:	c7 44 24 04 00 00 00 	movl   $0x0,0x4(%esp)
    3785:	00 
    3786:	89 04 24             	mov    %eax,(%esp)
    3789:	e8 f2 82 01 00       	call   1ba80 <async_data_write_finalize>
    378e:	8b 45 10             	mov    0x10(%ebp),%eax
    3791:	c7 44 24 04 f5 ff ff 	movl   $0xfffffff5,0x4(%esp)
    3798:	ff 
    3799:	89 04 24             	mov    %eax,(%esp)
    379c:	e8 ff 67 01 00       	call   19fa0 <async_answer_0>
    37a1:	e9 7d ff ff ff       	jmp    3723 <remote_char_write+0xa3>
    37a6:	8d 76 00             	lea    0x0(%esi),%esi
    37a9:	8d bc 27 00 00 00 00 	lea    0x0(%edi,%eiz,1),%edi

000037b0 <remote_char_read>:
    37b0:	55                   	push   %ebp
    37b1:	89 e5                	mov    %esp,%ebp
    37b3:	56                   	push   %esi
    37b4:	53                   	push   %ebx
    37b5:	81 ec 20 01 00 00    	sub    $0x120,%esp
    37bb:	8d 85 f4 fe ff ff    	lea    -0x10c(%ebp),%eax
    37c1:	89 44 24 04          	mov    %eax,0x4(%esp)
    37c5:	8d 85 f0 fe ff ff    	lea    -0x110(%ebp),%eax
    37cb:	89 04 24             	mov    %eax,(%esp)
    37ce:	e8 3d 7d 01 00       	call   1b510 <async_data_read_receive>
    37d3:	84 c0                	test   %al,%al
    37d5:	0f 84 b5 00 00 00    	je     3890 <remote_char_read+0xe0>
    37db:	8b 45 0c             	mov    0xc(%ebp),%eax
    37de:	8b 10                	mov    (%eax),%edx
    37e0:	85 d2                	test   %edx,%edx
    37e2:	0f 84 c8 00 00 00    	je     38b0 <remote_char_read+0x100>
    37e8:	8b 85 f4 fe ff ff    	mov    -0x10c(%ebp),%eax
    37ee:	3d 00 01 00 00       	cmp    $0x100,%eax
    37f3:	76 0f                	jbe    3804 <remote_char_read+0x54>
    37f5:	c7 85 f4 fe ff ff 00 	movl   $0x100,-0x10c(%ebp)
    37fc:	01 00 00 
    37ff:	b8 00 01 00 00       	mov    $0x100,%eax
    3804:	89 44 24 08          	mov    %eax,0x8(%esp)
    3808:	8d b5 f8 fe ff ff    	lea    -0x108(%ebp),%esi
    380e:	8b 45 08             	mov    0x8(%ebp),%eax
    3811:	89 74 24 04          	mov    %esi,0x4(%esp)
    3815:	89 04 24             	mov    %eax,(%esp)
    3818:	ff d2                	call   *%edx
    381a:	89 c3                	mov    %eax,%ebx
    381c:	85 c0                	test   %eax,%eax
    381e:	78 38                	js     3858 <remote_char_read+0xa8>
    3820:	89 44 24 08          	mov    %eax,0x8(%esp)
    3824:	8b 85 f0 fe ff ff    	mov    -0x110(%ebp),%eax
    382a:	89 74 24 04          	mov    %esi,0x4(%esp)
    382e:	89 04 24             	mov    %eax,(%esp)
    3831:	e8 3a 7d 01 00       	call   1b570 <async_data_read_finalize>
    3836:	8b 45 10             	mov    0x10(%ebp),%eax
    3839:	89 5c 24 08          	mov    %ebx,0x8(%esp)
    383d:	c7 44 24 04 00 00 00 	movl   $0x0,0x4(%esp)
    3844:	00 
    3845:	89 04 24             	mov    %eax,(%esp)
    3848:	e8 93 67 01 00       	call   19fe0 <async_answer_1>
    384d:	81 c4 20 01 00 00    	add    $0x120,%esp
    3853:	5b                   	pop    %ebx
    3854:	5e                   	pop    %esi
    3855:	5d                   	pop    %ebp
    3856:	c3                   	ret    
    3857:	90                   	nop
    3858:	8b 85 f0 fe ff ff    	mov    -0x110(%ebp),%eax
    385e:	89 74 24 04          	mov    %esi,0x4(%esp)
    3862:	c7 44 24 08 00 00 00 	movl   $0x0,0x8(%esp)
    3869:	00 
    386a:	89 04 24             	mov    %eax,(%esp)
    386d:	e8 fe 7c 01 00       	call   1b570 <async_data_read_finalize>
    3872:	8b 45 10             	mov    0x10(%ebp),%eax
    3875:	89 5c 24 04          	mov    %ebx,0x4(%esp)
    3879:	89 04 24             	mov    %eax,(%esp)
    387c:	e8 1f 67 01 00       	call   19fa0 <async_answer_0>
    3881:	81 c4 20 01 00 00    	add    $0x120,%esp
    3887:	5b                   	pop    %ebx
    3888:	5e                   	pop    %esi
    3889:	5d                   	pop    %ebp
    388a:	c3                   	ret    
    388b:	90                   	nop
    388c:	8d 74 26 00          	lea    0x0(%esi,%eiz,1),%esi
    3890:	8b 45 10             	mov    0x10(%ebp),%eax
    3893:	c7 44 24 04 f2 ff ff 	movl   $0xfffffff2,0x4(%esp)
    389a:	ff 
    389b:	89 04 24             	mov    %eax,(%esp)
    389e:	e8 fd 66 01 00       	call   19fa0 <async_answer_0>
    38a3:	81 c4 20 01 00 00    	add    $0x120,%esp
    38a9:	5b                   	pop    %ebx
    38aa:	5e                   	pop    %esi
    38ab:	5d                   	pop    %ebp
    38ac:	c3                   	ret    
    38ad:	8d 76 00             	lea    0x0(%esi),%esi
    38b0:	8b 85 f0 fe ff ff    	mov    -0x110(%ebp),%eax
    38b6:	c7 44 24 08 00 00 00 	movl   $0x0,0x8(%esp)
    38bd:	00 
    38be:	c7 44 24 04 00 00 00 	movl   $0x0,0x4(%esp)
    38c5:	00 
    38c6:	89 04 24             	mov    %eax,(%esp)
    38c9:	e8 a2 7c 01 00       	call   1b570 <async_data_read_finalize>
    38ce:	8b 45 10             	mov    0x10(%ebp),%eax
    38d1:	c7 44 24 04 f5 ff ff 	movl   $0xfffffff5,0x4(%esp)
    38d8:	ff 
    38d9:	89 04 24             	mov    %eax,(%esp)
    38dc:	e8 bf 66 01 00       	call   19fa0 <async_answer_0>
    38e1:	e9 67 ff ff ff       	jmp    384d <remote_char_read+0x9d>
    38e6:	66 90                	xchg   %ax,%ax
    38e8:	66 90                	xchg   %ax,%ax
    38ea:	66 90                	xchg   %ax,%ax
    38ec:	66 90                	xchg   %ax,%ax
    38ee:	66 90                	xchg   %ax,%ax

000038f0 <remote_graph_connect>:
    38f0:	55                   	push   %ebp
    38f1:	89 e5                	mov    %esp,%ebp
    38f3:	57                   	push   %edi
    38f4:	56                   	push   %esi
    38f5:	53                   	push   %ebx
    38f6:	83 ec 2c             	sub    $0x2c,%esp
    38f9:	8b 5d 0c             	mov    0xc(%ebp),%ebx
    38fc:	8b 55 14             	mov    0x14(%ebp),%edx
    38ff:	8b 7d 08             	mov    0x8(%ebp),%edi
    3902:	8b 75 10             	mov    0x10(%ebp),%esi
    3905:	8b 03                	mov    (%ebx),%eax
    3907:	89 55 e4             	mov    %edx,-0x1c(%ebp)
    390a:	85 c0                	test   %eax,%eax
    390c:	74 3a                	je     3948 <remote_graph_connect+0x58>
    390e:	89 3c 24             	mov    %edi,(%esp)
    3911:	e8 0a f3 ff ff       	call   2c20 <ddf_fun_data_get>
    3916:	85 c0                	test   %eax,%eax
    3918:	74 2e                	je     3948 <remote_graph_connect+0x58>
    391a:	8b 1b                	mov    (%ebx),%ebx
    391c:	89 3c 24             	mov    %edi,(%esp)
    391f:	e8 fc f2 ff ff       	call   2c20 <ddf_fun_data_get>
    3924:	8b 55 e4             	mov    -0x1c(%ebp),%edx
    3927:	89 75 0c             	mov    %esi,0xc(%ebp)
    392a:	89 45 08             	mov    %eax,0x8(%ebp)
    392d:	c7 45 14 00 00 00 00 	movl   $0x0,0x14(%ebp)
    3934:	89 55 10             	mov    %edx,0x10(%ebp)
    3937:	83 c4 2c             	add    $0x2c,%esp
    393a:	89 d8                	mov    %ebx,%eax
    393c:	5b                   	pop    %ebx
    393d:	5e                   	pop    %esi
    393e:	5f                   	pop    %edi
    393f:	5d                   	pop    %ebp
    3940:	ff e0                	jmp    *%eax
    3942:	8d b6 00 00 00 00    	lea    0x0(%esi),%esi
    3948:	89 75 08             	mov    %esi,0x8(%ebp)
    394b:	c7 45 0c f5 ff ff ff 	movl   $0xfffffff5,0xc(%ebp)
    3952:	83 c4 2c             	add    $0x2c,%esp
    3955:	5b                   	pop    %ebx
    3956:	5e                   	pop    %esi
    3957:	5f                   	pop    %edi
    3958:	5d                   	pop    %ebp
    3959:	e9 42 66 01 00       	jmp    19fa0 <async_answer_0>
    395e:	66 90                	xchg   %ax,%ax

00003960 <remote_nic_poll_now>:
    3960:	55                   	push   %ebp
    3961:	89 e5                	mov    %esp,%ebp
    3963:	53                   	push   %ebx
    3964:	83 ec 14             	sub    $0x14,%esp
    3967:	8b 45 0c             	mov    0xc(%ebp),%eax
    396a:	8b 55 08             	mov    0x8(%ebp),%edx
    396d:	8b 5d 10             	mov    0x10(%ebp),%ebx
    3970:	8b 80 a0 00 00 00    	mov    0xa0(%eax),%eax
    3976:	85 c0                	test   %eax,%eax
    3978:	74 16                	je     3990 <remote_nic_poll_now+0x30>
    397a:	89 14 24             	mov    %edx,(%esp)
    397d:	ff d0                	call   *%eax
    397f:	89 5d 08             	mov    %ebx,0x8(%ebp)
    3982:	89 45 0c             	mov    %eax,0xc(%ebp)
    3985:	83 c4 14             	add    $0x14,%esp
    3988:	5b                   	pop    %ebx
    3989:	5d                   	pop    %ebp
    398a:	e9 11 66 01 00       	jmp    19fa0 <async_answer_0>
    398f:	90                   	nop
    3990:	89 5d 08             	mov    %ebx,0x8(%ebp)
    3993:	c7 45 0c f5 ff ff ff 	movl   $0xfffffff5,0xc(%ebp)
    399a:	83 c4 14             	add    $0x14,%esp
    399d:	5b                   	pop    %ebx
    399e:	5d                   	pop    %ebp
    399f:	e9 fc 65 01 00       	jmp    19fa0 <async_answer_0>
    39a4:	8d b6 00 00 00 00    	lea    0x0(%esi),%esi
    39aa:	8d bf 00 00 00 00    	lea    0x0(%edi),%edi

000039b0 <remote_nic_offload_set>:
    39b0:	55                   	push   %ebp
    39b1:	89 e5                	mov    %esp,%ebp
    39b3:	56                   	push   %esi
    39b4:	53                   	push   %ebx
    39b5:	83 ec 10             	sub    $0x10,%esp
    39b8:	8b 45 0c             	mov    0xc(%ebp),%eax
    39bb:	8b 4d 08             	mov    0x8(%ebp),%ecx
    39be:	8b 5d 10             	mov    0x10(%ebp),%ebx
    39c1:	8b 55 14             	mov    0x14(%ebp),%edx
    39c4:	8b 80 94 00 00 00    	mov    0x94(%eax),%eax
    39ca:	85 c0                	test   %eax,%eax
    39cc:	74 2a                	je     39f8 <remote_nic_offload_set+0x48>
    39ce:	8b 72 0c             	mov    0xc(%edx),%esi
    39d1:	89 74 24 08          	mov    %esi,0x8(%esp)
    39d5:	8b 52 08             	mov    0x8(%edx),%edx
    39d8:	89 0c 24             	mov    %ecx,(%esp)
    39db:	89 54 24 04          	mov    %edx,0x4(%esp)
    39df:	ff d0                	call   *%eax
    39e1:	89 5d 08             	mov    %ebx,0x8(%ebp)
    39e4:	89 45 0c             	mov    %eax,0xc(%ebp)
    39e7:	83 c4 10             	add    $0x10,%esp
    39ea:	5b                   	pop    %ebx
    39eb:	5e                   	pop    %esi
    39ec:	5d                   	pop    %ebp
    39ed:	e9 ae 65 01 00       	jmp    19fa0 <async_answer_0>
    39f2:	8d b6 00 00 00 00    	lea    0x0(%esi),%esi
    39f8:	89 5d 08             	mov    %ebx,0x8(%ebp)
    39fb:	c7 45 0c f5 ff ff ff 	movl   $0xfffffff5,0xc(%ebp)
    3a02:	83 c4 10             	add    $0x10,%esp
    3a05:	5b                   	pop    %ebx
    3a06:	5e                   	pop    %esi
    3a07:	5d                   	pop    %ebp
    3a08:	e9 93 65 01 00       	jmp    19fa0 <async_answer_0>
    3a0d:	8d 76 00             	lea    0x0(%esi),%esi

00003a10 <remote_nic_wol_virtue_remove>:
    3a10:	55                   	push   %ebp
    3a11:	89 e5                	mov    %esp,%ebp
    3a13:	53                   	push   %ebx
    3a14:	83 ec 14             	sub    $0x14,%esp
    3a17:	8b 45 0c             	mov    0xc(%ebp),%eax
    3a1a:	8b 55 08             	mov    0x8(%ebp),%edx
    3a1d:	8b 5d 10             	mov    0x10(%ebp),%ebx
    3a20:	8b 4d 14             	mov    0x14(%ebp),%ecx
    3a23:	8b 40 7c             	mov    0x7c(%eax),%eax
    3a26:	85 c0                	test   %eax,%eax
    3a28:	74 1e                	je     3a48 <remote_nic_wol_virtue_remove+0x38>
    3a2a:	8b 49 08             	mov    0x8(%ecx),%ecx
    3a2d:	89 14 24             	mov    %edx,(%esp)
    3a30:	89 4c 24 04          	mov    %ecx,0x4(%esp)
    3a34:	ff d0                	call   *%eax
    3a36:	89 5d 08             	mov    %ebx,0x8(%ebp)
    3a39:	89 45 0c             	mov    %eax,0xc(%ebp)
    3a3c:	83 c4 14             	add    $0x14,%esp
    3a3f:	5b                   	pop    %ebx
    3a40:	5d                   	pop    %ebp
    3a41:	e9 5a 65 01 00       	jmp    19fa0 <async_answer_0>
    3a46:	66 90                	xchg   %ax,%ax
    3a48:	89 5d 08             	mov    %ebx,0x8(%ebp)
    3a4b:	c7 45 0c f5 ff ff ff 	movl   $0xfffffff5,0xc(%ebp)
    3a52:	83 c4 14             	add    $0x14,%esp
    3a55:	5b                   	pop    %ebx
    3a56:	5d                   	pop    %ebp
    3a57:	e9 44 65 01 00       	jmp    19fa0 <async_answer_0>
    3a5c:	8d 74 26 00          	lea    0x0(%esi,%eiz,1),%esi

00003a60 <remote_nic_vlan_set_tag>:
    3a60:	55                   	push   %ebp
    3a61:	89 e5                	mov    %esp,%ebp
    3a63:	57                   	push   %edi
    3a64:	56                   	push   %esi
    3a65:	53                   	push   %ebx
    3a66:	83 ec 1c             	sub    $0x1c,%esp
    3a69:	8b 55 0c             	mov    0xc(%ebp),%edx
    3a6c:	8b 7d 08             	mov    0x8(%ebp),%edi
    3a6f:	8b 5d 10             	mov    0x10(%ebp),%ebx
    3a72:	8b 45 14             	mov    0x14(%ebp),%eax
    3a75:	8b 52 74             	mov    0x74(%edx),%edx
    3a78:	85 d2                	test   %edx,%edx
    3a7a:	74 4c                	je     3ac8 <remote_nic_vlan_set_tag+0x68>
    3a7c:	8b 48 10             	mov    0x10(%eax),%ecx
    3a7f:	85 c9                	test   %ecx,%ecx
    3a81:	0f 95 c1             	setne  %cl
    3a84:	81 e1 ff 00 00 00    	and    $0xff,%ecx
    3a8a:	89 4c 24 0c          	mov    %ecx,0xc(%esp)
    3a8e:	8b 70 0c             	mov    0xc(%eax),%esi
    3a91:	85 f6                	test   %esi,%esi
    3a93:	0f 95 c1             	setne  %cl
    3a96:	81 e1 ff 00 00 00    	and    $0xff,%ecx
    3a9c:	89 4c 24 08          	mov    %ecx,0x8(%esp)
    3aa0:	8b 40 08             	mov    0x8(%eax),%eax
    3aa3:	89 3c 24             	mov    %edi,(%esp)
    3aa6:	25 ff ff 00 00       	and    $0xffff,%eax
    3aab:	89 44 24 04          	mov    %eax,0x4(%esp)
    3aaf:	ff d2                	call   *%edx
    3ab1:	89 5d 08             	mov    %ebx,0x8(%ebp)
    3ab4:	89 45 0c             	mov    %eax,0xc(%ebp)
    3ab7:	83 c4 1c             	add    $0x1c,%esp
    3aba:	5b                   	pop    %ebx
    3abb:	5e                   	pop    %esi
    3abc:	5f                   	pop    %edi
    3abd:	5d                   	pop    %ebp
    3abe:	e9 dd 64 01 00       	jmp    19fa0 <async_answer_0>
    3ac3:	90                   	nop
    3ac4:	8d 74 26 00          	lea    0x0(%esi,%eiz,1),%esi
    3ac8:	89 5d 08             	mov    %ebx,0x8(%ebp)
    3acb:	c7 45 0c f5 ff ff ff 	movl   $0xfffffff5,0xc(%ebp)
    3ad2:	83 c4 1c             	add    $0x1c,%esp
    3ad5:	5b                   	pop    %ebx
    3ad6:	5e                   	pop    %esi
    3ad7:	5f                   	pop    %edi
    3ad8:	5d                   	pop    %ebp
    3ad9:	e9 c2 64 01 00       	jmp    19fa0 <async_answer_0>
    3ade:	66 90                	xchg   %ax,%ax

00003ae0 <remote_nic_defective_set_mode>:
    3ae0:	55                   	push   %ebp
    3ae1:	89 e5                	mov    %esp,%ebp
    3ae3:	53                   	push   %ebx
    3ae4:	83 ec 14             	sub    $0x14,%esp
    3ae7:	8b 45 0c             	mov    0xc(%ebp),%eax
    3aea:	8b 55 08             	mov    0x8(%ebp),%edx
    3aed:	8b 5d 10             	mov    0x10(%ebp),%ebx
    3af0:	8b 4d 14             	mov    0x14(%ebp),%ecx
    3af3:	8b 40 60             	mov    0x60(%eax),%eax
    3af6:	85 c0                	test   %eax,%eax
    3af8:	74 1e                	je     3b18 <remote_nic_defective_set_mode+0x38>
    3afa:	8b 49 08             	mov    0x8(%ecx),%ecx
    3afd:	89 14 24             	mov    %edx,(%esp)
    3b00:	89 4c 24 04          	mov    %ecx,0x4(%esp)
    3b04:	ff d0                	call   *%eax
    3b06:	89 5d 08             	mov    %ebx,0x8(%ebp)
    3b09:	89 45 0c             	mov    %eax,0xc(%ebp)
    3b0c:	83 c4 14             	add    $0x14,%esp
    3b0f:	5b                   	pop    %ebx
    3b10:	5d                   	pop    %ebp
    3b11:	e9 8a 64 01 00       	jmp    19fa0 <async_answer_0>
    3b16:	66 90                	xchg   %ax,%ax
    3b18:	89 5d 08             	mov    %ebx,0x8(%ebp)
    3b1b:	c7 45 0c f5 ff ff ff 	movl   $0xfffffff5,0xc(%ebp)
    3b22:	83 c4 14             	add    $0x14,%esp
    3b25:	5b                   	pop    %ebx
    3b26:	5d                   	pop    %ebp
    3b27:	e9 74 64 01 00       	jmp    19fa0 <async_answer_0>
    3b2c:	8d 74 26 00          	lea    0x0(%esi,%eiz,1),%esi

00003b30 <remote_nic_broadcast_set_mode>:
    3b30:	55                   	push   %ebp
    3b31:	89 e5                	mov    %esp,%ebp
    3b33:	53                   	push   %ebx
    3b34:	83 ec 14             	sub    $0x14,%esp
    3b37:	8b 45 0c             	mov    0xc(%ebp),%eax
    3b3a:	8b 55 08             	mov    0x8(%ebp),%edx
    3b3d:	8b 5d 10             	mov    0x10(%ebp),%ebx
    3b40:	8b 4d 14             	mov    0x14(%ebp),%ecx
    3b43:	8b 40 58             	mov    0x58(%eax),%eax
    3b46:	85 c0                	test   %eax,%eax
    3b48:	74 1e                	je     3b68 <remote_nic_broadcast_set_mode+0x38>
    3b4a:	8b 49 08             	mov    0x8(%ecx),%ecx
    3b4d:	89 14 24             	mov    %edx,(%esp)
    3b50:	89 4c 24 04          	mov    %ecx,0x4(%esp)
    3b54:	ff d0                	call   *%eax
    3b56:	89 5d 08             	mov    %ebx,0x8(%ebp)
    3b59:	89 45 0c             	mov    %eax,0xc(%ebp)
    3b5c:	83 c4 14             	add    $0x14,%esp
    3b5f:	5b                   	pop    %ebx
    3b60:	5d                   	pop    %ebp
    3b61:	e9 3a 64 01 00       	jmp    19fa0 <async_answer_0>
    3b66:	66 90                	xchg   %ax,%ax
    3b68:	89 5d 08             	mov    %ebx,0x8(%ebp)
    3b6b:	c7 45 0c f5 ff ff ff 	movl   $0xfffffff5,0xc(%ebp)
    3b72:	83 c4 14             	add    $0x14,%esp
    3b75:	5b                   	pop    %ebx
    3b76:	5d                   	pop    %ebp
    3b77:	e9 24 64 01 00       	jmp    19fa0 <async_answer_0>
    3b7c:	8d 74 26 00          	lea    0x0(%esi,%eiz,1),%esi

00003b80 <remote_nic_set_pause>:
    3b80:	55                   	push   %ebp
    3b81:	89 e5                	mov    %esp,%ebp
    3b83:	56                   	push   %esi
    3b84:	53                   	push   %ebx
    3b85:	83 ec 10             	sub    $0x10,%esp
    3b88:	8b 55 0c             	mov    0xc(%ebp),%edx
    3b8b:	8b 4d 08             	mov    0x8(%ebp),%ecx
    3b8e:	8b 5d 10             	mov    0x10(%ebp),%ebx
    3b91:	8b 45 14             	mov    0x14(%ebp),%eax
    3b94:	8b 52 40             	mov    0x40(%edx),%edx
    3b97:	85 d2                	test   %edx,%edx
    3b99:	74 2d                	je     3bc8 <remote_nic_set_pause+0x48>
    3b9b:	0f b7 70 10          	movzwl 0x10(%eax),%esi
    3b9f:	89 74 24 0c          	mov    %esi,0xc(%esp)
    3ba3:	8b 70 0c             	mov    0xc(%eax),%esi
    3ba6:	89 74 24 08          	mov    %esi,0x8(%esp)
    3baa:	8b 40 08             	mov    0x8(%eax),%eax
    3bad:	89 0c 24             	mov    %ecx,(%esp)
    3bb0:	89 44 24 04          	mov    %eax,0x4(%esp)
    3bb4:	ff d2                	call   *%edx
    3bb6:	89 5d 08             	mov    %ebx,0x8(%ebp)
    3bb9:	89 45 0c             	mov    %eax,0xc(%ebp)
    3bbc:	83 c4 10             	add    $0x10,%esp
    3bbf:	5b                   	pop    %ebx
    3bc0:	5e                   	pop    %esi
    3bc1:	5d                   	pop    %ebp
    3bc2:	e9 d9 63 01 00       	jmp    19fa0 <async_answer_0>
    3bc7:	90                   	nop
    3bc8:	89 5d 08             	mov    %ebx,0x8(%ebp)
    3bcb:	c7 45 0c f5 ff ff ff 	movl   $0xfffffff5,0xc(%ebp)
    3bd2:	83 c4 10             	add    $0x10,%esp
    3bd5:	5b                   	pop    %ebx
    3bd6:	5e                   	pop    %esi
    3bd7:	5d                   	pop    %ebp
    3bd8:	e9 c3 63 01 00       	jmp    19fa0 <async_answer_0>
    3bdd:	8d 76 00             	lea    0x0(%esi),%esi

00003be0 <remote_nic_autoneg_restart>:
    3be0:	55                   	push   %ebp
    3be1:	89 e5                	mov    %esp,%ebp
    3be3:	53                   	push   %ebx
    3be4:	83 ec 14             	sub    $0x14,%esp
    3be7:	8b 45 0c             	mov    0xc(%ebp),%eax
    3bea:	8b 55 08             	mov    0x8(%ebp),%edx
    3bed:	8b 5d 10             	mov    0x10(%ebp),%ebx
    3bf0:	8b 40 38             	mov    0x38(%eax),%eax
    3bf3:	85 c0                	test   %eax,%eax
    3bf5:	74 19                	je     3c10 <remote_nic_autoneg_restart+0x30>
    3bf7:	89 14 24             	mov    %edx,(%esp)
    3bfa:	ff d0                	call   *%eax
    3bfc:	89 5d 08             	mov    %ebx,0x8(%ebp)
    3bff:	89 45 0c             	mov    %eax,0xc(%ebp)
    3c02:	83 c4 14             	add    $0x14,%esp
    3c05:	5b                   	pop    %ebx
    3c06:	5d                   	pop    %ebp
    3c07:	e9 94 63 01 00       	jmp    19fa0 <async_answer_0>
    3c0c:	8d 74 26 00          	lea    0x0(%esi,%eiz,1),%esi
    3c10:	89 5d 08             	mov    %ebx,0x8(%ebp)
    3c13:	c7 45 0c f5 ff ff ff 	movl   $0xfffffff5,0xc(%ebp)
    3c1a:	83 c4 14             	add    $0x14,%esp
    3c1d:	5b                   	pop    %ebx
    3c1e:	5d                   	pop    %ebp
    3c1f:	e9 7c 63 01 00       	jmp    19fa0 <async_answer_0>
    3c24:	8d b6 00 00 00 00    	lea    0x0(%esi),%esi
    3c2a:	8d bf 00 00 00 00    	lea    0x0(%edi),%edi

00003c30 <remote_nic_autoneg_disable>:
    3c30:	55                   	push   %ebp
    3c31:	89 e5                	mov    %esp,%ebp
    3c33:	53                   	push   %ebx
    3c34:	83 ec 14             	sub    $0x14,%esp
    3c37:	8b 45 0c             	mov    0xc(%ebp),%eax
    3c3a:	8b 55 08             	mov    0x8(%ebp),%edx
    3c3d:	8b 5d 10             	mov    0x10(%ebp),%ebx
    3c40:	8b 40 30             	mov    0x30(%eax),%eax
    3c43:	85 c0                	test   %eax,%eax
    3c45:	74 19                	je     3c60 <remote_nic_autoneg_disable+0x30>
    3c47:	89 14 24             	mov    %edx,(%esp)
    3c4a:	ff d0                	call   *%eax
    3c4c:	89 5d 08             	mov    %ebx,0x8(%ebp)
    3c4f:	89 45 0c             	mov    %eax,0xc(%ebp)
    3c52:	83 c4 14             	add    $0x14,%esp
    3c55:	5b                   	pop    %ebx
    3c56:	5d                   	pop    %ebp
    3c57:	e9 44 63 01 00       	jmp    19fa0 <async_answer_0>
    3c5c:	8d 74 26 00          	lea    0x0(%esi,%eiz,1),%esi
    3c60:	89 5d 08             	mov    %ebx,0x8(%ebp)
    3c63:	c7 45 0c f5 ff ff ff 	movl   $0xfffffff5,0xc(%ebp)
    3c6a:	83 c4 14             	add    $0x14,%esp
    3c6d:	5b                   	pop    %ebx
    3c6e:	5d                   	pop    %ebp
    3c6f:	e9 2c 63 01 00       	jmp    19fa0 <async_answer_0>
    3c74:	8d b6 00 00 00 00    	lea    0x0(%esi),%esi
    3c7a:	8d bf 00 00 00 00    	lea    0x0(%edi),%edi

00003c80 <remote_nic_autoneg_enable>:
    3c80:	55                   	push   %ebp
    3c81:	89 e5                	mov    %esp,%ebp
    3c83:	53                   	push   %ebx
    3c84:	83 ec 14             	sub    $0x14,%esp
    3c87:	8b 45 0c             	mov    0xc(%ebp),%eax
    3c8a:	8b 55 08             	mov    0x8(%ebp),%edx
    3c8d:	8b 5d 10             	mov    0x10(%ebp),%ebx
    3c90:	8b 4d 14             	mov    0x14(%ebp),%ecx
    3c93:	8b 40 2c             	mov    0x2c(%eax),%eax
    3c96:	85 c0                	test   %eax,%eax
    3c98:	74 1e                	je     3cb8 <remote_nic_autoneg_enable+0x38>
    3c9a:	8b 49 08             	mov    0x8(%ecx),%ecx
    3c9d:	89 14 24             	mov    %edx,(%esp)
    3ca0:	89 4c 24 04          	mov    %ecx,0x4(%esp)
    3ca4:	ff d0                	call   *%eax
    3ca6:	89 5d 08             	mov    %ebx,0x8(%ebp)
    3ca9:	89 45 0c             	mov    %eax,0xc(%ebp)
    3cac:	83 c4 14             	add    $0x14,%esp
    3caf:	5b                   	pop    %ebx
    3cb0:	5d                   	pop    %ebp
    3cb1:	e9 ea 62 01 00       	jmp    19fa0 <async_answer_0>
    3cb6:	66 90                	xchg   %ax,%ax
    3cb8:	89 5d 08             	mov    %ebx,0x8(%ebp)
    3cbb:	c7 45 0c f5 ff ff ff 	movl   $0xfffffff5,0xc(%ebp)
    3cc2:	83 c4 14             	add    $0x14,%esp
    3cc5:	5b                   	pop    %ebx
    3cc6:	5d                   	pop    %ebp
    3cc7:	e9 d4 62 01 00       	jmp    19fa0 <async_answer_0>
    3ccc:	8d 74 26 00          	lea    0x0(%esi,%eiz,1),%esi

00003cd0 <remote_nic_set_operation_mode>:
    3cd0:	55                   	push   %ebp
    3cd1:	89 e5                	mov    %esp,%ebp
    3cd3:	56                   	push   %esi
    3cd4:	53                   	push   %ebx
    3cd5:	83 ec 10             	sub    $0x10,%esp
    3cd8:	8b 55 0c             	mov    0xc(%ebp),%edx
    3cdb:	8b 4d 08             	mov    0x8(%ebp),%ecx
    3cde:	8b 5d 10             	mov    0x10(%ebp),%ebx
    3ce1:	8b 45 14             	mov    0x14(%ebp),%eax
    3ce4:	8b 52 28             	mov    0x28(%edx),%edx
    3ce7:	85 d2                	test   %edx,%edx
    3ce9:	74 2d                	je     3d18 <remote_nic_set_operation_mode+0x48>
    3ceb:	8b 70 10             	mov    0x10(%eax),%esi
    3cee:	89 74 24 0c          	mov    %esi,0xc(%esp)
    3cf2:	8b 70 0c             	mov    0xc(%eax),%esi
    3cf5:	89 74 24 08          	mov    %esi,0x8(%esp)
    3cf9:	8b 40 08             	mov    0x8(%eax),%eax
    3cfc:	89 0c 24             	mov    %ecx,(%esp)
    3cff:	89 44 24 04          	mov    %eax,0x4(%esp)
    3d03:	ff d2                	call   *%edx
    3d05:	89 5d 08             	mov    %ebx,0x8(%ebp)
    3d08:	89 45 0c             	mov    %eax,0xc(%ebp)
    3d0b:	83 c4 10             	add    $0x10,%esp
    3d0e:	5b                   	pop    %ebx
    3d0f:	5e                   	pop    %esi
    3d10:	5d                   	pop    %ebp
    3d11:	e9 8a 62 01 00       	jmp    19fa0 <async_answer_0>
    3d16:	66 90                	xchg   %ax,%ax
    3d18:	89 5d 08             	mov    %ebx,0x8(%ebp)
    3d1b:	c7 45 0c f5 ff ff ff 	movl   $0xfffffff5,0xc(%ebp)
    3d22:	83 c4 10             	add    $0x10,%esp
    3d25:	5b                   	pop    %ebx
    3d26:	5e                   	pop    %esi
    3d27:	5d                   	pop    %ebp
    3d28:	e9 73 62 01 00       	jmp    19fa0 <async_answer_0>
    3d2d:	8d 76 00             	lea    0x0(%esi),%esi

00003d30 <remote_nic_poll_set_mode>:
    3d30:	55                   	push   %ebp
    3d31:	31 d2                	xor    %edx,%edx
    3d33:	89 e5                	mov    %esp,%ebp
    3d35:	56                   	push   %esi
    3d36:	53                   	push   %ebx
    3d37:	83 ec 20             	sub    $0x20,%esp
    3d3a:	8b 45 14             	mov    0x14(%ebp),%eax
    3d3d:	8b 58 08             	mov    0x8(%eax),%ebx
    3d40:	8b 40 0c             	mov    0xc(%eax),%eax
    3d43:	85 c0                	test   %eax,%eax
    3d45:	75 39                	jne    3d80 <remote_nic_poll_set_mode+0x50>
    3d47:	8b 45 0c             	mov    0xc(%ebp),%eax
    3d4a:	8b 80 9c 00 00 00    	mov    0x9c(%eax),%eax
    3d50:	85 c0                	test   %eax,%eax
    3d52:	0f 84 b8 00 00 00    	je     3e10 <remote_nic_poll_set_mode+0xe0>
    3d58:	89 54 24 08          	mov    %edx,0x8(%esp)
    3d5c:	8b 55 08             	mov    0x8(%ebp),%edx
    3d5f:	89 5c 24 04          	mov    %ebx,0x4(%esp)
    3d63:	89 14 24             	mov    %edx,(%esp)
    3d66:	ff d0                	call   *%eax
    3d68:	89 44 24 04          	mov    %eax,0x4(%esp)
    3d6c:	8b 45 10             	mov    0x10(%ebp),%eax
    3d6f:	89 04 24             	mov    %eax,(%esp)
    3d72:	e8 29 62 01 00       	call   19fa0 <async_answer_0>
    3d77:	83 c4 20             	add    $0x20,%esp
    3d7a:	5b                   	pop    %ebx
    3d7b:	5e                   	pop    %esi
    3d7c:	5d                   	pop    %ebp
    3d7d:	c3                   	ret    
    3d7e:	66 90                	xchg   %ax,%ax
    3d80:	8d 45 e8             	lea    -0x18(%ebp),%eax
    3d83:	89 44 24 04          	mov    %eax,0x4(%esp)
    3d87:	8d 45 ec             	lea    -0x14(%ebp),%eax
    3d8a:	89 04 24             	mov    %eax,(%esp)
    3d8d:	e8 9e 7c 01 00       	call   1ba30 <async_data_write_receive>
    3d92:	84 c0                	test   %al,%al
    3d94:	0f 84 96 00 00 00    	je     3e30 <remote_nic_poll_set_mode+0x100>
    3d9a:	83 7d e8 08          	cmpl   $0x8,-0x18(%ebp)
    3d9e:	74 30                	je     3dd0 <remote_nic_poll_set_mode+0xa0>
    3da0:	8b 45 ec             	mov    -0x14(%ebp),%eax
    3da3:	c7 44 24 04 fd ff ff 	movl   $0xfffffffd,0x4(%esp)
    3daa:	ff 
    3dab:	89 04 24             	mov    %eax,(%esp)
    3dae:	e8 ed 61 01 00       	call   19fa0 <async_answer_0>
    3db3:	8b 45 10             	mov    0x10(%ebp),%eax
    3db6:	c7 44 24 04 fd ff ff 	movl   $0xfffffffd,0x4(%esp)
    3dbd:	ff 
    3dbe:	89 04 24             	mov    %eax,(%esp)
    3dc1:	e8 da 61 01 00       	call   19fa0 <async_answer_0>
    3dc6:	83 c4 20             	add    $0x20,%esp
    3dc9:	5b                   	pop    %ebx
    3dca:	5e                   	pop    %esi
    3dcb:	5d                   	pop    %ebp
    3dcc:	c3                   	ret    
    3dcd:	8d 76 00             	lea    0x0(%esi),%esi
    3dd0:	8d 75 f0             	lea    -0x10(%ebp),%esi
    3dd3:	8b 45 ec             	mov    -0x14(%ebp),%eax
    3dd6:	c7 44 24 08 08 00 00 	movl   $0x8,0x8(%esp)
    3ddd:	00 
    3dde:	89 74 24 04          	mov    %esi,0x4(%esp)
    3de2:	89 04 24             	mov    %eax,(%esp)
    3de5:	e8 96 7c 01 00       	call   1ba80 <async_data_write_finalize>
    3dea:	89 f2                	mov    %esi,%edx
    3dec:	85 c0                	test   %eax,%eax
    3dee:	0f 84 53 ff ff ff    	je     3d47 <remote_nic_poll_set_mode+0x17>
    3df4:	8b 45 10             	mov    0x10(%ebp),%eax
    3df7:	c7 44 24 04 f2 ff ff 	movl   $0xfffffff2,0x4(%esp)
    3dfe:	ff 
    3dff:	89 04 24             	mov    %eax,(%esp)
    3e02:	e8 99 61 01 00       	call   19fa0 <async_answer_0>
    3e07:	e9 6b ff ff ff       	jmp    3d77 <remote_nic_poll_set_mode+0x47>
    3e0c:	8d 74 26 00          	lea    0x0(%esi,%eiz,1),%esi
    3e10:	8b 45 10             	mov    0x10(%ebp),%eax
    3e13:	c7 44 24 04 f5 ff ff 	movl   $0xfffffff5,0x4(%esp)
    3e1a:	ff 
    3e1b:	89 04 24             	mov    %eax,(%esp)
    3e1e:	e8 7d 61 01 00       	call   19fa0 <async_answer_0>
    3e23:	83 c4 20             	add    $0x20,%esp
    3e26:	5b                   	pop    %ebx
    3e27:	5e                   	pop    %esi
    3e28:	5d                   	pop    %ebp
    3e29:	c3                   	ret    
    3e2a:	8d b6 00 00 00 00    	lea    0x0(%esi),%esi
    3e30:	8b 45 ec             	mov    -0x14(%ebp),%eax
    3e33:	c7 44 24 04 f2 ff ff 	movl   $0xfffffff2,0x4(%esp)
    3e3a:	ff 
    3e3b:	89 04 24             	mov    %eax,(%esp)
    3e3e:	e8 5d 61 01 00       	call   19fa0 <async_answer_0>
    3e43:	8b 45 10             	mov    0x10(%ebp),%eax
    3e46:	c7 44 24 04 f2 ff ff 	movl   $0xfffffff2,0x4(%esp)
    3e4d:	ff 
    3e4e:	89 04 24             	mov    %eax,(%esp)
    3e51:	e8 4a 61 01 00       	call   19fa0 <async_answer_0>
    3e56:	e9 1c ff ff ff       	jmp    3d77 <remote_nic_poll_set_mode+0x47>
    3e5b:	90                   	nop
    3e5c:	8d 74 26 00          	lea    0x0(%esi,%eiz,1),%esi

00003e60 <remote_nic_vlan_set_mask>:
    3e60:	55                   	push   %ebp
    3e61:	31 d2                	xor    %edx,%edx
    3e63:	89 e5                	mov    %esp,%ebp
    3e65:	53                   	push   %ebx
    3e66:	81 ec 24 02 00 00    	sub    $0x224,%esp
    3e6c:	8b 45 14             	mov    0x14(%ebp),%eax
    3e6f:	8b 40 08             	mov    0x8(%eax),%eax
    3e72:	85 c0                	test   %eax,%eax
    3e74:	75 32                	jne    3ea8 <remote_nic_vlan_set_mask+0x48>
    3e76:	8b 45 0c             	mov    0xc(%ebp),%eax
    3e79:	8b 40 70             	mov    0x70(%eax),%eax
    3e7c:	85 c0                	test   %eax,%eax
    3e7e:	0f 84 cc 00 00 00    	je     3f50 <remote_nic_vlan_set_mask+0xf0>
    3e84:	89 54 24 04          	mov    %edx,0x4(%esp)
    3e88:	8b 55 08             	mov    0x8(%ebp),%edx
    3e8b:	89 14 24             	mov    %edx,(%esp)
    3e8e:	ff d0                	call   *%eax
    3e90:	89 44 24 04          	mov    %eax,0x4(%esp)
    3e94:	8b 45 10             	mov    0x10(%ebp),%eax
    3e97:	89 04 24             	mov    %eax,(%esp)
    3e9a:	e8 01 61 01 00       	call   19fa0 <async_answer_0>
    3e9f:	81 c4 24 02 00 00    	add    $0x224,%esp
    3ea5:	5b                   	pop    %ebx
    3ea6:	5d                   	pop    %ebp
    3ea7:	c3                   	ret    
    3ea8:	8d 85 f4 fd ff ff    	lea    -0x20c(%ebp),%eax
    3eae:	89 44 24 04          	mov    %eax,0x4(%esp)
    3eb2:	8d 85 f0 fd ff ff    	lea    -0x210(%ebp),%eax
    3eb8:	89 04 24             	mov    %eax,(%esp)
    3ebb:	e8 70 7b 01 00       	call   1ba30 <async_data_write_receive>
    3ec0:	84 c0                	test   %al,%al
    3ec2:	0f 84 a8 00 00 00    	je     3f70 <remote_nic_vlan_set_mask+0x110>
    3ec8:	81 bd f4 fd ff ff 00 	cmpl   $0x200,-0x20c(%ebp)
    3ecf:	02 00 00 
    3ed2:	74 34                	je     3f08 <remote_nic_vlan_set_mask+0xa8>
    3ed4:	8b 85 f0 fd ff ff    	mov    -0x210(%ebp),%eax
    3eda:	c7 44 24 04 fd ff ff 	movl   $0xfffffffd,0x4(%esp)
    3ee1:	ff 
    3ee2:	89 04 24             	mov    %eax,(%esp)
    3ee5:	e8 b6 60 01 00       	call   19fa0 <async_answer_0>
    3eea:	8b 45 10             	mov    0x10(%ebp),%eax
    3eed:	c7 44 24 04 fd ff ff 	movl   $0xfffffffd,0x4(%esp)
    3ef4:	ff 
    3ef5:	89 04 24             	mov    %eax,(%esp)
    3ef8:	e8 a3 60 01 00       	call   19fa0 <async_answer_0>
    3efd:	81 c4 24 02 00 00    	add    $0x224,%esp
    3f03:	5b                   	pop    %ebx
    3f04:	5d                   	pop    %ebp
    3f05:	c3                   	ret    
    3f06:	66 90                	xchg   %ax,%ax
    3f08:	8d 9d f8 fd ff ff    	lea    -0x208(%ebp),%ebx
    3f0e:	8b 85 f0 fd ff ff    	mov    -0x210(%ebp),%eax
    3f14:	c7 44 24 08 00 02 00 	movl   $0x200,0x8(%esp)
    3f1b:	00 
    3f1c:	89 5c 24 04          	mov    %ebx,0x4(%esp)
    3f20:	89 04 24             	mov    %eax,(%esp)
    3f23:	e8 58 7b 01 00       	call   1ba80 <async_data_write_finalize>
    3f28:	89 da                	mov    %ebx,%edx
    3f2a:	85 c0                	test   %eax,%eax
    3f2c:	0f 84 44 ff ff ff    	je     3e76 <remote_nic_vlan_set_mask+0x16>
    3f32:	8b 45 10             	mov    0x10(%ebp),%eax
    3f35:	c7 44 24 04 f2 ff ff 	movl   $0xfffffff2,0x4(%esp)
    3f3c:	ff 
    3f3d:	89 04 24             	mov    %eax,(%esp)
    3f40:	e8 5b 60 01 00       	call   19fa0 <async_answer_0>
    3f45:	e9 55 ff ff ff       	jmp    3e9f <remote_nic_vlan_set_mask+0x3f>
    3f4a:	8d b6 00 00 00 00    	lea    0x0(%esi),%esi
    3f50:	8b 45 10             	mov    0x10(%ebp),%eax
    3f53:	c7 44 24 04 f5 ff ff 	movl   $0xfffffff5,0x4(%esp)
    3f5a:	ff 
    3f5b:	89 04 24             	mov    %eax,(%esp)
    3f5e:	e8 3d 60 01 00       	call   19fa0 <async_answer_0>
    3f63:	81 c4 24 02 00 00    	add    $0x224,%esp
    3f69:	5b                   	pop    %ebx
    3f6a:	5d                   	pop    %ebp
    3f6b:	c3                   	ret    
    3f6c:	8d 74 26 00          	lea    0x0(%esi,%eiz,1),%esi
    3f70:	8b 85 f0 fd ff ff    	mov    -0x210(%ebp),%eax
    3f76:	c7 44 24 04 f2 ff ff 	movl   $0xfffffff2,0x4(%esp)
    3f7d:	ff 
    3f7e:	89 04 24             	mov    %eax,(%esp)
    3f81:	e8 1a 60 01 00       	call   19fa0 <async_answer_0>
    3f86:	8b 45 10             	mov    0x10(%ebp),%eax
    3f89:	c7 44 24 04 f2 ff ff 	movl   $0xfffffff2,0x4(%esp)
    3f90:	ff 
    3f91:	89 04 24             	mov    %eax,(%esp)
    3f94:	e8 07 60 01 00       	call   19fa0 <async_answer_0>
    3f99:	e9 01 ff ff ff       	jmp    3e9f <remote_nic_vlan_set_mask+0x3f>
    3f9e:	66 90                	xchg   %ax,%ax

00003fa0 <remote_nic_set_address>:
    3fa0:	55                   	push   %ebp
    3fa1:	89 e5                	mov    %esp,%ebp
    3fa3:	53                   	push   %ebx
    3fa4:	83 ec 24             	sub    $0x24,%esp
    3fa7:	8d 45 e8             	lea    -0x18(%ebp),%eax
    3faa:	89 44 24 04          	mov    %eax,0x4(%esp)
    3fae:	8d 45 ec             	lea    -0x14(%ebp),%eax
    3fb1:	89 04 24             	mov    %eax,(%esp)
    3fb4:	e8 77 7a 01 00       	call   1ba30 <async_data_write_receive>
    3fb9:	84 c0                	test   %al,%al
    3fbb:	0f 84 87 00 00 00    	je     4048 <remote_nic_set_address+0xa8>
    3fc1:	8b 45 e8             	mov    -0x18(%ebp),%eax
    3fc4:	83 f8 06             	cmp    $0x6,%eax
    3fc7:	77 4f                	ja     4018 <remote_nic_set_address+0x78>
    3fc9:	89 44 24 08          	mov    %eax,0x8(%esp)
    3fcd:	8d 5d f2             	lea    -0xe(%ebp),%ebx
    3fd0:	8b 45 ec             	mov    -0x14(%ebp),%eax
    3fd3:	89 5c 24 04          	mov    %ebx,0x4(%esp)
    3fd7:	89 04 24             	mov    %eax,(%esp)
    3fda:	e8 a1 7a 01 00       	call   1ba80 <async_data_write_finalize>
    3fdf:	85 c0                	test   %eax,%eax
    3fe1:	0f 85 91 00 00 00    	jne    4078 <remote_nic_set_address+0xd8>
    3fe7:	8b 45 0c             	mov    0xc(%ebp),%eax
    3fea:	8b 40 14             	mov    0x14(%eax),%eax
    3fed:	85 c0                	test   %eax,%eax
    3fef:	0f 84 a3 00 00 00    	je     4098 <remote_nic_set_address+0xf8>
    3ff5:	8b 55 08             	mov    0x8(%ebp),%edx
    3ff8:	89 5c 24 04          	mov    %ebx,0x4(%esp)
    3ffc:	89 14 24             	mov    %edx,(%esp)
    3fff:	ff d0                	call   *%eax
    4001:	89 44 24 04          	mov    %eax,0x4(%esp)
    4005:	8b 45 10             	mov    0x10(%ebp),%eax
    4008:	89 04 24             	mov    %eax,(%esp)
    400b:	e8 90 5f 01 00       	call   19fa0 <async_answer_0>
    4010:	83 c4 24             	add    $0x24,%esp
    4013:	5b                   	pop    %ebx
    4014:	5d                   	pop    %ebp
    4015:	c3                   	ret    
    4016:	66 90                	xchg   %ax,%ax
    4018:	8b 45 ec             	mov    -0x14(%ebp),%eax
    401b:	c7 44 24 04 fd ff ff 	movl   $0xfffffffd,0x4(%esp)
    4022:	ff 
    4023:	89 04 24             	mov    %eax,(%esp)
    4026:	e8 75 5f 01 00       	call   19fa0 <async_answer_0>
    402b:	8b 45 10             	mov    0x10(%ebp),%eax
    402e:	c7 44 24 04 fd ff ff 	movl   $0xfffffffd,0x4(%esp)
    4035:	ff 
    4036:	89 04 24             	mov    %eax,(%esp)
    4039:	e8 62 5f 01 00       	call   19fa0 <async_answer_0>
    403e:	83 c4 24             	add    $0x24,%esp
    4041:	5b                   	pop    %ebx
    4042:	5d                   	pop    %ebp
    4043:	c3                   	ret    
    4044:	8d 74 26 00          	lea    0x0(%esi,%eiz,1),%esi
    4048:	8b 45 ec             	mov    -0x14(%ebp),%eax
    404b:	c7 44 24 04 f2 ff ff 	movl   $0xfffffff2,0x4(%esp)
    4052:	ff 
    4053:	89 04 24             	mov    %eax,(%esp)
    4056:	e8 45 5f 01 00       	call   19fa0 <async_answer_0>
    405b:	8b 45 10             	mov    0x10(%ebp),%eax
    405e:	c7 44 24 04 f2 ff ff 	movl   $0xfffffff2,0x4(%esp)
    4065:	ff 
    4066:	89 04 24             	mov    %eax,(%esp)
    4069:	e8 32 5f 01 00       	call   19fa0 <async_answer_0>
    406e:	83 c4 24             	add    $0x24,%esp
    4071:	5b                   	pop    %ebx
    4072:	5d                   	pop    %ebp
    4073:	c3                   	ret    
    4074:	8d 74 26 00          	lea    0x0(%esi,%eiz,1),%esi
    4078:	8b 45 10             	mov    0x10(%ebp),%eax
    407b:	c7 44 24 04 f2 ff ff 	movl   $0xfffffff2,0x4(%esp)
    4082:	ff 
    4083:	89 04 24             	mov    %eax,(%esp)
    4086:	e8 15 5f 01 00       	call   19fa0 <async_answer_0>
    408b:	83 c4 24             	add    $0x24,%esp
    408e:	5b                   	pop    %ebx
    408f:	5d                   	pop    %ebp
    4090:	c3                   	ret    
    4091:	8d b4 26 00 00 00 00 	lea    0x0(%esi,%eiz,1),%esi
    4098:	8b 45 10             	mov    0x10(%ebp),%eax
    409b:	c7 44 24 04 f5 ff ff 	movl   $0xfffffff5,0x4(%esp)
    40a2:	ff 
    40a3:	89 04 24             	mov    %eax,(%esp)
    40a6:	e8 f5 5e 01 00       	call   19fa0 <async_answer_0>
    40ab:	e9 60 ff ff ff       	jmp    4010 <remote_nic_set_address+0x70>

000040b0 <remote_nic_poll_get_mode>:
    40b0:	55                   	push   %ebp
    40b1:	89 e5                	mov    %esp,%ebp
    40b3:	57                   	push   %edi
    40b4:	56                   	push   %esi
    40b5:	53                   	push   %ebx
    40b6:	83 ec 3c             	sub    $0x3c,%esp
    40b9:	8b 45 0c             	mov    0xc(%ebp),%eax
    40bc:	8b 80 98 00 00 00    	mov    0x98(%eax),%eax
    40c2:	85 c0                	test   %eax,%eax
    40c4:	0f 84 ee 00 00 00    	je     41b8 <remote_nic_poll_get_mode+0x108>
    40ca:	8b 55 14             	mov    0x14(%ebp),%edx
    40cd:	8d 5d e0             	lea    -0x20(%ebp),%ebx
    40d0:	c7 45 d4 00 00 00 00 	movl   $0x0,-0x2c(%ebp)
    40d7:	c7 45 e0 00 00 00 00 	movl   $0x0,-0x20(%ebp)
    40de:	8b 72 08             	mov    0x8(%edx),%esi
    40e1:	8d 55 d4             	lea    -0x2c(%ebp),%edx
    40e4:	89 54 24 04          	mov    %edx,0x4(%esp)
    40e8:	8b 55 08             	mov    0x8(%ebp),%edx
    40eb:	c7 45 e4 00 00 00 00 	movl   $0x0,-0x1c(%ebp)
    40f2:	89 5c 24 08          	mov    %ebx,0x8(%esp)
    40f6:	89 14 24             	mov    %edx,(%esp)
    40f9:	ff d0                	call   *%eax
    40fb:	89 c7                	mov    %eax,%edi
    40fd:	85 c0                	test   %eax,%eax
    40ff:	75 67                	jne    4168 <remote_nic_poll_get_mode+0xb8>
    4101:	85 f6                	test   %esi,%esi
    4103:	74 63                	je     4168 <remote_nic_poll_get_mode+0xb8>
    4105:	8d 45 d8             	lea    -0x28(%ebp),%eax
    4108:	89 44 24 04          	mov    %eax,0x4(%esp)
    410c:	8d 45 dc             	lea    -0x24(%ebp),%eax
    410f:	89 04 24             	mov    %eax,(%esp)
    4112:	e8 f9 73 01 00       	call   1b510 <async_data_read_receive>
    4117:	84 c0                	test   %al,%al
    4119:	74 6d                	je     4188 <remote_nic_poll_get_mode+0xd8>
    411b:	83 7d d8 08          	cmpl   $0x8,-0x28(%ebp)
    411f:	74 2f                	je     4150 <remote_nic_poll_get_mode+0xa0>
    4121:	8b 45 dc             	mov    -0x24(%ebp),%eax
    4124:	c7 44 24 04 fd ff ff 	movl   $0xfffffffd,0x4(%esp)
    412b:	ff 
    412c:	89 04 24             	mov    %eax,(%esp)
    412f:	e8 6c 5e 01 00       	call   19fa0 <async_answer_0>
    4134:	8b 45 10             	mov    0x10(%ebp),%eax
    4137:	c7 44 24 04 fd ff ff 	movl   $0xfffffffd,0x4(%esp)
    413e:	ff 
    413f:	89 04 24             	mov    %eax,(%esp)
    4142:	e8 59 5e 01 00       	call   19fa0 <async_answer_0>
    4147:	83 c4 3c             	add    $0x3c,%esp
    414a:	5b                   	pop    %ebx
    414b:	5e                   	pop    %esi
    414c:	5f                   	pop    %edi
    414d:	5d                   	pop    %ebp
    414e:	c3                   	ret    
    414f:	90                   	nop
    4150:	8b 45 dc             	mov    -0x24(%ebp),%eax
    4153:	c7 44 24 08 08 00 00 	movl   $0x8,0x8(%esp)
    415a:	00 
    415b:	89 5c 24 04          	mov    %ebx,0x4(%esp)
    415f:	89 04 24             	mov    %eax,(%esp)
    4162:	e8 09 74 01 00       	call   1b570 <async_data_read_finalize>
    4167:	90                   	nop
    4168:	8b 45 d4             	mov    -0x2c(%ebp),%eax
    416b:	89 7c 24 04          	mov    %edi,0x4(%esp)
    416f:	89 44 24 08          	mov    %eax,0x8(%esp)
    4173:	8b 45 10             	mov    0x10(%ebp),%eax
    4176:	89 04 24             	mov    %eax,(%esp)
    4179:	e8 62 5e 01 00       	call   19fe0 <async_answer_1>
    417e:	83 c4 3c             	add    $0x3c,%esp
    4181:	5b                   	pop    %ebx
    4182:	5e                   	pop    %esi
    4183:	5f                   	pop    %edi
    4184:	5d                   	pop    %ebp
    4185:	c3                   	ret    
    4186:	66 90                	xchg   %ax,%ax
    4188:	8b 45 dc             	mov    -0x24(%ebp),%eax
    418b:	c7 44 24 04 f2 ff ff 	movl   $0xfffffff2,0x4(%esp)
    4192:	ff 
    4193:	89 04 24             	mov    %eax,(%esp)
    4196:	e8 05 5e 01 00       	call   19fa0 <async_answer_0>
    419b:	8b 45 10             	mov    0x10(%ebp),%eax
    419e:	c7 44 24 04 f2 ff ff 	movl   $0xfffffff2,0x4(%esp)
    41a5:	ff 
    41a6:	89 04 24             	mov    %eax,(%esp)
    41a9:	e8 f2 5d 01 00       	call   19fa0 <async_answer_0>
    41ae:	83 c4 3c             	add    $0x3c,%esp
    41b1:	5b                   	pop    %ebx
    41b2:	5e                   	pop    %esi
    41b3:	5f                   	pop    %edi
    41b4:	5d                   	pop    %ebp
    41b5:	c3                   	ret    
    41b6:	66 90                	xchg   %ax,%ax
    41b8:	8b 45 10             	mov    0x10(%ebp),%eax
    41bb:	c7 44 24 04 f5 ff ff 	movl   $0xfffffff5,0x4(%esp)
    41c2:	ff 
    41c3:	89 04 24             	mov    %eax,(%esp)
    41c6:	e8 d5 5d 01 00       	call   19fa0 <async_answer_0>
    41cb:	83 c4 3c             	add    $0x3c,%esp
    41ce:	5b                   	pop    %ebx
    41cf:	5e                   	pop    %esi
    41d0:	5f                   	pop    %edi
    41d1:	5d                   	pop    %ebp
    41d2:	c3                   	ret    
    41d3:	8d b6 00 00 00 00    	lea    0x0(%esi),%esi
    41d9:	8d bc 27 00 00 00 00 	lea    0x0(%edi,%eiz,1),%edi

000041e0 <remote_nic_wol_virtue_get_caps>:
    41e0:	55                   	push   %ebp
    41e1:	89 e5                	mov    %esp,%ebp
    41e3:	83 ec 28             	sub    $0x28,%esp
    41e6:	8b 45 0c             	mov    0xc(%ebp),%eax
    41e9:	8b 80 88 00 00 00    	mov    0x88(%eax),%eax
    41ef:	85 c0                	test   %eax,%eax
    41f1:	74 3d                	je     4230 <remote_nic_wol_virtue_get_caps+0x50>
    41f3:	8d 55 f4             	lea    -0xc(%ebp),%edx
    41f6:	c7 45 f4 ff ff ff ff 	movl   $0xffffffff,-0xc(%ebp)
    41fd:	89 54 24 08          	mov    %edx,0x8(%esp)
    4201:	8b 55 14             	mov    0x14(%ebp),%edx
    4204:	8b 52 08             	mov    0x8(%edx),%edx
    4207:	89 54 24 04          	mov    %edx,0x4(%esp)
    420b:	8b 55 08             	mov    0x8(%ebp),%edx
    420e:	89 14 24             	mov    %edx,(%esp)
    4211:	ff d0                	call   *%eax
    4213:	8b 55 f4             	mov    -0xc(%ebp),%edx
    4216:	89 44 24 04          	mov    %eax,0x4(%esp)
    421a:	8b 45 10             	mov    0x10(%ebp),%eax
    421d:	89 54 24 08          	mov    %edx,0x8(%esp)
    4221:	89 04 24             	mov    %eax,(%esp)
    4224:	e8 b7 5d 01 00       	call   19fe0 <async_answer_1>
    4229:	c9                   	leave  
    422a:	c3                   	ret    
    422b:	90                   	nop
    422c:	8d 74 26 00          	lea    0x0(%esi,%eiz,1),%esi
    4230:	8b 45 10             	mov    0x10(%ebp),%eax
    4233:	c7 44 24 04 f5 ff ff 	movl   $0xfffffff5,0x4(%esp)
    423a:	ff 
    423b:	89 04 24             	mov    %eax,(%esp)
    423e:	e8 5d 5d 01 00       	call   19fa0 <async_answer_0>
    4243:	c9                   	leave  
    4244:	c3                   	ret    
    4245:	8d 74 26 00          	lea    0x0(%esi,%eiz,1),%esi
    4249:	8d bc 27 00 00 00 00 	lea    0x0(%edi,%eiz,1),%edi

00004250 <remote_nic_defective_get_mode>:
    4250:	55                   	push   %ebp
    4251:	89 e5                	mov    %esp,%ebp
    4253:	83 ec 28             	sub    $0x28,%esp
    4256:	8b 45 0c             	mov    0xc(%ebp),%eax
    4259:	8b 40 5c             	mov    0x5c(%eax),%eax
    425c:	85 c0                	test   %eax,%eax
    425e:	74 30                	je     4290 <remote_nic_defective_get_mode+0x40>
    4260:	8d 55 f4             	lea    -0xc(%ebp),%edx
    4263:	c7 45 f4 00 00 00 00 	movl   $0x0,-0xc(%ebp)
    426a:	89 54 24 04          	mov    %edx,0x4(%esp)
    426e:	8b 55 08             	mov    0x8(%ebp),%edx
    4271:	89 14 24             	mov    %edx,(%esp)
    4274:	ff d0                	call   *%eax
    4276:	8b 55 f4             	mov    -0xc(%ebp),%edx
    4279:	89 44 24 04          	mov    %eax,0x4(%esp)
    427d:	8b 45 10             	mov    0x10(%ebp),%eax
    4280:	89 54 24 08          	mov    %edx,0x8(%esp)
    4284:	89 04 24             	mov    %eax,(%esp)
    4287:	e8 54 5d 01 00       	call   19fe0 <async_answer_1>
    428c:	c9                   	leave  
    428d:	c3                   	ret    
    428e:	66 90                	xchg   %ax,%ax
    4290:	8b 45 10             	mov    0x10(%ebp),%eax
    4293:	c7 44 24 04 f5 ff ff 	movl   $0xfffffff5,0x4(%esp)
    429a:	ff 
    429b:	89 04 24             	mov    %eax,(%esp)
    429e:	e8 fd 5c 01 00       	call   19fa0 <async_answer_0>
    42a3:	c9                   	leave  
    42a4:	c3                   	ret    
    42a5:	8d 74 26 00          	lea    0x0(%esi,%eiz,1),%esi
    42a9:	8d bc 27 00 00 00 00 	lea    0x0(%edi,%eiz,1),%edi

000042b0 <remote_nic_broadcast_get_mode>:
    42b0:	55                   	push   %ebp
    42b1:	89 e5                	mov    %esp,%ebp
    42b3:	83 ec 28             	sub    $0x28,%esp
    42b6:	8b 45 0c             	mov    0xc(%ebp),%eax
    42b9:	8b 40 54             	mov    0x54(%eax),%eax
    42bc:	85 c0                	test   %eax,%eax
    42be:	74 30                	je     42f0 <remote_nic_broadcast_get_mode+0x40>
    42c0:	8d 55 f4             	lea    -0xc(%ebp),%edx
    42c3:	c7 45 f4 02 00 00 00 	movl   $0x2,-0xc(%ebp)
    42ca:	89 54 24 04          	mov    %edx,0x4(%esp)
    42ce:	8b 55 08             	mov    0x8(%ebp),%edx
    42d1:	89 14 24             	mov    %edx,(%esp)
    42d4:	ff d0                	call   *%eax
    42d6:	8b 55 f4             	mov    -0xc(%ebp),%edx
    42d9:	89 44 24 04          	mov    %eax,0x4(%esp)
    42dd:	8b 45 10             	mov    0x10(%ebp),%eax
    42e0:	89 54 24 08          	mov    %edx,0x8(%esp)
    42e4:	89 04 24             	mov    %eax,(%esp)
    42e7:	e8 f4 5c 01 00       	call   19fe0 <async_answer_1>
    42ec:	c9                   	leave  
    42ed:	c3                   	ret    
    42ee:	66 90                	xchg   %ax,%ax
    42f0:	8b 45 10             	mov    0x10(%ebp),%eax
    42f3:	c7 44 24 04 f5 ff ff 	movl   $0xfffffff5,0x4(%esp)
    42fa:	ff 
    42fb:	89 04 24             	mov    %eax,(%esp)
    42fe:	e8 9d 5c 01 00       	call   19fa0 <async_answer_0>
    4303:	c9                   	leave  
    4304:	c3                   	ret    
    4305:	8d 74 26 00          	lea    0x0(%esi,%eiz,1),%esi
    4309:	8d bc 27 00 00 00 00 	lea    0x0(%edi,%eiz,1),%edi

00004310 <remote_nic_get_cable_state>:
    4310:	55                   	push   %ebp
    4311:	89 e5                	mov    %esp,%ebp
    4313:	83 ec 28             	sub    $0x28,%esp
    4316:	8b 45 0c             	mov    0xc(%ebp),%eax
    4319:	8b 40 20             	mov    0x20(%eax),%eax
    431c:	85 c0                	test   %eax,%eax
    431e:	74 30                	je     4350 <remote_nic_get_cable_state+0x40>
    4320:	8d 55 f4             	lea    -0xc(%ebp),%edx
    4323:	c7 45 f4 00 00 00 00 	movl   $0x0,-0xc(%ebp)
    432a:	89 54 24 04          	mov    %edx,0x4(%esp)
    432e:	8b 55 08             	mov    0x8(%ebp),%edx
    4331:	89 14 24             	mov    %edx,(%esp)
    4334:	ff d0                	call   *%eax
    4336:	8b 55 f4             	mov    -0xc(%ebp),%edx
    4339:	89 44 24 04          	mov    %eax,0x4(%esp)
    433d:	8b 45 10             	mov    0x10(%ebp),%eax
    4340:	89 54 24 08          	mov    %edx,0x8(%esp)
    4344:	89 04 24             	mov    %eax,(%esp)
    4347:	e8 94 5c 01 00       	call   19fe0 <async_answer_1>
    434c:	c9                   	leave  
    434d:	c3                   	ret    
    434e:	66 90                	xchg   %ax,%ax
    4350:	8b 45 10             	mov    0x10(%ebp),%eax
    4353:	c7 44 24 04 f5 ff ff 	movl   $0xfffffff5,0x4(%esp)
    435a:	ff 
    435b:	89 04 24             	mov    %eax,(%esp)
    435e:	e8 3d 5c 01 00       	call   19fa0 <async_answer_0>
    4363:	c9                   	leave  
    4364:	c3                   	ret    
    4365:	8d 74 26 00          	lea    0x0(%esi,%eiz,1),%esi
    4369:	8d bc 27 00 00 00 00 	lea    0x0(%edi,%eiz,1),%edi

00004370 <remote_nic_offload_probe>:
    4370:	55                   	push   %ebp
    4371:	89 e5                	mov    %esp,%ebp
    4373:	83 ec 28             	sub    $0x28,%esp
    4376:	8b 45 0c             	mov    0xc(%ebp),%eax
    4379:	8b 80 90 00 00 00    	mov    0x90(%eax),%eax
    437f:	85 c0                	test   %eax,%eax
    4381:	74 45                	je     43c8 <remote_nic_offload_probe+0x58>
    4383:	8d 55 f4             	lea    -0xc(%ebp),%edx
    4386:	c7 45 f0 00 00 00 00 	movl   $0x0,-0x10(%ebp)
    438d:	89 54 24 08          	mov    %edx,0x8(%esp)
    4391:	8d 55 f0             	lea    -0x10(%ebp),%edx
    4394:	89 54 24 04          	mov    %edx,0x4(%esp)
    4398:	8b 55 08             	mov    0x8(%ebp),%edx
    439b:	89 14 24             	mov    %edx,(%esp)
    439e:	c7 45 f4 00 00 00 00 	movl   $0x0,-0xc(%ebp)
    43a5:	ff d0                	call   *%eax
    43a7:	8b 55 f4             	mov    -0xc(%ebp),%edx
    43aa:	89 54 24 0c          	mov    %edx,0xc(%esp)
    43ae:	89 44 24 04          	mov    %eax,0x4(%esp)
    43b2:	8b 55 f0             	mov    -0x10(%ebp),%edx
    43b5:	8b 45 10             	mov    0x10(%ebp),%eax
    43b8:	89 54 24 08          	mov    %edx,0x8(%esp)
    43bc:	89 04 24             	mov    %eax,(%esp)
    43bf:	e8 5c 5c 01 00       	call   1a020 <async_answer_2>
    43c4:	c9                   	leave  
    43c5:	c3                   	ret    
    43c6:	66 90                	xchg   %ax,%ax
    43c8:	8b 45 10             	mov    0x10(%ebp),%eax
    43cb:	c7 44 24 04 f5 ff ff 	movl   $0xfffffff5,0x4(%esp)
    43d2:	ff 
    43d3:	89 04 24             	mov    %eax,(%esp)
    43d6:	e8 c5 5b 01 00       	call   19fa0 <async_answer_0>
    43db:	c9                   	leave  
    43dc:	c3                   	ret    
    43dd:	8d 76 00             	lea    0x0(%esi),%esi

000043e0 <remote_nic_vlan_get_mask>:
    43e0:	55                   	push   %ebp
    43e1:	89 e5                	mov    %esp,%ebp
    43e3:	56                   	push   %esi
    43e4:	53                   	push   %ebx
    43e5:	81 ec 20 02 00 00    	sub    $0x220,%esp
    43eb:	8b 5d 0c             	mov    0xc(%ebp),%ebx
    43ee:	8b 43 6c             	mov    0x6c(%ebx),%eax
    43f1:	85 c0                	test   %eax,%eax
    43f3:	0f 84 c7 00 00 00    	je     44c0 <remote_nic_vlan_get_mask+0xe0>
    43f9:	8d b5 f8 fd ff ff    	lea    -0x208(%ebp),%esi
    43ff:	c7 44 24 08 00 02 00 	movl   $0x200,0x8(%esp)
    4406:	00 
    4407:	c7 44 24 04 00 00 00 	movl   $0x0,0x4(%esp)
    440e:	00 
    440f:	89 34 24             	mov    %esi,(%esp)
    4412:	e8 09 5b 00 00       	call   9f20 <memset>
    4417:	8b 45 08             	mov    0x8(%ebp),%eax
    441a:	89 74 24 04          	mov    %esi,0x4(%esp)
    441e:	89 04 24             	mov    %eax,(%esp)
    4421:	ff 53 6c             	call   *0x6c(%ebx)
    4424:	89 c3                	mov    %eax,%ebx
    4426:	85 c0                	test   %eax,%eax
    4428:	75 78                	jne    44a2 <remote_nic_vlan_get_mask+0xc2>
    442a:	8d 85 f4 fd ff ff    	lea    -0x20c(%ebp),%eax
    4430:	89 44 24 04          	mov    %eax,0x4(%esp)
    4434:	8d 85 f0 fd ff ff    	lea    -0x210(%ebp),%eax
    443a:	89 04 24             	mov    %eax,(%esp)
    443d:	e8 ce 70 01 00       	call   1b510 <async_data_read_receive>
    4442:	84 c0                	test   %al,%al
    4444:	74 0c                	je     4452 <remote_nic_vlan_get_mask+0x72>
    4446:	81 bd f4 fd ff ff 00 	cmpl   $0x200,-0x20c(%ebp)
    444d:	02 00 00 
    4450:	74 36                	je     4488 <remote_nic_vlan_get_mask+0xa8>
    4452:	8b 85 f0 fd ff ff    	mov    -0x210(%ebp),%eax
    4458:	c7 44 24 04 f2 ff ff 	movl   $0xfffffff2,0x4(%esp)
    445f:	ff 
    4460:	89 04 24             	mov    %eax,(%esp)
    4463:	e8 38 5b 01 00       	call   19fa0 <async_answer_0>
    4468:	8b 45 10             	mov    0x10(%ebp),%eax
    446b:	c7 44 24 04 f2 ff ff 	movl   $0xfffffff2,0x4(%esp)
    4472:	ff 
    4473:	89 04 24             	mov    %eax,(%esp)
    4476:	e8 25 5b 01 00       	call   19fa0 <async_answer_0>
    447b:	81 c4 20 02 00 00    	add    $0x220,%esp
    4481:	5b                   	pop    %ebx
    4482:	5e                   	pop    %esi
    4483:	5d                   	pop    %ebp
    4484:	c3                   	ret    
    4485:	8d 76 00             	lea    0x0(%esi),%esi
    4488:	8b 85 f0 fd ff ff    	mov    -0x210(%ebp),%eax
    448e:	c7 44 24 08 00 02 00 	movl   $0x200,0x8(%esp)
    4495:	00 
    4496:	89 74 24 04          	mov    %esi,0x4(%esp)
    449a:	89 04 24             	mov    %eax,(%esp)
    449d:	e8 ce 70 01 00       	call   1b570 <async_data_read_finalize>
    44a2:	8b 45 10             	mov    0x10(%ebp),%eax
    44a5:	89 5c 24 04          	mov    %ebx,0x4(%esp)
    44a9:	89 04 24             	mov    %eax,(%esp)
    44ac:	e8 ef 5a 01 00       	call   19fa0 <async_answer_0>
    44b1:	81 c4 20 02 00 00    	add    $0x220,%esp
    44b7:	5b                   	pop    %ebx
    44b8:	5e                   	pop    %esi
    44b9:	5d                   	pop    %ebp
    44ba:	c3                   	ret    
    44bb:	90                   	nop
    44bc:	8d 74 26 00          	lea    0x0(%esi,%eiz,1),%esi
    44c0:	8b 45 10             	mov    0x10(%ebp),%eax
    44c3:	c7 44 24 04 f5 ff ff 	movl   $0xfffffff5,0x4(%esp)
    44ca:	ff 
    44cb:	89 04 24             	mov    %eax,(%esp)
    44ce:	e8 cd 5a 01 00       	call   19fa0 <async_answer_0>
    44d3:	81 c4 20 02 00 00    	add    $0x220,%esp
    44d9:	5b                   	pop    %ebx
    44da:	5e                   	pop    %esi
    44db:	5d                   	pop    %ebp
    44dc:	c3                   	ret    
    44dd:	8d 76 00             	lea    0x0(%esi),%esi

000044e0 <remote_nic_get_device_info>:
    44e0:	55                   	push   %ebp
    44e1:	89 e5                	mov    %esp,%ebp
    44e3:	56                   	push   %esi
    44e4:	53                   	push   %ebx
    44e5:	81 ec 40 01 00 00    	sub    $0x140,%esp
    44eb:	8b 5d 0c             	mov    0xc(%ebp),%ebx
    44ee:	8b 43 1c             	mov    0x1c(%ebx),%eax
    44f1:	85 c0                	test   %eax,%eax
    44f3:	0f 84 ff 00 00 00    	je     45f8 <remote_nic_get_device_info+0x118>
    44f9:	8d b5 dc fe ff ff    	lea    -0x124(%ebp),%esi
    44ff:	c7 44 24 08 1c 01 00 	movl   $0x11c,0x8(%esp)
    4506:	00 
    4507:	c7 44 24 04 00 00 00 	movl   $0x0,0x4(%esp)
    450e:	00 
    450f:	89 34 24             	mov    %esi,(%esp)
    4512:	e8 09 5a 00 00       	call   9f20 <memset>
    4517:	8b 45 08             	mov    0x8(%ebp),%eax
    451a:	89 74 24 04          	mov    %esi,0x4(%esp)
    451e:	89 04 24             	mov    %eax,(%esp)
    4521:	ff 53 1c             	call   *0x1c(%ebx)
    4524:	89 c3                	mov    %eax,%ebx
    4526:	85 c0                	test   %eax,%eax
    4528:	75 78                	jne    45a2 <remote_nic_get_device_info+0xc2>
    452a:	8d 85 d8 fe ff ff    	lea    -0x128(%ebp),%eax
    4530:	89 44 24 04          	mov    %eax,0x4(%esp)
    4534:	8d 85 d4 fe ff ff    	lea    -0x12c(%ebp),%eax
    453a:	89 04 24             	mov    %eax,(%esp)
    453d:	e8 ce 6f 01 00       	call   1b510 <async_data_read_receive>
    4542:	84 c0                	test   %al,%al
    4544:	74 7a                	je     45c0 <remote_nic_get_device_info+0xe0>
    4546:	81 bd d8 fe ff ff 1b 	cmpl   $0x11b,-0x128(%ebp)
    454d:	01 00 00 
    4550:	77 36                	ja     4588 <remote_nic_get_device_info+0xa8>
    4552:	8b 85 d4 fe ff ff    	mov    -0x12c(%ebp),%eax
    4558:	c7 44 24 04 fd ff ff 	movl   $0xfffffffd,0x4(%esp)
    455f:	ff 
    4560:	89 04 24             	mov    %eax,(%esp)
    4563:	e8 38 5a 01 00       	call   19fa0 <async_answer_0>
    4568:	8b 45 10             	mov    0x10(%ebp),%eax
    456b:	c7 44 24 04 fd ff ff 	movl   $0xfffffffd,0x4(%esp)
    4572:	ff 
    4573:	89 04 24             	mov    %eax,(%esp)
    4576:	e8 25 5a 01 00       	call   19fa0 <async_answer_0>
    457b:	81 c4 40 01 00 00    	add    $0x140,%esp
    4581:	5b                   	pop    %ebx
    4582:	5e                   	pop    %esi
    4583:	5d                   	pop    %ebp
    4584:	c3                   	ret    
    4585:	8d 76 00             	lea    0x0(%esi),%esi
    4588:	8b 85 d4 fe ff ff    	mov    -0x12c(%ebp),%eax
    458e:	c7 44 24 08 1c 01 00 	movl   $0x11c,0x8(%esp)
    4595:	00 
    4596:	89 74 24 04          	mov    %esi,0x4(%esp)
    459a:	89 04 24             	mov    %eax,(%esp)
    459d:	e8 ce 6f 01 00       	call   1b570 <async_data_read_finalize>
    45a2:	8b 45 10             	mov    0x10(%ebp),%eax
    45a5:	89 5c 24 04          	mov    %ebx,0x4(%esp)
    45a9:	89 04 24             	mov    %eax,(%esp)
    45ac:	e8 ef 59 01 00       	call   19fa0 <async_answer_0>
    45b1:	81 c4 40 01 00 00    	add    $0x140,%esp
    45b7:	5b                   	pop    %ebx
    45b8:	5e                   	pop    %esi
    45b9:	5d                   	pop    %ebp
    45ba:	c3                   	ret    
    45bb:	90                   	nop
    45bc:	8d 74 26 00          	lea    0x0(%esi,%eiz,1),%esi
    45c0:	8b 85 d4 fe ff ff    	mov    -0x12c(%ebp),%eax
    45c6:	c7 44 24 04 f2 ff ff 	movl   $0xfffffff2,0x4(%esp)
    45cd:	ff 
    45ce:	89 04 24             	mov    %eax,(%esp)
    45d1:	e8 ca 59 01 00       	call   19fa0 <async_answer_0>
    45d6:	8b 45 10             	mov    0x10(%ebp),%eax
    45d9:	c7 44 24 04 f2 ff ff 	movl   $0xfffffff2,0x4(%esp)
    45e0:	ff 
    45e1:	89 04 24             	mov    %eax,(%esp)
    45e4:	e8 b7 59 01 00       	call   19fa0 <async_answer_0>
    45e9:	81 c4 40 01 00 00    	add    $0x140,%esp
    45ef:	5b                   	pop    %ebx
    45f0:	5e                   	pop    %esi
    45f1:	5d                   	pop    %ebp
    45f2:	c3                   	ret    
    45f3:	90                   	nop
    45f4:	8d 74 26 00          	lea    0x0(%esi,%eiz,1),%esi
    45f8:	8b 45 10             	mov    0x10(%ebp),%eax
    45fb:	c7 44 24 04 f5 ff ff 	movl   $0xfffffff5,0x4(%esp)
    4602:	ff 
    4603:	89 04 24             	mov    %eax,(%esp)
    4606:	e8 95 59 01 00       	call   19fa0 <async_answer_0>
    460b:	81 c4 40 01 00 00    	add    $0x140,%esp
    4611:	5b                   	pop    %ebx
    4612:	5e                   	pop    %esi
    4613:	5d                   	pop    %ebp
    4614:	c3                   	ret    
    4615:	8d 74 26 00          	lea    0x0(%esi,%eiz,1),%esi
    4619:	8d bc 27 00 00 00 00 	lea    0x0(%edi,%eiz,1),%edi

00004620 <remote_nic_get_stats>:
    4620:	55                   	push   %ebp
    4621:	89 e5                	mov    %esp,%ebp
    4623:	56                   	push   %esi
    4624:	53                   	push   %ebx
    4625:	81 ec 90 00 00 00    	sub    $0x90,%esp
    462b:	8b 5d 0c             	mov    0xc(%ebp),%ebx
    462e:	8b 43 18             	mov    0x18(%ebx),%eax
    4631:	85 c0                	test   %eax,%eax
    4633:	0f 84 df 00 00 00    	je     4718 <remote_nic_get_stats+0xf8>
    4639:	8d 75 8c             	lea    -0x74(%ebp),%esi
    463c:	c7 44 24 08 6c 00 00 	movl   $0x6c,0x8(%esp)
    4643:	00 
    4644:	c7 44 24 04 00 00 00 	movl   $0x0,0x4(%esp)
    464b:	00 
    464c:	89 34 24             	mov    %esi,(%esp)
    464f:	e8 cc 58 00 00       	call   9f20 <memset>
    4654:	8b 45 08             	mov    0x8(%ebp),%eax
    4657:	89 74 24 04          	mov    %esi,0x4(%esp)
    465b:	89 04 24             	mov    %eax,(%esp)
    465e:	ff 53 18             	call   *0x18(%ebx)
    4661:	89 c3                	mov    %eax,%ebx
    4663:	85 c0                	test   %eax,%eax
    4665:	75 68                	jne    46cf <remote_nic_get_stats+0xaf>
    4667:	8d 45 88             	lea    -0x78(%ebp),%eax
    466a:	89 44 24 04          	mov    %eax,0x4(%esp)
    466e:	8d 45 84             	lea    -0x7c(%ebp),%eax
    4671:	89 04 24             	mov    %eax,(%esp)
    4674:	e8 97 6e 01 00       	call   1b510 <async_data_read_receive>
    4679:	84 c0                	test   %al,%al
    467b:	74 6b                	je     46e8 <remote_nic_get_stats+0xc8>
    467d:	83 7d 88 6b          	cmpl   $0x6b,-0x78(%ebp)
    4681:	77 35                	ja     46b8 <remote_nic_get_stats+0x98>
    4683:	8b 45 84             	mov    -0x7c(%ebp),%eax
    4686:	c7 44 24 04 fd ff ff 	movl   $0xfffffffd,0x4(%esp)
    468d:	ff 
    468e:	89 04 24             	mov    %eax,(%esp)
    4691:	e8 0a 59 01 00       	call   19fa0 <async_answer_0>
    4696:	8b 45 10             	mov    0x10(%ebp),%eax
    4699:	c7 44 24 04 fd ff ff 	movl   $0xfffffffd,0x4(%esp)
    46a0:	ff 
    46a1:	89 04 24             	mov    %eax,(%esp)
    46a4:	e8 f7 58 01 00       	call   19fa0 <async_answer_0>
    46a9:	81 c4 90 00 00 00    	add    $0x90,%esp
    46af:	5b                   	pop    %ebx
    46b0:	5e                   	pop    %esi
    46b1:	5d                   	pop    %ebp
    46b2:	c3                   	ret    
    46b3:	90                   	nop
    46b4:	8d 74 26 00          	lea    0x0(%esi,%eiz,1),%esi
    46b8:	8b 45 84             	mov    -0x7c(%ebp),%eax
    46bb:	c7 44 24 08 6c 00 00 	movl   $0x6c,0x8(%esp)
    46c2:	00 
    46c3:	89 74 24 04          	mov    %esi,0x4(%esp)
    46c7:	89 04 24             	mov    %eax,(%esp)
    46ca:	e8 a1 6e 01 00       	call   1b570 <async_data_read_finalize>
    46cf:	8b 45 10             	mov    0x10(%ebp),%eax
    46d2:	89 5c 24 04          	mov    %ebx,0x4(%esp)
    46d6:	89 04 24             	mov    %eax,(%esp)
    46d9:	e8 c2 58 01 00       	call   19fa0 <async_answer_0>
    46de:	81 c4 90 00 00 00    	add    $0x90,%esp
    46e4:	5b                   	pop    %ebx
    46e5:	5e                   	pop    %esi
    46e6:	5d                   	pop    %ebp
    46e7:	c3                   	ret    
    46e8:	8b 45 84             	mov    -0x7c(%ebp),%eax
    46eb:	c7 44 24 04 f2 ff ff 	movl   $0xfffffff2,0x4(%esp)
    46f2:	ff 
    46f3:	89 04 24             	mov    %eax,(%esp)
    46f6:	e8 a5 58 01 00       	call   19fa0 <async_answer_0>
    46fb:	8b 45 10             	mov    0x10(%ebp),%eax
    46fe:	c7 44 24 04 f2 ff ff 	movl   $0xfffffff2,0x4(%esp)
    4705:	ff 
    4706:	89 04 24             	mov    %eax,(%esp)
    4709:	e8 92 58 01 00       	call   19fa0 <async_answer_0>
    470e:	81 c4 90 00 00 00    	add    $0x90,%esp
    4714:	5b                   	pop    %ebx
    4715:	5e                   	pop    %esi
    4716:	5d                   	pop    %ebp
    4717:	c3                   	ret    
    4718:	8b 45 10             	mov    0x10(%ebp),%eax
    471b:	c7 44 24 04 f5 ff ff 	movl   $0xfffffff5,0x4(%esp)
    4722:	ff 
    4723:	89 04 24             	mov    %eax,(%esp)
    4726:	e8 75 58 01 00       	call   19fa0 <async_answer_0>
    472b:	81 c4 90 00 00 00    	add    $0x90,%esp
    4731:	5b                   	pop    %ebx
    4732:	5e                   	pop    %esi
    4733:	5d                   	pop    %ebp
    4734:	c3                   	ret    
    4735:	8d 74 26 00          	lea    0x0(%esi,%eiz,1),%esi
    4739:	8d bc 27 00 00 00 00 	lea    0x0(%edi,%eiz,1),%edi

00004740 <remote_nic_wol_load_info>:
    4740:	55                   	push   %ebp
    4741:	89 e5                	mov    %esp,%ebp
    4743:	57                   	push   %edi
    4744:	56                   	push   %esi
    4745:	53                   	push   %ebx
    4746:	83 ec 3c             	sub    $0x3c,%esp
    4749:	8b 7d 0c             	mov    0xc(%ebp),%edi
    474c:	8b 87 8c 00 00 00    	mov    0x8c(%edi),%eax
    4752:	85 c0                	test   %eax,%eax
    4754:	0f 84 2e 01 00 00    	je     4888 <remote_nic_wol_load_info+0x148>
    475a:	8b 45 14             	mov    0x14(%ebp),%eax
    475d:	c7 45 d8 00 00 00 00 	movl   $0x0,-0x28(%ebp)
    4764:	c7 45 dc 00 00 00 00 	movl   $0x0,-0x24(%ebp)
    476b:	8b 58 08             	mov    0x8(%eax),%ebx
    476e:	85 db                	test   %ebx,%ebx
    4770:	0f 85 92 00 00 00    	jne    4808 <remote_nic_wol_load_info+0xc8>
    4776:	31 f6                	xor    %esi,%esi
    4778:	89 5c 24 08          	mov    %ebx,0x8(%esp)
    477c:	c7 44 24 04 00 00 00 	movl   $0x0,0x4(%esp)
    4783:	00 
    4784:	89 34 24             	mov    %esi,(%esp)
    4787:	e8 94 57 00 00       	call   9f20 <memset>
    478c:	8d 45 d8             	lea    -0x28(%ebp),%eax
    478f:	89 44 24 10          	mov    %eax,0x10(%esp)
    4793:	8d 45 dc             	lea    -0x24(%ebp),%eax
    4796:	89 44 24 04          	mov    %eax,0x4(%esp)
    479a:	8b 45 08             	mov    0x8(%ebp),%eax
    479d:	89 74 24 0c          	mov    %esi,0xc(%esp)
    47a1:	89 5c 24 08          	mov    %ebx,0x8(%esp)
    47a5:	89 04 24             	mov    %eax,(%esp)
    47a8:	ff 97 8c 00 00 00    	call   *0x8c(%edi)
    47ae:	89 c7                	mov    %eax,%edi
    47b0:	85 c0                	test   %eax,%eax
    47b2:	0f 85 a0 00 00 00    	jne    4858 <remote_nic_wol_load_info+0x118>
    47b8:	8d 45 e4             	lea    -0x1c(%ebp),%eax
    47bb:	89 44 24 04          	mov    %eax,0x4(%esp)
    47bf:	8d 45 e0             	lea    -0x20(%ebp),%eax
    47c2:	89 04 24             	mov    %eax,(%esp)
    47c5:	e8 46 6d 01 00       	call   1b510 <async_data_read_receive>
    47ca:	84 c0                	test   %al,%al
    47cc:	75 62                	jne    4830 <remote_nic_wol_load_info+0xf0>
    47ce:	8b 45 e0             	mov    -0x20(%ebp),%eax
    47d1:	c7 44 24 04 f2 ff ff 	movl   $0xfffffff2,0x4(%esp)
    47d8:	ff 
    47d9:	89 04 24             	mov    %eax,(%esp)
    47dc:	e8 bf 57 01 00       	call   19fa0 <async_answer_0>
    47e1:	8b 45 10             	mov    0x10(%ebp),%eax
    47e4:	c7 44 24 04 f2 ff ff 	movl   $0xfffffff2,0x4(%esp)
    47eb:	ff 
    47ec:	89 04 24             	mov    %eax,(%esp)
    47ef:	e8 ac 57 01 00       	call   19fa0 <async_answer_0>
    47f4:	89 34 24             	mov    %esi,(%esp)
    47f7:	e8 74 2d 01 00       	call   17570 <free>
    47fc:	83 c4 3c             	add    $0x3c,%esp
    47ff:	5b                   	pop    %ebx
    4800:	5e                   	pop    %esi
    4801:	5f                   	pop    %edi
    4802:	5d                   	pop    %ebp
    4803:	c3                   	ret    
    4804:	8d 74 26 00          	lea    0x0(%esi,%eiz,1),%esi
    4808:	89 1c 24             	mov    %ebx,(%esp)
    480b:	e8 50 2c 01 00       	call   17460 <malloc>
    4810:	89 c6                	mov    %eax,%esi
    4812:	85 c0                	test   %eax,%eax
    4814:	0f 85 5e ff ff ff    	jne    4778 <remote_nic_wol_load_info+0x38>
    481a:	8b 45 10             	mov    0x10(%ebp),%eax
    481d:	c7 44 24 04 fe ff ff 	movl   $0xfffffffe,0x4(%esp)
    4824:	ff 
    4825:	89 04 24             	mov    %eax,(%esp)
    4828:	e8 73 57 01 00       	call   19fa0 <async_answer_0>
    482d:	eb cd                	jmp    47fc <remote_nic_wol_load_info+0xbc>
    482f:	90                   	nop
    4830:	8b 45 e4             	mov    -0x1c(%ebp),%eax
    4833:	39 d8                	cmp    %ebx,%eax
    4835:	76 02                	jbe    4839 <remote_nic_wol_load_info+0xf9>
    4837:	89 d8                	mov    %ebx,%eax
    4839:	8b 55 d8             	mov    -0x28(%ebp),%edx
    483c:	39 d0                	cmp    %edx,%eax
    483e:	76 02                	jbe    4842 <remote_nic_wol_load_info+0x102>
    4840:	89 d0                	mov    %edx,%eax
    4842:	89 45 e4             	mov    %eax,-0x1c(%ebp)
    4845:	89 44 24 08          	mov    %eax,0x8(%esp)
    4849:	8b 45 e0             	mov    -0x20(%ebp),%eax
    484c:	89 74 24 04          	mov    %esi,0x4(%esp)
    4850:	89 04 24             	mov    %eax,(%esp)
    4853:	e8 18 6d 01 00       	call   1b570 <async_data_read_finalize>
    4858:	8b 45 d8             	mov    -0x28(%ebp),%eax
    485b:	89 7c 24 04          	mov    %edi,0x4(%esp)
    485f:	89 44 24 0c          	mov    %eax,0xc(%esp)
    4863:	8b 45 dc             	mov    -0x24(%ebp),%eax
    4866:	89 44 24 08          	mov    %eax,0x8(%esp)
    486a:	8b 45 10             	mov    0x10(%ebp),%eax
    486d:	89 04 24             	mov    %eax,(%esp)
    4870:	e8 ab 57 01 00       	call   1a020 <async_answer_2>
    4875:	89 34 24             	mov    %esi,(%esp)
    4878:	e8 f3 2c 01 00       	call   17570 <free>
    487d:	83 c4 3c             	add    $0x3c,%esp
    4880:	5b                   	pop    %ebx
    4881:	5e                   	pop    %esi
    4882:	5f                   	pop    %edi
    4883:	5d                   	pop    %ebp
    4884:	c3                   	ret    
    4885:	8d 76 00             	lea    0x0(%esi),%esi
    4888:	8b 45 10             	mov    0x10(%ebp),%eax
    488b:	c7 44 24 04 f5 ff ff 	movl   $0xfffffff5,0x4(%esp)
    4892:	ff 
    4893:	89 04 24             	mov    %eax,(%esp)
    4896:	e8 05 57 01 00       	call   19fa0 <async_answer_0>
    489b:	e9 5c ff ff ff       	jmp    47fc <remote_nic_wol_load_info+0xbc>

000048a0 <remote_nic_wol_virtue_list>:
    48a0:	55                   	push   %ebp
    48a1:	89 e5                	mov    %esp,%ebp
    48a3:	57                   	push   %edi
    48a4:	56                   	push   %esi
    48a5:	53                   	push   %ebx
    48a6:	83 ec 4c             	sub    $0x4c,%esp
    48a9:	8b 55 0c             	mov    0xc(%ebp),%edx
    48ac:	8b 45 14             	mov    0x14(%ebp),%eax
    48af:	8b 8a 84 00 00 00    	mov    0x84(%edx),%ecx
    48b5:	85 c9                	test   %ecx,%ecx
    48b7:	0f 84 6b 01 00 00    	je     4a28 <remote_nic_wol_virtue_list+0x188>
    48bd:	8b 78 0c             	mov    0xc(%eax),%edi
    48c0:	8b 70 08             	mov    0x8(%eax),%esi
    48c3:	c7 45 dc 00 00 00 00 	movl   $0x0,-0x24(%ebp)
    48ca:	85 ff                	test   %edi,%edi
    48cc:	74 62                	je     4930 <remote_nic_wol_virtue_list+0x90>
    48ce:	8d 14 bd 00 00 00 00 	lea    0x0(,%edi,4),%edx
    48d5:	89 14 24             	mov    %edx,(%esp)
    48d8:	89 55 d4             	mov    %edx,-0x2c(%ebp)
    48db:	e8 80 2b 01 00       	call   17460 <malloc>
    48e0:	89 c3                	mov    %eax,%ebx
    48e2:	85 c0                	test   %eax,%eax
    48e4:	0f 84 56 01 00 00    	je     4a40 <remote_nic_wol_virtue_list+0x1a0>
    48ea:	8b 55 d4             	mov    -0x2c(%ebp),%edx
    48ed:	c7 44 24 04 00 00 00 	movl   $0x0,0x4(%esp)
    48f4:	00 
    48f5:	89 54 24 08          	mov    %edx,0x8(%esp)
    48f9:	89 04 24             	mov    %eax,(%esp)
    48fc:	e8 1f 56 00 00       	call   9f20 <memset>
    4901:	8d 45 dc             	lea    -0x24(%ebp),%eax
    4904:	89 44 24 10          	mov    %eax,0x10(%esp)
    4908:	8b 55 0c             	mov    0xc(%ebp),%edx
    490b:	8b 45 08             	mov    0x8(%ebp),%eax
    490e:	89 5c 24 0c          	mov    %ebx,0xc(%esp)
    4912:	89 7c 24 08          	mov    %edi,0x8(%esp)
    4916:	89 74 24 04          	mov    %esi,0x4(%esp)
    491a:	89 04 24             	mov    %eax,(%esp)
    491d:	ff 92 84 00 00 00    	call   *0x84(%edx)
    4923:	8b 55 dc             	mov    -0x24(%ebp),%edx
    4926:	85 d2                	test   %edx,%edx
    4928:	75 76                	jne    49a0 <remote_nic_wol_virtue_list+0x100>
    492a:	31 d2                	xor    %edx,%edx
    492c:	eb 4d                	jmp    497b <remote_nic_wol_virtue_list+0xdb>
    492e:	66 90                	xchg   %ax,%ax
    4930:	c7 44 24 08 00 00 00 	movl   $0x0,0x8(%esp)
    4937:	00 
    4938:	c7 44 24 04 00 00 00 	movl   $0x0,0x4(%esp)
    493f:	00 
    4940:	c7 04 24 00 00 00 00 	movl   $0x0,(%esp)
    4947:	31 db                	xor    %ebx,%ebx
    4949:	e8 d2 55 00 00       	call   9f20 <memset>
    494e:	8d 45 dc             	lea    -0x24(%ebp),%eax
    4951:	89 44 24 10          	mov    %eax,0x10(%esp)
    4955:	8b 55 0c             	mov    0xc(%ebp),%edx
    4958:	8b 45 08             	mov    0x8(%ebp),%eax
    495b:	c7 44 24 0c 00 00 00 	movl   $0x0,0xc(%esp)
    4962:	00 
    4963:	c7 44 24 08 00 00 00 	movl   $0x0,0x8(%esp)
    496a:	00 
    496b:	89 74 24 04          	mov    %esi,0x4(%esp)
    496f:	89 04 24             	mov    %eax,(%esp)
    4972:	ff 92 84 00 00 00    	call   *0x84(%edx)
    4978:	8b 55 dc             	mov    -0x24(%ebp),%edx
    497b:	89 44 24 04          	mov    %eax,0x4(%esp)
    497f:	8b 45 10             	mov    0x10(%ebp),%eax
    4982:	89 54 24 08          	mov    %edx,0x8(%esp)
    4986:	89 04 24             	mov    %eax,(%esp)
    4989:	e8 52 56 01 00       	call   19fe0 <async_answer_1>
    498e:	89 1c 24             	mov    %ebx,(%esp)
    4991:	e8 da 2b 01 00       	call   17570 <free>
    4996:	83 c4 4c             	add    $0x4c,%esp
    4999:	5b                   	pop    %ebx
    499a:	5e                   	pop    %esi
    499b:	5f                   	pop    %edi
    499c:	5d                   	pop    %ebp
    499d:	c3                   	ret    
    499e:	66 90                	xchg   %ax,%ax
    49a0:	8d 45 e4             	lea    -0x1c(%ebp),%eax
    49a3:	89 44 24 04          	mov    %eax,0x4(%esp)
    49a7:	8d 45 e0             	lea    -0x20(%ebp),%eax
    49aa:	89 04 24             	mov    %eax,(%esp)
    49ad:	e8 5e 6b 01 00       	call   1b510 <async_data_read_receive>
    49b2:	84 c0                	test   %al,%al
    49b4:	74 3a                	je     49f0 <remote_nic_wol_virtue_list+0x150>
    49b6:	8b 55 dc             	mov    -0x24(%ebp),%edx
    49b9:	8b 45 e4             	mov    -0x1c(%ebp),%eax
    49bc:	c1 e2 02             	shl    $0x2,%edx
    49bf:	39 c2                	cmp    %eax,%edx
    49c1:	73 05                	jae    49c8 <remote_nic_wol_virtue_list+0x128>
    49c3:	89 55 e4             	mov    %edx,-0x1c(%ebp)
    49c6:	89 d0                	mov    %edx,%eax
    49c8:	39 45 d4             	cmp    %eax,-0x2c(%ebp)
    49cb:	73 08                	jae    49d5 <remote_nic_wol_virtue_list+0x135>
    49cd:	8b 55 d4             	mov    -0x2c(%ebp),%edx
    49d0:	89 55 e4             	mov    %edx,-0x1c(%ebp)
    49d3:	89 d0                	mov    %edx,%eax
    49d5:	89 44 24 08          	mov    %eax,0x8(%esp)
    49d9:	8b 45 e0             	mov    -0x20(%ebp),%eax
    49dc:	89 5c 24 04          	mov    %ebx,0x4(%esp)
    49e0:	89 04 24             	mov    %eax,(%esp)
    49e3:	e8 88 6b 01 00       	call   1b570 <async_data_read_finalize>
    49e8:	8b 55 dc             	mov    -0x24(%ebp),%edx
    49eb:	eb 8e                	jmp    497b <remote_nic_wol_virtue_list+0xdb>
    49ed:	8d 76 00             	lea    0x0(%esi),%esi
    49f0:	8b 45 e0             	mov    -0x20(%ebp),%eax
    49f3:	c7 44 24 04 f2 ff ff 	movl   $0xfffffff2,0x4(%esp)
    49fa:	ff 
    49fb:	89 04 24             	mov    %eax,(%esp)
    49fe:	e8 9d 55 01 00       	call   19fa0 <async_answer_0>
    4a03:	8b 55 10             	mov    0x10(%ebp),%edx
    4a06:	c7 44 24 04 f2 ff ff 	movl   $0xfffffff2,0x4(%esp)
    4a0d:	ff 
    4a0e:	89 14 24             	mov    %edx,(%esp)
    4a11:	e8 8a 55 01 00       	call   19fa0 <async_answer_0>
    4a16:	89 1c 24             	mov    %ebx,(%esp)
    4a19:	e8 52 2b 01 00       	call   17570 <free>
    4a1e:	e9 73 ff ff ff       	jmp    4996 <remote_nic_wol_virtue_list+0xf6>
    4a23:	90                   	nop
    4a24:	8d 74 26 00          	lea    0x0(%esi,%eiz,1),%esi
    4a28:	8b 45 10             	mov    0x10(%ebp),%eax
    4a2b:	c7 44 24 04 f5 ff ff 	movl   $0xfffffff5,0x4(%esp)
    4a32:	ff 
    4a33:	89 04 24             	mov    %eax,(%esp)
    4a36:	e8 65 55 01 00       	call   19fa0 <async_answer_0>
    4a3b:	e9 56 ff ff ff       	jmp    4996 <remote_nic_wol_virtue_list+0xf6>
    4a40:	8b 45 10             	mov    0x10(%ebp),%eax
    4a43:	c7 44 24 04 fe ff ff 	movl   $0xfffffffe,0x4(%esp)
    4a4a:	ff 
    4a4b:	89 04 24             	mov    %eax,(%esp)
    4a4e:	e8 4d 55 01 00       	call   19fa0 <async_answer_0>
    4a53:	e9 3e ff ff ff       	jmp    4996 <remote_nic_wol_virtue_list+0xf6>
    4a58:	90                   	nop
    4a59:	8d b4 26 00 00 00 00 	lea    0x0(%esi,%eiz,1),%esi

00004a60 <remote_nic_wol_virtue_probe>:
    4a60:	55                   	push   %ebp
    4a61:	89 e5                	mov    %esp,%ebp
    4a63:	57                   	push   %edi
    4a64:	56                   	push   %esi
    4a65:	53                   	push   %ebx
    4a66:	83 ec 4c             	sub    $0x4c,%esp
    4a69:	8b 75 0c             	mov    0xc(%ebp),%esi
    4a6c:	8b 45 14             	mov    0x14(%ebp),%eax
    4a6f:	8b 96 80 00 00 00    	mov    0x80(%esi),%edx
    4a75:	85 d2                	test   %edx,%edx
    4a77:	0f 84 83 01 00 00    	je     4c00 <remote_nic_wol_virtue_probe+0x1a0>
    4a7d:	8b 50 08             	mov    0x8(%eax),%edx
    4a80:	8b 78 0c             	mov    0xc(%eax),%edi
    4a83:	89 55 d4             	mov    %edx,-0x2c(%ebp)
    4a86:	c7 45 d8 00 00 00 00 	movl   $0x0,-0x28(%ebp)
    4a8d:	c7 45 dc 00 00 00 00 	movl   $0x0,-0x24(%ebp)
    4a94:	85 ff                	test   %edi,%edi
    4a96:	0f 85 84 00 00 00    	jne    4b20 <remote_nic_wol_virtue_probe+0xc0>
    4a9c:	c7 44 24 08 00 00 00 	movl   $0x0,0x8(%esp)
    4aa3:	00 
    4aa4:	c7 44 24 04 00 00 00 	movl   $0x0,0x4(%esp)
    4aab:	00 
    4aac:	c7 04 24 00 00 00 00 	movl   $0x0,(%esp)
    4ab3:	31 db                	xor    %ebx,%ebx
    4ab5:	e8 66 54 00 00       	call   9f20 <memset>
    4aba:	8d 45 dc             	lea    -0x24(%ebp),%eax
    4abd:	89 44 24 14          	mov    %eax,0x14(%esp)
    4ac1:	8d 45 d8             	lea    -0x28(%ebp),%eax
    4ac4:	8b 55 d4             	mov    -0x2c(%ebp),%edx
    4ac7:	89 44 24 08          	mov    %eax,0x8(%esp)
    4acb:	8b 45 08             	mov    0x8(%ebp),%eax
    4ace:	89 54 24 04          	mov    %edx,0x4(%esp)
    4ad2:	c7 44 24 10 00 00 00 	movl   $0x0,0x10(%esp)
    4ad9:	00 
    4ada:	c7 44 24 0c 00 00 00 	movl   $0x0,0xc(%esp)
    4ae1:	00 
    4ae2:	89 04 24             	mov    %eax,(%esp)
    4ae5:	ff 96 80 00 00 00    	call   *0x80(%esi)
    4aeb:	8b 55 dc             	mov    -0x24(%ebp),%edx
    4aee:	89 c6                	mov    %eax,%esi
    4af0:	8b 45 d8             	mov    -0x28(%ebp),%eax
    4af3:	89 54 24 0c          	mov    %edx,0xc(%esp)
    4af7:	89 44 24 08          	mov    %eax,0x8(%esp)
    4afb:	8b 45 10             	mov    0x10(%ebp),%eax
    4afe:	89 74 24 04          	mov    %esi,0x4(%esp)
    4b02:	89 04 24             	mov    %eax,(%esp)
    4b05:	e8 16 55 01 00       	call   1a020 <async_answer_2>
    4b0a:	89 1c 24             	mov    %ebx,(%esp)
    4b0d:	e8 5e 2a 01 00       	call   17570 <free>
    4b12:	83 c4 4c             	add    $0x4c,%esp
    4b15:	5b                   	pop    %ebx
    4b16:	5e                   	pop    %esi
    4b17:	5f                   	pop    %edi
    4b18:	5d                   	pop    %ebp
    4b19:	c3                   	ret    
    4b1a:	8d b6 00 00 00 00    	lea    0x0(%esi),%esi
    4b20:	89 3c 24             	mov    %edi,(%esp)
    4b23:	e8 38 29 01 00       	call   17460 <malloc>
    4b28:	89 c3                	mov    %eax,%ebx
    4b2a:	85 c0                	test   %eax,%eax
    4b2c:	0f 84 e6 00 00 00    	je     4c18 <remote_nic_wol_virtue_probe+0x1b8>
    4b32:	89 7c 24 08          	mov    %edi,0x8(%esp)
    4b36:	c7 44 24 04 00 00 00 	movl   $0x0,0x4(%esp)
    4b3d:	00 
    4b3e:	89 04 24             	mov    %eax,(%esp)
    4b41:	e8 da 53 00 00       	call   9f20 <memset>
    4b46:	8d 45 dc             	lea    -0x24(%ebp),%eax
    4b49:	89 44 24 14          	mov    %eax,0x14(%esp)
    4b4d:	8d 45 d8             	lea    -0x28(%ebp),%eax
    4b50:	8b 55 d4             	mov    -0x2c(%ebp),%edx
    4b53:	89 44 24 08          	mov    %eax,0x8(%esp)
    4b57:	8b 45 08             	mov    0x8(%ebp),%eax
    4b5a:	89 54 24 04          	mov    %edx,0x4(%esp)
    4b5e:	89 5c 24 10          	mov    %ebx,0x10(%esp)
    4b62:	89 7c 24 0c          	mov    %edi,0xc(%esp)
    4b66:	89 04 24             	mov    %eax,(%esp)
    4b69:	ff 96 80 00 00 00    	call   *0x80(%esi)
    4b6f:	31 d2                	xor    %edx,%edx
    4b71:	89 c6                	mov    %eax,%esi
    4b73:	8b 45 dc             	mov    -0x24(%ebp),%eax
    4b76:	85 c0                	test   %eax,%eax
    4b78:	0f 84 72 ff ff ff    	je     4af0 <remote_nic_wol_virtue_probe+0x90>
    4b7e:	8d 45 e4             	lea    -0x1c(%ebp),%eax
    4b81:	89 44 24 04          	mov    %eax,0x4(%esp)
    4b85:	8d 45 e0             	lea    -0x20(%ebp),%eax
    4b88:	89 04 24             	mov    %eax,(%esp)
    4b8b:	e8 80 69 01 00       	call   1b510 <async_data_read_receive>
    4b90:	84 c0                	test   %al,%al
    4b92:	74 34                	je     4bc8 <remote_nic_wol_virtue_probe+0x168>
    4b94:	8b 45 e4             	mov    -0x1c(%ebp),%eax
    4b97:	8b 4d dc             	mov    -0x24(%ebp),%ecx
    4b9a:	39 c8                	cmp    %ecx,%eax
    4b9c:	76 05                	jbe    4ba3 <remote_nic_wol_virtue_probe+0x143>
    4b9e:	89 4d e4             	mov    %ecx,-0x1c(%ebp)
    4ba1:	89 c8                	mov    %ecx,%eax
    4ba3:	39 c7                	cmp    %eax,%edi
    4ba5:	73 05                	jae    4bac <remote_nic_wol_virtue_probe+0x14c>
    4ba7:	89 7d e4             	mov    %edi,-0x1c(%ebp)
    4baa:	89 f8                	mov    %edi,%eax
    4bac:	89 44 24 08          	mov    %eax,0x8(%esp)
    4bb0:	8b 45 e0             	mov    -0x20(%ebp),%eax
    4bb3:	89 5c 24 04          	mov    %ebx,0x4(%esp)
    4bb7:	89 04 24             	mov    %eax,(%esp)
    4bba:	e8 b1 69 01 00       	call   1b570 <async_data_read_finalize>
    4bbf:	8b 55 dc             	mov    -0x24(%ebp),%edx
    4bc2:	e9 29 ff ff ff       	jmp    4af0 <remote_nic_wol_virtue_probe+0x90>
    4bc7:	90                   	nop
    4bc8:	8b 45 e0             	mov    -0x20(%ebp),%eax
    4bcb:	c7 44 24 04 f2 ff ff 	movl   $0xfffffff2,0x4(%esp)
    4bd2:	ff 
    4bd3:	89 04 24             	mov    %eax,(%esp)
    4bd6:	e8 c5 53 01 00       	call   19fa0 <async_answer_0>
    4bdb:	8b 55 10             	mov    0x10(%ebp),%edx
    4bde:	c7 44 24 04 f2 ff ff 	movl   $0xfffffff2,0x4(%esp)
    4be5:	ff 
    4be6:	89 14 24             	mov    %edx,(%esp)
    4be9:	e8 b2 53 01 00       	call   19fa0 <async_answer_0>
    4bee:	89 1c 24             	mov    %ebx,(%esp)
    4bf1:	e8 7a 29 01 00       	call   17570 <free>
    4bf6:	e9 17 ff ff ff       	jmp    4b12 <remote_nic_wol_virtue_probe+0xb2>
    4bfb:	90                   	nop
    4bfc:	8d 74 26 00          	lea    0x0(%esi,%eiz,1),%esi
    4c00:	8b 45 10             	mov    0x10(%ebp),%eax
    4c03:	c7 44 24 04 f5 ff ff 	movl   $0xfffffff5,0x4(%esp)
    4c0a:	ff 
    4c0b:	89 04 24             	mov    %eax,(%esp)
    4c0e:	e8 8d 53 01 00       	call   19fa0 <async_answer_0>
    4c13:	e9 fa fe ff ff       	jmp    4b12 <remote_nic_wol_virtue_probe+0xb2>
    4c18:	8b 45 10             	mov    0x10(%ebp),%eax
    4c1b:	c7 44 24 04 fe ff ff 	movl   $0xfffffffe,0x4(%esp)
    4c22:	ff 
    4c23:	89 04 24             	mov    %eax,(%esp)
    4c26:	e8 75 53 01 00       	call   19fa0 <async_answer_0>
    4c2b:	e9 e2 fe ff ff       	jmp    4b12 <remote_nic_wol_virtue_probe+0xb2>

00004c30 <remote_nic_wol_virtue_add>:
    4c30:	55                   	push   %ebp
    4c31:	89 e5                	mov    %esp,%ebp
    4c33:	57                   	push   %edi
    4c34:	56                   	push   %esi
    4c35:	53                   	push   %ebx
    4c36:	83 ec 3c             	sub    $0x3c,%esp
    4c39:	8b 55 0c             	mov    0xc(%ebp),%edx
    4c3c:	8b 75 14             	mov    0x14(%ebp),%esi
    4c3f:	8b 4a 78             	mov    0x78(%edx),%ecx
    4c42:	8b 5e 0c             	mov    0xc(%esi),%ebx
    4c45:	85 c9                	test   %ecx,%ecx
    4c47:	0f 84 0b 01 00 00    	je     4d58 <remote_nic_wol_virtue_add+0x128>
    4c4d:	c7 45 e0 00 00 00 00 	movl   $0x0,-0x20(%ebp)
    4c54:	85 db                	test   %ebx,%ebx
    4c56:	0f 84 cc 00 00 00    	je     4d28 <remote_nic_wol_virtue_add+0xf8>
    4c5c:	8d 45 e0             	lea    -0x20(%ebp),%eax
    4c5f:	89 44 24 04          	mov    %eax,0x4(%esp)
    4c63:	8d 45 dc             	lea    -0x24(%ebp),%eax
    4c66:	89 04 24             	mov    %eax,(%esp)
    4c69:	e8 c2 6d 01 00       	call   1ba30 <async_data_write_receive>
    4c6e:	84 c0                	test   %al,%al
    4c70:	75 2e                	jne    4ca0 <remote_nic_wol_virtue_add+0x70>
    4c72:	8b 45 dc             	mov    -0x24(%ebp),%eax
    4c75:	c7 44 24 04 f2 ff ff 	movl   $0xfffffff2,0x4(%esp)
    4c7c:	ff 
    4c7d:	89 04 24             	mov    %eax,(%esp)
    4c80:	e8 1b 53 01 00       	call   19fa0 <async_answer_0>
    4c85:	8b 55 10             	mov    0x10(%ebp),%edx
    4c88:	c7 44 24 04 f2 ff ff 	movl   $0xfffffff2,0x4(%esp)
    4c8f:	ff 
    4c90:	89 14 24             	mov    %edx,(%esp)
    4c93:	e8 08 53 01 00       	call   19fa0 <async_answer_0>
    4c98:	83 c4 3c             	add    $0x3c,%esp
    4c9b:	5b                   	pop    %ebx
    4c9c:	5e                   	pop    %esi
    4c9d:	5f                   	pop    %edi
    4c9e:	5d                   	pop    %ebp
    4c9f:	c3                   	ret    
    4ca0:	8b 45 e0             	mov    -0x20(%ebp),%eax
    4ca3:	89 04 24             	mov    %eax,(%esp)
    4ca6:	e8 b5 27 01 00       	call   17460 <malloc>
    4cab:	89 c3                	mov    %eax,%ebx
    4cad:	89 c7                	mov    %eax,%edi
    4caf:	85 c0                	test   %eax,%eax
    4cb1:	0f 84 c1 00 00 00    	je     4d78 <remote_nic_wol_virtue_add+0x148>
    4cb7:	8b 45 e0             	mov    -0x20(%ebp),%eax
    4cba:	89 5c 24 04          	mov    %ebx,0x4(%esp)
    4cbe:	89 44 24 08          	mov    %eax,0x8(%esp)
    4cc2:	8b 45 dc             	mov    -0x24(%ebp),%eax
    4cc5:	89 04 24             	mov    %eax,(%esp)
    4cc8:	e8 b3 6d 01 00       	call   1ba80 <async_data_write_finalize>
    4ccd:	85 c0                	test   %eax,%eax
    4ccf:	75 5f                	jne    4d30 <remote_nic_wol_virtue_add+0x100>
    4cd1:	8d 45 e4             	lea    -0x1c(%ebp),%eax
    4cd4:	89 7c 24 08          	mov    %edi,0x8(%esp)
    4cd8:	89 44 24 10          	mov    %eax,0x10(%esp)
    4cdc:	8b 45 e0             	mov    -0x20(%ebp),%eax
    4cdf:	89 44 24 0c          	mov    %eax,0xc(%esp)
    4ce3:	8b 55 0c             	mov    0xc(%ebp),%edx
    4ce6:	8b 46 08             	mov    0x8(%esi),%eax
    4ce9:	c7 45 e4 00 00 00 00 	movl   $0x0,-0x1c(%ebp)
    4cf0:	89 44 24 04          	mov    %eax,0x4(%esp)
    4cf4:	8b 45 08             	mov    0x8(%ebp),%eax
    4cf7:	89 04 24             	mov    %eax,(%esp)
    4cfa:	ff 52 78             	call   *0x78(%edx)
    4cfd:	8b 4d e4             	mov    -0x1c(%ebp),%ecx
    4d00:	8b 55 10             	mov    0x10(%ebp),%edx
    4d03:	89 4c 24 08          	mov    %ecx,0x8(%esp)
    4d07:	89 14 24             	mov    %edx,(%esp)
    4d0a:	89 44 24 04          	mov    %eax,0x4(%esp)
    4d0e:	e8 cd 52 01 00       	call   19fe0 <async_answer_1>
    4d13:	89 3c 24             	mov    %edi,(%esp)
    4d16:	e8 55 28 01 00       	call   17570 <free>
    4d1b:	83 c4 3c             	add    $0x3c,%esp
    4d1e:	5b                   	pop    %ebx
    4d1f:	5e                   	pop    %esi
    4d20:	5f                   	pop    %edi
    4d21:	5d                   	pop    %ebp
    4d22:	c3                   	ret    
    4d23:	90                   	nop
    4d24:	8d 74 26 00          	lea    0x0(%esi,%eiz,1),%esi
    4d28:	31 ff                	xor    %edi,%edi
    4d2a:	eb a5                	jmp    4cd1 <remote_nic_wol_virtue_add+0xa1>
    4d2c:	8d 74 26 00          	lea    0x0(%esi,%eiz,1),%esi
    4d30:	8b 55 10             	mov    0x10(%ebp),%edx
    4d33:	c7 44 24 04 f2 ff ff 	movl   $0xfffffff2,0x4(%esp)
    4d3a:	ff 
    4d3b:	89 14 24             	mov    %edx,(%esp)
    4d3e:	e8 5d 52 01 00       	call   19fa0 <async_answer_0>
    4d43:	89 1c 24             	mov    %ebx,(%esp)
    4d46:	e8 25 28 01 00       	call   17570 <free>
    4d4b:	83 c4 3c             	add    $0x3c,%esp
    4d4e:	5b                   	pop    %ebx
    4d4f:	5e                   	pop    %esi
    4d50:	5f                   	pop    %edi
    4d51:	5d                   	pop    %ebp
    4d52:	c3                   	ret    
    4d53:	90                   	nop
    4d54:	8d 74 26 00          	lea    0x0(%esi,%eiz,1),%esi
    4d58:	85 db                	test   %ebx,%ebx
    4d5a:	75 4c                	jne    4da8 <remote_nic_wol_virtue_add+0x178>
    4d5c:	8b 55 10             	mov    0x10(%ebp),%edx
    4d5f:	c7 44 24 04 f5 ff ff 	movl   $0xfffffff5,0x4(%esp)
    4d66:	ff 
    4d67:	89 14 24             	mov    %edx,(%esp)
    4d6a:	e8 31 52 01 00       	call   19fa0 <async_answer_0>
    4d6f:	e9 d9 fe ff ff       	jmp    4c4d <remote_nic_wol_virtue_add+0x1d>
    4d74:	8d 74 26 00          	lea    0x0(%esi,%eiz,1),%esi
    4d78:	8b 45 dc             	mov    -0x24(%ebp),%eax
    4d7b:	c7 44 24 04 fe ff ff 	movl   $0xfffffffe,0x4(%esp)
    4d82:	ff 
    4d83:	89 04 24             	mov    %eax,(%esp)
    4d86:	e8 15 52 01 00       	call   19fa0 <async_answer_0>
    4d8b:	8b 55 10             	mov    0x10(%ebp),%edx
    4d8e:	c7 44 24 04 fe ff ff 	movl   $0xfffffffe,0x4(%esp)
    4d95:	ff 
    4d96:	89 14 24             	mov    %edx,(%esp)
    4d99:	e8 02 52 01 00       	call   19fa0 <async_answer_0>
    4d9e:	e9 f5 fe ff ff       	jmp    4c98 <remote_nic_wol_virtue_add+0x68>
    4da3:	90                   	nop
    4da4:	8d 74 26 00          	lea    0x0(%esi,%eiz,1),%esi
    4da8:	8d 45 dc             	lea    -0x24(%ebp),%eax
    4dab:	c7 44 24 04 00 00 00 	movl   $0x0,0x4(%esp)
    4db2:	00 
    4db3:	89 04 24             	mov    %eax,(%esp)
    4db6:	e8 75 6c 01 00       	call   1ba30 <async_data_write_receive>
    4dbb:	8b 45 dc             	mov    -0x24(%ebp),%eax
    4dbe:	c7 44 24 04 f5 ff ff 	movl   $0xfffffff5,0x4(%esp)
    4dc5:	ff 
    4dc6:	89 04 24             	mov    %eax,(%esp)
    4dc9:	e8 d2 51 01 00       	call   19fa0 <async_answer_0>
    4dce:	eb 8c                	jmp    4d5c <remote_nic_wol_virtue_add+0x12c>

00004dd0 <remote_nic_blocked_sources_set>:
    4dd0:	55                   	push   %ebp
    4dd1:	89 e5                	mov    %esp,%ebp
    4dd3:	57                   	push   %edi
    4dd4:	56                   	push   %esi
    4dd5:	53                   	push   %ebx
    4dd6:	83 ec 2c             	sub    $0x2c,%esp
    4dd9:	31 f6                	xor    %esi,%esi
    4ddb:	8b 45 14             	mov    0x14(%ebp),%eax
    4dde:	8b 58 08             	mov    0x8(%eax),%ebx
    4de1:	85 db                	test   %ebx,%ebx
    4de3:	75 43                	jne    4e28 <remote_nic_blocked_sources_set+0x58>
    4de5:	8b 45 0c             	mov    0xc(%ebp),%eax
    4de8:	8b 40 68             	mov    0x68(%eax),%eax
    4deb:	85 c0                	test   %eax,%eax
    4ded:	0f 84 e5 00 00 00    	je     4ed8 <remote_nic_blocked_sources_set+0x108>
    4df3:	8b 55 08             	mov    0x8(%ebp),%edx
    4df6:	89 5c 24 08          	mov    %ebx,0x8(%esp)
    4dfa:	89 74 24 04          	mov    %esi,0x4(%esp)
    4dfe:	89 14 24             	mov    %edx,(%esp)
    4e01:	ff d0                	call   *%eax
    4e03:	89 44 24 04          	mov    %eax,0x4(%esp)
    4e07:	8b 45 10             	mov    0x10(%ebp),%eax
    4e0a:	89 04 24             	mov    %eax,(%esp)
    4e0d:	e8 8e 51 01 00       	call   19fa0 <async_answer_0>
    4e12:	89 34 24             	mov    %esi,(%esp)
    4e15:	e8 56 27 01 00       	call   17570 <free>
    4e1a:	83 c4 2c             	add    $0x2c,%esp
    4e1d:	5b                   	pop    %ebx
    4e1e:	5e                   	pop    %esi
    4e1f:	5f                   	pop    %edi
    4e20:	5d                   	pop    %ebp
    4e21:	c3                   	ret    
    4e22:	8d b6 00 00 00 00    	lea    0x0(%esi),%esi
    4e28:	8d 45 e0             	lea    -0x20(%ebp),%eax
    4e2b:	89 44 24 04          	mov    %eax,0x4(%esp)
    4e2f:	8d 45 e4             	lea    -0x1c(%ebp),%eax
    4e32:	89 04 24             	mov    %eax,(%esp)
    4e35:	e8 f6 6b 01 00       	call   1ba30 <async_data_write_receive>
    4e3a:	84 c0                	test   %al,%al
    4e3c:	0f 84 ae 00 00 00    	je     4ef0 <remote_nic_blocked_sources_set+0x120>
    4e42:	8d 04 5b             	lea    (%ebx,%ebx,2),%eax
    4e45:	01 c0                	add    %eax,%eax
    4e47:	3b 45 e0             	cmp    -0x20(%ebp),%eax
