
redir:     file format elf32-i386


Disassembly of section .init:

00001094 <__entry>:
    1094:	66 8c d0             	mov    %ss,%ax
    1097:	8e d8                	mov    %eax,%ds
    1099:	8e c0                	mov    %eax,%es
    109b:	8e e0                	mov    %eax,%fs
    109d:	b8 01 00 00 00       	mov    $0x1,%eax
    10a2:	0f a2                	cpuid  
    10a4:	0f ba e2 0b          	bt     $0xb,%edx
    10a8:	73 0c                	jae    10b6 <__entry+0x22>
    10aa:	8d 05 14 09 02 00    	lea    0x20914,%eax
    10b0:	c7 00 c7 6e 01 00    	movl   $0x16ec7,(%eax)
    10b6:	6a 00                	push   $0x0
    10b8:	89 e5                	mov    %esp,%ebp
    10ba:	57                   	push   %edi
    10bb:	e8 c0 04 00 00       	call   1580 <__main>

Disassembly of section .text:

000010c0 <usage>:
    10c0:	55                   	push   %ebp
    10c1:	89 e5                	mov    %esp,%ebp
    10c3:	83 ec 18             	sub    $0x18,%esp
    10c6:	a1 b0 09 02 00       	mov    0x209b0,%eax
    10cb:	c7 44 24 08 c2 db 01 	movl   $0x1dbc2,0x8(%esp)
    10d2:	00 
    10d3:	c7 44 24 04 08 dc 01 	movl   $0x1dc08,0x4(%esp)
    10da:	00 
    10db:	89 04 24             	mov    %eax,(%esp)
    10de:	e8 7d 6b 00 00       	call   7c60 <fprintf>
    10e3:	c9                   	leave  
    10e4:	c3                   	ret    
    10e5:	66 90                	xchg   %ax,%ax
    10e7:	66 90                	xchg   %ax,%ax
    10e9:	66 90                	xchg   %ax,%ax
    10eb:	66 90                	xchg   %ax,%ax
    10ed:	66 90                	xchg   %ax,%ax
    10ef:	90                   	nop

000010f0 <main>:
    10f0:	55                   	push   %ebp
    10f1:	89 e5                	mov    %esp,%ebp
    10f3:	57                   	push   %edi
    10f4:	56                   	push   %esi
    10f5:	53                   	push   %ebx
    10f6:	83 e4 f0             	and    $0xfffffff0,%esp
    10f9:	83 ec 30             	sub    $0x30,%esp
    10fc:	8b 7d 0c             	mov    0xc(%ebp),%edi
    10ff:	83 7d 08 02          	cmpl   $0x2,0x8(%ebp)
    1103:	0f 8e 96 03 00 00    	jle    149f <main+0x3af>
    1109:	bb 01 00 00 00       	mov    $0x1,%ebx
    110e:	eb 2c                	jmp    113c <main+0x4c>
    1110:	43                   	inc    %ebx
    1111:	39 5d 08             	cmp    %ebx,0x8(%ebp)
    1114:	0f 8e 08 03 00 00    	jle    1422 <main+0x332>
    111a:	a1 b8 09 02 00       	mov    0x209b8,%eax
    111f:	8b 34 9f             	mov    (%edi,%ebx,4),%esi
    1122:	89 04 24             	mov    %eax,(%esp)
    1125:	e8 f6 4e 00 00       	call   6020 <fclose>
    112a:	85 c0                	test   %eax,%eax
    112c:	0f 84 c6 00 00 00    	je     11f8 <main+0x108>
    1132:	43                   	inc    %ebx
    1133:	39 5d 08             	cmp    %ebx,0x8(%ebp)
    1136:	0f 8e 2e 01 00 00    	jle    126a <main+0x17a>
    113c:	8d 34 9f             	lea    (%edi,%ebx,4),%esi
    113f:	c7 44 24 04 c8 db 01 	movl   $0x1dbc8,0x4(%esp)
    1146:	00 
    1147:	8b 06                	mov    (%esi),%eax
    1149:	89 04 24             	mov    %eax,(%esp)
    114c:	e8 cf 12 00 00       	call   2420 <str_cmp>
    1151:	85 c0                	test   %eax,%eax
    1153:	74 bb                	je     1110 <main+0x20>
    1155:	c7 44 24 04 cb db 01 	movl   $0x1dbcb,0x4(%esp)
    115c:	00 
    115d:	8b 06                	mov    (%esi),%eax
    115f:	89 04 24             	mov    %eax,(%esp)
    1162:	e8 b9 12 00 00       	call   2420 <str_cmp>
    1167:	85 c0                	test   %eax,%eax
    1169:	0f 85 11 01 00 00    	jne    1280 <main+0x190>
    116f:	43                   	inc    %ebx
    1170:	39 5d 08             	cmp    %ebx,0x8(%ebp)
    1173:	0f 8e b8 02 00 00    	jle    1431 <main+0x341>
    1179:	a1 b4 09 02 00       	mov    0x209b4,%eax
    117e:	8b 34 9f             	mov    (%edi,%ebx,4),%esi
    1181:	89 04 24             	mov    %eax,(%esp)
    1184:	e8 97 4e 00 00       	call   6020 <fclose>
    1189:	85 c0                	test   %eax,%eax
    118b:	75 a5                	jne    1132 <main+0x42>
    118d:	89 34 24             	mov    %esi,(%esp)
    1190:	c7 44 24 04 41 00 00 	movl   $0x41,0x4(%esp)
    1197:	00 
    1198:	c7 05 b4 09 02 00 00 	movl   $0x0,0x209b4
    119f:	00 00 00 
    11a2:	e8 d9 3d 01 00       	call   14f80 <open>
    11a7:	89 c6                	mov    %eax,%esi
    11a9:	85 c0                	test   %eax,%eax
    11ab:	78 85                	js     1132 <main+0x42>
    11ad:	83 f8 01             	cmp    $0x1,%eax
    11b0:	74 27                	je     11d9 <main+0xe9>
    11b2:	c7 44 24 04 01 00 00 	movl   $0x1,0x4(%esp)
    11b9:	00 
    11ba:	89 04 24             	mov    %eax,(%esp)
    11bd:	e8 7e 55 01 00       	call   16740 <dup2>
    11c2:	48                   	dec    %eax
    11c3:	0f 85 69 ff ff ff    	jne    1132 <main+0x42>
    11c9:	89 34 24             	mov    %esi,(%esp)
    11cc:	e8 ef 3e 01 00       	call   150c0 <close>
    11d1:	85 c0                	test   %eax,%eax
    11d3:	0f 85 59 ff ff ff    	jne    1132 <main+0x42>
    11d9:	c7 44 24 04 ce db 01 	movl   $0x1dbce,0x4(%esp)
    11e0:	00 
    11e1:	c7 04 24 01 00 00 00 	movl   $0x1,(%esp)
    11e8:	e8 33 4d 00 00       	call   5f20 <fdopen>
    11ed:	a3 b4 09 02 00       	mov    %eax,0x209b4
    11f2:	e9 3b ff ff ff       	jmp    1132 <main+0x42>
    11f7:	90                   	nop
    11f8:	89 34 24             	mov    %esi,(%esp)
    11fb:	c7 44 24 04 10 00 00 	movl   $0x10,0x4(%esp)
    1202:	00 
    1203:	c7 05 b8 09 02 00 00 	movl   $0x0,0x209b8
    120a:	00 00 00 
    120d:	e8 6e 3d 01 00       	call   14f80 <open>
    1212:	89 c6                	mov    %eax,%esi
    1214:	83 f8 00             	cmp    $0x0,%eax
    1217:	0f 8c 15 ff ff ff    	jl     1132 <main+0x42>
    121d:	74 28                	je     1247 <main+0x157>
    121f:	c7 44 24 04 00 00 00 	movl   $0x0,0x4(%esp)
    1226:	00 
    1227:	89 04 24             	mov    %eax,(%esp)
    122a:	e8 11 55 01 00       	call   16740 <dup2>
    122f:	85 c0                	test   %eax,%eax
    1231:	0f 85 fb fe ff ff    	jne    1132 <main+0x42>
    1237:	89 34 24             	mov    %esi,(%esp)
    123a:	e8 81 3e 01 00       	call   150c0 <close>
    123f:	85 c0                	test   %eax,%eax
    1241:	0f 85 eb fe ff ff    	jne    1132 <main+0x42>
    1247:	c7 44 24 04 eb eb 01 	movl   $0x1ebeb,0x4(%esp)
    124e:	00 
    124f:	c7 04 24 00 00 00 00 	movl   $0x0,(%esp)
    1256:	e8 c5 4c 00 00       	call   5f20 <fdopen>
    125b:	43                   	inc    %ebx
    125c:	a3 b8 09 02 00       	mov    %eax,0x209b8
    1261:	39 5d 08             	cmp    %ebx,0x8(%ebp)
    1264:	0f 8f d2 fe ff ff    	jg     113c <main+0x4c>
    126a:	e8 51 fe ff ff       	call   10c0 <usage>
    126f:	b8 fb ff ff ff       	mov    $0xfffffffb,%eax
    1274:	8d 65 f4             	lea    -0xc(%ebp),%esp
    1277:	5b                   	pop    %ebx
    1278:	5e                   	pop    %esi
    1279:	5f                   	pop    %edi
    127a:	5d                   	pop    %ebp
    127b:	c3                   	ret    
    127c:	8d 74 26 00          	lea    0x0(%esi,%eiz,1),%esi
    1280:	c7 44 24 04 d0 db 01 	movl   $0x1dbd0,0x4(%esp)
    1287:	00 
    1288:	8b 06                	mov    (%esi),%eax
    128a:	89 04 24             	mov    %eax,(%esp)
    128d:	e8 8e 11 00 00       	call   2420 <str_cmp>
    1292:	85 c0                	test   %eax,%eax
    1294:	0f 85 92 00 00 00    	jne    132c <main+0x23c>
    129a:	43                   	inc    %ebx
    129b:	39 5d 08             	cmp    %ebx,0x8(%ebp)
    129e:	0f 8e d5 01 00 00    	jle    1479 <main+0x389>
    12a4:	a1 b0 09 02 00       	mov    0x209b0,%eax
    12a9:	8b 34 9f             	mov    (%edi,%ebx,4),%esi
    12ac:	89 04 24             	mov    %eax,(%esp)
    12af:	e8 6c 4d 00 00       	call   6020 <fclose>
    12b4:	85 c0                	test   %eax,%eax
    12b6:	0f 85 76 fe ff ff    	jne    1132 <main+0x42>
    12bc:	89 34 24             	mov    %esi,(%esp)
    12bf:	c7 44 24 04 41 00 00 	movl   $0x41,0x4(%esp)
    12c6:	00 
    12c7:	c7 05 b0 09 02 00 00 	movl   $0x0,0x209b0
    12ce:	00 00 00 
    12d1:	e8 aa 3c 01 00       	call   14f80 <open>
    12d6:	89 c6                	mov    %eax,%esi
    12d8:	85 c0                	test   %eax,%eax
    12da:	0f 88 52 fe ff ff    	js     1132 <main+0x42>
    12e0:	83 f8 02             	cmp    $0x2,%eax
    12e3:	74 29                	je     130e <main+0x21e>
    12e5:	c7 44 24 04 02 00 00 	movl   $0x2,0x4(%esp)
    12ec:	00 
    12ed:	89 04 24             	mov    %eax,(%esp)
    12f0:	e8 4b 54 01 00       	call   16740 <dup2>
    12f5:	83 f8 02             	cmp    $0x2,%eax
    12f8:	0f 85 34 fe ff ff    	jne    1132 <main+0x42>
    12fe:	89 34 24             	mov    %esi,(%esp)
    1301:	e8 ba 3d 01 00       	call   150c0 <close>
    1306:	85 c0                	test   %eax,%eax
    1308:	0f 85 24 fe ff ff    	jne    1132 <main+0x42>
    130e:	c7 44 24 04 ce db 01 	movl   $0x1dbce,0x4(%esp)
    1315:	00 
    1316:	c7 04 24 02 00 00 00 	movl   $0x2,(%esp)
    131d:	e8 fe 4b 00 00       	call   5f20 <fdopen>
    1322:	a3 b0 09 02 00       	mov    %eax,0x209b0
    1327:	e9 06 fe ff ff       	jmp    1132 <main+0x42>
    132c:	c7 44 24 04 d3 db 01 	movl   $0x1dbd3,0x4(%esp)
    1333:	00 
    1334:	8b 06                	mov    (%esi),%eax
    1336:	89 04 24             	mov    %eax,(%esp)
    1339:	e8 e2 10 00 00       	call   2420 <str_cmp>
    133e:	85 c0                	test   %eax,%eax
    1340:	0f 85 ec fd ff ff    	jne    1132 <main+0x42>
    1346:	43                   	inc    %ebx
    1347:	39 5d 08             	cmp    %ebx,0x8(%ebp)
    134a:	0f 8e 1a ff ff ff    	jle    126a <main+0x17a>
    1350:	a1 b4 09 02 00       	mov    0x209b4,%eax
    1355:	c7 44 24 0c 00 10 00 	movl   $0x1000,0xc(%esp)
    135c:	00 
    135d:	89 04 24             	mov    %eax,(%esp)
    1360:	c7 44 24 08 01 00 00 	movl   $0x1,0x8(%esp)
    1367:	00 
    1368:	c7 44 24 04 00 00 00 	movl   $0x0,0x4(%esp)
    136f:	00 
    1370:	8d 3c 9f             	lea    (%edi,%ebx,4),%edi
    1373:	e8 88 49 00 00       	call   5d00 <setvbuf>
    1378:	8b 75 08             	mov    0x8(%ebp),%esi
    137b:	29 de                	sub    %ebx,%esi
    137d:	c7 44 24 04 04 00 00 	movl   $0x4,0x4(%esp)
    1384:	00 
    1385:	c7 44 24 28 00 00 00 	movl   $0x0,0x28(%esp)
    138c:	00 
    138d:	c7 44 24 2c 00 00 00 	movl   $0x0,0x2c(%esp)
    1394:	00 
    1395:	8d 46 01             	lea    0x1(%esi),%eax
    1398:	89 04 24             	mov    %eax,(%esp)
    139b:	e8 10 b7 00 00       	call   cab0 <calloc>
    13a0:	89 c3                	mov    %eax,%ebx
    13a2:	85 c0                	test   %eax,%eax
    13a4:	0f 84 de 00 00 00    	je     1488 <main+0x398>
    13aa:	31 d2                	xor    %edx,%edx
    13ac:	85 f6                	test   %esi,%esi
    13ae:	7e 0b                	jle    13bb <main+0x2cb>
    13b0:	8b 0c 97             	mov    (%edi,%edx,4),%ecx
    13b3:	89 0c 93             	mov    %ecx,(%ebx,%edx,4)
    13b6:	42                   	inc    %edx
    13b7:	39 f2                	cmp    %esi,%edx
    13b9:	75 f5                	jne    13b0 <main+0x2c0>
    13bb:	c7 04 b3 00 00 00 00 	movl   $0x0,(%ebx,%esi,4)
    13c2:	89 5c 24 08          	mov    %ebx,0x8(%esp)
    13c6:	8b 07                	mov    (%edi),%eax
    13c8:	89 44 24 04          	mov    %eax,0x4(%esp)
    13cc:	8d 44 24 28          	lea    0x28(%esp),%eax
    13d0:	89 04 24             	mov    %eax,(%esp)
    13d3:	e8 d8 3e 00 00       	call   52b0 <task_spawnv>
    13d8:	89 1c 24             	mov    %ebx,(%esp)
    13db:	89 c6                	mov    %eax,%esi
    13dd:	e8 3e b8 00 00       	call   cc20 <free>
    13e2:	85 f6                	test   %esi,%esi
    13e4:	75 5a                	jne    1440 <main+0x350>
    13e6:	8b 54 24 2c          	mov    0x2c(%esp),%edx
    13ea:	8b 4c 24 28          	mov    0x28(%esp),%ecx
    13ee:	89 d3                	mov    %edx,%ebx
    13f0:	b8 fa ff ff ff       	mov    $0xfffffffa,%eax
    13f5:	09 cb                	or     %ecx,%ebx
    13f7:	0f 84 77 fe ff ff    	je     1274 <main+0x184>
    13fd:	8d 44 24 24          	lea    0x24(%esp),%eax
    1401:	89 0c 24             	mov    %ecx,(%esp)
    1404:	89 44 24 0c          	mov    %eax,0xc(%esp)
    1408:	8d 44 24 20          	lea    0x20(%esp),%eax
    140c:	89 44 24 08          	mov    %eax,0x8(%esp)
    1410:	89 54 24 04          	mov    %edx,0x4(%esp)
    1414:	e8 57 41 00 00       	call   5570 <task_wait>
    1419:	8b 44 24 24          	mov    0x24(%esp),%eax
    141d:	e9 52 fe ff ff       	jmp    1274 <main+0x184>
    1422:	e8 99 fc ff ff       	call   10c0 <usage>
    1427:	b8 fe ff ff ff       	mov    $0xfffffffe,%eax
    142c:	e9 43 fe ff ff       	jmp    1274 <main+0x184>
    1431:	e8 8a fc ff ff       	call   10c0 <usage>
    1436:	b8 fd ff ff ff       	mov    $0xfffffffd,%eax
    143b:	e9 34 fe ff ff       	jmp    1274 <main+0x184>
    1440:	89 34 24             	mov    %esi,(%esp)
    1443:	e8 88 33 00 00       	call   47d0 <str_error>
    1448:	89 44 24 10          	mov    %eax,0x10(%esp)
    144c:	8b 07                	mov    (%edi),%eax
    144e:	c7 44 24 08 c2 db 01 	movl   $0x1dbc2,0x8(%esp)
    1455:	00 
    1456:	89 44 24 0c          	mov    %eax,0xc(%esp)
    145a:	a1 b0 09 02 00       	mov    0x209b0,%eax
    145f:	c7 44 24 04 eb db 01 	movl   $0x1dbeb,0x4(%esp)
    1466:	00 
    1467:	89 04 24             	mov    %eax,(%esp)
    146a:	e8 f1 67 00 00       	call   7c60 <fprintf>
    146f:	b8 fa ff ff ff       	mov    $0xfffffffa,%eax
    1474:	e9 fb fd ff ff       	jmp    1274 <main+0x184>
    1479:	e8 42 fc ff ff       	call   10c0 <usage>
    147e:	b8 fc ff ff ff       	mov    $0xfffffffc,%eax
    1483:	e9 ec fd ff ff       	jmp    1274 <main+0x184>
    1488:	a1 b0 09 02 00       	mov    0x209b0,%eax
    148d:	c7 44 24 04 d6 db 01 	movl   $0x1dbd6,0x4(%esp)
    1494:	00 
    1495:	89 04 24             	mov    %eax,(%esp)
    1498:	e8 c3 67 00 00       	call   7c60 <fprintf>
    149d:	eb d0                	jmp    146f <main+0x37f>
    149f:	e8 1c fc ff ff       	call   10c0 <usage>
    14a4:	83 c8 ff             	or     $0xffffffff,%eax
    14a7:	e9 c8 fd ff ff       	jmp    1274 <main+0x184>
    14ac:	66 90                	xchg   %ax,%ax
    14ae:	66 90                	xchg   %ax,%ax

000014b0 <exit>:
    14b0:	55                   	push   %ebp
    14b1:	89 e5                	mov    %esp,%ebp
    14b3:	83 ec 28             	sub    $0x28,%esp
    14b6:	80 3d a0 09 02 00 00 	cmpb   $0x0,0x209a0
    14bd:	75 3f                	jne    14fe <exit+0x4e>
    14bf:	c7 44 24 18 0a 00 00 	movl   $0xa,0x18(%esp)
    14c6:	00 
    14c7:	c7 44 24 14 00 00 00 	movl   $0x0,0x14(%esp)
    14ce:	00 
    14cf:	c7 44 24 10 00 00 00 	movl   $0x0,0x10(%esp)
    14d6:	00 
    14d7:	c7 44 24 0c 00 00 00 	movl   $0x0,0xc(%esp)
    14de:	00 
    14df:	c7 44 24 08 00 00 00 	movl   $0x0,0x8(%esp)
    14e6:	00 
    14e7:	c7 44 24 04 00 00 00 	movl   $0x0,0x4(%esp)
    14ee:	00 
    14ef:	c7 04 24 00 00 00 00 	movl   $0x0,(%esp)
    14f6:	ff 15 14 09 02 00    	call   *0x20914
    14fc:	eb fe                	jmp    14fc <exit+0x4c>
    14fe:	e8 2d 46 00 00       	call   5b30 <__stdio_done>
    1503:	8b 45 08             	mov    0x8(%ebp),%eax
    1506:	89 04 24             	mov    %eax,(%esp)
    1509:	e8 42 41 00 00       	call   5650 <task_retval>
    150e:	65 a1 00 00 00 00    	mov    %gs:0x0,%eax
    1514:	8b 40 04             	mov    0x4(%eax),%eax
    1517:	89 04 24             	mov    %eax,(%esp)
    151a:	e8 e1 33 00 00       	call   4900 <fibril_teardown>
    151f:	eb 9e                	jmp    14bf <exit+0xf>
    1521:	eb 0d                	jmp    1530 <abort>
    1523:	90                   	nop
    1524:	90                   	nop
    1525:	90                   	nop
    1526:	90                   	nop
    1527:	90                   	nop
    1528:	90                   	nop
    1529:	90                   	nop
    152a:	90                   	nop
    152b:	90                   	nop
    152c:	90                   	nop
    152d:	90                   	nop
    152e:	90                   	nop
    152f:	90                   	nop

00001530 <abort>:
    1530:	55                   	push   %ebp
    1531:	89 e5                	mov    %esp,%ebp
    1533:	83 ec 28             	sub    $0x28,%esp
    1536:	c7 44 24 18 0a 00 00 	movl   $0xa,0x18(%esp)
    153d:	00 
    153e:	c7 44 24 14 00 00 00 	movl   $0x0,0x14(%esp)
    1545:	00 
    1546:	c7 44 24 10 00 00 00 	movl   $0x0,0x10(%esp)
    154d:	00 
    154e:	c7 44 24 0c 00 00 00 	movl   $0x0,0xc(%esp)
    1555:	00 
    1556:	c7 44 24 08 00 00 00 	movl   $0x0,0x8(%esp)
    155d:	00 
    155e:	c7 44 24 04 00 00 00 	movl   $0x0,0x4(%esp)
    1565:	00 
    1566:	c7 04 24 01 00 00 00 	movl   $0x1,(%esp)
    156d:	ff 15 14 09 02 00    	call   *0x20914
    1573:	eb fe                	jmp    1573 <abort+0x43>
    1575:	8d 74 26 00          	lea    0x0(%esi,%eiz,1),%esi
    1579:	8d bc 27 00 00 00 00 	lea    0x0(%edi,%eiz,1),%edi

00001580 <__main>:
    1580:	55                   	push   %ebp
    1581:	89 e5                	mov    %esp,%ebp
    1583:	57                   	push   %edi
    1584:	56                   	push   %esi
    1585:	53                   	push   %ebx
    1586:	83 ec 2c             	sub    $0x2c,%esp
    1589:	8b 5d 08             	mov    0x8(%ebp),%ebx
    158c:	e8 7f b4 00 00       	call   ca10 <__malloc_init>
    1591:	e8 1a d0 00 00       	call   e5b0 <__async_init>
    1596:	e8 e5 32 00 00       	call   4880 <fibril_setup>
    159b:	85 c0                	test   %eax,%eax
    159d:	0f 84 82 00 00 00    	je     1625 <__main+0xa5>
    15a3:	c7 44 24 18 01 00 00 	movl   $0x1,0x18(%esp)
    15aa:	00 
    15ab:	c7 44 24 14 00 00 00 	movl   $0x0,0x14(%esp)
    15b2:	00 
    15b3:	c7 44 24 10 00 00 00 	movl   $0x0,0x10(%esp)
    15ba:	00 
    15bb:	c7 44 24 0c 00 00 00 	movl   $0x0,0xc(%esp)
    15c2:	00 
    15c3:	c7 44 24 08 00 00 00 	movl   $0x0,0x8(%esp)
    15ca:	00 
    15cb:	c7 44 24 04 00 00 00 	movl   $0x0,0x4(%esp)
    15d2:	00 
    15d3:	8b 40 30             	mov    0x30(%eax),%eax
    15d6:	89 04 24             	mov    %eax,(%esp)
    15d9:	ff 15 14 09 02 00    	call   *0x20914
    15df:	89 1d 98 09 02 00    	mov    %ebx,0x20998
    15e5:	c6 05 a0 09 02 00 01 	movb   $0x1,0x209a0
    15ec:	85 db                	test   %ebx,%ebx
    15ee:	74 3a                	je     162a <__main+0xaa>
    15f0:	8b 43 10             	mov    0x10(%ebx),%eax
    15f3:	8b 73 08             	mov    0x8(%ebx),%esi
    15f6:	8b 7b 0c             	mov    0xc(%ebx),%edi
    15f9:	89 04 24             	mov    %eax,(%esp)
    15fc:	e8 9f 42 00 00       	call   58a0 <__stdio_init>
    1601:	a1 98 09 02 00       	mov    0x20998,%eax
    1606:	8b 40 04             	mov    0x4(%eax),%eax
    1609:	89 04 24             	mov    %eax,(%esp)
    160c:	e8 ff 4c 01 00       	call   16310 <chdir>
    1611:	89 7c 24 04          	mov    %edi,0x4(%esp)
    1615:	89 34 24             	mov    %esi,(%esp)
    1618:	e8 d3 fa ff ff       	call   10f0 <main>
    161d:	89 04 24             	mov    %eax,(%esp)
    1620:	e8 8b fe ff ff       	call   14b0 <exit>
    1625:	e8 06 ff ff ff       	call   1530 <abort>
    162a:	c7 04 24 00 00 00 00 	movl   $0x0,(%esp)
    1631:	31 ff                	xor    %edi,%edi
    1633:	e8 68 42 00 00       	call   58a0 <__stdio_init>
    1638:	31 f6                	xor    %esi,%esi
    163a:	eb d5                	jmp    1611 <__main+0x91>
    163c:	66 90                	xchg   %ax,%ax
    163e:	66 90                	xchg   %ax,%ax

00001640 <_strtoul>:
    1640:	55                   	push   %ebp
    1641:	89 e5                	mov    %esp,%ebp
    1643:	57                   	push   %edi
    1644:	56                   	push   %esi
    1645:	53                   	push   %ebx
    1646:	83 ec 08             	sub    $0x8,%esp
    1649:	89 45 f0             	mov    %eax,-0x10(%ebp)
    164c:	8a 00                	mov    (%eax),%al
    164e:	89 55 ec             	mov    %edx,-0x14(%ebp)
    1651:	0f be d0             	movsbl %al,%edx
    1654:	83 ea 09             	sub    $0x9,%edx
    1657:	8b 5d f0             	mov    -0x10(%ebp),%ebx
    165a:	83 fa 17             	cmp    $0x17,%edx
    165d:	77 23                	ja     1682 <_strtoul+0x42>
    165f:	8b 3c 95 a0 dd 01 00 	mov    0x1dda0(,%edx,4),%edi
    1666:	85 ff                	test   %edi,%edi
    1668:	0f 84 94 01 00 00    	je     1802 <_strtoul+0x1c2>
    166e:	66 90                	xchg   %ax,%ax
    1670:	43                   	inc    %ebx
    1671:	8a 03                	mov    (%ebx),%al
    1673:	0f be d0             	movsbl %al,%edx
    1676:	83 ea 09             	sub    $0x9,%edx
    1679:	83 fa 17             	cmp    $0x17,%edx
    167c:	0f 86 a6 00 00 00    	jbe    1728 <_strtoul+0xe8>
    1682:	3c 2d                	cmp    $0x2d,%al
    1684:	0f 84 1e 01 00 00    	je     17a8 <_strtoul+0x168>
    168a:	3c 2b                	cmp    $0x2b,%al
    168c:	0f 94 c0             	sete   %al
    168f:	25 ff 00 00 00       	and    $0xff,%eax
    1694:	01 c3                	add    %eax,%ebx
    1696:	85 c9                	test   %ecx,%ecx
    1698:	0f 84 a2 00 00 00    	je     1740 <_strtoul+0x100>
    169e:	83 f9 24             	cmp    $0x24,%ecx
    16a1:	0f 8f 21 01 00 00    	jg     17c8 <_strtoul+0x188>
    16a7:	83 f9 01             	cmp    $0x1,%ecx
    16aa:	0f 84 18 01 00 00    	je     17c8 <_strtoul+0x188>
    16b0:	8a 13                	mov    (%ebx),%dl
    16b2:	83 f9 10             	cmp    $0x10,%ecx
    16b5:	0f 84 16 01 00 00    	je     17d1 <_strtoul+0x191>
    16bb:	84 d2                	test   %dl,%dl
    16bd:	0f 84 2c 01 00 00    	je     17ef <_strtoul+0x1af>
    16c3:	89 de                	mov    %ebx,%esi
    16c5:	31 c0                	xor    %eax,%eax
    16c7:	eb 4a                	jmp    1713 <_strtoul+0xd3>
    16c9:	8d b4 26 00 00 00 00 	lea    0x0(%esi,%eiz,1),%esi
    16d0:	83 ea 57             	sub    $0x57,%edx
    16d3:	81 e2 ff 00 00 00    	and    $0xff,%edx
    16d9:	39 d1                	cmp    %edx,%ecx
    16db:	0f 8e 94 00 00 00    	jle    1775 <_strtoul+0x135>
    16e1:	0f b6 f8             	movzbl %al,%edi
    16e4:	0f af f9             	imul   %ecx,%edi
    16e7:	c1 e8 08             	shr    $0x8,%eax
    16ea:	01 fa                	add    %edi,%edx
    16ec:	0f af c1             	imul   %ecx,%eax
    16ef:	89 d7                	mov    %edx,%edi
    16f1:	c1 ef 08             	shr    $0x8,%edi
    16f4:	01 f8                	add    %edi,%eax
    16f6:	3d ff ff ff 00       	cmp    $0xffffff,%eax
    16fb:	0f 87 b7 00 00 00    	ja     17b8 <_strtoul+0x178>
    1701:	46                   	inc    %esi
    1702:	81 e2 ff 00 00 00    	and    $0xff,%edx
    1708:	c1 e0 08             	shl    $0x8,%eax
    170b:	01 d0                	add    %edx,%eax
    170d:	8a 16                	mov    (%esi),%dl
    170f:	84 d2                	test   %dl,%dl
    1711:	74 62                	je     1775 <_strtoul+0x135>
    1713:	80 fa 60             	cmp    $0x60,%dl
    1716:	77 b8                	ja     16d0 <_strtoul+0x90>
    1718:	80 fa 40             	cmp    $0x40,%dl
    171b:	76 53                	jbe    1770 <_strtoul+0x130>
    171d:	83 ea 37             	sub    $0x37,%edx
    1720:	eb b1                	jmp    16d3 <_strtoul+0x93>
    1722:	8d b6 00 00 00 00    	lea    0x0(%esi),%esi
    1728:	8b 34 95 a0 dd 01 00 	mov    0x1dda0(,%edx,4),%esi
    172f:	85 f6                	test   %esi,%esi
    1731:	0f 85 39 ff ff ff    	jne    1670 <_strtoul+0x30>
    1737:	e9 46 ff ff ff       	jmp    1682 <_strtoul+0x42>
    173c:	8d 74 26 00          	lea    0x0(%esi,%eiz,1),%esi
    1740:	8a 13                	mov    (%ebx),%dl
    1742:	b9 0a 00 00 00       	mov    $0xa,%ecx
    1747:	80 fa 30             	cmp    $0x30,%dl
    174a:	0f 85 6b ff ff ff    	jne    16bb <_strtoul+0x7b>
    1750:	8a 43 01             	mov    0x1(%ebx),%al
    1753:	83 e0 df             	and    $0xffffffdf,%eax
    1756:	3c 58                	cmp    $0x58,%al
    1758:	0f 85 98 00 00 00    	jne    17f6 <_strtoul+0x1b6>
    175e:	8a 53 02             	mov    0x2(%ebx),%dl
    1761:	b1 10                	mov    $0x10,%cl
    1763:	83 c3 02             	add    $0x2,%ebx
    1766:	e9 50 ff ff ff       	jmp    16bb <_strtoul+0x7b>
    176b:	90                   	nop
    176c:	8d 74 26 00          	lea    0x0(%esi,%eiz,1),%esi
    1770:	80 fa 39             	cmp    $0x39,%dl
    1773:	76 2b                	jbe    17a0 <_strtoul+0x160>
    1775:	39 f3                	cmp    %esi,%ebx
    1777:	74 76                	je     17ef <_strtoul+0x1af>
    1779:	8b 5d ec             	mov    -0x14(%ebp),%ebx
    177c:	85 db                	test   %ebx,%ebx
    177e:	74 05                	je     1785 <_strtoul+0x145>
    1780:	8b 55 ec             	mov    -0x14(%ebp),%edx
    1783:	89 32                	mov    %esi,(%edx)
    1785:	39 75 f0             	cmp    %esi,-0x10(%ebp)
    1788:	0f 95 c2             	setne  %dl
    178b:	81 e2 ff 00 00 00    	and    $0xff,%edx
    1791:	f7 da                	neg    %edx
    1793:	21 d0                	and    %edx,%eax
    1795:	5a                   	pop    %edx
    1796:	59                   	pop    %ecx
    1797:	5b                   	pop    %ebx
    1798:	5e                   	pop    %esi
    1799:	5f                   	pop    %edi
    179a:	5d                   	pop    %ebp
    179b:	c3                   	ret    
    179c:	8d 74 26 00          	lea    0x0(%esi,%eiz,1),%esi
    17a0:	83 ea 30             	sub    $0x30,%edx
    17a3:	e9 2b ff ff ff       	jmp    16d3 <_strtoul+0x93>
    17a8:	8b 45 08             	mov    0x8(%ebp),%eax
    17ab:	43                   	inc    %ebx
    17ac:	c6 00 01             	movb   $0x1,(%eax)
    17af:	e9 e2 fe ff ff       	jmp    1696 <_strtoul+0x56>
    17b4:	8d 74 26 00          	lea    0x0(%esi,%eiz,1),%esi
    17b8:	5a                   	pop    %edx
    17b9:	83 c8 ff             	or     $0xffffffff,%eax
    17bc:	59                   	pop    %ecx
    17bd:	5b                   	pop    %ebx
    17be:	5e                   	pop    %esi
    17bf:	5f                   	pop    %edi
    17c0:	5d                   	pop    %ebp
    17c1:	c3                   	ret    
    17c2:	8d b6 00 00 00 00    	lea    0x0(%esi),%esi
    17c8:	5a                   	pop    %edx
    17c9:	31 c0                	xor    %eax,%eax
    17cb:	59                   	pop    %ecx
    17cc:	5b                   	pop    %ebx
    17cd:	5e                   	pop    %esi
    17ce:	5f                   	pop    %edi
    17cf:	5d                   	pop    %ebp
    17d0:	c3                   	ret    
    17d1:	80 fa 30             	cmp    $0x30,%dl
    17d4:	0f 85 e1 fe ff ff    	jne    16bb <_strtoul+0x7b>
    17da:	8a 43 01             	mov    0x1(%ebx),%al
    17dd:	83 e0 df             	and    $0xffffffdf,%eax
    17e0:	3c 58                	cmp    $0x58,%al
    17e2:	75 17                	jne    17fb <_strtoul+0x1bb>
    17e4:	8a 53 02             	mov    0x2(%ebx),%dl
    17e7:	83 c3 02             	add    $0x2,%ebx
    17ea:	e9 cc fe ff ff       	jmp    16bb <_strtoul+0x7b>
    17ef:	8b 75 f0             	mov    -0x10(%ebp),%esi
    17f2:	31 c0                	xor    %eax,%eax
    17f4:	eb 83                	jmp    1779 <_strtoul+0x139>
    17f6:	b9 08 00 00 00       	mov    $0x8,%ecx
    17fb:	b2 30                	mov    $0x30,%dl
    17fd:	e9 c1 fe ff ff       	jmp    16c3 <_strtoul+0x83>
    1802:	8b 5d f0             	mov    -0x10(%ebp),%ebx
    1805:	e9 78 fe ff ff       	jmp    1682 <_strtoul+0x42>
    180a:	8d b6 00 00 00 00    	lea    0x0(%esi),%esi

00001810 <str_uint>:
    1810:	55                   	push   %ebp
    1811:	89 e5                	mov    %esp,%ebp
    1813:	57                   	push   %edi
    1814:	56                   	push   %esi
    1815:	53                   	push   %ebx
    1816:	83 ec 3c             	sub    $0x3c,%esp
    1819:	89 45 dc             	mov    %eax,-0x24(%ebp)
    181c:	89 55 d8             	mov    %edx,-0x28(%ebp)
    181f:	8b 75 08             	mov    0x8(%ebp),%esi
    1822:	85 d2                	test   %edx,%edx
    1824:	0f 84 5f 02 00 00    	je     1a89 <str_uint+0x279>
    182a:	85 f6                	test   %esi,%esi
    182c:	0f 84 3b 02 00 00    	je     1a6d <str_uint+0x25d>
    1832:	8b 45 0c             	mov    0xc(%ebp),%eax
    1835:	85 c0                	test   %eax,%eax
    1837:	0f 84 14 02 00 00    	je     1a51 <str_uint+0x241>
    183d:	8b 45 dc             	mov    -0x24(%ebp),%eax
    1840:	c6 06 00             	movb   $0x0,(%esi)
    1843:	8b 5d dc             	mov    -0x24(%ebp),%ebx
    1846:	8a 10                	mov    (%eax),%dl
    1848:	0f be c2             	movsbl %dl,%eax
    184b:	83 e8 09             	sub    $0x9,%eax
    184e:	83 f8 17             	cmp    $0x17,%eax
    1851:	77 27                	ja     187a <str_uint+0x6a>
    1853:	8b 04 85 a0 dd 01 00 	mov    0x1dda0(,%eax,4),%eax
    185a:	85 c0                	test   %eax,%eax
    185c:	0f 84 e7 01 00 00    	je     1a49 <str_uint+0x239>
    1862:	8d b6 00 00 00 00    	lea    0x0(%esi),%esi
    1868:	43                   	inc    %ebx
    1869:	8a 13                	mov    (%ebx),%dl
    186b:	0f be c2             	movsbl %dl,%eax
    186e:	83 e8 09             	sub    $0x9,%eax
    1871:	83 f8 17             	cmp    $0x17,%eax
    1874:	0f 86 06 01 00 00    	jbe    1980 <str_uint+0x170>
    187a:	80 fa 2d             	cmp    $0x2d,%dl
    187d:	0f 84 4d 01 00 00    	je     19d0 <str_uint+0x1c0>
    1883:	80 fa 2b             	cmp    $0x2b,%dl
    1886:	0f 94 c0             	sete   %al
    1889:	25 ff 00 00 00       	and    $0xff,%eax
    188e:	01 c3                	add    %eax,%ebx
    1890:	85 c9                	test   %ecx,%ecx
    1892:	0f 85 18 01 00 00    	jne    19b0 <str_uint+0x1a0>
    1898:	b1 0a                	mov    $0xa,%cl
    189a:	80 3b 30             	cmpb   $0x30,(%ebx)
    189d:	0f 84 3d 01 00 00    	je     19e0 <str_uint+0x1d0>
    18a3:	8b 45 0c             	mov    0xc(%ebp),%eax
    18a6:	c7 00 00 00 00 00    	movl   $0x0,(%eax)
    18ac:	c7 40 04 00 00 00 00 	movl   $0x0,0x4(%eax)
    18b3:	8a 03                	mov    (%ebx),%al
    18b5:	84 c0                	test   %al,%al
    18b7:	0f 84 37 01 00 00    	je     19f4 <str_uint+0x1e4>
    18bd:	8d 50 9f             	lea    -0x61(%eax),%edx
    18c0:	c7 45 e0 00 00 00 00 	movl   $0x0,-0x20(%ebp)
    18c7:	c7 45 e4 00 00 00 00 	movl   $0x0,-0x1c(%ebp)
    18ce:	89 5d d4             	mov    %ebx,-0x2c(%ebp)
    18d1:	80 fa 19             	cmp    $0x19,%dl
    18d4:	77 64                	ja     193a <str_uint+0x12a>
    18d6:	66 90                	xchg   %ax,%ax
    18d8:	0f be f0             	movsbl %al,%esi
    18db:	83 ee 57             	sub    $0x57,%esi
    18de:	39 f1                	cmp    %esi,%ecx
    18e0:	76 6e                	jbe    1950 <str_uint+0x140>
    18e2:	8b 45 e0             	mov    -0x20(%ebp),%eax
    18e5:	8b 7d e4             	mov    -0x1c(%ebp),%edi
    18e8:	f7 e1                	mul    %ecx
    18ea:	0f af f9             	imul   %ecx,%edi
    18ed:	89 45 c8             	mov    %eax,-0x38(%ebp)
    18f0:	01 fa                	add    %edi,%edx
    18f2:	31 ff                	xor    %edi,%edi
    18f4:	03 75 c8             	add    -0x38(%ebp),%esi
    18f7:	89 55 cc             	mov    %edx,-0x34(%ebp)
    18fa:	8b 55 0c             	mov    0xc(%ebp),%edx
    18fd:	13 7d cc             	adc    -0x34(%ebp),%edi
    1900:	89 32                	mov    %esi,(%edx)
    1902:	89 7a 04             	mov    %edi,0x4(%edx)
    1905:	3b 7d e4             	cmp    -0x1c(%ebp),%edi
    1908:	77 1b                	ja     1925 <str_uint+0x115>
    190a:	73 14                	jae    1920 <str_uint+0x110>
    190c:	8b 45 d8             	mov    -0x28(%ebp),%eax
    190f:	89 18                	mov    %ebx,(%eax)
    1911:	b8 f0 ff ff ff       	mov    $0xfffffff0,%eax
    1916:	83 c4 3c             	add    $0x3c,%esp
    1919:	5b                   	pop    %ebx
    191a:	5e                   	pop    %esi
    191b:	5f                   	pop    %edi
    191c:	5d                   	pop    %ebp
    191d:	c3                   	ret    
    191e:	66 90                	xchg   %ax,%ax
    1920:	3b 75 e0             	cmp    -0x20(%ebp),%esi
    1923:	72 e7                	jb     190c <str_uint+0xfc>
    1925:	43                   	inc    %ebx
    1926:	8a 03                	mov    (%ebx),%al
    1928:	84 c0                	test   %al,%al
    192a:	74 24                	je     1950 <str_uint+0x140>
    192c:	8d 50 9f             	lea    -0x61(%eax),%edx
    192f:	89 75 e0             	mov    %esi,-0x20(%ebp)
    1932:	89 7d e4             	mov    %edi,-0x1c(%ebp)
    1935:	80 fa 19             	cmp    $0x19,%dl
    1938:	76 9e                	jbe    18d8 <str_uint+0xc8>
    193a:	8d 50 bf             	lea    -0x41(%eax),%edx
    193d:	80 fa 19             	cmp    $0x19,%dl
    1940:	77 56                	ja     1998 <str_uint+0x188>
    1942:	0f be f0             	movsbl %al,%esi
    1945:	83 ee 37             	sub    $0x37,%esi
    1948:	39 f1                	cmp    %esi,%ecx
    194a:	77 96                	ja     18e2 <str_uint+0xd2>
    194c:	8d 74 26 00          	lea    0x0(%esi,%eiz,1),%esi
    1950:	89 da                	mov    %ebx,%edx
    1952:	8b 5d d4             	mov    -0x2c(%ebp),%ebx
    1955:	39 d3                	cmp    %edx,%ebx
    1957:	0f 84 97 00 00 00    	je     19f4 <str_uint+0x1e4>
    195d:	8b 45 d8             	mov    -0x28(%ebp),%eax
    1960:	39 55 dc             	cmp    %edx,-0x24(%ebp)
    1963:	89 10                	mov    %edx,(%eax)
    1965:	0f 95 c0             	setne  %al
    1968:	25 ff 00 00 00       	and    $0xff,%eax
    196d:	83 c4 3c             	add    $0x3c,%esp
    1970:	48                   	dec    %eax
    1971:	5b                   	pop    %ebx
    1972:	83 e0 f2             	and    $0xfffffff2,%eax
    1975:	5e                   	pop    %esi
    1976:	5f                   	pop    %edi
    1977:	5d                   	pop    %ebp
    1978:	c3                   	ret    
    1979:	8d b4 26 00 00 00 00 	lea    0x0(%esi,%eiz,1),%esi
    1980:	8b 3c 85 a0 dd 01 00 	mov    0x1dda0(,%eax,4),%edi
    1987:	85 ff                	test   %edi,%edi
    1989:	0f 85 d9 fe ff ff    	jne    1868 <str_uint+0x58>
    198f:	e9 e6 fe ff ff       	jmp    187a <str_uint+0x6a>
    1994:	8d 74 26 00          	lea    0x0(%esi,%eiz,1),%esi
    1998:	8d 50 d0             	lea    -0x30(%eax),%edx
    199b:	80 fa 09             	cmp    $0x9,%dl
    199e:	77 b0                	ja     1950 <str_uint+0x140>
    19a0:	0f be f0             	movsbl %al,%esi
    19a3:	83 ee 30             	sub    $0x30,%esi
    19a6:	e9 33 ff ff ff       	jmp    18de <str_uint+0xce>
    19ab:	90                   	nop
    19ac:	8d 74 26 00          	lea    0x0(%esi,%eiz,1),%esi
    19b0:	8d 41 fe             	lea    -0x2(%ecx),%eax
    19b3:	83 f8 22             	cmp    $0x22,%eax
    19b6:	0f 86 e7 fe ff ff    	jbe    18a3 <str_uint+0x93>
    19bc:	8b 55 d8             	mov    -0x28(%ebp),%edx
    19bf:	b8 f2 ff ff ff       	mov    $0xfffffff2,%eax
    19c4:	89 1a                	mov    %ebx,(%edx)
    19c6:	e9 4b ff ff ff       	jmp    1916 <str_uint+0x106>
    19cb:	90                   	nop
    19cc:	8d 74 26 00          	lea    0x0(%esi,%eiz,1),%esi
    19d0:	c6 06 01             	movb   $0x1,(%esi)
    19d3:	43                   	inc    %ebx
    19d4:	e9 b7 fe ff ff       	jmp    1890 <str_uint+0x80>
    19d9:	8d b4 26 00 00 00 00 	lea    0x0(%esi,%eiz,1),%esi
    19e0:	8a 43 01             	mov    0x1(%ebx),%al
    19e3:	83 e8 42             	sub    $0x42,%eax
    19e6:	3c 36                	cmp    $0x36,%al
    19e8:	76 1f                	jbe    1a09 <str_uint+0x1f9>
    19ea:	b9 08 00 00 00       	mov    $0x8,%ecx
    19ef:	e9 af fe ff ff       	jmp    18a3 <str_uint+0x93>
    19f4:	8b 55 d8             	mov    -0x28(%ebp),%edx
    19f7:	8b 45 dc             	mov    -0x24(%ebp),%eax
    19fa:	89 02                	mov    %eax,(%edx)
    19fc:	83 c4 3c             	add    $0x3c,%esp
    19ff:	b8 f2 ff ff ff       	mov    $0xfffffff2,%eax
    1a04:	5b                   	pop    %ebx
    1a05:	5e                   	pop    %esi
    1a06:	5f                   	pop    %edi
    1a07:	5d                   	pop    %ebp
    1a08:	c3                   	ret    
    1a09:	25 ff 00 00 00       	and    $0xff,%eax
    1a0e:	ff 24 85 c0 dc 01 00 	jmp    *0x1dcc0(,%eax,4)
    1a15:	83 c3 02             	add    $0x2,%ebx
    1a18:	b9 10 00 00 00       	mov    $0x10,%ecx
    1a1d:	e9 81 fe ff ff       	jmp    18a3 <str_uint+0x93>
    1a22:	83 c3 02             	add    $0x2,%ebx
    1a25:	b9 08 00 00 00       	mov    $0x8,%ecx
    1a2a:	e9 74 fe ff ff       	jmp    18a3 <str_uint+0x93>
    1a2f:	83 c3 02             	add    $0x2,%ebx
    1a32:	b9 0a 00 00 00       	mov    $0xa,%ecx
    1a37:	e9 67 fe ff ff       	jmp    18a3 <str_uint+0x93>
    1a3c:	83 c3 02             	add    $0x2,%ebx
    1a3f:	b9 02 00 00 00       	mov    $0x2,%ecx
    1a44:	e9 5a fe ff ff       	jmp    18a3 <str_uint+0x93>
    1a49:	8b 5d dc             	mov    -0x24(%ebp),%ebx
    1a4c:	e9 29 fe ff ff       	jmp    187a <str_uint+0x6a>
    1a51:	c7 44 24 08 82 05 00 	movl   $0x582,0x8(%esp)
    1a58:	00 
    1a59:	c7 44 24 04 50 dc 01 	movl   $0x1dc50,0x4(%esp)
    1a60:	00 
    1a61:	c7 04 24 79 dc 01 00 	movl   $0x1dc79,(%esp)
    1a68:	e8 d3 53 01 00       	call   16e40 <assert_abort>
    1a6d:	c7 44 24 08 81 05 00 	movl   $0x581,0x8(%esp)
    1a74:	00 
    1a75:	c7 44 24 04 50 dc 01 	movl   $0x1dc50,0x4(%esp)
    1a7c:	00 
    1a7d:	c7 04 24 6d dc 01 00 	movl   $0x1dc6d,(%esp)
    1a84:	e8 b7 53 01 00       	call   16e40 <assert_abort>
    1a89:	c7 44 24 08 80 05 00 	movl   $0x580,0x8(%esp)
    1a90:	00 
    1a91:	c7 44 24 04 50 dc 01 	movl   $0x1dc50,0x4(%esp)
    1a98:	00 
    1a99:	c7 04 24 5e dc 01 00 	movl   $0x1dc5e,(%esp)
    1aa0:	e8 9b 53 01 00       	call   16e40 <assert_abort>
    1aa5:	8d 74 26 00          	lea    0x0(%esi,%eiz,1),%esi
    1aa9:	8d bc 27 00 00 00 00 	lea    0x0(%edi,%eiz,1),%edi

00001ab0 <str_decode>:
    1ab0:	55                   	push   %ebp
    1ab1:	89 e5                	mov    %esp,%ebp
    1ab3:	57                   	push   %edi
    1ab4:	56                   	push   %esi
    1ab5:	53                   	push   %ebx
    1ab6:	83 ec 0c             	sub    $0xc,%esp
    1ab9:	8b 45 0c             	mov    0xc(%ebp),%eax
    1abc:	8b 7d 08             	mov    0x8(%ebp),%edi
    1abf:	8b 10                	mov    (%eax),%edx
    1ac1:	31 c0                	xor    %eax,%eax
    1ac3:	8d 4a 01             	lea    0x1(%edx),%ecx
    1ac6:	3b 4d 10             	cmp    0x10(%ebp),%ecx
    1ac9:	77 0d                	ja     1ad8 <str_decode+0x28>
    1acb:	0f be 04 17          	movsbl (%edi,%edx,1),%eax
    1acf:	8b 5d 0c             	mov    0xc(%ebp),%ebx
    1ad2:	84 c0                	test   %al,%al
    1ad4:	89 0b                	mov    %ecx,(%ebx)
    1ad6:	78 08                	js     1ae0 <str_decode+0x30>
    1ad8:	83 c4 0c             	add    $0xc,%esp
    1adb:	5b                   	pop    %ebx
    1adc:	5e                   	pop    %esi
    1add:	5f                   	pop    %edi
    1ade:	5d                   	pop    %ebp
    1adf:	c3                   	ret    
    1ae0:	be e0 ff ff ff       	mov    $0xffffffe0,%esi
    1ae5:	21 c6                	and    %eax,%esi
    1ae7:	89 f3                	mov    %esi,%ebx
    1ae9:	80 fb c0             	cmp    $0xc0,%bl
    1aec:	74 32                	je     1b20 <str_decode+0x70>
    1aee:	be f0 ff ff ff       	mov    $0xfffffff0,%esi
    1af3:	21 c6                	and    %eax,%esi
    1af5:	89 f3                	mov    %esi,%ebx
    1af7:	80 fb e0             	cmp    $0xe0,%bl
    1afa:	0f 84 90 00 00 00    	je     1b90 <str_decode+0xe0>
    1b00:	be f8 ff ff ff       	mov    $0xfffffff8,%esi
    1b05:	21 c6                	and    %eax,%esi
    1b07:	89 f3                	mov    %esi,%ebx
    1b09:	80 fb f0             	cmp    $0xf0,%bl
    1b0c:	0f 84 87 00 00 00    	je     1b99 <str_decode+0xe9>
    1b12:	83 c4 0c             	add    $0xc,%esp
    1b15:	b8 3f 00 00 00       	mov    $0x3f,%eax
    1b1a:	5b                   	pop    %ebx
    1b1b:	5e                   	pop    %esi
    1b1c:	5f                   	pop    %edi
    1b1d:	5d                   	pop    %ebp
    1b1e:	c3                   	ret    
    1b1f:	90                   	nop
    1b20:	b3 1f                	mov    $0x1f,%bl
    1b22:	be 01 00 00 00       	mov    $0x1,%esi
    1b27:	01 f1                	add    %esi,%ecx
    1b29:	89 4d f0             	mov    %ecx,-0x10(%ebp)
    1b2c:	39 4d 10             	cmp    %ecx,0x10(%ebp)
    1b2f:	72 e1                	jb     1b12 <str_decode+0x62>
    1b31:	21 d8                	and    %ebx,%eax
    1b33:	8a 4c 17 01          	mov    0x1(%edi,%edx,1),%cl
    1b37:	8b 5d 0c             	mov    0xc(%ebp),%ebx
    1b3a:	be c0 ff ff ff       	mov    $0xffffffc0,%esi
    1b3f:	83 c2 02             	add    $0x2,%edx
    1b42:	21 ce                	and    %ecx,%esi
    1b44:	89 13                	mov    %edx,(%ebx)
    1b46:	89 f3                	mov    %esi,%ebx
    1b48:	25 ff 00 00 00       	and    $0xff,%eax
    1b4d:	80 fb 80             	cmp    $0x80,%bl
    1b50:	75 c0                	jne    1b12 <str_decode+0x62>
    1b52:	8b 5d 0c             	mov    0xc(%ebp),%ebx
    1b55:	89 5d e8             	mov    %ebx,-0x18(%ebp)
    1b58:	eb 1d                	jmp    1b77 <str_decode+0xc7>
    1b5a:	8d b6 00 00 00 00    	lea    0x0(%esi),%esi
    1b60:	8a 0c 17             	mov    (%edi,%edx,1),%cl
    1b63:	8b 5d e8             	mov    -0x18(%ebp),%ebx
    1b66:	be c0 ff ff ff       	mov    $0xffffffc0,%esi
    1b6b:	42                   	inc    %edx
    1b6c:	21 ce                	and    %ecx,%esi
    1b6e:	89 13                	mov    %edx,(%ebx)
    1b70:	89 f3                	mov    %esi,%ebx
    1b72:	80 fb 80             	cmp    $0x80,%bl
    1b75:	75 9b                	jne    1b12 <str_decode+0x62>
    1b77:	89 c6                	mov    %eax,%esi
    1b79:	89 c8                	mov    %ecx,%eax
    1b7b:	c1 e6 06             	shl    $0x6,%esi
    1b7e:	83 e0 3f             	and    $0x3f,%eax
    1b81:	09 f0                	or     %esi,%eax
    1b83:	39 55 f0             	cmp    %edx,-0x10(%ebp)
    1b86:	75 d8                	jne    1b60 <str_decode+0xb0>
    1b88:	e9 4b ff ff ff       	jmp    1ad8 <str_decode+0x28>
    1b8d:	8d 76 00             	lea    0x0(%esi),%esi
    1b90:	b3 0f                	mov    $0xf,%bl
    1b92:	be 02 00 00 00       	mov    $0x2,%esi
    1b97:	eb 8e                	jmp    1b27 <str_decode+0x77>
    1b99:	b3 07                	mov    $0x7,%bl
    1b9b:	be 03 00 00 00       	mov    $0x3,%esi
    1ba0:	eb 85                	jmp    1b27 <str_decode+0x77>
    1ba2:	8d b4 26 00 00 00 00 	lea    0x0(%esi,%eiz,1),%esi
    1ba9:	8d bc 27 00 00 00 00 	lea    0x0(%edi,%eiz,1),%edi

00001bb0 <str_decode_reverse>:
    1bb0:	55                   	push   %ebp
    1bb1:	89 e5                	mov    %esp,%ebp
    1bb3:	57                   	push   %edi
    1bb4:	56                   	push   %esi
    1bb5:	53                   	push   %ebx
    1bb6:	50                   	push   %eax
    1bb7:	31 c0                	xor    %eax,%eax
    1bb9:	8b 7d 0c             	mov    0xc(%ebp),%edi
    1bbc:	8b 1f                	mov    (%edi),%ebx
    1bbe:	85 db                	test   %ebx,%ebx
    1bc0:	0f 84 24 01 00 00    	je     1cea <str_decode_reverse+0x13a>
    1bc6:	8d 73 ff             	lea    -0x1(%ebx),%esi
    1bc9:	8b 55 08             	mov    0x8(%ebp),%edx
    1bcc:	89 37                	mov    %esi,(%edi)
    1bce:	8a 14 32             	mov    (%edx,%esi,1),%dl
    1bd1:	88 55 f1             	mov    %dl,-0xf(%ebp)
    1bd4:	84 d2                	test   %dl,%dl
    1bd6:	0f 89 c4 01 00 00    	jns    1da0 <str_decode_reverse+0x1f0>
    1bdc:	88 d1                	mov    %dl,%cl
    1bde:	83 e1 e0             	and    $0xffffffe0,%ecx
    1be1:	88 4d f2             	mov    %cl,-0xe(%ebp)
    1be4:	80 f9 c0             	cmp    $0xc0,%cl
    1be7:	0f 84 d8 01 00 00    	je     1dc5 <str_decode_reverse+0x215>
    1bed:	88 d1                	mov    %dl,%cl
    1bef:	83 e1 f0             	and    $0xfffffff0,%ecx
    1bf2:	80 f9 e0             	cmp    $0xe0,%cl
    1bf5:	0f 84 f1 01 00 00    	je     1dec <str_decode_reverse+0x23c>
    1bfb:	88 d0                	mov    %dl,%al
    1bfd:	83 e0 f8             	and    $0xfffffff8,%eax
    1c00:	3c f0                	cmp    $0xf0,%al
    1c02:	0f 84 ee 00 00 00    	je     1cf6 <str_decode_reverse+0x146>
    1c08:	88 d1                	mov    %dl,%cl
    1c0a:	83 e1 c0             	and    $0xffffffc0,%ecx
    1c0d:	80 f9 80             	cmp    $0x80,%cl
    1c10:	0f 85 cf 00 00 00    	jne    1ce5 <str_decode_reverse+0x135>
    1c16:	85 f6                	test   %esi,%esi
    1c18:	0f 84 c7 00 00 00    	je     1ce5 <str_decode_reverse+0x135>
    1c1e:	8d 43 fe             	lea    -0x2(%ebx),%eax
    1c21:	8b 4d 08             	mov    0x8(%ebp),%ecx
    1c24:	89 07                	mov    %eax,(%edi)
    1c26:	8a 14 01             	mov    (%ecx,%eax,1),%dl
    1c29:	88 d1                	mov    %dl,%cl
    1c2b:	88 55 f1             	mov    %dl,-0xf(%ebp)
    1c2e:	83 e1 e0             	and    $0xffffffe0,%ecx
    1c31:	88 4d f2             	mov    %cl,-0xe(%ebp)
    1c34:	80 f9 c0             	cmp    $0xc0,%cl
    1c37:	0f 84 b3 00 00 00    	je     1cf0 <str_decode_reverse+0x140>
    1c3d:	88 d1                	mov    %dl,%cl
    1c3f:	83 e1 f0             	and    $0xfffffff0,%ecx
    1c42:	80 f9 e0             	cmp    $0xe0,%cl
    1c45:	0f 84 65 01 00 00    	je     1db0 <str_decode_reverse+0x200>
    1c4b:	88 d1                	mov    %dl,%cl
    1c4d:	83 e1 f8             	and    $0xfffffff8,%ecx
    1c50:	80 f9 f0             	cmp    $0xf0,%cl
    1c53:	0f 84 57 01 00 00    	je     1db0 <str_decode_reverse+0x200>
    1c59:	83 e2 c0             	and    $0xffffffc0,%edx
    1c5c:	80 fa 80             	cmp    $0x80,%dl
    1c5f:	0f 85 80 00 00 00    	jne    1ce5 <str_decode_reverse+0x135>
    1c65:	85 c0                	test   %eax,%eax
    1c67:	74 7c                	je     1ce5 <str_decode_reverse+0x135>
    1c69:	8d 73 fd             	lea    -0x3(%ebx),%esi
    1c6c:	8b 4d 08             	mov    0x8(%ebp),%ecx
    1c6f:	89 37                	mov    %esi,(%edi)
    1c71:	8a 14 31             	mov    (%ecx,%esi,1),%dl
    1c74:	88 d1                	mov    %dl,%cl
    1c76:	88 55 f1             	mov    %dl,-0xf(%ebp)
    1c79:	83 e1 e0             	and    $0xffffffe0,%ecx
    1c7c:	88 4d f2             	mov    %cl,-0xe(%ebp)
    1c7f:	80 f9 c0             	cmp    $0xc0,%cl
    1c82:	0f 84 36 01 00 00    	je     1dbe <str_decode_reverse+0x20e>
    1c88:	88 d1                	mov    %dl,%cl
    1c8a:	83 e1 f0             	and    $0xfffffff0,%ecx
    1c8d:	80 f9 e0             	cmp    $0xe0,%cl
    1c90:	0f 84 21 01 00 00    	je     1db7 <str_decode_reverse+0x207>
    1c96:	88 d1                	mov    %dl,%cl
    1c98:	83 e1 f8             	and    $0xfffffff8,%ecx
    1c9b:	80 f9 f0             	cmp    $0xf0,%cl
    1c9e:	0f 84 13 01 00 00    	je     1db7 <str_decode_reverse+0x207>
    1ca4:	83 e2 c0             	and    $0xffffffc0,%edx
    1ca7:	80 fa 80             	cmp    $0x80,%dl
    1caa:	75 39                	jne    1ce5 <str_decode_reverse+0x135>
    1cac:	85 f6                	test   %esi,%esi
    1cae:	74 35                	je     1ce5 <str_decode_reverse+0x135>
    1cb0:	83 eb 04             	sub    $0x4,%ebx
    1cb3:	8b 45 08             	mov    0x8(%ebp),%eax
    1cb6:	89 1f                	mov    %ebx,(%edi)
    1cb8:	8a 14 18             	mov    (%eax,%ebx,1),%dl
    1cbb:	88 d1                	mov    %dl,%cl
    1cbd:	88 55 f1             	mov    %dl,-0xf(%ebp)
    1cc0:	83 e1 e0             	and    $0xffffffe0,%ecx
    1cc3:	88 4d f2             	mov    %cl,-0xe(%ebp)
    1cc6:	80 f9 c0             	cmp    $0xc0,%cl
    1cc9:	74 25                	je     1cf0 <str_decode_reverse+0x140>
    1ccb:	88 d0                	mov    %dl,%al
    1ccd:	83 e0 f0             	and    $0xfffffff0,%eax
    1cd0:	3c e0                	cmp    $0xe0,%al
    1cd2:	0f 84 d8 00 00 00    	je     1db0 <str_decode_reverse+0x200>
    1cd8:	88 d0                	mov    %dl,%al
    1cda:	83 e0 f8             	and    $0xfffffff8,%eax
    1cdd:	3c f0                	cmp    $0xf0,%al
    1cdf:	0f 84 cb 00 00 00    	je     1db0 <str_decode_reverse+0x200>
    1ce5:	b8 3f 00 00 00       	mov    $0x3f,%eax
    1cea:	5a                   	pop    %edx
    1ceb:	5b                   	pop    %ebx
    1cec:	5e                   	pop    %esi
    1ced:	5f                   	pop    %edi
    1cee:	5d                   	pop    %ebp
    1cef:	c3                   	ret    
    1cf0:	89 f3                	mov    %esi,%ebx
    1cf2:	c6 45 f2 c0          	movb   $0xc0,-0xe(%ebp)
    1cf6:	31 c0                	xor    %eax,%eax
    1cf8:	39 5d 10             	cmp    %ebx,0x10(%ebp)
    1cfb:	72 ed                	jb     1cea <str_decode_reverse+0x13a>
    1cfd:	84 d2                	test   %dl,%dl
    1cff:	78 69                	js     1d6a <str_decode_reverse+0x1ba>
    1d01:	bf 7f 00 00 00       	mov    $0x7f,%edi
    1d06:	31 d2                	xor    %edx,%edx
    1d08:	8d 34 1a             	lea    (%edx,%ebx,1),%esi
    1d0b:	b8 3f 00 00 00       	mov    $0x3f,%eax
    1d10:	39 75 10             	cmp    %esi,0x10(%ebp)
    1d13:	72 d5                	jb     1cea <str_decode_reverse+0x13a>
    1d15:	8a 4d f1             	mov    -0xf(%ebp),%cl
    1d18:	31 c0                	xor    %eax,%eax
    1d1a:	21 f9                	and    %edi,%ecx
    1d1c:	85 d2                	test   %edx,%edx
    1d1e:	88 c8                	mov    %cl,%al
    1d20:	74 c8                	je     1cea <str_decode_reverse+0x13a>
    1d22:	8b 4d 08             	mov    0x8(%ebp),%ecx
    1d25:	8d 73 01             	lea    0x1(%ebx),%esi
    1d28:	8a 0c 19             	mov    (%ecx,%ebx,1),%cl
    1d2b:	88 4d f3             	mov    %cl,-0xd(%ebp)
    1d2e:	83 e1 c0             	and    $0xffffffc0,%ecx
    1d31:	80 f9 80             	cmp    $0x80,%cl
    1d34:	75 af                	jne    1ce5 <str_decode_reverse+0x135>
    1d36:	8b 7d 08             	mov    0x8(%ebp),%edi
    1d39:	8b 4d 08             	mov    0x8(%ebp),%ecx
    1d3c:	01 fb                	add    %edi,%ebx
    1d3e:	01 ce                	add    %ecx,%esi
    1d40:	01 da                	add    %ebx,%edx
    1d42:	8a 4d f3             	mov    -0xd(%ebp),%cl
    1d45:	eb 0e                	jmp    1d55 <str_decode_reverse+0x1a5>
    1d47:	90                   	nop
    1d48:	8a 0e                	mov    (%esi),%cl
    1d4a:	46                   	inc    %esi
    1d4b:	88 cb                	mov    %cl,%bl
    1d4d:	83 e3 c0             	and    $0xffffffc0,%ebx
    1d50:	80 fb 80             	cmp    $0x80,%bl
    1d53:	75 90                	jne    1ce5 <str_decode_reverse+0x135>
    1d55:	89 c3                	mov    %eax,%ebx
    1d57:	89 c8                	mov    %ecx,%eax
    1d59:	c1 e3 06             	shl    $0x6,%ebx
    1d5c:	83 e0 3f             	and    $0x3f,%eax
    1d5f:	09 d8                	or     %ebx,%eax
    1d61:	39 d6                	cmp    %edx,%esi
    1d63:	75 e3                	jne    1d48 <str_decode_reverse+0x198>
    1d65:	e9 80 ff ff ff       	jmp    1cea <str_decode_reverse+0x13a>
    1d6a:	80 7d f2 c0          	cmpb   $0xc0,-0xe(%ebp)
    1d6e:	74 5e                	je     1dce <str_decode_reverse+0x21e>
    1d70:	8a 45 f1             	mov    -0xf(%ebp),%al
    1d73:	83 e0 f0             	and    $0xfffffff0,%eax
    1d76:	3c e0                	cmp    $0xe0,%al
    1d78:	74 63                	je     1ddd <str_decode_reverse+0x22d>
    1d7a:	8a 55 f1             	mov    -0xf(%ebp),%dl
    1d7d:	b8 3f 00 00 00       	mov    $0x3f,%eax
    1d82:	83 e2 f8             	and    $0xfffffff8,%edx
    1d85:	80 fa f0             	cmp    $0xf0,%dl
    1d88:	0f 85 5c ff ff ff    	jne    1cea <str_decode_reverse+0x13a>
    1d8e:	bf 07 00 00 00       	mov    $0x7,%edi
    1d93:	ba 03 00 00 00       	mov    $0x3,%edx
    1d98:	e9 6b ff ff ff       	jmp    1d08 <str_decode_reverse+0x158>
    1d9d:	8d 76 00             	lea    0x0(%esi),%esi
    1da0:	0f be 45 f1          	movsbl -0xf(%ebp),%eax
    1da4:	e9 41 ff ff ff       	jmp    1cea <str_decode_reverse+0x13a>
    1da9:	8d b4 26 00 00 00 00 	lea    0x0(%esi,%eiz,1),%esi
    1db0:	89 f3                	mov    %esi,%ebx
    1db2:	e9 3f ff ff ff       	jmp    1cf6 <str_decode_reverse+0x146>
    1db7:	89 c3                	mov    %eax,%ebx
    1db9:	e9 38 ff ff ff       	jmp    1cf6 <str_decode_reverse+0x146>
    1dbe:	89 c3                	mov    %eax,%ebx
    1dc0:	e9 2d ff ff ff       	jmp    1cf2 <str_decode_reverse+0x142>
    1dc5:	3b 5d 10             	cmp    0x10(%ebp),%ebx
    1dc8:	0f 87 1c ff ff ff    	ja     1cea <str_decode_reverse+0x13a>
    1dce:	bf 1f 00 00 00       	mov    $0x1f,%edi
    1dd3:	ba 01 00 00 00       	mov    $0x1,%edx
    1dd8:	e9 2b ff ff ff       	jmp    1d08 <str_decode_reverse+0x158>
    1ddd:	bf 0f 00 00 00       	mov    $0xf,%edi
    1de2:	ba 02 00 00 00       	mov    $0x2,%edx
    1de7:	e9 1c ff ff ff       	jmp    1d08 <str_decode_reverse+0x158>
    1dec:	3b 5d 10             	cmp    0x10(%ebp),%ebx
    1def:	0f 86 7b ff ff ff    	jbe    1d70 <str_decode_reverse+0x1c0>
    1df5:	e9 f0 fe ff ff       	jmp    1cea <str_decode_reverse+0x13a>
    1dfa:	8d b6 00 00 00 00    	lea    0x0(%esi),%esi

00001e00 <chr_encode>:
    1e00:	55                   	push   %ebp
    1e01:	89 e5                	mov    %esp,%ebp
    1e03:	57                   	push   %edi
    1e04:	56                   	push   %esi
    1e05:	53                   	push   %ebx
    1e06:	83 ec 24             	sub    $0x24,%esp
    1e09:	8b 7d 10             	mov    0x10(%ebp),%edi
    1e0c:	8b 1f                	mov    (%edi),%ebx
    1e0e:	3b 5d 14             	cmp    0x14(%ebp),%ebx
    1e11:	0f 83 c5 00 00 00    	jae    1edc <chr_encode+0xdc>
    1e17:	8b 4d 08             	mov    0x8(%ebp),%ecx
    1e1a:	b8 f2 ff ff ff       	mov    $0xfffffff2,%eax
    1e1f:	81 f9 ff ff 10 00    	cmp    $0x10ffff,%ecx
    1e25:	77 34                	ja     1e5b <chr_encode+0x5b>
    1e27:	f7 c1 80 ff ff ff    	test   $0xffffff80,%ecx
    1e2d:	75 39                	jne    1e68 <chr_encode+0x68>
    1e2f:	c6 45 d0 00          	movb   $0x0,-0x30(%ebp)
    1e33:	c6 45 e0 7f          	movb   $0x7f,-0x20(%ebp)
    1e37:	c7 45 f0 00 00 00 00 	movl   $0x0,-0x10(%ebp)
    1e3e:	8b 45 e0             	mov    -0x20(%ebp),%eax
    1e41:	8b 55 0c             	mov    0xc(%ebp),%edx
    1e44:	21 c1                	and    %eax,%ecx
    1e46:	8b 45 d0             	mov    -0x30(%ebp),%eax
    1e49:	09 c1                	or     %eax,%ecx
    1e4b:	88 0c 1a             	mov    %cl,(%edx,%ebx,1)
    1e4e:	8b 55 f0             	mov    -0x10(%ebp),%edx
    1e51:	8b 07                	mov    (%edi),%eax
    1e53:	8d 44 02 01          	lea    0x1(%edx,%eax,1),%eax
    1e57:	89 07                	mov    %eax,(%edi)
    1e59:	31 c0                	xor    %eax,%eax
    1e5b:	83 c4 24             	add    $0x24,%esp
    1e5e:	5b                   	pop    %ebx
    1e5f:	5e                   	pop    %esi
    1e60:	5f                   	pop    %edi
    1e61:	5d                   	pop    %ebp
    1e62:	c3                   	ret    
    1e63:	90                   	nop
    1e64:	8d 74 26 00          	lea    0x0(%esi,%eiz,1),%esi
    1e68:	f7 c1 00 f8 ff ff    	test   $0xfffff800,%ecx
    1e6e:	74 58                	je     1ec8 <chr_encode+0xc8>
    1e70:	89 c8                	mov    %ecx,%eax
    1e72:	25 00 00 ff ff       	and    $0xffff0000,%eax
    1e77:	83 f8 01             	cmp    $0x1,%eax
    1e7a:	19 d2                	sbb    %edx,%edx
    1e7c:	83 e2 f0             	and    $0xfffffff0,%edx
    1e7f:	83 ea 10             	sub    $0x10,%edx
    1e82:	83 f8 01             	cmp    $0x1,%eax
    1e85:	88 55 d0             	mov    %dl,-0x30(%ebp)
    1e88:	19 d2                	sbb    %edx,%edx
    1e8a:	83 e2 08             	and    $0x8,%edx
    1e8d:	83 c2 07             	add    $0x7,%edx
    1e90:	83 f8 01             	cmp    $0x1,%eax
    1e93:	19 c0                	sbb    %eax,%eax
    1e95:	88 55 e0             	mov    %dl,-0x20(%ebp)
    1e98:	83 c0 03             	add    $0x3,%eax
    1e9b:	89 45 f0             	mov    %eax,-0x10(%ebp)
    1e9e:	01 d8                	add    %ebx,%eax
    1ea0:	39 45 14             	cmp    %eax,0x14(%ebp)
    1ea3:	76 37                	jbe    1edc <chr_encode+0xdc>
    1ea5:	8b 45 f0             	mov    -0x10(%ebp),%eax
    1ea8:	89 ca                	mov    %ecx,%edx
    1eaa:	8b 75 0c             	mov    0xc(%ebp),%esi
    1ead:	01 c6                	add    %eax,%esi
    1eaf:	83 e2 3f             	and    $0x3f,%edx
    1eb2:	c1 e9 06             	shr    $0x6,%ecx
    1eb5:	80 ca 80             	or     $0x80,%dl
    1eb8:	88 14 1e             	mov    %dl,(%esi,%ebx,1)
    1ebb:	48                   	dec    %eax
    1ebc:	8b 1f                	mov    (%edi),%ebx
    1ebe:	75 e8                	jne    1ea8 <chr_encode+0xa8>
    1ec0:	e9 79 ff ff ff       	jmp    1e3e <chr_encode+0x3e>
    1ec5:	8d 76 00             	lea    0x0(%esi),%esi
    1ec8:	c7 45 f0 01 00 00 00 	movl   $0x1,-0x10(%ebp)
    1ecf:	c6 45 d0 c0          	movb   $0xc0,-0x30(%ebp)
    1ed3:	c6 45 e0 1f          	movb   $0x1f,-0x20(%ebp)
    1ed7:	8b 45 f0             	mov    -0x10(%ebp),%eax
    1eda:	eb c2                	jmp    1e9e <chr_encode+0x9e>
    1edc:	b8 f0 ff ff ff       	mov    $0xfffffff0,%eax
    1ee1:	e9 75 ff ff ff       	jmp    1e5b <chr_encode+0x5b>
    1ee6:	8d 76 00             	lea    0x0(%esi),%esi
    1ee9:	8d bc 27 00 00 00 00 	lea    0x0(%edi,%eiz,1),%edi

00001ef0 <str_size>:
    1ef0:	55                   	push   %ebp
    1ef1:	31 c0                	xor    %eax,%eax
    1ef3:	89 e5                	mov    %esp,%ebp
    1ef5:	8b 55 08             	mov    0x8(%ebp),%edx
    1ef8:	80 3a 00             	cmpb   $0x0,(%edx)
    1efb:	74 0a                	je     1f07 <str_size+0x17>
    1efd:	8d 76 00             	lea    0x0(%esi),%esi
    1f00:	40                   	inc    %eax
    1f01:	80 3c 02 00          	cmpb   $0x0,(%edx,%eax,1)
    1f05:	75 f9                	jne    1f00 <str_size+0x10>
    1f07:	5d                   	pop    %ebp
    1f08:	c3                   	ret    
    1f09:	8d b4 26 00 00 00 00 	lea    0x0(%esi,%eiz,1),%esi

00001f10 <wstr_size>:
    1f10:	55                   	push   %ebp
    1f11:	31 c0                	xor    %eax,%eax
    1f13:	89 e5                	mov    %esp,%ebp
    1f15:	8b 55 08             	mov    0x8(%ebp),%edx
    1f18:	8b 0a                	mov    (%edx),%ecx
    1f1a:	85 c9                	test   %ecx,%ecx
    1f1c:	74 0d                	je     1f2b <wstr_size+0x1b>
    1f1e:	66 90                	xchg   %ax,%ax
    1f20:	40                   	inc    %eax
    1f21:	8b 0c 82             	mov    (%edx,%eax,4),%ecx
    1f24:	85 c9                	test   %ecx,%ecx
    1f26:	75 f8                	jne    1f20 <wstr_size+0x10>
    1f28:	c1 e0 02             	shl    $0x2,%eax
    1f2b:	5d                   	pop    %ebp
    1f2c:	c3                   	ret    
    1f2d:	8d 76 00             	lea    0x0(%esi),%esi

00001f30 <str_lsize>:
    1f30:	55                   	push   %ebp
    1f31:	31 c0                	xor    %eax,%eax
    1f33:	89 e5                	mov    %esp,%ebp
    1f35:	57                   	push   %edi
    1f36:	56                   	push   %esi
    1f37:	53                   	push   %ebx
    1f38:	83 ec 0c             	sub    $0xc,%esp
    1f3b:	8b 7d 0c             	mov    0xc(%ebp),%edi
    1f3e:	8b 5d 08             	mov    0x8(%ebp),%ebx
    1f41:	85 ff                	test   %edi,%edi
    1f43:	74 5b                	je     1fa0 <str_lsize+0x70>
    1f45:	c7 45 f0 00 00 00 00 	movl   $0x0,-0x10(%ebp)
    1f4c:	eb 17                	jmp    1f65 <str_lsize+0x35>
    1f4e:	66 90                	xchg   %ax,%ax
    1f50:	89 f8                	mov    %edi,%eax
    1f52:	85 d2                	test   %edx,%edx
    1f54:	74 4a                	je     1fa0 <str_lsize+0x70>
    1f56:	8b 75 f0             	mov    -0x10(%ebp),%esi
    1f59:	8b 55 0c             	mov    0xc(%ebp),%edx
    1f5c:	46                   	inc    %esi
    1f5d:	89 75 f0             	mov    %esi,-0x10(%ebp)
    1f60:	39 55 f0             	cmp    %edx,-0x10(%ebp)
    1f63:	74 3b                	je     1fa0 <str_lsize+0x70>
    1f65:	0f be 14 03          	movsbl (%ebx,%eax,1),%edx
    1f69:	8d 78 01             	lea    0x1(%eax),%edi
    1f6c:	84 d2                	test   %dl,%dl
    1f6e:	79 e0                	jns    1f50 <str_lsize+0x20>
    1f70:	88 d1                	mov    %dl,%cl
    1f72:	83 e1 e0             	and    $0xffffffe0,%ecx
    1f75:	80 f9 c0             	cmp    $0xc0,%cl
    1f78:	74 2e                	je     1fa8 <str_lsize+0x78>
    1f7a:	88 d1                	mov    %dl,%cl
    1f7c:	83 e1 f0             	and    $0xfffffff0,%ecx
    1f7f:	80 f9 e0             	cmp    $0xe0,%cl
    1f82:	74 7d                	je     2001 <str_lsize+0xd1>
    1f84:	88 d1                	mov    %dl,%cl
    1f86:	83 e1 f8             	and    $0xfffffff8,%ecx
    1f89:	80 f9 f0             	cmp    $0xf0,%cl
    1f8c:	74 7c                	je     200a <str_lsize+0xda>
    1f8e:	8b 75 f0             	mov    -0x10(%ebp),%esi
    1f91:	8b 55 0c             	mov    0xc(%ebp),%edx
    1f94:	46                   	inc    %esi
    1f95:	89 f8                	mov    %edi,%eax
    1f97:	89 75 f0             	mov    %esi,-0x10(%ebp)
    1f9a:	39 55 f0             	cmp    %edx,-0x10(%ebp)
    1f9d:	75 c6                	jne    1f65 <str_lsize+0x35>
    1f9f:	90                   	nop
    1fa0:	83 c4 0c             	add    $0xc,%esp
    1fa3:	5b                   	pop    %ebx
    1fa4:	5e                   	pop    %esi
    1fa5:	5f                   	pop    %edi
    1fa6:	5d                   	pop    %ebp
    1fa7:	c3                   	ret    
    1fa8:	b1 1f                	mov    $0x1f,%cl
    1faa:	be 01 00 00 00       	mov    $0x1,%esi
    1faf:	21 ca                	and    %ecx,%edx
    1fb1:	8a 0c 3b             	mov    (%ebx,%edi,1),%cl
    1fb4:	88 4d ee             	mov    %cl,-0x12(%ebp)
    1fb7:	83 e1 c0             	and    $0xffffffc0,%ecx
    1fba:	81 e2 ff 00 00 00    	and    $0xff,%edx
    1fc0:	83 c0 02             	add    $0x2,%eax
    1fc3:	80 f9 80             	cmp    $0x80,%cl
    1fc6:	75 8e                	jne    1f56 <str_lsize+0x26>
    1fc8:	01 f7                	add    %esi,%edi
    1fca:	8a 4d ee             	mov    -0x12(%ebp),%cl
    1fcd:	89 5d e8             	mov    %ebx,-0x18(%ebp)
    1fd0:	89 d6                	mov    %edx,%esi
    1fd2:	89 ca                	mov    %ecx,%edx
    1fd4:	c1 e6 06             	shl    $0x6,%esi
    1fd7:	83 e2 3f             	and    $0x3f,%edx
    1fda:	09 f2                	or     %esi,%edx
    1fdc:	8b 5d e8             	mov    -0x18(%ebp),%ebx
    1fdf:	39 f8                	cmp    %edi,%eax
    1fe1:	0f 84 6b ff ff ff    	je     1f52 <str_lsize+0x22>
    1fe7:	8a 0c 03             	mov    (%ebx,%eax,1),%cl
    1fea:	be c0 ff ff ff       	mov    $0xffffffc0,%esi
    1fef:	21 ce                	and    %ecx,%esi
    1ff1:	40                   	inc    %eax
    1ff2:	89 f3                	mov    %esi,%ebx
    1ff4:	80 fb 80             	cmp    $0x80,%bl
    1ff7:	74 d7                	je     1fd0 <str_lsize+0xa0>
    1ff9:	8b 5d e8             	mov    -0x18(%ebp),%ebx
    1ffc:	e9 55 ff ff ff       	jmp    1f56 <str_lsize+0x26>
    2001:	b1 0f                	mov    $0xf,%cl
    2003:	be 02 00 00 00       	mov    $0x2,%esi
    2008:	eb a5                	jmp    1faf <str_lsize+0x7f>
    200a:	b1 07                	mov    $0x7,%cl
    200c:	be 03 00 00 00       	mov    $0x3,%esi
    2011:	eb 9c                	jmp    1faf <str_lsize+0x7f>
    2013:	8d b6 00 00 00 00    	lea    0x0(%esi),%esi
    2019:	8d bc 27 00 00 00 00 	lea    0x0(%edi,%eiz,1),%edi

00002020 <str_nsize>:
    2020:	55                   	push   %ebp
    2021:	31 c0                	xor    %eax,%eax
    2023:	89 e5                	mov    %esp,%ebp
    2025:	8b 55 08             	mov    0x8(%ebp),%edx
    2028:	8b 4d 0c             	mov    0xc(%ebp),%ecx
    202b:	80 3a 00             	cmpb   $0x0,(%edx)
    202e:	74 13                	je     2043 <str_nsize+0x23>
    2030:	85 c9                	test   %ecx,%ecx
    2032:	75 08                	jne    203c <str_nsize+0x1c>
    2034:	eb 0d                	jmp    2043 <str_nsize+0x23>
    2036:	66 90                	xchg   %ax,%ax
    2038:	39 c8                	cmp    %ecx,%eax
    203a:	74 07                	je     2043 <str_nsize+0x23>
    203c:	40                   	inc    %eax
    203d:	80 3c 02 00          	cmpb   $0x0,(%edx,%eax,1)
    2041:	75 f5                	jne    2038 <str_nsize+0x18>
    2043:	5d                   	pop    %ebp
    2044:	c3                   	ret    
    2045:	8d 74 26 00          	lea    0x0(%esi,%eiz,1),%esi
    2049:	8d bc 27 00 00 00 00 	lea    0x0(%edi,%eiz,1),%edi

00002050 <wstr_nsize>:
    2050:	55                   	push   %ebp
    2051:	89 e5                	mov    %esp,%ebp
    2053:	53                   	push   %ebx
    2054:	8b 5d 0c             	mov    0xc(%ebp),%ebx
    2057:	8b 4d 08             	mov    0x8(%ebp),%ecx
    205a:	83 e3 fc             	and    $0xfffffffc,%ebx
    205d:	74 26                	je     2085 <wstr_nsize+0x35>
    205f:	8b 01                	mov    (%ecx),%eax
    2061:	85 c0                	test   %eax,%eax
    2063:	74 20                	je     2085 <wstr_nsize+0x35>
    2065:	31 d2                	xor    %edx,%edx
    2067:	eb 0d                	jmp    2076 <wstr_nsize+0x26>
    2069:	8d b4 26 00 00 00 00 	lea    0x0(%esi,%eiz,1),%esi
    2070:	83 3c 91 00          	cmpl   $0x0,(%ecx,%edx,4)
    2074:	74 0c                	je     2082 <wstr_nsize+0x32>
    2076:	42                   	inc    %edx
    2077:	8d 04 95 00 00 00 00 	lea    0x0(,%edx,4),%eax
    207e:	39 c3                	cmp    %eax,%ebx
    2080:	77 ee                	ja     2070 <wstr_nsize+0x20>
    2082:	5b                   	pop    %ebx
    2083:	5d                   	pop    %ebp
    2084:	c3                   	ret    
    2085:	31 c0                	xor    %eax,%eax
    2087:	eb f9                	jmp    2082 <wstr_nsize+0x32>
    2089:	8d b4 26 00 00 00 00 	lea    0x0(%esi,%eiz,1),%esi

00002090 <wstr_lsize>:
    2090:	55                   	push   %ebp
    2091:	89 e5                	mov    %esp,%ebp
    2093:	53                   	push   %ebx
    2094:	8b 5d 0c             	mov    0xc(%ebp),%ebx
    2097:	8b 4d 08             	mov    0x8(%ebp),%ecx
    209a:	c1 e3 02             	shl    $0x2,%ebx
    209d:	74 26                	je     20c5 <wstr_lsize+0x35>
    209f:	8b 01                	mov    (%ecx),%eax
    20a1:	85 c0                	test   %eax,%eax
    20a3:	74 20                	je     20c5 <wstr_lsize+0x35>
    20a5:	31 d2                	xor    %edx,%edx
    20a7:	eb 0d                	jmp    20b6 <wstr_lsize+0x26>
    20a9:	8d b4 26 00 00 00 00 	lea    0x0(%esi,%eiz,1),%esi
    20b0:	83 3c 91 00          	cmpl   $0x0,(%ecx,%edx,4)
    20b4:	74 0c                	je     20c2 <wstr_lsize+0x32>
    20b6:	42                   	inc    %edx
    20b7:	8d 04 95 00 00 00 00 	lea    0x0(,%edx,4),%eax
    20be:	39 c3                	cmp    %eax,%ebx
    20c0:	77 ee                	ja     20b0 <wstr_lsize+0x20>
    20c2:	5b                   	pop    %ebx
    20c3:	5d                   	pop    %ebp
    20c4:	c3                   	ret    
    20c5:	31 c0                	xor    %eax,%eax
    20c7:	eb f9                	jmp    20c2 <wstr_lsize+0x32>
    20c9:	8d b4 26 00 00 00 00 	lea    0x0(%esi,%eiz,1),%esi

000020d0 <str_length>:
    20d0:	55                   	push   %ebp
    20d1:	89 e5                	mov    %esp,%ebp
    20d3:	57                   	push   %edi
    20d4:	56                   	push   %esi
    20d5:	53                   	push   %ebx
    20d6:	83 ec 0c             	sub    $0xc,%esp
    20d9:	31 ff                	xor    %edi,%edi
    20db:	8b 5d 08             	mov    0x8(%ebp),%ebx
    20de:	c7 45 f0 00 00 00 00 	movl   $0x0,-0x10(%ebp)
    20e5:	eb 0e                	jmp    20f5 <str_length+0x25>
    20e7:	90                   	nop
    20e8:	85 c0                	test   %eax,%eax
    20ea:	74 3b                	je     2127 <str_length+0x57>
    20ec:	89 d7                	mov    %edx,%edi
    20ee:	8b 55 f0             	mov    -0x10(%ebp),%edx
    20f1:	42                   	inc    %edx
    20f2:	89 55 f0             	mov    %edx,-0x10(%ebp)
    20f5:	0f be 04 3b          	movsbl (%ebx,%edi,1),%eax
    20f9:	8d 57 01             	lea    0x1(%edi),%edx
    20fc:	84 c0                	test   %al,%al
    20fe:	79 e8                	jns    20e8 <str_length+0x18>
    2100:	88 c1                	mov    %al,%cl
    2102:	83 e1 e0             	and    $0xffffffe0,%ecx
    2105:	80 f9 c0             	cmp    $0xc0,%cl
    2108:	74 28                	je     2132 <str_length+0x62>
    210a:	88 c1                	mov    %al,%cl
    210c:	83 e1 f0             	and    $0xfffffff0,%ecx
    210f:	80 f9 e0             	cmp    $0xe0,%cl
    2112:	74 7d                	je     2191 <str_length+0xc1>
    2114:	88 c1                	mov    %al,%cl
    2116:	83 e1 f8             	and    $0xfffffff8,%ecx
    2119:	80 f9 f0             	cmp    $0xf0,%cl
    211c:	75 ce                	jne    20ec <str_length+0x1c>
    211e:	b1 07                	mov    $0x7,%cl
    2120:	be 03 00 00 00       	mov    $0x3,%esi
    2125:	eb 12                	jmp    2139 <str_length+0x69>
    2127:	8b 45 f0             	mov    -0x10(%ebp),%eax
    212a:	83 c4 0c             	add    $0xc,%esp
    212d:	5b                   	pop    %ebx
    212e:	5e                   	pop    %esi
    212f:	5f                   	pop    %edi
    2130:	5d                   	pop    %ebp
    2131:	c3                   	ret    
    2132:	b1 1f                	mov    $0x1f,%cl
    2134:	be 01 00 00 00       	mov    $0x1,%esi
    2139:	21 c8                	and    %ecx,%eax
    213b:	8a 0c 13             	mov    (%ebx,%edx,1),%cl
    213e:	83 c7 02             	add    $0x2,%edi
    2141:	88 4d eb             	mov    %cl,-0x15(%ebp)
    2144:	83 e1 c0             	and    $0xffffffc0,%ecx
    2147:	25 ff 00 00 00       	and    $0xff,%eax
    214c:	89 7d ec             	mov    %edi,-0x14(%ebp)
    214f:	80 f9 80             	cmp    $0x80,%cl
    2152:	75 46                	jne    219a <str_length+0xca>
    2154:	8d 3c 32             	lea    (%edx,%esi,1),%edi
    2157:	8a 4d eb             	mov    -0x15(%ebp),%cl
    215a:	8b 55 ec             	mov    -0x14(%ebp),%edx
    215d:	89 5d ec             	mov    %ebx,-0x14(%ebp)
    2160:	89 c6                	mov    %eax,%esi
    2162:	89 c8                	mov    %ecx,%eax
    2164:	c1 e6 06             	shl    $0x6,%esi
    2167:	83 e0 3f             	and    $0x3f,%eax
    216a:	09 f0                	or     %esi,%eax
    216c:	8b 5d ec             	mov    -0x14(%ebp),%ebx
    216f:	39 fa                	cmp    %edi,%edx
    2171:	0f 84 71 ff ff ff    	je     20e8 <str_length+0x18>
    2177:	8a 0c 13             	mov    (%ebx,%edx,1),%cl
    217a:	be c0 ff ff ff       	mov    $0xffffffc0,%esi
    217f:	21 ce                	and    %ecx,%esi
    2181:	42                   	inc    %edx
    2182:	89 f3                	mov    %esi,%ebx
    2184:	80 fb 80             	cmp    $0x80,%bl
    2187:	74 d7                	je     2160 <str_length+0x90>
    2189:	8b 5d ec             	mov    -0x14(%ebp),%ebx
    218c:	e9 5b ff ff ff       	jmp    20ec <str_length+0x1c>
    2191:	b1 0f                	mov    $0xf,%cl
    2193:	be 02 00 00 00       	mov    $0x2,%esi
    2198:	eb 9f                	jmp    2139 <str_length+0x69>
    219a:	89 fa                	mov    %edi,%edx
    219c:	e9 4b ff ff ff       	jmp    20ec <str_length+0x1c>
    21a1:	eb 0d                	jmp    21b0 <wstr_length>
    21a3:	90                   	nop
    21a4:	90                   	nop
    21a5:	90                   	nop
    21a6:	90                   	nop
    21a7:	90                   	nop
    21a8:	90                   	nop
    21a9:	90                   	nop
    21aa:	90                   	nop
    21ab:	90                   	nop
    21ac:	90                   	nop
    21ad:	90                   	nop
    21ae:	90                   	nop
    21af:	90                   	nop

000021b0 <wstr_length>:
    21b0:	55                   	push   %ebp
    21b1:	31 c0                	xor    %eax,%eax
    21b3:	89 e5                	mov    %esp,%ebp
    21b5:	8b 55 08             	mov    0x8(%ebp),%edx
    21b8:	8b 0a                	mov    (%edx),%ecx
    21ba:	85 c9                	test   %ecx,%ecx
    21bc:	74 0a                	je     21c8 <wstr_length+0x18>
    21be:	66 90                	xchg   %ax,%ax
    21c0:	40                   	inc    %eax
    21c1:	8b 0c 82             	mov    (%edx,%eax,4),%ecx
    21c4:	85 c9                	test   %ecx,%ecx
    21c6:	75 f8                	jne    21c0 <wstr_length+0x10>
    21c8:	5d                   	pop    %ebp
    21c9:	c3                   	ret    
    21ca:	8d b6 00 00 00 00    	lea    0x0(%esi),%esi

000021d0 <str_nlength>:
    21d0:	55                   	push   %ebp
    21d1:	89 e5                	mov    %esp,%ebp
    21d3:	57                   	push   %edi
    21d4:	56                   	push   %esi
    21d5:	53                   	push   %ebx
    21d6:	57                   	push   %edi
    21d7:	c7 45 f0 00 00 00 00 	movl   $0x0,-0x10(%ebp)
    21de:	8b 45 0c             	mov    0xc(%ebp),%eax
    21e1:	8b 7d 08             	mov    0x8(%ebp),%edi
    21e4:	85 c0                	test   %eax,%eax
    21e6:	74 2c                	je     2214 <str_nlength+0x44>
    21e8:	bb 01 00 00 00       	mov    $0x1,%ebx
    21ed:	31 c0                	xor    %eax,%eax
    21ef:	90                   	nop
    21f0:	8a 04 07             	mov    (%edi,%eax,1),%al
    21f3:	84 c0                	test   %al,%al
    21f5:	78 79                	js     2270 <str_nlength+0xa0>
    21f7:	b2 7f                	mov    $0x7f,%dl
    21f9:	31 c9                	xor    %ecx,%ecx
    21fb:	8d 34 19             	lea    (%ecx,%ebx,1),%esi
    21fe:	39 75 0c             	cmp    %esi,0xc(%ebp)
    2201:	73 1d                	jae    2220 <str_nlength+0x50>
    2203:	89 d8                	mov    %ebx,%eax
    2205:	8b 75 f0             	mov    -0x10(%ebp),%esi
    2208:	8d 58 01             	lea    0x1(%eax),%ebx
    220b:	46                   	inc    %esi
    220c:	39 5d 0c             	cmp    %ebx,0xc(%ebp)
    220f:	89 75 f0             	mov    %esi,-0x10(%ebp)
    2212:	73 dc                	jae    21f0 <str_nlength+0x20>
    2214:	8b 45 f0             	mov    -0x10(%ebp),%eax
    2217:	5b                   	pop    %ebx
    2218:	5b                   	pop    %ebx
    2219:	5e                   	pop    %esi
    221a:	5f                   	pop    %edi
    221b:	5d                   	pop    %ebp
    221c:	c3                   	ret    
    221d:	8d 76 00             	lea    0x0(%esi),%esi
    2220:	21 c2                	and    %eax,%edx
    2222:	81 e2 ff 00 00 00    	and    $0xff,%edx
    2228:	85 c9                	test   %ecx,%ecx
    222a:	0f 84 94 00 00 00    	je     22c4 <str_nlength+0xf4>
    2230:	8a 0c 1f             	mov    (%edi,%ebx,1),%cl
    2233:	8d 43 01             	lea    0x1(%ebx),%eax
    2236:	88 cb                	mov    %cl,%bl
    2238:	83 e3 c0             	and    $0xffffffc0,%ebx
    223b:	80 fb 80             	cmp    $0x80,%bl
    223e:	74 16                	je     2256 <str_nlength+0x86>
    2240:	eb 5e                	jmp    22a0 <str_nlength+0xd0>
    2242:	8d b6 00 00 00 00    	lea    0x0(%esi),%esi
    2248:	8a 0c 07             	mov    (%edi,%eax,1),%cl
    224b:	40                   	inc    %eax
    224c:	88 cb                	mov    %cl,%bl
    224e:	83 e3 c0             	and    $0xffffffc0,%ebx
    2251:	80 fb 80             	cmp    $0x80,%bl
    2254:	75 4a                	jne    22a0 <str_nlength+0xd0>
    2256:	89 d3                	mov    %edx,%ebx
    2258:	89 ca                	mov    %ecx,%edx
    225a:	c1 e3 06             	shl    $0x6,%ebx
    225d:	83 e2 3f             	and    $0x3f,%edx
    2260:	09 da                	or     %ebx,%edx
    2262:	39 c6                	cmp    %eax,%esi
    2264:	75 e2                	jne    2248 <str_nlength+0x78>
    2266:	85 d2                	test   %edx,%edx
    2268:	75 9b                	jne    2205 <str_nlength+0x35>
    226a:	eb a8                	jmp    2214 <str_nlength+0x44>
    226c:	8d 74 26 00          	lea    0x0(%esi,%eiz,1),%esi
    2270:	88 c2                	mov    %al,%dl
    2272:	83 e2 e0             	and    $0xffffffe0,%edx
    2275:	80 fa c0             	cmp    $0xc0,%dl
    2278:	74 2e                	je     22a8 <str_nlength+0xd8>
    227a:	88 c2                	mov    %al,%dl
    227c:	83 e2 f0             	and    $0xfffffff0,%edx
    227f:	80 fa e0             	cmp    $0xe0,%dl
    2282:	74 34                	je     22b8 <str_nlength+0xe8>
    2284:	88 c2                	mov    %al,%dl
    2286:	83 e2 f8             	and    $0xfffffff8,%edx
    2289:	80 fa f0             	cmp    $0xf0,%dl
    228c:	0f 85 71 ff ff ff    	jne    2203 <str_nlength+0x33>
    2292:	b2 07                	mov    $0x7,%dl
    2294:	b9 03 00 00 00       	mov    $0x3,%ecx
    2299:	e9 5d ff ff ff       	jmp    21fb <str_nlength+0x2b>
    229e:	66 90                	xchg   %ax,%ax
    22a0:	89 c3                	mov    %eax,%ebx
    22a2:	e9 5c ff ff ff       	jmp    2203 <str_nlength+0x33>
    22a7:	90                   	nop
    22a8:	b2 1f                	mov    $0x1f,%dl
    22aa:	b9 01 00 00 00       	mov    $0x1,%ecx
    22af:	e9 47 ff ff ff       	jmp    21fb <str_nlength+0x2b>
    22b4:	8d 74 26 00          	lea    0x0(%esi,%eiz,1),%esi
    22b8:	b2 0f                	mov    $0xf,%dl
    22ba:	b9 02 00 00 00       	mov    $0x2,%ecx
    22bf:	e9 37 ff ff ff       	jmp    21fb <str_nlength+0x2b>
    22c4:	89 d8                	mov    %ebx,%eax
    22c6:	eb 9e                	jmp    2266 <str_nlength+0x96>
    22c8:	90                   	nop
    22c9:	8d b4 26 00 00 00 00 	lea    0x0(%esi,%eiz,1),%esi

000022d0 <wstr_nlength>:
    22d0:	55                   	push   %ebp
    22d1:	31 c0                	xor    %eax,%eax
    22d3:	89 e5                	mov    %esp,%ebp
    22d5:	53                   	push   %ebx
    22d6:	8b 5d 0c             	mov    0xc(%ebp),%ebx
    22d9:	8b 4d 08             	mov    0x8(%ebp),%ecx
    22dc:	83 e3 fc             	and    $0xfffffffc,%ebx
    22df:	74 22                	je     2303 <wstr_nlength+0x33>
    22e1:	8b 11                	mov    (%ecx),%edx
    22e3:	85 d2                	test   %edx,%edx
    22e5:	75 10                	jne    22f7 <wstr_nlength+0x27>
    22e7:	eb 1a                	jmp    2303 <wstr_nlength+0x33>
    22e9:	8d b4 26 00 00 00 00 	lea    0x0(%esi,%eiz,1),%esi
    22f0:	8b 14 81             	mov    (%ecx,%eax,4),%edx
    22f3:	85 d2                	test   %edx,%edx
    22f5:	74 0c                	je     2303 <wstr_nlength+0x33>
    22f7:	40                   	inc    %eax
    22f8:	8d 14 85 00 00 00 00 	lea    0x0(,%eax,4),%edx
    22ff:	39 da                	cmp    %ebx,%edx
    2301:	72 ed                	jb     22f0 <wstr_nlength+0x20>
    2303:	5b                   	pop    %ebx
    2304:	5d                   	pop    %ebp
    2305:	c3                   	ret    
    2306:	8d 76 00             	lea    0x0(%esi),%esi
    2309:	8d bc 27 00 00 00 00 	lea    0x0(%edi,%eiz,1),%edi

00002310 <chr_width>:
    2310:	55                   	push   %ebp
    2311:	b8 01 00 00 00       	mov    $0x1,%eax
    2316:	89 e5                	mov    %esp,%ebp
    2318:	5d                   	pop    %ebp
    2319:	c3                   	ret    
    231a:	8d b6 00 00 00 00    	lea    0x0(%esi),%esi

00002320 <str_width>:
    2320:	55                   	push   %ebp
    2321:	89 e5                	mov    %esp,%ebp
    2323:	57                   	push   %edi
    2324:	56                   	push   %esi
    2325:	53                   	push   %ebx
    2326:	83 ec 0c             	sub    $0xc,%esp
    2329:	31 ff                	xor    %edi,%edi
    232b:	8b 5d 08             	mov    0x8(%ebp),%ebx
    232e:	c7 45 f0 00 00 00 00 	movl   $0x0,-0x10(%ebp)
    2335:	eb 0e                	jmp    2345 <str_width+0x25>
    2337:	90                   	nop
    2338:	85 c0                	test   %eax,%eax
    233a:	74 3b                	je     2377 <str_width+0x57>
    233c:	8b 4d f0             	mov    -0x10(%ebp),%ecx
    233f:	89 d7                	mov    %edx,%edi
    2341:	41                   	inc    %ecx
    2342:	89 4d f0             	mov    %ecx,-0x10(%ebp)
    2345:	0f be 04 3b          	movsbl (%ebx,%edi,1),%eax
    2349:	8d 57 01             	lea    0x1(%edi),%edx
    234c:	84 c0                	test   %al,%al
    234e:	79 e8                	jns    2338 <str_width+0x18>
    2350:	88 c1                	mov    %al,%cl
    2352:	83 e1 e0             	and    $0xffffffe0,%ecx
    2355:	80 f9 c0             	cmp    $0xc0,%cl
    2358:	74 28                	je     2382 <str_width+0x62>
    235a:	88 c1                	mov    %al,%cl
    235c:	83 e1 f0             	and    $0xfffffff0,%ecx
    235f:	80 f9 e0             	cmp    $0xe0,%cl
    2362:	74 7d                	je     23e1 <str_width+0xc1>
    2364:	88 c1                	mov    %al,%cl
    2366:	83 e1 f8             	and    $0xfffffff8,%ecx
    2369:	80 f9 f0             	cmp    $0xf0,%cl
    236c:	75 ce                	jne    233c <str_width+0x1c>
    236e:	b1 07                	mov    $0x7,%cl
    2370:	be 03 00 00 00       	mov    $0x3,%esi
    2375:	eb 12                	jmp    2389 <str_width+0x69>
    2377:	8b 45 f0             	mov    -0x10(%ebp),%eax
    237a:	83 c4 0c             	add    $0xc,%esp
    237d:	5b                   	pop    %ebx
    237e:	5e                   	pop    %esi
    237f:	5f                   	pop    %edi
    2380:	5d                   	pop    %ebp
    2381:	c3                   	ret    
    2382:	b1 1f                	mov    $0x1f,%cl
    2384:	be 01 00 00 00       	mov    $0x1,%esi
    2389:	21 c8                	and    %ecx,%eax
    238b:	8a 0c 13             	mov    (%ebx,%edx,1),%cl
    238e:	83 c7 02             	add    $0x2,%edi
    2391:	88 4d eb             	mov    %cl,-0x15(%ebp)
    2394:	83 e1 c0             	and    $0xffffffc0,%ecx
    2397:	25 ff 00 00 00       	and    $0xff,%eax
    239c:	89 7d ec             	mov    %edi,-0x14(%ebp)
    239f:	80 f9 80             	cmp    $0x80,%cl
    23a2:	75 46                	jne    23ea <str_width+0xca>
    23a4:	8d 3c 32             	lea    (%edx,%esi,1),%edi
    23a7:	8a 4d eb             	mov    -0x15(%ebp),%cl
    23aa:	8b 55 ec             	mov    -0x14(%ebp),%edx
    23ad:	89 5d ec             	mov    %ebx,-0x14(%ebp)
    23b0:	89 c6                	mov    %eax,%esi
    23b2:	89 c8                	mov    %ecx,%eax
    23b4:	c1 e6 06             	shl    $0x6,%esi
    23b7:	83 e0 3f             	and    $0x3f,%eax
    23ba:	09 f0                	or     %esi,%eax
    23bc:	8b 5d ec             	mov    -0x14(%ebp),%ebx
    23bf:	39 fa                	cmp    %edi,%edx
    23c1:	0f 84 71 ff ff ff    	je     2338 <str_width+0x18>
    23c7:	8a 0c 13             	mov    (%ebx,%edx,1),%cl
    23ca:	be c0 ff ff ff       	mov    $0xffffffc0,%esi
    23cf:	21 ce                	and    %ecx,%esi
    23d1:	42                   	inc    %edx
    23d2:	89 f3                	mov    %esi,%ebx
    23d4:	80 fb 80             	cmp    $0x80,%bl
    23d7:	74 d7                	je     23b0 <str_width+0x90>
    23d9:	8b 5d ec             	mov    -0x14(%ebp),%ebx
    23dc:	e9 5b ff ff ff       	jmp    233c <str_width+0x1c>
    23e1:	b1 0f                	mov    $0xf,%cl
    23e3:	be 02 00 00 00       	mov    $0x2,%esi
    23e8:	eb 9f                	jmp    2389 <str_width+0x69>
    23ea:	89 fa                	mov    %edi,%edx
    23ec:	e9 4b ff ff ff       	jmp    233c <str_width+0x1c>
    23f1:	eb 0d                	jmp    2400 <ascii_check>
    23f3:	90                   	nop
    23f4:	90                   	nop
    23f5:	90                   	nop
    23f6:	90                   	nop
    23f7:	90                   	nop
    23f8:	90                   	nop
    23f9:	90                   	nop
    23fa:	90                   	nop
    23fb:	90                   	nop
    23fc:	90                   	nop
    23fd:	90                   	nop
    23fe:	90                   	nop
    23ff:	90                   	nop

00002400 <ascii_check>:
    2400:	55                   	push   %ebp
    2401:	89 e5                	mov    %esp,%ebp
    2403:	83 7d 08 7f          	cmpl   $0x7f,0x8(%ebp)
    2407:	5d                   	pop    %ebp
    2408:	0f 96 c0             	setbe  %al
    240b:	c3                   	ret    
    240c:	8d 74 26 00          	lea    0x0(%esi,%eiz,1),%esi

00002410 <chr_check>:
    2410:	55                   	push   %ebp
    2411:	89 e5                	mov    %esp,%ebp
    2413:	81 7d 08 ff ff 10 00 	cmpl   $0x10ffff,0x8(%ebp)
    241a:	5d                   	pop    %ebp
    241b:	0f 96 c0             	setbe  %al
    241e:	c3                   	ret    
    241f:	90                   	nop

00002420 <str_cmp>:
    2420:	55                   	push   %ebp
    2421:	31 c9                	xor    %ecx,%ecx
    2423:	89 e5                	mov    %esp,%ebp
    2425:	57                   	push   %edi
    2426:	56                   	push   %esi
    2427:	31 f6                	xor    %esi,%esi
    2429:	53                   	push   %ebx
    242a:	89 f7                	mov    %esi,%edi
    242c:	83 ec 0c             	sub    $0xc,%esp
    242f:	eb 39                	jmp    246a <str_cmp+0x4a>
    2431:	8d b4 26 00 00 00 00 	lea    0x0(%esi,%eiz,1),%esi
    2438:	89 f1                	mov    %esi,%ecx
    243a:	8b 45 0c             	mov    0xc(%ebp),%eax
    243d:	8d 77 01             	lea    0x1(%edi),%esi
    2440:	8a 1c 38             	mov    (%eax,%edi,1),%bl
    2443:	84 db                	test   %bl,%bl
    2445:	78 69                	js     24b0 <str_cmp+0x90>
    2447:	0f be c3             	movsbl %bl,%eax
    244a:	89 f7                	mov    %esi,%edi
    244c:	39 c2                	cmp    %eax,%edx
    244e:	0f 8c 92 00 00 00    	jl     24e6 <str_cmp+0xc6>
    2454:	0f 8f a2 01 00 00    	jg     25fc <str_cmp+0x1dc>
    245a:	85 c0                	test   %eax,%eax
    245c:	0f 84 a7 01 00 00    	je     2609 <str_cmp+0x1e9>
    2462:	85 d2                	test   %edx,%edx
    2464:	0f 84 9f 01 00 00    	je     2609 <str_cmp+0x1e9>
    246a:	8b 45 08             	mov    0x8(%ebp),%eax
    246d:	8d 71 01             	lea    0x1(%ecx),%esi
    2470:	0f be 14 08          	movsbl (%eax,%ecx,1),%edx
    2474:	84 d2                	test   %dl,%dl
    2476:	79 c0                	jns    2438 <str_cmp+0x18>
    2478:	88 d0                	mov    %dl,%al
    247a:	83 e0 e0             	and    $0xffffffe0,%eax
    247d:	3c c0                	cmp    $0xc0,%al
    247f:	74 70                	je     24f1 <str_cmp+0xd1>
    2481:	88 d0                	mov    %dl,%al
    2483:	83 e0 f0             	and    $0xfffffff0,%eax
    2486:	3c e0                	cmp    $0xe0,%al
    2488:	0f 84 52 01 00 00    	je     25e0 <str_cmp+0x1c0>
    248e:	88 d0                	mov    %dl,%al
    2490:	83 e0 f8             	and    $0xfffffff8,%eax
    2493:	3c f0                	cmp    $0xf0,%al
    2495:	0f 84 86 01 00 00    	je     2621 <str_cmp+0x201>
    249b:	8b 45 0c             	mov    0xc(%ebp),%eax
    249e:	89 f1                	mov    %esi,%ecx
    24a0:	ba 3f 00 00 00       	mov    $0x3f,%edx
    24a5:	8d 77 01             	lea    0x1(%edi),%esi
    24a8:	8a 1c 38             	mov    (%eax,%edi,1),%bl
    24ab:	84 db                	test   %bl,%bl
    24ad:	79 98                	jns    2447 <str_cmp+0x27>
    24af:	90                   	nop
    24b0:	88 d8                	mov    %bl,%al
    24b2:	83 e0 e0             	and    $0xffffffe0,%eax
    24b5:	3c c0                	cmp    $0xc0,%al
    24b7:	0f 84 a0 00 00 00    	je     255d <str_cmp+0x13d>
    24bd:	88 d8                	mov    %bl,%al
    24bf:	83 e0 f0             	and    $0xfffffff0,%eax
    24c2:	3c e0                	cmp    $0xe0,%al
    24c4:	0f 84 24 01 00 00    	je     25ee <str_cmp+0x1ce>
    24ca:	88 d8                	mov    %bl,%al
    24cc:	83 e0 f8             	and    $0xfffffff8,%eax
    24cf:	3c f0                	cmp    $0xf0,%al
    24d1:	0f 84 3c 01 00 00    	je     2613 <str_cmp+0x1f3>
    24d7:	b8 3f 00 00 00       	mov    $0x3f,%eax
    24dc:	89 f7                	mov    %esi,%edi
    24de:	39 c2                	cmp    %eax,%edx
    24e0:	0f 8d 6e ff ff ff    	jge    2454 <str_cmp+0x34>
    24e6:	83 c4 0c             	add    $0xc,%esp
    24e9:	83 c8 ff             	or     $0xffffffff,%eax
    24ec:	5b                   	pop    %ebx
    24ed:	5e                   	pop    %esi
    24ee:	5f                   	pop    %edi
    24ef:	5d                   	pop    %ebp
    24f0:	c3                   	ret    
    24f1:	b0 1f                	mov    $0x1f,%al
    24f3:	c7 45 ec 01 00 00 00 	movl   $0x1,-0x14(%ebp)
    24fa:	8b 5d 08             	mov    0x8(%ebp),%ebx
    24fd:	21 c2                	and    %eax,%edx
    24ff:	81 e2 ff 00 00 00    	and    $0xff,%edx
    2505:	83 c1 02             	add    $0x2,%ecx
    2508:	8a 04 33             	mov    (%ebx,%esi,1),%al
    250b:	88 c3                	mov    %al,%bl
    250d:	83 e3 c0             	and    $0xffffffc0,%ebx
    2510:	80 fb 80             	cmp    $0x80,%bl
    2513:	0f 85 20 01 00 00    	jne    2639 <str_cmp+0x219>
    2519:	8b 5d ec             	mov    -0x14(%ebp),%ebx
    251c:	89 7d f0             	mov    %edi,-0x10(%ebp)
    251f:	01 de                	add    %ebx,%esi
    2521:	8b 7d 08             	mov    0x8(%ebp),%edi
    2524:	eb 10                	jmp    2536 <str_cmp+0x116>
    2526:	66 90                	xchg   %ax,%ax
    2528:	8a 04 0f             	mov    (%edi,%ecx,1),%al
    252b:	41                   	inc    %ecx
    252c:	88 c3                	mov    %al,%bl
    252e:	83 e3 c0             	and    $0xffffffc0,%ebx
    2531:	80 fb 80             	cmp    $0x80,%bl
    2534:	75 1a                	jne    2550 <str_cmp+0x130>
    2536:	89 d3                	mov    %edx,%ebx
    2538:	89 c2                	mov    %eax,%edx
    253a:	c1 e3 06             	shl    $0x6,%ebx
    253d:	83 e2 3f             	and    $0x3f,%edx
    2540:	09 da                	or     %ebx,%edx
    2542:	39 f1                	cmp    %esi,%ecx
    2544:	75 e2                	jne    2528 <str_cmp+0x108>
    2546:	8b 7d f0             	mov    -0x10(%ebp),%edi
    2549:	e9 ec fe ff ff       	jmp    243a <str_cmp+0x1a>
    254e:	66 90                	xchg   %ax,%ax
    2550:	8b 7d f0             	mov    -0x10(%ebp),%edi
    2553:	ba 3f 00 00 00       	mov    $0x3f,%edx
    2558:	e9 dd fe ff ff       	jmp    243a <str_cmp+0x1a>
    255d:	b0 1f                	mov    $0x1f,%al
    255f:	c7 45 ec 01 00 00 00 	movl   $0x1,-0x14(%ebp)
    2566:	21 c3                	and    %eax,%ebx
    2568:	31 c0                	xor    %eax,%eax
    256a:	88 d8                	mov    %bl,%al
    256c:	8b 5d 0c             	mov    0xc(%ebp),%ebx
    256f:	83 c7 02             	add    $0x2,%edi
    2572:	8a 1c 33             	mov    (%ebx,%esi,1),%bl
    2575:	88 5d eb             	mov    %bl,-0x15(%ebp)
    2578:	83 e3 c0             	and    $0xffffffc0,%ebx
    257b:	80 fb 80             	cmp    $0x80,%bl
    257e:	0f 85 ab 00 00 00    	jne    262f <str_cmp+0x20f>
    2584:	8b 5d ec             	mov    -0x14(%ebp),%ebx
    2587:	89 4d f0             	mov    %ecx,-0x10(%ebp)
    258a:	01 de                	add    %ebx,%esi
    258c:	89 55 ec             	mov    %edx,-0x14(%ebp)
    258f:	89 f1                	mov    %esi,%ecx
    2591:	8a 5d eb             	mov    -0x15(%ebp),%bl
    2594:	8b 75 0c             	mov    0xc(%ebp),%esi
    2597:	eb 15                	jmp    25ae <str_cmp+0x18e>
    2599:	8d b4 26 00 00 00 00 	lea    0x0(%esi,%eiz,1),%esi
    25a0:	8a 1c 3e             	mov    (%esi,%edi,1),%bl
    25a3:	47                   	inc    %edi
    25a4:	88 da                	mov    %bl,%dl
    25a6:	83 e2 c0             	and    $0xffffffc0,%edx
    25a9:	80 fa 80             	cmp    $0x80,%dl
    25ac:	75 22                	jne    25d0 <str_cmp+0x1b0>
    25ae:	89 c2                	mov    %eax,%edx
    25b0:	89 d8                	mov    %ebx,%eax
    25b2:	c1 e2 06             	shl    $0x6,%edx
    25b5:	83 e0 3f             	and    $0x3f,%eax
    25b8:	09 d0                	or     %edx,%eax
    25ba:	39 cf                	cmp    %ecx,%edi
    25bc:	75 e2                	jne    25a0 <str_cmp+0x180>
    25be:	8b 4d f0             	mov    -0x10(%ebp),%ecx
    25c1:	8b 55 ec             	mov    -0x14(%ebp),%edx
    25c4:	e9 83 fe ff ff       	jmp    244c <str_cmp+0x2c>
    25c9:	8d b4 26 00 00 00 00 	lea    0x0(%esi,%eiz,1),%esi
    25d0:	8b 4d f0             	mov    -0x10(%ebp),%ecx
    25d3:	8b 55 ec             	mov    -0x14(%ebp),%edx
    25d6:	b8 3f 00 00 00       	mov    $0x3f,%eax
    25db:	e9 6c fe ff ff       	jmp    244c <str_cmp+0x2c>
    25e0:	b0 0f                	mov    $0xf,%al
    25e2:	c7 45 ec 02 00 00 00 	movl   $0x2,-0x14(%ebp)
    25e9:	e9 0c ff ff ff       	jmp    24fa <str_cmp+0xda>
    25ee:	b0 0f                	mov    $0xf,%al
    25f0:	c7 45 ec 02 00 00 00 	movl   $0x2,-0x14(%ebp)
    25f7:	e9 6a ff ff ff       	jmp    2566 <str_cmp+0x146>
    25fc:	83 c4 0c             	add    $0xc,%esp
    25ff:	b8 01 00 00 00       	mov    $0x1,%eax
    2604:	5b                   	pop    %ebx
    2605:	5e                   	pop    %esi
    2606:	5f                   	pop    %edi
    2607:	5d                   	pop    %ebp
    2608:	c3                   	ret    
    2609:	83 c4 0c             	add    $0xc,%esp
    260c:	31 c0                	xor    %eax,%eax
    260e:	5b                   	pop    %ebx
    260f:	5e                   	pop    %esi
    2610:	5f                   	pop    %edi
    2611:	5d                   	pop    %ebp
    2612:	c3                   	ret    
    2613:	b0 07                	mov    $0x7,%al
    2615:	c7 45 ec 03 00 00 00 	movl   $0x3,-0x14(%ebp)
    261c:	e9 45 ff ff ff       	jmp    2566 <str_cmp+0x146>
    2621:	b0 07                	mov    $0x7,%al
    2623:	c7 45 ec 03 00 00 00 	movl   $0x3,-0x14(%ebp)
    262a:	e9 cb fe ff ff       	jmp    24fa <str_cmp+0xda>
    262f:	b8 3f 00 00 00       	mov    $0x3f,%eax
    2634:	e9 13 fe ff ff       	jmp    244c <str_cmp+0x2c>
    2639:	ba 3f 00 00 00       	mov    $0x3f,%edx
    263e:	e9 f7 fd ff ff       	jmp    243a <str_cmp+0x1a>
    2643:	8d b6 00 00 00 00    	lea    0x0(%esi),%esi
    2649:	8d bc 27 00 00 00 00 	lea    0x0(%edi,%eiz,1),%edi

00002650 <str_lcmp>:
    2650:	55                   	push   %ebp
    2651:	89 e5                	mov    %esp,%ebp
    2653:	57                   	push   %edi
    2654:	56                   	push   %esi
    2655:	53                   	push   %ebx
    2656:	83 ec 10             	sub    $0x10,%esp
    2659:	8b 75 10             	mov    0x10(%ebp),%esi
    265c:	85 f6                	test   %esi,%esi
    265e:	0f 84 ed 01 00 00    	je     2851 <str_lcmp+0x201>
    2664:	31 ff                	xor    %edi,%edi
    2666:	31 f6                	xor    %esi,%esi
    2668:	c7 45 f0 00 00 00 00 	movl   $0x0,-0x10(%ebp)
    266f:	eb 4e                	jmp    26bf <str_lcmp+0x6f>
    2671:	8d b4 26 00 00 00 00 	lea    0x0(%esi,%eiz,1),%esi
    2678:	89 de                	mov    %ebx,%esi
    267a:	8b 4d 0c             	mov    0xc(%ebp),%ecx
    267d:	8d 5f 01             	lea    0x1(%edi),%ebx
    2680:	0f be 04 39          	movsbl (%ecx,%edi,1),%eax
    2684:	84 c0                	test   %al,%al
    2686:	0f 88 7c 00 00 00    	js     2708 <str_lcmp+0xb8>
    268c:	89 df                	mov    %ebx,%edi
    268e:	39 c2                	cmp    %eax,%edx
    2690:	0f 8c ab 00 00 00    	jl     2741 <str_lcmp+0xf1>
    2696:	0f 8f db 01 00 00    	jg     2877 <str_lcmp+0x227>
    269c:	85 c0                	test   %eax,%eax
    269e:	0f 84 ad 01 00 00    	je     2851 <str_lcmp+0x201>
    26a4:	85 d2                	test   %edx,%edx
    26a6:	0f 84 a5 01 00 00    	je     2851 <str_lcmp+0x201>
    26ac:	8b 5d f0             	mov    -0x10(%ebp),%ebx
    26af:	8b 45 10             	mov    0x10(%ebp),%eax
    26b2:	43                   	inc    %ebx
    26b3:	89 5d f0             	mov    %ebx,-0x10(%ebp)
    26b6:	39 45 f0             	cmp    %eax,-0x10(%ebp)
    26b9:	0f 84 92 01 00 00    	je     2851 <str_lcmp+0x201>
    26bf:	8b 45 08             	mov    0x8(%ebp),%eax
    26c2:	8d 5e 01             	lea    0x1(%esi),%ebx
    26c5:	0f be 14 30          	movsbl (%eax,%esi,1),%edx
    26c9:	84 d2                	test   %dl,%dl
    26cb:	79 ab                	jns    2678 <str_lcmp+0x28>
    26cd:	88 d0                	mov    %dl,%al
    26cf:	83 e0 e0             	and    $0xffffffe0,%eax
    26d2:	3c c0                	cmp    $0xc0,%al
    26d4:	74 76                	je     274c <str_lcmp+0xfc>
    26d6:	88 d0                	mov    %dl,%al
    26d8:	83 e0 f0             	and    $0xfffffff0,%eax
    26db:	3c e0                	cmp    $0xe0,%al
    26dd:	0f 84 60 01 00 00    	je     2843 <str_lcmp+0x1f3>
    26e3:	88 d0                	mov    %dl,%al
    26e5:	83 e0 f8             	and    $0xfffffff8,%eax
    26e8:	3c f0                	cmp    $0xf0,%al
    26ea:	0f 84 6b 01 00 00    	je     285b <str_lcmp+0x20b>
    26f0:	8b 4d 0c             	mov    0xc(%ebp),%ecx
    26f3:	89 de                	mov    %ebx,%esi
    26f5:	ba 3f 00 00 00       	mov    $0x3f,%edx
    26fa:	8d 5f 01             	lea    0x1(%edi),%ebx
    26fd:	0f be 04 39          	movsbl (%ecx,%edi,1),%eax
    2701:	84 c0                	test   %al,%al
    2703:	79 87                	jns    268c <str_lcmp+0x3c>
    2705:	8d 76 00             	lea    0x0(%esi),%esi
    2708:	88 c1                	mov    %al,%cl
    270a:	83 e1 e0             	and    $0xffffffe0,%ecx
    270d:	80 f9 c0             	cmp    $0xc0,%cl
    2710:	0f 84 a7 00 00 00    	je     27bd <str_lcmp+0x16d>
    2716:	88 c1                	mov    %al,%cl
    2718:	83 e1 f0             	and    $0xfffffff0,%ecx
    271b:	80 f9 e0             	cmp    $0xe0,%cl
    271e:	0f 84 14 01 00 00    	je     2838 <str_lcmp+0x1e8>
    2724:	88 c1                	mov    %al,%cl
    2726:	83 e1 f8             	and    $0xfffffff8,%ecx
    2729:	80 f9 f0             	cmp    $0xf0,%cl
    272c:	0f 84 37 01 00 00    	je     2869 <str_lcmp+0x219>
    2732:	b8 3f 00 00 00       	mov    $0x3f,%eax
    2737:	89 df                	mov    %ebx,%edi
    2739:	39 c2                	cmp    %eax,%edx
    273b:	0f 8d 55 ff ff ff    	jge    2696 <str_lcmp+0x46>
    2741:	83 c4 10             	add    $0x10,%esp
    2744:	83 c8 ff             	or     $0xffffffff,%eax
    2747:	5b                   	pop    %ebx
    2748:	5e                   	pop    %esi
    2749:	5f                   	pop    %edi
    274a:	5d                   	pop    %ebp
    274b:	c3                   	ret    
    274c:	b0 1f                	mov    $0x1f,%al
    274e:	c7 45 e8 01 00 00 00 	movl   $0x1,-0x18(%ebp)
    2755:	8b 4d 08             	mov    0x8(%ebp),%ecx
    2758:	21 c2                	and    %eax,%edx
    275a:	81 e2 ff 00 00 00    	and    $0xff,%edx
    2760:	83 c6 02             	add    $0x2,%esi
    2763:	8a 04 19             	mov    (%ecx,%ebx,1),%al
    2766:	88 c1                	mov    %al,%cl
    2768:	83 e1 c0             	and    $0xffffffc0,%ecx
    276b:	80 f9 80             	cmp    $0x80,%cl
    276e:	0f 85 10 01 00 00    	jne    2884 <str_lcmp+0x234>
    2774:	8b 4d e8             	mov    -0x18(%ebp),%ecx
    2777:	89 7d ec             	mov    %edi,-0x14(%ebp)
    277a:	01 cb                	add    %ecx,%ebx
    277c:	8b 7d 08             	mov    0x8(%ebp),%edi
    277f:	eb 15                	jmp    2796 <str_lcmp+0x146>
    2781:	8d b4 26 00 00 00 00 	lea    0x0(%esi,%eiz,1),%esi
    2788:	8a 04 37             	mov    (%edi,%esi,1),%al
    278b:	46                   	inc    %esi
    278c:	88 c1                	mov    %al,%cl
    278e:	83 e1 c0             	and    $0xffffffc0,%ecx
    2791:	80 f9 80             	cmp    $0x80,%cl
    2794:	75 1a                	jne    27b0 <str_lcmp+0x160>
    2796:	89 d1                	mov    %edx,%ecx
    2798:	89 c2                	mov    %eax,%edx
    279a:	c1 e1 06             	shl    $0x6,%ecx
    279d:	83 e2 3f             	and    $0x3f,%edx
    27a0:	09 ca                	or     %ecx,%edx
    27a2:	39 de                	cmp    %ebx,%esi
    27a4:	75 e2                	jne    2788 <str_lcmp+0x138>
    27a6:	8b 7d ec             	mov    -0x14(%ebp),%edi
    27a9:	e9 cc fe ff ff       	jmp    267a <str_lcmp+0x2a>
    27ae:	66 90                	xchg   %ax,%ax
    27b0:	8b 7d ec             	mov    -0x14(%ebp),%edi
    27b3:	ba 3f 00 00 00       	mov    $0x3f,%edx
    27b8:	e9 bd fe ff ff       	jmp    267a <str_lcmp+0x2a>
    27bd:	b1 1f                	mov    $0x1f,%cl
    27bf:	c7 45 e8 01 00 00 00 	movl   $0x1,-0x18(%ebp)
    27c6:	21 c8                	and    %ecx,%eax
    27c8:	8b 4d 0c             	mov    0xc(%ebp),%ecx
    27cb:	25 ff 00 00 00       	and    $0xff,%eax
    27d0:	83 c7 02             	add    $0x2,%edi
    27d3:	8a 0c 19             	mov    (%ecx,%ebx,1),%cl
    27d6:	88 4d e7             	mov    %cl,-0x19(%ebp)
    27d9:	83 e1 c0             	and    $0xffffffc0,%ecx
    27dc:	80 f9 80             	cmp    $0x80,%cl
    27df:	0f 85 a9 00 00 00    	jne    288e <str_lcmp+0x23e>
    27e5:	8b 4d e8             	mov    -0x18(%ebp),%ecx
    27e8:	89 75 ec             	mov    %esi,-0x14(%ebp)
    27eb:	01 cb                	add    %ecx,%ebx
    27ed:	89 55 e8             	mov    %edx,-0x18(%ebp)
    27f0:	8a 4d e7             	mov    -0x19(%ebp),%cl
    27f3:	8b 75 0c             	mov    0xc(%ebp),%esi
    27f6:	eb 0e                	jmp    2806 <str_lcmp+0x1b6>
    27f8:	8a 0c 3e             	mov    (%esi,%edi,1),%cl
    27fb:	47                   	inc    %edi
    27fc:	88 ca                	mov    %cl,%dl
    27fe:	83 e2 c0             	and    $0xffffffc0,%edx
    2801:	80 fa 80             	cmp    $0x80,%dl
    2804:	75 22                	jne    2828 <str_lcmp+0x1d8>
    2806:	89 c2                	mov    %eax,%edx
    2808:	89 c8                	mov    %ecx,%eax
    280a:	c1 e2 06             	shl    $0x6,%edx
    280d:	83 e0 3f             	and    $0x3f,%eax
    2810:	09 d0                	or     %edx,%eax
    2812:	39 df                	cmp    %ebx,%edi
    2814:	75 e2                	jne    27f8 <str_lcmp+0x1a8>
    2816:	8b 75 ec             	mov    -0x14(%ebp),%esi
    2819:	8b 55 e8             	mov    -0x18(%ebp),%edx
    281c:	e9 6d fe ff ff       	jmp    268e <str_lcmp+0x3e>
    2821:	8d b4 26 00 00 00 00 	lea    0x0(%esi,%eiz,1),%esi
    2828:	8b 75 ec             	mov    -0x14(%ebp),%esi
    282b:	8b 55 e8             	mov    -0x18(%ebp),%edx
    282e:	b8 3f 00 00 00       	mov    $0x3f,%eax
    2833:	e9 56 fe ff ff       	jmp    268e <str_lcmp+0x3e>
    2838:	b1 0f                	mov    $0xf,%cl
    283a:	c7 45 e8 02 00 00 00 	movl   $0x2,-0x18(%ebp)
    2841:	eb 83                	jmp    27c6 <str_lcmp+0x176>
    2843:	b0 0f                	mov    $0xf,%al
    2845:	c7 45 e8 02 00 00 00 	movl   $0x2,-0x18(%ebp)
    284c:	e9 04 ff ff ff       	jmp    2755 <str_lcmp+0x105>
    2851:	83 c4 10             	add    $0x10,%esp
    2854:	31 c0                	xor    %eax,%eax
    2856:	5b                   	pop    %ebx
    2857:	5e                   	pop    %esi
    2858:	5f                   	pop    %edi
    2859:	5d                   	pop    %ebp
    285a:	c3                   	ret    
    285b:	b0 07                	mov    $0x7,%al
    285d:	c7 45 e8 03 00 00 00 	movl   $0x3,-0x18(%ebp)
    2864:	e9 ec fe ff ff       	jmp    2755 <str_lcmp+0x105>
    2869:	b1 07                	mov    $0x7,%cl
    286b:	c7 45 e8 03 00 00 00 	movl   $0x3,-0x18(%ebp)
    2872:	e9 4f ff ff ff       	jmp    27c6 <str_lcmp+0x176>
    2877:	83 c4 10             	add    $0x10,%esp
    287a:	b8 01 00 00 00       	mov    $0x1,%eax
    287f:	5b                   	pop    %ebx
    2880:	5e                   	pop    %esi
    2881:	5f                   	pop    %edi
    2882:	5d                   	pop    %ebp
    2883:	c3                   	ret    
    2884:	ba 3f 00 00 00       	mov    $0x3f,%edx
    2889:	e9 ec fd ff ff       	jmp    267a <str_lcmp+0x2a>
    288e:	b8 3f 00 00 00       	mov    $0x3f,%eax
    2893:	e9 f6 fd ff ff       	jmp    268e <str_lcmp+0x3e>
    2898:	90                   	nop
    2899:	8d b4 26 00 00 00 00 	lea    0x0(%esi,%eiz,1),%esi

000028a0 <str_test_prefix>:
    28a0:	55                   	push   %ebp
    28a1:	31 c9                	xor    %ecx,%ecx
    28a3:	89 e5                	mov    %esp,%ebp
    28a5:	57                   	push   %edi
    28a6:	56                   	push   %esi
    28a7:	31 f6                	xor    %esi,%esi
    28a9:	53                   	push   %ebx
    28aa:	89 f7                	mov    %esi,%edi
    28ac:	83 ec 0c             	sub    $0xc,%esp
    28af:	eb 27                	jmp    28d8 <str_test_prefix+0x38>
    28b1:	8d b4 26 00 00 00 00 	lea    0x0(%esi,%eiz,1),%esi
    28b8:	89 f1                	mov    %esi,%ecx
    28ba:	8b 45 0c             	mov    0xc(%ebp),%eax
    28bd:	8d 77 01             	lea    0x1(%edi),%esi
    28c0:	8a 1c 38             	mov    (%eax,%edi,1),%bl
    28c3:	84 db                	test   %bl,%bl
    28c5:	78 59                	js     2920 <str_test_prefix+0x80>
    28c7:	0f be c3             	movsbl %bl,%eax
    28ca:	89 f7                	mov    %esi,%edi
    28cc:	85 c0                	test   %eax,%eax
    28ce:	0f 84 68 01 00 00    	je     2a3c <str_test_prefix+0x19c>
    28d4:	39 c2                	cmp    %eax,%edx
    28d6:	75 7a                	jne    2952 <str_test_prefix+0xb2>
    28d8:	8b 45 08             	mov    0x8(%ebp),%eax
    28db:	8d 71 01             	lea    0x1(%ecx),%esi
    28de:	0f be 14 08          	movsbl (%eax,%ecx,1),%edx
    28e2:	84 d2                	test   %dl,%dl
    28e4:	79 d2                	jns    28b8 <str_test_prefix+0x18>
    28e6:	88 d0                	mov    %dl,%al
    28e8:	83 e0 e0             	and    $0xffffffe0,%eax
    28eb:	3c c0                	cmp    $0xc0,%al
    28ed:	74 6d                	je     295c <str_test_prefix+0xbc>
    28ef:	88 d0                	mov    %dl,%al
    28f1:	83 e0 f0             	and    $0xfffffff0,%eax
    28f4:	3c e0                	cmp    $0xe0,%al
    28f6:	0f 84 57 01 00 00    	je     2a53 <str_test_prefix+0x1b3>
    28fc:	88 d0                	mov    %dl,%al
    28fe:	83 e0 f8             	and    $0xfffffff8,%eax
    2901:	3c f0                	cmp    $0xf0,%al
    2903:	0f 84 66 01 00 00    	je     2a6f <str_test_prefix+0x1cf>
    2909:	8b 45 0c             	mov    0xc(%ebp),%eax
    290c:	89 f1                	mov    %esi,%ecx
    290e:	ba 3f 00 00 00       	mov    $0x3f,%edx
    2913:	8d 77 01             	lea    0x1(%edi),%esi
    2916:	8a 1c 38             	mov    (%eax,%edi,1),%bl
    2919:	84 db                	test   %bl,%bl
    291b:	79 aa                	jns    28c7 <str_test_prefix+0x27>
    291d:	8d 76 00             	lea    0x0(%esi),%esi
    2920:	88 d8                	mov    %bl,%al
    2922:	83 e0 e0             	and    $0xffffffe0,%eax
    2925:	3c c0                	cmp    $0xc0,%al
    2927:	0f 84 a0 00 00 00    	je     29cd <str_test_prefix+0x12d>
    292d:	88 d8                	mov    %bl,%al
    292f:	83 e0 f0             	and    $0xfffffff0,%eax
    2932:	3c e0                	cmp    $0xe0,%al
    2934:	0f 84 27 01 00 00    	je     2a61 <str_test_prefix+0x1c1>
    293a:	88 d8                	mov    %bl,%al
    293c:	83 e0 f8             	and    $0xfffffff8,%eax
    293f:	3c f0                	cmp    $0xf0,%al
    2941:	0f 84 36 01 00 00    	je     2a7d <str_test_prefix+0x1dd>
    2947:	89 f7                	mov    %esi,%edi
    2949:	b8 3f 00 00 00       	mov    $0x3f,%eax
    294e:	39 c2                	cmp    %eax,%edx
    2950:	74 86                	je     28d8 <str_test_prefix+0x38>
    2952:	83 c4 0c             	add    $0xc,%esp
    2955:	31 c0                	xor    %eax,%eax
    2957:	5b                   	pop    %ebx
    2958:	5e                   	pop    %esi
    2959:	5f                   	pop    %edi
    295a:	5d                   	pop    %ebp
    295b:	c3                   	ret    
    295c:	b0 1f                	mov    $0x1f,%al
    295e:	c7 45 ec 01 00 00 00 	movl   $0x1,-0x14(%ebp)
    2965:	8b 5d 08             	mov    0x8(%ebp),%ebx
    2968:	21 c2                	and    %eax,%edx
    296a:	81 e2 ff 00 00 00    	and    $0xff,%edx
    2970:	83 c1 02             	add    $0x2,%ecx
    2973:	8a 04 33             	mov    (%ebx,%esi,1),%al
    2976:	88 c3                	mov    %al,%bl
    2978:	83 e3 c0             	and    $0xffffffc0,%ebx
    297b:	80 fb 80             	cmp    $0x80,%bl
    297e:	0f 85 07 01 00 00    	jne    2a8b <str_test_prefix+0x1eb>
    2984:	8b 5d ec             	mov    -0x14(%ebp),%ebx
    2987:	89 7d f0             	mov    %edi,-0x10(%ebp)
    298a:	01 de                	add    %ebx,%esi
    298c:	8b 7d 08             	mov    0x8(%ebp),%edi
    298f:	eb 15                	jmp    29a6 <str_test_prefix+0x106>
    2991:	8d b4 26 00 00 00 00 	lea    0x0(%esi,%eiz,1),%esi
    2998:	8a 04 0f             	mov    (%edi,%ecx,1),%al
    299b:	41                   	inc    %ecx
    299c:	88 c3                	mov    %al,%bl
    299e:	83 e3 c0             	and    $0xffffffc0,%ebx
    29a1:	80 fb 80             	cmp    $0x80,%bl
    29a4:	75 1a                	jne    29c0 <str_test_prefix+0x120>
    29a6:	89 d3                	mov    %edx,%ebx
    29a8:	89 c2                	mov    %eax,%edx
    29aa:	c1 e3 06             	shl    $0x6,%ebx
    29ad:	83 e2 3f             	and    $0x3f,%edx
    29b0:	09 da                	or     %ebx,%edx
    29b2:	39 f1                	cmp    %esi,%ecx
    29b4:	75 e2                	jne    2998 <str_test_prefix+0xf8>
    29b6:	8b 7d f0             	mov    -0x10(%ebp),%edi
    29b9:	e9 fc fe ff ff       	jmp    28ba <str_test_prefix+0x1a>
    29be:	66 90                	xchg   %ax,%ax
    29c0:	8b 7d f0             	mov    -0x10(%ebp),%edi
    29c3:	ba 3f 00 00 00       	mov    $0x3f,%edx
    29c8:	e9 ed fe ff ff       	jmp    28ba <str_test_prefix+0x1a>
    29cd:	b0 1f                	mov    $0x1f,%al
    29cf:	c7 45 ec 01 00 00 00 	movl   $0x1,-0x14(%ebp)
    29d6:	21 c3                	and    %eax,%ebx
    29d8:	31 c0                	xor    %eax,%eax
    29da:	88 d8                	mov    %bl,%al
    29dc:	8b 5d 0c             	mov    0xc(%ebp),%ebx
    29df:	83 c7 02             	add    $0x2,%edi
    29e2:	8a 1c 33             	mov    (%ebx,%esi,1),%bl
    29e5:	88 5d eb             	mov    %bl,-0x15(%ebp)
    29e8:	83 e3 c0             	and    $0xffffffc0,%ebx
    29eb:	80 fb 80             	cmp    $0x80,%bl
    29ee:	0f 85 55 ff ff ff    	jne    2949 <str_test_prefix+0xa9>
    29f4:	8b 5d ec             	mov    -0x14(%ebp),%ebx
    29f7:	89 4d f0             	mov    %ecx,-0x10(%ebp)
    29fa:	01 de                	add    %ebx,%esi
    29fc:	89 55 ec             	mov    %edx,-0x14(%ebp)
    29ff:	89 f1                	mov    %esi,%ecx
    2a01:	8a 5d eb             	mov    -0x15(%ebp),%bl
    2a04:	8b 75 0c             	mov    0xc(%ebp),%esi
    2a07:	eb 15                	jmp    2a1e <str_test_prefix+0x17e>
    2a09:	8d b4 26 00 00 00 00 	lea    0x0(%esi,%eiz,1),%esi
    2a10:	8a 1c 3e             	mov    (%esi,%edi,1),%bl
    2a13:	47                   	inc    %edi
    2a14:	88 da                	mov    %bl,%dl
    2a16:	83 e2 c0             	and    $0xffffffc0,%edx
    2a19:	80 fa 80             	cmp    $0x80,%dl
    2a1c:	75 2a                	jne    2a48 <str_test_prefix+0x1a8>
    2a1e:	89 c2                	mov    %eax,%edx
    2a20:	89 d8                	mov    %ebx,%eax
    2a22:	c1 e2 06             	shl    $0x6,%edx
    2a25:	83 e0 3f             	and    $0x3f,%eax
    2a28:	09 d0                	or     %edx,%eax
    2a2a:	39 cf                	cmp    %ecx,%edi
    2a2c:	75 e2                	jne    2a10 <str_test_prefix+0x170>
    2a2e:	8b 4d f0             	mov    -0x10(%ebp),%ecx
    2a31:	8b 55 ec             	mov    -0x14(%ebp),%edx
    2a34:	85 c0                	test   %eax,%eax
    2a36:	0f 85 98 fe ff ff    	jne    28d4 <str_test_prefix+0x34>
    2a3c:	83 c4 0c             	add    $0xc,%esp
    2a3f:	b0 01                	mov    $0x1,%al
    2a41:	5b                   	pop    %ebx
    2a42:	5e                   	pop    %esi
    2a43:	5f                   	pop    %edi
    2a44:	5d                   	pop    %ebp
    2a45:	c3                   	ret    
    2a46:	66 90                	xchg   %ax,%ax
    2a48:	8b 4d f0             	mov    -0x10(%ebp),%ecx
    2a4b:	8b 55 ec             	mov    -0x14(%ebp),%edx
    2a4e:	e9 f6 fe ff ff       	jmp    2949 <str_test_prefix+0xa9>
    2a53:	b0 0f                	mov    $0xf,%al
    2a55:	c7 45 ec 02 00 00 00 	movl   $0x2,-0x14(%ebp)
    2a5c:	e9 04 ff ff ff       	jmp    2965 <str_test_prefix+0xc5>
    2a61:	b0 0f                	mov    $0xf,%al
    2a63:	c7 45 ec 02 00 00 00 	movl   $0x2,-0x14(%ebp)
    2a6a:	e9 67 ff ff ff       	jmp    29d6 <str_test_prefix+0x136>
    2a6f:	b0 07                	mov    $0x7,%al
    2a71:	c7 45 ec 03 00 00 00 	movl   $0x3,-0x14(%ebp)
    2a78:	e9 e8 fe ff ff       	jmp    2965 <str_test_prefix+0xc5>
    2a7d:	b0 07                	mov    $0x7,%al
    2a7f:	c7 45 ec 03 00 00 00 	movl   $0x3,-0x14(%ebp)
    2a86:	e9 4b ff ff ff       	jmp    29d6 <str_test_prefix+0x136>
    2a8b:	ba 3f 00 00 00       	mov    $0x3f,%edx
    2a90:	e9 25 fe ff ff       	jmp    28ba <str_test_prefix+0x1a>
    2a95:	8d 74 26 00          	lea    0x0(%esi,%eiz,1),%esi
    2a99:	8d bc 27 00 00 00 00 	lea    0x0(%edi,%eiz,1),%edi

00002aa0 <str_cpy>:
    2aa0:	55                   	push   %ebp
    2aa1:	89 e5                	mov    %esp,%ebp
    2aa3:	57                   	push   %edi
    2aa4:	56                   	push   %esi
    2aa5:	53                   	push   %ebx
    2aa6:	83 ec 4c             	sub    $0x4c,%esp
    2aa9:	8b 45 0c             	mov    0xc(%ebp),%eax
    2aac:	8b 7d 10             	mov    0x10(%ebp),%edi
    2aaf:	85 c0                	test   %eax,%eax
    2ab1:	0f 84 ae 01 00 00    	je     2c65 <str_cpy+0x1c5>
    2ab7:	31 f6                	xor    %esi,%esi
    2ab9:	48                   	dec    %eax
    2aba:	c7 45 e4 00 00 00 00 	movl   $0x0,-0x1c(%ebp)
    2ac1:	89 45 e0             	mov    %eax,-0x20(%ebp)
    2ac4:	0f be 0c 37          	movsbl (%edi,%esi,1),%ecx
    2ac8:	8d 56 01             	lea    0x1(%esi),%edx
    2acb:	84 c9                	test   %cl,%cl
    2acd:	78 5e                	js     2b2d <str_cpy+0x8d>
    2acf:	90                   	nop
    2ad0:	89 d6                	mov    %edx,%esi
    2ad2:	85 c9                	test   %ecx,%ecx
    2ad4:	0f 84 8e 00 00 00    	je     2b68 <str_cpy+0xc8>
    2ada:	8b 45 e4             	mov    -0x1c(%ebp),%eax
    2add:	39 45 e0             	cmp    %eax,-0x20(%ebp)
    2ae0:	0f 86 82 00 00 00    	jbe    2b68 <str_cpy+0xc8>
    2ae6:	81 f9 ff ff 10 00    	cmp    $0x10ffff,%ecx
    2aec:	77 7a                	ja     2b68 <str_cpy+0xc8>
    2aee:	f7 c1 80 ff ff ff    	test   $0xffffff80,%ecx
    2af4:	0f 85 86 00 00 00    	jne    2b80 <str_cpy+0xe0>
    2afa:	8b 45 e4             	mov    -0x1c(%ebp),%eax
    2afd:	c6 45 b8 00          	movb   $0x0,-0x48(%ebp)
    2b01:	89 45 dc             	mov    %eax,-0x24(%ebp)
    2b04:	c6 45 c8 7f          	movb   $0x7f,-0x38(%ebp)
    2b08:	8b 45 c8             	mov    -0x38(%ebp),%eax
    2b0b:	8b 55 08             	mov    0x8(%ebp),%edx
    2b0e:	21 c1                	and    %eax,%ecx
    2b10:	8b 45 b8             	mov    -0x48(%ebp),%eax
    2b13:	09 c1                	or     %eax,%ecx
    2b15:	8b 45 e4             	mov    -0x1c(%ebp),%eax
    2b18:	8b 5d dc             	mov    -0x24(%ebp),%ebx
    2b1b:	88 0c 02             	mov    %cl,(%edx,%eax,1)
    2b1e:	43                   	inc    %ebx
    2b1f:	0f be 0c 37          	movsbl (%edi,%esi,1),%ecx
    2b23:	89 5d e4             	mov    %ebx,-0x1c(%ebp)
    2b26:	8d 56 01             	lea    0x1(%esi),%edx
    2b29:	84 c9                	test   %cl,%cl
    2b2b:	79 a3                	jns    2ad0 <str_cpy+0x30>
    2b2d:	88 c8                	mov    %cl,%al
    2b2f:	83 e0 e0             	and    $0xffffffe0,%eax
    2b32:	3c c0                	cmp    $0xc0,%al
    2b34:	0f 84 bd 00 00 00    	je     2bf7 <str_cpy+0x157>
    2b3a:	88 c8                	mov    %cl,%al
    2b3c:	83 e0 f0             	and    $0xfffffff0,%eax
    2b3f:	3c e0                	cmp    $0xe0,%al
    2b41:	0f 84 08 01 00 00    	je     2c4f <str_cpy+0x1af>
    2b47:	88 c8                	mov    %cl,%al
    2b49:	83 e0 f8             	and    $0xfffffff8,%eax
    2b4c:	3c f0                	cmp    $0xf0,%al
    2b4e:	0f 84 06 01 00 00    	je     2c5a <str_cpy+0x1ba>
    2b54:	89 d6                	mov    %edx,%esi
    2b56:	8b 45 e4             	mov    -0x1c(%ebp),%eax
    2b59:	b9 3f 00 00 00       	mov    $0x3f,%ecx
    2b5e:	39 45 e0             	cmp    %eax,-0x20(%ebp)
    2b61:	0f 87 7f ff ff ff    	ja     2ae6 <str_cpy+0x46>
    2b67:	90                   	nop
    2b68:	8b 5d 08             	mov    0x8(%ebp),%ebx
    2b6b:	8b 55 e4             	mov    -0x1c(%ebp),%edx
    2b6e:	c6 04 13 00          	movb   $0x0,(%ebx,%edx,1)
    2b72:	83 c4 4c             	add    $0x4c,%esp
    2b75:	5b                   	pop    %ebx
    2b76:	5e                   	pop    %esi
    2b77:	5f                   	pop    %edi
    2b78:	5d                   	pop    %ebp
    2b79:	c3                   	ret    
    2b7a:	8d b6 00 00 00 00    	lea    0x0(%esi),%esi
    2b80:	f7 c1 00 f8 ff ff    	test   $0xfffff800,%ecx
    2b86:	74 60                	je     2be8 <str_cpy+0x148>
    2b88:	89 c8                	mov    %ecx,%eax
    2b8a:	25 00 00 ff ff       	and    $0xffff0000,%eax
    2b8f:	83 f8 01             	cmp    $0x1,%eax
    2b92:	19 d2                	sbb    %edx,%edx
    2b94:	83 e2 f0             	and    $0xfffffff0,%edx
    2b97:	83 ea 10             	sub    $0x10,%edx
    2b9a:	83 f8 01             	cmp    $0x1,%eax
    2b9d:	19 db                	sbb    %ebx,%ebx
    2b9f:	88 55 b8             	mov    %dl,-0x48(%ebp)
    2ba2:	83 e3 08             	and    $0x8,%ebx
    2ba5:	83 c3 07             	add    $0x7,%ebx
    2ba8:	83 f8 01             	cmp    $0x1,%eax
    2bab:	19 c0                	sbb    %eax,%eax
    2bad:	88 5d c8             	mov    %bl,-0x38(%ebp)
    2bb0:	83 c0 03             	add    $0x3,%eax
    2bb3:	8b 55 e4             	mov    -0x1c(%ebp),%edx
    2bb6:	01 c2                	add    %eax,%edx
    2bb8:	89 55 dc             	mov    %edx,-0x24(%ebp)
    2bbb:	39 55 e0             	cmp    %edx,-0x20(%ebp)
    2bbe:	76 a8                	jbe    2b68 <str_cpy+0xc8>
    2bc0:	8b 55 08             	mov    0x8(%ebp),%edx
    2bc3:	8b 5d e4             	mov    -0x1c(%ebp),%ebx
    2bc6:	8d 1c 1a             	lea    (%edx,%ebx,1),%ebx
    2bc9:	89 5d d8             	mov    %ebx,-0x28(%ebp)
    2bcc:	8d 74 26 00          	lea    0x0(%esi,%eiz,1),%esi
    2bd0:	89 ca                	mov    %ecx,%edx
    2bd2:	c1 e9 06             	shr    $0x6,%ecx
    2bd5:	83 e2 3f             	and    $0x3f,%edx
    2bd8:	80 ca 80             	or     $0x80,%dl
    2bdb:	88 14 03             	mov    %dl,(%ebx,%eax,1)
    2bde:	48                   	dec    %eax
    2bdf:	75 ef                	jne    2bd0 <str_cpy+0x130>
    2be1:	e9 22 ff ff ff       	jmp    2b08 <str_cpy+0x68>
    2be6:	66 90                	xchg   %ax,%ax
    2be8:	c6 45 b8 c0          	movb   $0xc0,-0x48(%ebp)
    2bec:	c6 45 c8 1f          	movb   $0x1f,-0x38(%ebp)
    2bf0:	b8 01 00 00 00       	mov    $0x1,%eax
    2bf5:	eb bc                	jmp    2bb3 <str_cpy+0x113>
    2bf7:	b0 1f                	mov    $0x1f,%al
    2bf9:	c7 45 dc 01 00 00 00 	movl   $0x1,-0x24(%ebp)
    2c00:	21 c1                	and    %eax,%ecx
    2c02:	8a 04 17             	mov    (%edi,%edx,1),%al
    2c05:	88 c3                	mov    %al,%bl
    2c07:	81 e1 ff 00 00 00    	and    $0xff,%ecx
    2c0d:	83 e3 c0             	and    $0xffffffc0,%ebx
    2c10:	83 c6 02             	add    $0x2,%esi
    2c13:	80 fb 80             	cmp    $0x80,%bl
    2c16:	0f 85 3a ff ff ff    	jne    2b56 <str_cpy+0xb6>
    2c1c:	8b 5d dc             	mov    -0x24(%ebp),%ebx
    2c1f:	01 da                	add    %ebx,%edx
    2c21:	eb 17                	jmp    2c3a <str_cpy+0x19a>
    2c23:	90                   	nop
    2c24:	8d 74 26 00          	lea    0x0(%esi,%eiz,1),%esi
    2c28:	8a 04 37             	mov    (%edi,%esi,1),%al
    2c2b:	46                   	inc    %esi
    2c2c:	88 c3                	mov    %al,%bl
    2c2e:	83 e3 c0             	and    $0xffffffc0,%ebx
    2c31:	80 fb 80             	cmp    $0x80,%bl
    2c34:	0f 85 1c ff ff ff    	jne    2b56 <str_cpy+0xb6>
    2c3a:	89 cb                	mov    %ecx,%ebx
    2c3c:	89 c1                	mov    %eax,%ecx
    2c3e:	c1 e3 06             	shl    $0x6,%ebx
    2c41:	83 e1 3f             	and    $0x3f,%ecx
    2c44:	09 d9                	or     %ebx,%ecx
    2c46:	39 d6                	cmp    %edx,%esi
    2c48:	75 de                	jne    2c28 <str_cpy+0x188>
    2c4a:	e9 83 fe ff ff       	jmp    2ad2 <str_cpy+0x32>
    2c4f:	b0 0f                	mov    $0xf,%al
    2c51:	c7 45 dc 02 00 00 00 	movl   $0x2,-0x24(%ebp)
    2c58:	eb a6                	jmp    2c00 <str_cpy+0x160>
    2c5a:	b0 07                	mov    $0x7,%al
    2c5c:	c7 45 dc 03 00 00 00 	movl   $0x3,-0x24(%ebp)
    2c63:	eb 9b                	jmp    2c00 <str_cpy+0x160>
    2c65:	c7 44 24 08 88 02 00 	movl   $0x288,0x8(%esp)
    2c6c:	00 
    2c6d:	c7 44 24 04 50 dc 01 	movl   $0x1dc50,0x4(%esp)
    2c74:	00 
    2c75:	c7 04 24 76 e6 01 00 	movl   $0x1e676,(%esp)
    2c7c:	e8 bf 41 01 00       	call   16e40 <assert_abort>
    2c81:	eb 0d                	jmp    2c90 <str_ncpy>
    2c83:	90                   	nop
    2c84:	90                   	nop
    2c85:	90                   	nop
    2c86:	90                   	nop
    2c87:	90                   	nop
    2c88:	90                   	nop
    2c89:	90                   	nop
    2c8a:	90                   	nop
    2c8b:	90                   	nop
    2c8c:	90                   	nop
    2c8d:	90                   	nop
    2c8e:	90                   	nop
    2c8f:	90                   	nop

00002c90 <str_ncpy>:
    2c90:	55                   	push   %ebp
    2c91:	89 e5                	mov    %esp,%ebp
    2c93:	57                   	push   %edi
    2c94:	56                   	push   %esi
    2c95:	53                   	push   %ebx
    2c96:	83 ec 4c             	sub    $0x4c,%esp
    2c99:	8b 45 0c             	mov    0xc(%ebp),%eax
    2c9c:	8b 7d 10             	mov    0x10(%ebp),%edi
    2c9f:	85 c0                	test   %eax,%eax
    2ca1:	0f 84 f7 01 00 00    	je     2e9e <str_ncpy+0x20e>
    2ca7:	8b 55 14             	mov    0x14(%ebp),%edx
    2caa:	c7 45 e4 00 00 00 00 	movl   $0x0,-0x1c(%ebp)
    2cb1:	85 d2                	test   %edx,%edx
    2cb3:	74 42                	je     2cf7 <str_ncpy+0x67>
    2cb5:	31 f6                	xor    %esi,%esi
    2cb7:	48                   	dec    %eax
    2cb8:	89 45 e0             	mov    %eax,-0x20(%ebp)
    2cbb:	ba 01 00 00 00       	mov    $0x1,%edx
    2cc0:	8a 04 37             	mov    (%edi,%esi,1),%al
    2cc3:	84 c0                	test   %al,%al
    2cc5:	0f 88 92 00 00 00    	js     2d5d <str_ncpy+0xcd>
    2ccb:	90                   	nop
    2ccc:	8d 74 26 00          	lea    0x0(%esi,%eiz,1),%esi
    2cd0:	b1 7f                	mov    $0x7f,%cl
    2cd2:	31 f6                	xor    %esi,%esi
    2cd4:	8d 1c 16             	lea    (%esi,%edx,1),%ebx
    2cd7:	39 5d 14             	cmp    %ebx,0x14(%ebp)
    2cda:	0f 83 c0 00 00 00    	jae    2da0 <str_ncpy+0x110>
    2ce0:	89 d6                	mov    %edx,%esi
    2ce2:	b9 3f 00 00 00       	mov    $0x3f,%ecx
    2ce7:	8b 45 e0             	mov    -0x20(%ebp),%eax
    2cea:	39 45 e4             	cmp    %eax,-0x1c(%ebp)
    2ced:	73 08                	jae    2cf7 <str_ncpy+0x67>
    2cef:	81 f9 ff ff 10 00    	cmp    $0x10ffff,%ecx
    2cf5:	76 19                	jbe    2d10 <str_ncpy+0x80>
    2cf7:	8b 55 08             	mov    0x8(%ebp),%edx
    2cfa:	8b 45 e4             	mov    -0x1c(%ebp),%eax
    2cfd:	c6 04 02 00          	movb   $0x0,(%edx,%eax,1)
    2d01:	83 c4 4c             	add    $0x4c,%esp
    2d04:	5b                   	pop    %ebx
    2d05:	5e                   	pop    %esi
    2d06:	5f                   	pop    %edi
    2d07:	5d                   	pop    %ebp
    2d08:	c3                   	ret    
    2d09:	8d b4 26 00 00 00 00 	lea    0x0(%esi,%eiz,1),%esi
    2d10:	f7 c1 80 ff ff ff    	test   $0xffffff80,%ecx
    2d16:	0f 85 dc 00 00 00    	jne    2df8 <str_ncpy+0x168>
    2d1c:	8b 5d e4             	mov    -0x1c(%ebp),%ebx
    2d1f:	c6 45 c8 00          	movb   $0x0,-0x38(%ebp)
    2d23:	89 5d dc             	mov    %ebx,-0x24(%ebp)
    2d26:	c6 45 b8 7f          	movb   $0x7f,-0x48(%ebp)
    2d2a:	8d b6 00 00 00 00    	lea    0x0(%esi),%esi
    2d30:	8b 45 b8             	mov    -0x48(%ebp),%eax
    2d33:	8b 55 08             	mov    0x8(%ebp),%edx
    2d36:	21 c1                	and    %eax,%ecx
    2d38:	8b 45 c8             	mov    -0x38(%ebp),%eax
    2d3b:	09 c1                	or     %eax,%ecx
    2d3d:	8b 45 e4             	mov    -0x1c(%ebp),%eax
    2d40:	8b 5d dc             	mov    -0x24(%ebp),%ebx
    2d43:	43                   	inc    %ebx
    2d44:	88 0c 02             	mov    %cl,(%edx,%eax,1)
    2d47:	8d 56 01             	lea    0x1(%esi),%edx
    2d4a:	89 5d e4             	mov    %ebx,-0x1c(%ebp)
    2d4d:	39 55 14             	cmp    %edx,0x14(%ebp)
    2d50:	72 a5                	jb     2cf7 <str_ncpy+0x67>
    2d52:	8a 04 37             	mov    (%edi,%esi,1),%al
    2d55:	84 c0                	test   %al,%al
    2d57:	0f 89 73 ff ff ff    	jns    2cd0 <str_ncpy+0x40>
    2d5d:	88 c1                	mov    %al,%cl
    2d5f:	83 e1 e0             	and    $0xffffffe0,%ecx
    2d62:	80 f9 c0             	cmp    $0xc0,%cl
    2d65:	0f 84 0c 01 00 00    	je     2e77 <str_ncpy+0x1e7>
    2d6b:	88 c1                	mov    %al,%cl
    2d6d:	83 e1 f0             	and    $0xfffffff0,%ecx
    2d70:	80 f9 e0             	cmp    $0xe0,%cl
    2d73:	0f 84 0a 01 00 00    	je     2e83 <str_ncpy+0x1f3>
    2d79:	88 c1                	mov    %al,%cl
    2d7b:	83 e1 f8             	and    $0xfffffff8,%ecx
    2d7e:	80 f9 f0             	cmp    $0xf0,%cl
    2d81:	0f 85 59 ff ff ff    	jne    2ce0 <str_ncpy+0x50>
    2d87:	be 03 00 00 00       	mov    $0x3,%esi
    2d8c:	b1 07                	mov    $0x7,%cl
    2d8e:	8d 1c 16             	lea    (%esi,%edx,1),%ebx
    2d91:	39 5d 14             	cmp    %ebx,0x14(%ebp)
    2d94:	0f 82 46 ff ff ff    	jb     2ce0 <str_ncpy+0x50>
    2d9a:	8d b6 00 00 00 00    	lea    0x0(%esi),%esi
    2da0:	21 c1                	and    %eax,%ecx
    2da2:	81 e1 ff 00 00 00    	and    $0xff,%ecx
    2da8:	85 f6                	test   %esi,%esi
    2daa:	0f 84 df 00 00 00    	je     2e8f <str_ncpy+0x1ff>
    2db0:	8a 04 17             	mov    (%edi,%edx,1),%al
    2db3:	8d 72 01             	lea    0x1(%edx),%esi
    2db6:	88 c2                	mov    %al,%dl
    2db8:	83 e2 c0             	and    $0xffffffc0,%edx
    2dbb:	80 fa 80             	cmp    $0x80,%dl
    2dbe:	74 1a                	je     2dda <str_ncpy+0x14a>
    2dc0:	e9 ab 00 00 00       	jmp    2e70 <str_ncpy+0x1e0>
    2dc5:	8d 76 00             	lea    0x0(%esi),%esi
    2dc8:	8a 04 37             	mov    (%edi,%esi,1),%al
    2dcb:	46                   	inc    %esi
    2dcc:	88 c2                	mov    %al,%dl
    2dce:	83 e2 c0             	and    $0xffffffc0,%edx
    2dd1:	80 fa 80             	cmp    $0x80,%dl
    2dd4:	0f 85 96 00 00 00    	jne    2e70 <str_ncpy+0x1e0>
    2dda:	89 ca                	mov    %ecx,%edx
    2ddc:	89 c1                	mov    %eax,%ecx
    2dde:	c1 e2 06             	shl    $0x6,%edx
    2de1:	83 e1 3f             	and    $0x3f,%ecx
    2de4:	09 d1                	or     %edx,%ecx
    2de6:	39 f3                	cmp    %esi,%ebx
    2de8:	75 de                	jne    2dc8 <str_ncpy+0x138>
    2dea:	85 c9                	test   %ecx,%ecx
    2dec:	0f 85 f5 fe ff ff    	jne    2ce7 <str_ncpy+0x57>
    2df2:	e9 00 ff ff ff       	jmp    2cf7 <str_ncpy+0x67>
    2df7:	90                   	nop
    2df8:	f7 c1 00 f8 ff ff    	test   $0xfffff800,%ecx
    2dfe:	74 60                	je     2e60 <str_ncpy+0x1d0>
    2e00:	89 c8                	mov    %ecx,%eax
    2e02:	25 00 00 ff ff       	and    $0xffff0000,%eax
    2e07:	83 f8 01             	cmp    $0x1,%eax
    2e0a:	19 d2                	sbb    %edx,%edx
    2e0c:	83 e2 f0             	and    $0xfffffff0,%edx
    2e0f:	83 ea 10             	sub    $0x10,%edx
    2e12:	83 f8 01             	cmp    $0x1,%eax
    2e15:	19 db                	sbb    %ebx,%ebx
    2e17:	88 55 c8             	mov    %dl,-0x38(%ebp)
    2e1a:	83 e3 08             	and    $0x8,%ebx
    2e1d:	83 c3 07             	add    $0x7,%ebx
    2e20:	83 f8 01             	cmp    $0x1,%eax
    2e23:	19 c0                	sbb    %eax,%eax
    2e25:	88 5d b8             	mov    %bl,-0x48(%ebp)
    2e28:	83 c0 03             	add    $0x3,%eax
    2e2b:	8b 5d e4             	mov    -0x1c(%ebp),%ebx
    2e2e:	01 c3                	add    %eax,%ebx
    2e30:	89 5d dc             	mov    %ebx,-0x24(%ebp)
    2e33:	39 5d e0             	cmp    %ebx,-0x20(%ebp)
    2e36:	0f 86 bb fe ff ff    	jbe    2cf7 <str_ncpy+0x67>
    2e3c:	8b 5d 08             	mov    0x8(%ebp),%ebx
    2e3f:	8b 55 e4             	mov    -0x1c(%ebp),%edx
    2e42:	8d 14 13             	lea    (%ebx,%edx,1),%edx
    2e45:	89 d3                	mov    %edx,%ebx
    2e47:	90                   	nop
    2e48:	89 ca                	mov    %ecx,%edx
    2e4a:	c1 e9 06             	shr    $0x6,%ecx
    2e4d:	83 e2 3f             	and    $0x3f,%edx
    2e50:	80 ca 80             	or     $0x80,%dl
    2e53:	88 14 03             	mov    %dl,(%ebx,%eax,1)
    2e56:	48                   	dec    %eax
    2e57:	75 ef                	jne    2e48 <str_ncpy+0x1b8>
    2e59:	e9 d2 fe ff ff       	jmp    2d30 <str_ncpy+0xa0>
    2e5e:	66 90                	xchg   %ax,%ax
    2e60:	c6 45 c8 c0          	movb   $0xc0,-0x38(%ebp)
    2e64:	c6 45 b8 1f          	movb   $0x1f,-0x48(%ebp)
    2e68:	b8 01 00 00 00       	mov    $0x1,%eax
    2e6d:	eb bc                	jmp    2e2b <str_ncpy+0x19b>
    2e6f:	90                   	nop
    2e70:	89 f2                	mov    %esi,%edx
    2e72:	e9 69 fe ff ff       	jmp    2ce0 <str_ncpy+0x50>
    2e77:	b1 1f                	mov    $0x1f,%cl
    2e79:	be 01 00 00 00       	mov    $0x1,%esi
    2e7e:	e9 51 fe ff ff       	jmp    2cd4 <str_ncpy+0x44>
    2e83:	b1 0f                	mov    $0xf,%cl
    2e85:	be 02 00 00 00       	mov    $0x2,%esi
    2e8a:	e9 45 fe ff ff       	jmp    2cd4 <str_ncpy+0x44>
    2e8f:	89 d6                	mov    %edx,%esi
    2e91:	85 c9                	test   %ecx,%ecx
    2e93:	0f 85 4e fe ff ff    	jne    2ce7 <str_ncpy+0x57>
    2e99:	e9 59 fe ff ff       	jmp    2cf7 <str_ncpy+0x67>
    2e9e:	c7 44 24 08 a9 02 00 	movl   $0x2a9,0x8(%esp)
    2ea5:	00 
    2ea6:	c7 44 24 04 50 dc 01 	movl   $0x1dc50,0x4(%esp)
    2ead:	00 
    2eae:	c7 04 24 76 e6 01 00 	movl   $0x1e676,(%esp)
    2eb5:	e8 86 3f 01 00       	call   16e40 <assert_abort>
    2eba:	8d b6 00 00 00 00    	lea    0x0(%esi),%esi

00002ec0 <str_append>:
    2ec0:	55                   	push   %ebp
    2ec1:	31 c0                	xor    %eax,%eax
    2ec3:	89 e5                	mov    %esp,%ebp
    2ec5:	53                   	push   %ebx
    2ec6:	8b 55 08             	mov    0x8(%ebp),%edx
    2ec9:	8b 4d 0c             	mov    0xc(%ebp),%ecx
    2ecc:	8b 5d 10             	mov    0x10(%ebp),%ebx
    2ecf:	80 3a 00             	cmpb   $0x0,(%edx)
    2ed2:	74 0b                	je     2edf <str_append+0x1f>
    2ed4:	8d 74 26 00          	lea    0x0(%esi,%eiz,1),%esi
    2ed8:	40                   	inc    %eax
    2ed9:	80 3c 02 00          	cmpb   $0x0,(%edx,%eax,1)
    2edd:	75 f9                	jne    2ed8 <str_append+0x18>
    2edf:	39 c1                	cmp    %eax,%ecx
    2ee1:	77 05                	ja     2ee8 <str_append+0x28>
    2ee3:	5b                   	pop    %ebx
    2ee4:	5d                   	pop    %ebp
    2ee5:	c3                   	ret    
    2ee6:	66 90                	xchg   %ax,%ax
    2ee8:	29 c1                	sub    %eax,%ecx
    2eea:	01 d0                	add    %edx,%eax
    2eec:	89 5d 10             	mov    %ebx,0x10(%ebp)
    2eef:	89 4d 0c             	mov    %ecx,0xc(%ebp)
    2ef2:	89 45 08             	mov    %eax,0x8(%ebp)
    2ef5:	5b                   	pop    %ebx
    2ef6:	5d                   	pop    %ebp
    2ef7:	e9 a4 fb ff ff       	jmp    2aa0 <str_cpy>
    2efc:	8d 74 26 00          	lea    0x0(%esi,%eiz,1),%esi

00002f00 <spascii_to_str>:
    2f00:	55                   	push   %ebp
    2f01:	89 e5                	mov    %esp,%ebp
    2f03:	57                   	push   %edi
    2f04:	56                   	push   %esi
    2f05:	53                   	push   %ebx
    2f06:	83 ec 2c             	sub    $0x2c,%esp
    2f09:	8b 55 0c             	mov    0xc(%ebp),%edx
    2f0c:	8b 75 08             	mov    0x8(%ebp),%esi
    2f0f:	8b 45 14             	mov    0x14(%ebp),%eax
    2f12:	85 d2                	test   %edx,%edx
    2f14:	74 7e                	je     2f94 <spascii_to_str+0x94>
    2f16:	85 c0                	test   %eax,%eax
    2f18:	74 6f                	je     2f89 <spascii_to_str+0x89>
    2f1a:	4a                   	dec    %edx
    2f1b:	c7 45 dc 00 00 00 00 	movl   $0x0,-0x24(%ebp)
    2f22:	89 55 e4             	mov    %edx,-0x1c(%ebp)
    2f25:	8b 55 10             	mov    0x10(%ebp),%edx
    2f28:	01 d0                	add    %edx,%eax
    2f2a:	31 ff                	xor    %edi,%edi
    2f2c:	89 45 e0             	mov    %eax,-0x20(%ebp)
    2f2f:	31 c0                	xor    %eax,%eax
    2f31:	8d b4 26 00 00 00 00 	lea    0x0(%esi,%eiz,1),%esi
    2f38:	31 db                	xor    %ebx,%ebx
    2f3a:	8a 0a                	mov    (%edx),%cl
    2f3c:	88 cb                	mov    %cl,%bl
    2f3e:	83 fb 7f             	cmp    $0x7f,%ebx
    2f41:	76 0e                	jbe    2f51 <spascii_to_str+0x51>
    2f43:	bb 3f 00 00 00       	mov    $0x3f,%ebx
    2f48:	c7 45 dc f7 fe ff ff 	movl   $0xfffffef7,-0x24(%ebp)
    2f4f:	b1 3f                	mov    $0x3f,%cl
    2f51:	39 45 e4             	cmp    %eax,-0x1c(%ebp)
    2f54:	76 22                	jbe    2f78 <spascii_to_str+0x78>
    2f56:	88 1c 06             	mov    %bl,(%esi,%eax,1)
    2f59:	40                   	inc    %eax
    2f5a:	80 f9 20             	cmp    $0x20,%cl
    2f5d:	74 02                	je     2f61 <spascii_to_str+0x61>
    2f5f:	89 c7                	mov    %eax,%edi
    2f61:	42                   	inc    %edx
    2f62:	3b 55 e0             	cmp    -0x20(%ebp),%edx
    2f65:	75 d1                	jne    2f38 <spascii_to_str+0x38>
    2f67:	c6 04 3e 00          	movb   $0x0,(%esi,%edi,1)
    2f6b:	8b 45 dc             	mov    -0x24(%ebp),%eax
    2f6e:	83 c4 2c             	add    $0x2c,%esp
    2f71:	5b                   	pop    %ebx
    2f72:	5e                   	pop    %esi
    2f73:	5f                   	pop    %edi
    2f74:	5d                   	pop    %ebp
    2f75:	c3                   	ret    
    2f76:	66 90                	xchg   %ax,%ax
    2f78:	c6 04 06 00          	movb   $0x0,(%esi,%eax,1)
    2f7c:	83 c4 2c             	add    $0x2c,%esp
    2f7f:	b8 f0 ff ff ff       	mov    $0xfffffff0,%eax
    2f84:	5b                   	pop    %ebx
    2f85:	5e                   	pop    %esi
    2f86:	5f                   	pop    %edi
    2f87:	5d                   	pop    %ebp
    2f88:	c3                   	ret    
    2f89:	c7 45 dc 00 00 00 00 	movl   $0x0,-0x24(%ebp)
    2f90:	31 ff                	xor    %edi,%edi
    2f92:	eb d3                	jmp    2f67 <spascii_to_str+0x67>
    2f94:	c7 44 24 08 ef 02 00 	movl   $0x2ef,0x8(%esp)
    2f9b:	00 
    2f9c:	c7 44 24 04 50 dc 01 	movl   $0x1dc50,0x4(%esp)
    2fa3:	00 
    2fa4:	c7 04 24 76 e6 01 00 	movl   $0x1e676,(%esp)
    2fab:	e8 90 3e 01 00       	call   16e40 <assert_abort>

00002fb0 <wstr_to_str>:
    2fb0:	55                   	push   %ebp
    2fb1:	89 e5                	mov    %esp,%ebp
    2fb3:	57                   	push   %edi
    2fb4:	56                   	push   %esi
    2fb5:	53                   	push   %ebx
    2fb6:	83 ec 2c             	sub    $0x2c,%esp
    2fb9:	8b 45 0c             	mov    0xc(%ebp),%eax
    2fbc:	8b 55 10             	mov    0x10(%ebp),%edx
    2fbf:	85 c0                	test   %eax,%eax
    2fc1:	0f 84 10 01 00 00    	je     30d7 <wstr_to_str+0x127>
    2fc7:	8b 32                	mov    (%edx),%esi
    2fc9:	85 f6                	test   %esi,%esi
    2fcb:	0f 84 ef 00 00 00    	je     30c0 <wstr_to_str+0x110>
    2fd1:	48                   	dec    %eax
    2fd2:	89 45 e0             	mov    %eax,-0x20(%ebp)
    2fd5:	0f 84 e5 00 00 00    	je     30c0 <wstr_to_str+0x110>
    2fdb:	81 fe ff ff 10 00    	cmp    $0x10ffff,%esi
    2fe1:	0f 87 d9 00 00 00    	ja     30c0 <wstr_to_str+0x110>
    2fe7:	31 ff                	xor    %edi,%edi
    2fe9:	8d 5a 04             	lea    0x4(%edx),%ebx
    2fec:	f7 c6 80 ff ff ff    	test   $0xffffff80,%esi
    2ff2:	75 58                	jne    304c <wstr_to_str+0x9c>
    2ff4:	8d 74 26 00          	lea    0x0(%esi,%eiz,1),%esi
    2ff8:	39 7d e0             	cmp    %edi,-0x20(%ebp)
    2ffb:	0f 86 c7 00 00 00    	jbe    30c8 <wstr_to_str+0x118>
    3001:	89 7d dc             	mov    %edi,-0x24(%ebp)
    3004:	c6 45 e7 00          	movb   $0x0,-0x19(%ebp)
    3008:	c6 45 e6 7f          	movb   $0x7f,-0x1a(%ebp)
    300c:	8d 74 26 00          	lea    0x0(%esi,%eiz,1),%esi
    3010:	8a 45 e6             	mov    -0x1a(%ebp),%al
    3013:	8b 55 08             	mov    0x8(%ebp),%edx
    3016:	21 f0                	and    %esi,%eax
    3018:	0a 45 e7             	or     -0x19(%ebp),%al
    301b:	88 04 3a             	mov    %al,(%edx,%edi,1)
    301e:	8b 7d dc             	mov    -0x24(%ebp),%edi
    3021:	8b 33                	mov    (%ebx),%esi
    3023:	47                   	inc    %edi
    3024:	85 f6                	test   %esi,%esi
    3026:	0f 84 9c 00 00 00    	je     30c8 <wstr_to_str+0x118>
    302c:	3b 7d e0             	cmp    -0x20(%ebp),%edi
    302f:	0f 83 93 00 00 00    	jae    30c8 <wstr_to_str+0x118>
    3035:	83 c3 04             	add    $0x4,%ebx
    3038:	81 fe ff ff 10 00    	cmp    $0x10ffff,%esi
    303e:	0f 87 84 00 00 00    	ja     30c8 <wstr_to_str+0x118>
    3044:	f7 c6 80 ff ff ff    	test   $0xffffff80,%esi
    304a:	74 ac                	je     2ff8 <wstr_to_str+0x48>
    304c:	f7 c6 00 f8 ff ff    	test   $0xfffff800,%esi
    3052:	74 4c                	je     30a0 <wstr_to_str+0xf0>
    3054:	f7 c6 00 00 ff ff    	test   $0xffff0000,%esi
    305a:	74 54                	je     30b0 <wstr_to_str+0x100>
    305c:	f7 c6 00 00 e0 ff    	test   $0xffe00000,%esi
    3062:	75 64                	jne    30c8 <wstr_to_str+0x118>
    3064:	c6 45 e7 f0          	movb   $0xf0,-0x19(%ebp)
    3068:	c6 45 e6 07          	movb   $0x7,-0x1a(%ebp)
    306c:	b8 03 00 00 00       	mov    $0x3,%eax
    3071:	8d 14 38             	lea    (%eax,%edi,1),%edx
    3074:	89 55 dc             	mov    %edx,-0x24(%ebp)
    3077:	8b 55 e0             	mov    -0x20(%ebp),%edx
    307a:	39 55 dc             	cmp    %edx,-0x24(%ebp)
    307d:	73 49                	jae    30c8 <wstr_to_str+0x118>
    307f:	8b 55 08             	mov    0x8(%ebp),%edx
    3082:	8d 0c 3a             	lea    (%edx,%edi,1),%ecx
    3085:	8d 76 00             	lea    0x0(%esi),%esi
    3088:	89 f2                	mov    %esi,%edx
    308a:	c1 ee 06             	shr    $0x6,%esi
    308d:	83 e2 3f             	and    $0x3f,%edx
    3090:	80 ca 80             	or     $0x80,%dl
    3093:	88 14 01             	mov    %dl,(%ecx,%eax,1)
    3096:	48                   	dec    %eax
    3097:	75 ef                	jne    3088 <wstr_to_str+0xd8>
    3099:	e9 72 ff ff ff       	jmp    3010 <wstr_to_str+0x60>
    309e:	66 90                	xchg   %ax,%ax
    30a0:	c6 45 e7 c0          	movb   $0xc0,-0x19(%ebp)
    30a4:	c6 45 e6 1f          	movb   $0x1f,-0x1a(%ebp)
    30a8:	b8 01 00 00 00       	mov    $0x1,%eax
    30ad:	eb c2                	jmp    3071 <wstr_to_str+0xc1>
    30af:	90                   	nop
    30b0:	c6 45 e7 e0          	movb   $0xe0,-0x19(%ebp)
    30b4:	c6 45 e6 0f          	movb   $0xf,-0x1a(%ebp)
    30b8:	b8 02 00 00 00       	mov    $0x2,%eax
    30bd:	eb b2                	jmp    3071 <wstr_to_str+0xc1>
    30bf:	90                   	nop
    30c0:	31 ff                	xor    %edi,%edi
    30c2:	8d b6 00 00 00 00    	lea    0x0(%esi),%esi
    30c8:	8b 45 08             	mov    0x8(%ebp),%eax
    30cb:	c6 04 38 00          	movb   $0x0,(%eax,%edi,1)
    30cf:	83 c4 2c             	add    $0x2c,%esp
    30d2:	5b                   	pop    %ebx
    30d3:	5e                   	pop    %esi
    30d4:	5f                   	pop    %edi
    30d5:	5d                   	pop    %ebp
    30d6:	c3                   	ret    
    30d7:	c7 44 24 08 1d 03 00 	movl   $0x31d,0x8(%esp)
    30de:	00 
    30df:	c7 44 24 04 50 dc 01 	movl   $0x1dc50,0x4(%esp)
    30e6:	00 
    30e7:	c7 04 24 76 e6 01 00 	movl   $0x1e676,(%esp)
    30ee:	e8 4d 3d 01 00       	call   16e40 <assert_abort>
    30f3:	8d b6 00 00 00 00    	lea    0x0(%esi),%esi
    30f9:	8d bc 27 00 00 00 00 	lea    0x0(%edi,%eiz,1),%edi

00003100 <utf16_to_str>:
    3100:	55                   	push   %ebp
    3101:	89 e5                	mov    %esp,%ebp
    3103:	57                   	push   %edi
    3104:	56                   	push   %esi
    3105:	53                   	push   %ebx
    3106:	83 ec 4c             	sub    $0x4c,%esp
    3109:	8b 45 0c             	mov    0xc(%ebp),%eax
    310c:	85 c0                	test   %eax,%eax
    310e:	0f 84 76 01 00 00    	je     328a <utf16_to_str+0x18a>
    3114:	8b 55 10             	mov    0x10(%ebp),%edx
    3117:	48                   	dec    %eax
    3118:	31 f6                	xor    %esi,%esi
    311a:	31 ff                	xor    %edi,%edi
    311c:	66 8b 0a             	mov    (%edx),%cx
    311f:	89 45 c4             	mov    %eax,-0x3c(%ebp)
    3122:	66 85 c9             	test   %cx,%cx
    3125:	74 79                	je     31a0 <utf16_to_str+0xa0>
    3127:	90                   	nop
    3128:	89 c8                	mov    %ecx,%eax
    312a:	25 00 fc ff ff       	and    $0xfffffc00,%eax
    312f:	66 3d 00 d8          	cmp    $0xd800,%ax
    3133:	0f 84 df 00 00 00    	je     3218 <utf16_to_str+0x118>
    3139:	81 e1 ff ff 00 00    	and    $0xffff,%ecx
    313f:	47                   	inc    %edi
    3140:	39 75 c4             	cmp    %esi,-0x3c(%ebp)
    3143:	0f 86 14 01 00 00    	jbe    325d <utf16_to_str+0x15d>
    3149:	81 f9 ff ff 10 00    	cmp    $0x10ffff,%ecx
    314f:	76 17                	jbe    3168 <utf16_to_str+0x68>
    3151:	8b 55 08             	mov    0x8(%ebp),%edx
    3154:	b8 f2 ff ff ff       	mov    $0xfffffff2,%eax
    3159:	c6 04 32 00          	movb   $0x0,(%edx,%esi,1)
    315d:	83 c4 4c             	add    $0x4c,%esp
    3160:	5b                   	pop    %ebx
    3161:	5e                   	pop    %esi
    3162:	5f                   	pop    %edi
    3163:	5d                   	pop    %ebp
    3164:	c3                   	ret    
    3165:	8d 76 00             	lea    0x0(%esi),%esi
    3168:	f7 c1 80 ff ff ff    	test   $0xffffff80,%ecx
    316e:	75 48                	jne    31b8 <utf16_to_str+0xb8>
    3170:	89 75 c0             	mov    %esi,-0x40(%ebp)
    3173:	c6 45 d8 00          	movb   $0x0,-0x28(%ebp)
    3177:	c6 45 c8 7f          	movb   $0x7f,-0x38(%ebp)
    317b:	90                   	nop
    317c:	8d 74 26 00          	lea    0x0(%esi,%eiz,1),%esi
    3180:	8b 5d c8             	mov    -0x38(%ebp),%ebx
    3183:	8b 45 d8             	mov    -0x28(%ebp),%eax
    3186:	21 d9                	and    %ebx,%ecx
    3188:	8b 55 10             	mov    0x10(%ebp),%edx
    318b:	09 c1                	or     %eax,%ecx
    318d:	8b 45 08             	mov    0x8(%ebp),%eax
    3190:	88 0c 30             	mov    %cl,(%eax,%esi,1)
    3193:	8b 75 c0             	mov    -0x40(%ebp),%esi
    3196:	66 8b 0c 7a          	mov    (%edx,%edi,2),%cx
    319a:	46                   	inc    %esi
    319b:	66 85 c9             	test   %cx,%cx
    319e:	75 88                	jne    3128 <utf16_to_str+0x28>
    31a0:	8b 55 08             	mov    0x8(%ebp),%edx
    31a3:	31 c0                	xor    %eax,%eax
    31a5:	c6 04 32 00          	movb   $0x0,(%edx,%esi,1)
    31a9:	83 c4 4c             	add    $0x4c,%esp
    31ac:	5b                   	pop    %ebx
    31ad:	5e                   	pop    %esi
    31ae:	5f                   	pop    %edi
    31af:	5d                   	pop    %ebp
    31b0:	c3                   	ret    
    31b1:	8d b4 26 00 00 00 00 	lea    0x0(%esi,%eiz,1),%esi
    31b8:	f7 c1 00 f8 ff ff    	test   $0xfffff800,%ecx
    31be:	0f 84 b4 00 00 00    	je     3278 <utf16_to_str+0x178>
    31c4:	89 c8                	mov    %ecx,%eax
    31c6:	25 00 00 ff ff       	and    $0xffff0000,%eax
    31cb:	83 f8 01             	cmp    $0x1,%eax
    31ce:	19 d2                	sbb    %edx,%edx
    31d0:	83 e2 f0             	and    $0xfffffff0,%edx
    31d3:	83 ea 10             	sub    $0x10,%edx
    31d6:	83 f8 01             	cmp    $0x1,%eax
    31d9:	88 55 d8             	mov    %dl,-0x28(%ebp)
    31dc:	19 d2                	sbb    %edx,%edx
    31de:	83 e2 08             	and    $0x8,%edx
    31e1:	83 c2 07             	add    $0x7,%edx
    31e4:	83 f8 01             	cmp    $0x1,%eax
    31e7:	19 c0                	sbb    %eax,%eax
    31e9:	88 55 c8             	mov    %dl,-0x38(%ebp)
    31ec:	83 c0 03             	add    $0x3,%eax
    31ef:	8d 14 30             	lea    (%eax,%esi,1),%edx
    31f2:	89 55 c0             	mov    %edx,-0x40(%ebp)
    31f5:	39 55 c4             	cmp    %edx,-0x3c(%ebp)
    31f8:	76 63                	jbe    325d <utf16_to_str+0x15d>
    31fa:	8b 55 08             	mov    0x8(%ebp),%edx
    31fd:	8d 1c 32             	lea    (%edx,%esi,1),%ebx
    3200:	89 ca                	mov    %ecx,%edx
    3202:	c1 e9 06             	shr    $0x6,%ecx
    3205:	83 e2 3f             	and    $0x3f,%edx
    3208:	80 ca 80             	or     $0x80,%dl
    320b:	88 14 03             	mov    %dl,(%ebx,%eax,1)
    320e:	48                   	dec    %eax
    320f:	75 ef                	jne    3200 <utf16_to_str+0x100>
    3211:	e9 6a ff ff ff       	jmp    3180 <utf16_to_str+0x80>
    3216:	66 90                	xchg   %ax,%ax
    3218:	8b 55 10             	mov    0x10(%ebp),%edx
    321b:	66 8b 44 7a 02       	mov    0x2(%edx,%edi,2),%ax
    3220:	66 85 c0             	test   %ax,%ax
    3223:	0f 84 77 ff ff ff    	je     31a0 <utf16_to_str+0xa0>
    3229:	89 c2                	mov    %eax,%edx
    322b:	81 e2 00 fc ff ff    	and    $0xfffffc00,%edx
    3231:	66 81 fa 00 dc       	cmp    $0xdc00,%dx
    3236:	0f 85 64 ff ff ff    	jne    31a0 <utf16_to_str+0xa0>
    323c:	81 e1 ff 03 00 00    	and    $0x3ff,%ecx
    3242:	25 ff 03 00 00       	and    $0x3ff,%eax
    3247:	c1 e1 0a             	shl    $0xa,%ecx
    324a:	83 c7 02             	add    $0x2,%edi
    324d:	39 75 c4             	cmp    %esi,-0x3c(%ebp)
    3250:	8d 8c 01 00 00 01 00 	lea    0x10000(%ecx,%eax,1),%ecx
    3257:	0f 87 ec fe ff ff    	ja     3149 <utf16_to_str+0x49>
    325d:	8b 55 08             	mov    0x8(%ebp),%edx
    3260:	b8 f0 ff ff ff       	mov    $0xfffffff0,%eax
    3265:	c6 04 32 00          	movb   $0x0,(%edx,%esi,1)
    3269:	83 c4 4c             	add    $0x4c,%esp
    326c:	5b                   	pop    %ebx
    326d:	5e                   	pop    %esi
    326e:	5f                   	pop    %edi
    326f:	5d                   	pop    %ebp
    3270:	c3                   	ret    
    3271:	8d b4 26 00 00 00 00 	lea    0x0(%esi,%eiz,1),%esi
    3278:	c6 45 d8 c0          	movb   $0xc0,-0x28(%ebp)
    327c:	c6 45 c8 1f          	movb   $0x1f,-0x38(%ebp)
    3280:	b8 01 00 00 00       	mov    $0x1,%eax
    3285:	e9 65 ff ff ff       	jmp    31ef <utf16_to_str+0xef>
    328a:	c7 44 24 08 3d 03 00 	movl   $0x33d,0x8(%esp)
    3291:	00 
    3292:	c7 44 24 04 50 dc 01 	movl   $0x1dc50,0x4(%esp)
    3299:	00 
    329a:	c7 04 24 76 e6 01 00 	movl   $0x1e676,(%esp)
    32a1:	e8 9a 3b 01 00       	call   16e40 <assert_abort>
    32a6:	8d 76 00             	lea    0x0(%esi),%esi
    32a9:	8d bc 27 00 00 00 00 	lea    0x0(%edi,%eiz,1),%edi

000032b0 <str_to_utf16>:
    32b0:	55                   	push   %ebp
    32b1:	89 e5                	mov    %esp,%ebp
    32b3:	57                   	push   %edi
    32b4:	56                   	push   %esi
    32b5:	53                   	push   %ebx
    32b6:	83 ec 2c             	sub    $0x2c,%esp
    32b9:	8b 45 0c             	mov    0xc(%ebp),%eax
    32bc:	8b 7d 10             	mov    0x10(%ebp),%edi
    32bf:	85 c0                	test   %eax,%eax
    32c1:	0f 84 46 01 00 00    	je     340d <str_to_utf16+0x15d>
    32c7:	48                   	dec    %eax
    32c8:	31 db                	xor    %ebx,%ebx
    32ca:	c7 45 e4 00 00 00 00 	movl   $0x0,-0x1c(%ebp)
    32d1:	89 45 e0             	mov    %eax,-0x20(%ebp)
    32d4:	eb 61                	jmp    3337 <str_to_utf16+0x87>
    32d6:	66 90                	xchg   %ax,%ax
    32d8:	85 c0                	test   %eax,%eax
    32da:	0f 84 ad 00 00 00    	je     338d <str_to_utf16+0xdd>
    32e0:	3d 00 00 01 00       	cmp    $0x10000,%eax
    32e5:	0f 8e 82 00 00 00    	jle    336d <str_to_utf16+0xbd>
    32eb:	8b 4d e4             	mov    -0x1c(%ebp),%ecx
    32ee:	83 c1 02             	add    $0x2,%ecx
    32f1:	3b 4d e0             	cmp    -0x20(%ebp),%ecx
    32f4:	0f 83 8e 00 00 00    	jae    3388 <str_to_utf16+0xd8>
    32fa:	2d 00 00 01 00       	sub    $0x10000,%eax
    32ff:	8b 5d e4             	mov    -0x1c(%ebp),%ebx
    3302:	89 c1                	mov    %eax,%ecx
    3304:	8b 75 08             	mov    0x8(%ebp),%esi
    3307:	c1 f9 0a             	sar    $0xa,%ecx
    330a:	25 ff 03 00 00       	and    $0x3ff,%eax
    330f:	81 c9 00 d8 ff ff    	or     $0xffffd800,%ecx
    3315:	0d 00 dc ff ff       	or     $0xffffdc00,%eax
    331a:	66 89 0c 5e          	mov    %cx,(%esi,%ebx,2)
    331e:	43                   	inc    %ebx
    331f:	89 5d e4             	mov    %ebx,-0x1c(%ebp)
    3322:	66 89 04 5e          	mov    %ax,(%esi,%ebx,2)
    3326:	8b 45 e4             	mov    -0x1c(%ebp),%eax
    3329:	40                   	inc    %eax
    332a:	8b 75 e0             	mov    -0x20(%ebp),%esi
    332d:	89 45 e4             	mov    %eax,-0x1c(%ebp)
    3330:	89 d3                	mov    %edx,%ebx
    3332:	39 75 e4             	cmp    %esi,-0x1c(%ebp)
    3335:	73 51                	jae    3388 <str_to_utf16+0xd8>
    3337:	0f be 04 1f          	movsbl (%edi,%ebx,1),%eax
    333b:	8d 53 01             	lea    0x1(%ebx),%edx
    333e:	84 c0                	test   %al,%al
    3340:	79 96                	jns    32d8 <str_to_utf16+0x28>
    3342:	88 c1                	mov    %al,%cl
    3344:	83 e1 e0             	and    $0xffffffe0,%ecx
    3347:	80 f9 c0             	cmp    $0xc0,%cl
    334a:	74 55                	je     33a1 <str_to_utf16+0xf1>
    334c:	88 c1                	mov    %al,%cl
    334e:	83 e1 f0             	and    $0xfffffff0,%ecx
    3351:	80 f9 e0             	cmp    $0xe0,%cl
    3354:	0f 84 99 00 00 00    	je     33f3 <str_to_utf16+0x143>
    335a:	88 c1                	mov    %al,%cl
    335c:	83 e1 f8             	and    $0xfffffff8,%ecx
    335f:	80 f9 f0             	cmp    $0xf0,%cl
    3362:	0f 84 94 00 00 00    	je     33fc <str_to_utf16+0x14c>
    3368:	b8 3f 00 00 00       	mov    $0x3f,%eax
    336d:	8b 4d e4             	mov    -0x1c(%ebp),%ecx
    3370:	8b 5d 08             	mov    0x8(%ebp),%ebx
    3373:	8b 75 e0             	mov    -0x20(%ebp),%esi
    3376:	66 89 04 4b          	mov    %ax,(%ebx,%ecx,2)
    337a:	8b 45 e4             	mov    -0x1c(%ebp),%eax
    337d:	40                   	inc    %eax
    337e:	89 d3                	mov    %edx,%ebx
    3380:	89 45 e4             	mov    %eax,-0x1c(%ebp)
    3383:	39 75 e4             	cmp    %esi,-0x1c(%ebp)
    3386:	72 af                	jb     3337 <str_to_utf16+0x87>
    3388:	b8 f0 ff ff ff       	mov    $0xfffffff0,%eax
    338d:	8b 55 e4             	mov    -0x1c(%ebp),%edx
    3390:	8b 4d 08             	mov    0x8(%ebp),%ecx
    3393:	66 c7 04 51 00 00    	movw   $0x0,(%ecx,%edx,2)
    3399:	83 c4 2c             	add    $0x2c,%esp
    339c:	5b                   	pop    %ebx
    339d:	5e                   	pop    %esi
    339e:	5f                   	pop    %edi
    339f:	5d                   	pop    %ebp
    33a0:	c3                   	ret    
    33a1:	b1 1f                	mov    $0x1f,%cl
    33a3:	be 01 00 00 00       	mov    $0x1,%esi
    33a8:	21 c8                	and    %ecx,%eax
    33aa:	83 c3 02             	add    $0x2,%ebx
    33ad:	8a 0c 17             	mov    (%edi,%edx,1),%cl
    33b0:	89 5d dc             	mov    %ebx,-0x24(%ebp)
    33b3:	88 cb                	mov    %cl,%bl
    33b5:	25 ff 00 00 00       	and    $0xff,%eax
    33ba:	83 e3 c0             	and    $0xffffffc0,%ebx
    33bd:	80 fb 80             	cmp    $0x80,%bl
    33c0:	75 43                	jne    3405 <str_to_utf16+0x155>
    33c2:	01 d6                	add    %edx,%esi
    33c4:	8b 55 dc             	mov    -0x24(%ebp),%edx
    33c7:	eb 15                	jmp    33de <str_to_utf16+0x12e>
    33c9:	8d b4 26 00 00 00 00 	lea    0x0(%esi,%eiz,1),%esi
    33d0:	8a 0c 17             	mov    (%edi,%edx,1),%cl
    33d3:	42                   	inc    %edx
    33d4:	88 cb                	mov    %cl,%bl
    33d6:	83 e3 c0             	and    $0xffffffc0,%ebx
    33d9:	80 fb 80             	cmp    $0x80,%bl
    33dc:	75 8a                	jne    3368 <str_to_utf16+0xb8>
    33de:	89 c3                	mov    %eax,%ebx
    33e0:	89 c8                	mov    %ecx,%eax
    33e2:	c1 e3 06             	shl    $0x6,%ebx
    33e5:	83 e0 3f             	and    $0x3f,%eax
    33e8:	09 d8                	or     %ebx,%eax
    33ea:	39 f2                	cmp    %esi,%edx
    33ec:	75 e2                	jne    33d0 <str_to_utf16+0x120>
    33ee:	e9 e5 fe ff ff       	jmp    32d8 <str_to_utf16+0x28>
    33f3:	b1 0f                	mov    $0xf,%cl
    33f5:	be 02 00 00 00       	mov    $0x2,%esi
    33fa:	eb ac                	jmp    33a8 <str_to_utf16+0xf8>
    33fc:	b1 07                	mov    $0x7,%cl
    33fe:	be 03 00 00 00       	mov    $0x3,%esi
    3403:	eb a3                	jmp    33a8 <str_to_utf16+0xf8>
    3405:	8b 55 dc             	mov    -0x24(%ebp),%edx
    3408:	e9 5b ff ff ff       	jmp    3368 <str_to_utf16+0xb8>
    340d:	c7 44 24 08 5c 03 00 	movl   $0x35c,0x8(%esp)
    3414:	00 
    3415:	c7 44 24 04 50 dc 01 	movl   $0x1dc50,0x4(%esp)
    341c:	00 
    341d:	c7 04 24 76 e6 01 00 	movl   $0x1e676,(%esp)
    3424:	e8 17 3a 01 00       	call   16e40 <assert_abort>
    3429:	8d b4 26 00 00 00 00 	lea    0x0(%esi,%eiz,1),%esi

00003430 <wstr_to_astr>:
    3430:	55                   	push   %ebp
    3431:	89 e5                	mov    %esp,%ebp
    3433:	57                   	push   %edi
    3434:	56                   	push   %esi
    3435:	53                   	push   %ebx
    3436:	83 ec 4c             	sub    $0x4c,%esp
    3439:	8b 55 08             	mov    0x8(%ebp),%edx
    343c:	8b 0a                	mov    (%edx),%ecx
    343e:	85 c9                	test   %ecx,%ecx
    3440:	74 59                	je     349b <wstr_to_astr+0x6b>
    3442:	81 f9 ff ff 10 00    	cmp    $0x10ffff,%ecx
    3448:	77 51                	ja     349b <wstr_to_astr+0x6b>
    344a:	8b 7d 08             	mov    0x8(%ebp),%edi
    344d:	31 db                	xor    %ebx,%ebx
    344f:	83 c7 04             	add    $0x4,%edi
    3452:	8d 75 e4             	lea    -0x1c(%ebp),%esi
    3455:	8d 76 00             	lea    0x0(%esi),%esi
    3458:	f7 c1 80 ff ff ff    	test   $0xffffff80,%ecx
    345e:	0f 85 e4 00 00 00    	jne    3548 <wstr_to_astr+0x118>
    3464:	c7 45 cc 01 00 00 00 	movl   $0x1,-0x34(%ebp)
    346b:	c6 45 d0 00          	movb   $0x0,-0x30(%ebp)
    346f:	c6 45 d4 7f          	movb   $0x7f,-0x2c(%ebp)
    3473:	8b 45 d4             	mov    -0x2c(%ebp),%eax
    3476:	21 c1                	and    %eax,%ecx
    3478:	8b 45 d0             	mov    -0x30(%ebp),%eax
    347b:	09 c1                	or     %eax,%ecx
    347d:	8b 45 cc             	mov    -0x34(%ebp),%eax
    3480:	88 4d e4             	mov    %cl,-0x1c(%ebp)
    3483:	8b 0f                	mov    (%edi),%ecx
    3485:	01 c3                	add    %eax,%ebx
    3487:	85 c9                	test   %ecx,%ecx
    3489:	74 0b                	je     3496 <wstr_to_astr+0x66>
    348b:	83 c7 04             	add    $0x4,%edi
    348e:	81 f9 ff ff 10 00    	cmp    $0x10ffff,%ecx
    3494:	76 c2                	jbe    3458 <wstr_to_astr+0x28>
    3496:	8d 43 01             	lea    0x1(%ebx),%eax
    3499:	eb 0d                	jmp    34a8 <wstr_to_astr+0x78>
    349b:	b8 01 00 00 00       	mov    $0x1,%eax
    34a0:	31 db                	xor    %ebx,%ebx
    34a2:	8d b6 00 00 00 00    	lea    0x0(%esi),%esi
    34a8:	89 04 24             	mov    %eax,(%esp)
    34ab:	e8 60 96 00 00       	call   cb10 <malloc>
    34b0:	89 c7                	mov    %eax,%edi
    34b2:	85 c0                	test   %eax,%eax
    34b4:	0f 84 7d 00 00 00    	je     3537 <wstr_to_astr+0x107>
    34ba:	8b 55 08             	mov    0x8(%ebp),%edx
    34bd:	8b 02                	mov    (%edx),%eax
    34bf:	85 c0                	test   %eax,%eax
    34c1:	74 70                	je     3533 <wstr_to_astr+0x103>
    34c3:	85 db                	test   %ebx,%ebx
    34c5:	74 6c                	je     3533 <wstr_to_astr+0x103>
    34c7:	89 c6                	mov    %eax,%esi
    34c9:	3d ff ff 10 00       	cmp    $0x10ffff,%eax
    34ce:	77 63                	ja     3533 <wstr_to_astr+0x103>
    34d0:	8b 55 08             	mov    0x8(%ebp),%edx
    34d3:	31 c0                	xor    %eax,%eax
    34d5:	83 c2 04             	add    $0x4,%edx
    34d8:	89 5d d0             	mov    %ebx,-0x30(%ebp)
    34db:	89 55 d4             	mov    %edx,-0x2c(%ebp)
    34de:	89 c3                	mov    %eax,%ebx
    34e0:	f7 c6 80 ff ff ff    	test   $0xffffff80,%esi
    34e6:	0f 85 c4 00 00 00    	jne    35b0 <wstr_to_astr+0x180>
    34ec:	3b 5d d0             	cmp    -0x30(%ebp),%ebx
    34ef:	73 3f                	jae    3530 <wstr_to_astr+0x100>
    34f1:	89 5d c4             	mov    %ebx,-0x3c(%ebp)
    34f4:	c6 45 cc 00          	movb   $0x0,-0x34(%ebp)
    34f8:	c6 45 cb 7f          	movb   $0x7f,-0x35(%ebp)
    34fc:	8d 74 26 00          	lea    0x0(%esi,%eiz,1),%esi
    3500:	8a 45 cb             	mov    -0x35(%ebp),%al
    3503:	8b 55 cc             	mov    -0x34(%ebp),%edx
    3506:	21 f0                	and    %esi,%eax
    3508:	09 d0                	or     %edx,%eax
    350a:	88 04 1f             	mov    %al,(%edi,%ebx,1)
    350d:	8b 45 d4             	mov    -0x2c(%ebp),%eax
    3510:	8b 5d c4             	mov    -0x3c(%ebp),%ebx
    3513:	8b 30                	mov    (%eax),%esi
    3515:	43                   	inc    %ebx
    3516:	85 f6                	test   %esi,%esi
    3518:	74 16                	je     3530 <wstr_to_astr+0x100>
    351a:	39 5d d0             	cmp    %ebx,-0x30(%ebp)
    351d:	76 11                	jbe    3530 <wstr_to_astr+0x100>
    351f:	8b 4d d4             	mov    -0x2c(%ebp),%ecx
    3522:	83 c1 04             	add    $0x4,%ecx
    3525:	81 fe ff ff 10 00    	cmp    $0x10ffff,%esi
    352b:	89 4d d4             	mov    %ecx,-0x2c(%ebp)
    352e:	76 b0                	jbe    34e0 <wstr_to_astr+0xb0>
    3530:	8b 5d d0             	mov    -0x30(%ebp),%ebx
    3533:	c6 04 1f 00          	movb   $0x0,(%edi,%ebx,1)
    3537:	83 c4 4c             	add    $0x4c,%esp
    353a:	89 f8                	mov    %edi,%eax
    353c:	5b                   	pop    %ebx
    353d:	5e                   	pop    %esi
    353e:	5f                   	pop    %edi
    353f:	5d                   	pop    %ebp
    3540:	c3                   	ret    
    3541:	8d b4 26 00 00 00 00 	lea    0x0(%esi,%eiz,1),%esi
    3548:	f7 c1 00 f8 ff ff    	test   $0xfffff800,%ecx
    354e:	74 48                	je     3598 <wstr_to_astr+0x168>
    3550:	f7 c1 00 00 ff ff    	test   $0xffff0000,%ecx
    3556:	0f 84 ac 00 00 00    	je     3608 <wstr_to_astr+0x1d8>
    355c:	f7 c1 00 00 e0 ff    	test   $0xffe00000,%ecx
    3562:	0f 85 2e ff ff ff    	jne    3496 <wstr_to_astr+0x66>
    3568:	c6 45 d0 f0          	movb   $0xf0,-0x30(%ebp)
    356c:	c6 45 d4 07          	movb   $0x7,-0x2c(%ebp)
    3570:	c7 45 cc 04 00 00 00 	movl   $0x4,-0x34(%ebp)
    3577:	b8 03 00 00 00       	mov    $0x3,%eax
    357c:	01 f0                	add    %esi,%eax
    357e:	66 90                	xchg   %ax,%ax
    3580:	89 ca                	mov    %ecx,%edx
    3582:	c1 e9 06             	shr    $0x6,%ecx
    3585:	83 e2 3f             	and    $0x3f,%edx
    3588:	80 ca 80             	or     $0x80,%dl
    358b:	88 10                	mov    %dl,(%eax)
    358d:	48                   	dec    %eax
    358e:	39 f0                	cmp    %esi,%eax
    3590:	75 ee                	jne    3580 <wstr_to_astr+0x150>
    3592:	e9 dc fe ff ff       	jmp    3473 <wstr_to_astr+0x43>
    3597:	90                   	nop
    3598:	c6 45 d0 c0          	movb   $0xc0,-0x30(%ebp)
    359c:	c6 45 d4 1f          	movb   $0x1f,-0x2c(%ebp)
    35a0:	c7 45 cc 02 00 00 00 	movl   $0x2,-0x34(%ebp)
    35a7:	b8 01 00 00 00       	mov    $0x1,%eax
    35ac:	eb ce                	jmp    357c <wstr_to_astr+0x14c>
    35ae:	66 90                	xchg   %ax,%ax
    35b0:	f7 c6 00 f8 ff ff    	test   $0xfffff800,%esi
    35b6:	74 70                	je     3628 <wstr_to_astr+0x1f8>
    35b8:	f7 c6 00 00 ff ff    	test   $0xffff0000,%esi
    35be:	74 77                	je     3637 <wstr_to_astr+0x207>
    35c0:	f7 c6 00 00 e0 ff    	test   $0xffe00000,%esi
    35c6:	0f 85 64 ff ff ff    	jne    3530 <wstr_to_astr+0x100>
    35cc:	c6 45 cc f0          	movb   $0xf0,-0x34(%ebp)
    35d0:	c6 45 cb 07          	movb   $0x7,-0x35(%ebp)
    35d4:	b8 03 00 00 00       	mov    $0x3,%eax
    35d9:	8d 14 18             	lea    (%eax,%ebx,1),%edx
    35dc:	89 55 c4             	mov    %edx,-0x3c(%ebp)
    35df:	8b 55 d0             	mov    -0x30(%ebp),%edx
    35e2:	39 55 c4             	cmp    %edx,-0x3c(%ebp)
    35e5:	73 5f                	jae    3646 <wstr_to_astr+0x216>
    35e7:	8d 0c 1f             	lea    (%edi,%ebx,1),%ecx
    35ea:	8d b6 00 00 00 00    	lea    0x0(%esi),%esi
    35f0:	89 f2                	mov    %esi,%edx
    35f2:	c1 ee 06             	shr    $0x6,%esi
    35f5:	83 e2 3f             	and    $0x3f,%edx
    35f8:	80 ca 80             	or     $0x80,%dl
    35fb:	88 14 01             	mov    %dl,(%ecx,%eax,1)
    35fe:	48                   	dec    %eax
    35ff:	75 ef                	jne    35f0 <wstr_to_astr+0x1c0>
    3601:	e9 fa fe ff ff       	jmp    3500 <wstr_to_astr+0xd0>
    3606:	66 90                	xchg   %ax,%ax
    3608:	c6 45 d0 e0          	movb   $0xe0,-0x30(%ebp)
    360c:	c6 45 d4 0f          	movb   $0xf,-0x2c(%ebp)
    3610:	c7 45 cc 03 00 00 00 	movl   $0x3,-0x34(%ebp)
    3617:	b8 02 00 00 00       	mov    $0x2,%eax
    361c:	e9 5b ff ff ff       	jmp    357c <wstr_to_astr+0x14c>
    3621:	8d b4 26 00 00 00 00 	lea    0x0(%esi,%eiz,1),%esi
    3628:	c6 45 cc c0          	movb   $0xc0,-0x34(%ebp)
    362c:	c6 45 cb 1f          	movb   $0x1f,-0x35(%ebp)
    3630:	b8 01 00 00 00       	mov    $0x1,%eax
    3635:	eb a2                	jmp    35d9 <wstr_to_astr+0x1a9>
    3637:	c6 45 cc e0          	movb   $0xe0,-0x34(%ebp)
    363b:	c6 45 cb 0f          	movb   $0xf,-0x35(%ebp)
    363f:	b8 02 00 00 00       	mov    $0x2,%eax
    3644:	eb 93                	jmp    35d9 <wstr_to_astr+0x1a9>
    3646:	89 d3                	mov    %edx,%ebx
    3648:	e9 e6 fe ff ff       	jmp    3533 <wstr_to_astr+0x103>
    364d:	8d 76 00             	lea    0x0(%esi),%esi

00003650 <str_to_wstr>:
    3650:	55                   	push   %ebp
    3651:	89 e5                	mov    %esp,%ebp
    3653:	57                   	push   %edi
    3654:	56                   	push   %esi
    3655:	53                   	push   %ebx
    3656:	83 ec 2c             	sub    $0x2c,%esp
    3659:	8b 45 0c             	mov    0xc(%ebp),%eax
    365c:	8b 7d 10             	mov    0x10(%ebp),%edi
    365f:	85 c0                	test   %eax,%eax
    3661:	0f 84 f2 00 00 00    	je     3759 <str_to_wstr+0x109>
    3667:	c7 45 e4 01 00 00 00 	movl   $0x1,-0x1c(%ebp)
    366e:	31 c0                	xor    %eax,%eax
    3670:	eb 1d                	jmp    368f <str_to_wstr+0x3f>
    3672:	8d b6 00 00 00 00    	lea    0x0(%esi),%esi
    3678:	89 f0                	mov    %esi,%eax
    367a:	8b 4d e4             	mov    -0x1c(%ebp),%ecx
    367d:	8b 5d 08             	mov    0x8(%ebp),%ebx
    3680:	85 d2                	test   %edx,%edx
    3682:	89 54 8b fc          	mov    %edx,-0x4(%ebx,%ecx,4)
    3686:	74 58                	je     36e0 <str_to_wstr+0x90>
    3688:	8b 75 e4             	mov    -0x1c(%ebp),%esi
    368b:	46                   	inc    %esi
    368c:	89 75 e4             	mov    %esi,-0x1c(%ebp)
    368f:	8b 55 0c             	mov    0xc(%ebp),%edx
    3692:	39 55 e4             	cmp    %edx,-0x1c(%ebp)
    3695:	74 49                	je     36e0 <str_to_wstr+0x90>
    3697:	0f be 14 07          	movsbl (%edi,%eax,1),%edx
    369b:	8d 70 01             	lea    0x1(%eax),%esi
    369e:	84 d2                	test   %dl,%dl
    36a0:	79 d6                	jns    3678 <str_to_wstr+0x28>
    36a2:	88 d1                	mov    %dl,%cl
    36a4:	83 e1 e0             	and    $0xffffffe0,%ecx
    36a7:	80 f9 c0             	cmp    $0xc0,%cl
    36aa:	74 4a                	je     36f6 <str_to_wstr+0xa6>
    36ac:	88 d1                	mov    %dl,%cl
    36ae:	83 e1 f0             	and    $0xfffffff0,%ecx
    36b1:	80 f9 e0             	cmp    $0xe0,%cl
    36b4:	0f 84 89 00 00 00    	je     3743 <str_to_wstr+0xf3>
    36ba:	88 d1                	mov    %dl,%cl
    36bc:	83 e1 f8             	and    $0xfffffff8,%ecx
    36bf:	80 f9 f0             	cmp    $0xf0,%cl
    36c2:	0f 84 86 00 00 00    	je     374e <str_to_wstr+0xfe>
    36c8:	89 f0                	mov    %esi,%eax
    36ca:	8b 55 e4             	mov    -0x1c(%ebp),%edx
    36cd:	8b 4d 08             	mov    0x8(%ebp),%ecx
    36d0:	c7 44 91 fc 3f 00 00 	movl   $0x3f,-0x4(%ecx,%edx,4)
    36d7:	00 
    36d8:	eb ae                	jmp    3688 <str_to_wstr+0x38>
    36da:	8d b6 00 00 00 00    	lea    0x0(%esi),%esi
    36e0:	8b 5d 08             	mov    0x8(%ebp),%ebx
    36e3:	8b 4d 0c             	mov    0xc(%ebp),%ecx
    36e6:	c7 44 8b fc 00 00 00 	movl   $0x0,-0x4(%ebx,%ecx,4)
    36ed:	00 
    36ee:	83 c4 2c             	add    $0x2c,%esp
    36f1:	5b                   	pop    %ebx
    36f2:	5e                   	pop    %esi
    36f3:	5f                   	pop    %edi
    36f4:	5d                   	pop    %ebp
    36f5:	c3                   	ret    
    36f6:	b1 1f                	mov    $0x1f,%cl
    36f8:	c7 45 dc 01 00 00 00 	movl   $0x1,-0x24(%ebp)
    36ff:	21 ca                	and    %ecx,%edx
    3701:	8a 0c 37             	mov    (%edi,%esi,1),%cl
    3704:	88 cb                	mov    %cl,%bl
    3706:	81 e2 ff 00 00 00    	and    $0xff,%edx
    370c:	83 e3 c0             	and    $0xffffffc0,%ebx
    370f:	83 c0 02             	add    $0x2,%eax
    3712:	80 fb 80             	cmp    $0x80,%bl
    3715:	75 b3                	jne    36ca <str_to_wstr+0x7a>
    3717:	8b 5d dc             	mov    -0x24(%ebp),%ebx
    371a:	01 de                	add    %ebx,%esi
    371c:	eb 10                	jmp    372e <str_to_wstr+0xde>
    371e:	66 90                	xchg   %ax,%ax
    3720:	8a 0c 07             	mov    (%edi,%eax,1),%cl
    3723:	40                   	inc    %eax
    3724:	88 cb                	mov    %cl,%bl
    3726:	83 e3 c0             	and    $0xffffffc0,%ebx
    3729:	80 fb 80             	cmp    $0x80,%bl
    372c:	75 9c                	jne    36ca <str_to_wstr+0x7a>
    372e:	89 d3                	mov    %edx,%ebx
    3730:	89 ca                	mov    %ecx,%edx
    3732:	c1 e3 06             	shl    $0x6,%ebx
    3735:	83 e2 3f             	and    $0x3f,%edx
    3738:	09 da                	or     %ebx,%edx
    373a:	39 f0                	cmp    %esi,%eax
    373c:	75 e2                	jne    3720 <str_to_wstr+0xd0>
    373e:	e9 37 ff ff ff       	jmp    367a <str_to_wstr+0x2a>
    3743:	b1 0f                	mov    $0xf,%cl
    3745:	c7 45 dc 02 00 00 00 	movl   $0x2,-0x24(%ebp)
    374c:	eb b1                	jmp    36ff <str_to_wstr+0xaf>
    374e:	b1 07                	mov    $0x7,%cl
    3750:	c7 45 dc 03 00 00 00 	movl   $0x3,-0x24(%ebp)
    3757:	eb a6                	jmp    36ff <str_to_wstr+0xaf>
    3759:	c7 44 24 08 b9 03 00 	movl   $0x3b9,0x8(%esp)
    3760:	00 
    3761:	c7 44 24 04 50 dc 01 	movl   $0x1dc50,0x4(%esp)
    3768:	00 
    3769:	c7 04 24 88 dc 01 00 	movl   $0x1dc88,(%esp)
    3770:	e8 cb 36 01 00       	call   16e40 <assert_abort>
    3775:	8d 74 26 00          	lea    0x0(%esi,%eiz,1),%esi
    3779:	8d bc 27 00 00 00 00 	lea    0x0(%edi,%eiz,1),%edi

00003780 <str_to_awstr>:
    3780:	55                   	push   %ebp
    3781:	89 e5                	mov    %esp,%ebp
    3783:	57                   	push   %edi
    3784:	56                   	push   %esi
    3785:	53                   	push   %ebx
    3786:	83 ec 2c             	sub    $0x2c,%esp
    3789:	31 ff                	xor    %edi,%edi
    378b:	8b 5d 08             	mov    0x8(%ebp),%ebx
    378e:	c7 45 e4 00 00 00 00 	movl   $0x0,-0x1c(%ebp)
    3795:	eb 0e                	jmp    37a5 <str_to_awstr+0x25>
    3797:	90                   	nop
    3798:	85 c0                	test   %eax,%eax
    379a:	74 3f                	je     37db <str_to_awstr+0x5b>
    379c:	8b 45 e4             	mov    -0x1c(%ebp),%eax
    379f:	89 d7                	mov    %edx,%edi
    37a1:	40                   	inc    %eax
    37a2:	89 45 e4             	mov    %eax,-0x1c(%ebp)
    37a5:	0f be 04 3b          	movsbl (%ebx,%edi,1),%eax
    37a9:	8d 57 01             	lea    0x1(%edi),%edx
    37ac:	84 c0                	test   %al,%al
    37ae:	79 e8                	jns    3798 <str_to_awstr+0x18>
    37b0:	88 c1                	mov    %al,%cl
    37b2:	83 e1 e0             	and    $0xffffffe0,%ecx
    37b5:	80 f9 c0             	cmp    $0xc0,%cl
    37b8:	74 57                	je     3811 <str_to_awstr+0x91>
    37ba:	88 c1                	mov    %al,%cl
    37bc:	83 e1 f0             	and    $0xfffffff0,%ecx
    37bf:	80 f9 e0             	cmp    $0xe0,%cl
    37c2:	0f 84 a9 00 00 00    	je     3871 <str_to_awstr+0xf1>
    37c8:	88 c1                	mov    %al,%cl
    37ca:	83 e1 f8             	and    $0xfffffff8,%ecx
    37cd:	80 f9 f0             	cmp    $0xf0,%cl
    37d0:	75 ca                	jne    379c <str_to_awstr+0x1c>
    37d2:	b1 07                	mov    $0x7,%cl
    37d4:	be 03 00 00 00       	mov    $0x3,%esi
    37d9:	eb 3d                	jmp    3818 <str_to_awstr+0x98>
    37db:	8b 75 e4             	mov    -0x1c(%ebp),%esi
    37de:	c7 44 24 04 04 00 00 	movl   $0x4,0x4(%esp)
    37e5:	00 
    37e6:	46                   	inc    %esi
    37e7:	89 34 24             	mov    %esi,(%esp)
    37ea:	e8 c1 92 00 00       	call   cab0 <calloc>
    37ef:	85 c0                	test   %eax,%eax
    37f1:	74 16                	je     3809 <str_to_awstr+0x89>
    37f3:	89 04 24             	mov    %eax,(%esp)
    37f6:	89 5c 24 08          	mov    %ebx,0x8(%esp)
    37fa:	89 74 24 04          	mov    %esi,0x4(%esp)
    37fe:	89 45 dc             	mov    %eax,-0x24(%ebp)
    3801:	e8 4a fe ff ff       	call   3650 <str_to_wstr>
    3806:	8b 45 dc             	mov    -0x24(%ebp),%eax
    3809:	83 c4 2c             	add    $0x2c,%esp
    380c:	5b                   	pop    %ebx
    380d:	5e                   	pop    %esi
    380e:	5f                   	pop    %edi
    380f:	5d                   	pop    %ebp
    3810:	c3                   	ret    
    3811:	b1 1f                	mov    $0x1f,%cl
    3813:	be 01 00 00 00       	mov    $0x1,%esi
    3818:	21 c8                	and    %ecx,%eax
    381a:	8a 0c 13             	mov    (%ebx,%edx,1),%cl
    381d:	83 c7 02             	add    $0x2,%edi
    3820:	88 4d db             	mov    %cl,-0x25(%ebp)
    3823:	83 e1 c0             	and    $0xffffffc0,%ecx
    3826:	25 ff 00 00 00       	and    $0xff,%eax
    382b:	89 7d e0             	mov    %edi,-0x20(%ebp)
    382e:	80 f9 80             	cmp    $0x80,%cl
    3831:	75 47                	jne    387a <str_to_awstr+0xfa>
    3833:	8d 3c 32             	lea    (%edx,%esi,1),%edi
    3836:	8a 4d db             	mov    -0x25(%ebp),%cl
    3839:	8b 55 e0             	mov    -0x20(%ebp),%edx
    383c:	89 5d e0             	mov    %ebx,-0x20(%ebp)
    383f:	90                   	nop
    3840:	89 c6                	mov    %eax,%esi
    3842:	89 c8                	mov    %ecx,%eax
    3844:	c1 e6 06             	shl    $0x6,%esi
    3847:	83 e0 3f             	and    $0x3f,%eax
    384a:	09 f0                	or     %esi,%eax
    384c:	8b 5d e0             	mov    -0x20(%ebp),%ebx
    384f:	39 fa                	cmp    %edi,%edx
    3851:	0f 84 41 ff ff ff    	je     3798 <str_to_awstr+0x18>
    3857:	8a 0c 13             	mov    (%ebx,%edx,1),%cl
    385a:	be c0 ff ff ff       	mov    $0xffffffc0,%esi
    385f:	21 ce                	and    %ecx,%esi
    3861:	42                   	inc    %edx
    3862:	89 f3                	mov    %esi,%ebx
    3864:	80 fb 80             	cmp    $0x80,%bl
    3867:	74 d7                	je     3840 <str_to_awstr+0xc0>
    3869:	8b 5d e0             	mov    -0x20(%ebp),%ebx
    386c:	e9 2b ff ff ff       	jmp    379c <str_to_awstr+0x1c>
    3871:	b1 0f                	mov    $0xf,%cl
    3873:	be 02 00 00 00       	mov    $0x2,%esi
    3878:	eb 9e                	jmp    3818 <str_to_awstr+0x98>
    387a:	89 fa                	mov    %edi,%edx
    387c:	e9 1b ff ff ff       	jmp    379c <str_to_awstr+0x1c>
    3881:	eb 0d                	jmp    3890 <str_chr>
    3883:	90                   	nop
    3884:	90                   	nop
    3885:	90                   	nop
    3886:	90                   	nop
    3887:	90                   	nop
    3888:	90                   	nop
    3889:	90                   	nop
    388a:	90                   	nop
    388b:	90                   	nop
    388c:	90                   	nop
    388d:	90                   	nop
    388e:	90                   	nop
    388f:	90                   	nop

00003890 <str_chr>:
    3890:	55                   	push   %ebp
    3891:	89 e5                	mov    %esp,%ebp
    3893:	57                   	push   %edi
    3894:	56                   	push   %esi
    3895:	53                   	push   %ebx
    3896:	83 ec 0c             	sub    $0xc,%esp
    3899:	31 ff                	xor    %edi,%edi
    389b:	8b 5d 08             	mov    0x8(%ebp),%ebx
    389e:	eb 0f                	jmp    38af <str_chr+0x1f>
    38a0:	85 c0                	test   %eax,%eax
    38a2:	0f 84 bf 00 00 00    	je     3967 <str_chr+0xd7>
    38a8:	89 d7                	mov    %edx,%edi
    38aa:	39 45 0c             	cmp    %eax,0xc(%ebp)
    38ad:	74 42                	je     38f1 <str_chr+0x61>
    38af:	8d 04 3b             	lea    (%ebx,%edi,1),%eax
    38b2:	8d 57 01             	lea    0x1(%edi),%edx
    38b5:	89 45 f0             	mov    %eax,-0x10(%ebp)
    38b8:	0f be 00             	movsbl (%eax),%eax
    38bb:	84 c0                	test   %al,%al
    38bd:	79 e1                	jns    38a0 <str_chr+0x10>
    38bf:	88 c1                	mov    %al,%cl
    38c1:	83 e1 e0             	and    $0xffffffe0,%ecx
    38c4:	80 f9 c0             	cmp    $0xc0,%cl
    38c7:	74 33                	je     38fc <str_chr+0x6c>
    38c9:	88 c1                	mov    %al,%cl
    38cb:	83 e1 f0             	and    $0xfffffff0,%ecx
    38ce:	80 f9 e0             	cmp    $0xe0,%cl
    38d1:	0f 84 87 00 00 00    	je     395e <str_chr+0xce>
    38d7:	88 c1                	mov    %al,%cl
    38d9:	83 e1 f8             	and    $0xfffffff8,%ecx
    38dc:	80 f9 f0             	cmp    $0xf0,%cl
    38df:	0f 84 94 00 00 00    	je     3979 <str_chr+0xe9>
    38e5:	b8 3f 00 00 00       	mov    $0x3f,%eax
    38ea:	89 d7                	mov    %edx,%edi
    38ec:	39 45 0c             	cmp    %eax,0xc(%ebp)
    38ef:	75 be                	jne    38af <str_chr+0x1f>
    38f1:	8b 45 f0             	mov    -0x10(%ebp),%eax
    38f4:	83 c4 0c             	add    $0xc,%esp
    38f7:	5b                   	pop    %ebx
    38f8:	5e                   	pop    %esi
    38f9:	5f                   	pop    %edi
    38fa:	5d                   	pop    %ebp
    38fb:	c3                   	ret    
    38fc:	b1 1f                	mov    $0x1f,%cl
    38fe:	be 01 00 00 00       	mov    $0x1,%esi
    3903:	21 c8                	and    %ecx,%eax
    3905:	8a 0c 13             	mov    (%ebx,%edx,1),%cl
    3908:	83 c7 02             	add    $0x2,%edi
    390b:	88 4d eb             	mov    %cl,-0x15(%ebp)
    390e:	83 e1 c0             	and    $0xffffffc0,%ecx
    3911:	25 ff 00 00 00       	and    $0xff,%eax
    3916:	89 7d ec             	mov    %edi,-0x14(%ebp)
    3919:	80 f9 80             	cmp    $0x80,%cl
    391c:	75 64                	jne    3982 <str_chr+0xf2>
    391e:	8d 3c 32             	lea    (%edx,%esi,1),%edi
    3921:	8a 4d eb             	mov    -0x15(%ebp),%cl
    3924:	8b 55 ec             	mov    -0x14(%ebp),%edx
    3927:	89 5d ec             	mov    %ebx,-0x14(%ebp)
    392a:	8d b6 00 00 00 00    	lea    0x0(%esi),%esi
    3930:	89 c6                	mov    %eax,%esi
    3932:	89 c8                	mov    %ecx,%eax
    3934:	c1 e6 06             	shl    $0x6,%esi
    3937:	83 e0 3f             	and    $0x3f,%eax
    393a:	09 f0                	or     %esi,%eax
    393c:	8b 5d ec             	mov    -0x14(%ebp),%ebx
    393f:	39 fa                	cmp    %edi,%edx
    3941:	0f 84 59 ff ff ff    	je     38a0 <str_chr+0x10>
    3947:	8a 0c 13             	mov    (%ebx,%edx,1),%cl
    394a:	be c0 ff ff ff       	mov    $0xffffffc0,%esi
    394f:	21 ce                	and    %ecx,%esi
    3951:	42                   	inc    %edx
    3952:	89 f3                	mov    %esi,%ebx
    3954:	80 fb 80             	cmp    $0x80,%bl
    3957:	74 d7                	je     3930 <str_chr+0xa0>
    3959:	8b 5d ec             	mov    -0x14(%ebp),%ebx
    395c:	eb 87                	jmp    38e5 <str_chr+0x55>
    395e:	b1 0f                	mov    $0xf,%cl
    3960:	be 02 00 00 00       	mov    $0x2,%esi
    3965:	eb 9c                	jmp    3903 <str_chr+0x73>
    3967:	c7 45 f0 00 00 00 00 	movl   $0x0,-0x10(%ebp)
    396e:	8b 45 f0             	mov    -0x10(%ebp),%eax
    3971:	83 c4 0c             	add    $0xc,%esp
    3974:	5b                   	pop    %ebx
    3975:	5e                   	pop    %esi
    3976:	5f                   	pop    %edi
    3977:	5d                   	pop    %ebp
    3978:	c3                   	ret    
    3979:	b1 07                	mov    $0x7,%cl
    397b:	be 03 00 00 00       	mov    $0x3,%esi
    3980:	eb 81                	jmp    3903 <str_chr+0x73>
    3982:	89 fa                	mov    %edi,%edx
    3984:	e9 5c ff ff ff       	jmp    38e5 <str_chr+0x55>
    3989:	8d b4 26 00 00 00 00 	lea    0x0(%esi,%eiz,1),%esi

00003990 <str_rtrim>:
    3990:	55                   	push   %ebp
    3991:	89 e5                	mov    %esp,%ebp
    3993:	57                   	push   %edi
    3994:	56                   	push   %esi
    3995:	53                   	push   %ebx
    3996:	83 ec 10             	sub    $0x10,%esp
    3999:	31 ff                	xor    %edi,%edi
    399b:	8b 5d 08             	mov    0x8(%ebp),%ebx
    399e:	c7 45 e8 00 00 00 00 	movl   $0x0,-0x18(%ebp)
    39a5:	c6 45 ef 01          	movb   $0x1,-0x11(%ebp)
    39a9:	8d 57 01             	lea    0x1(%edi),%edx
    39ac:	8d 0c 3b             	lea    (%ebx,%edi,1),%ecx
    39af:	89 4d f0             	mov    %ecx,-0x10(%ebp)
    39b2:	0f be 01             	movsbl (%ecx),%eax
    39b5:	84 c0                	test   %al,%al
    39b7:	78 2d                	js     39e6 <str_rtrim+0x56>
    39b9:	8d b4 26 00 00 00 00 	lea    0x0(%esi,%eiz,1),%esi
    39c0:	85 c0                	test   %eax,%eax
    39c2:	74 66                	je     3a2a <str_rtrim+0x9a>
    39c4:	39 45 0c             	cmp    %eax,0xc(%ebp)
    39c7:	74 4d                	je     3a16 <str_rtrim+0x86>
    39c9:	c7 45 e8 00 00 00 00 	movl   $0x0,-0x18(%ebp)
    39d0:	c6 45 ef 01          	movb   $0x1,-0x11(%ebp)
    39d4:	89 d7                	mov    %edx,%edi
    39d6:	8d 0c 3b             	lea    (%ebx,%edi,1),%ecx
    39d9:	8d 57 01             	lea    0x1(%edi),%edx
    39dc:	89 4d f0             	mov    %ecx,-0x10(%ebp)
    39df:	0f be 01             	movsbl (%ecx),%eax
    39e2:	84 c0                	test   %al,%al
    39e4:	79 da                	jns    39c0 <str_rtrim+0x30>
    39e6:	88 c1                	mov    %al,%cl
    39e8:	83 e1 e0             	and    $0xffffffe0,%ecx
    39eb:	80 f9 c0             	cmp    $0xc0,%cl
    39ee:	74 4f                	je     3a3f <str_rtrim+0xaf>
    39f0:	88 c1                	mov    %al,%cl
    39f2:	83 e1 f0             	and    $0xfffffff0,%ecx
    39f5:	80 f9 e0             	cmp    $0xe0,%cl
    39f8:	0f 84 a3 00 00 00    	je     3aa1 <str_rtrim+0x111>
    39fe:	88 c1                	mov    %al,%cl
    3a00:	83 e1 f8             	and    $0xfffffff8,%ecx
    3a03:	80 f9 f0             	cmp    $0xf0,%cl
    3a06:	0f 84 9e 00 00 00    	je     3aaa <str_rtrim+0x11a>
    3a0c:	b8 3f 00 00 00       	mov    $0x3f,%eax
    3a11:	39 45 0c             	cmp    %eax,0xc(%ebp)
    3a14:	75 b3                	jne    39c9 <str_rtrim+0x39>
    3a16:	80 7d ef 00          	cmpb   $0x0,-0x11(%ebp)
    3a1a:	74 b8                	je     39d4 <str_rtrim+0x44>
    3a1c:	8b 45 f0             	mov    -0x10(%ebp),%eax
    3a1f:	c6 45 ef 00          	movb   $0x0,-0x11(%ebp)
    3a23:	89 45 e8             	mov    %eax,-0x18(%ebp)
    3a26:	89 d7                	mov    %edx,%edi
    3a28:	eb ac                	jmp    39d6 <str_rtrim+0x46>
    3a2a:	8b 45 e8             	mov    -0x18(%ebp),%eax
    3a2d:	85 c0                	test   %eax,%eax
    3a2f:	74 06                	je     3a37 <str_rtrim+0xa7>
    3a31:	8b 45 e8             	mov    -0x18(%ebp),%eax
    3a34:	c6 00 00             	movb   $0x0,(%eax)
    3a37:	83 c4 10             	add    $0x10,%esp
    3a3a:	5b                   	pop    %ebx
    3a3b:	5e                   	pop    %esi
    3a3c:	5f                   	pop    %edi
    3a3d:	5d                   	pop    %ebp
    3a3e:	c3                   	ret    
    3a3f:	b1 1f                	mov    $0x1f,%cl
    3a41:	be 01 00 00 00       	mov    $0x1,%esi
    3a46:	21 c8                	and    %ecx,%eax
    3a48:	8a 0c 13             	mov    (%ebx,%edx,1),%cl
    3a4b:	83 c7 02             	add    $0x2,%edi
    3a4e:	88 4d ee             	mov    %cl,-0x12(%ebp)
    3a51:	83 e1 c0             	and    $0xffffffc0,%ecx
    3a54:	25 ff 00 00 00       	and    $0xff,%eax
    3a59:	89 7d e4             	mov    %edi,-0x1c(%ebp)
    3a5c:	80 f9 80             	cmp    $0x80,%cl
    3a5f:	75 52                	jne    3ab3 <str_rtrim+0x123>
    3a61:	8d 3c 32             	lea    (%edx,%esi,1),%edi
    3a64:	8a 4d ee             	mov    -0x12(%ebp),%cl
    3a67:	8b 55 e4             	mov    -0x1c(%ebp),%edx
    3a6a:	89 5d e4             	mov    %ebx,-0x1c(%ebp)
    3a6d:	8d 76 00             	lea    0x0(%esi),%esi
    3a70:	89 c6                	mov    %eax,%esi
    3a72:	89 c8                	mov    %ecx,%eax
    3a74:	c1 e6 06             	shl    $0x6,%esi
    3a77:	83 e0 3f             	and    $0x3f,%eax
    3a7a:	09 f0                	or     %esi,%eax
    3a7c:	8b 5d e4             	mov    -0x1c(%ebp),%ebx
    3a7f:	39 fa                	cmp    %edi,%edx
    3a81:	0f 84 39 ff ff ff    	je     39c0 <str_rtrim+0x30>
    3a87:	8a 0c 13             	mov    (%ebx,%edx,1),%cl
    3a8a:	be c0 ff ff ff       	mov    $0xffffffc0,%esi
    3a8f:	21 ce                	and    %ecx,%esi
    3a91:	42                   	inc    %edx
    3a92:	89 f3                	mov    %esi,%ebx
    3a94:	80 fb 80             	cmp    $0x80,%bl
    3a97:	74 d7                	je     3a70 <str_rtrim+0xe0>
    3a99:	8b 5d e4             	mov    -0x1c(%ebp),%ebx
    3a9c:	e9 6b ff ff ff       	jmp    3a0c <str_rtrim+0x7c>
    3aa1:	b1 0f                	mov    $0xf,%cl
    3aa3:	be 02 00 00 00       	mov    $0x2,%esi
    3aa8:	eb 9c                	jmp    3a46 <str_rtrim+0xb6>
    3aaa:	b1 07                	mov    $0x7,%cl
    3aac:	be 03 00 00 00       	mov    $0x3,%esi
    3ab1:	eb 93                	jmp    3a46 <str_rtrim+0xb6>
    3ab3:	89 fa                	mov    %edi,%edx
    3ab5:	e9 52 ff ff ff       	jmp    3a0c <str_rtrim+0x7c>
    3aba:	8d b6 00 00 00 00    	lea    0x0(%esi),%esi

00003ac0 <str_ltrim>:
    3ac0:	55                   	push   %ebp
    3ac1:	89 e5                	mov    %esp,%ebp
    3ac3:	57                   	push   %edi
    3ac4:	56                   	push   %esi
    3ac5:	53                   	push   %ebx
    3ac6:	83 ec 3c             	sub    $0x3c,%esp
    3ac9:	c7 45 d8 00 00 00 00 	movl   $0x0,-0x28(%ebp)
    3ad0:	8b 7d 08             	mov    0x8(%ebp),%edi
    3ad3:	80 3f 00             	cmpb   $0x0,(%edi)
    3ad6:	74 12                	je     3aea <str_ltrim+0x2a>
    3ad8:	31 c0                	xor    %eax,%eax
    3ada:	8d b6 00 00 00 00    	lea    0x0(%esi),%esi
    3ae0:	40                   	inc    %eax
    3ae1:	80 3c 07 00          	cmpb   $0x0,(%edi,%eax,1)
    3ae5:	75 f9                	jne    3ae0 <str_ltrim+0x20>
    3ae7:	89 45 d8             	mov    %eax,-0x28(%ebp)
    3aea:	c7 45 e4 00 00 00 00 	movl   $0x0,-0x1c(%ebp)
    3af1:	8b 55 e4             	mov    -0x1c(%ebp),%edx
    3af4:	8b 4d e4             	mov    -0x1c(%ebp),%ecx
    3af7:	eb 15                	jmp    3b0e <str_ltrim+0x4e>
    3af9:	8d b4 26 00 00 00 00 	lea    0x0(%esi,%eiz,1),%esi
    3b00:	85 c0                	test   %eax,%eax
    3b02:	74 47                	je     3b4b <str_ltrim+0x8b>
    3b04:	39 45 0c             	cmp    %eax,0xc(%ebp)
    3b07:	75 42                	jne    3b4b <str_ltrim+0x8b>
    3b09:	89 55 e4             	mov    %edx,-0x1c(%ebp)
    3b0c:	89 d1                	mov    %edx,%ecx
    3b0e:	01 f9                	add    %edi,%ecx
    3b10:	42                   	inc    %edx
    3b11:	89 4d e0             	mov    %ecx,-0x20(%ebp)
    3b14:	0f be 01             	movsbl (%ecx),%eax
    3b17:	84 c0                	test   %al,%al
    3b19:	79 e5                	jns    3b00 <str_ltrim+0x40>
    3b1b:	88 c1                	mov    %al,%cl
    3b1d:	83 e1 e0             	and    $0xffffffe0,%ecx
    3b20:	80 f9 c0             	cmp    $0xc0,%cl
    3b23:	74 53                	je     3b78 <str_ltrim+0xb8>
    3b25:	88 c1                	mov    %al,%cl
    3b27:	83 e1 f0             	and    $0xfffffff0,%ecx
    3b2a:	80 f9 e0             	cmp    $0xe0,%cl
    3b2d:	0f 84 98 00 00 00    	je     3bcb <str_ltrim+0x10b>
    3b33:	88 c1                	mov    %al,%cl
    3b35:	83 e1 f8             	and    $0xfffffff8,%ecx
    3b38:	80 f9 f0             	cmp    $0xf0,%cl
    3b3b:	0f 84 93 00 00 00    	je     3bd4 <str_ltrim+0x114>
    3b41:	b8 3f 00 00 00       	mov    $0x3f,%eax
    3b46:	39 45 0c             	cmp    %eax,0xc(%ebp)
    3b49:	74 be                	je     3b09 <str_ltrim+0x49>
    3b4b:	8b 4d e4             	mov    -0x1c(%ebp),%ecx
    3b4e:	85 c9                	test   %ecx,%ecx
    3b50:	74 1e                	je     3b70 <str_ltrim+0xb0>
    3b52:	8b 45 d8             	mov    -0x28(%ebp),%eax
    3b55:	8b 55 e4             	mov    -0x1c(%ebp),%edx
    3b58:	8b 5d e0             	mov    -0x20(%ebp),%ebx
    3b5b:	29 d0                	sub    %edx,%eax
    3b5d:	89 44 24 08          	mov    %eax,0x8(%esp)
    3b61:	89 5c 24 04          	mov    %ebx,0x4(%esp)
    3b65:	89 3c 24             	mov    %edi,(%esp)
    3b68:	e8 33 69 01 00       	call   1a4a0 <memmove>
    3b6d:	c6 03 00             	movb   $0x0,(%ebx)
    3b70:	83 c4 3c             	add    $0x3c,%esp
    3b73:	5b                   	pop    %ebx
    3b74:	5e                   	pop    %esi
    3b75:	5f                   	pop    %edi
    3b76:	5d                   	pop    %ebp
    3b77:	c3                   	ret    
    3b78:	b1 1f                	mov    $0x1f,%cl
    3b7a:	be 01 00 00 00       	mov    $0x1,%esi
    3b7f:	8b 5d e4             	mov    -0x1c(%ebp),%ebx
    3b82:	21 c8                	and    %ecx,%eax
    3b84:	83 c3 02             	add    $0x2,%ebx
    3b87:	8a 0c 17             	mov    (%edi,%edx,1),%cl
    3b8a:	89 5d d4             	mov    %ebx,-0x2c(%ebp)
    3b8d:	88 cb                	mov    %cl,%bl
    3b8f:	83 e3 c0             	and    $0xffffffc0,%ebx
    3b92:	25 ff 00 00 00       	and    $0xff,%eax
    3b97:	80 fb 80             	cmp    $0x80,%bl
    3b9a:	75 41                	jne    3bdd <str_ltrim+0x11d>
    3b9c:	01 d6                	add    %edx,%esi
    3b9e:	8b 55 d4             	mov    -0x2c(%ebp),%edx
    3ba1:	eb 13                	jmp    3bb6 <str_ltrim+0xf6>
    3ba3:	90                   	nop
    3ba4:	8d 74 26 00          	lea    0x0(%esi,%eiz,1),%esi
    3ba8:	8a 0c 17             	mov    (%edi,%edx,1),%cl
    3bab:	42                   	inc    %edx
    3bac:	88 cb                	mov    %cl,%bl
    3bae:	83 e3 c0             	and    $0xffffffc0,%ebx
    3bb1:	80 fb 80             	cmp    $0x80,%bl
    3bb4:	75 8b                	jne    3b41 <str_ltrim+0x81>
    3bb6:	89 c3                	mov    %eax,%ebx
    3bb8:	89 c8                	mov    %ecx,%eax
    3bba:	c1 e3 06             	shl    $0x6,%ebx
    3bbd:	83 e0 3f             	and    $0x3f,%eax
    3bc0:	09 d8                	or     %ebx,%eax
    3bc2:	39 f2                	cmp    %esi,%edx
    3bc4:	75 e2                	jne    3ba8 <str_ltrim+0xe8>
    3bc6:	e9 35 ff ff ff       	jmp    3b00 <str_ltrim+0x40>
    3bcb:	b1 0f                	mov    $0xf,%cl
    3bcd:	be 02 00 00 00       	mov    $0x2,%esi
    3bd2:	eb ab                	jmp    3b7f <str_ltrim+0xbf>
    3bd4:	b1 07                	mov    $0x7,%cl
    3bd6:	be 03 00 00 00       	mov    $0x3,%esi
    3bdb:	eb a2                	jmp    3b7f <str_ltrim+0xbf>
    3bdd:	8b 55 d4             	mov    -0x2c(%ebp),%edx
    3be0:	e9 5c ff ff ff       	jmp    3b41 <str_ltrim+0x81>
    3be5:	8d 74 26 00          	lea    0x0(%esi,%eiz,1),%esi
    3be9:	8d bc 27 00 00 00 00 	lea    0x0(%edi,%eiz,1),%edi

00003bf0 <str_rchr>:
    3bf0:	55                   	push   %ebp
    3bf1:	89 e5                	mov    %esp,%ebp
    3bf3:	57                   	push   %edi
    3bf4:	56                   	push   %esi
    3bf5:	53                   	push   %ebx
    3bf6:	83 ec 10             	sub    $0x10,%esp
    3bf9:	31 ff                	xor    %edi,%edi
    3bfb:	8b 5d 08             	mov    0x8(%ebp),%ebx
    3bfe:	c7 45 ec 00 00 00 00 	movl   $0x0,-0x14(%ebp)
    3c05:	8d 57 01             	lea    0x1(%edi),%edx
    3c08:	8d 0c 3b             	lea    (%ebx,%edi,1),%ecx
    3c0b:	89 4d f0             	mov    %ecx,-0x10(%ebp)
    3c0e:	0f be 01             	movsbl (%ecx),%eax
    3c11:	84 c0                	test   %al,%al
    3c13:	78 1e                	js     3c33 <str_rchr+0x43>
    3c15:	8d 76 00             	lea    0x0(%esi),%esi
    3c18:	85 c0                	test   %eax,%eax
    3c1a:	74 51                	je     3c6d <str_rchr+0x7d>
    3c1c:	39 45 0c             	cmp    %eax,0xc(%ebp)
    3c1f:	74 42                	je     3c63 <str_rchr+0x73>
    3c21:	89 d7                	mov    %edx,%edi
    3c23:	8d 0c 3b             	lea    (%ebx,%edi,1),%ecx
    3c26:	8d 57 01             	lea    0x1(%edi),%edx
    3c29:	89 4d f0             	mov    %ecx,-0x10(%ebp)
    3c2c:	0f be 01             	movsbl (%ecx),%eax
    3c2f:	84 c0                	test   %al,%al
    3c31:	79 e5                	jns    3c18 <str_rchr+0x28>
    3c33:	88 c1                	mov    %al,%cl
    3c35:	83 e1 e0             	and    $0xffffffe0,%ecx
    3c38:	80 f9 c0             	cmp    $0xc0,%cl
    3c3b:	74 3b                	je     3c78 <str_rchr+0x88>
    3c3d:	88 c1                	mov    %al,%cl
    3c3f:	83 e1 f0             	and    $0xfffffff0,%ecx
    3c42:	80 f9 e0             	cmp    $0xe0,%cl
    3c45:	0f 84 8b 00 00 00    	je     3cd6 <str_rchr+0xe6>
    3c4b:	88 c1                	mov    %al,%cl
    3c4d:	83 e1 f8             	and    $0xfffffff8,%ecx
    3c50:	80 f9 f0             	cmp    $0xf0,%cl
    3c53:	0f 84 86 00 00 00    	je     3cdf <str_rchr+0xef>
    3c59:	b8 3f 00 00 00       	mov    $0x3f,%eax
    3c5e:	39 45 0c             	cmp    %eax,0xc(%ebp)
    3c61:	75 be                	jne    3c21 <str_rchr+0x31>
    3c63:	8b 45 f0             	mov    -0x10(%ebp),%eax
    3c66:	89 d7                	mov    %edx,%edi
    3c68:	89 45 ec             	mov    %eax,-0x14(%ebp)
    3c6b:	eb b6                	jmp    3c23 <str_rchr+0x33>
    3c6d:	8b 45 ec             	mov    -0x14(%ebp),%eax
    3c70:	83 c4 10             	add    $0x10,%esp
    3c73:	5b                   	pop    %ebx
    3c74:	5e                   	pop    %esi
    3c75:	5f                   	pop    %edi
    3c76:	5d                   	pop    %ebp
    3c77:	c3                   	ret    
    3c78:	b1 1f                	mov    $0x1f,%cl
    3c7a:	be 01 00 00 00       	mov    $0x1,%esi
    3c7f:	21 c8                	and    %ecx,%eax
    3c81:	8a 0c 13             	mov    (%ebx,%edx,1),%cl
    3c84:	83 c7 02             	add    $0x2,%edi
    3c87:	88 4d e7             	mov    %cl,-0x19(%ebp)
    3c8a:	83 e1 c0             	and    $0xffffffc0,%ecx
    3c8d:	25 ff 00 00 00       	and    $0xff,%eax
    3c92:	89 7d e8             	mov    %edi,-0x18(%ebp)
    3c95:	80 f9 80             	cmp    $0x80,%cl
    3c98:	75 4e                	jne    3ce8 <str_rchr+0xf8>
    3c9a:	8d 3c 32             	lea    (%edx,%esi,1),%edi
    3c9d:	8a 4d e7             	mov    -0x19(%ebp),%cl
    3ca0:	8b 55 e8             	mov    -0x18(%ebp),%edx
    3ca3:	89 5d e8             	mov    %ebx,-0x18(%ebp)
    3ca6:	66 90                	xchg   %ax,%ax
    3ca8:	89 c6                	mov    %eax,%esi
    3caa:	89 c8                	mov    %ecx,%eax
    3cac:	c1 e6 06             	shl    $0x6,%esi
    3caf:	83 e0 3f             	and    $0x3f,%eax
    3cb2:	09 f0                	or     %esi,%eax
    3cb4:	8b 5d e8             	mov    -0x18(%ebp),%ebx
    3cb7:	39 fa                	cmp    %edi,%edx
    3cb9:	0f 84 59 ff ff ff    	je     3c18 <str_rchr+0x28>
    3cbf:	8a 0c 13             	mov    (%ebx,%edx,1),%cl
    3cc2:	be c0 ff ff ff       	mov    $0xffffffc0,%esi
    3cc7:	21 ce                	and    %ecx,%esi
    3cc9:	42                   	inc    %edx
    3cca:	89 f3                	mov    %esi,%ebx
    3ccc:	80 fb 80             	cmp    $0x80,%bl
    3ccf:	74 d7                	je     3ca8 <str_rchr+0xb8>
    3cd1:	8b 5d e8             	mov    -0x18(%ebp),%ebx
    3cd4:	eb 83                	jmp    3c59 <str_rchr+0x69>
    3cd6:	b1 0f                	mov    $0xf,%cl
    3cd8:	be 02 00 00 00       	mov    $0x2,%esi
    3cdd:	eb a0                	jmp    3c7f <str_rchr+0x8f>
    3cdf:	b1 07                	mov    $0x7,%cl
    3ce1:	be 03 00 00 00       	mov    $0x3,%esi
    3ce6:	eb 97                	jmp    3c7f <str_rchr+0x8f>
    3ce8:	89 fa                	mov    %edi,%edx
    3cea:	e9 6a ff ff ff       	jmp    3c59 <str_rchr+0x69>
    3cef:	90                   	nop

00003cf0 <wstr_linsert>:
    3cf0:	55                   	push   %ebp
    3cf1:	31 d2                	xor    %edx,%edx
    3cf3:	89 e5                	mov    %esp,%ebp
    3cf5:	57                   	push   %edi
    3cf6:	56                   	push   %esi
    3cf7:	53                   	push   %ebx
    3cf8:	8b 4d 08             	mov    0x8(%ebp),%ecx
    3cfb:	8b 75 10             	mov    0x10(%ebp),%esi
    3cfe:	8b 39                	mov    (%ecx),%edi
    3d00:	85 ff                	test   %edi,%edi
    3d02:	74 0c                	je     3d10 <wstr_linsert+0x20>
    3d04:	8d 74 26 00          	lea    0x0(%esi,%eiz,1),%esi
    3d08:	42                   	inc    %edx
    3d09:	8b 1c 91             	mov    (%ecx,%edx,4),%ebx
    3d0c:	85 db                	test   %ebx,%ebx
    3d0e:	75 f8                	jne    3d08 <wstr_linsert+0x18>
    3d10:	31 c0                	xor    %eax,%eax
    3d12:	39 d6                	cmp    %edx,%esi
    3d14:	77 33                	ja     3d49 <wstr_linsert+0x59>
    3d16:	8d 5e 01             	lea    0x1(%esi),%ebx
    3d19:	3b 5d 14             	cmp    0x14(%ebp),%ebx
    3d1c:	77 2b                	ja     3d49 <wstr_linsert+0x59>
    3d1e:	8d 42 01             	lea    0x1(%edx),%eax
    3d21:	8d 5e ff             	lea    -0x1(%esi),%ebx
    3d24:	39 c6                	cmp    %eax,%esi
    3d26:	72 0a                	jb     3d32 <wstr_linsert+0x42>
    3d28:	eb 17                	jmp    3d41 <wstr_linsert+0x51>
    3d2a:	8d b6 00 00 00 00    	lea    0x0(%esi),%esi
    3d30:	89 fa                	mov    %edi,%edx
    3d32:	8b 3c 91             	mov    (%ecx,%edx,4),%edi
    3d35:	89 3c 81             	mov    %edi,(%ecx,%eax,4)
    3d38:	8d 7a ff             	lea    -0x1(%edx),%edi
    3d3b:	89 d0                	mov    %edx,%eax
    3d3d:	39 df                	cmp    %ebx,%edi
    3d3f:	75 ef                	jne    3d30 <wstr_linsert+0x40>
    3d41:	8b 45 0c             	mov    0xc(%ebp),%eax
    3d44:	89 04 b1             	mov    %eax,(%ecx,%esi,4)
    3d47:	b0 01                	mov    $0x1,%al
    3d49:	5b                   	pop    %ebx
    3d4a:	5e                   	pop    %esi
    3d4b:	5f                   	pop    %edi
    3d4c:	5d                   	pop    %ebp
    3d4d:	c3                   	ret    
    3d4e:	66 90                	xchg   %ax,%ax

00003d50 <wstr_remove>:
    3d50:	55                   	push   %ebp
    3d51:	89 e5                	mov    %esp,%ebp
    3d53:	53                   	push   %ebx
    3d54:	8b 4d 08             	mov    0x8(%ebp),%ecx
    3d57:	8b 19                	mov    (%ecx),%ebx
    3d59:	85 db                	test   %ebx,%ebx
    3d5b:	74 33                	je     3d90 <wstr_remove+0x40>
    3d5d:	31 c0                	xor    %eax,%eax
    3d5f:	90                   	nop
    3d60:	40                   	inc    %eax
    3d61:	8b 14 81             	mov    (%ecx,%eax,4),%edx
    3d64:	85 d2                	test   %edx,%edx
    3d66:	75 f8                	jne    3d60 <wstr_remove+0x10>
    3d68:	39 45 0c             	cmp    %eax,0xc(%ebp)
    3d6b:	73 23                	jae    3d90 <wstr_remove+0x40>
    3d6d:	8b 55 0c             	mov    0xc(%ebp),%edx
    3d70:	42                   	inc    %edx
    3d71:	39 c2                	cmp    %eax,%edx
    3d73:	77 0f                	ja     3d84 <wstr_remove+0x34>
    3d75:	8d 76 00             	lea    0x0(%esi),%esi
    3d78:	8b 1c 91             	mov    (%ecx,%edx,4),%ebx
    3d7b:	89 5c 91 fc          	mov    %ebx,-0x4(%ecx,%edx,4)
    3d7f:	42                   	inc    %edx
    3d80:	39 c2                	cmp    %eax,%edx
    3d82:	76 f4                	jbe    3d78 <wstr_remove+0x28>
    3d84:	b0 01                	mov    $0x1,%al
    3d86:	5b                   	pop    %ebx
    3d87:	5d                   	pop    %ebp
    3d88:	c3                   	ret    
    3d89:	8d b4 26 00 00 00 00 	lea    0x0(%esi,%eiz,1),%esi
    3d90:	31 c0                	xor    %eax,%eax
    3d92:	5b                   	pop    %ebx
    3d93:	5d                   	pop    %ebp
    3d94:	c3                   	ret    
    3d95:	8d 74 26 00          	lea    0x0(%esi,%eiz,1),%esi
    3d99:	8d bc 27 00 00 00 00 	lea    0x0(%edi,%eiz,1),%edi

00003da0 <stricmp>:
    3da0:	55                   	push   %ebp
    3da1:	89 e5                	mov    %esp,%ebp
    3da3:	57                   	push   %edi
    3da4:	56                   	push   %esi
    3da5:	53                   	push   %ebx
    3da6:	57                   	push   %edi
    3da7:	8b 55 08             	mov    0x8(%ebp),%edx
    3daa:	0f be 02             	movsbl (%edx),%eax
    3dad:	84 c0                	test   %al,%al
    3daf:	74 7c                	je     3e2d <stricmp+0x8d>
    3db1:	8b 5d 0c             	mov    0xc(%ebp),%ebx
    3db4:	31 d2                	xor    %edx,%edx
    3db6:	c7 45 f0 00 00 00 00 	movl   $0x0,-0x10(%ebp)
    3dbd:	8d 70 bf             	lea    -0x41(%eax),%esi
    3dc0:	0f be 0b             	movsbl (%ebx),%ecx
    3dc3:	84 c9                	test   %cl,%cl
    3dc5:	75 23                	jne    3dea <stricmp+0x4a>
    3dc7:	eb 46                	jmp    3e0f <stricmp+0x6f>
    3dc9:	8d b4 26 00 00 00 00 	lea    0x0(%esi,%eiz,1),%esi
    3dd0:	42                   	inc    %edx
    3dd1:	8b 4d 08             	mov    0x8(%ebp),%ecx
    3dd4:	89 55 f0             	mov    %edx,-0x10(%ebp)
    3dd7:	0f be 04 11          	movsbl (%ecx,%edx,1),%eax
    3ddb:	84 c0                	test   %al,%al
    3ddd:	74 59                	je     3e38 <stricmp+0x98>
    3ddf:	8b 5d 0c             	mov    0xc(%ebp),%ebx
    3de2:	0f be 0c 13          	movsbl (%ebx,%edx,1),%ecx
    3de6:	84 c9                	test   %cl,%cl
    3de8:	74 5e                	je     3e48 <stricmp+0xa8>
    3dea:	8d 70 bf             	lea    -0x41(%eax),%esi
    3ded:	89 c3                	mov    %eax,%ebx
    3def:	83 fe 19             	cmp    $0x19,%esi
    3df2:	77 03                	ja     3df7 <stricmp+0x57>
    3df4:	8d 58 20             	lea    0x20(%eax),%ebx
    3df7:	8d 79 bf             	lea    -0x41(%ecx),%edi
    3dfa:	83 ff 19             	cmp    $0x19,%edi
    3dfd:	77 03                	ja     3e02 <stricmp+0x62>
    3dff:	83 c1 20             	add    $0x20,%ecx
    3e02:	39 cb                	cmp    %ecx,%ebx
    3e04:	74 ca                	je     3dd0 <stricmp+0x30>
    3e06:	8b 5d 0c             	mov    0xc(%ebp),%ebx
    3e09:	8b 4d f0             	mov    -0x10(%ebp),%ecx
    3e0c:	8a 14 0b             	mov    (%ebx,%ecx,1),%dl
    3e0f:	83 fe 19             	cmp    $0x19,%esi
    3e12:	77 03                	ja     3e17 <stricmp+0x77>
    3e14:	83 c0 20             	add    $0x20,%eax
    3e17:	0f be d2             	movsbl %dl,%edx
    3e1a:	8d 4a bf             	lea    -0x41(%edx),%ecx
    3e1d:	83 f9 19             	cmp    $0x19,%ecx
    3e20:	77 03                	ja     3e25 <stricmp+0x85>
    3e22:	83 c2 20             	add    $0x20,%edx
    3e25:	5e                   	pop    %esi
    3e26:	29 d0                	sub    %edx,%eax
    3e28:	5b                   	pop    %ebx
    3e29:	5e                   	pop    %esi
    3e2a:	5f                   	pop    %edi
    3e2b:	5d                   	pop    %ebp
    3e2c:	c3                   	ret    
    3e2d:	c7 45 f0 00 00 00 00 	movl   $0x0,-0x10(%ebp)
    3e34:	8d 74 26 00          	lea    0x0(%esi,%eiz,1),%esi
    3e38:	8b 45 f0             	mov    -0x10(%ebp),%eax
    3e3b:	8b 4d 0c             	mov    0xc(%ebp),%ecx
    3e3e:	8a 14 01             	mov    (%ecx,%eax,1),%dl
    3e41:	31 c0                	xor    %eax,%eax
    3e43:	eb d2                	jmp    3e17 <stricmp+0x77>
    3e45:	8d 76 00             	lea    0x0(%esi),%esi
    3e48:	8d 70 bf             	lea    -0x41(%eax),%esi
    3e4b:	31 d2                	xor    %edx,%edx
    3e4d:	eb c0                	jmp    3e0f <stricmp+0x6f>
    3e4f:	90                   	nop

00003e50 <strtol>:
    3e50:	55                   	push   %ebp
    3e51:	89 e5                	mov    %esp,%ebp
    3e53:	83 ec 14             	sub    $0x14,%esp
    3e56:	8d 45 fc             	lea    -0x4(%ebp),%eax
    3e59:	8b 4d 10             	mov    0x10(%ebp),%ecx
    3e5c:	89 04 24             	mov    %eax,(%esp)
    3e5f:	8b 55 0c             	mov    0xc(%ebp),%edx
    3e62:	8b 45 08             	mov    0x8(%ebp),%eax
    3e65:	c6 45 fc 00          	movb   $0x0,-0x4(%ebp)
    3e69:	e8 d2 d7 ff ff       	call   1640 <_strtoul>
    3e6e:	85 c0                	test   %eax,%eax
    3e70:	78 0e                	js     3e80 <strtol+0x30>
    3e72:	80 7d fc 00          	cmpb   $0x0,-0x4(%ebp)
    3e76:	74 02                	je     3e7a <strtol+0x2a>
    3e78:	f7 d8                	neg    %eax
    3e7a:	c9                   	leave  
    3e7b:	c3                   	ret    
    3e7c:	8d 74 26 00          	lea    0x0(%esi,%eiz,1),%esi
    3e80:	80 7d fc 01          	cmpb   $0x1,-0x4(%ebp)
    3e84:	19 c0                	sbb    %eax,%eax
    3e86:	c9                   	leave  
    3e87:	80 e4 ff             	and    $0xff,%ah
    3e8a:	05 00 00 00 80       	add    $0x80000000,%eax
    3e8f:	c3                   	ret    

00003e90 <str_dup>:
    3e90:	55                   	push   %ebp
    3e91:	89 e5                	mov    %esp,%ebp
    3e93:	56                   	push   %esi
    3e94:	53                   	push   %ebx
    3e95:	83 ec 20             	sub    $0x20,%esp
    3e98:	8b 5d 08             	mov    0x8(%ebp),%ebx
    3e9b:	80 3b 00             	cmpb   $0x0,(%ebx)
    3e9e:	74 3b                	je     3edb <str_dup+0x4b>
    3ea0:	31 c0                	xor    %eax,%eax
    3ea2:	8d b6 00 00 00 00    	lea    0x0(%esi),%esi
    3ea8:	40                   	inc    %eax
    3ea9:	80 3c 03 00          	cmpb   $0x0,(%ebx,%eax,1)
    3ead:	75 f9                	jne    3ea8 <str_dup+0x18>
    3eaf:	8d 70 01             	lea    0x1(%eax),%esi
    3eb2:	89 34 24             	mov    %esi,(%esp)
    3eb5:	e8 56 8c 00 00       	call   cb10 <malloc>
    3eba:	85 c0                	test   %eax,%eax
    3ebc:	74 16                	je     3ed4 <str_dup+0x44>
    3ebe:	89 04 24             	mov    %eax,(%esp)
    3ec1:	89 5c 24 08          	mov    %ebx,0x8(%esp)
    3ec5:	89 74 24 04          	mov    %esi,0x4(%esp)
    3ec9:	89 45 f4             	mov    %eax,-0xc(%ebp)
    3ecc:	e8 cf eb ff ff       	call   2aa0 <str_cpy>
    3ed1:	8b 45 f4             	mov    -0xc(%ebp),%eax
    3ed4:	83 c4 20             	add    $0x20,%esp
    3ed7:	5b                   	pop    %ebx
    3ed8:	5e                   	pop    %esi
    3ed9:	5d                   	pop    %ebp
    3eda:	c3                   	ret    
    3edb:	be 01 00 00 00       	mov    $0x1,%esi
    3ee0:	eb d0                	jmp    3eb2 <str_dup+0x22>
    3ee2:	8d b4 26 00 00 00 00 	lea    0x0(%esi,%eiz,1),%esi
    3ee9:	8d bc 27 00 00 00 00 	lea    0x0(%edi,%eiz,1),%edi

00003ef0 <str_ndup>:
    3ef0:	55                   	push   %ebp
    3ef1:	89 e5                	mov    %esp,%ebp
    3ef3:	57                   	push   %edi
    3ef4:	56                   	push   %esi
    3ef5:	53                   	push   %ebx
    3ef6:	83 ec 2c             	sub    $0x2c,%esp
    3ef9:	8b 5d 08             	mov    0x8(%ebp),%ebx
    3efc:	80 3b 00             	cmpb   $0x0,(%ebx)
    3eff:	74 4c                	je     3f4d <str_ndup+0x5d>
    3f01:	31 c0                	xor    %eax,%eax
    3f03:	90                   	nop
    3f04:	8d 74 26 00          	lea    0x0(%esi,%eiz,1),%esi
    3f08:	40                   	inc    %eax
    3f09:	80 3c 03 00          	cmpb   $0x0,(%ebx,%eax,1)
    3f0d:	75 f9                	jne    3f08 <str_ndup+0x18>
    3f0f:	89 c6                	mov    %eax,%esi
    3f11:	3b 45 0c             	cmp    0xc(%ebp),%eax
    3f14:	77 32                	ja     3f48 <str_ndup+0x58>
    3f16:	8d 7e 01             	lea    0x1(%esi),%edi
    3f19:	89 3c 24             	mov    %edi,(%esp)
    3f1c:	e8 ef 8b 00 00       	call   cb10 <malloc>
    3f21:	85 c0                	test   %eax,%eax
    3f23:	74 1a                	je     3f3f <str_ndup+0x4f>
    3f25:	89 04 24             	mov    %eax,(%esp)
    3f28:	89 74 24 0c          	mov    %esi,0xc(%esp)
    3f2c:	89 5c 24 08          	mov    %ebx,0x8(%esp)
    3f30:	89 7c 24 04          	mov    %edi,0x4(%esp)
    3f34:	89 45 e4             	mov    %eax,-0x1c(%ebp)
    3f37:	e8 54 ed ff ff       	call   2c90 <str_ncpy>
    3f3c:	8b 45 e4             	mov    -0x1c(%ebp),%eax
    3f3f:	83 c4 2c             	add    $0x2c,%esp
    3f42:	5b                   	pop    %ebx
    3f43:	5e                   	pop    %esi
    3f44:	5f                   	pop    %edi
    3f45:	5d                   	pop    %ebp
    3f46:	c3                   	ret    
    3f47:	90                   	nop
    3f48:	8b 75 0c             	mov    0xc(%ebp),%esi
    3f4b:	eb c9                	jmp    3f16 <str_ndup+0x26>
    3f4d:	31 f6                	xor    %esi,%esi
    3f4f:	bf 01 00 00 00       	mov    $0x1,%edi
    3f54:	eb c3                	jmp    3f19 <str_ndup+0x29>
    3f56:	8d 76 00             	lea    0x0(%esi),%esi
    3f59:	8d bc 27 00 00 00 00 	lea    0x0(%edi,%eiz,1),%edi

00003f60 <strtoul>:
    3f60:	55                   	push   %ebp
    3f61:	89 e5                	mov    %esp,%ebp
    3f63:	83 ec 14             	sub    $0x14,%esp
    3f66:	8d 45 fc             	lea    -0x4(%ebp),%eax
    3f69:	8b 4d 10             	mov    0x10(%ebp),%ecx
    3f6c:	89 04 24             	mov    %eax,(%esp)
    3f6f:	8b 55 0c             	mov    0xc(%ebp),%edx
    3f72:	8b 45 08             	mov    0x8(%ebp),%eax
    3f75:	c6 45 fc 00          	movb   $0x0,-0x4(%ebp)
    3f79:	e8 c2 d6 ff ff       	call   1640 <_strtoul>
    3f7e:	80 7d fc 00          	cmpb   $0x0,-0x4(%ebp)
    3f82:	74 02                	je     3f86 <strtoul+0x26>
    3f84:	f7 d8                	neg    %eax
    3f86:	c9                   	leave  
    3f87:	c3                   	ret    
    3f88:	90                   	nop
    3f89:	8d b4 26 00 00 00 00 	lea    0x0(%esi,%eiz,1),%esi

00003f90 <strtok_r>:
    3f90:	55                   	push   %ebp
    3f91:	89 e5                	mov    %esp,%ebp
    3f93:	57                   	push   %edi
    3f94:	56                   	push   %esi
    3f95:	53                   	push   %ebx
    3f96:	83 ec 0c             	sub    $0xc,%esp
    3f99:	8b 45 08             	mov    0x8(%ebp),%eax
    3f9c:	8b 75 0c             	mov    0xc(%ebp),%esi
    3f9f:	85 c0                	test   %eax,%eax
    3fa1:	0f 84 0f 02 00 00    	je     41b6 <strtok_r+0x226>
    3fa7:	8b 55 08             	mov    0x8(%ebp),%edx
    3faa:	0f be 02             	movsbl (%edx),%eax
    3fad:	84 c0                	test   %al,%al
    3faf:	74 6c                	je     401d <strtok_r+0x8d>
    3fb1:	89 f7                	mov    %esi,%edi
    3fb3:	89 45 f0             	mov    %eax,-0x10(%ebp)
    3fb6:	31 d2                	xor    %edx,%edx
    3fb8:	eb 15                	jmp    3fcf <strtok_r+0x3f>
    3fba:	8d b6 00 00 00 00    	lea    0x0(%esi),%esi
    3fc0:	89 da                	mov    %ebx,%edx
    3fc2:	85 c0                	test   %eax,%eax
    3fc4:	0f 84 c4 00 00 00    	je     408e <strtok_r+0xfe>
    3fca:	39 45 f0             	cmp    %eax,-0x10(%ebp)
    3fcd:	74 3d                	je     400c <strtok_r+0x7c>
    3fcf:	0f be 04 17          	movsbl (%edi,%edx,1),%eax
    3fd3:	8d 5a 01             	lea    0x1(%edx),%ebx
    3fd6:	84 c0                	test   %al,%al
    3fd8:	79 e6                	jns    3fc0 <strtok_r+0x30>
    3fda:	88 c1                	mov    %al,%cl
    3fdc:	83 e1 e0             	and    $0xffffffe0,%ecx
    3fdf:	80 f9 c0             	cmp    $0xc0,%cl
    3fe2:	74 5c                	je     4040 <strtok_r+0xb0>
    3fe4:	88 c1                	mov    %al,%cl
    3fe6:	83 e1 f0             	and    $0xfffffff0,%ecx
    3fe9:	80 f9 e0             	cmp    $0xe0,%cl
    3fec:	0f 84 25 01 00 00    	je     4117 <strtok_r+0x187>
    3ff2:	88 c1                	mov    %al,%cl
    3ff4:	83 e1 f8             	and    $0xfffffff8,%ecx
    3ff7:	80 f9 f0             	cmp    $0xf0,%cl
    3ffa:	0f 84 aa 01 00 00    	je     41aa <strtok_r+0x21a>
    4000:	89 da                	mov    %ebx,%edx
    4002:	b8 3f 00 00 00       	mov    $0x3f,%eax
    4007:	39 45 f0             	cmp    %eax,-0x10(%ebp)
    400a:	75 c3                	jne    3fcf <strtok_r+0x3f>
    400c:	8b 45 08             	mov    0x8(%ebp),%eax
    400f:	40                   	inc    %eax
    4010:	89 45 08             	mov    %eax,0x8(%ebp)
    4013:	8b 55 08             	mov    0x8(%ebp),%edx
    4016:	0f be 02             	movsbl (%edx),%eax
    4019:	84 c0                	test   %al,%al
    401b:	75 96                	jne    3fb3 <strtok_r+0x23>
    401d:	89 d0                	mov    %edx,%eax
    401f:	8b 55 10             	mov    0x10(%ebp),%edx
    4022:	89 c1                	mov    %eax,%ecx
    4024:	89 45 e8             	mov    %eax,-0x18(%ebp)
    4027:	39 4d 08             	cmp    %ecx,0x8(%ebp)
    402a:	89 02                	mov    %eax,(%edx)
    402c:	0f 85 d7 00 00 00    	jne    4109 <strtok_r+0x179>
    4032:	83 c4 0c             	add    $0xc,%esp
    4035:	31 c0                	xor    %eax,%eax
    4037:	5b                   	pop    %ebx
    4038:	5e                   	pop    %esi
    4039:	5f                   	pop    %edi
    403a:	5d                   	pop    %ebp
    403b:	c3                   	ret    
    403c:	8d 74 26 00          	lea    0x0(%esi,%eiz,1),%esi
    4040:	b1 1f                	mov    $0x1f,%cl
    4042:	be 01 00 00 00       	mov    $0x1,%esi
    4047:	21 c8                	and    %ecx,%eax
    4049:	8a 0c 1f             	mov    (%edi,%ebx,1),%cl
    404c:	88 4d e8             	mov    %cl,-0x18(%ebp)
    404f:	83 e1 c0             	and    $0xffffffc0,%ecx
    4052:	25 ff 00 00 00       	and    $0xff,%eax
    4057:	83 c2 02             	add    $0x2,%edx
    405a:	80 f9 80             	cmp    $0x80,%cl
    405d:	75 a3                	jne    4002 <strtok_r+0x72>
    405f:	01 de                	add    %ebx,%esi
    4061:	8a 4d e8             	mov    -0x18(%ebp),%cl
    4064:	eb 10                	jmp    4076 <strtok_r+0xe6>
    4066:	66 90                	xchg   %ax,%ax
    4068:	8a 0c 17             	mov    (%edi,%edx,1),%cl
    406b:	42                   	inc    %edx
    406c:	88 cb                	mov    %cl,%bl
    406e:	83 e3 c0             	and    $0xffffffc0,%ebx
    4071:	80 fb 80             	cmp    $0x80,%bl
    4074:	75 8c                	jne    4002 <strtok_r+0x72>
    4076:	89 c3                	mov    %eax,%ebx
    4078:	89 c8                	mov    %ecx,%eax
    407a:	c1 e3 06             	shl    $0x6,%ebx
    407d:	83 e0 3f             	and    $0x3f,%eax
    4080:	09 d8                	or     %ebx,%eax
    4082:	39 f2                	cmp    %esi,%edx
    4084:	75 e2                	jne    4068 <strtok_r+0xd8>
    4086:	85 c0                	test   %eax,%eax
    4088:	0f 85 3c ff ff ff    	jne    3fca <strtok_r+0x3a>
    408e:	8b 4d 08             	mov    0x8(%ebp),%ecx
    4091:	0f be 01             	movsbl (%ecx),%eax
    4094:	84 c0                	test   %al,%al
    4096:	0f 84 ef 00 00 00    	je     418b <strtok_r+0x1fb>
    409c:	89 4d e8             	mov    %ecx,-0x18(%ebp)
    409f:	89 45 f0             	mov    %eax,-0x10(%ebp)
    40a2:	31 d2                	xor    %edx,%edx
    40a4:	eb 11                	jmp    40b7 <strtok_r+0x127>
    40a6:	66 90                	xchg   %ax,%ax
    40a8:	89 da                	mov    %ebx,%edx
    40aa:	85 c0                	test   %eax,%eax
    40ac:	0f 84 c4 00 00 00    	je     4176 <strtok_r+0x1e6>
    40b2:	39 45 f0             	cmp    %eax,-0x10(%ebp)
    40b5:	74 3d                	je     40f4 <strtok_r+0x164>
    40b7:	0f be 04 17          	movsbl (%edi,%edx,1),%eax
    40bb:	8d 5a 01             	lea    0x1(%edx),%ebx
    40be:	84 c0                	test   %al,%al
    40c0:	79 e6                	jns    40a8 <strtok_r+0x118>
    40c2:	88 c1                	mov    %al,%cl
    40c4:	83 e1 e0             	and    $0xffffffe0,%ecx
    40c7:	80 f9 c0             	cmp    $0xc0,%cl
    40ca:	74 57                	je     4123 <strtok_r+0x193>
    40cc:	88 c1                	mov    %al,%cl
    40ce:	83 e1 f0             	and    $0xfffffff0,%ecx
    40d1:	80 f9 e0             	cmp    $0xe0,%cl
    40d4:	0f 84 be 00 00 00    	je     4198 <strtok_r+0x208>
    40da:	88 c1                	mov    %al,%cl
    40dc:	83 e1 f8             	and    $0xfffffff8,%ecx
    40df:	80 f9 f0             	cmp    $0xf0,%cl
    40e2:	0f 84 b9 00 00 00    	je     41a1 <strtok_r+0x211>
    40e8:	89 da                	mov    %ebx,%edx
    40ea:	b8 3f 00 00 00       	mov    $0x3f,%eax
    40ef:	39 45 f0             	cmp    %eax,-0x10(%ebp)
    40f2:	75 c3                	jne    40b7 <strtok_r+0x127>
    40f4:	8b 45 e8             	mov    -0x18(%ebp),%eax
    40f7:	8b 55 10             	mov    0x10(%ebp),%edx
    40fa:	40                   	inc    %eax
    40fb:	8b 4d e8             	mov    -0x18(%ebp),%ecx
    40fe:	89 02                	mov    %eax,(%edx)
    4100:	39 4d 08             	cmp    %ecx,0x8(%ebp)
    4103:	0f 84 29 ff ff ff    	je     4032 <strtok_r+0xa2>
    4109:	c6 01 00             	movb   $0x0,(%ecx)
    410c:	8b 45 08             	mov    0x8(%ebp),%eax
    410f:	83 c4 0c             	add    $0xc,%esp
    4112:	5b                   	pop    %ebx
    4113:	5e                   	pop    %esi
    4114:	5f                   	pop    %edi
    4115:	5d                   	pop    %ebp
    4116:	c3                   	ret    
    4117:	b1 0f                	mov    $0xf,%cl
    4119:	be 02 00 00 00       	mov    $0x2,%esi
    411e:	e9 24 ff ff ff       	jmp    4047 <strtok_r+0xb7>
    4123:	b1 1f                	mov    $0x1f,%cl
    4125:	be 01 00 00 00       	mov    $0x1,%esi
    412a:	21 c8                	and    %ecx,%eax
    412c:	8a 0c 1f             	mov    (%edi,%ebx,1),%cl
    412f:	88 4d ee             	mov    %cl,-0x12(%ebp)
    4132:	83 e1 c0             	and    $0xffffffc0,%ecx
    4135:	25 ff 00 00 00       	and    $0xff,%eax
    413a:	83 c2 02             	add    $0x2,%edx
    413d:	80 f9 80             	cmp    $0x80,%cl
    4140:	75 a8                	jne    40ea <strtok_r+0x15a>
    4142:	01 de                	add    %ebx,%esi
    4144:	8a 4d ee             	mov    -0x12(%ebp),%cl
    4147:	eb 15                	jmp    415e <strtok_r+0x1ce>
    4149:	8d b4 26 00 00 00 00 	lea    0x0(%esi,%eiz,1),%esi
    4150:	8a 0c 17             	mov    (%edi,%edx,1),%cl
    4153:	42                   	inc    %edx
    4154:	88 cb                	mov    %cl,%bl
    4156:	83 e3 c0             	and    $0xffffffc0,%ebx
    4159:	80 fb 80             	cmp    $0x80,%bl
    415c:	75 8c                	jne    40ea <strtok_r+0x15a>
    415e:	89 c3                	mov    %eax,%ebx
    4160:	89 c8                	mov    %ecx,%eax
    4162:	c1 e3 06             	shl    $0x6,%ebx
    4165:	83 e0 3f             	and    $0x3f,%eax
    4168:	09 d8                	or     %ebx,%eax
    416a:	39 f2                	cmp    %esi,%edx
    416c:	75 e2                	jne    4150 <strtok_r+0x1c0>
    416e:	85 c0                	test   %eax,%eax
    4170:	0f 85 3c ff ff ff    	jne    40b2 <strtok_r+0x122>
    4176:	8b 45 e8             	mov    -0x18(%ebp),%eax
    4179:	40                   	inc    %eax
    417a:	89 45 e8             	mov    %eax,-0x18(%ebp)
    417d:	8b 4d e8             	mov    -0x18(%ebp),%ecx
    4180:	0f be 01             	movsbl (%ecx),%eax
    4183:	84 c0                	test   %al,%al
    4185:	0f 85 14 ff ff ff    	jne    409f <strtok_r+0x10f>
    418b:	89 c8                	mov    %ecx,%eax
    418d:	e9 8d fe ff ff       	jmp    401f <strtok_r+0x8f>
    4192:	8d b6 00 00 00 00    	lea    0x0(%esi),%esi
    4198:	b1 0f                	mov    $0xf,%cl
    419a:	be 02 00 00 00       	mov    $0x2,%esi
    419f:	eb 89                	jmp    412a <strtok_r+0x19a>
    41a1:	b1 07                	mov    $0x7,%cl
    41a3:	be 03 00 00 00       	mov    $0x3,%esi
    41a8:	eb 80                	jmp    412a <strtok_r+0x19a>
    41aa:	b1 07                	mov    $0x7,%cl
    41ac:	be 03 00 00 00       	mov    $0x3,%esi
    41b1:	e9 91 fe ff ff       	jmp    4047 <strtok_r+0xb7>
    41b6:	8b 45 10             	mov    0x10(%ebp),%eax
    41b9:	8b 00                	mov    (%eax),%eax
    41bb:	89 45 08             	mov    %eax,0x8(%ebp)
    41be:	e9 e4 fd ff ff       	jmp    3fa7 <strtok_r+0x17>
    41c3:	8d b6 00 00 00 00    	lea    0x0(%esi),%esi
    41c9:	8d bc 27 00 00 00 00 	lea    0x0(%edi,%eiz,1),%edi

000041d0 <strtok>:
    41d0:	55                   	push   %ebp
    41d1:	89 e5                	mov    %esp,%ebp
    41d3:	83 ec 0c             	sub    $0xc,%esp
    41d6:	8b 45 0c             	mov    0xc(%ebp),%eax
    41d9:	c7 44 24 08 a4 09 02 	movl   $0x209a4,0x8(%esp)
    41e0:	00 
    41e1:	89 44 24 04          	mov    %eax,0x4(%esp)
    41e5:	8b 45 08             	mov    0x8(%ebp),%eax
    41e8:	89 04 24             	mov    %eax,(%esp)
    41eb:	e8 a0 fd ff ff       	call   3f90 <strtok_r>
    41f0:	c9                   	leave  
    41f1:	c3                   	ret    
    41f2:	8d b4 26 00 00 00 00 	lea    0x0(%esi,%eiz,1),%esi
    41f9:	8d bc 27 00 00 00 00 	lea    0x0(%edi,%eiz,1),%edi

00004200 <str_uint8_t>:
    4200:	55                   	push   %ebp
    4201:	89 e5                	mov    %esp,%ebp
    4203:	57                   	push   %edi
    4204:	56                   	push   %esi
    4205:	53                   	push   %ebx
    4206:	83 ec 2c             	sub    $0x2c,%esp
    4209:	8b 75 18             	mov    0x18(%ebp),%esi
    420c:	8b 7d 0c             	mov    0xc(%ebp),%edi
    420f:	8a 5d 14             	mov    0x14(%ebp),%bl
    4212:	85 f6                	test   %esi,%esi
    4214:	74 61                	je     4277 <str_uint8_t+0x77>
    4216:	8d 45 e0             	lea    -0x20(%ebp),%eax
    4219:	8b 4d 10             	mov    0x10(%ebp),%ecx
    421c:	89 44 24 04          	mov    %eax,0x4(%esp)
    4220:	8d 45 d8             	lea    -0x28(%ebp),%eax
    4223:	89 04 24             	mov    %eax,(%esp)
    4226:	8d 55 dc             	lea    -0x24(%ebp),%edx
    4229:	8b 45 08             	mov    0x8(%ebp),%eax
    422c:	e8 df d5 ff ff       	call   1810 <str_uint>
    4231:	85 ff                	test   %edi,%edi
    4233:	74 05                	je     423a <str_uint8_t+0x3a>
    4235:	8b 55 dc             	mov    -0x24(%ebp),%edx
    4238:	89 17                	mov    %edx,(%edi)
    423a:	85 c0                	test   %eax,%eax
    423c:	75 18                	jne    4256 <str_uint8_t+0x56>
    423e:	80 7d d8 00          	cmpb   $0x0,-0x28(%ebp)
    4242:	75 24                	jne    4268 <str_uint8_t+0x68>
    4244:	84 db                	test   %bl,%bl
    4246:	75 18                	jne    4260 <str_uint8_t+0x60>
    4248:	8b 55 e0             	mov    -0x20(%ebp),%edx
    424b:	89 d1                	mov    %edx,%ecx
    424d:	30 c9                	xor    %cl,%cl
    424f:	0b 4d e4             	or     -0x1c(%ebp),%ecx
    4252:	75 1c                	jne    4270 <str_uint8_t+0x70>
    4254:	88 16                	mov    %dl,(%esi)
    4256:	83 c4 2c             	add    $0x2c,%esp
    4259:	5b                   	pop    %ebx
    425a:	5e                   	pop    %esi
    425b:	5f                   	pop    %edi
    425c:	5d                   	pop    %ebp
    425d:	c3                   	ret    
    425e:	66 90                	xchg   %ax,%ax
    4260:	8b 55 dc             	mov    -0x24(%ebp),%edx
    4263:	80 3a 00             	cmpb   $0x0,(%edx)
    4266:	74 e0                	je     4248 <str_uint8_t+0x48>
    4268:	b8 f2 ff ff ff       	mov    $0xfffffff2,%eax
    426d:	eb e7                	jmp    4256 <str_uint8_t+0x56>
    426f:	90                   	nop
    4270:	b8 f0 ff ff ff       	mov    $0xfffffff0,%eax
    4275:	eb df                	jmp    4256 <str_uint8_t+0x56>
    4277:	c7 44 24 08 f9 05 00 	movl   $0x5f9,0x8(%esp)
    427e:	00 
    427f:	c7 44 24 04 50 dc 01 	movl   $0x1dc50,0x4(%esp)
    4286:	00 
    4287:	c7 04 24 79 dc 01 00 	movl   $0x1dc79,(%esp)
    428e:	e8 ad 2b 01 00       	call   16e40 <assert_abort>
    4293:	8d b6 00 00 00 00    	lea    0x0(%esi),%esi
    4299:	8d bc 27 00 00 00 00 	lea    0x0(%edi,%eiz,1),%edi

000042a0 <str_uint16_t>:
    42a0:	55                   	push   %ebp
    42a1:	89 e5                	mov    %esp,%ebp
    42a3:	57                   	push   %edi
    42a4:	56                   	push   %esi
    42a5:	53                   	push   %ebx
    42a6:	83 ec 2c             	sub    $0x2c,%esp
    42a9:	8b 75 18             	mov    0x18(%ebp),%esi
    42ac:	8b 7d 0c             	mov    0xc(%ebp),%edi
    42af:	8a 5d 14             	mov    0x14(%ebp),%bl
    42b2:	85 f6                	test   %esi,%esi
    42b4:	74 69                	je     431f <str_uint16_t+0x7f>
    42b6:	8d 45 e0             	lea    -0x20(%ebp),%eax
    42b9:	8b 4d 10             	mov    0x10(%ebp),%ecx
    42bc:	89 44 24 04          	mov    %eax,0x4(%esp)
    42c0:	8d 45 d8             	lea    -0x28(%ebp),%eax
    42c3:	89 04 24             	mov    %eax,(%esp)
    42c6:	8d 55 dc             	lea    -0x24(%ebp),%edx
    42c9:	8b 45 08             	mov    0x8(%ebp),%eax
    42cc:	e8 3f d5 ff ff       	call   1810 <str_uint>
    42d1:	85 ff                	test   %edi,%edi
    42d3:	74 05                	je     42da <str_uint16_t+0x3a>
    42d5:	8b 55 dc             	mov    -0x24(%ebp),%edx
    42d8:	89 17                	mov    %edx,(%edi)
    42da:	85 c0                	test   %eax,%eax
    42dc:	75 1d                	jne    42fb <str_uint16_t+0x5b>
    42de:	80 7d d8 00          	cmpb   $0x0,-0x28(%ebp)
    42e2:	75 2c                	jne    4310 <str_uint16_t+0x70>
    42e4:	84 db                	test   %bl,%bl
    42e6:	75 20                	jne    4308 <str_uint16_t+0x68>
    42e8:	8b 55 e0             	mov    -0x20(%ebp),%edx
    42eb:	89 d1                	mov    %edx,%ecx
    42ed:	81 e1 00 00 ff ff    	and    $0xffff0000,%ecx
    42f3:	0b 4d e4             	or     -0x1c(%ebp),%ecx
    42f6:	75 20                	jne    4318 <str_uint16_t+0x78>
    42f8:	66 89 16             	mov    %dx,(%esi)
    42fb:	83 c4 2c             	add    $0x2c,%esp
    42fe:	5b                   	pop    %ebx
    42ff:	5e                   	pop    %esi
    4300:	5f                   	pop    %edi
    4301:	5d                   	pop    %ebp
    4302:	c3                   	ret    
    4303:	90                   	nop
    4304:	8d 74 26 00          	lea    0x0(%esi,%eiz,1),%esi
    4308:	8b 55 dc             	mov    -0x24(%ebp),%edx
    430b:	80 3a 00             	cmpb   $0x0,(%edx)
    430e:	74 d8                	je     42e8 <str_uint16_t+0x48>
    4310:	b8 f2 ff ff ff       	mov    $0xfffffff2,%eax
    4315:	eb e4                	jmp    42fb <str_uint16_t+0x5b>
    4317:	90                   	nop
    4318:	b8 f0 ff ff ff       	mov    $0xfffffff0,%eax
    431d:	eb dc                	jmp    42fb <str_uint16_t+0x5b>
    431f:	c7 44 24 08 28 06 00 	movl   $0x628,0x8(%esp)
    4326:	00 
    4327:	c7 44 24 04 50 dc 01 	movl   $0x1dc50,0x4(%esp)
    432e:	00 
    432f:	c7 04 24 79 dc 01 00 	movl   $0x1dc79,(%esp)
    4336:	e8 05 2b 01 00       	call   16e40 <assert_abort>
    433b:	90                   	nop
    433c:	8d 74 26 00          	lea    0x0(%esi,%eiz,1),%esi

00004340 <str_uint32_t>:
    4340:	55                   	push   %ebp
    4341:	89 e5                	mov    %esp,%ebp
    4343:	57                   	push   %edi
    4344:	56                   	push   %esi
    4345:	53                   	push   %ebx
    4346:	83 ec 2c             	sub    $0x2c,%esp
    4349:	8b 75 18             	mov    0x18(%ebp),%esi
    434c:	8b 7d 0c             	mov    0xc(%ebp),%edi
    434f:	8a 5d 14             	mov    0x14(%ebp),%bl
    4352:	85 f6                	test   %esi,%esi
    4354:	74 61                	je     43b7 <str_uint32_t+0x77>
    4356:	8d 45 e0             	lea    -0x20(%ebp),%eax
    4359:	8b 4d 10             	mov    0x10(%ebp),%ecx
    435c:	89 44 24 04          	mov    %eax,0x4(%esp)
    4360:	8d 45 d8             	lea    -0x28(%ebp),%eax
    4363:	89 04 24             	mov    %eax,(%esp)
    4366:	8d 55 dc             	lea    -0x24(%ebp),%edx
    4369:	8b 45 08             	mov    0x8(%ebp),%eax
    436c:	e8 9f d4 ff ff       	call   1810 <str_uint>
    4371:	85 ff                	test   %edi,%edi
    4373:	74 05                	je     437a <str_uint32_t+0x3a>
    4375:	8b 55 dc             	mov    -0x24(%ebp),%edx
    4378:	89 17                	mov    %edx,(%edi)
    437a:	85 c0                	test   %eax,%eax
    437c:	75 16                	jne    4394 <str_uint32_t+0x54>
    437e:	80 7d d8 00          	cmpb   $0x0,-0x28(%ebp)
    4382:	75 24                	jne    43a8 <str_uint32_t+0x68>
    4384:	84 db                	test   %bl,%bl
    4386:	75 18                	jne    43a0 <str_uint32_t+0x60>
    4388:	8b 4d e4             	mov    -0x1c(%ebp),%ecx
    438b:	8b 55 e0             	mov    -0x20(%ebp),%edx
    438e:	85 c9                	test   %ecx,%ecx
    4390:	75 1e                	jne    43b0 <str_uint32_t+0x70>
    4392:	89 16                	mov    %edx,(%esi)
    4394:	83 c4 2c             	add    $0x2c,%esp
    4397:	5b                   	pop    %ebx
    4398:	5e                   	pop    %esi
    4399:	5f                   	pop    %edi
    439a:	5d                   	pop    %ebp
    439b:	c3                   	ret    
    439c:	8d 74 26 00          	lea    0x0(%esi,%eiz,1),%esi
    43a0:	8b 55 dc             	mov    -0x24(%ebp),%edx
    43a3:	80 3a 00             	cmpb   $0x0,(%edx)
    43a6:	74 e0                	je     4388 <str_uint32_t+0x48>
    43a8:	b8 f2 ff ff ff       	mov    $0xfffffff2,%eax
    43ad:	eb e5                	jmp    4394 <str_uint32_t+0x54>
    43af:	90                   	nop
    43b0:	b8 f0 ff ff ff       	mov    $0xfffffff0,%eax
    43b5:	eb dd                	jmp    4394 <str_uint32_t+0x54>
    43b7:	c7 44 24 08 57 06 00 	movl   $0x657,0x8(%esp)
    43be:	00 
    43bf:	c7 44 24 04 50 dc 01 	movl   $0x1dc50,0x4(%esp)
    43c6:	00 
    43c7:	c7 04 24 79 dc 01 00 	movl   $0x1dc79,(%esp)
    43ce:	e8 6d 2a 01 00       	call   16e40 <assert_abort>
    43d3:	8d b6 00 00 00 00    	lea    0x0(%esi),%esi
    43d9:	8d bc 27 00 00 00 00 	lea    0x0(%edi,%eiz,1),%edi

000043e0 <str_uint64_t>:
    43e0:	55                   	push   %ebp
    43e1:	89 e5                	mov    %esp,%ebp
    43e3:	56                   	push   %esi
    43e4:	53                   	push   %ebx
    43e5:	83 ec 20             	sub    $0x20,%esp
    43e8:	8b 45 18             	mov    0x18(%ebp),%eax
    43eb:	8b 75 0c             	mov    0xc(%ebp),%esi
    43ee:	8a 5d 14             	mov    0x14(%ebp),%bl
    43f1:	85 c0                	test   %eax,%eax
    43f3:	74 4a                	je     443f <str_uint64_t+0x5f>
    43f5:	89 44 24 04          	mov    %eax,0x4(%esp)
    43f9:	8d 45 f0             	lea    -0x10(%ebp),%eax
    43fc:	89 04 24             	mov    %eax,(%esp)
    43ff:	8b 4d 10             	mov    0x10(%ebp),%ecx
    4402:	8d 55 f4             	lea    -0xc(%ebp),%edx
    4405:	8b 45 08             	mov    0x8(%ebp),%eax
    4408:	e8 03 d4 ff ff       	call   1810 <str_uint>
    440d:	85 f6                	test   %esi,%esi
    440f:	74 05                	je     4416 <str_uint64_t+0x36>
    4411:	8b 55 f4             	mov    -0xc(%ebp),%edx
    4414:	89 16                	mov    %edx,(%esi)
    4416:	85 c0                	test   %eax,%eax
    4418:	75 12                	jne    442c <str_uint64_t+0x4c>
    441a:	80 7d f0 00          	cmpb   $0x0,-0x10(%ebp)
    441e:	75 18                	jne    4438 <str_uint64_t+0x58>
    4420:	84 db                	test   %bl,%bl
    4422:	74 08                	je     442c <str_uint64_t+0x4c>
    4424:	8b 55 f4             	mov    -0xc(%ebp),%edx
    4427:	80 3a 00             	cmpb   $0x0,(%edx)
    442a:	75 0c                	jne    4438 <str_uint64_t+0x58>
    442c:	83 c4 20             	add    $0x20,%esp
    442f:	5b                   	pop    %ebx
    4430:	5e                   	pop    %esi
    4431:	5d                   	pop    %ebp
    4432:	c3                   	ret    
    4433:	90                   	nop
    4434:	8d 74 26 00          	lea    0x0(%esi,%eiz,1),%esi
    4438:	b8 f2 ff ff ff       	mov    $0xfffffff2,%eax
    443d:	eb ed                	jmp    442c <str_uint64_t+0x4c>
    443f:	c7 44 24 08 86 06 00 	movl   $0x686,0x8(%esp)
    4446:	00 
    4447:	c7 44 24 04 50 dc 01 	movl   $0x1dc50,0x4(%esp)
    444e:	00 
    444f:	c7 04 24 79 dc 01 00 	movl   $0x1dc79,(%esp)
    4456:	e8 e5 29 01 00       	call   16e40 <assert_abort>
    445b:	90                   	nop
    445c:	8d 74 26 00          	lea    0x0(%esi,%eiz,1),%esi

00004460 <str_size_t>:
    4460:	55                   	push   %ebp
    4461:	89 e5                	mov    %esp,%ebp
    4463:	57                   	push   %edi
    4464:	56                   	push   %esi
    4465:	53                   	push   %ebx
    4466:	83 ec 2c             	sub    $0x2c,%esp
    4469:	8b 75 18             	mov    0x18(%ebp),%esi
    446c:	8b 7d 0c             	mov    0xc(%ebp),%edi
    446f:	8a 5d 14             	mov    0x14(%ebp),%bl
    4472:	85 f6                	test   %esi,%esi
    4474:	74 61                	je     44d7 <str_size_t+0x77>
    4476:	8d 45 e0             	lea    -0x20(%ebp),%eax
    4479:	8b 4d 10             	mov    0x10(%ebp),%ecx
    447c:	89 44 24 04          	mov    %eax,0x4(%esp)
    4480:	8d 45 d8             	lea    -0x28(%ebp),%eax
    4483:	89 04 24             	mov    %eax,(%esp)
    4486:	8d 55 dc             	lea    -0x24(%ebp),%edx
    4489:	8b 45 08             	mov    0x8(%ebp),%eax
    448c:	e8 7f d3 ff ff       	call   1810 <str_uint>
    4491:	85 ff                	test   %edi,%edi
    4493:	74 05                	je     449a <str_size_t+0x3a>
    4495:	8b 55 dc             	mov    -0x24(%ebp),%edx
    4498:	89 17                	mov    %edx,(%edi)
    449a:	85 c0                	test   %eax,%eax
    449c:	75 16                	jne    44b4 <str_size_t+0x54>
    449e:	80 7d d8 00          	cmpb   $0x0,-0x28(%ebp)
    44a2:	75 24                	jne    44c8 <str_size_t+0x68>
    44a4:	84 db                	test   %bl,%bl
    44a6:	75 18                	jne    44c0 <str_size_t+0x60>
    44a8:	8b 5d e4             	mov    -0x1c(%ebp),%ebx
    44ab:	8b 55 e0             	mov    -0x20(%ebp),%edx
    44ae:	85 db                	test   %ebx,%ebx
    44b0:	75 1e                	jne    44d0 <str_size_t+0x70>
    44b2:	89 16                	mov    %edx,(%esi)
    44b4:	83 c4 2c             	add    $0x2c,%esp
    44b7:	5b                   	pop    %ebx
    44b8:	5e                   	pop    %esi
    44b9:	5f                   	pop    %edi
    44ba:	5d                   	pop    %ebp
    44bb:	c3                   	ret    
    44bc:	8d 74 26 00          	lea    0x0(%esi,%eiz,1),%esi
    44c0:	8b 55 dc             	mov    -0x24(%ebp),%edx
    44c3:	80 3a 00             	cmpb   $0x0,(%edx)
    44c6:	74 e0                	je     44a8 <str_size_t+0x48>
    44c8:	b8 f2 ff ff ff       	mov    $0xfffffff2,%eax
    44cd:	eb e5                	jmp    44b4 <str_size_t+0x54>
    44cf:	90                   	nop
    44d0:	b8 f0 ff ff ff       	mov    $0xfffffff0,%eax
    44d5:	eb dd                	jmp    44b4 <str_size_t+0x54>
    44d7:	c7 44 24 08 ad 06 00 	movl   $0x6ad,0x8(%esp)
    44de:	00 
    44df:	c7 44 24 04 50 dc 01 	movl   $0x1dc50,0x4(%esp)
    44e6:	00 
    44e7:	c7 04 24 79 dc 01 00 	movl   $0x1dc79,(%esp)
    44ee:	e8 4d 29 01 00       	call   16e40 <assert_abort>
    44f3:	8d b6 00 00 00 00    	lea    0x0(%esi),%esi
    44f9:	8d bc 27 00 00 00 00 	lea    0x0(%edi,%eiz,1),%edi

00004500 <order_suffix>:
    4500:	55                   	push   %ebp
    4501:	89 e5                	mov    %esp,%ebp
    4503:	53                   	push   %ebx
    4504:	83 ec 14             	sub    $0x14,%esp
    4507:	8b 45 0c             	mov    0xc(%ebp),%eax
    450a:	8b 55 08             	mov    0x8(%ebp),%edx
    450d:	8b 5d 10             	mov    0x10(%ebp),%ebx
    4510:	3d 04 23 c7 8a       	cmp    $0x8ac72304,%eax
    4515:	72 39                	jb     4550 <order_suffix+0x50>
    4517:	76 2f                	jbe    4548 <order_suffix+0x48>
    4519:	c7 44 24 08 00 00 64 	movl   $0xa7640000,0x8(%esp)
    4520:	a7 
    4521:	c7 44 24 0c b3 b6 e0 	movl   $0xde0b6b3,0xc(%esp)
    4528:	0d 
    4529:	89 14 24             	mov    %edx,(%esp)
    452c:	89 44 24 04          	mov    %eax,0x4(%esp)
    4530:	e8 cb 8f 01 00       	call   1d500 <__udivdi3>
    4535:	89 03                	mov    %eax,(%ebx)
    4537:	8b 45 14             	mov    0x14(%ebp),%eax
    453a:	89 53 04             	mov    %edx,0x4(%ebx)
    453d:	c6 00 5a             	movb   $0x5a,(%eax)
    4540:	83 c4 14             	add    $0x14,%esp
    4543:	5b                   	pop    %ebx
    4544:	5d                   	pop    %ebp
    4545:	c3                   	ret    
    4546:	66 90                	xchg   %ax,%ax
    4548:	81 fa 00 00 e8 89    	cmp    $0x89e80000,%edx
    454e:	77 c9                	ja     4519 <order_suffix+0x19>
    4550:	3d b3 b6 e0 0d       	cmp    $0xde0b6b3,%eax
    4555:	73 71                	jae    45c8 <order_suffix+0xc8>
    4557:	3d 7e 8d 03 00       	cmp    $0x38d7e,%eax
    455c:	72 12                	jb     4570 <order_suffix+0x70>
    455e:	0f 87 e4 00 00 00    	ja     4648 <order_suffix+0x148>
    4564:	81 fa 00 80 c6 a4    	cmp    $0xa4c68000,%edx
    456a:	0f 87 d8 00 00 00    	ja     4648 <order_suffix+0x148>
    4570:	3d e8 00 00 00       	cmp    $0xe8,%eax
    4575:	0f 83 8d 00 00 00    	jae    4608 <order_suffix+0x108>
    457b:	83 f8 00             	cmp    $0x0,%eax
    457e:	0f 87 f4 00 00 00    	ja     4678 <order_suffix+0x178>
    4584:	81 fa 00 ca 9a 3b    	cmp    $0x3b9aca00,%edx
    458a:	0f 87 e8 00 00 00    	ja     4678 <order_suffix+0x178>
    4590:	81 fa 40 42 0f 00    	cmp    $0xf4240,%edx
    4596:	0f 86 08 01 00 00    	jbe    46a4 <order_suffix+0x1a4>
    459c:	c7 44 24 08 e8 03 00 	movl   $0x3e8,0x8(%esp)
    45a3:	00 
    45a4:	c7 44 24 0c 00 00 00 	movl   $0x0,0xc(%esp)
    45ab:	00 
    45ac:	89 14 24             	mov    %edx,(%esp)
    45af:	89 44 24 04          	mov    %eax,0x4(%esp)
    45b3:	e8 48 8f 01 00       	call   1d500 <__udivdi3>
    45b8:	8b 4d 14             	mov    0x14(%ebp),%ecx
    45bb:	89 03                	mov    %eax,(%ebx)
    45bd:	89 53 04             	mov    %edx,0x4(%ebx)
    45c0:	c6 01 6b             	movb   $0x6b,(%ecx)
    45c3:	e9 78 ff ff ff       	jmp    4540 <order_suffix+0x40>
    45c8:	76 2e                	jbe    45f8 <order_suffix+0xf8>
    45ca:	c7 44 24 08 00 80 c6 	movl   $0xa4c68000,0x8(%esp)
    45d1:	a4 
    45d2:	c7 44 24 0c 7e 8d 03 	movl   $0x38d7e,0xc(%esp)
    45d9:	00 
    45da:	89 14 24             	mov    %edx,(%esp)
    45dd:	89 44 24 04          	mov    %eax,0x4(%esp)
    45e1:	e8 1a 8f 01 00       	call   1d500 <__udivdi3>
    45e6:	8b 4d 14             	mov    0x14(%ebp),%ecx
    45e9:	89 03                	mov    %eax,(%ebx)
    45eb:	89 53 04             	mov    %edx,0x4(%ebx)
    45ee:	c6 01 45             	movb   $0x45,(%ecx)
    45f1:	83 c4 14             	add    $0x14,%esp
    45f4:	5b                   	pop    %ebx
    45f5:	5d                   	pop    %ebp
    45f6:	c3                   	ret    
    45f7:	90                   	nop
    45f8:	81 fa 00 00 64 a7    	cmp    $0xa7640000,%edx
    45fe:	0f 86 53 ff ff ff    	jbe    4557 <order_suffix+0x57>
    4604:	eb c4                	jmp    45ca <order_suffix+0xca>
    4606:	66 90                	xchg   %ax,%ax
    4608:	77 0c                	ja     4616 <order_suffix+0x116>
    460a:	81 fa 00 10 a5 d4    	cmp    $0xd4a51000,%edx
    4610:	0f 86 65 ff ff ff    	jbe    457b <order_suffix+0x7b>
    4616:	c7 44 24 08 00 ca 9a 	movl   $0x3b9aca00,0x8(%esp)
    461d:	3b 
    461e:	c7 44 24 0c 00 00 00 	movl   $0x0,0xc(%esp)
    4625:	00 
    4626:	89 14 24             	mov    %edx,(%esp)
    4629:	89 44 24 04          	mov    %eax,0x4(%esp)
    462d:	e8 ce 8e 01 00       	call   1d500 <__udivdi3>
    4632:	8b 4d 14             	mov    0x14(%ebp),%ecx
    4635:	89 03                	mov    %eax,(%ebx)
    4637:	89 53 04             	mov    %edx,0x4(%ebx)
    463a:	c6 01 47             	movb   $0x47,(%ecx)
    463d:	e9 fe fe ff ff       	jmp    4540 <order_suffix+0x40>
    4642:	8d b6 00 00 00 00    	lea    0x0(%esi),%esi
    4648:	c7 44 24 08 00 10 a5 	movl   $0xd4a51000,0x8(%esp)
    464f:	d4 
    4650:	c7 44 24 0c e8 00 00 	movl   $0xe8,0xc(%esp)
    4657:	00 
    4658:	89 14 24             	mov    %edx,(%esp)
    465b:	89 44 24 04          	mov    %eax,0x4(%esp)
    465f:	e8 9c 8e 01 00       	call   1d500 <__udivdi3>
    4664:	89 03                	mov    %eax,(%ebx)
    4666:	8b 45 14             	mov    0x14(%ebp),%eax
    4669:	89 53 04             	mov    %edx,0x4(%ebx)
    466c:	c6 00 54             	movb   $0x54,(%eax)
    466f:	83 c4 14             	add    $0x14,%esp
    4672:	5b                   	pop    %ebx
    4673:	5d                   	pop    %ebp
    4674:	c3                   	ret    
    4675:	8d 76 00             	lea    0x0(%esi),%esi
    4678:	c7 44 24 08 40 42 0f 	movl   $0xf4240,0x8(%esp)
    467f:	00 
    4680:	c7 44 24 0c 00 00 00 	movl   $0x0,0xc(%esp)
    4687:	00 
    4688:	89 14 24             	mov    %edx,(%esp)
    468b:	89 44 24 04          	mov    %eax,0x4(%esp)
    468f:	e8 6c 8e 01 00       	call   1d500 <__udivdi3>
    4694:	89 03                	mov    %eax,(%ebx)
    4696:	8b 45 14             	mov    0x14(%ebp),%eax
    4699:	89 53 04             	mov    %edx,0x4(%ebx)
    469c:	c6 00 4d             	movb   $0x4d,(%eax)
    469f:	e9 9c fe ff ff       	jmp    4540 <order_suffix+0x40>
    46a4:	89 43 04             	mov    %eax,0x4(%ebx)
    46a7:	8b 45 14             	mov    0x14(%ebp),%eax
    46aa:	89 13                	mov    %edx,(%ebx)
    46ac:	c6 00 20             	movb   $0x20,(%eax)
    46af:	e9 8c fe ff ff       	jmp    4540 <order_suffix+0x40>
    46b4:	8d b6 00 00 00 00    	lea    0x0(%esi),%esi
    46ba:	8d bf 00 00 00 00    	lea    0x0(%edi),%edi

000046c0 <bin_order_suffix>:
    46c0:	55                   	push   %ebp
    46c1:	89 e5                	mov    %esp,%ebp
    46c3:	53                   	push   %ebx
    46c4:	8b 55 0c             	mov    0xc(%ebp),%edx
    46c7:	8b 45 08             	mov    0x8(%ebp),%eax
    46ca:	8b 4d 10             	mov    0x10(%ebp),%ecx
    46cd:	8a 5d 18             	mov    0x18(%ebp),%bl
    46d0:	81 fa 00 00 00 10    	cmp    $0x10000000,%edx
    46d6:	72 25                	jb     46fd <bin_order_suffix+0x3d>
    46d8:	76 1e                	jbe    46f8 <bin_order_suffix+0x38>
    46da:	89 d0                	mov    %edx,%eax
    46dc:	c7 41 04 00 00 00 00 	movl   $0x0,0x4(%ecx)
    46e3:	c1 e8 12             	shr    $0x12,%eax
    46e6:	89 01                	mov    %eax,(%ecx)
    46e8:	8b 45 14             	mov    0x14(%ebp),%eax
    46eb:	c7 00 91 dc 01 00    	movl   $0x1dc91,(%eax)
    46f1:	5b                   	pop    %ebx
    46f2:	5d                   	pop    %ebp
    46f3:	c3                   	ret    
    46f4:	8d 74 26 00          	lea    0x0(%esi,%eiz,1),%esi
    46f8:	83 f8 00             	cmp    $0x0,%eax
    46fb:	77 dd                	ja     46da <bin_order_suffix+0x1a>
    46fd:	81 fa 00 00 04 00    	cmp    $0x40000,%edx
    4703:	73 2b                	jae    4730 <bin_order_suffix+0x70>
    4705:	81 fa 00 01 00 00    	cmp    $0x100,%edx
    470b:	72 07                	jb     4714 <bin_order_suffix+0x54>
    470d:	77 79                	ja     4788 <bin_order_suffix+0xc8>
    470f:	83 f8 00             	cmp    $0x0,%eax
    4712:	77 74                	ja     4788 <bin_order_suffix+0xc8>
    4714:	83 fa 00             	cmp    $0x0,%edx
    4717:	76 3f                	jbe    4758 <bin_order_suffix+0x98>
    4719:	8b 5d 14             	mov    0x14(%ebp),%ebx
    471c:	0f ac d0 14          	shrd   $0x14,%edx,%eax
    4720:	c1 ea 14             	shr    $0x14,%edx
    4723:	89 01                	mov    %eax,(%ecx)
    4725:	89 51 04             	mov    %edx,0x4(%ecx)
    4728:	c7 03 9d dc 01 00    	movl   $0x1dc9d,(%ebx)
    472e:	eb c1                	jmp    46f1 <bin_order_suffix+0x31>
    4730:	76 1e                	jbe    4750 <bin_order_suffix+0x90>
    4732:	8b 5d 14             	mov    0x14(%ebp),%ebx
    4735:	89 d0                	mov    %edx,%eax
    4737:	c1 e8 08             	shr    $0x8,%eax
    473a:	c7 41 04 00 00 00 00 	movl   $0x0,0x4(%ecx)
    4741:	89 01                	mov    %eax,(%ecx)
    4743:	c7 03 95 dc 01 00    	movl   $0x1dc95,(%ebx)
    4749:	5b                   	pop    %ebx
    474a:	5d                   	pop    %ebp
    474b:	c3                   	ret    
    474c:	8d 74 26 00          	lea    0x0(%esi,%eiz,1),%esi
    4750:	83 f8 00             	cmp    $0x0,%eax
    4753:	76 b0                	jbe    4705 <bin_order_suffix+0x45>
    4755:	eb db                	jmp    4732 <bin_order_suffix+0x72>
    4757:	90                   	nop
    4758:	3d 00 00 00 40       	cmp    $0x40000000,%eax
    475d:	77 ba                	ja     4719 <bin_order_suffix+0x59>
    475f:	83 fa 00             	cmp    $0x0,%edx
    4762:	77 07                	ja     476b <bin_order_suffix+0xab>
    4764:	3d 00 00 10 00       	cmp    $0x100000,%eax
    4769:	76 35                	jbe    47a0 <bin_order_suffix+0xe0>
    476b:	0f ac d0 0a          	shrd   $0xa,%edx,%eax
    476f:	c1 ea 0a             	shr    $0xa,%edx
    4772:	89 01                	mov    %eax,(%ecx)
    4774:	8b 45 14             	mov    0x14(%ebp),%eax
    4777:	89 51 04             	mov    %edx,0x4(%ecx)
    477a:	c7 00 a1 dc 01 00    	movl   $0x1dca1,(%eax)
    4780:	e9 6c ff ff ff       	jmp    46f1 <bin_order_suffix+0x31>
    4785:	8d 76 00             	lea    0x0(%esi),%esi
    4788:	0f ac d0 1e          	shrd   $0x1e,%edx,%eax
    478c:	c1 ea 1e             	shr    $0x1e,%edx
    478f:	89 01                	mov    %eax,(%ecx)
    4791:	8b 45 14             	mov    0x14(%ebp),%eax
    4794:	89 51 04             	mov    %edx,0x4(%ecx)
    4797:	c7 00 99 dc 01 00    	movl   $0x1dc99,(%eax)
    479d:	5b                   	pop    %ebx
    479e:	5d                   	pop    %ebp
    479f:	c3                   	ret    
    47a0:	89 01                	mov    %eax,(%ecx)
    47a2:	89 51 04             	mov    %edx,0x4(%ecx)
    47a5:	84 db                	test   %bl,%bl
    47a7:	75 0f                	jne    47b8 <bin_order_suffix+0xf8>
    47a9:	8b 45 14             	mov    0x14(%ebp),%eax
    47ac:	c7 00 93 dc 01 00    	movl   $0x1dc93,(%eax)
    47b2:	e9 3a ff ff ff       	jmp    46f1 <bin_order_suffix+0x31>
    47b7:	90                   	nop
    47b8:	8b 5d 14             	mov    0x14(%ebp),%ebx
    47bb:	c7 03 a5 dc 01 00    	movl   $0x1dca5,(%ebx)
    47c1:	e9 2b ff ff ff       	jmp    46f1 <bin_order_suffix+0x31>
    47c6:	66 90                	xchg   %ax,%ax
    47c8:	66 90                	xchg   %ax,%ax
    47ca:	66 90                	xchg   %ax,%ax
    47cc:	66 90                	xchg   %ax,%ax
    47ce:	66 90                	xchg   %ax,%ax

000047d0 <str_error>:
    47d0:	55                   	push   %ebp
    47d1:	89 e5                	mov    %esp,%ebp
    47d3:	53                   	push   %ebx
    47d4:	83 ec 14             	sub    $0x14,%esp
    47d7:	8b 45 08             	mov    0x8(%ebp),%eax
    47da:	8d 50 11             	lea    0x11(%eax),%edx
    47dd:	83 fa 11             	cmp    $0x11,%edx
    47e0:	76 1e                	jbe    4800 <str_error+0x30>
    47e2:	3d d2 fe ff ff       	cmp    $0xfffffed2,%eax
    47e7:	74 67                	je     4850 <str_error+0x80>
    47e9:	7f 25                	jg     4810 <str_error+0x40>
    47eb:	3d 06 d5 ff ff       	cmp    $0xffffd506,%eax
    47f0:	75 2c                	jne    481e <str_error+0x4e>
    47f2:	83 c4 14             	add    $0x14,%esp
    47f5:	b8 90 df 01 00       	mov    $0x1df90,%eax
    47fa:	5b                   	pop    %ebx
    47fb:	5d                   	pop    %ebp
    47fc:	c3                   	ret    
    47fd:	8d 76 00             	lea    0x0(%esi),%esi
    4800:	f7 d8                	neg    %eax
    4802:	8b 04 85 c0 df 01 00 	mov    0x1dfc0(,%eax,4),%eax
    4809:	83 c4 14             	add    $0x14,%esp
    480c:	5b                   	pop    %ebx
    480d:	5d                   	pop    %ebp
    480e:	c3                   	ret    
    480f:	90                   	nop
    4810:	3d d3 fe ff ff       	cmp    $0xfffffed3,%eax
    4815:	74 49                	je     4860 <str_error+0x90>
    4817:	3d d4 fe ff ff       	cmp    $0xfffffed4,%eax
    481c:	74 52                	je     4870 <str_error+0xa0>
    481e:	65 8b 1d 00 00 00 00 	mov    %gs:0x0,%ebx
    4825:	89 44 24 0c          	mov    %eax,0xc(%esp)
