
isdv4_tablet:     file format elf32-i386


Disassembly of section .init:

00001094 <__entry>:
    1094:	66 8c d0             	mov    %ss,%ax
    1097:	8e d8                	mov    %eax,%ds
    1099:	8e c0                	mov    %eax,%es
    109b:	8e e0                	mov    %eax,%fs
    109d:	b8 01 00 00 00       	mov    $0x1,%eax
    10a2:	0f a2                	cpuid  
    10a4:	0f ba e2 0b          	bt     $0xb,%edx
    10a8:	73 0c                	jae    10b6 <__entry+0x22>
    10aa:	8d 05 34 1b 02 00    	lea    0x21b34,%eax
    10b0:	c7 00 27 c8 01 00    	movl   $0x1c827,(%eax)
    10b6:	6a 00                	push   $0x0
    10b8:	89 e5                	mov    %esp,%ebp
    10ba:	57                   	push   %edi
    10bb:	e8 00 13 00 00       	call   23c0 <__main>

Disassembly of section .text:

000010c0 <syntax_print>:
    10c0:	55                   	push   %ebp
    10c1:	89 e5                	mov    %esp,%ebp
    10c3:	83 ec 18             	sub    $0x18,%esp
    10c6:	a1 2c 1c 02 00       	mov    0x21c2c,%eax
    10cb:	c7 44 24 08 92 eb 01 	movl   $0x1eb92,0x8(%esp)
    10d2:	00 
    10d3:	c7 44 24 04 7c ed 01 	movl   $0x1ed7c,0x4(%esp)
    10da:	00 
    10db:	89 04 24             	mov    %eax,(%esp)
    10de:	e8 5d c0 00 00       	call   d140 <fprintf>
    10e3:	c9                   	leave  
    10e4:	c3                   	ret    
    10e5:	8d 74 26 00          	lea    0x0(%esi,%eiz,1),%esi
    10e9:	8d bc 27 00 00 00 00 	lea    0x0(%edi,%eiz,1),%edi

000010f0 <mouse_connection>:
    10f0:	55                   	push   %ebp
    10f1:	89 e5                	mov    %esp,%ebp
    10f3:	53                   	push   %ebx
    10f4:	83 ec 44             	sub    $0x44,%esp
    10f7:	8b 45 08             	mov    0x8(%ebp),%eax
    10fa:	c7 44 24 04 00 00 00 	movl   $0x0,0x4(%esp)
    1101:	00 
    1102:	89 04 24             	mov    %eax,(%esp)
    1105:	e8 f6 39 01 00       	call   14b00 <async_answer_0>
    110a:	c7 04 24 02 00 00 00 	movl   $0x2,(%esp)
    1111:	e8 8a 5c 01 00       	call   16da0 <async_callback_receive>
    1116:	c7 04 24 a0 1b 02 00 	movl   $0x21ba0,(%esp)
    111d:	89 c3                	mov    %eax,%ebx
    111f:	e8 1c 80 00 00       	call   9140 <fibril_mutex_lock>
    1124:	8b 0d 00 1c 02 00    	mov    0x21c00,%ecx
    112a:	85 c9                	test   %ecx,%ecx
    112c:	74 42                	je     1170 <mouse_connection+0x80>
    112e:	c7 04 24 a0 1b 02 00 	movl   $0x21ba0,(%esp)
    1135:	8d 5d d4             	lea    -0x2c(%ebp),%ebx
    1138:	e8 23 81 00 00       	call   9260 <fibril_mutex_unlock>
    113d:	eb 11                	jmp    1150 <mouse_connection+0x60>
    113f:	90                   	nop
    1140:	c7 44 24 04 f5 ff ff 	movl   $0xfffffff5,0x4(%esp)
    1147:	ff 
    1148:	89 04 24             	mov    %eax,(%esp)
    114b:	e8 b0 39 01 00       	call   14b00 <async_answer_0>
    1150:	c7 44 24 04 00 00 00 	movl   $0x0,0x4(%esp)
    1157:	00 
    1158:	89 1c 24             	mov    %ebx,(%esp)
    115b:	e8 70 23 01 00       	call   134d0 <async_get_call_timeout>
    1160:	8b 55 d4             	mov    -0x2c(%ebp),%edx
    1163:	85 d2                	test   %edx,%edx
    1165:	75 d9                	jne    1140 <mouse_connection+0x50>
    1167:	83 c4 44             	add    $0x44,%esp
    116a:	5b                   	pop    %ebx
    116b:	5d                   	pop    %ebp
    116c:	c3                   	ret    
    116d:	8d 76 00             	lea    0x0(%esi),%esi
    1170:	89 1d 00 1c 02 00    	mov    %ebx,0x21c00
    1176:	eb b6                	jmp    112e <mouse_connection+0x3e>
    1178:	90                   	nop
    1179:	8d b4 26 00 00 00 00 	lea    0x0(%esi,%eiz,1),%esi

00001180 <read_fibril>:
    1180:	55                   	push   %ebp
    1181:	89 e5                	mov    %esp,%ebp
    1183:	53                   	push   %ebx
    1184:	83 ec 14             	sub    $0x14,%esp
    1187:	c7 04 24 c0 1b 02 00 	movl   $0x21bc0,(%esp)
    118e:	e8 1d 11 00 00       	call   22b0 <isdv4_read_events>
    1193:	89 c3                	mov    %eax,%ebx
    1195:	85 c0                	test   %eax,%eax
    1197:	75 17                	jne    11b0 <read_fibril+0x30>
    1199:	c7 04 24 c0 1b 02 00 	movl   $0x21bc0,(%esp)
    11a0:	e8 2b 11 00 00       	call   22d0 <isdv4_fini>
    11a5:	83 c4 14             	add    $0x14,%esp
    11a8:	89 d8                	mov    %ebx,%eax
    11aa:	5b                   	pop    %ebx
    11ab:	5d                   	pop    %ebp
    11ac:	c3                   	ret    
    11ad:	8d 76 00             	lea    0x0(%esi),%esi
    11b0:	a1 2c 1c 02 00       	mov    0x21c2c,%eax
    11b5:	c7 44 24 04 9f eb 01 	movl   $0x1eb9f,0x4(%esp)
    11bc:	00 
    11bd:	89 04 24             	mov    %eax,(%esp)
    11c0:	e8 7b bf 00 00       	call   d140 <fprintf>
    11c5:	83 c4 14             	add    $0x14,%esp
    11c8:	89 d8                	mov    %ebx,%eax
    11ca:	5b                   	pop    %ebx
    11cb:	5d                   	pop    %ebp
    11cc:	c3                   	ret    
    11cd:	8d 76 00             	lea    0x0(%esi),%esi

000011d0 <emit_event>:
    11d0:	55                   	push   %ebp
    11d1:	89 e5                	mov    %esp,%ebp
    11d3:	56                   	push   %esi
    11d4:	53                   	push   %ebx
    11d5:	83 ec 20             	sub    $0x20,%esp
    11d8:	8b 5d 08             	mov    0x8(%ebp),%ebx
    11db:	c7 04 24 a0 1b 02 00 	movl   $0x21ba0,(%esp)
    11e2:	e8 59 7f 00 00       	call   9140 <fibril_mutex_lock>
    11e7:	8b 35 00 1c 02 00    	mov    0x21c00,%esi
    11ed:	c7 04 24 a0 1b 02 00 	movl   $0x21ba0,(%esp)
    11f4:	e8 67 80 00 00       	call   9260 <fibril_mutex_unlock>
    11f9:	85 f6                	test   %esi,%esi
    11fb:	74 63                	je     1260 <emit_event+0x90>
    11fd:	89 34 24             	mov    %esi,(%esp)
    1200:	e8 fb 42 01 00       	call   15500 <async_exchange_begin>
    1205:	89 c6                	mov    %eax,%esi
    1207:	85 c0                	test   %eax,%eax
    1209:	74 41                	je     124c <emit_event+0x7c>
    120b:	a1 c0 1b 02 00       	mov    0x21bc0,%eax
    1210:	8b 15 c4 1b 02 00    	mov    0x21bc4,%edx
    1216:	83 7b 04 02          	cmpl   $0x2,0x4(%ebx)
    121a:	74 4c                	je     1268 <emit_event+0x98>
    121c:	89 54 24 14          	mov    %edx,0x14(%esp)
    1220:	89 44 24 10          	mov    %eax,0x10(%esp)
    1224:	8b 43 0c             	mov    0xc(%ebx),%eax
    1227:	89 44 24 0c          	mov    %eax,0xc(%esp)
    122b:	8b 43 08             	mov    0x8(%ebx),%eax
    122e:	c7 44 24 04 01 04 00 	movl   $0x401,0x4(%esp)
    1235:	00 
    1236:	89 44 24 08          	mov    %eax,0x8(%esp)
    123a:	89 34 24             	mov    %esi,(%esp)
    123d:	e8 fe 37 01 00       	call   14a40 <async_msg_4>
    1242:	8b 03                	mov    (%ebx),%eax
    1244:	8d 50 ff             	lea    -0x1(%eax),%edx
    1247:	83 fa 01             	cmp    $0x1,%edx
    124a:	76 2c                	jbe    1278 <emit_event+0xa8>
    124c:	89 75 08             	mov    %esi,0x8(%ebp)
    124f:	83 c4 20             	add    $0x20,%esp
    1252:	5b                   	pop    %ebx
    1253:	5e                   	pop    %esi
    1254:	5d                   	pop    %ebp
    1255:	e9 16 46 01 00       	jmp    15870 <async_exchange_end>
    125a:	8d b6 00 00 00 00    	lea    0x0(%esi),%esi
    1260:	83 c4 20             	add    $0x20,%esp
    1263:	5b                   	pop    %ebx
    1264:	5e                   	pop    %esi
    1265:	5d                   	pop    %ebp
    1266:	c3                   	ret    
    1267:	90                   	nop
    1268:	a1 dc 1b 02 00       	mov    0x21bdc,%eax
    126d:	8b 15 e0 1b 02 00    	mov    0x21be0,%edx
    1273:	eb a7                	jmp    121c <emit_event+0x4c>
    1275:	8d 76 00             	lea    0x0(%esi),%esi
    1278:	48                   	dec    %eax
    1279:	0f 94 c0             	sete   %al
    127c:	25 ff 00 00 00       	and    $0xff,%eax
    1281:	89 44 24 0c          	mov    %eax,0xc(%esp)
    1285:	8b 43 14             	mov    0x14(%ebx),%eax
    1288:	c7 44 24 04 02 04 00 	movl   $0x402,0x4(%esp)
    128f:	00 
    1290:	89 44 24 08          	mov    %eax,0x8(%esp)
    1294:	89 34 24             	mov    %esi,(%esp)
    1297:	e8 e4 36 01 00       	call   14980 <async_msg_2>
    129c:	eb ae                	jmp    124c <emit_event+0x7c>
    129e:	66 90                	xchg   %ax,%ax

000012a0 <print_and_emit_event>:
    12a0:	55                   	push   %ebp
    12a1:	b9 b5 eb 01 00       	mov    $0x1ebb5,%ecx
    12a6:	89 e5                	mov    %esp,%ebp
    12a8:	56                   	push   %esi
    12a9:	53                   	push   %ebx
    12aa:	83 ec 20             	sub    $0x20,%esp
    12ad:	8b 5d 08             	mov    0x8(%ebp),%ebx
    12b0:	8b 03                	mov    (%ebx),%eax
    12b2:	48                   	dec    %eax
    12b3:	83 f8 04             	cmp    $0x4,%eax
    12b6:	77 07                	ja     12bf <print_and_emit_event+0x1f>
    12b8:	8b 0c 85 00 f0 01 00 	mov    0x1f000(,%eax,4),%ecx
    12bf:	8b 53 04             	mov    0x4(%ebx),%edx
    12c2:	31 c0                	xor    %eax,%eax
    12c4:	83 fa 02             	cmp    $0x2,%edx
    12c7:	77 07                	ja     12d0 <print_and_emit_event+0x30>
    12c9:	8b 04 95 14 f0 01 00 	mov    0x1f014(,%edx,4),%eax
    12d0:	8b 53 14             	mov    0x14(%ebx),%edx
    12d3:	89 54 24 18          	mov    %edx,0x18(%esp)
    12d7:	8b 53 10             	mov    0x10(%ebx),%edx
    12da:	89 54 24 14          	mov    %edx,0x14(%esp)
    12de:	8b 53 0c             	mov    0xc(%ebx),%edx
    12e1:	89 54 24 10          	mov    %edx,0x10(%esp)
    12e5:	8b 53 08             	mov    0x8(%ebx),%edx
    12e8:	89 4c 24 04          	mov    %ecx,0x4(%esp)
    12ec:	89 54 24 0c          	mov    %edx,0xc(%esp)
    12f0:	89 44 24 08          	mov    %eax,0x8(%esp)
    12f4:	c7 04 24 bd eb 01 00 	movl   $0x1ebbd,(%esp)
    12fb:	e8 70 be 00 00       	call   d170 <printf>
    1300:	c7 04 24 a0 1b 02 00 	movl   $0x21ba0,(%esp)
    1307:	e8 34 7e 00 00       	call   9140 <fibril_mutex_lock>
    130c:	8b 35 00 1c 02 00    	mov    0x21c00,%esi
    1312:	c7 04 24 a0 1b 02 00 	movl   $0x21ba0,(%esp)
    1319:	e8 42 7f 00 00       	call   9260 <fibril_mutex_unlock>
    131e:	85 f6                	test   %esi,%esi
    1320:	74 5e                	je     1380 <print_and_emit_event+0xe0>
    1322:	89 34 24             	mov    %esi,(%esp)
    1325:	e8 d6 41 01 00       	call   15500 <async_exchange_begin>
    132a:	89 c6                	mov    %eax,%esi
    132c:	85 c0                	test   %eax,%eax
    132e:	74 41                	je     1371 <print_and_emit_event+0xd1>
    1330:	a1 c0 1b 02 00       	mov    0x21bc0,%eax
    1335:	8b 15 c4 1b 02 00    	mov    0x21bc4,%edx
    133b:	83 7b 04 02          	cmpl   $0x2,0x4(%ebx)
    133f:	74 47                	je     1388 <print_and_emit_event+0xe8>
    1341:	89 54 24 14          	mov    %edx,0x14(%esp)
    1345:	89 44 24 10          	mov    %eax,0x10(%esp)
    1349:	8b 43 0c             	mov    0xc(%ebx),%eax
    134c:	89 44 24 0c          	mov    %eax,0xc(%esp)
    1350:	8b 43 08             	mov    0x8(%ebx),%eax
    1353:	c7 44 24 04 01 04 00 	movl   $0x401,0x4(%esp)
    135a:	00 
    135b:	89 44 24 08          	mov    %eax,0x8(%esp)
    135f:	89 34 24             	mov    %esi,(%esp)
    1362:	e8 d9 36 01 00       	call   14a40 <async_msg_4>
    1367:	8b 03                	mov    (%ebx),%eax
    1369:	8d 50 ff             	lea    -0x1(%eax),%edx
    136c:	83 fa 01             	cmp    $0x1,%edx
    136f:	76 27                	jbe    1398 <print_and_emit_event+0xf8>
    1371:	89 75 08             	mov    %esi,0x8(%ebp)
    1374:	83 c4 20             	add    $0x20,%esp
    1377:	5b                   	pop    %ebx
    1378:	5e                   	pop    %esi
    1379:	5d                   	pop    %ebp
    137a:	e9 f1 44 01 00       	jmp    15870 <async_exchange_end>
    137f:	90                   	nop
    1380:	83 c4 20             	add    $0x20,%esp
    1383:	5b                   	pop    %ebx
    1384:	5e                   	pop    %esi
    1385:	5d                   	pop    %ebp
    1386:	c3                   	ret    
    1387:	90                   	nop
    1388:	a1 dc 1b 02 00       	mov    0x21bdc,%eax
    138d:	8b 15 e0 1b 02 00    	mov    0x21be0,%edx
    1393:	eb ac                	jmp    1341 <print_and_emit_event+0xa1>
    1395:	8d 76 00             	lea    0x0(%esi),%esi
    1398:	48                   	dec    %eax
    1399:	0f 94 c0             	sete   %al
    139c:	25 ff 00 00 00       	and    $0xff,%eax
    13a1:	89 44 24 0c          	mov    %eax,0xc(%esp)
    13a5:	8b 43 14             	mov    0x14(%ebx),%eax
    13a8:	c7 44 24 04 02 04 00 	movl   $0x402,0x4(%esp)
    13af:	00 
    13b0:	89 44 24 08          	mov    %eax,0x8(%esp)
    13b4:	89 34 24             	mov    %esi,(%esp)
    13b7:	e8 c4 35 01 00       	call   14980 <async_msg_2>
    13bc:	eb b3                	jmp    1371 <print_and_emit_event+0xd1>
    13be:	66 90                	xchg   %ax,%ax

000013c0 <main>:
    13c0:	55                   	push   %ebp
    13c1:	89 e5                	mov    %esp,%ebp
    13c3:	57                   	push   %edi
    13c4:	56                   	push   %esi
    13c5:	53                   	push   %ebx
    13c6:	83 e4 f0             	and    $0xfffffff0,%esp
    13c9:	83 ec 60             	sub    $0x60,%esp
    13cc:	8b 5d 0c             	mov    0xc(%ebp),%ebx
    13cf:	c7 44 24 50 00 00 00 	movl   $0x0,0x50(%esp)
    13d6:	00 
    13d7:	83 7d 08 01          	cmpl   $0x1,0x8(%ebp)
    13db:	0f 8e 5c 01 00 00    	jle    153d <main+0x17d>
    13e1:	c7 44 24 04 d8 eb 01 	movl   $0x1ebd8,0x4(%esp)
    13e8:	00 
    13e9:	8b 43 04             	mov    0x4(%ebx),%eax
    13ec:	89 04 24             	mov    %eax,(%esp)
    13ef:	e8 dc 54 00 00       	call   68d0 <str_test_prefix>
    13f4:	84 c0                	test   %al,%al
    13f6:	0f 85 e4 01 00 00    	jne    15e0 <main+0x220>
    13fc:	be 02 00 00 00       	mov    $0x2,%esi
    1401:	ba 01 00 00 00       	mov    $0x1,%edx
    1406:	bf 00 96 00 00       	mov    $0x9600,%edi
    140b:	c7 44 24 04 15 ec 01 	movl   $0x1ec15,0x4(%esp)
    1412:	00 
    1413:	8b 04 93             	mov    (%ebx,%edx,4),%eax
    1416:	89 54 24 38          	mov    %edx,0x38(%esp)
    141a:	89 04 24             	mov    %eax,(%esp)
    141d:	e8 2e 50 00 00       	call   6450 <str_cmp>
    1422:	8b 54 24 38          	mov    0x38(%esp),%edx
    1426:	85 c0                	test   %eax,%eax
    1428:	0f 84 f9 01 00 00    	je     1627 <main+0x267>
    142e:	89 d6                	mov    %edx,%esi
    1430:	c7 44 24 3c d0 11 00 	movl   $0x11d0,0x3c(%esp)
    1437:	00 
    1438:	8d 1c b3             	lea    (%ebx,%esi,4),%ebx
    143b:	8d 54 24 4c          	lea    0x4c(%esp),%edx
    143f:	8b 03                	mov    (%ebx),%eax
    1441:	c7 44 24 08 00 00 00 	movl   $0x0,0x8(%esp)
    1448:	00 
    1449:	89 54 24 04          	mov    %edx,0x4(%esp)
    144d:	89 04 24             	mov    %eax,(%esp)
    1450:	89 44 24 50          	mov    %eax,0x50(%esp)
    1454:	e8 f7 22 00 00       	call   3750 <loc_service_get_id>
    1459:	85 c0                	test   %eax,%eax
    145b:	0f 85 1a 02 00 00    	jne    167b <main+0x2bb>
    1461:	46                   	inc    %esi
    1462:	39 75 08             	cmp    %esi,0x8(%ebp)
    1465:	0f 8f ec 01 00 00    	jg     1657 <main+0x297>
    146b:	c7 04 24 a0 1b 02 00 	movl   $0x21ba0,(%esp)
    1472:	e8 a9 7c 00 00       	call   9120 <fibril_mutex_initialize>
    1477:	8b 44 24 50          	mov    0x50(%esp),%eax
    147b:	89 44 24 04          	mov    %eax,0x4(%esp)
    147f:	c7 04 24 74 ee 01 00 	movl   $0x1ee74,(%esp)
    1486:	e8 e5 bc 00 00       	call   d170 <printf>
    148b:	8b 44 24 4c          	mov    0x4c(%esp),%eax
    148f:	c7 44 24 08 01 00 00 	movl   $0x1,0x8(%esp)
    1496:	00 
    1497:	89 44 24 04          	mov    %eax,0x4(%esp)
    149b:	c7 04 24 02 00 00 00 	movl   $0x2,(%esp)
    14a2:	e8 99 2b 00 00       	call   4040 <loc_service_connect>
    14a7:	89 c3                	mov    %eax,%ebx
    14a9:	85 c0                	test   %eax,%eax
    14ab:	0f 84 fc 02 00 00    	je     17ad <main+0x3ed>
    14b1:	89 1c 24             	mov    %ebx,(%esp)
    14b4:	e8 47 40 01 00       	call   15500 <async_exchange_begin>
    14b9:	89 7c 24 08          	mov    %edi,0x8(%esp)
    14bd:	c7 44 24 28 00 00 00 	movl   $0x0,0x28(%esp)
    14c4:	00 
    14c5:	c7 44 24 24 00 00 00 	movl   $0x0,0x24(%esp)
    14cc:	00 
    14cd:	c7 44 24 20 00 00 00 	movl   $0x0,0x20(%esp)
    14d4:	00 
    14d5:	c7 44 24 1c 00 00 00 	movl   $0x0,0x1c(%esp)
    14dc:	00 
    14dd:	c7 44 24 18 00 00 00 	movl   $0x0,0x18(%esp)
    14e4:	00 
    14e5:	c7 44 24 14 01 00 00 	movl   $0x1,0x14(%esp)
    14ec:	00 
    14ed:	c7 44 24 10 08 00 00 	movl   $0x8,0x10(%esp)
    14f4:	00 
    14f5:	c7 44 24 0c 00 00 00 	movl   $0x0,0xc(%esp)
    14fc:	00 
    14fd:	c7 44 24 04 0c 04 00 	movl   $0x40c,0x4(%esp)
    1504:	00 
    1505:	89 04 24             	mov    %eax,(%esp)
    1508:	89 c6                	mov    %eax,%esi
    150a:	e8 a1 2f 01 00       	call   144b0 <async_req_fast>
    150f:	89 34 24             	mov    %esi,(%esp)
    1512:	89 c7                	mov    %eax,%edi
    1514:	e8 57 43 01 00       	call   15870 <async_exchange_end>
    1519:	85 ff                	test   %edi,%edi
    151b:	0f 84 b6 01 00 00    	je     16d7 <main+0x317>
    1521:	a1 2c 1c 02 00       	mov    0x21c2c,%eax
    1526:	c7 44 24 04 98 ee 01 	movl   $0x1ee98,0x4(%esp)
    152d:	00 
    152e:	89 04 24             	mov    %eax,(%esp)
    1531:	bb 02 00 00 00       	mov    $0x2,%ebx
    1536:	e8 05 bc 00 00       	call   d140 <fprintf>
    153b:	eb 47                	jmp    1584 <main+0x1c4>
    153d:	bf 00 96 00 00       	mov    $0x9600,%edi
    1542:	c7 44 24 3c d0 11 00 	movl   $0x11d0,0x3c(%esp)
    1549:	00 
    154a:	8d 44 24 54          	lea    0x54(%esp),%eax
    154e:	c7 44 24 08 00 00 00 	movl   $0x0,0x8(%esp)
    1555:	00 
    1556:	89 44 24 04          	mov    %eax,0x4(%esp)
    155a:	c7 04 24 24 ec 01 00 	movl   $0x1ec24,(%esp)
    1561:	e8 0a 27 00 00       	call   3c70 <loc_category_get_id>
    1566:	85 c0                	test   %eax,%eax
    1568:	74 24                	je     158e <main+0x1ce>
    156a:	a1 2c 1c 02 00       	mov    0x21c2c,%eax
    156f:	c7 44 24 04 dc ed 01 	movl   $0x1eddc,0x4(%esp)
    1576:	00 
    1577:	89 04 24             	mov    %eax,(%esp)
    157a:	e8 c1 bb 00 00       	call   d140 <fprintf>
    157f:	bb 01 00 00 00       	mov    $0x1,%ebx
    1584:	8d 65 f4             	lea    -0xc(%ebp),%esp
    1587:	89 d8                	mov    %ebx,%eax
    1589:	5b                   	pop    %ebx
    158a:	5e                   	pop    %esi
    158b:	5f                   	pop    %edi
    158c:	5d                   	pop    %ebp
    158d:	c3                   	ret    
    158e:	8d 44 24 5c          	lea    0x5c(%esp),%eax
    1592:	89 44 24 08          	mov    %eax,0x8(%esp)
    1596:	8d 44 24 58          	lea    0x58(%esp),%eax
    159a:	89 44 24 04          	mov    %eax,0x4(%esp)
    159e:	8b 44 24 54          	mov    0x54(%esp),%eax
    15a2:	89 04 24             	mov    %eax,(%esp)
    15a5:	e8 b6 37 00 00       	call   4d60 <loc_category_get_svcs>
    15aa:	85 c0                	test   %eax,%eax
    15ac:	0f 85 8b 00 00 00    	jne    163d <main+0x27d>
    15b2:	83 7c 24 5c 00       	cmpl   $0x0,0x5c(%esp)
    15b7:	0f 85 de 00 00 00    	jne    169b <main+0x2db>
    15bd:	a1 2c 1c 02 00       	mov    0x21c2c,%eax
    15c2:	c7 44 24 04 28 ee 01 	movl   $0x1ee28,0x4(%esp)
    15c9:	00 
    15ca:	89 04 24             	mov    %eax,(%esp)
    15cd:	e8 6e bb 00 00       	call   d140 <fprintf>
    15d2:	8b 44 24 58          	mov    0x58(%esp),%eax
    15d6:	89 04 24             	mov    %eax,(%esp)
    15d9:	e8 f2 0a 01 00       	call   120d0 <free>
    15de:	eb 9f                	jmp    157f <main+0x1bf>
    15e0:	c7 44 24 04 07 00 00 	movl   $0x7,0x4(%esp)
    15e7:	00 
    15e8:	8b 43 04             	mov    0x4(%ebx),%eax
    15eb:	89 04 24             	mov    %eax,(%esp)
    15ee:	e8 6d 49 00 00       	call   5f60 <str_lsize>
    15f3:	8b 73 04             	mov    0x4(%ebx),%esi
    15f6:	01 c6                	add    %eax,%esi
    15f8:	89 34 24             	mov    %esi,(%esp)
    15fb:	e8 00 4b 00 00       	call   6100 <str_length>
    1600:	85 c0                	test   %eax,%eax
    1602:	0f 85 0a 01 00 00    	jne    1712 <main+0x352>
    1608:	a1 2c 1c 02 00       	mov    0x21c2c,%eax
    160d:	c7 44 24 04 e0 eb 01 	movl   $0x1ebe0,0x4(%esp)
    1614:	00 
    1615:	89 04 24             	mov    %eax,(%esp)
    1618:	e8 23 bb 00 00       	call   d140 <fprintf>
    161d:	e8 9e fa ff ff       	call   10c0 <syntax_print>
    1622:	e9 58 ff ff ff       	jmp    157f <main+0x1bf>
    1627:	39 75 08             	cmp    %esi,0x8(%ebp)
    162a:	c7 44 24 3c a0 12 00 	movl   $0x12a0,0x3c(%esp)
    1631:	00 
    1632:	0f 8f 00 fe ff ff    	jg     1438 <main+0x78>
    1638:	e9 0d ff ff ff       	jmp    154a <main+0x18a>
    163d:	a1 2c 1c 02 00       	mov    0x21c2c,%eax
    1642:	c7 44 24 04 04 ee 01 	movl   $0x1ee04,0x4(%esp)
    1649:	00 
    164a:	89 04 24             	mov    %eax,(%esp)
    164d:	e8 ee ba 00 00       	call   d140 <fprintf>
    1652:	e9 28 ff ff ff       	jmp    157f <main+0x1bf>
    1657:	a1 2c 1c 02 00       	mov    0x21c2c,%eax
    165c:	c7 44 24 04 2b ec 01 	movl   $0x1ec2b,0x4(%esp)
    1663:	00 
    1664:	89 04 24             	mov    %eax,(%esp)
    1667:	bb 01 00 00 00       	mov    $0x1,%ebx
    166c:	e8 cf ba 00 00       	call   d140 <fprintf>
    1671:	e8 4a fa ff ff       	call   10c0 <syntax_print>
    1676:	e9 09 ff ff ff       	jmp    1584 <main+0x1c4>
    167b:	8b 03                	mov    (%ebx),%eax
    167d:	c7 44 24 04 bc ed 01 	movl   $0x1edbc,0x4(%esp)
    1684:	00 
    1685:	89 44 24 08          	mov    %eax,0x8(%esp)
    1689:	a1 2c 1c 02 00       	mov    0x21c2c,%eax
    168e:	89 04 24             	mov    %eax,(%esp)
    1691:	e8 aa ba 00 00       	call   d140 <fprintf>
    1696:	e9 e4 fe ff ff       	jmp    157f <main+0x1bf>
    169b:	8b 44 24 58          	mov    0x58(%esp),%eax
    169f:	8d 54 24 50          	lea    0x50(%esp),%edx
    16a3:	8b 00                	mov    (%eax),%eax
    16a5:	89 54 24 04          	mov    %edx,0x4(%esp)
    16a9:	89 04 24             	mov    %eax,(%esp)
    16ac:	89 44 24 4c          	mov    %eax,0x4c(%esp)
    16b0:	e8 1b 23 00 00       	call   39d0 <loc_service_get_name>
    16b5:	85 c0                	test   %eax,%eax
    16b7:	0f 84 91 00 00 00    	je     174e <main+0x38e>
    16bd:	a1 2c 1c 02 00       	mov    0x21c2c,%eax
    16c2:	c7 44 24 04 4c ee 01 	movl   $0x1ee4c,0x4(%esp)
    16c9:	00 
    16ca:	89 04 24             	mov    %eax,(%esp)
    16cd:	e8 6e ba 00 00       	call   d140 <fprintf>
    16d2:	e9 a8 fe ff ff       	jmp    157f <main+0x1bf>
    16d7:	8b 44 24 3c          	mov    0x3c(%esp),%eax
    16db:	89 5c 24 04          	mov    %ebx,0x4(%esp)
    16df:	89 44 24 08          	mov    %eax,0x8(%esp)
    16e3:	c7 04 24 c0 1b 02 00 	movl   $0x21bc0,(%esp)
    16ea:	e8 81 0a 00 00       	call   2170 <isdv4_init>
    16ef:	85 c0                	test   %eax,%eax
    16f1:	74 6c                	je     175f <main+0x39f>
    16f3:	a1 2c 1c 02 00       	mov    0x21c2c,%eax
    16f8:	c7 44 24 04 bc ee 01 	movl   $0x1eebc,0x4(%esp)
    16ff:	00 
    1700:	89 04 24             	mov    %eax,(%esp)
    1703:	bb 02 00 00 00       	mov    $0x2,%ebx
    1708:	e8 33 ba 00 00       	call   d140 <fprintf>
    170d:	e9 72 fe ff ff       	jmp    1584 <main+0x1c4>
    1712:	8d 44 24 58          	lea    0x58(%esp),%eax
    1716:	c7 44 24 08 0a 00 00 	movl   $0xa,0x8(%esp)
    171d:	00 
    171e:	89 44 24 04          	mov    %eax,0x4(%esp)
    1722:	89 34 24             	mov    %esi,(%esp)
    1725:	e8 56 67 00 00       	call   7e80 <strtol>
    172a:	8b 54 24 58          	mov    0x58(%esp),%edx
    172e:	80 3a 00             	cmpb   $0x0,(%edx)
    1731:	75 5b                	jne    178e <main+0x3ce>
    1733:	89 c7                	mov    %eax,%edi
    1735:	83 7d 08 02          	cmpl   $0x2,0x8(%ebp)
    1739:	0f 84 03 fe ff ff    	je     1542 <main+0x182>
    173f:	be 03 00 00 00       	mov    $0x3,%esi
    1744:	ba 02 00 00 00       	mov    $0x2,%edx
    1749:	e9 bd fc ff ff       	jmp    140b <main+0x4b>
    174e:	8b 44 24 58          	mov    0x58(%esp),%eax
    1752:	89 04 24             	mov    %eax,(%esp)
    1755:	e8 76 09 01 00       	call   120d0 <free>
    175a:	e9 0c fd ff ff       	jmp    146b <main+0xab>
    175f:	c7 04 24 c0 1b 02 00 	movl   $0x21bc0,(%esp)
    1766:	e8 65 0a 00 00       	call   21d0 <isdv4_init_tablet>
    176b:	85 c0                	test   %eax,%eax
    176d:	74 58                	je     17c7 <main+0x407>
    176f:	a1 2c 1c 02 00       	mov    0x21c2c,%eax
    1774:	c7 44 24 04 5d ec 01 	movl   $0x1ec5d,0x4(%esp)
    177b:	00 
    177c:	89 04 24             	mov    %eax,(%esp)
    177f:	bb 02 00 00 00       	mov    $0x2,%ebx
    1784:	e8 b7 b9 00 00       	call   d140 <fprintf>
    1789:	e9 f6 fd ff ff       	jmp    1584 <main+0x1c4>
    178e:	a1 2c 1c 02 00       	mov    0x21c2c,%eax
    1793:	c7 44 24 04 fd eb 01 	movl   $0x1ebfd,0x4(%esp)
    179a:	00 
    179b:	89 04 24             	mov    %eax,(%esp)
    179e:	e8 9d b9 00 00       	call   d140 <fprintf>
    17a3:	e8 18 f9 ff ff       	call   10c0 <syntax_print>
    17a8:	e9 d2 fd ff ff       	jmp    157f <main+0x1bf>
    17ad:	a1 2c 1c 02 00       	mov    0x21c2c,%eax
    17b2:	c7 44 24 04 3f ec 01 	movl   $0x1ec3f,0x4(%esp)
    17b9:	00 
    17ba:	89 04 24             	mov    %eax,(%esp)
    17bd:	e8 7e b9 00 00       	call   d140 <fprintf>
    17c2:	e9 ea fc ff ff       	jmp    14b1 <main+0xf1>
    17c7:	c7 04 24 78 ec 01 00 	movl   $0x1ec78,(%esp)
    17ce:	e8 9d b9 00 00       	call   d170 <printf>
    17d3:	a1 c8 1b 02 00       	mov    0x21bc8,%eax
    17d8:	89 44 24 0c          	mov    %eax,0xc(%esp)
    17dc:	a1 c4 1b 02 00       	mov    0x21bc4,%eax
    17e1:	89 44 24 08          	mov    %eax,0x8(%esp)
    17e5:	a1 c0 1b 02 00       	mov    0x21bc0,%eax
    17ea:	89 44 24 04          	mov    %eax,0x4(%esp)
    17ee:	c7 04 24 dc ee 01 00 	movl   $0x1eedc,(%esp)
    17f5:	e8 76 b9 00 00       	call   d170 <printf>
    17fa:	80 3d d4 1b 02 00 00 	cmpb   $0x0,0x21bd4
    1801:	0f 84 3a 01 00 00    	je     1941 <main+0x581>
    1807:	a1 d0 1b 02 00       	mov    0x21bd0,%eax
    180c:	c7 04 24 8d ec 01 00 	movl   $0x1ec8d,(%esp)
    1813:	89 44 24 08          	mov    %eax,0x8(%esp)
    1817:	a1 cc 1b 02 00       	mov    0x21bcc,%eax
    181c:	89 44 24 04          	mov    %eax,0x4(%esp)
    1820:	e8 4b b9 00 00       	call   d170 <printf>
    1825:	8b 15 d8 1b 02 00    	mov    0x21bd8,%edx
    182b:	b8 d0 eb 01 00       	mov    $0x1ebd0,%eax
    1830:	83 fa 05             	cmp    $0x5,%edx
    1833:	77 07                	ja     183c <main+0x47c>
    1835:	8b 04 95 e8 ef 01 00 	mov    0x1efe8(,%edx,4),%eax
    183c:	89 44 24 0c          	mov    %eax,0xc(%esp)
    1840:	a1 e0 1b 02 00       	mov    0x21be0,%eax
    1845:	89 44 24 08          	mov    %eax,0x8(%esp)
    1849:	a1 dc 1b 02 00       	mov    0x21bdc,%eax
    184e:	89 44 24 04          	mov    %eax,0x4(%esp)
    1852:	c7 04 24 a3 ec 01 00 	movl   $0x1eca3,(%esp)
    1859:	e8 12 b9 00 00       	call   d170 <printf>
    185e:	c7 44 24 04 00 00 00 	movl   $0x0,0x4(%esp)
    1865:	00 
    1866:	c7 04 24 80 11 00 00 	movl   $0x1180,(%esp)
    186d:	e8 ee 73 00 00       	call   8c60 <fibril_create>
    1872:	89 04 24             	mov    %eax,(%esp)
    1875:	e8 26 75 00 00       	call   8da0 <fibril_add_ready>
    187a:	c7 04 24 f0 10 00 00 	movl   $0x10f0,(%esp)
    1881:	e8 2a 1a 01 00       	call   132b0 <async_set_client_connection>
    1886:	c7 04 24 92 eb 01 00 	movl   $0x1eb92,(%esp)
    188d:	e8 6e 17 00 00       	call   3000 <loc_server_register>
    1892:	89 c3                	mov    %eax,%ebx
    1894:	85 c0                	test   %eax,%eax
    1896:	0f 85 b6 00 00 00    	jne    1952 <main+0x592>
    189c:	8b 44 24 4c          	mov    0x4c(%esp),%eax
    18a0:	c7 44 24 04 bb ec 01 	movl   $0x1ecbb,0x4(%esp)
    18a7:	00 
    18a8:	89 44 24 08          	mov    %eax,0x8(%esp)
    18ac:	8d 44 24 58          	lea    0x58(%esp),%eax
    18b0:	89 04 24             	mov    %eax,(%esp)
    18b3:	e8 78 93 00 00       	call   ac30 <asprintf>
    18b8:	89 c3                	mov    %eax,%ebx
    18ba:	85 c0                	test   %eax,%eax
    18bc:	0f 88 ef 00 00 00    	js     19b1 <main+0x5f1>
    18c2:	8d 44 24 54          	lea    0x54(%esp),%eax
    18c6:	89 44 24 04          	mov    %eax,0x4(%esp)
    18ca:	8b 44 24 58          	mov    0x58(%esp),%eax
    18ce:	89 04 24             	mov    %eax,(%esp)
    18d1:	e8 3a 1b 00 00       	call   3410 <loc_service_register>
    18d6:	89 c3                	mov    %eax,%ebx
    18d8:	85 c0                	test   %eax,%eax
    18da:	0f 85 8b 00 00 00    	jne    196b <main+0x5ab>
    18e0:	8d 44 24 5c          	lea    0x5c(%esp),%eax
    18e4:	c7 44 24 08 01 00 00 	movl   $0x1,0x8(%esp)
    18eb:	00 
    18ec:	89 44 24 04          	mov    %eax,0x4(%esp)
    18f0:	c7 04 24 ca ec 01 00 	movl   $0x1ecca,(%esp)
    18f7:	e8 74 23 00 00       	call   3c70 <loc_category_get_id>
    18fc:	85 c0                	test   %eax,%eax
    18fe:	0f 84 80 00 00 00    	je     1984 <main+0x5c4>
    1904:	c7 04 24 80 ef 01 00 	movl   $0x1ef80,(%esp)
    190b:	e8 60 b8 00 00       	call   d170 <printf>
    1910:	c7 44 24 04 92 eb 01 	movl   $0x1eb92,0x4(%esp)
    1917:	00 
    1918:	c7 04 24 d0 ec 01 00 	movl   $0x1ecd0,(%esp)
    191f:	e8 4c b8 00 00       	call   d170 <printf>
    1924:	c7 04 24 00 00 00 00 	movl   $0x0,(%esp)
    192b:	e8 60 91 00 00       	call   aa90 <task_retval>
    1930:	c7 04 24 01 00 00 00 	movl   $0x1,(%esp)
    1937:	e8 34 70 00 00       	call   8970 <fibril_switch>
    193c:	e9 43 fc ff ff       	jmp    1584 <main+0x1c4>
    1941:	c7 04 24 94 ec 01 00 	movl   $0x1ec94,(%esp)
    1948:	e8 23 b8 00 00       	call   d170 <printf>
    194d:	e9 d3 fe ff ff       	jmp    1825 <main+0x465>
    1952:	c7 44 24 04 92 eb 01 	movl   $0x1eb92,0x4(%esp)
    1959:	00 
    195a:	c7 04 24 00 ef 01 00 	movl   $0x1ef00,(%esp)
    1961:	e8 0a b8 00 00       	call   d170 <printf>
    1966:	e9 19 fc ff ff       	jmp    1584 <main+0x1c4>
    196b:	8b 44 24 58          	mov    0x58(%esp),%eax
    196f:	c7 04 24 50 ef 01 00 	movl   $0x1ef50,(%esp)
    1976:	89 44 24 04          	mov    %eax,0x4(%esp)
    197a:	e8 f1 b7 00 00       	call   d170 <printf>
    197f:	e9 00 fc ff ff       	jmp    1584 <main+0x1c4>
    1984:	8b 44 24 5c          	mov    0x5c(%esp),%eax
    1988:	89 44 24 04          	mov    %eax,0x4(%esp)
    198c:	8b 44 24 54          	mov    0x54(%esp),%eax
    1990:	89 04 24             	mov    %eax,(%esp)
    1993:	e8 b8 29 00 00       	call   4350 <loc_service_add_to_cat>
    1998:	85 c0                	test   %eax,%eax
    199a:	0f 84 70 ff ff ff    	je     1910 <main+0x550>
    19a0:	c7 04 24 b0 ef 01 00 	movl   $0x1efb0,(%esp)
    19a7:	e8 c4 b7 00 00       	call   d170 <printf>
    19ac:	e9 5f ff ff ff       	jmp    1910 <main+0x550>
    19b1:	c7 04 24 20 ef 01 00 	movl   $0x1ef20,(%esp)
    19b8:	e8 b3 b7 00 00       	call   d170 <printf>
    19bd:	e9 c2 fb ff ff       	jmp    1584 <main+0x1c4>
    19c2:	66 90                	xchg   %ax,%ax
    19c4:	66 90                	xchg   %ax,%ax
    19c6:	66 90                	xchg   %ax,%ax
    19c8:	66 90                	xchg   %ax,%ax
    19ca:	66 90                	xchg   %ax,%ax
    19cc:	66 90                	xchg   %ax,%ax
    19ce:	66 90                	xchg   %ax,%ax

000019d0 <read_packets>:
    19d0:	55                   	push   %ebp
    19d1:	89 e5                	mov    %esp,%ebp
    19d3:	57                   	push   %edi
    19d4:	56                   	push   %esi
    19d5:	53                   	push   %ebx
    19d6:	83 ec 2c             	sub    $0x2c,%esp
    19d9:	89 c7                	mov    %eax,%edi
    19db:	89 55 d8             	mov    %edx,-0x28(%ebp)
    19de:	8b 58 38             	mov    0x38(%eax),%ebx
    19e1:	8b 47 34             	mov    0x34(%edi),%eax
    19e4:	29 d8                	sub    %ebx,%eax
    19e6:	89 44 24 08          	mov    %eax,0x8(%esp)
    19ea:	8b 47 30             	mov    0x30(%edi),%eax
    19ed:	01 c3                	add    %eax,%ebx
    19ef:	8b 47 2c             	mov    0x2c(%edi),%eax
    19f2:	89 5c 24 04          	mov    %ebx,0x4(%esp)
    19f6:	89 04 24             	mov    %eax,(%esp)
    19f9:	e8 82 0a 00 00       	call   2480 <char_dev_read>
    19fe:	85 c0                	test   %eax,%eax
    1a00:	0f 88 3e 01 00 00    	js     1b44 <read_packets+0x174>
    1a06:	8b 57 38             	mov    0x38(%edi),%edx
    1a09:	01 c2                	add    %eax,%edx
    1a0b:	89 55 e0             	mov    %edx,-0x20(%ebp)
    1a0e:	89 57 38             	mov    %edx,0x38(%edi)
    1a11:	85 d2                	test   %edx,%edx
    1a13:	0f 84 38 01 00 00    	je     1b51 <read_packets+0x181>
    1a19:	8b 4f 30             	mov    0x30(%edi),%ecx
    1a1c:	31 db                	xor    %ebx,%ebx
    1a1e:	80 39 00             	cmpb   $0x0,(%ecx)
    1a21:	79 0b                	jns    1a2e <read_packets+0x5e>
    1a23:	eb 5d                	jmp    1a82 <read_packets+0xb2>
    1a25:	8d 76 00             	lea    0x0(%esi),%esi
    1a28:	80 3c 19 00          	cmpb   $0x0,(%ecx,%ebx,1)
    1a2c:	78 50                	js     1a7e <read_packets+0xae>
    1a2e:	43                   	inc    %ebx
    1a2f:	39 d3                	cmp    %edx,%ebx
    1a31:	75 f5                	jne    1a28 <read_packets+0x58>
    1a33:	89 5d dc             	mov    %ebx,-0x24(%ebp)
    1a36:	be 01 00 00 00       	mov    $0x1,%esi
    1a3b:	8b 5d dc             	mov    -0x24(%ebp),%ebx
    1a3e:	85 db                	test   %ebx,%ebx
    1a40:	75 09                	jne    1a4b <read_packets+0x7b>
    1a42:	39 57 34             	cmp    %edx,0x34(%edi)
    1a45:	0f 84 eb 00 00 00    	je     1b36 <read_packets+0x166>
    1a4b:	89 d3                	mov    %edx,%ebx
    1a4d:	8b 45 dc             	mov    -0x24(%ebp),%eax
    1a50:	29 c3                	sub    %eax,%ebx
    1a52:	8b 45 dc             	mov    -0x24(%ebp),%eax
    1a55:	01 c8                	add    %ecx,%eax
    1a57:	89 5c 24 08          	mov    %ebx,0x8(%esp)
    1a5b:	89 44 24 04          	mov    %eax,0x4(%esp)
    1a5f:	89 0c 24             	mov    %ecx,(%esp)
    1a62:	e8 a9 36 00 00       	call   5110 <memcpy>
    1a67:	89 f2                	mov    %esi,%edx
    1a69:	89 5f 38             	mov    %ebx,0x38(%edi)
    1a6c:	84 d2                	test   %dl,%dl
    1a6e:	0f 85 6d ff ff ff    	jne    19e1 <read_packets+0x11>
    1a74:	83 c4 2c             	add    $0x2c,%esp
    1a77:	31 c0                	xor    %eax,%eax
    1a79:	5b                   	pop    %ebx
    1a7a:	5e                   	pop    %esi
    1a7b:	5f                   	pop    %edi
    1a7c:	5d                   	pop    %ebp
    1a7d:	c3                   	ret    
    1a7e:	39 da                	cmp    %ebx,%edx
    1a80:	76 b1                	jbe    1a33 <read_packets+0x63>
    1a82:	89 5d dc             	mov    %ebx,-0x24(%ebp)
    1a85:	89 5d e4             	mov    %ebx,-0x1c(%ebp)
    1a88:	0f b6 34 19          	movzbl (%ecx,%ebx,1),%esi
    1a8c:	b8 09 00 00 00       	mov    $0x9,%eax
    1a91:	f7 c6 40 00 00 00    	test   $0x40,%esi
    1a97:	75 0f                	jne    1aa8 <read_packets+0xd8>
    1a99:	89 f0                	mov    %esi,%eax
    1a9b:	83 e0 10             	and    $0x10,%eax
    1a9e:	3c 01                	cmp    $0x1,%al
    1aa0:	19 c0                	sbb    %eax,%eax
    1aa2:	83 e0 04             	and    $0x4,%eax
    1aa5:	83 c0 03             	add    $0x3,%eax
    1aa8:	8d 73 01             	lea    0x1(%ebx),%esi
    1aab:	39 d6                	cmp    %edx,%esi
    1aad:	73 73                	jae    1b22 <read_packets+0x152>
    1aaf:	80 3c 31 00          	cmpb   $0x0,(%ecx,%esi,1)
    1ab3:	78 6d                	js     1b22 <read_packets+0x152>
    1ab5:	83 c3 02             	add    $0x2,%ebx
    1ab8:	39 d3                	cmp    %edx,%ebx
    1aba:	74 24                	je     1ae0 <read_packets+0x110>
    1abc:	80 3c 19 00          	cmpb   $0x0,(%ecx,%ebx,1)
    1ac0:	78 1e                	js     1ae0 <read_packets+0x110>
    1ac2:	43                   	inc    %ebx
    1ac3:	48                   	dec    %eax
    1ac4:	75 f2                	jne    1ab8 <read_packets+0xe8>
    1ac6:	39 5d e4             	cmp    %ebx,-0x1c(%ebp)
    1ac9:	0f 92 c2             	setb   %dl
    1acc:	84 d2                	test   %dl,%dl
    1ace:	75 21                	jne    1af1 <read_packets+0x121>
    1ad0:	8b 55 e0             	mov    -0x20(%ebp),%edx
    1ad3:	39 da                	cmp    %ebx,%edx
    1ad5:	77 b1                	ja     1a88 <read_packets+0xb8>
    1ad7:	e9 5a ff ff ff       	jmp    1a36 <read_packets+0x66>
    1adc:	8d 74 26 00          	lea    0x0(%esi,%eiz,1),%esi
    1ae0:	39 5d e4             	cmp    %ebx,-0x1c(%ebp)
    1ae3:	0f 92 c2             	setb   %dl
    1ae6:	85 c0                	test   %eax,%eax
    1ae8:	0f 94 c0             	sete   %al
    1aeb:	21 c2                	and    %eax,%edx
    1aed:	84 d2                	test   %dl,%dl
    1aef:	74 df                	je     1ad0 <read_packets+0x100>
    1af1:	8b 75 e4             	mov    -0x1c(%ebp),%esi
    1af4:	89 d8                	mov    %ebx,%eax
    1af6:	29 f0                	sub    %esi,%eax
    1af8:	89 7c 24 08          	mov    %edi,0x8(%esp)
    1afc:	89 44 24 04          	mov    %eax,0x4(%esp)
    1b00:	8b 45 e4             	mov    -0x1c(%ebp),%eax
    1b03:	01 c1                	add    %eax,%ecx
    1b05:	8b 55 d8             	mov    -0x28(%ebp),%edx
    1b08:	89 0c 24             	mov    %ecx,(%esp)
    1b0b:	ff d2                	call   *%edx
    1b0d:	84 c0                	test   %al,%al
    1b0f:	74 15                	je     1b26 <read_packets+0x156>
    1b11:	8b 47 38             	mov    0x38(%edi),%eax
    1b14:	89 5d dc             	mov    %ebx,-0x24(%ebp)
    1b17:	89 5d e4             	mov    %ebx,-0x1c(%ebp)
    1b1a:	89 45 e0             	mov    %eax,-0x20(%ebp)
    1b1d:	8b 4f 30             	mov    0x30(%edi),%ecx
    1b20:	eb ae                	jmp    1ad0 <read_packets+0x100>
    1b22:	89 f3                	mov    %esi,%ebx
    1b24:	eb aa                	jmp    1ad0 <read_packets+0x100>
    1b26:	89 c6                	mov    %eax,%esi
    1b28:	8b 57 38             	mov    0x38(%edi),%edx
    1b2b:	89 5d dc             	mov    %ebx,-0x24(%ebp)
    1b2e:	8b 4f 30             	mov    0x30(%edi),%ecx
    1b31:	e9 05 ff ff ff       	jmp    1a3b <read_packets+0x6b>
    1b36:	c7 47 38 00 00 00 00 	movl   $0x0,0x38(%edi)
    1b3d:	31 d2                	xor    %edx,%edx
    1b3f:	e9 07 ff ff ff       	jmp    1a4b <read_packets+0x7b>
    1b44:	83 c4 2c             	add    $0x2c,%esp
    1b47:	b8 f7 fe ff ff       	mov    $0xfffffef7,%eax
    1b4c:	5b                   	pop    %ebx
    1b4d:	5e                   	pop    %esi
    1b4e:	5f                   	pop    %edi
    1b4f:	5d                   	pop    %ebp
    1b50:	c3                   	ret    
    1b51:	31 db                	xor    %ebx,%ebx
    1b53:	8b 4f 30             	mov    0x30(%edi),%ecx
    1b56:	e9 d8 fe ff ff       	jmp    1a33 <read_packets+0x63>
    1b5b:	90                   	nop
    1b5c:	8d 74 26 00          	lea    0x0(%esi,%eiz,1),%esi

00001b60 <parse_response_stylus>:
    1b60:	55                   	push   %ebp
    1b61:	31 c0                	xor    %eax,%eax
    1b63:	89 e5                	mov    %esp,%ebp
    1b65:	53                   	push   %ebx
    1b66:	8b 4d 0c             	mov    0xc(%ebp),%ecx
    1b69:	8b 55 08             	mov    0x8(%ebp),%edx
    1b6c:	8b 5d 10             	mov    0x10(%ebp),%ebx
    1b6f:	85 c9                	test   %ecx,%ecx
    1b71:	74 0e                	je     1b81 <parse_response_stylus+0x21>
    1b73:	f6 02 40             	testb  $0x40,(%edx)
    1b76:	0f 84 84 00 00 00    	je     1c00 <parse_response_stylus+0xa0>
    1b7c:	83 f9 0b             	cmp    $0xb,%ecx
    1b7f:	74 07                	je     1b88 <parse_response_stylus+0x28>
    1b81:	5b                   	pop    %ebx
    1b82:	5d                   	pop    %ebp
    1b83:	c3                   	ret    
    1b84:	8d 74 26 00          	lea    0x0(%esi,%eiz,1),%esi
    1b88:	8a 42 01             	mov    0x1(%edx),%al
    1b8b:	8a 4a 06             	mov    0x6(%edx),%cl
    1b8e:	c0 e9 05             	shr    $0x5,%cl
    1b91:	83 e0 7f             	and    $0x7f,%eax
    1b94:	c1 e0 07             	shl    $0x7,%eax
    1b97:	83 e1 03             	and    $0x3,%ecx
    1b9a:	09 c8                	or     %ecx,%eax
    1b9c:	8a 4a 02             	mov    0x2(%edx),%cl
    1b9f:	83 e1 7c             	and    $0x7c,%ecx
    1ba2:	09 c8                	or     %ecx,%eax
    1ba4:	89 03                	mov    %eax,(%ebx)
    1ba6:	8a 42 03             	mov    0x3(%edx),%al
    1ba9:	8a 4a 06             	mov    0x6(%edx),%cl
    1bac:	c0 e9 03             	shr    $0x3,%cl
    1baf:	83 e0 7f             	and    $0x7f,%eax
    1bb2:	c1 e0 07             	shl    $0x7,%eax
    1bb5:	83 e1 03             	and    $0x3,%ecx
    1bb8:	09 c8                	or     %ecx,%eax
    1bba:	8a 4a 04             	mov    0x4(%edx),%cl
    1bbd:	83 e1 7c             	and    $0x7c,%ecx
    1bc0:	09 c8                	or     %ecx,%eax
    1bc2:	89 43 04             	mov    %eax,0x4(%ebx)
    1bc5:	8a 42 06             	mov    0x6(%edx),%al
    1bc8:	8a 4a 05             	mov    0x5(%edx),%cl
    1bcb:	83 e0 07             	and    $0x7,%eax
    1bce:	83 e1 3f             	and    $0x3f,%ecx
    1bd1:	c1 e0 07             	shl    $0x7,%eax
    1bd4:	09 c8                	or     %ecx,%eax
    1bd6:	89 43 08             	mov    %eax,0x8(%ebx)
    1bd9:	8a 42 08             	mov    0x8(%edx),%al
    1bdc:	83 e0 7f             	and    $0x7f,%eax
    1bdf:	89 43 0c             	mov    %eax,0xc(%ebx)
    1be2:	8a 4a 07             	mov    0x7(%edx),%cl
    1be5:	31 d2                	xor    %edx,%edx
    1be7:	83 e1 7f             	and    $0x7f,%ecx
    1bea:	85 c0                	test   %eax,%eax
    1bec:	89 4b 10             	mov    %ecx,0x10(%ebx)
    1bef:	74 05                	je     1bf6 <parse_response_stylus+0x96>
    1bf1:	85 c9                	test   %ecx,%ecx
    1bf3:	0f 95 c2             	setne  %dl
    1bf6:	88 53 14             	mov    %dl,0x14(%ebx)
    1bf9:	31 c0                	xor    %eax,%eax
    1bfb:	5b                   	pop    %ebx
    1bfc:	5d                   	pop    %ebp
    1bfd:	c3                   	ret    
    1bfe:	66 90                	xchg   %ax,%ax
    1c00:	b0 01                	mov    $0x1,%al
    1c02:	5b                   	pop    %ebx
    1c03:	5d                   	pop    %ebp
    1c04:	c3                   	ret    
    1c05:	8d 74 26 00          	lea    0x0(%esi,%eiz,1),%esi
    1c09:	8d bc 27 00 00 00 00 	lea    0x0(%edi,%eiz,1),%edi

00001c10 <parse_response_touch>:
    1c10:	55                   	push   %ebp
    1c11:	31 c0                	xor    %eax,%eax
    1c13:	89 e5                	mov    %esp,%ebp
    1c15:	57                   	push   %edi
    1c16:	56                   	push   %esi
    1c17:	53                   	push   %ebx
    1c18:	8b 4d 0c             	mov    0xc(%ebp),%ecx
    1c1b:	8b 55 08             	mov    0x8(%ebp),%edx
    1c1e:	85 c9                	test   %ecx,%ecx
    1c20:	74 11                	je     1c33 <parse_response_touch+0x23>
    1c22:	8a 02                	mov    (%edx),%al
    1c24:	a8 40                	test   $0x40,%al
    1c26:	0f 84 8c 00 00 00    	je     1cb8 <parse_response_touch+0xa8>
    1c2c:	83 f9 0b             	cmp    $0xb,%ecx
    1c2f:	74 07                	je     1c38 <parse_response_touch+0x28>
    1c31:	31 c0                	xor    %eax,%eax
    1c33:	5b                   	pop    %ebx
    1c34:	5e                   	pop    %esi
    1c35:	5f                   	pop    %edi
    1c36:	5d                   	pop    %ebp
    1c37:	c3                   	ret    
    1c38:	8b 4d 10             	mov    0x10(%ebp),%ecx
    1c3b:	83 e0 3f             	and    $0x3f,%eax
    1c3e:	89 41 18             	mov    %eax,0x18(%ecx)
    1c41:	8a 42 02             	mov    0x2(%edx),%al
    1c44:	8a 5a 03             	mov    0x3(%edx),%bl
    1c47:	c0 e8 05             	shr    $0x5,%al
    1c4a:	83 e3 7f             	and    $0x7f,%ebx
    1c4d:	c1 e3 07             	shl    $0x7,%ebx
    1c50:	83 e0 03             	and    $0x3,%eax
    1c53:	09 d8                	or     %ebx,%eax
    1c55:	8a 5a 04             	mov    0x4(%edx),%bl
    1c58:	83 e3 7c             	and    $0x7c,%ebx
    1c5b:	09 d8                	or     %ebx,%eax
    1c5d:	0f b6 7a 01          	movzbl 0x1(%edx),%edi
    1c61:	89 41 1c             	mov    %eax,0x1c(%ecx)
    1c64:	8a 4a 05             	mov    0x5(%edx),%cl
    1c67:	8a 5a 02             	mov    0x2(%edx),%bl
    1c6a:	83 e1 7f             	and    $0x7f,%ecx
    1c6d:	8a 52 06             	mov    0x6(%edx),%dl
    1c70:	c0 eb 03             	shr    $0x3,%bl
    1c73:	89 ce                	mov    %ecx,%esi
    1c75:	83 e3 03             	and    $0x3,%ebx
    1c78:	83 e2 7c             	and    $0x7c,%edx
    1c7b:	c1 e6 07             	shl    $0x7,%esi
    1c7e:	89 f9                	mov    %edi,%ecx
    1c80:	09 f3                	or     %esi,%ebx
    1c82:	09 d3                	or     %edx,%ebx
    1c84:	8b 55 10             	mov    0x10(%ebp),%edx
    1c87:	83 e1 7f             	and    $0x7f,%ecx
    1c8a:	89 5a 20             	mov    %ebx,0x20(%edx)
    1c8d:	75 05                	jne    1c94 <parse_response_touch+0x84>
    1c8f:	b9 0a 00 00 00       	mov    $0xa,%ecx
    1c94:	85 c0                	test   %eax,%eax
    1c96:	74 04                	je     1c9c <parse_response_touch+0x8c>
    1c98:	85 db                	test   %ebx,%ebx
    1c9a:	75 95                	jne    1c31 <parse_response_touch+0x21>
    1c9c:	b8 01 00 00 00       	mov    $0x1,%eax
    1ca1:	d3 e0                	shl    %cl,%eax
    1ca3:	8b 4d 10             	mov    0x10(%ebp),%ecx
    1ca6:	89 41 1c             	mov    %eax,0x1c(%ecx)
    1ca9:	89 41 20             	mov    %eax,0x20(%ecx)
    1cac:	31 c0                	xor    %eax,%eax
    1cae:	e9 80 ff ff ff       	jmp    1c33 <parse_response_touch+0x23>
    1cb3:	90                   	nop
    1cb4:	8d 74 26 00          	lea    0x0(%esi,%eiz,1),%esi
    1cb8:	5b                   	pop    %ebx
    1cb9:	b0 01                	mov    $0x1,%al
    1cbb:	5e                   	pop    %esi
    1cbc:	5f                   	pop    %edi
    1cbd:	5d                   	pop    %ebp
    1cbe:	c3                   	ret    
    1cbf:	90                   	nop

00001cc0 <parse_event>:
    1cc0:	55                   	push   %ebp
    1cc1:	31 c0                	xor    %eax,%eax
    1cc3:	89 e5                	mov    %esp,%ebp
    1cc5:	57                   	push   %edi
    1cc6:	56                   	push   %esi
    1cc7:	53                   	push   %ebx
    1cc8:	83 ec 4c             	sub    $0x4c,%esp
    1ccb:	8b 5d 0c             	mov    0xc(%ebp),%ebx
    1cce:	8b 75 08             	mov    0x8(%ebp),%esi
    1cd1:	85 db                	test   %ebx,%ebx
    1cd3:	74 07                	je     1cdc <parse_event+0x1c>
    1cd5:	b0 01                	mov    $0x1,%al
    1cd7:	f6 06 40             	testb  $0x40,(%esi)
    1cda:	74 0c                	je     1ce8 <parse_event+0x28>
    1cdc:	83 c4 4c             	add    $0x4c,%esp
    1cdf:	5b                   	pop    %ebx
    1ce0:	5e                   	pop    %esi
    1ce1:	5f                   	pop    %edi
    1ce2:	5d                   	pop    %ebp
    1ce3:	c3                   	ret    
    1ce4:	8d 74 26 00          	lea    0x0(%esi,%eiz,1),%esi
    1ce8:	8d 7d d0             	lea    -0x30(%ebp),%edi
    1ceb:	c7 44 24 08 18 00 00 	movl   $0x18,0x8(%esp)
    1cf2:	00 
    1cf3:	c7 44 24 04 00 00 00 	movl   $0x0,0x4(%esp)
    1cfa:	00 
    1cfb:	89 3c 24             	mov    %edi,(%esp)
    1cfe:	e8 8d 32 00 00       	call   4f90 <memset>
    1d03:	8a 06                	mov    (%esi),%al
    1d05:	a8 10                	test   $0x10,%al
    1d07:	74 17                	je     1d20 <parse_event+0x60>
    1d09:	83 fb 05             	cmp    $0x5,%ebx
    1d0c:	0f 84 0e 01 00 00    	je     1e20 <parse_event+0x160>
    1d12:	b0 01                	mov    $0x1,%al
    1d14:	83 c4 4c             	add    $0x4c,%esp
    1d17:	5b                   	pop    %ebx
    1d18:	5e                   	pop    %esi
    1d19:	5f                   	pop    %edi
    1d1a:	5d                   	pop    %ebp
    1d1b:	c3                   	ret    
    1d1c:	8d 74 26 00          	lea    0x0(%esi,%eiz,1),%esi
    1d20:	83 fb 09             	cmp    $0x9,%ebx
    1d23:	75 ed                	jne    1d12 <parse_event+0x52>
    1d25:	88 c2                	mov    %al,%dl
    1d27:	8a 4e 06             	mov    0x6(%esi),%cl
    1d2a:	83 e2 01             	and    $0x1,%edx
    1d2d:	88 c3                	mov    %al,%bl
    1d2f:	c0 e9 05             	shr    $0x5,%cl
    1d32:	88 55 c7             	mov    %dl,-0x39(%ebp)
    1d35:	8a 56 01             	mov    0x1(%esi),%dl
    1d38:	83 e1 03             	and    $0x3,%ecx
    1d3b:	c0 eb 02             	shr    $0x2,%bl
    1d3e:	83 e2 7f             	and    $0x7f,%edx
    1d41:	c1 e2 07             	shl    $0x7,%edx
    1d44:	83 e3 01             	and    $0x1,%ebx
    1d47:	09 ca                	or     %ecx,%edx
    1d49:	8a 4e 02             	mov    0x2(%esi),%cl
    1d4c:	83 e1 7c             	and    $0x7c,%ecx
    1d4f:	09 ca                	or     %ecx,%edx
    1d51:	8a 4e 06             	mov    0x6(%esi),%cl
    1d54:	c0 e9 03             	shr    $0x3,%cl
    1d57:	89 55 d8             	mov    %edx,-0x28(%ebp)
    1d5a:	8a 56 03             	mov    0x3(%esi),%dl
    1d5d:	83 e1 03             	and    $0x3,%ecx
    1d60:	83 e2 7f             	and    $0x7f,%edx
    1d63:	c1 e2 07             	shl    $0x7,%edx
    1d66:	09 ca                	or     %ecx,%edx
    1d68:	8a 4e 04             	mov    0x4(%esi),%cl
    1d6b:	83 e1 7c             	and    $0x7c,%ecx
    1d6e:	09 ca                	or     %ecx,%edx
    1d70:	8a 4e 05             	mov    0x5(%esi),%cl
    1d73:	89 55 dc             	mov    %edx,-0x24(%ebp)
    1d76:	8a 56 06             	mov    0x6(%esi),%dl
    1d79:	83 e2 07             	and    $0x7,%edx
    1d7c:	83 e1 7f             	and    $0x7f,%ecx
    1d7f:	c1 e2 07             	shl    $0x7,%edx
    1d82:	09 ca                	or     %ecx,%edx
    1d84:	a8 20                	test   $0x20,%al
    1d86:	89 55 e0             	mov    %edx,-0x20(%ebp)
    1d89:	0f 85 01 01 00 00    	jne    1e90 <parse_event+0x1d0>
    1d8f:	8b 55 10             	mov    0x10(%ebp),%edx
    1d92:	80 7a 24 00          	cmpb   $0x0,0x24(%edx)
    1d96:	0f 85 ac 02 00 00    	jne    2048 <parse_event+0x388>
    1d9c:	8b 55 10             	mov    0x10(%ebp),%edx
    1d9f:	80 7a 25 00          	cmpb   $0x0,0x25(%edx)
    1da3:	0f 85 94 01 00 00    	jne    1f3d <parse_event+0x27d>
    1da9:	80 7d c7 00          	cmpb   $0x0,-0x39(%ebp)
    1dad:	0f 84 bb 02 00 00    	je     206e <parse_event+0x3ae>
    1db3:	80 7d c7 00          	cmpb   $0x0,-0x39(%ebp)
    1db7:	0f 85 54 02 00 00    	jne    2011 <parse_event+0x351>
    1dbd:	8b 4d 10             	mov    0x10(%ebp),%ecx
    1dc0:	80 79 26 00          	cmpb   $0x0,0x26(%ecx)
    1dc4:	0f 85 52 03 00 00    	jne    211c <parse_event+0x45c>
    1dca:	a8 02                	test   $0x2,%al
    1dcc:	0f 85 0e 02 00 00    	jne    1fe0 <parse_event+0x320>
    1dd2:	8b 55 10             	mov    0x10(%ebp),%edx
    1dd5:	80 7a 27 00          	cmpb   $0x0,0x27(%edx)
    1dd9:	0f 85 19 03 00 00    	jne    20f8 <parse_event+0x438>
    1ddf:	84 db                	test   %bl,%bl
    1de1:	0f 84 97 01 00 00    	je     1f7e <parse_event+0x2be>
    1de7:	8b 4d 10             	mov    0x10(%ebp),%ecx
    1dea:	80 79 28 00          	cmpb   $0x0,0x28(%ecx)
    1dee:	0f 84 bc 02 00 00    	je     20b0 <parse_event+0x3f0>
    1df4:	8b 55 10             	mov    0x10(%ebp),%edx
    1df7:	c7 45 d0 05 00 00 00 	movl   $0x5,-0x30(%ebp)
    1dfe:	c7 45 d4 00 00 00 00 	movl   $0x0,-0x2c(%ebp)
    1e05:	c7 45 e4 00 00 00 00 	movl   $0x0,-0x1c(%ebp)
    1e0c:	89 3c 24             	mov    %edi,(%esp)
    1e0f:	ff 52 3c             	call   *0x3c(%edx)
    1e12:	b0 01                	mov    $0x1,%al
    1e14:	e9 fb fe ff ff       	jmp    1d14 <parse_event+0x54>
    1e19:	8d b4 26 00 00 00 00 	lea    0x0(%esi,%eiz,1),%esi
    1e20:	8a 56 01             	mov    0x1(%esi),%dl
    1e23:	8a 4e 02             	mov    0x2(%esi),%cl
    1e26:	83 e2 7f             	and    $0x7f,%edx
    1e29:	83 e1 7f             	and    $0x7f,%ecx
    1e2c:	c1 e2 07             	shl    $0x7,%edx
    1e2f:	c7 45 d4 02 00 00 00 	movl   $0x2,-0x2c(%ebp)
    1e36:	09 ca                	or     %ecx,%edx
    1e38:	8a 4e 04             	mov    0x4(%esi),%cl
    1e3b:	89 55 d8             	mov    %edx,-0x28(%ebp)
    1e3e:	8a 56 03             	mov    0x3(%esi),%dl
    1e41:	83 e2 7f             	and    $0x7f,%edx
    1e44:	83 e1 7f             	and    $0x7f,%ecx
    1e47:	c1 e2 07             	shl    $0x7,%edx
    1e4a:	09 ca                	or     %ecx,%edx
    1e4c:	89 55 dc             	mov    %edx,-0x24(%ebp)
    1e4f:	8b 55 10             	mov    0x10(%ebp),%edx
    1e52:	80 7a 24 00          	cmpb   $0x0,0x24(%edx)
    1e56:	0f 85 b6 fe ff ff    	jne    1d12 <parse_event+0x52>
    1e5c:	a8 01                	test   $0x1,%al
    1e5e:	0f 85 ad 00 00 00    	jne    1f11 <parse_event+0x251>
    1e64:	80 7a 29 00          	cmpb   $0x0,0x29(%edx)
    1e68:	0f 85 d8 02 00 00    	jne    2146 <parse_event+0x486>
    1e6e:	8b 45 10             	mov    0x10(%ebp),%eax
    1e71:	c7 45 d0 05 00 00 00 	movl   $0x5,-0x30(%ebp)
    1e78:	c7 45 e4 01 00 00 00 	movl   $0x1,-0x1c(%ebp)
    1e7f:	89 3c 24             	mov    %edi,(%esp)
    1e82:	ff 50 3c             	call   *0x3c(%eax)
    1e85:	b0 01                	mov    $0x1,%al
    1e87:	e9 88 fe ff ff       	jmp    1d14 <parse_event+0x54>
    1e8c:	8d 74 26 00          	lea    0x0(%esi,%eiz,1),%esi
    1e90:	8b 4d 10             	mov    0x10(%ebp),%ecx
    1e93:	80 79 24 00          	cmpb   $0x0,0x24(%ecx)
    1e97:	0f 85 ff fe ff ff    	jne    1d9c <parse_event+0xdc>
    1e9d:	8a 55 c7             	mov    -0x39(%ebp),%dl
    1ea0:	c6 41 24 01          	movb   $0x1,0x24(%ecx)
    1ea4:	83 f2 01             	xor    $0x1,%edx
    1ea7:	c7 45 d0 03 00 00 00 	movl   $0x3,-0x30(%ebp)
    1eae:	21 da                	and    %ebx,%edx
    1eb0:	88 51 25             	mov    %dl,0x25(%ecx)
    1eb3:	81 e2 ff 00 00 00    	and    $0xff,%edx
    1eb9:	88 45 c0             	mov    %al,-0x40(%ebp)
    1ebc:	89 55 d4             	mov    %edx,-0x2c(%ebp)
    1ebf:	89 3c 24             	mov    %edi,(%esp)
    1ec2:	ff 51 3c             	call   *0x3c(%ecx)
    1ec5:	8a 45 c0             	mov    -0x40(%ebp),%al
    1ec8:	8b 4d 10             	mov    0x10(%ebp),%ecx
    1ecb:	80 79 25 00          	cmpb   $0x0,0x25(%ecx)
    1ecf:	0f 84 de fe ff ff    	je     1db3 <parse_event+0xf3>
    1ed5:	80 7d c7 00          	cmpb   $0x0,-0x39(%ebp)
    1ed9:	0f 85 d0 00 00 00    	jne    1faf <parse_event+0x2ef>
    1edf:	8b 45 10             	mov    0x10(%ebp),%eax
    1ee2:	80 78 26 00          	cmpb   $0x0,0x26(%eax)
    1ee6:	0f 85 e8 01 00 00    	jne    20d4 <parse_event+0x414>
    1eec:	8b 55 10             	mov    0x10(%ebp),%edx
    1eef:	c7 45 d0 05 00 00 00 	movl   $0x5,-0x30(%ebp)
    1ef6:	c7 45 d4 01 00 00 00 	movl   $0x1,-0x2c(%ebp)
    1efd:	c7 45 e4 00 00 00 00 	movl   $0x0,-0x1c(%ebp)
    1f04:	89 3c 24             	mov    %edi,(%esp)
    1f07:	ff 52 3c             	call   *0x3c(%edx)
    1f0a:	b0 01                	mov    $0x1,%al
    1f0c:	e9 03 fe ff ff       	jmp    1d14 <parse_event+0x54>
    1f11:	8b 4d 10             	mov    0x10(%ebp),%ecx
    1f14:	80 79 29 00          	cmpb   $0x0,0x29(%ecx)
    1f18:	0f 85 50 ff ff ff    	jne    1e6e <parse_event+0x1ae>
    1f1e:	c6 41 29 01          	movb   $0x1,0x29(%ecx)
    1f22:	c7 45 d0 01 00 00 00 	movl   $0x1,-0x30(%ebp)
    1f29:	c7 45 e4 01 00 00 00 	movl   $0x1,-0x1c(%ebp)
    1f30:	89 3c 24             	mov    %edi,(%esp)
    1f33:	ff 51 3c             	call   *0x3c(%ecx)
    1f36:	b0 01                	mov    $0x1,%al
    1f38:	e9 d7 fd ff ff       	jmp    1d14 <parse_event+0x54>
    1f3d:	84 db                	test   %bl,%bl
    1f3f:	75 94                	jne    1ed5 <parse_event+0x215>
    1f41:	88 45 c0             	mov    %al,-0x40(%ebp)
    1f44:	c7 45 d0 04 00 00 00 	movl   $0x4,-0x30(%ebp)
    1f4b:	c7 45 d4 01 00 00 00 	movl   $0x1,-0x2c(%ebp)
    1f52:	89 3c 24             	mov    %edi,(%esp)
    1f55:	ff 52 3c             	call   *0x3c(%edx)
    1f58:	8b 4d 10             	mov    0x10(%ebp),%ecx
    1f5b:	c7 45 d0 03 00 00 00 	movl   $0x3,-0x30(%ebp)
    1f62:	c7 45 d4 00 00 00 00 	movl   $0x0,-0x2c(%ebp)
    1f69:	89 3c 24             	mov    %edi,(%esp)
    1f6c:	ff 51 3c             	call   *0x3c(%ecx)
    1f6f:	8b 55 10             	mov    0x10(%ebp),%edx
    1f72:	8a 45 c0             	mov    -0x40(%ebp),%al
    1f75:	c6 42 25 00          	movb   $0x0,0x25(%edx)
    1f79:	e9 35 fe ff ff       	jmp    1db3 <parse_event+0xf3>
    1f7e:	8b 45 10             	mov    0x10(%ebp),%eax
    1f81:	80 78 28 00          	cmpb   $0x0,0x28(%eax)
    1f85:	0f 84 69 fe ff ff    	je     1df4 <parse_event+0x134>
    1f8b:	c6 40 28 00          	movb   $0x0,0x28(%eax)
    1f8f:	c7 45 d0 02 00 00 00 	movl   $0x2,-0x30(%ebp)
    1f96:	c7 45 d4 00 00 00 00 	movl   $0x0,-0x2c(%ebp)
    1f9d:	c7 45 e4 03 00 00 00 	movl   $0x3,-0x1c(%ebp)
    1fa4:	89 3c 24             	mov    %edi,(%esp)
    1fa7:	ff 50 3c             	call   *0x3c(%eax)
    1faa:	e9 45 fe ff ff       	jmp    1df4 <parse_event+0x134>
    1faf:	8b 4d 10             	mov    0x10(%ebp),%ecx
    1fb2:	80 79 26 00          	cmpb   $0x0,0x26(%ecx)
    1fb6:	0f 85 30 ff ff ff    	jne    1eec <parse_event+0x22c>
    1fbc:	c6 41 26 01          	movb   $0x1,0x26(%ecx)
    1fc0:	c7 45 d0 01 00 00 00 	movl   $0x1,-0x30(%ebp)
    1fc7:	c7 45 d4 01 00 00 00 	movl   $0x1,-0x2c(%ebp)
    1fce:	c7 45 e4 01 00 00 00 	movl   $0x1,-0x1c(%ebp)
    1fd5:	89 3c 24             	mov    %edi,(%esp)
    1fd8:	ff 51 3c             	call   *0x3c(%ecx)
    1fdb:	e9 0c ff ff ff       	jmp    1eec <parse_event+0x22c>
    1fe0:	8b 45 10             	mov    0x10(%ebp),%eax
    1fe3:	80 78 27 00          	cmpb   $0x0,0x27(%eax)
    1fe7:	0f 85 f2 fd ff ff    	jne    1ddf <parse_event+0x11f>
    1fed:	c6 40 27 01          	movb   $0x1,0x27(%eax)
    1ff1:	c7 45 d0 01 00 00 00 	movl   $0x1,-0x30(%ebp)
    1ff8:	c7 45 d4 00 00 00 00 	movl   $0x0,-0x2c(%ebp)
    1fff:	c7 45 e4 02 00 00 00 	movl   $0x2,-0x1c(%ebp)
    2006:	89 3c 24             	mov    %edi,(%esp)
    2009:	ff 50 3c             	call   *0x3c(%eax)
    200c:	e9 ce fd ff ff       	jmp    1ddf <parse_event+0x11f>
    2011:	8b 55 10             	mov    0x10(%ebp),%edx
    2014:	80 7a 26 00          	cmpb   $0x0,0x26(%edx)
    2018:	0f 85 ac fd ff ff    	jne    1dca <parse_event+0x10a>
    201e:	c6 42 26 01          	movb   $0x1,0x26(%edx)
    2022:	c7 45 d0 01 00 00 00 	movl   $0x1,-0x30(%ebp)
    2029:	88 45 c0             	mov    %al,-0x40(%ebp)
    202c:	c7 45 d4 00 00 00 00 	movl   $0x0,-0x2c(%ebp)
    2033:	c7 45 e4 01 00 00 00 	movl   $0x1,-0x1c(%ebp)
    203a:	89 3c 24             	mov    %edi,(%esp)
    203d:	ff 52 3c             	call   *0x3c(%edx)
    2040:	8a 45 c0             	mov    -0x40(%ebp),%al
    2043:	e9 82 fd ff ff       	jmp    1dca <parse_event+0x10a>
    2048:	89 d1                	mov    %edx,%ecx
    204a:	c6 42 24 00          	movb   $0x0,0x24(%edx)
    204e:	31 d2                	xor    %edx,%edx
    2050:	c7 45 d0 04 00 00 00 	movl   $0x4,-0x30(%ebp)
    2057:	8a 51 25             	mov    0x25(%ecx),%dl
    205a:	88 45 c0             	mov    %al,-0x40(%ebp)
    205d:	89 55 d4             	mov    %edx,-0x2c(%ebp)
    2060:	89 3c 24             	mov    %edi,(%esp)
    2063:	ff 51 3c             	call   *0x3c(%ecx)
    2066:	8a 45 c0             	mov    -0x40(%ebp),%al
    2069:	e9 5a fe ff ff       	jmp    1ec8 <parse_event+0x208>
    206e:	84 db                	test   %bl,%bl
    2070:	0f 84 3d fd ff ff    	je     1db3 <parse_event+0xf3>
    2076:	8b 4d 10             	mov    0x10(%ebp),%ecx
    2079:	c7 45 d0 04 00 00 00 	movl   $0x4,-0x30(%ebp)
    2080:	c7 45 d4 00 00 00 00 	movl   $0x0,-0x2c(%ebp)
    2087:	89 3c 24             	mov    %edi,(%esp)
    208a:	ff 51 3c             	call   *0x3c(%ecx)
    208d:	8b 45 10             	mov    0x10(%ebp),%eax
    2090:	c7 45 d0 03 00 00 00 	movl   $0x3,-0x30(%ebp)
    2097:	c7 45 d4 01 00 00 00 	movl   $0x1,-0x2c(%ebp)
    209e:	89 3c 24             	mov    %edi,(%esp)
    20a1:	ff 50 3c             	call   *0x3c(%eax)
    20a4:	8b 55 10             	mov    0x10(%ebp),%edx
    20a7:	c6 42 25 01          	movb   $0x1,0x25(%edx)
    20ab:	e9 25 fe ff ff       	jmp    1ed5 <parse_event+0x215>
    20b0:	c6 41 28 01          	movb   $0x1,0x28(%ecx)
    20b4:	c7 45 d0 01 00 00 00 	movl   $0x1,-0x30(%ebp)
    20bb:	c7 45 d4 00 00 00 00 	movl   $0x0,-0x2c(%ebp)
    20c2:	c7 45 e4 03 00 00 00 	movl   $0x3,-0x1c(%ebp)
    20c9:	89 3c 24             	mov    %edi,(%esp)
    20cc:	ff 51 3c             	call   *0x3c(%ecx)
    20cf:	e9 20 fd ff ff       	jmp    1df4 <parse_event+0x134>
    20d4:	c6 40 26 00          	movb   $0x0,0x26(%eax)
    20d8:	c7 45 d0 02 00 00 00 	movl   $0x2,-0x30(%ebp)
    20df:	c7 45 d4 01 00 00 00 	movl   $0x1,-0x2c(%ebp)
    20e6:	c7 45 e4 01 00 00 00 	movl   $0x1,-0x1c(%ebp)
    20ed:	89 3c 24             	mov    %edi,(%esp)
    20f0:	ff 50 3c             	call   *0x3c(%eax)
    20f3:	e9 f4 fd ff ff       	jmp    1eec <parse_event+0x22c>
    20f8:	c6 42 27 00          	movb   $0x0,0x27(%edx)
    20fc:	c7 45 d0 02 00 00 00 	movl   $0x2,-0x30(%ebp)
    2103:	c7 45 d4 00 00 00 00 	movl   $0x0,-0x2c(%ebp)
    210a:	c7 45 e4 02 00 00 00 	movl   $0x2,-0x1c(%ebp)
    2111:	89 3c 24             	mov    %edi,(%esp)
    2114:	ff 52 3c             	call   *0x3c(%edx)
    2117:	e9 c3 fc ff ff       	jmp    1ddf <parse_event+0x11f>
    211c:	c6 41 26 00          	movb   $0x0,0x26(%ecx)
    2120:	c7 45 d0 02 00 00 00 	movl   $0x2,-0x30(%ebp)
    2127:	88 45 c0             	mov    %al,-0x40(%ebp)
    212a:	c7 45 d4 00 00 00 00 	movl   $0x0,-0x2c(%ebp)
    2131:	c7 45 e4 01 00 00 00 	movl   $0x1,-0x1c(%ebp)
    2138:	89 3c 24             	mov    %edi,(%esp)
    213b:	ff 51 3c             	call   *0x3c(%ecx)
    213e:	8a 45 c0             	mov    -0x40(%ebp),%al
    2141:	e9 84 fc ff ff       	jmp    1dca <parse_event+0x10a>
    2146:	c6 42 29 00          	movb   $0x0,0x29(%edx)
    214a:	c7 45 d0 02 00 00 00 	movl   $0x2,-0x30(%ebp)
    2151:	c7 45 e4 01 00 00 00 	movl   $0x1,-0x1c(%ebp)
    2158:	89 3c 24             	mov    %edi,(%esp)
    215b:	ff 52 3c             	call   *0x3c(%edx)
    215e:	b0 01                	mov    $0x1,%al
    2160:	e9 af fb ff ff       	jmp    1d14 <parse_event+0x54>
    2165:	8d 74 26 00          	lea    0x0(%esi,%eiz,1),%esi
    2169:	8d bc 27 00 00 00 00 	lea    0x0(%edi,%eiz,1),%edi

00002170 <isdv4_init>:
    2170:	55                   	push   %ebp
    2171:	89 e5                	mov    %esp,%ebp
    2173:	53                   	push   %ebx
    2174:	83 ec 14             	sub    $0x14,%esp
    2177:	8b 5d 08             	mov    0x8(%ebp),%ebx
    217a:	c7 44 24 08 40 00 00 	movl   $0x40,0x8(%esp)
    2181:	00 
    2182:	c7 44 24 04 00 00 00 	movl   $0x0,0x4(%esp)
    2189:	00 
    218a:	89 1c 24             	mov    %ebx,(%esp)
    218d:	e8 fe 2d 00 00       	call   4f90 <memset>
    2192:	8b 45 0c             	mov    0xc(%ebp),%eax
    2195:	89 43 2c             	mov    %eax,0x2c(%ebx)
    2198:	c7 04 24 40 00 00 00 	movl   $0x40,(%esp)
    219f:	e8 1c fe 00 00       	call   11fc0 <malloc>
    21a4:	89 43 30             	mov    %eax,0x30(%ebx)
    21a7:	85 c0                	test   %eax,%eax
    21a9:	74 15                	je     21c0 <isdv4_init+0x50>
    21ab:	8b 45 10             	mov    0x10(%ebp),%eax
    21ae:	c7 43 34 40 00 00 00 	movl   $0x40,0x34(%ebx)
    21b5:	89 43 3c             	mov    %eax,0x3c(%ebx)
    21b8:	31 c0                	xor    %eax,%eax
    21ba:	83 c4 14             	add    $0x14,%esp
    21bd:	5b                   	pop    %ebx
    21be:	5d                   	pop    %ebp
    21bf:	c3                   	ret    
    21c0:	b8 fe ff ff ff       	mov    $0xfffffffe,%eax
    21c5:	eb f3                	jmp    21ba <isdv4_init+0x4a>
    21c7:	89 f6                	mov    %esi,%esi
    21c9:	8d bc 27 00 00 00 00 	lea    0x0(%edi,%eiz,1),%edi

000021d0 <isdv4_init_tablet>:
    21d0:	55                   	push   %ebp
    21d1:	89 e5                	mov    %esp,%ebp
    21d3:	56                   	push   %esi
    21d4:	53                   	push   %ebx
    21d5:	83 ec 20             	sub    $0x20,%esp
    21d8:	8d 55 f4             	lea    -0xc(%ebp),%edx
    21db:	8b 5d 08             	mov    0x8(%ebp),%ebx
    21de:	c6 45 f4 30          	movb   $0x30,-0xc(%ebp)
    21e2:	8b 43 2c             	mov    0x2c(%ebx),%eax
    21e5:	c7 44 24 08 01 00 00 	movl   $0x1,0x8(%esp)
    21ec:	00 
    21ed:	89 54 24 04          	mov    %edx,0x4(%esp)
    21f1:	89 04 24             	mov    %eax,(%esp)
    21f4:	e8 57 03 00 00       	call   2550 <char_dev_write>
    21f9:	48                   	dec    %eax
    21fa:	0f 85 a0 00 00 00    	jne    22a0 <isdv4_init_tablet+0xd0>
    2200:	c7 04 24 90 d0 03 00 	movl   $0x3d090,(%esp)
    2207:	e8 14 71 01 00       	call   19320 <usleep>
    220c:	8b 43 2c             	mov    0x2c(%ebx),%eax
    220f:	8d 55 f5             	lea    -0xb(%ebp),%edx
    2212:	c7 44 24 08 01 00 00 	movl   $0x1,0x8(%esp)
    2219:	00 
    221a:	89 54 24 04          	mov    %edx,0x4(%esp)
    221e:	89 04 24             	mov    %eax,(%esp)
    2221:	c6 45 f5 2a          	movb   $0x2a,-0xb(%ebp)
    2225:	e8 26 03 00 00       	call   2550 <char_dev_write>
    222a:	48                   	dec    %eax
    222b:	75 73                	jne    22a0 <isdv4_init_tablet+0xd0>
    222d:	ba 60 1b 00 00       	mov    $0x1b60,%edx
    2232:	89 d8                	mov    %ebx,%eax
    2234:	e8 97 f7 ff ff       	call   19d0 <read_packets>
    2239:	89 c6                	mov    %eax,%esi
    223b:	85 c0                	test   %eax,%eax
    223d:	74 09                	je     2248 <isdv4_init_tablet+0x78>
    223f:	83 c4 20             	add    $0x20,%esp
    2242:	89 f0                	mov    %esi,%eax
    2244:	5b                   	pop    %ebx
    2245:	5e                   	pop    %esi
    2246:	5d                   	pop    %ebp
    2247:	c3                   	ret    
    2248:	8b 43 2c             	mov    0x2c(%ebx),%eax
    224b:	8d 55 f6             	lea    -0xa(%ebp),%edx
    224e:	c7 44 24 08 01 00 00 	movl   $0x1,0x8(%esp)
    2255:	00 
    2256:	89 54 24 04          	mov    %edx,0x4(%esp)
    225a:	89 04 24             	mov    %eax,(%esp)
    225d:	c6 45 f6 25          	movb   $0x25,-0xa(%ebp)
    2261:	e8 ea 02 00 00       	call   2550 <char_dev_write>
    2266:	48                   	dec    %eax
    2267:	75 37                	jne    22a0 <isdv4_init_tablet+0xd0>
    2269:	ba 10 1c 00 00       	mov    $0x1c10,%edx
    226e:	89 d8                	mov    %ebx,%eax
    2270:	e8 5b f7 ff ff       	call   19d0 <read_packets>
    2275:	89 c6                	mov    %eax,%esi
    2277:	85 c0                	test   %eax,%eax
    2279:	75 c4                	jne    223f <isdv4_init_tablet+0x6f>
    227b:	8b 43 2c             	mov    0x2c(%ebx),%eax
    227e:	8d 55 f7             	lea    -0x9(%ebp),%edx
    2281:	c7 44 24 08 01 00 00 	movl   $0x1,0x8(%esp)
    2288:	00 
    2289:	89 54 24 04          	mov    %edx,0x4(%esp)
    228d:	89 04 24             	mov    %eax,(%esp)
    2290:	c6 45 f7 31          	movb   $0x31,-0x9(%ebp)
    2294:	e8 b7 02 00 00       	call   2550 <char_dev_write>
    2299:	48                   	dec    %eax
    229a:	74 a3                	je     223f <isdv4_init_tablet+0x6f>
    229c:	8d 74 26 00          	lea    0x0(%esi,%eiz,1),%esi
    22a0:	83 c4 20             	add    $0x20,%esp
    22a3:	be f7 fe ff ff       	mov    $0xfffffef7,%esi
    22a8:	89 f0                	mov    %esi,%eax
    22aa:	5b                   	pop    %ebx
    22ab:	5e                   	pop    %esi
    22ac:	5d                   	pop    %ebp
    22ad:	c3                   	ret    
    22ae:	66 90                	xchg   %ax,%ax

000022b0 <isdv4_read_events>:
    22b0:	55                   	push   %ebp
    22b1:	ba c0 1c 00 00       	mov    $0x1cc0,%edx
    22b6:	89 e5                	mov    %esp,%ebp
    22b8:	8b 45 08             	mov    0x8(%ebp),%eax
    22bb:	5d                   	pop    %ebp
    22bc:	e9 0f f7 ff ff       	jmp    19d0 <read_packets>
    22c1:	eb 0d                	jmp    22d0 <isdv4_fini>
    22c3:	90                   	nop
    22c4:	90                   	nop
    22c5:	90                   	nop
    22c6:	90                   	nop
    22c7:	90                   	nop
    22c8:	90                   	nop
    22c9:	90                   	nop
    22ca:	90                   	nop
    22cb:	90                   	nop
    22cc:	90                   	nop
    22cd:	90                   	nop
    22ce:	90                   	nop
    22cf:	90                   	nop

000022d0 <isdv4_fini>:
    22d0:	55                   	push   %ebp
    22d1:	89 e5                	mov    %esp,%ebp
    22d3:	8b 45 08             	mov    0x8(%ebp),%eax
    22d6:	8b 40 30             	mov    0x30(%eax),%eax
    22d9:	89 45 08             	mov    %eax,0x8(%ebp)
    22dc:	5d                   	pop    %ebp
    22dd:	e9 ee fd 00 00       	jmp    120d0 <free>
    22e2:	66 90                	xchg   %ax,%ax
    22e4:	66 90                	xchg   %ax,%ax
    22e6:	66 90                	xchg   %ax,%ax
    22e8:	66 90                	xchg   %ax,%ax
    22ea:	66 90                	xchg   %ax,%ax
    22ec:	66 90                	xchg   %ax,%ax
    22ee:	66 90                	xchg   %ax,%ax

000022f0 <exit>:
    22f0:	55                   	push   %ebp
    22f1:	89 e5                	mov    %esp,%ebp
    22f3:	83 ec 28             	sub    $0x28,%esp
    22f6:	80 3d 04 1c 02 00 00 	cmpb   $0x0,0x21c04
    22fd:	75 3f                	jne    233e <exit+0x4e>
    22ff:	c7 44 24 18 0a 00 00 	movl   $0xa,0x18(%esp)
    2306:	00 
    2307:	c7 44 24 14 00 00 00 	movl   $0x0,0x14(%esp)
    230e:	00 
    230f:	c7 44 24 10 00 00 00 	movl   $0x0,0x10(%esp)
    2316:	00 
    2317:	c7 44 24 0c 00 00 00 	movl   $0x0,0xc(%esp)
    231e:	00 
    231f:	c7 44 24 08 00 00 00 	movl   $0x0,0x8(%esp)
    2326:	00 
    2327:	c7 44 24 04 00 00 00 	movl   $0x0,0x4(%esp)
    232e:	00 
    232f:	c7 04 24 00 00 00 00 	movl   $0x0,(%esp)
    2336:	ff 15 34 1b 02 00    	call   *0x21b34
    233c:	eb fe                	jmp    233c <exit+0x4c>
    233e:	e8 cd 8c 00 00       	call   b010 <__stdio_done>
    2343:	8b 45 08             	mov    0x8(%ebp),%eax
    2346:	89 04 24             	mov    %eax,(%esp)
    2349:	e8 42 87 00 00       	call   aa90 <task_retval>
    234e:	65 a1 00 00 00 00    	mov    %gs:0x0,%eax
    2354:	8b 40 04             	mov    0x4(%eax),%eax
    2357:	89 04 24             	mov    %eax,(%esp)
    235a:	e8 21 65 00 00       	call   8880 <fibril_teardown>
    235f:	eb 9e                	jmp    22ff <exit+0xf>
    2361:	eb 0d                	jmp    2370 <abort>
    2363:	90                   	nop
    2364:	90                   	nop
    2365:	90                   	nop
    2366:	90                   	nop
    2367:	90                   	nop
    2368:	90                   	nop
    2369:	90                   	nop
    236a:	90                   	nop
    236b:	90                   	nop
    236c:	90                   	nop
    236d:	90                   	nop
    236e:	90                   	nop
    236f:	90                   	nop

00002370 <abort>:
    2370:	55                   	push   %ebp
    2371:	89 e5                	mov    %esp,%ebp
    2373:	83 ec 28             	sub    $0x28,%esp
    2376:	c7 44 24 18 0a 00 00 	movl   $0xa,0x18(%esp)
    237d:	00 
    237e:	c7 44 24 14 00 00 00 	movl   $0x0,0x14(%esp)
    2385:	00 
    2386:	c7 44 24 10 00 00 00 	movl   $0x0,0x10(%esp)
    238d:	00 
    238e:	c7 44 24 0c 00 00 00 	movl   $0x0,0xc(%esp)
    2395:	00 
    2396:	c7 44 24 08 00 00 00 	movl   $0x0,0x8(%esp)
    239d:	00 
    239e:	c7 44 24 04 00 00 00 	movl   $0x0,0x4(%esp)
    23a5:	00 
    23a6:	c7 04 24 01 00 00 00 	movl   $0x1,(%esp)
    23ad:	ff 15 34 1b 02 00    	call   *0x21b34
    23b3:	eb fe                	jmp    23b3 <abort+0x43>
    23b5:	8d 74 26 00          	lea    0x0(%esi,%eiz,1),%esi
    23b9:	8d bc 27 00 00 00 00 	lea    0x0(%edi,%eiz,1),%edi

000023c0 <__main>:
    23c0:	55                   	push   %ebp
    23c1:	89 e5                	mov    %esp,%ebp
    23c3:	57                   	push   %edi
    23c4:	56                   	push   %esi
    23c5:	53                   	push   %ebx
    23c6:	83 ec 2c             	sub    $0x2c,%esp
    23c9:	8b 5d 08             	mov    0x8(%ebp),%ebx
    23cc:	e8 ef fa 00 00       	call   11ec0 <__malloc_init>
    23d1:	e8 fa 19 01 00       	call   13dd0 <__async_init>
    23d6:	e8 25 64 00 00       	call   8800 <fibril_setup>
    23db:	85 c0                	test   %eax,%eax
    23dd:	0f 84 82 00 00 00    	je     2465 <__main+0xa5>
    23e3:	c7 44 24 18 01 00 00 	movl   $0x1,0x18(%esp)
    23ea:	00 
    23eb:	c7 44 24 14 00 00 00 	movl   $0x0,0x14(%esp)
    23f2:	00 
    23f3:	c7 44 24 10 00 00 00 	movl   $0x0,0x10(%esp)
    23fa:	00 
    23fb:	c7 44 24 0c 00 00 00 	movl   $0x0,0xc(%esp)
    2402:	00 
    2403:	c7 44 24 08 00 00 00 	movl   $0x0,0x8(%esp)
    240a:	00 
    240b:	c7 44 24 04 00 00 00 	movl   $0x0,0x4(%esp)
    2412:	00 
    2413:	8b 40 30             	mov    0x30(%eax),%eax
    2416:	89 04 24             	mov    %eax,(%esp)
    2419:	ff 15 34 1b 02 00    	call   *0x21b34
    241f:	89 1d 80 1b 02 00    	mov    %ebx,0x21b80
    2425:	c6 05 04 1c 02 00 01 	movb   $0x1,0x21c04
    242c:	85 db                	test   %ebx,%ebx
    242e:	74 3a                	je     246a <__main+0xaa>
    2430:	8b 43 10             	mov    0x10(%ebx),%eax
    2433:	8b 73 08             	mov    0x8(%ebx),%esi
    2436:	8b 7b 0c             	mov    0xc(%ebx),%edi
    2439:	89 04 24             	mov    %eax,(%esp)
    243c:	e8 3f 89 00 00       	call   ad80 <__stdio_init>
    2441:	a1 80 1b 02 00       	mov    0x21b80,%eax
    2446:	8b 40 04             	mov    0x4(%eax),%eax
    2449:	89 04 24             	mov    %eax,(%esp)
    244c:	e8 df 96 01 00       	call   1bb30 <chdir>
    2451:	89 7c 24 04          	mov    %edi,0x4(%esp)
    2455:	89 34 24             	mov    %esi,(%esp)
    2458:	e8 63 ef ff ff       	call   13c0 <main>
    245d:	89 04 24             	mov    %eax,(%esp)
    2460:	e8 8b fe ff ff       	call   22f0 <exit>
    2465:	e8 06 ff ff ff       	call   2370 <abort>
    246a:	c7 04 24 00 00 00 00 	movl   $0x0,(%esp)
    2471:	31 ff                	xor    %edi,%edi
    2473:	e8 08 89 00 00       	call   ad80 <__stdio_init>
    2478:	31 f6                	xor    %esi,%esi
    247a:	eb d5                	jmp    2451 <__main+0x91>
    247c:	66 90                	xchg   %ax,%ax
    247e:	66 90                	xchg   %ax,%ax

00002480 <char_dev_read>:
    2480:	55                   	push   %ebp
    2481:	89 e5                	mov    %esp,%ebp
    2483:	57                   	push   %edi
    2484:	56                   	push   %esi
    2485:	53                   	push   %ebx
    2486:	83 ec 5c             	sub    $0x5c,%esp
    2489:	8b 45 08             	mov    0x8(%ebp),%eax
    248c:	89 04 24             	mov    %eax,(%esp)
    248f:	e8 6c 30 01 00       	call   15500 <async_exchange_begin>
    2494:	c7 44 24 14 00 00 00 	movl   $0x0,0x14(%esp)
    249b:	00 
    249c:	89 c6                	mov    %eax,%esi
    249e:	8d 45 c4             	lea    -0x3c(%ebp),%eax
    24a1:	89 44 24 18          	mov    %eax,0x18(%esp)
    24a5:	c7 44 24 10 00 00 00 	movl   $0x0,0x10(%esp)
    24ac:	00 
    24ad:	c7 44 24 0c 00 00 00 	movl   $0x0,0xc(%esp)
    24b4:	00 
    24b5:	c7 44 24 08 00 00 00 	movl   $0x0,0x8(%esp)
    24bc:	00 
    24bd:	c7 44 24 04 01 04 00 	movl   $0x401,0x4(%esp)
    24c4:	00 
    24c5:	89 34 24             	mov    %esi,(%esp)
    24c8:	e8 d3 19 01 00       	call   13ea0 <async_send_fast>
    24cd:	89 34 24             	mov    %esi,(%esp)
    24d0:	89 c7                	mov    %eax,%edi
    24d2:	8b 45 10             	mov    0x10(%ebp),%eax
    24d5:	89 44 24 08          	mov    %eax,0x8(%esp)
    24d9:	8b 45 0c             	mov    0xc(%ebp),%eax
    24dc:	89 44 24 04          	mov    %eax,0x4(%esp)
    24e0:	e8 eb 39 01 00       	call   15ed0 <async_data_read_start>
    24e5:	89 34 24             	mov    %esi,(%esp)
    24e8:	89 c3                	mov    %eax,%ebx
    24ea:	e8 81 33 01 00       	call   15870 <async_exchange_end>
    24ef:	8d 45 c0             	lea    -0x40(%ebp),%eax
    24f2:	89 3c 24             	mov    %edi,(%esp)
    24f5:	89 44 24 04          	mov    %eax,0x4(%esp)
    24f9:	85 db                	test   %ebx,%ebx
    24fb:	74 1b                	je     2518 <char_dev_read+0x98>
    24fd:	e8 6e 1b 01 00       	call   14070 <async_wait_for>
    2502:	8b 45 c0             	mov    -0x40(%ebp),%eax
    2505:	85 c0                	test   %eax,%eax
    2507:	75 2f                	jne    2538 <char_dev_read+0xb8>
    2509:	83 c4 5c             	add    $0x5c,%esp
    250c:	89 d8                	mov    %ebx,%eax
    250e:	5b                   	pop    %ebx
    250f:	5e                   	pop    %esi
    2510:	5f                   	pop    %edi
    2511:	5d                   	pop    %ebp
    2512:	c3                   	ret    
    2513:	90                   	nop
    2514:	8d 74 26 00          	lea    0x0(%esi,%eiz,1),%esi
    2518:	e8 53 1b 01 00       	call   14070 <async_wait_for>
    251d:	8b 5d c0             	mov    -0x40(%ebp),%ebx
    2520:	85 db                	test   %ebx,%ebx
    2522:	75 e5                	jne    2509 <char_dev_read+0x89>
    2524:	8b 5d c8             	mov    -0x38(%ebp),%ebx
    2527:	83 c4 5c             	add    $0x5c,%esp
    252a:	89 d8                	mov    %ebx,%eax
    252c:	5b                   	pop    %ebx
    252d:	5e                   	pop    %esi
    252e:	5f                   	pop    %edi
    252f:	5d                   	pop    %ebp
    2530:	c3                   	ret    
    2531:	8d b4 26 00 00 00 00 	lea    0x0(%esi,%eiz,1),%esi
    2538:	83 c4 5c             	add    $0x5c,%esp
    253b:	89 c3                	mov    %eax,%ebx
    253d:	89 d8                	mov    %ebx,%eax
    253f:	5b                   	pop    %ebx
    2540:	5e                   	pop    %esi
    2541:	5f                   	pop    %edi
    2542:	5d                   	pop    %ebp
    2543:	c3                   	ret    
    2544:	8d b6 00 00 00 00    	lea    0x0(%esi),%esi
    254a:	8d bf 00 00 00 00    	lea    0x0(%edi),%edi

00002550 <char_dev_write>:
    2550:	55                   	push   %ebp
    2551:	89 e5                	mov    %esp,%ebp
    2553:	57                   	push   %edi
    2554:	56                   	push   %esi
    2555:	53                   	push   %ebx
    2556:	83 ec 5c             	sub    $0x5c,%esp
    2559:	8b 45 08             	mov    0x8(%ebp),%eax
    255c:	89 04 24             	mov    %eax,(%esp)
    255f:	e8 9c 2f 01 00       	call   15500 <async_exchange_begin>
    2564:	c7 44 24 14 00 00 00 	movl   $0x0,0x14(%esp)
    256b:	00 
    256c:	89 c6                	mov    %eax,%esi
    256e:	8d 45 c4             	lea    -0x3c(%ebp),%eax
    2571:	89 44 24 18          	mov    %eax,0x18(%esp)
    2575:	c7 44 24 10 00 00 00 	movl   $0x0,0x10(%esp)
    257c:	00 
    257d:	c7 44 24 0c 00 00 00 	movl   $0x0,0xc(%esp)
    2584:	00 
    2585:	c7 44 24 08 01 00 00 	movl   $0x1,0x8(%esp)
    258c:	00 
    258d:	c7 44 24 04 01 04 00 	movl   $0x401,0x4(%esp)
    2594:	00 
    2595:	89 34 24             	mov    %esi,(%esp)
    2598:	e8 03 19 01 00       	call   13ea0 <async_send_fast>
    259d:	89 34 24             	mov    %esi,(%esp)
    25a0:	89 c7                	mov    %eax,%edi
    25a2:	8b 45 10             	mov    0x10(%ebp),%eax
    25a5:	89 44 24 08          	mov    %eax,0x8(%esp)
    25a9:	8b 45 0c             	mov    0xc(%ebp),%eax
    25ac:	89 44 24 04          	mov    %eax,0x4(%esp)
    25b0:	e8 3b 3e 01 00       	call   163f0 <async_data_write_start>
    25b5:	89 34 24             	mov    %esi,(%esp)
    25b8:	89 c3                	mov    %eax,%ebx
    25ba:	e8 b1 32 01 00       	call   15870 <async_exchange_end>
    25bf:	8d 45 c0             	lea    -0x40(%ebp),%eax
    25c2:	89 3c 24             	mov    %edi,(%esp)
    25c5:	89 44 24 04          	mov    %eax,0x4(%esp)
    25c9:	85 db                	test   %ebx,%ebx
    25cb:	74 1b                	je     25e8 <char_dev_write+0x98>
    25cd:	e8 9e 1a 01 00       	call   14070 <async_wait_for>
    25d2:	8b 45 c0             	mov    -0x40(%ebp),%eax
    25d5:	85 c0                	test   %eax,%eax
    25d7:	75 2f                	jne    2608 <char_dev_write+0xb8>
    25d9:	83 c4 5c             	add    $0x5c,%esp
    25dc:	89 d8                	mov    %ebx,%eax
    25de:	5b                   	pop    %ebx
    25df:	5e                   	pop    %esi
    25e0:	5f                   	pop    %edi
    25e1:	5d                   	pop    %ebp
    25e2:	c3                   	ret    
    25e3:	90                   	nop
    25e4:	8d 74 26 00          	lea    0x0(%esi,%eiz,1),%esi
    25e8:	e8 83 1a 01 00       	call   14070 <async_wait_for>
    25ed:	8b 5d c0             	mov    -0x40(%ebp),%ebx
    25f0:	85 db                	test   %ebx,%ebx
    25f2:	75 e5                	jne    25d9 <char_dev_write+0x89>
    25f4:	8b 5d c8             	mov    -0x38(%ebp),%ebx
    25f7:	83 c4 5c             	add    $0x5c,%esp
    25fa:	89 d8                	mov    %ebx,%eax
    25fc:	5b                   	pop    %ebx
    25fd:	5e                   	pop    %esi
    25fe:	5f                   	pop    %edi
    25ff:	5d                   	pop    %ebp
    2600:	c3                   	ret    
    2601:	8d b4 26 00 00 00 00 	lea    0x0(%esi,%eiz,1),%esi
    2608:	83 c4 5c             	add    $0x5c,%esp
    260b:	89 c3                	mov    %eax,%ebx
    260d:	89 d8                	mov    %ebx,%eax
    260f:	5b                   	pop    %ebx
    2610:	5e                   	pop    %esi
    2611:	5f                   	pop    %edi
    2612:	5d                   	pop    %ebp
    2613:	c3                   	ret    
    2614:	66 90                	xchg   %ax,%ax
    2616:	66 90                	xchg   %ax,%ax
    2618:	66 90                	xchg   %ax,%ax
    261a:	66 90                	xchg   %ax,%ax
    261c:	66 90                	xchg   %ax,%ax
    261e:	66 90                	xchg   %ax,%ax

00002620 <loc_cb_conn>:
    2620:	55                   	push   %ebp
    2621:	89 e5                	mov    %esp,%ebp
    2623:	56                   	push   %esi
    2624:	53                   	push   %ebx
    2625:	83 ec 50             	sub    $0x50,%esp
    2628:	8d 5d d4             	lea    -0x2c(%ebp),%ebx
    262b:	90                   	nop
    262c:	8d 74 26 00          	lea    0x0(%esi,%eiz,1),%esi
    2630:	c7 44 24 04 00 00 00 	movl   $0x0,0x4(%esp)
    2637:	00 
    2638:	89 1c 24             	mov    %ebx,(%esp)
    263b:	e8 90 0e 01 00       	call   134d0 <async_get_call_timeout>
    2640:	8b 55 d4             	mov    -0x2c(%ebp),%edx
    2643:	85 d2                	test   %edx,%edx
    2645:	74 61                	je     26a8 <loc_cb_conn+0x88>
    2647:	81 fa 00 04 00 00    	cmp    $0x400,%edx
    264d:	74 19                	je     2668 <loc_cb_conn+0x48>
    264f:	c7 44 24 04 f5 ff ff 	movl   $0xfffffff5,0x4(%esp)
    2656:	ff 
    2657:	89 04 24             	mov    %eax,(%esp)
    265a:	e8 a1 24 01 00       	call   14b00 <async_answer_0>
    265f:	eb cf                	jmp    2630 <loc_cb_conn+0x10>
    2661:	8d b4 26 00 00 00 00 	lea    0x0(%esi,%eiz,1),%esi
    2668:	c7 04 24 a0 19 02 00 	movl   $0x219a0,(%esp)
    266f:	89 45 c4             	mov    %eax,-0x3c(%ebp)
    2672:	e8 c9 6a 00 00       	call   9140 <fibril_mutex_lock>
    2677:	c7 04 24 a0 19 02 00 	movl   $0x219a0,(%esp)
    267e:	8b 35 18 1c 02 00    	mov    0x21c18,%esi
    2684:	e8 d7 6b 00 00       	call   9260 <fibril_mutex_unlock>
    2689:	8b 45 c4             	mov    -0x3c(%ebp),%eax
    268c:	c7 44 24 04 00 00 00 	movl   $0x0,0x4(%esp)
    2693:	00 
    2694:	89 04 24             	mov    %eax,(%esp)
    2697:	e8 64 24 01 00       	call   14b00 <async_answer_0>
    269c:	85 f6                	test   %esi,%esi
    269e:	74 90                	je     2630 <loc_cb_conn+0x10>
    26a0:	ff d6                	call   *%esi
    26a2:	eb 8c                	jmp    2630 <loc_cb_conn+0x10>
    26a4:	8d 74 26 00          	lea    0x0(%esi,%eiz,1),%esi
    26a8:	83 c4 50             	add    $0x50,%esp
    26ab:	5b                   	pop    %ebx
    26ac:	5e                   	pop    %esi
    26ad:	5d                   	pop    %ebp
    26ae:	c3                   	ret    
    26af:	90                   	nop

000026b0 <loc_exchange_begin.part.0>:
    26b0:	55                   	push   %ebp
    26b1:	89 e5                	mov    %esp,%ebp
    26b3:	83 ec 18             	sub    $0x18,%esp
    26b6:	c7 04 24 70 19 02 00 	movl   $0x21970,(%esp)
    26bd:	e8 7e 6a 00 00       	call   9140 <fibril_mutex_lock>
    26c2:	a1 08 1c 02 00       	mov    0x21c08,%eax
    26c7:	85 c0                	test   %eax,%eax
    26c9:	74 25                	je     26f0 <loc_exchange_begin.part.0+0x40>
    26cb:	c7 04 24 70 19 02 00 	movl   $0x21970,(%esp)
    26d2:	e8 89 6b 00 00       	call   9260 <fibril_mutex_unlock>
    26d7:	a1 08 1c 02 00       	mov    0x21c08,%eax
    26dc:	85 c0                	test   %eax,%eax
    26de:	74 40                	je     2720 <loc_exchange_begin.part.0+0x70>
    26e0:	89 04 24             	mov    %eax,(%esp)
    26e3:	e8 18 2e 01 00       	call   15500 <async_exchange_begin>
    26e8:	c9                   	leave  
    26e9:	c3                   	ret    
    26ea:	8d b6 00 00 00 00    	lea    0x0(%esi),%esi
    26f0:	c7 44 24 0c 00 00 00 	movl   $0x0,0xc(%esp)
    26f7:	00 
    26f8:	c7 44 24 08 01 00 00 	movl   $0x1,0x8(%esp)
    26ff:	00 
    2700:	c7 44 24 04 6c 6f 63 	movl   $0x20636f6c,0x4(%esp)
    2707:	20 
    2708:	c7 04 24 02 00 00 00 	movl   $0x2,(%esp)
    270f:	e8 bc 00 01 00       	call   127d0 <service_connect>
    2714:	a3 08 1c 02 00       	mov    %eax,0x21c08
    2719:	eb b0                	jmp    26cb <loc_exchange_begin.part.0+0x1b>
    271b:	90                   	nop
    271c:	8d 74 26 00          	lea    0x0(%esi,%eiz,1),%esi
    2720:	31 c0                	xor    %eax,%eax
    2722:	c9                   	leave  
    2723:	c3                   	ret    
    2724:	8d b6 00 00 00 00    	lea    0x0(%esi),%esi
    272a:	8d bf 00 00 00 00    	lea    0x0(%edi),%edi

00002730 <loc_get_name_internal>:
    2730:	55                   	push   %ebp
    2731:	89 e5                	mov    %esp,%ebp
    2733:	57                   	push   %edi
    2734:	56                   	push   %esi
    2735:	53                   	push   %ebx
    2736:	81 ec 8c 01 00 00    	sub    $0x18c,%esp
    273c:	c7 01 00 00 00 00    	movl   $0x0,(%ecx)
    2742:	89 85 94 fe ff ff    	mov    %eax,-0x16c(%ebp)
    2748:	89 d7                	mov    %edx,%edi
    274a:	c7 04 24 80 19 02 00 	movl   $0x21980,(%esp)
    2751:	89 ce                	mov    %ecx,%esi
    2753:	e8 e8 69 00 00       	call   9140 <fibril_mutex_lock>
    2758:	a1 14 1c 02 00       	mov    0x21c14,%eax
    275d:	85 c0                	test   %eax,%eax
    275f:	75 39                	jne    279a <loc_get_name_internal+0x6a>
    2761:	c7 04 24 90 19 02 00 	movl   $0x21990,(%esp)
    2768:	8b 1d 10 1c 02 00    	mov    0x21c10,%ebx
    276e:	e8 cd 69 00 00       	call   9140 <fibril_mutex_lock>
    2773:	a1 14 1c 02 00       	mov    0x21c14,%eax
    2778:	85 c0                	test   %eax,%eax
    277a:	0f 84 40 01 00 00    	je     28c0 <loc_get_name_internal+0x190>
    2780:	c7 04 24 90 19 02 00 	movl   $0x21990,(%esp)
    2787:	e8 d4 6a 00 00       	call   9260 <fibril_mutex_unlock>
    278c:	8b 1d 14 1c 02 00    	mov    0x21c14,%ebx
    2792:	85 db                	test   %ebx,%ebx
    2794:	0f 84 3e 01 00 00    	je     28d8 <loc_get_name_internal+0x1a8>
    279a:	c7 04 24 80 19 02 00 	movl   $0x21980,(%esp)
    27a1:	e8 ba 6a 00 00       	call   9260 <fibril_mutex_unlock>
    27a6:	c7 04 24 90 19 02 00 	movl   $0x21990,(%esp)
    27ad:	8b 1d 14 1c 02 00    	mov    0x21c14,%ebx
    27b3:	e8 88 69 00 00       	call   9140 <fibril_mutex_lock>
    27b8:	8b 0d 10 1c 02 00    	mov    0x21c10,%ecx
    27be:	85 c9                	test   %ecx,%ecx
    27c0:	0f 84 62 01 00 00    	je     2928 <loc_get_name_internal+0x1f8>
    27c6:	c7 04 24 90 19 02 00 	movl   $0x21990,(%esp)
    27cd:	e8 8e 6a 00 00       	call   9260 <fibril_mutex_unlock>
    27d2:	a1 14 1c 02 00       	mov    0x21c14,%eax
    27d7:	89 04 24             	mov    %eax,(%esp)
    27da:	e8 21 2d 01 00       	call   15500 <async_exchange_begin>
    27df:	89 7c 24 08          	mov    %edi,0x8(%esp)
    27e3:	89 c3                	mov    %eax,%ebx
    27e5:	8d 85 c4 fe ff ff    	lea    -0x13c(%ebp),%eax
    27eb:	89 44 24 18          	mov    %eax,0x18(%esp)
    27ef:	8b 85 94 fe ff ff    	mov    -0x16c(%ebp),%eax
    27f5:	c7 44 24 14 00 00 00 	movl   $0x0,0x14(%esp)
    27fc:	00 
    27fd:	c7 44 24 10 00 00 00 	movl   $0x0,0x10(%esp)
    2804:	00 
    2805:	c7 44 24 0c 00 00 00 	movl   $0x0,0xc(%esp)
    280c:	00 
    280d:	89 44 24 04          	mov    %eax,0x4(%esp)
    2811:	89 1c 24             	mov    %ebx,(%esp)
    2814:	e8 87 16 01 00       	call   13ea0 <async_send_fast>
    2819:	c7 44 24 08 ff 00 00 	movl   $0xff,0x8(%esp)
    2820:	00 
    2821:	89 c7                	mov    %eax,%edi
    2823:	8d 85 a0 fe ff ff    	lea    -0x160(%ebp),%eax
    2829:	89 44 24 0c          	mov    %eax,0xc(%esp)
    282d:	8d 85 e8 fe ff ff    	lea    -0x118(%ebp),%eax
    2833:	89 44 24 04          	mov    %eax,0x4(%esp)
    2837:	89 1c 24             	mov    %ebx,(%esp)
    283a:	e8 b1 35 01 00       	call   15df0 <async_data_read>
    283f:	8d 8d 98 fe ff ff    	lea    -0x168(%ebp),%ecx
    2845:	89 4c 24 04          	mov    %ecx,0x4(%esp)
    2849:	89 04 24             	mov    %eax,(%esp)
    284c:	e8 1f 18 01 00       	call   14070 <async_wait_for>
    2851:	89 1c 24             	mov    %ebx,(%esp)
    2854:	e8 17 30 01 00       	call   15870 <async_exchange_end>
    2859:	8b 95 98 fe ff ff    	mov    -0x168(%ebp),%edx
    285f:	85 d2                	test   %edx,%edx
    2861:	0f 85 a1 00 00 00    	jne    2908 <loc_get_name_internal+0x1d8>
    2867:	8d 85 9c fe ff ff    	lea    -0x164(%ebp),%eax
    286d:	89 3c 24             	mov    %edi,(%esp)
    2870:	89 44 24 04          	mov    %eax,0x4(%esp)
    2874:	e8 f7 17 01 00       	call   14070 <async_wait_for>
    2879:	8b 85 9c fe ff ff    	mov    -0x164(%ebp),%eax
    287f:	85 c0                	test   %eax,%eax
    2881:	75 31                	jne    28b4 <loc_get_name_internal+0x184>
    2883:	8b 85 a8 fe ff ff    	mov    -0x158(%ebp),%eax
    2889:	3d ff 00 00 00       	cmp    $0xff,%eax
    288e:	0f 87 a7 00 00 00    	ja     293b <loc_get_name_internal+0x20b>
    2894:	c6 84 05 e8 fe ff ff 	movb   $0x0,-0x118(%ebp,%eax,1)
    289b:	00 
    289c:	8d 85 e8 fe ff ff    	lea    -0x118(%ebp),%eax
    28a2:	89 04 24             	mov    %eax,(%esp)
    28a5:	e8 16 56 00 00       	call   7ec0 <str_dup>
    28aa:	83 f8 01             	cmp    $0x1,%eax
    28ad:	89 06                	mov    %eax,(%esi)
    28af:	19 c0                	sbb    %eax,%eax
    28b1:	83 e0 fe             	and    $0xfffffffe,%eax
    28b4:	81 c4 8c 01 00 00    	add    $0x18c,%esp
    28ba:	5b                   	pop    %ebx
    28bb:	5e                   	pop    %esi
    28bc:	5f                   	pop    %edi
    28bd:	5d                   	pop    %ebp
    28be:	c3                   	ret    
    28bf:	90                   	nop
    28c0:	85 db                	test   %ebx,%ebx
    28c2:	0f 84 b8 fe ff ff    	je     2780 <loc_get_name_internal+0x50>
    28c8:	89 1d 14 1c 02 00    	mov    %ebx,0x21c14
    28ce:	e9 ad fe ff ff       	jmp    2780 <loc_get_name_internal+0x50>
    28d3:	90                   	nop
    28d4:	8d 74 26 00          	lea    0x0(%esi,%eiz,1),%esi
    28d8:	c7 44 24 0c 00 00 00 	movl   $0x0,0xc(%esp)
    28df:	00 
    28e0:	c7 44 24 08 02 00 00 	movl   $0x2,0x8(%esp)
    28e7:	00 
    28e8:	c7 44 24 04 6c 6f 63 	movl   $0x20636f6c,0x4(%esp)
    28ef:	20 
    28f0:	c7 04 24 02 00 00 00 	movl   $0x2,(%esp)
    28f7:	e8 54 ff 00 00       	call   12850 <service_connect_blocking>
    28fc:	a3 14 1c 02 00       	mov    %eax,0x21c14
    2901:	e9 57 fe ff ff       	jmp    275d <loc_get_name_internal+0x2d>
    2906:	66 90                	xchg   %ax,%ax
    2908:	89 3c 24             	mov    %edi,(%esp)
    290b:	e8 b0 19 01 00       	call   142c0 <async_forget>
    2910:	8b 85 98 fe ff ff    	mov    -0x168(%ebp),%eax
    2916:	81 c4 8c 01 00 00    	add    $0x18c,%esp
    291c:	5b                   	pop    %ebx
    291d:	5e                   	pop    %esi
    291e:	5f                   	pop    %edi
    291f:	5d                   	pop    %ebp
    2920:	c3                   	ret    
    2921:	8d b4 26 00 00 00 00 	lea    0x0(%esi,%eiz,1),%esi
    2928:	85 db                	test   %ebx,%ebx
    292a:	0f 84 96 fe ff ff    	je     27c6 <loc_get_name_internal+0x96>
    2930:	89 1d 10 1c 02 00    	mov    %ebx,0x21c10
    2936:	e9 8b fe ff ff       	jmp    27c6 <loc_get_name_internal+0x96>
    293b:	c7 44 24 08 9e 01 00 	movl   $0x19e,0x8(%esp)
    2942:	00 
    2943:	c7 44 24 04 20 f0 01 	movl   $0x1f020,0x4(%esp)
    294a:	00 
    294b:	c7 04 24 2e f0 01 00 	movl   $0x1f02e,(%esp)
    2952:	e8 49 9e 01 00       	call   1c7a0 <assert_abort>
    2957:	89 f6                	mov    %esi,%esi
    2959:	8d bc 27 00 00 00 00 	lea    0x0(%edi,%eiz,1),%edi

00002960 <loc_get_ids_internal>:
    2960:	55                   	push   %ebp
    2961:	89 e5                	mov    %esp,%ebp
    2963:	57                   	push   %edi
    2964:	56                   	push   %esi
    2965:	53                   	push   %ebx
    2966:	83 ec 7c             	sub    $0x7c,%esp
    2969:	89 55 ac             	mov    %edx,-0x54(%ebp)
    296c:	8b 55 08             	mov    0x8(%ebp),%edx
    296f:	c7 01 00 00 00 00    	movl   $0x0,(%ecx)
    2975:	89 45 b0             	mov    %eax,-0x50(%ebp)
    2978:	89 4d a8             	mov    %ecx,-0x58(%ebp)
    297b:	c7 02 00 00 00 00    	movl   $0x0,(%edx)
    2981:	c7 04 24 80 19 02 00 	movl   $0x21980,(%esp)
    2988:	e8 b3 67 00 00       	call   9140 <fibril_mutex_lock>
    298d:	a1 14 1c 02 00       	mov    0x21c14,%eax
    2992:	85 c0                	test   %eax,%eax
    2994:	75 39                	jne    29cf <loc_get_ids_internal+0x6f>
    2996:	c7 04 24 90 19 02 00 	movl   $0x21990,(%esp)
    299d:	8b 1d 10 1c 02 00    	mov    0x21c10,%ebx
    29a3:	e8 98 67 00 00       	call   9140 <fibril_mutex_lock>
    29a8:	8b 15 14 1c 02 00    	mov    0x21c14,%edx
    29ae:	85 d2                	test   %edx,%edx
    29b0:	0f 84 5a 02 00 00    	je     2c10 <loc_get_ids_internal+0x2b0>
    29b6:	c7 04 24 90 19 02 00 	movl   $0x21990,(%esp)
    29bd:	e8 9e 68 00 00       	call   9260 <fibril_mutex_unlock>
    29c2:	a1 14 1c 02 00       	mov    0x21c14,%eax
    29c7:	85 c0                	test   %eax,%eax
    29c9:	0f 84 59 02 00 00    	je     2c28 <loc_get_ids_internal+0x2c8>
    29cf:	c7 04 24 80 19 02 00 	movl   $0x21980,(%esp)
    29d6:	e8 85 68 00 00       	call   9260 <fibril_mutex_unlock>
    29db:	c7 04 24 90 19 02 00 	movl   $0x21990,(%esp)
    29e2:	8b 1d 14 1c 02 00    	mov    0x21c14,%ebx
    29e8:	e8 53 67 00 00       	call   9140 <fibril_mutex_lock>
    29ed:	a1 10 1c 02 00       	mov    0x21c10,%eax
    29f2:	85 c0                	test   %eax,%eax
    29f4:	0f 84 d5 02 00 00    	je     2ccf <loc_get_ids_internal+0x36f>
    29fa:	c7 04 24 90 19 02 00 	movl   $0x21990,(%esp)
    2a01:	e8 5a 68 00 00       	call   9260 <fibril_mutex_unlock>
    2a06:	a1 14 1c 02 00       	mov    0x21c14,%eax
    2a0b:	89 04 24             	mov    %eax,(%esp)
    2a0e:	e8 ed 2a 01 00       	call   15500 <async_exchange_begin>
    2a13:	8b 55 ac             	mov    -0x54(%ebp),%edx
    2a16:	89 c6                	mov    %eax,%esi
    2a18:	8d 45 c4             	lea    -0x3c(%ebp),%eax
    2a1b:	89 44 24 18          	mov    %eax,0x18(%esp)
    2a1f:	8b 45 b0             	mov    -0x50(%ebp),%eax
    2a22:	89 54 24 08          	mov    %edx,0x8(%esp)
    2a26:	c7 44 24 14 00 00 00 	movl   $0x0,0x14(%esp)
    2a2d:	00 
    2a2e:	c7 44 24 10 00 00 00 	movl   $0x0,0x10(%esp)
    2a35:	00 
    2a36:	c7 44 24 0c 00 00 00 	movl   $0x0,0xc(%esp)
    2a3d:	00 
    2a3e:	89 44 24 04          	mov    %eax,0x4(%esp)
    2a42:	89 34 24             	mov    %esi,(%esp)
    2a45:	e8 56 14 01 00       	call   13ea0 <async_send_fast>
    2a4a:	c7 44 24 08 00 00 00 	movl   $0x0,0x8(%esp)
    2a51:	00 
    2a52:	c7 44 24 04 00 00 00 	movl   $0x0,0x4(%esp)
    2a59:	00 
    2a5a:	89 34 24             	mov    %esi,(%esp)
    2a5d:	89 c3                	mov    %eax,%ebx
    2a5f:	e8 6c 34 01 00       	call   15ed0 <async_data_read_start>
    2a64:	89 34 24             	mov    %esi,(%esp)
    2a67:	89 c7                	mov    %eax,%edi
    2a69:	e8 02 2e 01 00       	call   15870 <async_exchange_end>
    2a6e:	85 ff                	test   %edi,%edi
    2a70:	0f 85 3d 02 00 00    	jne    2cb3 <loc_get_ids_internal+0x353>
    2a76:	8d 55 c0             	lea    -0x40(%ebp),%edx
    2a79:	89 1c 24             	mov    %ebx,(%esp)
    2a7c:	89 54 24 04          	mov    %edx,0x4(%esp)
    2a80:	e8 eb 15 01 00       	call   14070 <async_wait_for>
    2a85:	8b 45 c0             	mov    -0x40(%ebp),%eax
    2a88:	85 c0                	test   %eax,%eax
    2a8a:	0f 85 72 01 00 00    	jne    2c02 <loc_get_ids_internal+0x2a2>
    2a90:	8b 7d c8             	mov    -0x38(%ebp),%edi
    2a93:	89 3c 24             	mov    %edi,(%esp)
    2a96:	e8 25 f5 00 00       	call   11fc0 <malloc>
    2a9b:	89 c6                	mov    %eax,%esi
    2a9d:	85 c0                	test   %eax,%eax
    2a9f:	0f 85 0a 01 00 00    	jne    2baf <loc_get_ids_internal+0x24f>
    2aa5:	e9 1b 02 00 00       	jmp    2cc5 <loc_get_ids_internal+0x365>
    2aaa:	8d b6 00 00 00 00    	lea    0x0(%esi),%esi
    2ab0:	c7 04 24 90 19 02 00 	movl   $0x21990,(%esp)
    2ab7:	e8 a4 67 00 00       	call   9260 <fibril_mutex_unlock>
    2abc:	a1 14 1c 02 00       	mov    0x21c14,%eax
    2ac1:	85 c0                	test   %eax,%eax
    2ac3:	0f 84 8f 01 00 00    	je     2c58 <loc_get_ids_internal+0x2f8>
    2ac9:	c7 04 24 80 19 02 00 	movl   $0x21980,(%esp)
    2ad0:	e8 8b 67 00 00       	call   9260 <fibril_mutex_unlock>
    2ad5:	c7 04 24 90 19 02 00 	movl   $0x21990,(%esp)
    2adc:	8b 1d 14 1c 02 00    	mov    0x21c14,%ebx
    2ae2:	e8 59 66 00 00       	call   9140 <fibril_mutex_lock>
    2ae7:	a1 10 1c 02 00       	mov    0x21c10,%eax
    2aec:	85 c0                	test   %eax,%eax
    2aee:	0f 84 ac 01 00 00    	je     2ca0 <loc_get_ids_internal+0x340>
    2af4:	c7 04 24 90 19 02 00 	movl   $0x21990,(%esp)
    2afb:	e8 60 67 00 00       	call   9260 <fibril_mutex_unlock>
    2b00:	a1 14 1c 02 00       	mov    0x21c14,%eax
    2b05:	89 04 24             	mov    %eax,(%esp)
    2b08:	e8 f3 29 01 00       	call   15500 <async_exchange_begin>
    2b0d:	8b 55 ac             	mov    -0x54(%ebp),%edx
    2b10:	89 c3                	mov    %eax,%ebx
    2b12:	8d 45 c4             	lea    -0x3c(%ebp),%eax
    2b15:	89 44 24 18          	mov    %eax,0x18(%esp)
    2b19:	8b 45 b0             	mov    -0x50(%ebp),%eax
    2b1c:	89 54 24 08          	mov    %edx,0x8(%esp)
    2b20:	c7 44 24 14 00 00 00 	movl   $0x0,0x14(%esp)
    2b27:	00 
    2b28:	c7 44 24 10 00 00 00 	movl   $0x0,0x10(%esp)
    2b2f:	00 
    2b30:	c7 44 24 0c 00 00 00 	movl   $0x0,0xc(%esp)
    2b37:	00 
    2b38:	89 44 24 04          	mov    %eax,0x4(%esp)
    2b3c:	89 1c 24             	mov    %ebx,(%esp)
    2b3f:	e8 5c 13 01 00       	call   13ea0 <async_send_fast>
    2b44:	89 7c 24 08          	mov    %edi,0x8(%esp)
    2b48:	89 74 24 04          	mov    %esi,0x4(%esp)
    2b4c:	89 1c 24             	mov    %ebx,(%esp)
    2b4f:	89 45 b4             	mov    %eax,-0x4c(%ebp)
    2b52:	e8 79 33 01 00       	call   15ed0 <async_data_read_start>
    2b57:	89 1c 24             	mov    %ebx,(%esp)
    2b5a:	89 45 a4             	mov    %eax,-0x5c(%ebp)
    2b5d:	e8 0e 2d 01 00       	call   15870 <async_exchange_end>
    2b62:	8b 45 a4             	mov    -0x5c(%ebp),%eax
    2b65:	85 c0                	test   %eax,%eax
    2b67:	0f 85 1b 01 00 00    	jne    2c88 <loc_get_ids_internal+0x328>
    2b6d:	8d 55 c0             	lea    -0x40(%ebp),%edx
    2b70:	89 45 a4             	mov    %eax,-0x5c(%ebp)
    2b73:	89 54 24 04          	mov    %edx,0x4(%esp)
    2b77:	8b 55 b4             	mov    -0x4c(%ebp),%edx
    2b7a:	89 14 24             	mov    %edx,(%esp)
    2b7d:	e8 ee 14 01 00       	call   14070 <async_wait_for>
    2b82:	8b 55 c0             	mov    -0x40(%ebp),%edx
    2b85:	85 d2                	test   %edx,%edx
    2b87:	8b 45 a4             	mov    -0x5c(%ebp),%eax
    2b8a:	75 74                	jne    2c00 <loc_get_ids_internal+0x2a0>
    2b8c:	8b 5d c8             	mov    -0x38(%ebp),%ebx
    2b8f:	39 df                	cmp    %ebx,%edi
    2b91:	0f 83 4b 01 00 00    	jae    2ce2 <loc_get_ids_internal+0x382>
    2b97:	89 34 24             	mov    %esi,(%esp)
    2b9a:	89 5c 24 04          	mov    %ebx,0x4(%esp)
    2b9e:	e8 7d f7 00 00       	call   12320 <realloc>
    2ba3:	89 df                	mov    %ebx,%edi
    2ba5:	89 c6                	mov    %eax,%esi
    2ba7:	85 c0                	test   %eax,%eax
    2ba9:	0f 84 16 01 00 00    	je     2cc5 <loc_get_ids_internal+0x365>
    2baf:	c7 04 24 80 19 02 00 	movl   $0x21980,(%esp)
    2bb6:	e8 85 65 00 00       	call   9140 <fibril_mutex_lock>
    2bbb:	a1 14 1c 02 00       	mov    0x21c14,%eax
    2bc0:	85 c0                	test   %eax,%eax
    2bc2:	0f 85 01 ff ff ff    	jne    2ac9 <loc_get_ids_internal+0x169>
    2bc8:	c7 04 24 90 19 02 00 	movl   $0x21990,(%esp)
    2bcf:	8b 1d 10 1c 02 00    	mov    0x21c10,%ebx
    2bd5:	e8 66 65 00 00       	call   9140 <fibril_mutex_lock>
    2bda:	a1 14 1c 02 00       	mov    0x21c14,%eax
    2bdf:	85 c0                	test   %eax,%eax
    2be1:	0f 85 c9 fe ff ff    	jne    2ab0 <loc_get_ids_internal+0x150>
    2be7:	85 db                	test   %ebx,%ebx
    2be9:	0f 84 c1 fe ff ff    	je     2ab0 <loc_get_ids_internal+0x150>
    2bef:	89 1d 14 1c 02 00    	mov    %ebx,0x21c14
    2bf5:	e9 b6 fe ff ff       	jmp    2ab0 <loc_get_ids_internal+0x150>
    2bfa:	8d b6 00 00 00 00    	lea    0x0(%esi),%esi
    2c00:	89 d0                	mov    %edx,%eax
    2c02:	89 c7                	mov    %eax,%edi
    2c04:	83 c4 7c             	add    $0x7c,%esp
    2c07:	89 f8                	mov    %edi,%eax
    2c09:	5b                   	pop    %ebx
    2c0a:	5e                   	pop    %esi
    2c0b:	5f                   	pop    %edi
    2c0c:	5d                   	pop    %ebp
    2c0d:	c3                   	ret    
    2c0e:	66 90                	xchg   %ax,%ax
    2c10:	85 db                	test   %ebx,%ebx
    2c12:	0f 84 9e fd ff ff    	je     29b6 <loc_get_ids_internal+0x56>
    2c18:	89 1d 14 1c 02 00    	mov    %ebx,0x21c14
    2c1e:	e9 93 fd ff ff       	jmp    29b6 <loc_get_ids_internal+0x56>
    2c23:	90                   	nop
    2c24:	8d 74 26 00          	lea    0x0(%esi,%eiz,1),%esi
    2c28:	c7 44 24 0c 00 00 00 	movl   $0x0,0xc(%esp)
    2c2f:	00 
    2c30:	c7 44 24 08 02 00 00 	movl   $0x2,0x8(%esp)
    2c37:	00 
    2c38:	c7 44 24 04 6c 6f 63 	movl   $0x20636f6c,0x4(%esp)
    2c3f:	20 
    2c40:	c7 04 24 02 00 00 00 	movl   $0x2,(%esp)
    2c47:	e8 04 fc 00 00       	call   12850 <service_connect_blocking>
    2c4c:	a3 14 1c 02 00       	mov    %eax,0x21c14
    2c51:	e9 3c fd ff ff       	jmp    2992 <loc_get_ids_internal+0x32>
    2c56:	66 90                	xchg   %ax,%ax
    2c58:	c7 44 24 0c 00 00 00 	movl   $0x0,0xc(%esp)
    2c5f:	00 
    2c60:	c7 44 24 08 02 00 00 	movl   $0x2,0x8(%esp)
    2c67:	00 
    2c68:	c7 44 24 04 6c 6f 63 	movl   $0x20636f6c,0x4(%esp)
    2c6f:	20 
    2c70:	c7 04 24 02 00 00 00 	movl   $0x2,(%esp)
    2c77:	e8 d4 fb 00 00       	call   12850 <service_connect_blocking>
    2c7c:	a3 14 1c 02 00       	mov    %eax,0x21c14
    2c81:	e9 3a ff ff ff       	jmp    2bc0 <loc_get_ids_internal+0x260>
    2c86:	66 90                	xchg   %ax,%ax
    2c88:	89 c7                	mov    %eax,%edi
    2c8a:	8b 45 b4             	mov    -0x4c(%ebp),%eax
    2c8d:	89 04 24             	mov    %eax,(%esp)
    2c90:	e8 2b 16 01 00       	call   142c0 <async_forget>
    2c95:	83 c4 7c             	add    $0x7c,%esp
    2c98:	89 f8                	mov    %edi,%eax
    2c9a:	5b                   	pop    %ebx
    2c9b:	5e                   	pop    %esi
    2c9c:	5f                   	pop    %edi
    2c9d:	5d                   	pop    %ebp
    2c9e:	c3                   	ret    
    2c9f:	90                   	nop
    2ca0:	85 db                	test   %ebx,%ebx
    2ca2:	0f 84 4c fe ff ff    	je     2af4 <loc_get_ids_internal+0x194>
    2ca8:	89 1d 10 1c 02 00    	mov    %ebx,0x21c10
    2cae:	e9 41 fe ff ff       	jmp    2af4 <loc_get_ids_internal+0x194>
    2cb3:	89 1c 24             	mov    %ebx,(%esp)
    2cb6:	e8 05 16 01 00       	call   142c0 <async_forget>
    2cbb:	83 c4 7c             	add    $0x7c,%esp
    2cbe:	89 f8                	mov    %edi,%eax
    2cc0:	5b                   	pop    %ebx
    2cc1:	5e                   	pop    %esi
    2cc2:	5f                   	pop    %edi
    2cc3:	5d                   	pop    %ebp
    2cc4:	c3                   	ret    
    2cc5:	bf fe ff ff ff       	mov    $0xfffffffe,%edi
    2cca:	e9 35 ff ff ff       	jmp    2c04 <loc_get_ids_internal+0x2a4>
    2ccf:	85 db                	test   %ebx,%ebx
    2cd1:	0f 84 23 fd ff ff    	je     29fa <loc_get_ids_internal+0x9a>
    2cd7:	89 1d 10 1c 02 00    	mov    %ebx,0x21c10
    2cdd:	e9 18 fd ff ff       	jmp    29fa <loc_get_ids_internal+0x9a>
    2ce2:	89 c7                	mov    %eax,%edi
    2ce4:	8b 55 08             	mov    0x8(%ebp),%edx
    2ce7:	c1 eb 02             	shr    $0x2,%ebx
    2cea:	8b 45 a8             	mov    -0x58(%ebp),%eax
    2ced:	89 1a                	mov    %ebx,(%edx)
    2cef:	89 30                	mov    %esi,(%eax)
    2cf1:	e9 0e ff ff ff       	jmp    2c04 <loc_get_ids_internal+0x2a4>
    2cf6:	8d 76 00             	lea    0x0(%esi),%esi
    2cf9:	8d bc 27 00 00 00 00 	lea    0x0(%edi,%eiz,1),%edi

00002d00 <loc_exchange_begin_blocking>:
    2d00:	55                   	push   %ebp
    2d01:	89 e5                	mov    %esp,%ebp
    2d03:	53                   	push   %ebx
    2d04:	83 ec 14             	sub    $0x14,%esp
    2d07:	8b 45 08             	mov    0x8(%ebp),%eax
    2d0a:	83 f8 01             	cmp    $0x1,%eax
    2d0d:	74 11                	je     2d20 <loc_exchange_begin_blocking+0x20>
    2d0f:	83 f8 02             	cmp    $0x2,%eax
    2d12:	0f 84 b0 00 00 00    	je     2dc8 <loc_exchange_begin_blocking+0xc8>
    2d18:	83 c4 14             	add    $0x14,%esp
    2d1b:	31 c0                	xor    %eax,%eax
    2d1d:	5b                   	pop    %ebx
    2d1e:	5d                   	pop    %ebp
    2d1f:	c3                   	ret    
    2d20:	c7 04 24 60 19 02 00 	movl   $0x21960,(%esp)
    2d27:	e8 14 64 00 00       	call   9140 <fibril_mutex_lock>
    2d2c:	a1 0c 1c 02 00       	mov    0x21c0c,%eax
    2d31:	85 c0                	test   %eax,%eax
    2d33:	75 34                	jne    2d69 <loc_exchange_begin_blocking+0x69>
    2d35:	c7 04 24 70 19 02 00 	movl   $0x21970,(%esp)
    2d3c:	8b 1d 08 1c 02 00    	mov    0x21c08,%ebx
    2d42:	e8 f9 63 00 00       	call   9140 <fibril_mutex_lock>
    2d47:	a1 0c 1c 02 00       	mov    0x21c0c,%eax
    2d4c:	85 c0                	test   %eax,%eax
    2d4e:	74 68                	je     2db8 <loc_exchange_begin_blocking+0xb8>
    2d50:	c7 04 24 70 19 02 00 	movl   $0x21970,(%esp)
    2d57:	e8 04 65 00 00       	call   9260 <fibril_mutex_unlock>
    2d5c:	a1 0c 1c 02 00       	mov    0x21c0c,%eax
    2d61:	85 c0                	test   %eax,%eax
    2d63:	0f 84 07 01 00 00    	je     2e70 <loc_exchange_begin_blocking+0x170>
    2d69:	c7 04 24 60 19 02 00 	movl   $0x21960,(%esp)
    2d70:	e8 eb 64 00 00       	call   9260 <fibril_mutex_unlock>
    2d75:	c7 04 24 70 19 02 00 	movl   $0x21970,(%esp)
    2d7c:	8b 1d 0c 1c 02 00    	mov    0x21c0c,%ebx
    2d82:	e8 b9 63 00 00       	call   9140 <fibril_mutex_lock>
    2d87:	a1 08 1c 02 00       	mov    0x21c08,%eax
    2d8c:	85 c0                	test   %eax,%eax
    2d8e:	0f 84 3c 01 00 00    	je     2ed0 <loc_exchange_begin_blocking+0x1d0>
    2d94:	c7 04 24 70 19 02 00 	movl   $0x21970,(%esp)
    2d9b:	e8 c0 64 00 00       	call   9260 <fibril_mutex_unlock>
    2da0:	a1 0c 1c 02 00       	mov    0x21c0c,%eax
    2da5:	89 45 08             	mov    %eax,0x8(%ebp)
    2da8:	83 c4 14             	add    $0x14,%esp
    2dab:	5b                   	pop    %ebx
    2dac:	5d                   	pop    %ebp
    2dad:	e9 4e 27 01 00       	jmp    15500 <async_exchange_begin>
    2db2:	8d b6 00 00 00 00    	lea    0x0(%esi),%esi
    2db8:	85 db                	test   %ebx,%ebx
    2dba:	74 94                	je     2d50 <loc_exchange_begin_blocking+0x50>
    2dbc:	89 1d 0c 1c 02 00    	mov    %ebx,0x21c0c
    2dc2:	eb 8c                	jmp    2d50 <loc_exchange_begin_blocking+0x50>
    2dc4:	8d 74 26 00          	lea    0x0(%esi,%eiz,1),%esi
    2dc8:	c7 04 24 80 19 02 00 	movl   $0x21980,(%esp)
    2dcf:	e8 6c 63 00 00       	call   9140 <fibril_mutex_lock>
    2dd4:	a1 14 1c 02 00       	mov    0x21c14,%eax
    2dd9:	85 c0                	test   %eax,%eax
    2ddb:	75 35                	jne    2e12 <loc_exchange_begin_blocking+0x112>
    2ddd:	c7 04 24 90 19 02 00 	movl   $0x21990,(%esp)
    2de4:	8b 1d 10 1c 02 00    	mov    0x21c10,%ebx
    2dea:	e8 51 63 00 00       	call   9140 <fibril_mutex_lock>
    2def:	a1 14 1c 02 00       	mov    0x21c14,%eax
    2df4:	85 c0                	test   %eax,%eax
    2df6:	74 68                	je     2e60 <loc_exchange_begin_blocking+0x160>
    2df8:	c7 04 24 90 19 02 00 	movl   $0x21990,(%esp)
    2dff:	e8 5c 64 00 00       	call   9260 <fibril_mutex_unlock>
    2e04:	8b 1d 14 1c 02 00    	mov    0x21c14,%ebx
    2e0a:	85 db                	test   %ebx,%ebx
    2e0c:	0f 84 8e 00 00 00    	je     2ea0 <loc_exchange_begin_blocking+0x1a0>
    2e12:	c7 04 24 80 19 02 00 	movl   $0x21980,(%esp)
    2e19:	e8 42 64 00 00       	call   9260 <fibril_mutex_unlock>
    2e1e:	c7 04 24 90 19 02 00 	movl   $0x21990,(%esp)
    2e25:	8b 1d 14 1c 02 00    	mov    0x21c14,%ebx
    2e2b:	e8 10 63 00 00       	call   9140 <fibril_mutex_lock>
    2e30:	8b 0d 10 1c 02 00    	mov    0x21c10,%ecx
    2e36:	85 c9                	test   %ecx,%ecx
    2e38:	0f 84 aa 00 00 00    	je     2ee8 <loc_exchange_begin_blocking+0x1e8>
    2e3e:	c7 04 24 90 19 02 00 	movl   $0x21990,(%esp)
    2e45:	e8 16 64 00 00       	call   9260 <fibril_mutex_unlock>
    2e4a:	a1 14 1c 02 00       	mov    0x21c14,%eax
    2e4f:	89 45 08             	mov    %eax,0x8(%ebp)
    2e52:	83 c4 14             	add    $0x14,%esp
    2e55:	5b                   	pop    %ebx
    2e56:	5d                   	pop    %ebp
    2e57:	e9 a4 26 01 00       	jmp    15500 <async_exchange_begin>
    2e5c:	8d 74 26 00          	lea    0x0(%esi,%eiz,1),%esi
    2e60:	85 db                	test   %ebx,%ebx
    2e62:	74 94                	je     2df8 <loc_exchange_begin_blocking+0xf8>
    2e64:	89 1d 14 1c 02 00    	mov    %ebx,0x21c14
    2e6a:	eb 8c                	jmp    2df8 <loc_exchange_begin_blocking+0xf8>
    2e6c:	8d 74 26 00          	lea    0x0(%esi,%eiz,1),%esi
    2e70:	c7 44 24 0c 00 00 00 	movl   $0x0,0xc(%esp)
    2e77:	00 
    2e78:	c7 44 24 08 01 00 00 	movl   $0x1,0x8(%esp)
    2e7f:	00 
    2e80:	c7 44 24 04 6c 6f 63 	movl   $0x20636f6c,0x4(%esp)
    2e87:	20 
    2e88:	c7 04 24 02 00 00 00 	movl   $0x2,(%esp)
    2e8f:	e8 bc f9 00 00       	call   12850 <service_connect_blocking>
    2e94:	a3 0c 1c 02 00       	mov    %eax,0x21c0c
    2e99:	e9 93 fe ff ff       	jmp    2d31 <loc_exchange_begin_blocking+0x31>
    2e9e:	66 90                	xchg   %ax,%ax
    2ea0:	c7 44 24 0c 00 00 00 	movl   $0x0,0xc(%esp)
    2ea7:	00 
    2ea8:	c7 44 24 08 02 00 00 	movl   $0x2,0x8(%esp)
    2eaf:	00 
    2eb0:	c7 44 24 04 6c 6f 63 	movl   $0x20636f6c,0x4(%esp)
    2eb7:	20 
    2eb8:	c7 04 24 02 00 00 00 	movl   $0x2,(%esp)
    2ebf:	e8 8c f9 00 00       	call   12850 <service_connect_blocking>
    2ec4:	a3 14 1c 02 00       	mov    %eax,0x21c14
    2ec9:	e9 0b ff ff ff       	jmp    2dd9 <loc_exchange_begin_blocking+0xd9>
    2ece:	66 90                	xchg   %ax,%ax
    2ed0:	85 db                	test   %ebx,%ebx
    2ed2:	0f 84 bc fe ff ff    	je     2d94 <loc_exchange_begin_blocking+0x94>
    2ed8:	89 1d 08 1c 02 00    	mov    %ebx,0x21c08
    2ede:	e9 b1 fe ff ff       	jmp    2d94 <loc_exchange_begin_blocking+0x94>
    2ee3:	90                   	nop
    2ee4:	8d 74 26 00          	lea    0x0(%esi,%eiz,1),%esi
    2ee8:	85 db                	test   %ebx,%ebx
    2eea:	0f 84 4e ff ff ff    	je     2e3e <loc_exchange_begin_blocking+0x13e>
    2ef0:	89 1d 10 1c 02 00    	mov    %ebx,0x21c10
    2ef6:	e9 43 ff ff ff       	jmp    2e3e <loc_exchange_begin_blocking+0x13e>
    2efb:	90                   	nop
    2efc:	8d 74 26 00          	lea    0x0(%esi,%eiz,1),%esi

00002f00 <loc_exchange_begin>:
    2f00:	55                   	push   %ebp
    2f01:	89 e5                	mov    %esp,%ebp
    2f03:	83 ec 18             	sub    $0x18,%esp
    2f06:	8b 45 08             	mov    0x8(%ebp),%eax
    2f09:	83 f8 01             	cmp    $0x1,%eax
    2f0c:	74 0a                	je     2f18 <loc_exchange_begin+0x18>
    2f0e:	83 f8 02             	cmp    $0x2,%eax
    2f11:	74 3d                	je     2f50 <loc_exchange_begin+0x50>
    2f13:	31 c0                	xor    %eax,%eax
    2f15:	c9                   	leave  
    2f16:	c3                   	ret    
    2f17:	90                   	nop
    2f18:	c7 04 24 70 19 02 00 	movl   $0x21970,(%esp)
    2f1f:	e8 1c 62 00 00       	call   9140 <fibril_mutex_lock>
    2f24:	a1 08 1c 02 00       	mov    0x21c08,%eax
    2f29:	85 c0                	test   %eax,%eax
    2f2b:	74 5b                	je     2f88 <loc_exchange_begin+0x88>
    2f2d:	c7 04 24 70 19 02 00 	movl   $0x21970,(%esp)
    2f34:	e8 27 63 00 00       	call   9260 <fibril_mutex_unlock>
    2f39:	a1 08 1c 02 00       	mov    0x21c08,%eax
    2f3e:	85 c0                	test   %eax,%eax
    2f40:	74 d1                	je     2f13 <loc_exchange_begin+0x13>
    2f42:	89 45 08             	mov    %eax,0x8(%ebp)
    2f45:	c9                   	leave  
    2f46:	e9 b5 25 01 00       	jmp    15500 <async_exchange_begin>
    2f4b:	90                   	nop
    2f4c:	8d 74 26 00          	lea    0x0(%esi,%eiz,1),%esi
    2f50:	c7 04 24 90 19 02 00 	movl   $0x21990,(%esp)
    2f57:	e8 e4 61 00 00       	call   9140 <fibril_mutex_lock>
    2f5c:	a1 10 1c 02 00       	mov    0x21c10,%eax
    2f61:	85 c0                	test   %eax,%eax
    2f63:	74 53                	je     2fb8 <loc_exchange_begin+0xb8>
    2f65:	c7 04 24 90 19 02 00 	movl   $0x21990,(%esp)
    2f6c:	e8 ef 62 00 00       	call   9260 <fibril_mutex_unlock>
    2f71:	a1 10 1c 02 00       	mov    0x21c10,%eax
    2f76:	85 c0                	test   %eax,%eax
    2f78:	74 99                	je     2f13 <loc_exchange_begin+0x13>
    2f7a:	89 45 08             	mov    %eax,0x8(%ebp)
    2f7d:	c9                   	leave  
    2f7e:	e9 7d 25 01 00       	jmp    15500 <async_exchange_begin>
    2f83:	90                   	nop
    2f84:	8d 74 26 00          	lea    0x0(%esi,%eiz,1),%esi
    2f88:	c7 44 24 0c 00 00 00 	movl   $0x0,0xc(%esp)
    2f8f:	00 
    2f90:	c7 44 24 08 01 00 00 	movl   $0x1,0x8(%esp)
    2f97:	00 
    2f98:	c7 44 24 04 6c 6f 63 	movl   $0x20636f6c,0x4(%esp)
    2f9f:	20 
    2fa0:	c7 04 24 02 00 00 00 	movl   $0x2,(%esp)
    2fa7:	e8 24 f8 00 00       	call   127d0 <service_connect>
    2fac:	a3 08 1c 02 00       	mov    %eax,0x21c08
    2fb1:	e9 77 ff ff ff       	jmp    2f2d <loc_exchange_begin+0x2d>
    2fb6:	66 90                	xchg   %ax,%ax
    2fb8:	c7 44 24 0c 00 00 00 	movl   $0x0,0xc(%esp)
    2fbf:	00 
    2fc0:	c7 44 24 08 02 00 00 	movl   $0x2,0x8(%esp)
    2fc7:	00 
    2fc8:	c7 44 24 04 6c 6f 63 	movl   $0x20636f6c,0x4(%esp)
    2fcf:	20 
    2fd0:	c7 04 24 02 00 00 00 	movl   $0x2,(%esp)
    2fd7:	e8 f4 f7 00 00       	call   127d0 <service_connect>
    2fdc:	a3 10 1c 02 00       	mov    %eax,0x21c10
    2fe1:	eb 82                	jmp    2f65 <loc_exchange_begin+0x65>
    2fe3:	8d b6 00 00 00 00    	lea    0x0(%esi),%esi
    2fe9:	8d bc 27 00 00 00 00 	lea    0x0(%edi,%eiz,1),%edi

00002ff0 <loc_exchange_end>:
    2ff0:	55                   	push   %ebp
    2ff1:	89 e5                	mov    %esp,%ebp
    2ff3:	5d                   	pop    %ebp
    2ff4:	e9 77 28 01 00       	jmp    15870 <async_exchange_end>
    2ff9:	8d b4 26 00 00 00 00 	lea    0x0(%esi,%eiz,1),%esi

00003000 <loc_server_register>:
    3000:	55                   	push   %ebp
    3001:	89 e5                	mov    %esp,%ebp
    3003:	57                   	push   %edi
    3004:	56                   	push   %esi
    3005:	53                   	push   %ebx
    3006:	83 ec 5c             	sub    $0x5c,%esp
    3009:	8b 75 08             	mov    0x8(%ebp),%esi
    300c:	c7 04 24 60 19 02 00 	movl   $0x21960,(%esp)
    3013:	e8 28 61 00 00       	call   9140 <fibril_mutex_lock>
    3018:	a1 0c 1c 02 00       	mov    0x21c0c,%eax
    301d:	85 c0                	test   %eax,%eax
    301f:	75 38                	jne    3059 <loc_server_register+0x59>
    3021:	c7 04 24 70 19 02 00 	movl   $0x21970,(%esp)
    3028:	8b 1d 08 1c 02 00    	mov    0x21c08,%ebx
    302e:	e8 0d 61 00 00       	call   9140 <fibril_mutex_lock>
    3033:	a1 0c 1c 02 00       	mov    0x21c0c,%eax
    3038:	85 c0                	test   %eax,%eax
    303a:	0f 84 58 01 00 00    	je     3198 <loc_server_register+0x198>
    3040:	c7 04 24 70 19 02 00 	movl   $0x21970,(%esp)
    3047:	e8 14 62 00 00       	call   9260 <fibril_mutex_unlock>
    304c:	a1 0c 1c 02 00       	mov    0x21c0c,%eax
    3051:	85 c0                	test   %eax,%eax
    3053:	0f 84 57 01 00 00    	je     31b0 <loc_server_register+0x1b0>
    3059:	c7 04 24 60 19 02 00 	movl   $0x21960,(%esp)
    3060:	e8 fb 61 00 00       	call   9260 <fibril_mutex_unlock>
    3065:	c7 04 24 70 19 02 00 	movl   $0x21970,(%esp)
    306c:	8b 1d 0c 1c 02 00    	mov    0x21c0c,%ebx
    3072:	e8 c9 60 00 00       	call   9140 <fibril_mutex_lock>
    3077:	8b 3d 08 1c 02 00    	mov    0x21c08,%edi
    307d:	85 ff                	test   %edi,%edi
    307f:	0f 84 73 01 00 00    	je     31f8 <loc_server_register+0x1f8>
    3085:	c7 04 24 70 19 02 00 	movl   $0x21970,(%esp)
    308c:	e8 cf 61 00 00       	call   9260 <fibril_mutex_unlock>
    3091:	a1 0c 1c 02 00       	mov    0x21c0c,%eax
    3096:	89 04 24             	mov    %eax,(%esp)
    3099:	e8 62 24 01 00       	call   15500 <async_exchange_begin>
    309e:	c7 44 24 14 00 00 00 	movl   $0x0,0x14(%esp)
    30a5:	00 
    30a6:	89 c3                	mov    %eax,%ebx
    30a8:	8d 45 c4             	lea    -0x3c(%ebp),%eax
    30ab:	89 44 24 18          	mov    %eax,0x18(%esp)
    30af:	c7 44 24 10 00 00 00 	movl   $0x0,0x10(%esp)
    30b6:	00 
    30b7:	c7 44 24 0c 00 00 00 	movl   $0x0,0xc(%esp)
    30be:	00 
    30bf:	c7 44 24 08 00 00 00 	movl   $0x0,0x8(%esp)
    30c6:	00 
    30c7:	c7 44 24 04 00 04 00 	movl   $0x400,0x4(%esp)
    30ce:	00 
    30cf:	89 1c 24             	mov    %ebx,(%esp)
    30d2:	e8 c9 0d 01 00       	call   13ea0 <async_send_fast>
    30d7:	89 34 24             	mov    %esi,(%esp)
    30da:	89 c7                	mov    %eax,%edi
    30dc:	e8 3f 2e 00 00       	call   5f20 <str_size>
    30e1:	89 74 24 04          	mov    %esi,0x4(%esp)
    30e5:	89 44 24 08          	mov    %eax,0x8(%esp)
    30e9:	89 1c 24             	mov    %ebx,(%esp)
    30ec:	e8 ff 32 01 00       	call   163f0 <async_data_write_start>
    30f1:	89 1c 24             	mov    %ebx,(%esp)
    30f4:	89 45 c0             	mov    %eax,-0x40(%ebp)
    30f7:	e8 74 27 01 00       	call   15870 <async_exchange_end>
    30fc:	8b 4d c0             	mov    -0x40(%ebp),%ecx
    30ff:	85 c9                	test   %ecx,%ecx
    3101:	0f 85 d9 00 00 00    	jne    31e0 <loc_server_register+0x1e0>
    3107:	c7 04 24 70 19 02 00 	movl   $0x21970,(%esp)
    310e:	e8 2d 60 00 00       	call   9140 <fibril_mutex_lock>
    3113:	8b 15 08 1c 02 00    	mov    0x21c08,%edx
    3119:	85 d2                	test   %edx,%edx
    311b:	0f 84 ea 00 00 00    	je     320b <loc_server_register+0x20b>
    3121:	c7 04 24 70 19 02 00 	movl   $0x21970,(%esp)
    3128:	e8 33 61 00 00       	call   9260 <fibril_mutex_unlock>
    312d:	a1 08 1c 02 00       	mov    0x21c08,%eax
    3132:	85 c0                	test   %eax,%eax
    3134:	0f 84 ff 00 00 00    	je     3239 <loc_server_register+0x239>
    313a:	89 04 24             	mov    %eax,(%esp)
    313d:	e8 be 23 01 00       	call   15500 <async_exchange_begin>
    3142:	89 c3                	mov    %eax,%ebx
    3144:	89 1c 24             	mov    %ebx,(%esp)
    3147:	c7 44 24 14 00 00 00 	movl   $0x0,0x14(%esp)
    314e:	00 
    314f:	c7 44 24 10 00 00 00 	movl   $0x0,0x10(%esp)
    3156:	00 
    3157:	c7 44 24 0c 00 00 00 	movl   $0x0,0xc(%esp)
    315e:	00 
    315f:	c7 44 24 08 00 00 00 	movl   $0x0,0x8(%esp)
    3166:	00 
    3167:	c7 44 24 04 00 00 00 	movl   $0x0,0x4(%esp)
    316e:	00 
    316f:	e8 2c 1b 01 00       	call   14ca0 <async_connect_to_me>
    3174:	89 1c 24             	mov    %ebx,(%esp)
    3177:	e8 f4 26 01 00       	call   15870 <async_exchange_end>
    317c:	8d 45 c0             	lea    -0x40(%ebp),%eax
    317f:	89 44 24 04          	mov    %eax,0x4(%esp)
    3183:	89 3c 24             	mov    %edi,(%esp)
    3186:	e8 e5 0e 01 00       	call   14070 <async_wait_for>
    318b:	8b 45 c0             	mov    -0x40(%ebp),%eax
    318e:	83 c4 5c             	add    $0x5c,%esp
    3191:	5b                   	pop    %ebx
    3192:	5e                   	pop    %esi
    3193:	5f                   	pop    %edi
    3194:	5d                   	pop    %ebp
    3195:	c3                   	ret    
    3196:	66 90                	xchg   %ax,%ax
    3198:	85 db                	test   %ebx,%ebx
    319a:	0f 84 a0 fe ff ff    	je     3040 <loc_server_register+0x40>
    31a0:	89 1d 0c 1c 02 00    	mov    %ebx,0x21c0c
    31a6:	e9 95 fe ff ff       	jmp    3040 <loc_server_register+0x40>
    31ab:	90                   	nop
    31ac:	8d 74 26 00          	lea    0x0(%esi,%eiz,1),%esi
    31b0:	c7 44 24 0c 00 00 00 	movl   $0x0,0xc(%esp)
    31b7:	00 
    31b8:	c7 44 24 08 01 00 00 	movl   $0x1,0x8(%esp)
    31bf:	00 
    31c0:	c7 44 24 04 6c 6f 63 	movl   $0x20636f6c,0x4(%esp)
    31c7:	20 
    31c8:	c7 04 24 02 00 00 00 	movl   $0x2,(%esp)
    31cf:	e8 7c f6 00 00       	call   12850 <service_connect_blocking>
    31d4:	a3 0c 1c 02 00       	mov    %eax,0x21c0c
    31d9:	e9 3f fe ff ff       	jmp    301d <loc_server_register+0x1d>
    31de:	66 90                	xchg   %ax,%ax
    31e0:	89 3c 24             	mov    %edi,(%esp)
    31e3:	e8 d8 10 01 00       	call   142c0 <async_forget>
    31e8:	8b 45 c0             	mov    -0x40(%ebp),%eax
    31eb:	83 c4 5c             	add    $0x5c,%esp
    31ee:	5b                   	pop    %ebx
    31ef:	5e                   	pop    %esi
    31f0:	5f                   	pop    %edi
    31f1:	5d                   	pop    %ebp
    31f2:	c3                   	ret    
    31f3:	90                   	nop
    31f4:	8d 74 26 00          	lea    0x0(%esi,%eiz,1),%esi
    31f8:	85 db                	test   %ebx,%ebx
    31fa:	0f 84 85 fe ff ff    	je     3085 <loc_server_register+0x85>
    3200:	89 1d 08 1c 02 00    	mov    %ebx,0x21c08
    3206:	e9 7a fe ff ff       	jmp    3085 <loc_server_register+0x85>
    320b:	c7 44 24 0c 00 00 00 	movl   $0x0,0xc(%esp)
    3212:	00 
    3213:	c7 44 24 08 01 00 00 	movl   $0x1,0x8(%esp)
    321a:	00 
    321b:	c7 44 24 04 6c 6f 63 	movl   $0x20636f6c,0x4(%esp)
    3222:	20 
    3223:	c7 04 24 02 00 00 00 	movl   $0x2,(%esp)
    322a:	e8 a1 f5 00 00       	call   127d0 <service_connect>
    322f:	a3 08 1c 02 00       	mov    %eax,0x21c08
    3234:	e9 e8 fe ff ff       	jmp    3121 <loc_server_register+0x121>
    3239:	31 db                	xor    %ebx,%ebx
    323b:	e9 04 ff ff ff       	jmp    3144 <loc_server_register+0x144>

00003240 <loc_service_register_with_iface>:
    3240:	55                   	push   %ebp
    3241:	89 e5                	mov    %esp,%ebp
    3243:	57                   	push   %edi
    3244:	56                   	push   %esi
    3245:	53                   	push   %ebx
    3246:	83 ec 5c             	sub    $0x5c,%esp
    3249:	8b 75 08             	mov    0x8(%ebp),%esi
    324c:	c7 04 24 60 19 02 00 	movl   $0x21960,(%esp)
    3253:	e8 e8 5e 00 00       	call   9140 <fibril_mutex_lock>
    3258:	a1 0c 1c 02 00       	mov    0x21c0c,%eax
    325d:	85 c0                	test   %eax,%eax
    325f:	75 38                	jne    3299 <loc_service_register_with_iface+0x59>
    3261:	c7 04 24 70 19 02 00 	movl   $0x21970,(%esp)
    3268:	8b 1d 08 1c 02 00    	mov    0x21c08,%ebx
    326e:	e8 cd 5e 00 00       	call   9140 <fibril_mutex_lock>
    3273:	a1 0c 1c 02 00       	mov    0x21c0c,%eax
    3278:	85 c0                	test   %eax,%eax
    327a:	0f 84 f8 00 00 00    	je     3378 <loc_service_register_with_iface+0x138>
    3280:	c7 04 24 70 19 02 00 	movl   $0x21970,(%esp)
    3287:	e8 d4 5f 00 00       	call   9260 <fibril_mutex_unlock>
    328c:	a1 0c 1c 02 00       	mov    0x21c0c,%eax
    3291:	85 c0                	test   %eax,%eax
    3293:	0f 84 f7 00 00 00    	je     3390 <loc_service_register_with_iface+0x150>
    3299:	c7 04 24 60 19 02 00 	movl   $0x21960,(%esp)
    32a0:	e8 bb 5f 00 00       	call   9260 <fibril_mutex_unlock>
    32a5:	c7 04 24 70 19 02 00 	movl   $0x21970,(%esp)
    32ac:	8b 1d 0c 1c 02 00    	mov    0x21c0c,%ebx
    32b2:	e8 89 5e 00 00       	call   9140 <fibril_mutex_lock>
    32b7:	8b 3d 08 1c 02 00    	mov    0x21c08,%edi
    32bd:	85 ff                	test   %edi,%edi
    32bf:	0f 84 33 01 00 00    	je     33f8 <loc_service_register_with_iface+0x1b8>
    32c5:	c7 04 24 70 19 02 00 	movl   $0x21970,(%esp)
    32cc:	e8 8f 5f 00 00       	call   9260 <fibril_mutex_unlock>
    32d1:	a1 0c 1c 02 00       	mov    0x21c0c,%eax
    32d6:	89 04 24             	mov    %eax,(%esp)
    32d9:	e8 22 22 01 00       	call   15500 <async_exchange_begin>
    32de:	c7 44 24 14 00 00 00 	movl   $0x0,0x14(%esp)
    32e5:	00 
    32e6:	89 c7                	mov    %eax,%edi
    32e8:	8d 45 c4             	lea    -0x3c(%ebp),%eax
    32eb:	89 44 24 18          	mov    %eax,0x18(%esp)
    32ef:	8b 45 10             	mov    0x10(%ebp),%eax
    32f2:	c7 44 24 10 00 00 00 	movl   $0x0,0x10(%esp)
    32f9:	00 
    32fa:	c7 44 24 0c 00 00 00 	movl   $0x0,0xc(%esp)
    3301:	00 
    3302:	89 44 24 08          	mov    %eax,0x8(%esp)
    3306:	c7 44 24 04 03 04 00 	movl   $0x403,0x4(%esp)
    330d:	00 
    330e:	89 3c 24             	mov    %edi,(%esp)
    3311:	e8 8a 0b 01 00       	call   13ea0 <async_send_fast>
    3316:	89 34 24             	mov    %esi,(%esp)
    3319:	89 c3                	mov    %eax,%ebx
    331b:	e8 00 2c 00 00       	call   5f20 <str_size>
    3320:	89 74 24 04          	mov    %esi,0x4(%esp)
    3324:	89 44 24 08          	mov    %eax,0x8(%esp)
    3328:	89 3c 24             	mov    %edi,(%esp)
    332b:	e8 c0 30 01 00       	call   163f0 <async_data_write_start>
    3330:	89 3c 24             	mov    %edi,(%esp)
    3333:	89 45 c0             	mov    %eax,-0x40(%ebp)
    3336:	e8 35 25 01 00       	call   15870 <async_exchange_end>
    333b:	8b 4d c0             	mov    -0x40(%ebp),%ecx
    333e:	85 c9                	test   %ecx,%ecx
    3340:	0f 85 9a 00 00 00    	jne    33e0 <loc_service_register_with_iface+0x1a0>
    3346:	8d 45 c0             	lea    -0x40(%ebp),%eax
    3349:	89 1c 24             	mov    %ebx,(%esp)
    334c:	89 44 24 04          	mov    %eax,0x4(%esp)
    3350:	e8 1b 0d 01 00       	call   14070 <async_wait_for>
    3355:	8b 45 c0             	mov    -0x40(%ebp),%eax
    3358:	85 c0                	test   %eax,%eax
    335a:	74 64                	je     33c0 <loc_service_register_with_iface+0x180>
    335c:	8b 55 0c             	mov    0xc(%ebp),%edx
    335f:	85 d2                	test   %edx,%edx
    3361:	74 09                	je     336c <loc_service_register_with_iface+0x12c>
    3363:	8b 55 0c             	mov    0xc(%ebp),%edx
    3366:	c7 02 ff ff ff ff    	movl   $0xffffffff,(%edx)
    336c:	83 c4 5c             	add    $0x5c,%esp
    336f:	5b                   	pop    %ebx
    3370:	5e                   	pop    %esi
    3371:	5f                   	pop    %edi
    3372:	5d                   	pop    %ebp
    3373:	c3                   	ret    
    3374:	8d 74 26 00          	lea    0x0(%esi,%eiz,1),%esi
    3378:	85 db                	test   %ebx,%ebx
    337a:	0f 84 00 ff ff ff    	je     3280 <loc_service_register_with_iface+0x40>
    3380:	89 1d 0c 1c 02 00    	mov    %ebx,0x21c0c
    3386:	e9 f5 fe ff ff       	jmp    3280 <loc_service_register_with_iface+0x40>
    338b:	90                   	nop
    338c:	8d 74 26 00          	lea    0x0(%esi,%eiz,1),%esi
    3390:	c7 44 24 0c 00 00 00 	movl   $0x0,0xc(%esp)
    3397:	00 
    3398:	c7 44 24 08 01 00 00 	movl   $0x1,0x8(%esp)
    339f:	00 
    33a0:	c7 44 24 04 6c 6f 63 	movl   $0x20636f6c,0x4(%esp)
    33a7:	20 
    33a8:	c7 04 24 02 00 00 00 	movl   $0x2,(%esp)
    33af:	e8 9c f4 00 00       	call   12850 <service_connect_blocking>
    33b4:	a3 0c 1c 02 00       	mov    %eax,0x21c0c
    33b9:	e9 9f fe ff ff       	jmp    325d <loc_service_register_with_iface+0x1d>
    33be:	66 90                	xchg   %ax,%ax
    33c0:	8b 45 0c             	mov    0xc(%ebp),%eax
    33c3:	85 c0                	test   %eax,%eax
    33c5:	74 08                	je     33cf <loc_service_register_with_iface+0x18f>
    33c7:	8b 55 0c             	mov    0xc(%ebp),%edx
    33ca:	8b 45 c8             	mov    -0x38(%ebp),%eax
    33cd:	89 02                	mov    %eax,(%edx)
    33cf:	83 c4 5c             	add    $0x5c,%esp
    33d2:	31 c0                	xor    %eax,%eax
    33d4:	5b                   	pop    %ebx
    33d5:	5e                   	pop    %esi
    33d6:	5f                   	pop    %edi
    33d7:	5d                   	pop    %ebp
    33d8:	c3                   	ret    
    33d9:	8d b4 26 00 00 00 00 	lea    0x0(%esi,%eiz,1),%esi
    33e0:	89 1c 24             	mov    %ebx,(%esp)
    33e3:	e8 d8 0e 01 00       	call   142c0 <async_forget>
    33e8:	8b 45 c0             	mov    -0x40(%ebp),%eax
    33eb:	83 c4 5c             	add    $0x5c,%esp
    33ee:	5b                   	pop    %ebx
    33ef:	5e                   	pop    %esi
    33f0:	5f                   	pop    %edi
    33f1:	5d                   	pop    %ebp
    33f2:	c3                   	ret    
    33f3:	90                   	nop
    33f4:	8d 74 26 00          	lea    0x0(%esi,%eiz,1),%esi
    33f8:	85 db                	test   %ebx,%ebx
    33fa:	0f 84 c5 fe ff ff    	je     32c5 <loc_service_register_with_iface+0x85>
    3400:	89 1d 08 1c 02 00    	mov    %ebx,0x21c08
    3406:	e9 ba fe ff ff       	jmp    32c5 <loc_service_register_with_iface+0x85>
    340b:	90                   	nop
    340c:	8d 74 26 00          	lea    0x0(%esi,%eiz,1),%esi

00003410 <loc_service_register>:
    3410:	55                   	push   %ebp
    3411:	89 e5                	mov    %esp,%ebp
    3413:	57                   	push   %edi
    3414:	56                   	push   %esi
    3415:	53                   	push   %ebx
    3416:	83 ec 5c             	sub    $0x5c,%esp
    3419:	8b 75 08             	mov    0x8(%ebp),%esi
    341c:	c7 04 24 60 19 02 00 	movl   $0x21960,(%esp)
    3423:	e8 18 5d 00 00       	call   9140 <fibril_mutex_lock>
    3428:	a1 0c 1c 02 00       	mov    0x21c0c,%eax
    342d:	85 c0                	test   %eax,%eax
    342f:	75 38                	jne    3469 <loc_service_register+0x59>
    3431:	c7 04 24 70 19 02 00 	movl   $0x21970,(%esp)
    3438:	8b 1d 08 1c 02 00    	mov    0x21c08,%ebx
    343e:	e8 fd 5c 00 00       	call   9140 <fibril_mutex_lock>
    3443:	a1 0c 1c 02 00       	mov    0x21c0c,%eax
    3448:	85 c0                	test   %eax,%eax
    344a:	0f 84 f8 00 00 00    	je     3548 <loc_service_register+0x138>
    3450:	c7 04 24 70 19 02 00 	movl   $0x21970,(%esp)
    3457:	e8 04 5e 00 00       	call   9260 <fibril_mutex_unlock>
    345c:	a1 0c 1c 02 00       	mov    0x21c0c,%eax
    3461:	85 c0                	test   %eax,%eax
    3463:	0f 84 f7 00 00 00    	je     3560 <loc_service_register+0x150>
    3469:	c7 04 24 60 19 02 00 	movl   $0x21960,(%esp)
    3470:	e8 eb 5d 00 00       	call   9260 <fibril_mutex_unlock>
    3475:	c7 04 24 70 19 02 00 	movl   $0x21970,(%esp)
    347c:	8b 1d 0c 1c 02 00    	mov    0x21c0c,%ebx
    3482:	e8 b9 5c 00 00       	call   9140 <fibril_mutex_lock>
    3487:	8b 3d 08 1c 02 00    	mov    0x21c08,%edi
    348d:	85 ff                	test   %edi,%edi
    348f:	0f 84 33 01 00 00    	je     35c8 <loc_service_register+0x1b8>
    3495:	c7 04 24 70 19 02 00 	movl   $0x21970,(%esp)
    349c:	e8 bf 5d 00 00       	call   9260 <fibril_mutex_unlock>
    34a1:	a1 0c 1c 02 00       	mov    0x21c0c,%eax
    34a6:	89 04 24             	mov    %eax,(%esp)
    34a9:	e8 52 20 01 00       	call   15500 <async_exchange_begin>
    34ae:	c7 44 24 14 00 00 00 	movl   $0x0,0x14(%esp)
    34b5:	00 
    34b6:	89 c7                	mov    %eax,%edi
    34b8:	8d 45 c4             	lea    -0x3c(%ebp),%eax
    34bb:	89 44 24 18          	mov    %eax,0x18(%esp)
    34bf:	c7 44 24 10 00 00 00 	movl   $0x0,0x10(%esp)
    34c6:	00 
    34c7:	c7 44 24 0c 00 00 00 	movl   $0x0,0xc(%esp)
    34ce:	00 
    34cf:	c7 44 24 08 00 00 00 	movl   $0x0,0x8(%esp)
    34d6:	00 
    34d7:	c7 44 24 04 03 04 00 	movl   $0x403,0x4(%esp)
    34de:	00 
    34df:	89 3c 24             	mov    %edi,(%esp)
    34e2:	e8 b9 09 01 00       	call   13ea0 <async_send_fast>
    34e7:	89 34 24             	mov    %esi,(%esp)
    34ea:	89 c3                	mov    %eax,%ebx
    34ec:	e8 2f 2a 00 00       	call   5f20 <str_size>
    34f1:	89 74 24 04          	mov    %esi,0x4(%esp)
    34f5:	89 44 24 08          	mov    %eax,0x8(%esp)
    34f9:	89 3c 24             	mov    %edi,(%esp)
    34fc:	e8 ef 2e 01 00       	call   163f0 <async_data_write_start>
    3501:	89 3c 24             	mov    %edi,(%esp)
    3504:	89 45 c0             	mov    %eax,-0x40(%ebp)
    3507:	e8 64 23 01 00       	call   15870 <async_exchange_end>
    350c:	8b 4d c0             	mov    -0x40(%ebp),%ecx
    350f:	85 c9                	test   %ecx,%ecx
    3511:	0f 85 99 00 00 00    	jne    35b0 <loc_service_register+0x1a0>
    3517:	8d 45 c0             	lea    -0x40(%ebp),%eax
    351a:	89 1c 24             	mov    %ebx,(%esp)
    351d:	89 44 24 04          	mov    %eax,0x4(%esp)
    3521:	e8 4a 0b 01 00       	call   14070 <async_wait_for>
    3526:	8b 45 c0             	mov    -0x40(%ebp),%eax
    3529:	85 c0                	test   %eax,%eax
    352b:	74 63                	je     3590 <loc_service_register+0x180>
    352d:	8b 55 0c             	mov    0xc(%ebp),%edx
    3530:	85 d2                	test   %edx,%edx
    3532:	74 09                	je     353d <loc_service_register+0x12d>
    3534:	8b 55 0c             	mov    0xc(%ebp),%edx
    3537:	c7 02 ff ff ff ff    	movl   $0xffffffff,(%edx)
    353d:	83 c4 5c             	add    $0x5c,%esp
    3540:	5b                   	pop    %ebx
    3541:	5e                   	pop    %esi
    3542:	5f                   	pop    %edi
    3543:	5d                   	pop    %ebp
    3544:	c3                   	ret    
    3545:	8d 76 00             	lea    0x0(%esi),%esi
    3548:	85 db                	test   %ebx,%ebx
    354a:	0f 84 00 ff ff ff    	je     3450 <loc_service_register+0x40>
    3550:	89 1d 0c 1c 02 00    	mov    %ebx,0x21c0c
    3556:	e9 f5 fe ff ff       	jmp    3450 <loc_service_register+0x40>
    355b:	90                   	nop
    355c:	8d 74 26 00          	lea    0x0(%esi,%eiz,1),%esi
    3560:	c7 44 24 0c 00 00 00 	movl   $0x0,0xc(%esp)
    3567:	00 
    3568:	c7 44 24 08 01 00 00 	movl   $0x1,0x8(%esp)
    356f:	00 
    3570:	c7 44 24 04 6c 6f 63 	movl   $0x20636f6c,0x4(%esp)
    3577:	20 
    3578:	c7 04 24 02 00 00 00 	movl   $0x2,(%esp)
    357f:	e8 cc f2 00 00       	call   12850 <service_connect_blocking>
    3584:	a3 0c 1c 02 00       	mov    %eax,0x21c0c
    3589:	e9 9f fe ff ff       	jmp    342d <loc_service_register+0x1d>
    358e:	66 90                	xchg   %ax,%ax
    3590:	8b 45 0c             	mov    0xc(%ebp),%eax
    3593:	85 c0                	test   %eax,%eax
    3595:	74 08                	je     359f <loc_service_register+0x18f>
    3597:	8b 55 0c             	mov    0xc(%ebp),%edx
    359a:	8b 45 c8             	mov    -0x38(%ebp),%eax
    359d:	89 02                	mov    %eax,(%edx)
    359f:	83 c4 5c             	add    $0x5c,%esp
    35a2:	31 c0                	xor    %eax,%eax
    35a4:	5b                   	pop    %ebx
    35a5:	5e                   	pop    %esi
    35a6:	5f                   	pop    %edi
    35a7:	5d                   	pop    %ebp
    35a8:	c3                   	ret    
    35a9:	8d b4 26 00 00 00 00 	lea    0x0(%esi,%eiz,1),%esi
    35b0:	89 1c 24             	mov    %ebx,(%esp)
    35b3:	e8 08 0d 01 00       	call   142c0 <async_forget>
    35b8:	8b 45 c0             	mov    -0x40(%ebp),%eax
    35bb:	83 c4 5c             	add    $0x5c,%esp
    35be:	5b                   	pop    %ebx
    35bf:	5e                   	pop    %esi
    35c0:	5f                   	pop    %edi
    35c1:	5d                   	pop    %ebp
    35c2:	c3                   	ret    
    35c3:	90                   	nop
    35c4:	8d 74 26 00          	lea    0x0(%esi,%eiz,1),%esi
    35c8:	85 db                	test   %ebx,%ebx
    35ca:	0f 84 c5 fe ff ff    	je     3495 <loc_service_register+0x85>
    35d0:	89 1d 08 1c 02 00    	mov    %ebx,0x21c08
    35d6:	e9 ba fe ff ff       	jmp    3495 <loc_service_register+0x85>
    35db:	90                   	nop
    35dc:	8d 74 26 00          	lea    0x0(%esi,%eiz,1),%esi

000035e0 <loc_service_unregister>:
    35e0:	55                   	push   %ebp
    35e1:	89 e5                	mov    %esp,%ebp
    35e3:	53                   	push   %ebx
    35e4:	83 ec 44             	sub    $0x44,%esp
    35e7:	c7 04 24 60 19 02 00 	movl   $0x21960,(%esp)
    35ee:	e8 4d 5b 00 00       	call   9140 <fibril_mutex_lock>
    35f3:	a1 0c 1c 02 00       	mov    0x21c0c,%eax
    35f8:	85 c0                	test   %eax,%eax
    35fa:	75 38                	jne    3634 <loc_service_unregister+0x54>
    35fc:	c7 04 24 70 19 02 00 	movl   $0x21970,(%esp)
    3603:	8b 1d 08 1c 02 00    	mov    0x21c08,%ebx
    3609:	e8 32 5b 00 00       	call   9140 <fibril_mutex_lock>
    360e:	a1 0c 1c 02 00       	mov    0x21c0c,%eax
    3613:	85 c0                	test   %eax,%eax
    3615:	0f 84 cd 00 00 00    	je     36e8 <loc_service_unregister+0x108>
    361b:	c7 04 24 70 19 02 00 	movl   $0x21970,(%esp)
    3622:	e8 39 5c 00 00       	call   9260 <fibril_mutex_unlock>
    3627:	a1 0c 1c 02 00       	mov    0x21c0c,%eax
    362c:	85 c0                	test   %eax,%eax
    362e:	0f 84 cc 00 00 00    	je     3700 <loc_service_unregister+0x120>
    3634:	c7 04 24 60 19 02 00 	movl   $0x21960,(%esp)
    363b:	e8 20 5c 00 00       	call   9260 <fibril_mutex_unlock>
    3640:	c7 04 24 70 19 02 00 	movl   $0x21970,(%esp)
    3647:	8b 1d 0c 1c 02 00    	mov    0x21c0c,%ebx
    364d:	e8 ee 5a 00 00       	call   9140 <fibril_mutex_lock>
    3652:	a1 08 1c 02 00       	mov    0x21c08,%eax
    3657:	85 c0                	test   %eax,%eax
    3659:	0f 84 d1 00 00 00    	je     3730 <loc_service_unregister+0x150>
    365f:	c7 04 24 70 19 02 00 	movl   $0x21970,(%esp)
    3666:	e8 f5 5b 00 00       	call   9260 <fibril_mutex_unlock>
    366b:	a1 0c 1c 02 00       	mov    0x21c0c,%eax
    3670:	89 04 24             	mov    %eax,(%esp)
    3673:	e8 88 1e 01 00       	call   15500 <async_exchange_begin>
    3678:	c7 44 24 28 00 00 00 	movl   $0x0,0x28(%esp)
    367f:	00 
    3680:	89 c3                	mov    %eax,%ebx
    3682:	8b 45 08             	mov    0x8(%ebp),%eax
    3685:	89 1c 24             	mov    %ebx,(%esp)
    3688:	c7 44 24 24 00 00 00 	movl   $0x0,0x24(%esp)
    368f:	00 
    3690:	c7 44 24 20 00 00 00 	movl   $0x0,0x20(%esp)
    3697:	00 
    3698:	c7 44 24 1c 00 00 00 	movl   $0x0,0x1c(%esp)
    369f:	00 
    36a0:	c7 44 24 18 00 00 00 	movl   $0x0,0x18(%esp)
    36a7:	00 
    36a8:	c7 44 24 14 00 00 00 	movl   $0x0,0x14(%esp)
    36af:	00 
    36b0:	c7 44 24 10 00 00 00 	movl   $0x0,0x10(%esp)
    36b7:	00 
    36b8:	c7 44 24 0c 00 00 00 	movl   $0x0,0xc(%esp)
    36bf:	00 
    36c0:	89 44 24 08          	mov    %eax,0x8(%esp)
    36c4:	c7 44 24 04 04 04 00 	movl   $0x404,0x4(%esp)
    36cb:	00 
    36cc:	e8 df 0d 01 00       	call   144b0 <async_req_fast>
    36d1:	89 1c 24             	mov    %ebx,(%esp)
    36d4:	89 45 f4             	mov    %eax,-0xc(%ebp)
    36d7:	e8 94 21 01 00       	call   15870 <async_exchange_end>
    36dc:	8b 45 f4             	mov    -0xc(%ebp),%eax
    36df:	83 c4 44             	add    $0x44,%esp
    36e2:	5b                   	pop    %ebx
    36e3:	5d                   	pop    %ebp
    36e4:	c3                   	ret    
    36e5:	8d 76 00             	lea    0x0(%esi),%esi
    36e8:	85 db                	test   %ebx,%ebx
    36ea:	0f 84 2b ff ff ff    	je     361b <loc_service_unregister+0x3b>
    36f0:	89 1d 0c 1c 02 00    	mov    %ebx,0x21c0c
    36f6:	e9 20 ff ff ff       	jmp    361b <loc_service_unregister+0x3b>
    36fb:	90                   	nop
    36fc:	8d 74 26 00          	lea    0x0(%esi,%eiz,1),%esi
    3700:	c7 44 24 0c 00 00 00 	movl   $0x0,0xc(%esp)
    3707:	00 
    3708:	c7 44 24 08 01 00 00 	movl   $0x1,0x8(%esp)
    370f:	00 
    3710:	c7 44 24 04 6c 6f 63 	movl   $0x20636f6c,0x4(%esp)
    3717:	20 
    3718:	c7 04 24 02 00 00 00 	movl   $0x2,(%esp)
    371f:	e8 2c f1 00 00       	call   12850 <service_connect_blocking>
    3724:	a3 0c 1c 02 00       	mov    %eax,0x21c0c
    3729:	e9 ca fe ff ff       	jmp    35f8 <loc_service_unregister+0x18>
    372e:	66 90                	xchg   %ax,%ax
    3730:	85 db                	test   %ebx,%ebx
    3732:	0f 84 27 ff ff ff    	je     365f <loc_service_unregister+0x7f>
    3738:	89 1d 08 1c 02 00    	mov    %ebx,0x21c08
    373e:	e9 1c ff ff ff       	jmp    365f <loc_service_unregister+0x7f>
    3743:	8d b6 00 00 00 00    	lea    0x0(%esi),%esi
    3749:	8d bc 27 00 00 00 00 	lea    0x0(%edi,%eiz,1),%edi

00003750 <loc_service_get_id>:
    3750:	55                   	push   %ebp
    3751:	89 e5                	mov    %esp,%ebp
    3753:	57                   	push   %edi
    3754:	56                   	push   %esi
    3755:	53                   	push   %ebx
    3756:	83 ec 5c             	sub    $0x5c,%esp
    3759:	8b 75 10             	mov    0x10(%ebp),%esi
    375c:	8b 7d 08             	mov    0x8(%ebp),%edi
    375f:	f7 c6 01 00 00 00    	test   $0x1,%esi
    3765:	0f 84 45 01 00 00    	je     38b0 <loc_service_get_id+0x160>
    376b:	c7 04 24 80 19 02 00 	movl   $0x21980,(%esp)
    3772:	e8 c9 59 00 00       	call   9140 <fibril_mutex_lock>
    3777:	a1 14 1c 02 00       	mov    0x21c14,%eax
    377c:	85 c0                	test   %eax,%eax
    377e:	75 38                	jne    37b8 <loc_service_get_id+0x68>
    3780:	c7 04 24 90 19 02 00 	movl   $0x21990,(%esp)
    3787:	8b 1d 10 1c 02 00    	mov    0x21c10,%ebx
    378d:	e8 ae 59 00 00       	call   9140 <fibril_mutex_lock>
    3792:	a1 14 1c 02 00       	mov    0x21c14,%eax
    3797:	85 c0                	test   %eax,%eax
    3799:	0f 84 f9 00 00 00    	je     3898 <loc_service_get_id+0x148>
    379f:	c7 04 24 90 19 02 00 	movl   $0x21990,(%esp)
    37a6:	e8 b5 5a 00 00       	call   9260 <fibril_mutex_unlock>
    37ab:	a1 14 1c 02 00       	mov    0x21c14,%eax
    37b0:	85 c0                	test   %eax,%eax
    37b2:	0f 84 68 01 00 00    	je     3920 <loc_service_get_id+0x1d0>
    37b8:	c7 04 24 80 19 02 00 	movl   $0x21980,(%esp)
    37bf:	e8 9c 5a 00 00       	call   9260 <fibril_mutex_unlock>
    37c4:	c7 04 24 90 19 02 00 	movl   $0x21990,(%esp)
    37cb:	8b 1d 14 1c 02 00    	mov    0x21c14,%ebx
    37d1:	e8 6a 59 00 00       	call   9140 <fibril_mutex_lock>
    37d6:	a1 10 1c 02 00       	mov    0x21c10,%eax
    37db:	85 c0                	test   %eax,%eax
    37dd:	0f 84 85 01 00 00    	je     3968 <loc_service_get_id+0x218>
    37e3:	c7 04 24 90 19 02 00 	movl   $0x21990,(%esp)
    37ea:	e8 71 5a 00 00       	call   9260 <fibril_mutex_unlock>
    37ef:	a1 14 1c 02 00       	mov    0x21c14,%eax
    37f4:	89 04 24             	mov    %eax,(%esp)
    37f7:	e8 04 1d 01 00       	call   15500 <async_exchange_begin>
    37fc:	89 c3                	mov    %eax,%ebx
    37fe:	8d 45 c4             	lea    -0x3c(%ebp),%eax
    3801:	89 74 24 08          	mov    %esi,0x8(%esp)
    3805:	89 44 24 18          	mov    %eax,0x18(%esp)
    3809:	c7 44 24 14 00 00 00 	movl   $0x0,0x14(%esp)
    3810:	00 
    3811:	c7 44 24 10 00 00 00 	movl   $0x0,0x10(%esp)
    3818:	00 
    3819:	c7 44 24 0c 00 00 00 	movl   $0x0,0xc(%esp)
    3820:	00 
    3821:	c7 44 24 04 05 04 00 	movl   $0x405,0x4(%esp)
    3828:	00 
    3829:	89 1c 24             	mov    %ebx,(%esp)
    382c:	e8 6f 06 01 00       	call   13ea0 <async_send_fast>
    3831:	89 3c 24             	mov    %edi,(%esp)
    3834:	89 c6                	mov    %eax,%esi
    3836:	e8 e5 26 00 00       	call   5f20 <str_size>
    383b:	89 7c 24 04          	mov    %edi,0x4(%esp)
    383f:	89 44 24 08          	mov    %eax,0x8(%esp)
    3843:	89 1c 24             	mov    %ebx,(%esp)
    3846:	e8 a5 2b 01 00       	call   163f0 <async_data_write_start>
    384b:	89 1c 24             	mov    %ebx,(%esp)
    384e:	89 45 c0             	mov    %eax,-0x40(%ebp)
    3851:	e8 1a 20 01 00       	call   15870 <async_exchange_end>
    3856:	8b 4d c0             	mov    -0x40(%ebp),%ecx
    3859:	85 c9                	test   %ecx,%ecx
    385b:	0f 85 ef 00 00 00    	jne    3950 <loc_service_get_id+0x200>
    3861:	8d 45 c0             	lea    -0x40(%ebp),%eax
    3864:	89 34 24             	mov    %esi,(%esp)
    3867:	89 44 24 04          	mov    %eax,0x4(%esp)
    386b:	e8 00 08 01 00       	call   14070 <async_wait_for>
    3870:	8b 45 c0             	mov    -0x40(%ebp),%eax
    3873:	85 c0                	test   %eax,%eax
    3875:	0f 84 85 00 00 00    	je     3900 <loc_service_get_id+0x1b0>
    387b:	8b 55 0c             	mov    0xc(%ebp),%edx
    387e:	85 d2                	test   %edx,%edx
    3880:	74 09                	je     388b <loc_service_get_id+0x13b>
    3882:	8b 55 0c             	mov    0xc(%ebp),%edx
    3885:	c7 02 ff ff ff ff    	movl   $0xffffffff,(%edx)
    388b:	83 c4 5c             	add    $0x5c,%esp
    388e:	5b                   	pop    %ebx
    388f:	5e                   	pop    %esi
    3890:	5f                   	pop    %edi
    3891:	5d                   	pop    %ebp
    3892:	c3                   	ret    
    3893:	90                   	nop
    3894:	8d 74 26 00          	lea    0x0(%esi,%eiz,1),%esi
    3898:	85 db                	test   %ebx,%ebx
    389a:	0f 84 ff fe ff ff    	je     379f <loc_service_get_id+0x4f>
    38a0:	89 1d 14 1c 02 00    	mov    %ebx,0x21c14
    38a6:	e9 f4 fe ff ff       	jmp    379f <loc_service_get_id+0x4f>
    38ab:	90                   	nop
    38ac:	8d 74 26 00          	lea    0x0(%esi,%eiz,1),%esi
    38b0:	c7 04 24 90 19 02 00 	movl   $0x21990,(%esp)
    38b7:	e8 84 58 00 00       	call   9140 <fibril_mutex_lock>
    38bc:	8b 1d 10 1c 02 00    	mov    0x21c10,%ebx
    38c2:	85 db                	test   %ebx,%ebx
    38c4:	0f 84 b1 00 00 00    	je     397b <loc_service_get_id+0x22b>
    38ca:	c7 04 24 90 19 02 00 	movl   $0x21990,(%esp)
    38d1:	e8 8a 59 00 00       	call   9260 <fibril_mutex_unlock>
    38d6:	a1 10 1c 02 00       	mov    0x21c10,%eax
    38db:	85 c0                	test   %eax,%eax
    38dd:	74 12                	je     38f1 <loc_service_get_id+0x1a1>
    38df:	89 04 24             	mov    %eax,(%esp)
    38e2:	e8 19 1c 01 00       	call   15500 <async_exchange_begin>
    38e7:	89 c3                	mov    %eax,%ebx
    38e9:	85 c0                	test   %eax,%eax
    38eb:	0f 85 0d ff ff ff    	jne    37fe <loc_service_get_id+0xae>
    38f1:	e8 7a 98 01 00       	call   1d170 <__errno>
    38f6:	8b 00                	mov    (%eax),%eax
    38f8:	eb 91                	jmp    388b <loc_service_get_id+0x13b>
    38fa:	8d b6 00 00 00 00    	lea    0x0(%esi),%esi
    3900:	8b 45 0c             	mov    0xc(%ebp),%eax
    3903:	85 c0                	test   %eax,%eax
    3905:	74 08                	je     390f <loc_service_get_id+0x1bf>
    3907:	8b 55 0c             	mov    0xc(%ebp),%edx
    390a:	8b 45 c8             	mov    -0x38(%ebp),%eax
    390d:	89 02                	mov    %eax,(%edx)
    390f:	83 c4 5c             	add    $0x5c,%esp
    3912:	31 c0                	xor    %eax,%eax
    3914:	5b                   	pop    %ebx
    3915:	5e                   	pop    %esi
    3916:	5f                   	pop    %edi
    3917:	5d                   	pop    %ebp
    3918:	c3                   	ret    
    3919:	8d b4 26 00 00 00 00 	lea    0x0(%esi,%eiz,1),%esi
    3920:	c7 44 24 0c 00 00 00 	movl   $0x0,0xc(%esp)
    3927:	00 
    3928:	c7 44 24 08 02 00 00 	movl   $0x2,0x8(%esp)
    392f:	00 
    3930:	c7 44 24 04 6c 6f 63 	movl   $0x20636f6c,0x4(%esp)
    3937:	20 
    3938:	c7 04 24 02 00 00 00 	movl   $0x2,(%esp)
    393f:	e8 0c ef 00 00       	call   12850 <service_connect_blocking>
    3944:	a3 14 1c 02 00       	mov    %eax,0x21c14
    3949:	e9 2e fe ff ff       	jmp    377c <loc_service_get_id+0x2c>
    394e:	66 90                	xchg   %ax,%ax
    3950:	89 34 24             	mov    %esi,(%esp)
    3953:	e8 68 09 01 00       	call   142c0 <async_forget>
    3958:	8b 45 c0             	mov    -0x40(%ebp),%eax
    395b:	83 c4 5c             	add    $0x5c,%esp
    395e:	5b                   	pop    %ebx
    395f:	5e                   	pop    %esi
    3960:	5f                   	pop    %edi
    3961:	5d                   	pop    %ebp
    3962:	c3                   	ret    
    3963:	90                   	nop
    3964:	8d 74 26 00          	lea    0x0(%esi,%eiz,1),%esi
    3968:	85 db                	test   %ebx,%ebx
    396a:	0f 84 73 fe ff ff    	je     37e3 <loc_service_get_id+0x93>
    3970:	89 1d 10 1c 02 00    	mov    %ebx,0x21c10
    3976:	e9 68 fe ff ff       	jmp    37e3 <loc_service_get_id+0x93>
    397b:	c7 44 24 0c 00 00 00 	movl   $0x0,0xc(%esp)
    3982:	00 
    3983:	c7 44 24 08 02 00 00 	movl   $0x2,0x8(%esp)
    398a:	00 
    398b:	c7 44 24 04 6c 6f 63 	movl   $0x20636f6c,0x4(%esp)
    3992:	20 
    3993:	c7 04 24 02 00 00 00 	movl   $0x2,(%esp)
    399a:	e8 31 ee 00 00       	call   127d0 <service_connect>
    399f:	a3 10 1c 02 00       	mov    %eax,0x21c10
    39a4:	e9 21 ff ff ff       	jmp    38ca <loc_service_get_id+0x17a>
    39a9:	8d b4 26 00 00 00 00 	lea    0x0(%esi,%eiz,1),%esi

000039b0 <loc_category_get_name>:
    39b0:	55                   	push   %ebp
    39b1:	b8 0b 04 00 00       	mov    $0x40b,%eax
    39b6:	89 e5                	mov    %esp,%ebp
    39b8:	8b 4d 0c             	mov    0xc(%ebp),%ecx
    39bb:	8b 55 08             	mov    0x8(%ebp),%edx
    39be:	5d                   	pop    %ebp
    39bf:	e9 6c ed ff ff       	jmp    2730 <loc_get_name_internal>
    39c4:	8d b6 00 00 00 00    	lea    0x0(%esi),%esi
    39ca:	8d bf 00 00 00 00    	lea    0x0(%edi),%edi

000039d0 <loc_service_get_name>:
    39d0:	55                   	push   %ebp
    39d1:	b8 06 04 00 00       	mov    $0x406,%eax
    39d6:	89 e5                	mov    %esp,%ebp
    39d8:	8b 4d 0c             	mov    0xc(%ebp),%ecx
    39db:	8b 55 08             	mov    0x8(%ebp),%edx
    39de:	5d                   	pop    %ebp
    39df:	e9 4c ed ff ff       	jmp    2730 <loc_get_name_internal>
    39e4:	8d b6 00 00 00 00    	lea    0x0(%esi),%esi
    39ea:	8d bf 00 00 00 00    	lea    0x0(%edi),%edi

000039f0 <loc_service_get_server_name>:
    39f0:	55                   	push   %ebp
    39f1:	b8 07 04 00 00       	mov    $0x407,%eax
    39f6:	89 e5                	mov    %esp,%ebp
    39f8:	8b 4d 0c             	mov    0xc(%ebp),%ecx
    39fb:	8b 55 08             	mov    0x8(%ebp),%edx
    39fe:	5d                   	pop    %ebp
    39ff:	e9 2c ed ff ff       	jmp    2730 <loc_get_name_internal>
    3a04:	8d b6 00 00 00 00    	lea    0x0(%esi),%esi
    3a0a:	8d bf 00 00 00 00    	lea    0x0(%edi),%edi

00003a10 <loc_namespace_get_id>:
    3a10:	55                   	push   %ebp
    3a11:	89 e5                	mov    %esp,%ebp
    3a13:	57                   	push   %edi
    3a14:	56                   	push   %esi
    3a15:	53                   	push   %ebx
    3a16:	83 ec 5c             	sub    $0x5c,%esp
    3a19:	8b 75 10             	mov    0x10(%ebp),%esi
    3a1c:	8b 7d 08             	mov    0x8(%ebp),%edi
    3a1f:	f7 c6 01 00 00 00    	test   $0x1,%esi
    3a25:	0f 84 45 01 00 00    	je     3b70 <loc_namespace_get_id+0x160>
    3a2b:	c7 04 24 80 19 02 00 	movl   $0x21980,(%esp)
    3a32:	e8 09 57 00 00       	call   9140 <fibril_mutex_lock>
    3a37:	a1 14 1c 02 00       	mov    0x21c14,%eax
    3a3c:	85 c0                	test   %eax,%eax
    3a3e:	75 38                	jne    3a78 <loc_namespace_get_id+0x68>
    3a40:	c7 04 24 90 19 02 00 	movl   $0x21990,(%esp)
    3a47:	8b 1d 10 1c 02 00    	mov    0x21c10,%ebx
    3a4d:	e8 ee 56 00 00       	call   9140 <fibril_mutex_lock>
    3a52:	a1 14 1c 02 00       	mov    0x21c14,%eax
    3a57:	85 c0                	test   %eax,%eax
    3a59:	0f 84 f9 00 00 00    	je     3b58 <loc_namespace_get_id+0x148>
    3a5f:	c7 04 24 90 19 02 00 	movl   $0x21990,(%esp)
    3a66:	e8 f5 57 00 00       	call   9260 <fibril_mutex_unlock>
    3a6b:	a1 14 1c 02 00       	mov    0x21c14,%eax
    3a70:	85 c0                	test   %eax,%eax
    3a72:	0f 84 68 01 00 00    	je     3be0 <loc_namespace_get_id+0x1d0>
    3a78:	c7 04 24 80 19 02 00 	movl   $0x21980,(%esp)
    3a7f:	e8 dc 57 00 00       	call   9260 <fibril_mutex_unlock>
    3a84:	c7 04 24 90 19 02 00 	movl   $0x21990,(%esp)
    3a8b:	8b 1d 14 1c 02 00    	mov    0x21c14,%ebx
    3a91:	e8 aa 56 00 00       	call   9140 <fibril_mutex_lock>
    3a96:	a1 10 1c 02 00       	mov    0x21c10,%eax
    3a9b:	85 c0                	test   %eax,%eax
    3a9d:	0f 84 85 01 00 00    	je     3c28 <loc_namespace_get_id+0x218>
    3aa3:	c7 04 24 90 19 02 00 	movl   $0x21990,(%esp)
    3aaa:	e8 b1 57 00 00       	call   9260 <fibril_mutex_unlock>
    3aaf:	a1 14 1c 02 00       	mov    0x21c14,%eax
    3ab4:	89 04 24             	mov    %eax,(%esp)
    3ab7:	e8 44 1a 01 00       	call   15500 <async_exchange_begin>
    3abc:	89 c3                	mov    %eax,%ebx
    3abe:	8d 45 c4             	lea    -0x3c(%ebp),%eax
    3ac1:	89 74 24 08          	mov    %esi,0x8(%esp)
    3ac5:	89 44 24 18          	mov    %eax,0x18(%esp)
    3ac9:	c7 44 24 14 00 00 00 	movl   $0x0,0x14(%esp)
    3ad0:	00 
    3ad1:	c7 44 24 10 00 00 00 	movl   $0x0,0x10(%esp)
    3ad8:	00 
    3ad9:	c7 44 24 0c 00 00 00 	movl   $0x0,0xc(%esp)
    3ae0:	00 
    3ae1:	c7 44 24 04 08 04 00 	movl   $0x408,0x4(%esp)
    3ae8:	00 
    3ae9:	89 1c 24             	mov    %ebx,(%esp)
    3aec:	e8 af 03 01 00       	call   13ea0 <async_send_fast>
    3af1:	89 3c 24             	mov    %edi,(%esp)
    3af4:	89 c6                	mov    %eax,%esi
    3af6:	e8 25 24 00 00       	call   5f20 <str_size>
    3afb:	89 7c 24 04          	mov    %edi,0x4(%esp)
    3aff:	89 44 24 08          	mov    %eax,0x8(%esp)
    3b03:	89 1c 24             	mov    %ebx,(%esp)
    3b06:	e8 e5 28 01 00       	call   163f0 <async_data_write_start>
    3b0b:	89 1c 24             	mov    %ebx,(%esp)
    3b0e:	89 45 c0             	mov    %eax,-0x40(%ebp)
    3b11:	e8 5a 1d 01 00       	call   15870 <async_exchange_end>
    3b16:	8b 4d c0             	mov    -0x40(%ebp),%ecx
    3b19:	85 c9                	test   %ecx,%ecx
    3b1b:	0f 85 ef 00 00 00    	jne    3c10 <loc_namespace_get_id+0x200>
    3b21:	8d 45 c0             	lea    -0x40(%ebp),%eax
    3b24:	89 34 24             	mov    %esi,(%esp)
    3b27:	89 44 24 04          	mov    %eax,0x4(%esp)
    3b2b:	e8 40 05 01 00       	call   14070 <async_wait_for>
    3b30:	8b 45 c0             	mov    -0x40(%ebp),%eax
    3b33:	85 c0                	test   %eax,%eax
    3b35:	0f 84 85 00 00 00    	je     3bc0 <loc_namespace_get_id+0x1b0>
    3b3b:	8b 55 0c             	mov    0xc(%ebp),%edx
    3b3e:	85 d2                	test   %edx,%edx
    3b40:	74 09                	je     3b4b <loc_namespace_get_id+0x13b>
    3b42:	8b 55 0c             	mov    0xc(%ebp),%edx
    3b45:	c7 02 ff ff ff ff    	movl   $0xffffffff,(%edx)
    3b4b:	83 c4 5c             	add    $0x5c,%esp
    3b4e:	5b                   	pop    %ebx
    3b4f:	5e                   	pop    %esi
    3b50:	5f                   	pop    %edi
    3b51:	5d                   	pop    %ebp
    3b52:	c3                   	ret    
    3b53:	90                   	nop
    3b54:	8d 74 26 00          	lea    0x0(%esi,%eiz,1),%esi
    3b58:	85 db                	test   %ebx,%ebx
    3b5a:	0f 84 ff fe ff ff    	je     3a5f <loc_namespace_get_id+0x4f>
    3b60:	89 1d 14 1c 02 00    	mov    %ebx,0x21c14
    3b66:	e9 f4 fe ff ff       	jmp    3a5f <loc_namespace_get_id+0x4f>
    3b6b:	90                   	nop
    3b6c:	8d 74 26 00          	lea    0x0(%esi,%eiz,1),%esi
    3b70:	c7 04 24 90 19 02 00 	movl   $0x21990,(%esp)
    3b77:	e8 c4 55 00 00       	call   9140 <fibril_mutex_lock>
    3b7c:	8b 1d 10 1c 02 00    	mov    0x21c10,%ebx
    3b82:	85 db                	test   %ebx,%ebx
    3b84:	0f 84 b1 00 00 00    	je     3c3b <loc_namespace_get_id+0x22b>
    3b8a:	c7 04 24 90 19 02 00 	movl   $0x21990,(%esp)
    3b91:	e8 ca 56 00 00       	call   9260 <fibril_mutex_unlock>
    3b96:	a1 10 1c 02 00       	mov    0x21c10,%eax
    3b9b:	85 c0                	test   %eax,%eax
    3b9d:	74 12                	je     3bb1 <loc_namespace_get_id+0x1a1>
    3b9f:	89 04 24             	mov    %eax,(%esp)
    3ba2:	e8 59 19 01 00       	call   15500 <async_exchange_begin>
    3ba7:	89 c3                	mov    %eax,%ebx
    3ba9:	85 c0                	test   %eax,%eax
    3bab:	0f 85 0d ff ff ff    	jne    3abe <loc_namespace_get_id+0xae>
    3bb1:	e8 ba 95 01 00       	call   1d170 <__errno>
    3bb6:	8b 00                	mov    (%eax),%eax
    3bb8:	eb 91                	jmp    3b4b <loc_namespace_get_id+0x13b>
    3bba:	8d b6 00 00 00 00    	lea    0x0(%esi),%esi
    3bc0:	8b 45 0c             	mov    0xc(%ebp),%eax
    3bc3:	85 c0                	test   %eax,%eax
    3bc5:	74 08                	je     3bcf <loc_namespace_get_id+0x1bf>
    3bc7:	8b 55 0c             	mov    0xc(%ebp),%edx
    3bca:	8b 45 c8             	mov    -0x38(%ebp),%eax
    3bcd:	89 02                	mov    %eax,(%edx)
    3bcf:	83 c4 5c             	add    $0x5c,%esp
    3bd2:	31 c0                	xor    %eax,%eax
    3bd4:	5b                   	pop    %ebx
    3bd5:	5e                   	pop    %esi
    3bd6:	5f                   	pop    %edi
    3bd7:	5d                   	pop    %ebp
    3bd8:	c3                   	ret    
    3bd9:	8d b4 26 00 00 00 00 	lea    0x0(%esi,%eiz,1),%esi
    3be0:	c7 44 24 0c 00 00 00 	movl   $0x0,0xc(%esp)
    3be7:	00 
    3be8:	c7 44 24 08 02 00 00 	movl   $0x2,0x8(%esp)
    3bef:	00 
    3bf0:	c7 44 24 04 6c 6f 63 	movl   $0x20636f6c,0x4(%esp)
    3bf7:	20 
    3bf8:	c7 04 24 02 00 00 00 	movl   $0x2,(%esp)
    3bff:	e8 4c ec 00 00       	call   12850 <service_connect_blocking>
    3c04:	a3 14 1c 02 00       	mov    %eax,0x21c14
    3c09:	e9 2e fe ff ff       	jmp    3a3c <loc_namespace_get_id+0x2c>
    3c0e:	66 90                	xchg   %ax,%ax
    3c10:	89 34 24             	mov    %esi,(%esp)
    3c13:	e8 a8 06 01 00       	call   142c0 <async_forget>
    3c18:	8b 45 c0             	mov    -0x40(%ebp),%eax
    3c1b:	83 c4 5c             	add    $0x5c,%esp
    3c1e:	5b                   	pop    %ebx
    3c1f:	5e                   	pop    %esi
    3c20:	5f                   	pop    %edi
    3c21:	5d                   	pop    %ebp
    3c22:	c3                   	ret    
    3c23:	90                   	nop
    3c24:	8d 74 26 00          	lea    0x0(%esi,%eiz,1),%esi
    3c28:	85 db                	test   %ebx,%ebx
    3c2a:	0f 84 73 fe ff ff    	je     3aa3 <loc_namespace_get_id+0x93>
    3c30:	89 1d 10 1c 02 00    	mov    %ebx,0x21c10
    3c36:	e9 68 fe ff ff       	jmp    3aa3 <loc_namespace_get_id+0x93>
    3c3b:	c7 44 24 0c 00 00 00 	movl   $0x0,0xc(%esp)
    3c42:	00 
    3c43:	c7 44 24 08 02 00 00 	movl   $0x2,0x8(%esp)
    3c4a:	00 
    3c4b:	c7 44 24 04 6c 6f 63 	movl   $0x20636f6c,0x4(%esp)
    3c52:	20 
    3c53:	c7 04 24 02 00 00 00 	movl   $0x2,(%esp)
    3c5a:	e8 71 eb 00 00       	call   127d0 <service_connect>
    3c5f:	a3 10 1c 02 00       	mov    %eax,0x21c10
    3c64:	e9 21 ff ff ff       	jmp    3b8a <loc_namespace_get_id+0x17a>
    3c69:	8d b4 26 00 00 00 00 	lea    0x0(%esi,%eiz,1),%esi

00003c70 <loc_category_get_id>:
    3c70:	55                   	push   %ebp
    3c71:	89 e5                	mov    %esp,%ebp
    3c73:	57                   	push   %edi
    3c74:	56                   	push   %esi
    3c75:	53                   	push   %ebx
    3c76:	83 ec 5c             	sub    $0x5c,%esp
    3c79:	8b 75 08             	mov    0x8(%ebp),%esi
    3c7c:	f6 45 10 01          	testb  $0x1,0x10(%ebp)
    3c80:	0f 84 4a 01 00 00    	je     3dd0 <loc_category_get_id+0x160>
    3c86:	c7 04 24 80 19 02 00 	movl   $0x21980,(%esp)
    3c8d:	e8 ae 54 00 00       	call   9140 <fibril_mutex_lock>
    3c92:	a1 14 1c 02 00       	mov    0x21c14,%eax
    3c97:	85 c0                	test   %eax,%eax
    3c99:	75 38                	jne    3cd3 <loc_category_get_id+0x63>
    3c9b:	c7 04 24 90 19 02 00 	movl   $0x21990,(%esp)
    3ca2:	8b 1d 10 1c 02 00    	mov    0x21c10,%ebx
    3ca8:	e8 93 54 00 00       	call   9140 <fibril_mutex_lock>
    3cad:	a1 14 1c 02 00       	mov    0x21c14,%eax
    3cb2:	85 c0                	test   %eax,%eax
    3cb4:	0f 84 fe 00 00 00    	je     3db8 <loc_category_get_id+0x148>
    3cba:	c7 04 24 90 19 02 00 	movl   $0x21990,(%esp)
    3cc1:	e8 9a 55 00 00       	call   9260 <fibril_mutex_unlock>
    3cc6:	a1 14 1c 02 00       	mov    0x21c14,%eax
    3ccb:	85 c0                	test   %eax,%eax
    3ccd:	0f 84 6d 01 00 00    	je     3e40 <loc_category_get_id+0x1d0>
    3cd3:	c7 04 24 80 19 02 00 	movl   $0x21980,(%esp)
    3cda:	e8 81 55 00 00       	call   9260 <fibril_mutex_unlock>
    3cdf:	c7 04 24 90 19 02 00 	movl   $0x21990,(%esp)
    3ce6:	8b 1d 14 1c 02 00    	mov    0x21c14,%ebx
    3cec:	e8 4f 54 00 00       	call   9140 <fibril_mutex_lock>
    3cf1:	8b 3d 10 1c 02 00    	mov    0x21c10,%edi
    3cf7:	85 ff                	test   %edi,%edi
    3cf9:	0f 84 89 01 00 00    	je     3e88 <loc_category_get_id+0x218>
    3cff:	c7 04 24 90 19 02 00 	movl   $0x21990,(%esp)
    3d06:	e8 55 55 00 00       	call   9260 <fibril_mutex_unlock>
    3d0b:	a1 14 1c 02 00       	mov    0x21c14,%eax
    3d10:	89 04 24             	mov    %eax,(%esp)
    3d13:	e8 e8 17 01 00       	call   15500 <async_exchange_begin>
    3d18:	89 c3                	mov    %eax,%ebx
    3d1a:	8d 45 c4             	lea    -0x3c(%ebp),%eax
    3d1d:	c7 44 24 14 00 00 00 	movl   $0x0,0x14(%esp)
    3d24:	00 
    3d25:	89 44 24 18          	mov    %eax,0x18(%esp)
    3d29:	c7 44 24 10 00 00 00 	movl   $0x0,0x10(%esp)
    3d30:	00 
    3d31:	c7 44 24 0c 00 00 00 	movl   $0x0,0xc(%esp)
    3d38:	00 
    3d39:	c7 44 24 08 00 00 00 	movl   $0x0,0x8(%esp)
    3d40:	00 
    3d41:	c7 44 24 04 0a 04 00 	movl   $0x40a,0x4(%esp)
    3d48:	00 
    3d49:	89 1c 24             	mov    %ebx,(%esp)
    3d4c:	e8 4f 01 01 00       	call   13ea0 <async_send_fast>
    3d51:	89 34 24             	mov    %esi,(%esp)
    3d54:	89 c7                	mov    %eax,%edi
    3d56:	e8 c5 21 00 00       	call   5f20 <str_size>
    3d5b:	89 74 24 04          	mov    %esi,0x4(%esp)
    3d5f:	89 44 24 08          	mov    %eax,0x8(%esp)
    3d63:	89 1c 24             	mov    %ebx,(%esp)
    3d66:	e8 85 26 01 00       	call   163f0 <async_data_write_start>
    3d6b:	89 1c 24             	mov    %ebx,(%esp)
    3d6e:	89 45 c0             	mov    %eax,-0x40(%ebp)
    3d71:	e8 fa 1a 01 00       	call   15870 <async_exchange_end>
    3d76:	8b 4d c0             	mov    -0x40(%ebp),%ecx
    3d79:	85 c9                	test   %ecx,%ecx
    3d7b:	0f 85 ef 00 00 00    	jne    3e70 <loc_category_get_id+0x200>
    3d81:	8d 45 c0             	lea    -0x40(%ebp),%eax
    3d84:	89 3c 24             	mov    %edi,(%esp)
    3d87:	89 44 24 04          	mov    %eax,0x4(%esp)
    3d8b:	e8 e0 02 01 00       	call   14070 <async_wait_for>
    3d90:	8b 45 c0             	mov    -0x40(%ebp),%eax
    3d93:	85 c0                	test   %eax,%eax
    3d95:	0f 84 85 00 00 00    	je     3e20 <loc_category_get_id+0x1b0>
    3d9b:	8b 55 0c             	mov    0xc(%ebp),%edx
    3d9e:	85 d2                	test   %edx,%edx
    3da0:	74 09                	je     3dab <loc_category_get_id+0x13b>
    3da2:	8b 55 0c             	mov    0xc(%ebp),%edx
    3da5:	c7 02 ff ff ff ff    	movl   $0xffffffff,(%edx)
    3dab:	83 c4 5c             	add    $0x5c,%esp
    3dae:	5b                   	pop    %ebx
    3daf:	5e                   	pop    %esi
    3db0:	5f                   	pop    %edi
    3db1:	5d                   	pop    %ebp
    3db2:	c3                   	ret    
    3db3:	90                   	nop
    3db4:	8d 74 26 00          	lea    0x0(%esi,%eiz,1),%esi
    3db8:	85 db                	test   %ebx,%ebx
    3dba:	0f 84 fa fe ff ff    	je     3cba <loc_category_get_id+0x4a>
    3dc0:	89 1d 14 1c 02 00    	mov    %ebx,0x21c14
    3dc6:	e9 ef fe ff ff       	jmp    3cba <loc_category_get_id+0x4a>
    3dcb:	90                   	nop
    3dcc:	8d 74 26 00          	lea    0x0(%esi,%eiz,1),%esi
    3dd0:	c7 04 24 90 19 02 00 	movl   $0x21990,(%esp)
    3dd7:	e8 64 53 00 00       	call   9140 <fibril_mutex_lock>
    3ddc:	8b 1d 10 1c 02 00    	mov    0x21c10,%ebx
    3de2:	85 db                	test   %ebx,%ebx
    3de4:	0f 84 b1 00 00 00    	je     3e9b <loc_category_get_id+0x22b>
    3dea:	c7 04 24 90 19 02 00 	movl   $0x21990,(%esp)
    3df1:	e8 6a 54 00 00       	call   9260 <fibril_mutex_unlock>
    3df6:	a1 10 1c 02 00       	mov    0x21c10,%eax
    3dfb:	85 c0                	test   %eax,%eax
    3dfd:	74 12                	je     3e11 <loc_category_get_id+0x1a1>
    3dff:	89 04 24             	mov    %eax,(%esp)
    3e02:	e8 f9 16 01 00       	call   15500 <async_exchange_begin>
    3e07:	89 c3                	mov    %eax,%ebx
    3e09:	85 c0                	test   %eax,%eax
    3e0b:	0f 85 09 ff ff ff    	jne    3d1a <loc_category_get_id+0xaa>
    3e11:	e8 5a 93 01 00       	call   1d170 <__errno>
    3e16:	8b 00                	mov    (%eax),%eax
    3e18:	eb 91                	jmp    3dab <loc_category_get_id+0x13b>
    3e1a:	8d b6 00 00 00 00    	lea    0x0(%esi),%esi
    3e20:	8b 45 0c             	mov    0xc(%ebp),%eax
    3e23:	85 c0                	test   %eax,%eax
    3e25:	74 08                	je     3e2f <loc_category_get_id+0x1bf>
    3e27:	8b 55 0c             	mov    0xc(%ebp),%edx
    3e2a:	8b 45 c8             	mov    -0x38(%ebp),%eax
    3e2d:	89 02                	mov    %eax,(%edx)
    3e2f:	83 c4 5c             	add    $0x5c,%esp
    3e32:	31 c0                	xor    %eax,%eax
    3e34:	5b                   	pop    %ebx
    3e35:	5e                   	pop    %esi
    3e36:	5f                   	pop    %edi
    3e37:	5d                   	pop    %ebp
    3e38:	c3                   	ret    
    3e39:	8d b4 26 00 00 00 00 	lea    0x0(%esi,%eiz,1),%esi
    3e40:	c7 44 24 0c 00 00 00 	movl   $0x0,0xc(%esp)
    3e47:	00 
    3e48:	c7 44 24 08 02 00 00 	movl   $0x2,0x8(%esp)
    3e4f:	00 
    3e50:	c7 44 24 04 6c 6f 63 	movl   $0x20636f6c,0x4(%esp)
    3e57:	20 
    3e58:	c7 04 24 02 00 00 00 	movl   $0x2,(%esp)
    3e5f:	e8 ec e9 00 00       	call   12850 <service_connect_blocking>
    3e64:	a3 14 1c 02 00       	mov    %eax,0x21c14
    3e69:	e9 29 fe ff ff       	jmp    3c97 <loc_category_get_id+0x27>
    3e6e:	66 90                	xchg   %ax,%ax
    3e70:	89 3c 24             	mov    %edi,(%esp)
    3e73:	e8 48 04 01 00       	call   142c0 <async_forget>
    3e78:	8b 45 c0             	mov    -0x40(%ebp),%eax
    3e7b:	83 c4 5c             	add    $0x5c,%esp
    3e7e:	5b                   	pop    %ebx
    3e7f:	5e                   	pop    %esi
    3e80:	5f                   	pop    %edi
    3e81:	5d                   	pop    %ebp
    3e82:	c3                   	ret    
    3e83:	90                   	nop
    3e84:	8d 74 26 00          	lea    0x0(%esi,%eiz,1),%esi
    3e88:	85 db                	test   %ebx,%ebx
    3e8a:	0f 84 6f fe ff ff    	je     3cff <loc_category_get_id+0x8f>
    3e90:	89 1d 10 1c 02 00    	mov    %ebx,0x21c10
    3e96:	e9 64 fe ff ff       	jmp    3cff <loc_category_get_id+0x8f>
    3e9b:	c7 44 24 0c 00 00 00 	movl   $0x0,0xc(%esp)
    3ea2:	00 
    3ea3:	c7 44 24 08 02 00 00 	movl   $0x2,0x8(%esp)
    3eaa:	00 
    3eab:	c7 44 24 04 6c 6f 63 	movl   $0x20636f6c,0x4(%esp)
    3eb2:	20 
    3eb3:	c7 04 24 02 00 00 00 	movl   $0x2,(%esp)
    3eba:	e8 11 e9 00 00       	call   127d0 <service_connect>
    3ebf:	a3 10 1c 02 00       	mov    %eax,0x21c10
    3ec4:	e9 21 ff ff ff       	jmp    3dea <loc_category_get_id+0x17a>
    3ec9:	8d b4 26 00 00 00 00 	lea    0x0(%esi,%eiz,1),%esi

00003ed0 <loc_id_probe>:
    3ed0:	55                   	push   %ebp
    3ed1:	89 e5                	mov    %esp,%ebp
    3ed3:	56                   	push   %esi
    3ed4:	53                   	push   %ebx
    3ed5:	83 ec 40             	sub    $0x40,%esp
    3ed8:	c7 04 24 80 19 02 00 	movl   $0x21980,(%esp)
    3edf:	e8 5c 52 00 00       	call   9140 <fibril_mutex_lock>
    3ee4:	a1 14 1c 02 00       	mov    0x21c14,%eax
    3ee9:	85 c0                	test   %eax,%eax
    3eeb:	75 38                	jne    3f25 <loc_id_probe+0x55>
    3eed:	c7 04 24 90 19 02 00 	movl   $0x21990,(%esp)
    3ef4:	8b 1d 10 1c 02 00    	mov    0x21c10,%ebx
    3efa:	e8 41 52 00 00       	call   9140 <fibril_mutex_lock>
    3eff:	a1 14 1c 02 00       	mov    0x21c14,%eax
    3f04:	85 c0                	test   %eax,%eax
    3f06:	0f 84 d4 00 00 00    	je     3fe0 <loc_id_probe+0x110>
    3f0c:	c7 04 24 90 19 02 00 	movl   $0x21990,(%esp)
    3f13:	e8 48 53 00 00       	call   9260 <fibril_mutex_unlock>
    3f18:	a1 14 1c 02 00       	mov    0x21c14,%eax
    3f1d:	85 c0                	test   %eax,%eax
    3f1f:	0f 84 d3 00 00 00    	je     3ff8 <loc_id_probe+0x128>
    3f25:	c7 04 24 80 19 02 00 	movl   $0x21980,(%esp)
    3f2c:	e8 2f 53 00 00       	call   9260 <fibril_mutex_unlock>
    3f31:	c7 04 24 90 19 02 00 	movl   $0x21990,(%esp)
    3f38:	8b 1d 14 1c 02 00    	mov    0x21c14,%ebx
    3f3e:	e8 fd 51 00 00       	call   9140 <fibril_mutex_lock>
    3f43:	a1 10 1c 02 00       	mov    0x21c10,%eax
    3f48:	85 c0                	test   %eax,%eax
    3f4a:	0f 84 d8 00 00 00    	je     4028 <loc_id_probe+0x158>
    3f50:	c7 04 24 90 19 02 00 	movl   $0x21990,(%esp)
    3f57:	e8 04 53 00 00       	call   9260 <fibril_mutex_unlock>
    3f5c:	a1 14 1c 02 00       	mov    0x21c14,%eax
    3f61:	89 04 24             	mov    %eax,(%esp)
    3f64:	e8 97 15 01 00       	call   15500 <async_exchange_begin>
    3f69:	c7 44 24 28 00 00 00 	movl   $0x0,0x28(%esp)
    3f70:	00 
    3f71:	89 c3                	mov    %eax,%ebx
    3f73:	8d 45 f4             	lea    -0xc(%ebp),%eax
    3f76:	89 44 24 18          	mov    %eax,0x18(%esp)
    3f7a:	8b 45 08             	mov    0x8(%ebp),%eax
    3f7d:	c7 44 24 24 00 00 00 	movl   $0x0,0x24(%esp)
    3f84:	00 
    3f85:	c7 44 24 20 00 00 00 	movl   $0x0,0x20(%esp)
    3f8c:	00 
    3f8d:	c7 44 24 1c 00 00 00 	movl   $0x0,0x1c(%esp)
    3f94:	00 
    3f95:	c7 44 24 14 00 00 00 	movl   $0x0,0x14(%esp)
    3f9c:	00 
    3f9d:	c7 44 24 10 00 00 00 	movl   $0x0,0x10(%esp)
    3fa4:	00 
    3fa5:	c7 44 24 0c 00 00 00 	movl   $0x0,0xc(%esp)
    3fac:	00 
    3fad:	89 44 24 08          	mov    %eax,0x8(%esp)
    3fb1:	c7 44 24 04 0d 04 00 	movl   $0x40d,0x4(%esp)
    3fb8:	00 
    3fb9:	89 1c 24             	mov    %ebx,(%esp)
    3fbc:	e8 ef 04 01 00       	call   144b0 <async_req_fast>
    3fc1:	89 1c 24             	mov    %ebx,(%esp)
    3fc4:	89 c6                	mov    %eax,%esi
    3fc6:	e8 a5 18 01 00       	call   15870 <async_exchange_end>
    3fcb:	31 c0                	xor    %eax,%eax
    3fcd:	85 f6                	test   %esi,%esi
    3fcf:	75 03                	jne    3fd4 <loc_id_probe+0x104>
    3fd1:	8b 45 f4             	mov    -0xc(%ebp),%eax
    3fd4:	83 c4 40             	add    $0x40,%esp
    3fd7:	5b                   	pop    %ebx
    3fd8:	5e                   	pop    %esi
    3fd9:	5d                   	pop    %ebp
    3fda:	c3                   	ret    
    3fdb:	90                   	nop
    3fdc:	8d 74 26 00          	lea    0x0(%esi,%eiz,1),%esi
    3fe0:	85 db                	test   %ebx,%ebx
    3fe2:	0f 84 24 ff ff ff    	je     3f0c <loc_id_probe+0x3c>
    3fe8:	89 1d 14 1c 02 00    	mov    %ebx,0x21c14
    3fee:	e9 19 ff ff ff       	jmp    3f0c <loc_id_probe+0x3c>
    3ff3:	90                   	nop
    3ff4:	8d 74 26 00          	lea    0x0(%esi,%eiz,1),%esi
    3ff8:	c7 44 24 0c 00 00 00 	movl   $0x0,0xc(%esp)
    3fff:	00 
    4000:	c7 44 24 08 02 00 00 	movl   $0x2,0x8(%esp)
    4007:	00 
    4008:	c7 44 24 04 6c 6f 63 	movl   $0x20636f6c,0x4(%esp)
    400f:	20 
    4010:	c7 04 24 02 00 00 00 	movl   $0x2,(%esp)
    4017:	e8 34 e8 00 00       	call   12850 <service_connect_blocking>
    401c:	a3 14 1c 02 00       	mov    %eax,0x21c14
    4021:	e9 c3 fe ff ff       	jmp    3ee9 <loc_id_probe+0x19>
    4026:	66 90                	xchg   %ax,%ax
    4028:	85 db                	test   %ebx,%ebx
    402a:	0f 84 20 ff ff ff    	je     3f50 <loc_id_probe+0x80>
    4030:	89 1d 10 1c 02 00    	mov    %ebx,0x21c10
    4036:	e9 15 ff ff ff       	jmp    3f50 <loc_id_probe+0x80>
    403b:	90                   	nop
    403c:	8d 74 26 00          	lea    0x0(%esi,%eiz,1),%esi

00004040 <loc_service_connect>:
    4040:	55                   	push   %ebp
    4041:	89 e5                	mov    %esp,%ebp
    4043:	83 ec 18             	sub    $0x18,%esp
    4046:	8b 45 08             	mov    0x8(%ebp),%eax
    4049:	8b 55 0c             	mov    0xc(%ebp),%edx
    404c:	f6 45 10 01          	testb  $0x1,0x10(%ebp)
    4050:	89 54 24 0c          	mov    %edx,0xc(%esp)
    4054:	c7 44 24 08 03 00 00 	movl   $0x3,0x8(%esp)
    405b:	00 
    405c:	c7 44 24 04 6c 6f 63 	movl   $0x20636f6c,0x4(%esp)
    4063:	20 
    4064:	89 04 24             	mov    %eax,(%esp)
    4067:	75 07                	jne    4070 <loc_service_connect+0x30>
    4069:	e8 62 e7 00 00       	call   127d0 <service_connect>
    406e:	c9                   	leave  
    406f:	c3                   	ret    
    4070:	e8 db e7 00 00       	call   12850 <service_connect_blocking>
    4075:	c9                   	leave  
    4076:	c3                   	ret    
    4077:	89 f6                	mov    %esi,%esi
    4079:	8d bc 27 00 00 00 00 	lea    0x0(%edi,%eiz,1),%edi

00004080 <loc_null_create>:
    4080:	55                   	push   %ebp
    4081:	89 e5                	mov    %esp,%ebp
    4083:	56                   	push   %esi
    4084:	53                   	push   %ebx
    4085:	83 ec 40             	sub    $0x40,%esp
    4088:	c7 04 24 80 19 02 00 	movl   $0x21980,(%esp)
    408f:	e8 ac 50 00 00       	call   9140 <fibril_mutex_lock>
    4094:	a1 14 1c 02 00       	mov    0x21c14,%eax
    4099:	85 c0                	test   %eax,%eax
    409b:	75 3a                	jne    40d7 <loc_null_create+0x57>
    409d:	c7 04 24 90 19 02 00 	movl   $0x21990,(%esp)
    40a4:	8b 1d 10 1c 02 00    	mov    0x21c10,%ebx
    40aa:	e8 91 50 00 00       	call   9140 <fibril_mutex_lock>
    40af:	8b 0d 14 1c 02 00    	mov    0x21c14,%ecx
    40b5:	85 c9                	test   %ecx,%ecx
    40b7:	0f 84 d3 00 00 00    	je     4190 <loc_null_create+0x110>
    40bd:	c7 04 24 90 19 02 00 	movl   $0x21990,(%esp)
    40c4:	e8 97 51 00 00       	call   9260 <fibril_mutex_unlock>
    40c9:	8b 15 14 1c 02 00    	mov    0x21c14,%edx
    40cf:	85 d2                	test   %edx,%edx
    40d1:	0f 84 d1 00 00 00    	je     41a8 <loc_null_create+0x128>
    40d7:	c7 04 24 80 19 02 00 	movl   $0x21980,(%esp)
    40de:	e8 7d 51 00 00       	call   9260 <fibril_mutex_unlock>
    40e3:	c7 04 24 90 19 02 00 	movl   $0x21990,(%esp)
    40ea:	8b 1d 14 1c 02 00    	mov    0x21c14,%ebx
    40f0:	e8 4b 50 00 00       	call   9140 <fibril_mutex_lock>
    40f5:	a1 10 1c 02 00       	mov    0x21c10,%eax
    40fa:	85 c0                	test   %eax,%eax
    40fc:	0f 84 d6 00 00 00    	je     41d8 <loc_null_create+0x158>
    4102:	c7 04 24 90 19 02 00 	movl   $0x21990,(%esp)
    4109:	e8 52 51 00 00       	call   9260 <fibril_mutex_unlock>
    410e:	a1 14 1c 02 00       	mov    0x21c14,%eax
    4113:	89 04 24             	mov    %eax,(%esp)
    4116:	e8 e5 13 01 00       	call   15500 <async_exchange_begin>
    411b:	c7 44 24 28 00 00 00 	movl   $0x0,0x28(%esp)
    4122:	00 
    4123:	89 c3                	mov    %eax,%ebx
    4125:	8d 45 f4             	lea    -0xc(%ebp),%eax
    4128:	c7 44 24 24 00 00 00 	movl   $0x0,0x24(%esp)
    412f:	00 
    4130:	c7 44 24 20 00 00 00 	movl   $0x0,0x20(%esp)
    4137:	00 
    4138:	c7 44 24 1c 00 00 00 	movl   $0x0,0x1c(%esp)
    413f:	00 
    4140:	89 44 24 18          	mov    %eax,0x18(%esp)
    4144:	c7 44 24 14 00 00 00 	movl   $0x0,0x14(%esp)
    414b:	00 
    414c:	c7 44 24 10 00 00 00 	movl   $0x0,0x10(%esp)
    4153:	00 
    4154:	c7 44 24 0c 00 00 00 	movl   $0x0,0xc(%esp)
    415b:	00 
    415c:	c7 44 24 08 00 00 00 	movl   $0x0,0x8(%esp)
    4163:	00 
    4164:	c7 44 24 04 0e 04 00 	movl   $0x40e,0x4(%esp)
    416b:	00 
    416c:	89 1c 24             	mov    %ebx,(%esp)
    416f:	e8 3c 03 01 00       	call   144b0 <async_req_fast>
    4174:	89 1c 24             	mov    %ebx,(%esp)
    4177:	89 c6                	mov    %eax,%esi
    4179:	e8 f2 16 01 00       	call   15870 <async_exchange_end>
    417e:	85 f6                	test   %esi,%esi
    4180:	75 69                	jne    41eb <loc_null_create+0x16b>
    4182:	8b 45 f4             	mov    -0xc(%ebp),%eax
    4185:	83 c4 40             	add    $0x40,%esp
    4188:	5b                   	pop    %ebx
    4189:	5e                   	pop    %esi
    418a:	5d                   	pop    %ebp
    418b:	c3                   	ret    
    418c:	8d 74 26 00          	lea    0x0(%esi,%eiz,1),%esi
    4190:	85 db                	test   %ebx,%ebx
    4192:	0f 84 25 ff ff ff    	je     40bd <loc_null_create+0x3d>
    4198:	89 1d 14 1c 02 00    	mov    %ebx,0x21c14
    419e:	e9 1a ff ff ff       	jmp    40bd <loc_null_create+0x3d>
    41a3:	90                   	nop
    41a4:	8d 74 26 00          	lea    0x0(%esi,%eiz,1),%esi
    41a8:	c7 44 24 0c 00 00 00 	movl   $0x0,0xc(%esp)
    41af:	00 
    41b0:	c7 44 24 08 02 00 00 	movl   $0x2,0x8(%esp)
    41b7:	00 
    41b8:	c7 44 24 04 6c 6f 63 	movl   $0x20636f6c,0x4(%esp)
    41bf:	20 
    41c0:	c7 04 24 02 00 00 00 	movl   $0x2,(%esp)
    41c7:	e8 84 e6 00 00       	call   12850 <service_connect_blocking>
    41cc:	a3 14 1c 02 00       	mov    %eax,0x21c14
    41d1:	e9 c3 fe ff ff       	jmp    4099 <loc_null_create+0x19>
    41d6:	66 90                	xchg   %ax,%ax
    41d8:	85 db                	test   %ebx,%ebx
    41da:	0f 84 22 ff ff ff    	je     4102 <loc_null_create+0x82>
    41e0:	89 1d 10 1c 02 00    	mov    %ebx,0x21c10
    41e6:	e9 17 ff ff ff       	jmp    4102 <loc_null_create+0x82>
    41eb:	83 c8 ff             	or     $0xffffffff,%eax
    41ee:	eb 95                	jmp    4185 <loc_null_create+0x105>

000041f0 <loc_null_destroy>:
    41f0:	55                   	push   %ebp
    41f1:	89 e5                	mov    %esp,%ebp
    41f3:	56                   	push   %esi
    41f4:	53                   	push   %ebx
    41f5:	83 ec 30             	sub    $0x30,%esp
    41f8:	8b 75 08             	mov    0x8(%ebp),%esi
    41fb:	c7 04 24 80 19 02 00 	movl   $0x21980,(%esp)
    4202:	e8 39 4f 00 00       	call   9140 <fibril_mutex_lock>
    4207:	a1 14 1c 02 00       	mov    0x21c14,%eax
    420c:	85 c0                	test   %eax,%eax
    420e:	75 38                	jne    4248 <loc_null_destroy+0x58>
    4210:	c7 04 24 90 19 02 00 	movl   $0x21990,(%esp)
    4217:	8b 1d 10 1c 02 00    	mov    0x21c10,%ebx
    421d:	e8 1e 4f 00 00       	call   9140 <fibril_mutex_lock>
    4222:	a1 14 1c 02 00       	mov    0x21c14,%eax
    4227:	85 c0                	test   %eax,%eax
    4229:	0f 84 c1 00 00 00    	je     42f0 <loc_null_destroy+0x100>
    422f:	c7 04 24 90 19 02 00 	movl   $0x21990,(%esp)
    4236:	e8 25 50 00 00       	call   9260 <fibril_mutex_unlock>
    423b:	a1 14 1c 02 00       	mov    0x21c14,%eax
    4240:	85 c0                	test   %eax,%eax
    4242:	0f 84 c0 00 00 00    	je     4308 <loc_null_destroy+0x118>
    4248:	c7 04 24 80 19 02 00 	movl   $0x21980,(%esp)
    424f:	e8 0c 50 00 00       	call   9260 <fibril_mutex_unlock>
    4254:	c7 04 24 90 19 02 00 	movl   $0x21990,(%esp)
    425b:	8b 1d 14 1c 02 00    	mov    0x21c14,%ebx
    4261:	e8 da 4e 00 00       	call   9140 <fibril_mutex_lock>
    4266:	a1 10 1c 02 00       	mov    0x21c10,%eax
    426b:	85 c0                	test   %eax,%eax
    426d:	0f 84 c5 00 00 00    	je     4338 <loc_null_destroy+0x148>
    4273:	c7 04 24 90 19 02 00 	movl   $0x21990,(%esp)
    427a:	e8 e1 4f 00 00       	call   9260 <fibril_mutex_unlock>
    427f:	a1 14 1c 02 00       	mov    0x21c14,%eax
    4284:	89 04 24             	mov    %eax,(%esp)
    4287:	e8 74 12 01 00       	call   15500 <async_exchange_begin>
    428c:	89 74 24 08          	mov    %esi,0x8(%esp)
    4290:	c7 44 24 28 00 00 00 	movl   $0x0,0x28(%esp)
    4297:	00 
    4298:	c7 44 24 24 00 00 00 	movl   $0x0,0x24(%esp)
    429f:	00 
    42a0:	c7 44 24 20 00 00 00 	movl   $0x0,0x20(%esp)
    42a7:	00 
    42a8:	c7 44 24 1c 00 00 00 	movl   $0x0,0x1c(%esp)
    42af:	00 
    42b0:	c7 44 24 18 00 00 00 	movl   $0x0,0x18(%esp)
    42b7:	00 
    42b8:	c7 44 24 14 00 00 00 	movl   $0x0,0x14(%esp)
    42bf:	00 
    42c0:	c7 44 24 10 00 00 00 	movl   $0x0,0x10(%esp)
    42c7:	00 
    42c8:	c7 44 24 0c 00 00 00 	movl   $0x0,0xc(%esp)
    42cf:	00 
    42d0:	c7 44 24 04 0f 04 00 	movl   $0x40f,0x4(%esp)
    42d7:	00 
    42d8:	89 04 24             	mov    %eax,(%esp)
    42db:	89 c3                	mov    %eax,%ebx
    42dd:	e8 ce 01 01 00       	call   144b0 <async_req_fast>
    42e2:	89 5d 08             	mov    %ebx,0x8(%ebp)
    42e5:	83 c4 30             	add    $0x30,%esp
    42e8:	5b                   	pop    %ebx
    42e9:	5e                   	pop    %esi
    42ea:	5d                   	pop    %ebp
    42eb:	e9 80 15 01 00       	jmp    15870 <async_exchange_end>
    42f0:	85 db                	test   %ebx,%ebx
    42f2:	0f 84 37 ff ff ff    	je     422f <loc_null_destroy+0x3f>
    42f8:	89 1d 14 1c 02 00    	mov    %ebx,0x21c14
    42fe:	e9 2c ff ff ff       	jmp    422f <loc_null_destroy+0x3f>
    4303:	90                   	nop
    4304:	8d 74 26 00          	lea    0x0(%esi,%eiz,1),%esi
    4308:	c7 44 24 0c 00 00 00 	movl   $0x0,0xc(%esp)
    430f:	00 
    4310:	c7 44 24 08 02 00 00 	movl   $0x2,0x8(%esp)
    4317:	00 
    4318:	c7 44 24 04 6c 6f 63 	movl   $0x20636f6c,0x4(%esp)
    431f:	20 
    4320:	c7 04 24 02 00 00 00 	movl   $0x2,(%esp)
    4327:	e8 24 e5 00 00       	call   12850 <service_connect_blocking>
    432c:	a3 14 1c 02 00       	mov    %eax,0x21c14
    4331:	e9 d6 fe ff ff       	jmp    420c <loc_null_destroy+0x1c>
    4336:	66 90                	xchg   %ax,%ax
    4338:	85 db                	test   %ebx,%ebx
    433a:	0f 84 33 ff ff ff    	je     4273 <loc_null_destroy+0x83>
    4340:	89 1d 10 1c 02 00    	mov    %ebx,0x21c10
    4346:	e9 28 ff ff ff       	jmp    4273 <loc_null_destroy+0x83>
    434b:	90                   	nop
    434c:	8d 74 26 00          	lea    0x0(%esi,%eiz,1),%esi

00004350 <loc_service_add_to_cat>:
    4350:	55                   	push   %ebp
    4351:	89 e5                	mov    %esp,%ebp
    4353:	53                   	push   %ebx
    4354:	83 ec 44             	sub    $0x44,%esp
    4357:	c7 04 24 60 19 02 00 	movl   $0x21960,(%esp)
    435e:	e8 dd 4d 00 00       	call   9140 <fibril_mutex_lock>
    4363:	a1 0c 1c 02 00       	mov    0x21c0c,%eax
    4368:	85 c0                	test   %eax,%eax
    436a:	75 38                	jne    43a4 <loc_service_add_to_cat+0x54>
    436c:	c7 04 24 70 19 02 00 	movl   $0x21970,(%esp)
    4373:	8b 1d 08 1c 02 00    	mov    0x21c08,%ebx
    4379:	e8 c2 4d 00 00       	call   9140 <fibril_mutex_lock>
    437e:	a1 0c 1c 02 00       	mov    0x21c0c,%eax
    4383:	85 c0                	test   %eax,%eax
    4385:	0f 84 cd 00 00 00    	je     4458 <loc_service_add_to_cat+0x108>
    438b:	c7 04 24 70 19 02 00 	movl   $0x21970,(%esp)
    4392:	e8 c9 4e 00 00       	call   9260 <fibril_mutex_unlock>
    4397:	a1 0c 1c 02 00       	mov    0x21c0c,%eax
    439c:	85 c0                	test   %eax,%eax
    439e:	0f 84 cc 00 00 00    	je     4470 <loc_service_add_to_cat+0x120>
    43a4:	c7 04 24 60 19 02 00 	movl   $0x21960,(%esp)
    43ab:	e8 b0 4e 00 00       	call   9260 <fibril_mutex_unlock>
    43b0:	c7 04 24 70 19 02 00 	movl   $0x21970,(%esp)
    43b7:	8b 1d 0c 1c 02 00    	mov    0x21c0c,%ebx
    43bd:	e8 7e 4d 00 00       	call   9140 <fibril_mutex_lock>
    43c2:	a1 08 1c 02 00       	mov    0x21c08,%eax
    43c7:	85 c0                	test   %eax,%eax
    43c9:	0f 84 d1 00 00 00    	je     44a0 <loc_service_add_to_cat+0x150>
    43cf:	c7 04 24 70 19 02 00 	movl   $0x21970,(%esp)
    43d6:	e8 85 4e 00 00       	call   9260 <fibril_mutex_unlock>
    43db:	a1 0c 1c 02 00       	mov    0x21c0c,%eax
    43e0:	89 04 24             	mov    %eax,(%esp)
    43e3:	e8 18 11 01 00       	call   15500 <async_exchange_begin>
    43e8:	c7 44 24 28 00 00 00 	movl   $0x0,0x28(%esp)
    43ef:	00 
    43f0:	89 c3                	mov    %eax,%ebx
    43f2:	8b 45 0c             	mov    0xc(%ebp),%eax
    43f5:	89 44 24 0c          	mov    %eax,0xc(%esp)
    43f9:	8b 45 08             	mov    0x8(%ebp),%eax
    43fc:	89 1c 24             	mov    %ebx,(%esp)
    43ff:	c7 44 24 24 00 00 00 	movl   $0x0,0x24(%esp)
    4406:	00 
    4407:	c7 44 24 20 00 00 00 	movl   $0x0,0x20(%esp)
    440e:	00 
    440f:	c7 44 24 1c 00 00 00 	movl   $0x0,0x1c(%esp)
    4416:	00 
    4417:	c7 44 24 18 00 00 00 	movl   $0x0,0x18(%esp)
    441e:	00 
    441f:	c7 44 24 14 00 00 00 	movl   $0x0,0x14(%esp)
    4426:	00 
    4427:	c7 44 24 10 00 00 00 	movl   $0x0,0x10(%esp)
    442e:	00 
    442f:	89 44 24 08          	mov    %eax,0x8(%esp)
    4433:	c7 44 24 04 02 04 00 	movl   $0x402,0x4(%esp)
    443a:	00 
    443b:	e8 70 00 01 00       	call   144b0 <async_req_fast>
    4440:	89 1c 24             	mov    %ebx,(%esp)
    4443:	89 45 f4             	mov    %eax,-0xc(%ebp)
    4446:	e8 25 14 01 00       	call   15870 <async_exchange_end>
    444b:	8b 45 f4             	mov    -0xc(%ebp),%eax
    444e:	83 c4 44             	add    $0x44,%esp
    4451:	5b                   	pop    %ebx
    4452:	5d                   	pop    %ebp
    4453:	c3                   	ret    
    4454:	8d 74 26 00          	lea    0x0(%esi,%eiz,1),%esi
    4458:	85 db                	test   %ebx,%ebx
    445a:	0f 84 2b ff ff ff    	je     438b <loc_service_add_to_cat+0x3b>
    4460:	89 1d 0c 1c 02 00    	mov    %ebx,0x21c0c
    4466:	e9 20 ff ff ff       	jmp    438b <loc_service_add_to_cat+0x3b>
    446b:	90                   	nop
    446c:	8d 74 26 00          	lea    0x0(%esi,%eiz,1),%esi
    4470:	c7 44 24 0c 00 00 00 	movl   $0x0,0xc(%esp)
    4477:	00 
    4478:	c7 44 24 08 01 00 00 	movl   $0x1,0x8(%esp)
    447f:	00 
    4480:	c7 44 24 04 6c 6f 63 	movl   $0x20636f6c,0x4(%esp)
    4487:	20 
    4488:	c7 04 24 02 00 00 00 	movl   $0x2,(%esp)
    448f:	e8 bc e3 00 00       	call   12850 <service_connect_blocking>
    4494:	a3 0c 1c 02 00       	mov    %eax,0x21c0c
    4499:	e9 ca fe ff ff       	jmp    4368 <loc_service_add_to_cat+0x18>
    449e:	66 90                	xchg   %ax,%ax
    44a0:	85 db                	test   %ebx,%ebx
    44a2:	0f 84 27 ff ff ff    	je     43cf <loc_service_add_to_cat+0x7f>
    44a8:	89 1d 08 1c 02 00    	mov    %ebx,0x21c08
    44ae:	e9 1c ff ff ff       	jmp    43cf <loc_service_add_to_cat+0x7f>
    44b3:	8d b6 00 00 00 00    	lea    0x0(%esi),%esi
    44b9:	8d bc 27 00 00 00 00 	lea    0x0(%edi,%eiz,1),%edi

000044c0 <loc_count_namespaces>:
    44c0:	55                   	push   %ebp
    44c1:	89 e5                	mov    %esp,%ebp
    44c3:	56                   	push   %esi
    44c4:	53                   	push   %ebx
    44c5:	83 ec 40             	sub    $0x40,%esp
    44c8:	c7 04 24 80 19 02 00 	movl   $0x21980,(%esp)
    44cf:	e8 6c 4c 00 00       	call   9140 <fibril_mutex_lock>
    44d4:	a1 14 1c 02 00       	mov    0x21c14,%eax
    44d9:	85 c0                	test   %eax,%eax
    44db:	75 3a                	jne    4517 <loc_count_namespaces+0x57>
    44dd:	c7 04 24 90 19 02 00 	movl   $0x21990,(%esp)
    44e4:	8b 1d 10 1c 02 00    	mov    0x21c10,%ebx
    44ea:	e8 51 4c 00 00       	call   9140 <fibril_mutex_lock>
    44ef:	8b 35 14 1c 02 00    	mov    0x21c14,%esi
    44f5:	85 f6                	test   %esi,%esi
    44f7:	0f 84 d3 00 00 00    	je     45d0 <loc_count_namespaces+0x110>
    44fd:	c7 04 24 90 19 02 00 	movl   $0x21990,(%esp)
    4504:	e8 57 4d 00 00       	call   9260 <fibril_mutex_unlock>
    4509:	8b 0d 14 1c 02 00    	mov    0x21c14,%ecx
    450f:	85 c9                	test   %ecx,%ecx
    4511:	0f 84 d1 00 00 00    	je     45e8 <loc_count_namespaces+0x128>
    4517:	c7 04 24 80 19 02 00 	movl   $0x21980,(%esp)
    451e:	e8 3d 4d 00 00       	call   9260 <fibril_mutex_unlock>
    4523:	c7 04 24 90 19 02 00 	movl   $0x21990,(%esp)
    452a:	8b 1d 14 1c 02 00    	mov    0x21c14,%ebx
    4530:	e8 0b 4c 00 00       	call   9140 <fibril_mutex_lock>
    4535:	8b 15 10 1c 02 00    	mov    0x21c10,%edx
    453b:	85 d2                	test   %edx,%edx
    453d:	0f 84 d5 00 00 00    	je     4618 <loc_count_namespaces+0x158>
    4543:	c7 04 24 90 19 02 00 	movl   $0x21990,(%esp)
    454a:	31 f6                	xor    %esi,%esi
    454c:	e8 0f 4d 00 00       	call   9260 <fibril_mutex_unlock>
    4551:	a1 14 1c 02 00       	mov    0x21c14,%eax
    4556:	89 04 24             	mov    %eax,(%esp)
    4559:	e8 a2 0f 01 00       	call   15500 <async_exchange_begin>
    455e:	c7 44 24 28 00 00 00 	movl   $0x0,0x28(%esp)
    4565:	00 
    4566:	89 c3                	mov    %eax,%ebx
    4568:	8d 45 f4             	lea    -0xc(%ebp),%eax
    456b:	c7 44 24 24 00 00 00 	movl   $0x0,0x24(%esp)
    4572:	00 
    4573:	c7 44 24 20 00 00 00 	movl   $0x0,0x20(%esp)
    457a:	00 
    457b:	c7 44 24 1c 00 00 00 	movl   $0x0,0x1c(%esp)
    4582:	00 
    4583:	89 44 24 18          	mov    %eax,0x18(%esp)
    4587:	c7 44 24 14 00 00 00 	movl   $0x0,0x14(%esp)
    458e:	00 
    458f:	c7 44 24 10 00 00 00 	movl   $0x0,0x10(%esp)
    4596:	00 
    4597:	c7 44 24 0c 00 00 00 	movl   $0x0,0xc(%esp)
    459e:	00 
    459f:	c7 44 24 08 00 00 00 	movl   $0x0,0x8(%esp)
    45a6:	00 
    45a7:	c7 44 24 04 10 04 00 	movl   $0x410,0x4(%esp)
    45ae:	00 
    45af:	89 1c 24             	mov    %ebx,(%esp)
    45b2:	e8 f9 fe 00 00       	call   144b0 <async_req_fast>
    45b7:	85 c0                	test   %eax,%eax
    45b9:	75 03                	jne    45be <loc_count_namespaces+0xfe>
    45bb:	8b 75 f4             	mov    -0xc(%ebp),%esi
    45be:	89 1c 24             	mov    %ebx,(%esp)
    45c1:	e8 aa 12 01 00       	call   15870 <async_exchange_end>
    45c6:	83 c4 40             	add    $0x40,%esp
    45c9:	89 f0                	mov    %esi,%eax
    45cb:	5b                   	pop    %ebx
    45cc:	5e                   	pop    %esi
    45cd:	5d                   	pop    %ebp
    45ce:	c3                   	ret    
    45cf:	90                   	nop
    45d0:	85 db                	test   %ebx,%ebx
    45d2:	0f 84 25 ff ff ff    	je     44fd <loc_count_namespaces+0x3d>
    45d8:	89 1d 14 1c 02 00    	mov    %ebx,0x21c14
    45de:	e9 1a ff ff ff       	jmp    44fd <loc_count_namespaces+0x3d>
    45e3:	90                   	nop
    45e4:	8d 74 26 00          	lea    0x0(%esi,%eiz,1),%esi
    45e8:	c7 44 24 0c 00 00 00 	movl   $0x0,0xc(%esp)
    45ef:	00 
    45f0:	c7 44 24 08 02 00 00 	movl   $0x2,0x8(%esp)
    45f7:	00 
    45f8:	c7 44 24 04 6c 6f 63 	movl   $0x20636f6c,0x4(%esp)
    45ff:	20 
    4600:	c7 04 24 02 00 00 00 	movl   $0x2,(%esp)
    4607:	e8 44 e2 00 00       	call   12850 <service_connect_blocking>
    460c:	a3 14 1c 02 00       	mov    %eax,0x21c14
    4611:	e9 c3 fe ff ff       	jmp    44d9 <loc_count_namespaces+0x19>
    4616:	66 90                	xchg   %ax,%ax
    4618:	85 db                	test   %ebx,%ebx
    461a:	0f 84 23 ff ff ff    	je     4543 <loc_count_namespaces+0x83>
    4620:	89 1d 10 1c 02 00    	mov    %ebx,0x21c10
    4626:	e9 18 ff ff ff       	jmp    4543 <loc_count_namespaces+0x83>
    462b:	90                   	nop
    462c:	8d 74 26 00          	lea    0x0(%esi,%eiz,1),%esi

00004630 <loc_count_services>:
    4630:	55                   	push   %ebp
    4631:	89 e5                	mov    %esp,%ebp
    4633:	56                   	push   %esi
    4634:	53                   	push   %ebx
    4635:	83 ec 40             	sub    $0x40,%esp
    4638:	c7 04 24 80 19 02 00 	movl   $0x21980,(%esp)
    463f:	e8 fc 4a 00 00       	call   9140 <fibril_mutex_lock>
    4644:	a1 14 1c 02 00       	mov    0x21c14,%eax
    4649:	85 c0                	test   %eax,%eax
    464b:	75 38                	jne    4685 <loc_count_services+0x55>
    464d:	c7 04 24 90 19 02 00 	movl   $0x21990,(%esp)
    4654:	8b 1d 10 1c 02 00    	mov    0x21c10,%ebx
    465a:	e8 e1 4a 00 00       	call   9140 <fibril_mutex_lock>
    465f:	a1 14 1c 02 00       	mov    0x21c14,%eax
    4664:	85 c0                	test   %eax,%eax
    4666:	0f 84 d4 00 00 00    	je     4740 <loc_count_services+0x110>
    466c:	c7 04 24 90 19 02 00 	movl   $0x21990,(%esp)
    4673:	e8 e8 4b 00 00       	call   9260 <fibril_mutex_unlock>
    4678:	a1 14 1c 02 00       	mov    0x21c14,%eax
    467d:	85 c0                	test   %eax,%eax
    467f:	0f 84 d3 00 00 00    	je     4758 <loc_count_services+0x128>
    4685:	c7 04 24 80 19 02 00 	movl   $0x21980,(%esp)
    468c:	e8 cf 4b 00 00       	call   9260 <fibril_mutex_unlock>
    4691:	c7 04 24 90 19 02 00 	movl   $0x21990,(%esp)
    4698:	8b 1d 14 1c 02 00    	mov    0x21c14,%ebx
    469e:	e8 9d 4a 00 00       	call   9140 <fibril_mutex_lock>
    46a3:	a1 10 1c 02 00       	mov    0x21c10,%eax
    46a8:	85 c0                	test   %eax,%eax
    46aa:	0f 84 d8 00 00 00    	je     4788 <loc_count_services+0x158>
    46b0:	c7 04 24 90 19 02 00 	movl   $0x21990,(%esp)
    46b7:	31 f6                	xor    %esi,%esi
    46b9:	e8 a2 4b 00 00       	call   9260 <fibril_mutex_unlock>
    46be:	a1 14 1c 02 00       	mov    0x21c14,%eax
    46c3:	89 04 24             	mov    %eax,(%esp)
    46c6:	e8 35 0e 01 00       	call   15500 <async_exchange_begin>
    46cb:	c7 44 24 28 00 00 00 	movl   $0x0,0x28(%esp)
    46d2:	00 
    46d3:	89 c3                	mov    %eax,%ebx
    46d5:	8d 45 f4             	lea    -0xc(%ebp),%eax
    46d8:	89 44 24 18          	mov    %eax,0x18(%esp)
    46dc:	8b 45 08             	mov    0x8(%ebp),%eax
    46df:	c7 44 24 24 00 00 00 	movl   $0x0,0x24(%esp)
    46e6:	00 
    46e7:	c7 44 24 20 00 00 00 	movl   $0x0,0x20(%esp)
    46ee:	00 
    46ef:	c7 44 24 1c 00 00 00 	movl   $0x0,0x1c(%esp)
    46f6:	00 
    46f7:	c7 44 24 14 00 00 00 	movl   $0x0,0x14(%esp)
    46fe:	00 
    46ff:	c7 44 24 10 00 00 00 	movl   $0x0,0x10(%esp)
    4706:	00 
    4707:	c7 44 24 0c 00 00 00 	movl   $0x0,0xc(%esp)
    470e:	00 
    470f:	89 44 24 08          	mov    %eax,0x8(%esp)
    4713:	c7 44 24 04 11 04 00 	movl   $0x411,0x4(%esp)
    471a:	00 
    471b:	89 1c 24             	mov    %ebx,(%esp)
    471e:	e8 8d fd 00 00       	call   144b0 <async_req_fast>
    4723:	85 c0                	test   %eax,%eax
    4725:	75 03                	jne    472a <loc_count_services+0xfa>
    4727:	8b 75 f4             	mov    -0xc(%ebp),%esi
    472a:	89 1c 24             	mov    %ebx,(%esp)
    472d:	e8 3e 11 01 00       	call   15870 <async_exchange_end>
    4732:	83 c4 40             	add    $0x40,%esp
    4735:	89 f0                	mov    %esi,%eax
    4737:	5b                   	pop    %ebx
    4738:	5e                   	pop    %esi
    4739:	5d                   	pop    %ebp
    473a:	c3                   	ret    
    473b:	90                   	nop
    473c:	8d 74 26 00          	lea    0x0(%esi,%eiz,1),%esi
    4740:	85 db                	test   %ebx,%ebx
    4742:	0f 84 24 ff ff ff    	je     466c <loc_count_services+0x3c>
    4748:	89 1d 14 1c 02 00    	mov    %ebx,0x21c14
    474e:	e9 19 ff ff ff       	jmp    466c <loc_count_services+0x3c>
    4753:	90                   	nop
    4754:	8d 74 26 00          	lea    0x0(%esi,%eiz,1),%esi
    4758:	c7 44 24 0c 00 00 00 	movl   $0x0,0xc(%esp)
    475f:	00 
    4760:	c7 44 24 08 02 00 00 	movl   $0x2,0x8(%esp)
    4767:	00 
    4768:	c7 44 24 04 6c 6f 63 	movl   $0x20636f6c,0x4(%esp)
    476f:	20 
    4770:	c7 04 24 02 00 00 00 	movl   $0x2,(%esp)
    4777:	e8 d4 e0 00 00       	call   12850 <service_connect_blocking>
    477c:	a3 14 1c 02 00       	mov    %eax,0x21c14
    4781:	e9 c3 fe ff ff       	jmp    4649 <loc_count_services+0x19>
    4786:	66 90                	xchg   %ax,%ax
    4788:	85 db                	test   %ebx,%ebx
    478a:	0f 84 20 ff ff ff    	je     46b0 <loc_count_services+0x80>
    4790:	89 1d 10 1c 02 00    	mov    %ebx,0x21c10
    4796:	e9 15 ff ff ff       	jmp    46b0 <loc_count_services+0x80>
    479b:	90                   	nop
    479c:	8d 74 26 00          	lea    0x0(%esi,%eiz,1),%esi

000047a0 <loc_get_namespaces>:
    47a0:	55                   	push   %ebp
    47a1:	89 e5                	mov    %esp,%ebp
    47a3:	57                   	push   %edi
    47a4:	56                   	push   %esi
    47a5:	53                   	push   %ebx
    47a6:	83 ec 7c             	sub    $0x7c,%esp
    47a9:	c7 04 24 80 19 02 00 	movl   $0x21980,(%esp)
    47b0:	e8 8b 49 00 00       	call   9140 <fibril_mutex_lock>
    47b5:	a1 14 1c 02 00       	mov    0x21c14,%eax
    47ba:	85 c0                	test   %eax,%eax
    47bc:	75 3a                	jne    47f8 <loc_get_namespaces+0x58>
    47be:	c7 04 24 90 19 02 00 	movl   $0x21990,(%esp)
    47c5:	8b 1d 10 1c 02 00    	mov    0x21c10,%ebx
    47cb:	e8 70 49 00 00       	call   9140 <fibril_mutex_lock>
    47d0:	8b 0d 14 1c 02 00    	mov    0x21c14,%ecx
    47d6:	85 c9                	test   %ecx,%ecx
    47d8:	0f 84 da 01 00 00    	je     49b8 <loc_get_namespaces+0x218>
    47de:	c7 04 24 90 19 02 00 	movl   $0x21990,(%esp)
    47e5:	e8 76 4a 00 00       	call   9260 <fibril_mutex_unlock>
    47ea:	8b 15 14 1c 02 00    	mov    0x21c14,%edx
    47f0:	85 d2                	test   %edx,%edx
    47f2:	0f 84 d8 01 00 00    	je     49d0 <loc_get_namespaces+0x230>
    47f8:	c7 04 24 80 19 02 00 	movl   $0x21980,(%esp)
    47ff:	e8 5c 4a 00 00       	call   9260 <fibril_mutex_unlock>
    4804:	c7 04 24 90 19 02 00 	movl   $0x21990,(%esp)
    480b:	8b 1d 14 1c 02 00    	mov    0x21c14,%ebx
    4811:	e8 2a 49 00 00       	call   9140 <fibril_mutex_lock>
    4816:	a1 10 1c 02 00       	mov    0x21c10,%eax
    481b:	85 c0                	test   %eax,%eax
    481d:	0f 84 fd 01 00 00    	je     4a20 <loc_get_namespaces+0x280>
    4823:	c7 04 24 90 19 02 00 	movl   $0x21990,(%esp)
    482a:	e8 31 4a 00 00       	call   9260 <fibril_mutex_unlock>
    482f:	a1 14 1c 02 00       	mov    0x21c14,%eax
    4834:	89 04 24             	mov    %eax,(%esp)
    4837:	e8 c4 0c 01 00       	call   15500 <async_exchange_begin>
    483c:	c7 44 24 28 00 00 00 	movl   $0x0,0x28(%esp)
    4843:	00 
    4844:	89 c6                	mov    %eax,%esi
    4846:	8d 45 c0             	lea    -0x40(%ebp),%eax
    4849:	c7 44 24 24 00 00 00 	movl   $0x0,0x24(%esp)
    4850:	00 
    4851:	c7 44 24 20 00 00 00 	movl   $0x0,0x20(%esp)
    4858:	00 
    4859:	c7 44 24 1c 00 00 00 	movl   $0x0,0x1c(%esp)
    4860:	00 
    4861:	89 44 24 18          	mov    %eax,0x18(%esp)
    4865:	c7 44 24 14 00 00 00 	movl   $0x0,0x14(%esp)
    486c:	00 
    486d:	c7 44 24 10 00 00 00 	movl   $0x0,0x10(%esp)
    4874:	00 
    4875:	c7 44 24 0c 00 00 00 	movl   $0x0,0xc(%esp)
    487c:	00 
    487d:	c7 44 24 08 00 00 00 	movl   $0x0,0x8(%esp)
    4884:	00 
    4885:	c7 44 24 04 10 04 00 	movl   $0x410,0x4(%esp)
    488c:	00 
    488d:	89 34 24             	mov    %esi,(%esp)
    4890:	e8 1b fc 00 00       	call   144b0 <async_req_fast>
    4895:	85 c0                	test   %eax,%eax
    4897:	0f 85 03 01 00 00    	jne    49a0 <loc_get_namespaces+0x200>
    489d:	8b 5d c0             	mov    -0x40(%ebp),%ebx
    48a0:	89 34 24             	mov    %esi,(%esp)
    48a3:	e8 c8 0f 01 00       	call   15870 <async_exchange_end>
    48a8:	85 db                	test   %ebx,%ebx
    48aa:	0f 84 f8 00 00 00    	je     49a8 <loc_get_namespaces+0x208>
    48b0:	c7 44 24 04 04 01 00 	movl   $0x104,0x4(%esp)
    48b7:	00 
    48b8:	89 1c 24             	mov    %ebx,(%esp)
    48bb:	e8 a0 d6 00 00       	call   11f60 <calloc>
    48c0:	89 c7                	mov    %eax,%edi
    48c2:	85 c0                	test   %eax,%eax
    48c4:	0f 84 de 00 00 00    	je     49a8 <loc_get_namespaces+0x208>
    48ca:	c7 04 24 90 19 02 00 	movl   $0x21990,(%esp)
    48d1:	e8 6a 48 00 00       	call   9140 <fibril_mutex_lock>
    48d6:	a1 10 1c 02 00       	mov    0x21c10,%eax
    48db:	85 c0                	test   %eax,%eax
    48dd:	0f 84 5d 01 00 00    	je     4a40 <loc_get_namespaces+0x2a0>
    48e3:	c7 04 24 90 19 02 00 	movl   $0x21990,(%esp)
    48ea:	e8 71 49 00 00       	call   9260 <fibril_mutex_unlock>
    48ef:	a1 10 1c 02 00       	mov    0x21c10,%eax
    48f4:	85 c0                	test   %eax,%eax
    48f6:	0f 84 72 01 00 00    	je     4a6e <loc_get_namespaces+0x2ce>
    48fc:	89 04 24             	mov    %eax,(%esp)
    48ff:	e8 fc 0b 01 00       	call   15500 <async_exchange_begin>
    4904:	89 c6                	mov    %eax,%esi
    4906:	8d 45 c4             	lea    -0x3c(%ebp),%eax
    4909:	c7 44 24 14 00 00 00 	movl   $0x0,0x14(%esp)
    4910:	00 
    4911:	89 44 24 18          	mov    %eax,0x18(%esp)
    4915:	c7 44 24 10 00 00 00 	movl   $0x0,0x10(%esp)
    491c:	00 
    491d:	c7 44 24 0c 00 00 00 	movl   $0x0,0xc(%esp)
    4924:	00 
    4925:	c7 44 24 08 00 00 00 	movl   $0x0,0x8(%esp)
    492c:	00 
    492d:	c7 44 24 04 13 04 00 	movl   $0x413,0x4(%esp)
    4934:	00 
    4935:	89 34 24             	mov    %esi,(%esp)
    4938:	e8 63 f5 00 00       	call   13ea0 <async_send_fast>
    493d:	89 7c 24 04          	mov    %edi,0x4(%esp)
    4941:	89 45 b4             	mov    %eax,-0x4c(%ebp)
    4944:	89 d8                	mov    %ebx,%eax
    4946:	c1 e0 08             	shl    $0x8,%eax
    4949:	89 34 24             	mov    %esi,(%esp)
    494c:	8d 04 98             	lea    (%eax,%ebx,4),%eax
    494f:	89 44 24 08          	mov    %eax,0x8(%esp)
    4953:	e8 78 15 01 00       	call   15ed0 <async_data_read_start>
    4958:	89 34 24             	mov    %esi,(%esp)
    495b:	89 45 b0             	mov    %eax,-0x50(%ebp)
    495e:	e8 0d 0f 01 00       	call   15870 <async_exchange_end>
    4963:	8b 45 b0             	mov    -0x50(%ebp),%eax
    4966:	83 f8 f0             	cmp    $0xfffffff0,%eax
    4969:	0f 84 c4 00 00 00    	je     4a33 <loc_get_namespaces+0x293>
    496f:	85 c0                	test   %eax,%eax
    4971:	0f 85 89 00 00 00    	jne    4a00 <loc_get_namespaces+0x260>
    4977:	8d 45 c0             	lea    -0x40(%ebp),%eax
    497a:	89 44 24 04          	mov    %eax,0x4(%esp)
    497e:	8b 45 b4             	mov    -0x4c(%ebp),%eax
    4981:	89 04 24             	mov    %eax,(%esp)
    4984:	e8 e7 f6 00 00       	call   14070 <async_wait_for>
    4989:	8b 45 c0             	mov    -0x40(%ebp),%eax
    498c:	85 c0                	test   %eax,%eax
    498e:	75 18                	jne    49a8 <loc_get_namespaces+0x208>
    4990:	8b 45 08             	mov    0x8(%ebp),%eax
    4993:	89 38                	mov    %edi,(%eax)
    4995:	83 c4 7c             	add    $0x7c,%esp
    4998:	89 d8                	mov    %ebx,%eax
    499a:	5b                   	pop    %ebx
    499b:	5e                   	pop    %esi
    499c:	5f                   	pop    %edi
    499d:	5d                   	pop    %ebp
    499e:	c3                   	ret    
    499f:	90                   	nop
    49a0:	89 34 24             	mov    %esi,(%esp)
    49a3:	e8 c8 0e 01 00       	call   15870 <async_exchange_end>
    49a8:	83 c4 7c             	add    $0x7c,%esp
    49ab:	31 db                	xor    %ebx,%ebx
    49ad:	89 d8                	mov    %ebx,%eax
    49af:	5b                   	pop    %ebx
    49b0:	5e                   	pop    %esi
    49b1:	5f                   	pop    %edi
    49b2:	5d                   	pop    %ebp
    49b3:	c3                   	ret    
    49b4:	8d 74 26 00          	lea    0x0(%esi,%eiz,1),%esi
    49b8:	85 db                	test   %ebx,%ebx
    49ba:	0f 84 1e fe ff ff    	je     47de <loc_get_namespaces+0x3e>
    49c0:	89 1d 14 1c 02 00    	mov    %ebx,0x21c14
    49c6:	e9 13 fe ff ff       	jmp    47de <loc_get_namespaces+0x3e>
    49cb:	90                   	nop
    49cc:	8d 74 26 00          	lea    0x0(%esi,%eiz,1),%esi
    49d0:	c7 44 24 0c 00 00 00 	movl   $0x0,0xc(%esp)
    49d7:	00 
    49d8:	c7 44 24 08 02 00 00 	movl   $0x2,0x8(%esp)
    49df:	00 
    49e0:	c7 44 24 04 6c 6f 63 	movl   $0x20636f6c,0x4(%esp)
    49e7:	20 
    49e8:	c7 04 24 02 00 00 00 	movl   $0x2,(%esp)
    49ef:	e8 5c de 00 00       	call   12850 <service_connect_blocking>
    49f4:	a3 14 1c 02 00       	mov    %eax,0x21c14
    49f9:	e9 bc fd ff ff       	jmp    47ba <loc_get_namespaces+0x1a>
    49fe:	66 90                	xchg   %ax,%ax
    4a00:	8b 45 b4             	mov    -0x4c(%ebp),%eax
    4a03:	31 db                	xor    %ebx,%ebx
    4a05:	89 04 24             	mov    %eax,(%esp)
    4a08:	e8 b3 f8 00 00       	call   142c0 <async_forget>
    4a0d:	89 3c 24             	mov    %edi,(%esp)
    4a10:	e8 bb d6 00 00       	call   120d0 <free>
    4a15:	83 c4 7c             	add    $0x7c,%esp
    4a18:	89 d8                	mov    %ebx,%eax
    4a1a:	5b                   	pop    %ebx
    4a1b:	5e                   	pop    %esi
    4a1c:	5f                   	pop    %edi
    4a1d:	5d                   	pop    %ebp
    4a1e:	c3                   	ret    
    4a1f:	90                   	nop
    4a20:	85 db                	test   %ebx,%ebx
    4a22:	0f 84 fb fd ff ff    	je     4823 <loc_get_namespaces+0x83>
    4a28:	89 1d 10 1c 02 00    	mov    %ebx,0x21c10
    4a2e:	e9 f0 fd ff ff       	jmp    4823 <loc_get_namespaces+0x83>
    4a33:	89 3c 24             	mov    %edi,(%esp)
    4a36:	e8 95 d6 00 00       	call   120d0 <free>
    4a3b:	e9 69 fd ff ff       	jmp    47a9 <loc_get_namespaces+0x9>
    4a40:	c7 44 24 0c 00 00 00 	movl   $0x0,0xc(%esp)
    4a47:	00 
    4a48:	c7 44 24 08 02 00 00 	movl   $0x2,0x8(%esp)
    4a4f:	00 
    4a50:	c7 44 24 04 6c 6f 63 	movl   $0x20636f6c,0x4(%esp)
    4a57:	20 
    4a58:	c7 04 24 02 00 00 00 	movl   $0x2,(%esp)
    4a5f:	e8 6c dd 00 00       	call   127d0 <service_connect>
    4a64:	a3 10 1c 02 00       	mov    %eax,0x21c10
    4a69:	e9 75 fe ff ff       	jmp    48e3 <loc_get_namespaces+0x143>
    4a6e:	31 f6                	xor    %esi,%esi
    4a70:	e9 91 fe ff ff       	jmp    4906 <loc_get_namespaces+0x166>
    4a75:	8d 74 26 00          	lea    0x0(%esi,%eiz,1),%esi
    4a79:	8d bc 27 00 00 00 00 	lea    0x0(%edi,%eiz,1),%edi

00004a80 <loc_get_services>:
    4a80:	55                   	push   %ebp
    4a81:	89 e5                	mov    %esp,%ebp
    4a83:	57                   	push   %edi
    4a84:	56                   	push   %esi
    4a85:	53                   	push   %ebx
    4a86:	83 ec 7c             	sub    $0x7c,%esp
    4a89:	c7 04 24 80 19 02 00 	movl   $0x21980,(%esp)
    4a90:	e8 ab 46 00 00       	call   9140 <fibril_mutex_lock>
    4a95:	a1 14 1c 02 00       	mov    0x21c14,%eax
    4a9a:	85 c0                	test   %eax,%eax
    4a9c:	75 38                	jne    4ad6 <loc_get_services+0x56>
    4a9e:	c7 04 24 90 19 02 00 	movl   $0x21990,(%esp)
    4aa5:	8b 1d 10 1c 02 00    	mov    0x21c10,%ebx
    4aab:	e8 90 46 00 00       	call   9140 <fibril_mutex_lock>
    4ab0:	a1 14 1c 02 00       	mov    0x21c14,%eax
    4ab5:	85 c0                	test   %eax,%eax
    4ab7:	0f 84 db 01 00 00    	je     4c98 <loc_get_services+0x218>
    4abd:	c7 04 24 90 19 02 00 	movl   $0x21990,(%esp)
    4ac4:	e8 97 47 00 00       	call   9260 <fibril_mutex_unlock>
    4ac9:	a1 14 1c 02 00       	mov    0x21c14,%eax
    4ace:	85 c0                	test   %eax,%eax
    4ad0:	0f 84 da 01 00 00    	je     4cb0 <loc_get_services+0x230>
    4ad6:	c7 04 24 80 19 02 00 	movl   $0x21980,(%esp)
    4add:	e8 7e 47 00 00       	call   9260 <fibril_mutex_unlock>
    4ae2:	c7 04 24 90 19 02 00 	movl   $0x21990,(%esp)
    4ae9:	8b 1d 14 1c 02 00    	mov    0x21c14,%ebx
    4aef:	e8 4c 46 00 00       	call   9140 <fibril_mutex_lock>
    4af4:	a1 10 1c 02 00       	mov    0x21c10,%eax
    4af9:	85 c0                	test   %eax,%eax
    4afb:	0f 84 ff 01 00 00    	je     4d00 <loc_get_services+0x280>
    4b01:	c7 04 24 90 19 02 00 	movl   $0x21990,(%esp)
    4b08:	e8 53 47 00 00       	call   9260 <fibril_mutex_unlock>
    4b0d:	a1 14 1c 02 00       	mov    0x21c14,%eax
    4b12:	89 04 24             	mov    %eax,(%esp)
    4b15:	e8 e6 09 01 00       	call   15500 <async_exchange_begin>
    4b1a:	c7 44 24 28 00 00 00 	movl   $0x0,0x28(%esp)
    4b21:	00 
    4b22:	89 c6                	mov    %eax,%esi
    4b24:	8d 45 c0             	lea    -0x40(%ebp),%eax
    4b27:	89 44 24 18          	mov    %eax,0x18(%esp)
    4b2b:	8b 45 08             	mov    0x8(%ebp),%eax
    4b2e:	c7 44 24 24 00 00 00 	movl   $0x0,0x24(%esp)
    4b35:	00 
    4b36:	c7 44 24 20 00 00 00 	movl   $0x0,0x20(%esp)
    4b3d:	00 
    4b3e:	c7 44 24 1c 00 00 00 	movl   $0x0,0x1c(%esp)
    4b45:	00 
    4b46:	c7 44 24 14 00 00 00 	movl   $0x0,0x14(%esp)
    4b4d:	00 
    4b4e:	c7 44 24 10 00 00 00 	movl   $0x0,0x10(%esp)
    4b55:	00 
    4b56:	c7 44 24 0c 00 00 00 	movl   $0x0,0xc(%esp)
    4b5d:	00 
    4b5e:	89 44 24 08          	mov    %eax,0x8(%esp)
    4b62:	c7 44 24 04 11 04 00 	movl   $0x411,0x4(%esp)
    4b69:	00 
    4b6a:	89 34 24             	mov    %esi,(%esp)
    4b6d:	e8 3e f9 00 00       	call   144b0 <async_req_fast>
    4b72:	85 c0                	test   %eax,%eax
    4b74:	0f 85 06 01 00 00    	jne    4c80 <loc_get_services+0x200>
    4b7a:	8b 5d c0             	mov    -0x40(%ebp),%ebx
    4b7d:	89 34 24             	mov    %esi,(%esp)
    4b80:	e8 eb 0c 01 00       	call   15870 <async_exchange_end>
    4b85:	85 db                	test   %ebx,%ebx
    4b87:	0f 84 fb 00 00 00    	je     4c88 <loc_get_services+0x208>
    4b8d:	c7 44 24 04 04 01 00 	movl   $0x104,0x4(%esp)
    4b94:	00 
    4b95:	89 1c 24             	mov    %ebx,(%esp)
    4b98:	e8 c3 d3 00 00       	call   11f60 <calloc>
    4b9d:	89 c7                	mov    %eax,%edi
    4b9f:	85 c0                	test   %eax,%eax
    4ba1:	0f 84 e1 00 00 00    	je     4c88 <loc_get_services+0x208>
    4ba7:	c7 04 24 90 19 02 00 	movl   $0x21990,(%esp)
    4bae:	e8 8d 45 00 00       	call   9140 <fibril_mutex_lock>
    4bb3:	a1 10 1c 02 00       	mov    0x21c10,%eax
    4bb8:	85 c0                	test   %eax,%eax
    4bba:	0f 84 60 01 00 00    	je     4d20 <loc_get_services+0x2a0>
    4bc0:	c7 04 24 90 19 02 00 	movl   $0x21990,(%esp)
    4bc7:	e8 94 46 00 00       	call   9260 <fibril_mutex_unlock>
    4bcc:	a1 10 1c 02 00       	mov    0x21c10,%eax
    4bd1:	85 c0                	test   %eax,%eax
    4bd3:	0f 84 75 01 00 00    	je     4d4e <loc_get_services+0x2ce>
    4bd9:	89 04 24             	mov    %eax,(%esp)
    4bdc:	e8 1f 09 01 00       	call   15500 <async_exchange_begin>
    4be1:	89 c6                	mov    %eax,%esi
    4be3:	8d 45 c4             	lea    -0x3c(%ebp),%eax
    4be6:	c7 44 24 14 00 00 00 	movl   $0x0,0x14(%esp)
    4bed:	00 
    4bee:	89 44 24 18          	mov    %eax,0x18(%esp)
    4bf2:	8b 45 08             	mov    0x8(%ebp),%eax
    4bf5:	c7 44 24 10 00 00 00 	movl   $0x0,0x10(%esp)
    4bfc:	00 
    4bfd:	c7 44 24 0c 00 00 00 	movl   $0x0,0xc(%esp)
    4c04:	00 
    4c05:	89 44 24 08          	mov    %eax,0x8(%esp)
    4c09:	c7 44 24 04 14 04 00 	movl   $0x414,0x4(%esp)
    4c10:	00 
    4c11:	89 34 24             	mov    %esi,(%esp)
    4c14:	e8 87 f2 00 00       	call   13ea0 <async_send_fast>
    4c19:	89 7c 24 04          	mov    %edi,0x4(%esp)
    4c1d:	89 45 b4             	mov    %eax,-0x4c(%ebp)
    4c20:	89 d8                	mov    %ebx,%eax
    4c22:	c1 e0 08             	shl    $0x8,%eax
    4c25:	89 34 24             	mov    %esi,(%esp)
    4c28:	8d 04 98             	lea    (%eax,%ebx,4),%eax
    4c2b:	89 44 24 08          	mov    %eax,0x8(%esp)
    4c2f:	e8 9c 12 01 00       	call   15ed0 <async_data_read_start>
    4c34:	89 34 24             	mov    %esi,(%esp)
    4c37:	89 45 b0             	mov    %eax,-0x50(%ebp)
    4c3a:	e8 31 0c 01 00       	call   15870 <async_exchange_end>
    4c3f:	8b 45 b0             	mov    -0x50(%ebp),%eax
    4c42:	83 f8 f0             	cmp    $0xfffffff0,%eax
    4c45:	0f 84 c8 00 00 00    	je     4d13 <loc_get_services+0x293>
    4c4b:	85 c0                	test   %eax,%eax
    4c4d:	0f 85 8d 00 00 00    	jne    4ce0 <loc_get_services+0x260>
    4c53:	8d 45 c0             	lea    -0x40(%ebp),%eax
    4c56:	89 44 24 04          	mov    %eax,0x4(%esp)
    4c5a:	8b 45 b4             	mov    -0x4c(%ebp),%eax
    4c5d:	89 04 24             	mov    %eax,(%esp)
    4c60:	e8 0b f4 00 00       	call   14070 <async_wait_for>
    4c65:	8b 75 c0             	mov    -0x40(%ebp),%esi
    4c68:	85 f6                	test   %esi,%esi
    4c6a:	75 1c                	jne    4c88 <loc_get_services+0x208>
    4c6c:	8b 45 0c             	mov    0xc(%ebp),%eax
    4c6f:	89 38                	mov    %edi,(%eax)
    4c71:	83 c4 7c             	add    $0x7c,%esp
    4c74:	89 d8                	mov    %ebx,%eax
    4c76:	5b                   	pop    %ebx
    4c77:	5e                   	pop    %esi
    4c78:	5f                   	pop    %edi
    4c79:	5d                   	pop    %ebp
    4c7a:	c3                   	ret    
    4c7b:	90                   	nop
    4c7c:	8d 74 26 00          	lea    0x0(%esi,%eiz,1),%esi
    4c80:	89 34 24             	mov    %esi,(%esp)
    4c83:	e8 e8 0b 01 00       	call   15870 <async_exchange_end>
    4c88:	83 c4 7c             	add    $0x7c,%esp
    4c8b:	31 db                	xor    %ebx,%ebx
    4c8d:	89 d8                	mov    %ebx,%eax
    4c8f:	5b                   	pop    %ebx
    4c90:	5e                   	pop    %esi
    4c91:	5f                   	pop    %edi
    4c92:	5d                   	pop    %ebp
    4c93:	c3                   	ret    
    4c94:	8d 74 26 00          	lea    0x0(%esi,%eiz,1),%esi
    4c98:	85 db                	test   %ebx,%ebx
    4c9a:	0f 84 1d fe ff ff    	je     4abd <loc_get_services+0x3d>
    4ca0:	89 1d 14 1c 02 00    	mov    %ebx,0x21c14
    4ca6:	e9 12 fe ff ff       	jmp    4abd <loc_get_services+0x3d>
    4cab:	90                   	nop
    4cac:	8d 74 26 00          	lea    0x0(%esi,%eiz,1),%esi
    4cb0:	c7 44 24 0c 00 00 00 	movl   $0x0,0xc(%esp)
    4cb7:	00 
    4cb8:	c7 44 24 08 02 00 00 	movl   $0x2,0x8(%esp)
    4cbf:	00 
    4cc0:	c7 44 24 04 6c 6f 63 	movl   $0x20636f6c,0x4(%esp)
    4cc7:	20 
    4cc8:	c7 04 24 02 00 00 00 	movl   $0x2,(%esp)
    4ccf:	e8 7c db 00 00       	call   12850 <service_connect_blocking>
    4cd4:	a3 14 1c 02 00       	mov    %eax,0x21c14
    4cd9:	e9 bc fd ff ff       	jmp    4a9a <loc_get_services+0x1a>
    4cde:	66 90                	xchg   %ax,%ax
    4ce0:	8b 45 b4             	mov    -0x4c(%ebp),%eax
    4ce3:	31 db                	xor    %ebx,%ebx
    4ce5:	89 04 24             	mov    %eax,(%esp)
    4ce8:	e8 d3 f5 00 00       	call   142c0 <async_forget>
    4ced:	89 3c 24             	mov    %edi,(%esp)
    4cf0:	e8 db d3 00 00       	call   120d0 <free>
    4cf5:	83 c4 7c             	add    $0x7c,%esp
    4cf8:	89 d8                	mov    %ebx,%eax
    4cfa:	5b                   	pop    %ebx
    4cfb:	5e                   	pop    %esi
    4cfc:	5f                   	pop    %edi
    4cfd:	5d                   	pop    %ebp
    4cfe:	c3                   	ret    
    4cff:	90                   	nop
    4d00:	85 db                	test   %ebx,%ebx
    4d02:	0f 84 f9 fd ff ff    	je     4b01 <loc_get_services+0x81>
    4d08:	89 1d 10 1c 02 00    	mov    %ebx,0x21c10
    4d0e:	e9 ee fd ff ff       	jmp    4b01 <loc_get_services+0x81>
    4d13:	89 3c 24             	mov    %edi,(%esp)
    4d16:	e8 b5 d3 00 00       	call   120d0 <free>
    4d1b:	e9 69 fd ff ff       	jmp    4a89 <loc_get_services+0x9>
    4d20:	c7 44 24 0c 00 00 00 	movl   $0x0,0xc(%esp)
    4d27:	00 
    4d28:	c7 44 24 08 02 00 00 	movl   $0x2,0x8(%esp)
    4d2f:	00 
    4d30:	c7 44 24 04 6c 6f 63 	movl   $0x20636f6c,0x4(%esp)
    4d37:	20 
    4d38:	c7 04 24 02 00 00 00 	movl   $0x2,(%esp)
    4d3f:	e8 8c da 00 00       	call   127d0 <service_connect>
    4d44:	a3 10 1c 02 00       	mov    %eax,0x21c10
    4d49:	e9 72 fe ff ff       	jmp    4bc0 <loc_get_services+0x140>
    4d4e:	31 f6                	xor    %esi,%esi
    4d50:	e9 8e fe ff ff       	jmp    4be3 <loc_get_services+0x163>
    4d55:	8d 74 26 00          	lea    0x0(%esi,%eiz,1),%esi
    4d59:	8d bc 27 00 00 00 00 	lea    0x0(%edi,%eiz,1),%edi

00004d60 <loc_category_get_svcs>:
    4d60:	55                   	push   %ebp
    4d61:	89 e5                	mov    %esp,%ebp
    4d63:	8b 45 10             	mov    0x10(%ebp),%eax
    4d66:	8b 55 08             	mov    0x8(%ebp),%edx
    4d69:	8b 4d 0c             	mov    0xc(%ebp),%ecx
    4d6c:	89 45 08             	mov    %eax,0x8(%ebp)
    4d6f:	b8 0c 04 00 00       	mov    $0x40c,%eax
    4d74:	5d                   	pop    %ebp
    4d75:	e9 e6 db ff ff       	jmp    2960 <loc_get_ids_internal>
    4d7a:	8d b6 00 00 00 00    	lea    0x0(%esi),%esi

00004d80 <loc_get_categories>:
    4d80:	55                   	push   %ebp
    4d81:	31 d2                	xor    %edx,%edx
    4d83:	89 e5                	mov    %esp,%ebp
    4d85:	8b 45 0c             	mov    0xc(%ebp),%eax
    4d88:	8b 4d 08             	mov    0x8(%ebp),%ecx
    4d8b:	89 45 08             	mov    %eax,0x8(%ebp)
    4d8e:	b8 12 04 00 00       	mov    $0x412,%eax
    4d93:	5d                   	pop    %ebp
    4d94:	e9 c7 db ff ff       	jmp    2960 <loc_get_ids_internal>
    4d99:	8d b4 26 00 00 00 00 	lea    0x0(%esi,%eiz,1),%esi

00004da0 <loc_register_cat_change_cb>:
    4da0:	55                   	push   %ebp
    4da1:	89 e5                	mov    %esp,%ebp
    4da3:	57                   	push   %edi
    4da4:	56                   	push   %esi
    4da5:	53                   	push   %ebx
    4da6:	83 ec 5c             	sub    $0x5c,%esp
    4da9:	c7 04 24 a0 19 02 00 	movl   $0x219a0,(%esp)
    4db0:	e8 8b 43 00 00       	call   9140 <fibril_mutex_lock>
    4db5:	80 3d 1c 1c 02 00 00 	cmpb   $0x0,0x21c1c
    4dbc:	74 22                	je     4de0 <loc_register_cat_change_cb+0x40>
    4dbe:	8b 45 08             	mov    0x8(%ebp),%eax
    4dc1:	c7 04 24 a0 19 02 00 	movl   $0x219a0,(%esp)
    4dc8:	a3 18 1c 02 00       	mov    %eax,0x21c18
    4dcd:	e8 8e 44 00 00       	call   9260 <fibril_mutex_unlock>
    4dd2:	83 c4 5c             	add    $0x5c,%esp
    4dd5:	31 c0                	xor    %eax,%eax
    4dd7:	5b                   	pop    %ebx
    4dd8:	5e                   	pop    %esi
    4dd9:	5f                   	pop    %edi
    4dda:	5d                   	pop    %ebp
    4ddb:	c3                   	ret    
    4ddc:	8d 74 26 00          	lea    0x0(%esi,%eiz,1),%esi
    4de0:	c7 04 24 80 19 02 00 	movl   $0x21980,(%esp)
    4de7:	e8 54 43 00 00       	call   9140 <fibril_mutex_lock>
    4dec:	a1 14 1c 02 00       	mov    0x21c14,%eax
    4df1:	85 c0                	test   %eax,%eax
    4df3:	75 3a                	jne    4e2f <loc_register_cat_change_cb+0x8f>
    4df5:	c7 04 24 90 19 02 00 	movl   $0x21990,(%esp)
    4dfc:	8b 1d 10 1c 02 00    	mov    0x21c10,%ebx
    4e02:	e8 39 43 00 00       	call   9140 <fibril_mutex_lock>
    4e07:	8b 0d 14 1c 02 00    	mov    0x21c14,%ecx
    4e0d:	85 c9                	test   %ecx,%ecx
    4e0f:	0f 84 f3 00 00 00    	je     4f08 <loc_register_cat_change_cb+0x168>
    4e15:	c7 04 24 90 19 02 00 	movl   $0x21990,(%esp)
    4e1c:	e8 3f 44 00 00       	call   9260 <fibril_mutex_unlock>
    4e21:	8b 15 14 1c 02 00    	mov    0x21c14,%edx
    4e27:	85 d2                	test   %edx,%edx
    4e29:	0f 84 f1 00 00 00    	je     4f20 <loc_register_cat_change_cb+0x180>
    4e2f:	c7 04 24 80 19 02 00 	movl   $0x21980,(%esp)
    4e36:	e8 25 44 00 00       	call   9260 <fibril_mutex_unlock>
    4e3b:	c7 04 24 90 19 02 00 	movl   $0x21990,(%esp)
    4e42:	8b 1d 14 1c 02 00    	mov    0x21c14,%ebx
    4e48:	e8 f3 42 00 00       	call   9140 <fibril_mutex_lock>
    4e4d:	a1 10 1c 02 00       	mov    0x21c10,%eax
    4e52:	85 c0                	test   %eax,%eax
    4e54:	0f 84 1e 01 00 00    	je     4f78 <loc_register_cat_change_cb+0x1d8>
    4e5a:	c7 04 24 90 19 02 00 	movl   $0x21990,(%esp)
    4e61:	e8 fa 43 00 00       	call   9260 <fibril_mutex_unlock>
    4e66:	a1 14 1c 02 00       	mov    0x21c14,%eax
    4e6b:	89 04 24             	mov    %eax,(%esp)
    4e6e:	e8 8d 06 01 00       	call   15500 <async_exchange_begin>
    4e73:	c7 44 24 14 00 00 00 	movl   $0x0,0x14(%esp)
    4e7a:	00 
    4e7b:	89 c3                	mov    %eax,%ebx
    4e7d:	8d 45 c4             	lea    -0x3c(%ebp),%eax
    4e80:	89 44 24 18          	mov    %eax,0x18(%esp)
    4e84:	c7 44 24 10 00 00 00 	movl   $0x0,0x10(%esp)
    4e8b:	00 
    4e8c:	c7 44 24 0c 00 00 00 	movl   $0x0,0xc(%esp)
    4e93:	00 
    4e94:	c7 44 24 08 00 00 00 	movl   $0x0,0x8(%esp)
    4e9b:	00 
    4e9c:	c7 44 24 04 09 04 00 	movl   $0x409,0x4(%esp)
    4ea3:	00 
    4ea4:	89 1c 24             	mov    %ebx,(%esp)
    4ea7:	e8 f4 ef 00 00       	call   13ea0 <async_send_fast>
    4eac:	c7 44 24 14 00 00 00 	movl   $0x0,0x14(%esp)
    4eb3:	00 
    4eb4:	c7 44 24 10 20 26 00 	movl   $0x2620,0x10(%esp)
    4ebb:	00 
    4ebc:	c7 44 24 0c 00 00 00 	movl   $0x0,0xc(%esp)
    4ec3:	00 
    4ec4:	c7 44 24 08 00 00 00 	movl   $0x0,0x8(%esp)
    4ecb:	00 
    4ecc:	c7 44 24 04 00 00 00 	movl   $0x0,0x4(%esp)
    4ed3:	00 
    4ed4:	89 1c 24             	mov    %ebx,(%esp)
    4ed7:	89 c7                	mov    %eax,%edi
    4ed9:	e8 c2 fd 00 00       	call   14ca0 <async_connect_to_me>
    4ede:	89 1c 24             	mov    %ebx,(%esp)
    4ee1:	89 c6                	mov    %eax,%esi
    4ee3:	e8 88 09 01 00       	call   15870 <async_exchange_end>
    4ee8:	85 f6                	test   %esi,%esi
    4eea:	74 64                	je     4f50 <loc_register_cat_change_cb+0x1b0>
    4eec:	c7 04 24 a0 19 02 00 	movl   $0x219a0,(%esp)
    4ef3:	e8 68 43 00 00       	call   9260 <fibril_mutex_unlock>
    4ef8:	83 c4 5c             	add    $0x5c,%esp
    4efb:	b8 f7 fe ff ff       	mov    $0xfffffef7,%eax
    4f00:	5b                   	pop    %ebx
    4f01:	5e                   	pop    %esi
    4f02:	5f                   	pop    %edi
    4f03:	5d                   	pop    %ebp
    4f04:	c3                   	ret    
    4f05:	8d 76 00             	lea    0x0(%esi),%esi
    4f08:	85 db                	test   %ebx,%ebx
    4f0a:	0f 84 05 ff ff ff    	je     4e15 <loc_register_cat_change_cb+0x75>
    4f10:	89 1d 14 1c 02 00    	mov    %ebx,0x21c14
    4f16:	e9 fa fe ff ff       	jmp    4e15 <loc_register_cat_change_cb+0x75>
    4f1b:	90                   	nop
    4f1c:	8d 74 26 00          	lea    0x0(%esi,%eiz,1),%esi
    4f20:	c7 44 24 0c 00 00 00 	movl   $0x0,0xc(%esp)
    4f27:	00 
    4f28:	c7 44 24 08 02 00 00 	movl   $0x2,0x8(%esp)
    4f2f:	00 
    4f30:	c7 44 24 04 6c 6f 63 	movl   $0x20636f6c,0x4(%esp)
    4f37:	20 
    4f38:	c7 04 24 02 00 00 00 	movl   $0x2,(%esp)
    4f3f:	e8 0c d9 00 00       	call   12850 <service_connect_blocking>
    4f44:	a3 14 1c 02 00       	mov    %eax,0x21c14
    4f49:	e9 a3 fe ff ff       	jmp    4df1 <loc_register_cat_change_cb+0x51>
    4f4e:	66 90                	xchg   %ax,%ax
    4f50:	8d 45 c0             	lea    -0x40(%ebp),%eax
    4f53:	89 3c 24             	mov    %edi,(%esp)
    4f56:	89 44 24 04          	mov    %eax,0x4(%esp)
    4f5a:	e8 11 f1 00 00       	call   14070 <async_wait_for>
    4f5f:	8b 45 c0             	mov    -0x40(%ebp),%eax
    4f62:	85 c0                	test   %eax,%eax
    4f64:	75 86                	jne    4eec <loc_register_cat_change_cb+0x14c>
    4f66:	c6 05 1c 1c 02 00 01 	movb   $0x1,0x21c1c
    4f6d:	e9 4c fe ff ff       	jmp    4dbe <loc_register_cat_change_cb+0x1e>
    4f72:	8d b6 00 00 00 00    	lea    0x0(%esi),%esi
    4f78:	85 db                	test   %ebx,%ebx
    4f7a:	0f 84 da fe ff ff    	je     4e5a <loc_register_cat_change_cb+0xba>
    4f80:	89 1d 10 1c 02 00    	mov    %ebx,0x21c10
    4f86:	e9 cf fe ff ff       	jmp    4e5a <loc_register_cat_change_cb+0xba>
    4f8b:	66 90                	xchg   %ax,%ax
    4f8d:	66 90                	xchg   %ax,%ax
    4f8f:	90                   	nop

00004f90 <memset>:
    4f90:	55                   	push   %ebp
    4f91:	89 e5                	mov    %esp,%ebp
    4f93:	57                   	push   %edi
    4f94:	56                   	push   %esi
    4f95:	53                   	push   %ebx
    4f96:	83 ec 20             	sub    $0x20,%esp
    4f99:	c7 45 f0 04 00 00 00 	movl   $0x4,-0x10(%ebp)
    4fa0:	8b 45 08             	mov    0x8(%ebp),%eax
    4fa3:	8b 75 f0             	mov    -0x10(%ebp),%esi
    4fa6:	89 c2                	mov    %eax,%edx
    4fa8:	83 e2 03             	and    $0x3,%edx
    4fab:	29 d6                	sub    %edx,%esi
    4fad:	8b 55 10             	mov    0x10(%ebp),%edx
    4fb0:	89 75 f0             	mov    %esi,-0x10(%ebp)
    4fb3:	39 55 f0             	cmp    %edx,-0x10(%ebp)
    4fb6:	76 03                	jbe    4fbb <memset+0x2b>
    4fb8:	89 55 f0             	mov    %edx,-0x10(%ebp)
    4fbb:	8b 7d f0             	mov    -0x10(%ebp),%edi
    4fbe:	8b 5d f0             	mov    -0x10(%ebp),%ebx
    4fc1:	4f                   	dec    %edi
    4fc2:	85 db                	test   %ebx,%ebx
    4fc4:	0f 84 2e 01 00 00    	je     50f8 <memset+0x168>
    4fca:	89 c1                	mov    %eax,%ecx
    4fcc:	8b 55 f0             	mov    -0x10(%ebp),%edx
    4fcf:	f7 d9                	neg    %ecx
    4fd1:	83 e1 03             	and    $0x3,%ecx
    4fd4:	8a 5d 0c             	mov    0xc(%ebp),%bl
    4fd7:	89 4d ec             	mov    %ecx,-0x14(%ebp)
    4fda:	39 d1                	cmp    %edx,%ecx
    4fdc:	0f 87 0e 01 00 00    	ja     50f0 <memset+0x160>
    4fe2:	83 7d f0 06          	cmpl   $0x6,-0x10(%ebp)
    4fe6:	0f 87 10 01 00 00    	ja     50fc <memset+0x16c>
    4fec:	8b 4d f0             	mov    -0x10(%ebp),%ecx
    4fef:	89 4d ec             	mov    %ecx,-0x14(%ebp)
    4ff2:	8b 75 ec             	mov    -0x14(%ebp),%esi
    4ff5:	89 c2                	mov    %eax,%edx
    4ff7:	90                   	nop
    4ff8:	88 1a                	mov    %bl,(%edx)
    4ffa:	42                   	inc    %edx
    4ffb:	89 d1                	mov    %edx,%ecx
    4ffd:	4f                   	dec    %edi
    4ffe:	29 c1                	sub    %eax,%ecx
    5000:	39 f1                	cmp    %esi,%ecx
    5002:	72 f4                	jb     4ff8 <memset+0x68>
    5004:	89 55 d4             	mov    %edx,-0x2c(%ebp)
    5007:	8b 55 ec             	mov    -0x14(%ebp),%edx
    500a:	39 55 f0             	cmp    %edx,-0x10(%ebp)
    500d:	0f 84 84 00 00 00    	je     5097 <memset+0x107>
    5013:	8b 4d f0             	mov    -0x10(%ebp),%ecx
    5016:	8b 55 ec             	mov    -0x14(%ebp),%edx
    5019:	29 d1                	sub    %edx,%ecx
    501b:	89 4d dc             	mov    %ecx,-0x24(%ebp)
    501e:	c1 e9 02             	shr    $0x2,%ecx
    5021:	89 4d e4             	mov    %ecx,-0x1c(%ebp)
    5024:	c1 e1 02             	shl    $0x2,%ecx
    5027:	89 4d e0             	mov    %ecx,-0x20(%ebp)
    502a:	74 59                	je     5085 <memset+0xf5>
    502c:	31 c9                	xor    %ecx,%ecx
    502e:	31 d2                	xor    %edx,%edx
    5030:	88 d9                	mov    %bl,%cl
    5032:	88 da                	mov    %bl,%dl
    5034:	8a 6d 0c             	mov    0xc(%ebp),%ch
    5037:	89 55 e8             	mov    %edx,-0x18(%ebp)
    503a:	c1 e2 10             	shl    $0x10,%edx
    503d:	89 ce                	mov    %ecx,%esi
    503f:	81 e6 ff ff 00 00    	and    $0xffff,%esi
    5045:	8b 4d e8             	mov    -0x18(%ebp),%ecx
    5048:	c1 e1 18             	shl    $0x18,%ecx
    504b:	09 d6                	or     %edx,%esi
    504d:	09 ce                	or     %ecx,%esi
    504f:	8b 4d ec             	mov    -0x14(%ebp),%ecx
    5052:	01 c1                	add    %eax,%ecx
    5054:	89 7d e8             	mov    %edi,-0x18(%ebp)
    5057:	89 4d ec             	mov    %ecx,-0x14(%ebp)
    505a:	8b 55 d4             	mov    -0x2c(%ebp),%edx
    505d:	8b 7d ec             	mov    -0x14(%ebp),%edi
    5060:	31 c9                	xor    %ecx,%ecx
    5062:	89 45 ec             	mov    %eax,-0x14(%ebp)
    5065:	8b 45 e4             	mov    -0x1c(%ebp),%eax
    5068:	89 34 8f             	mov    %esi,(%edi,%ecx,4)
    506b:	41                   	inc    %ecx
    506c:	39 c8                	cmp    %ecx,%eax
    506e:	77 f8                	ja     5068 <memset+0xd8>
    5070:	8b 4d e0             	mov    -0x20(%ebp),%ecx
    5073:	8b 7d e8             	mov    -0x18(%ebp),%edi
    5076:	01 ca                	add    %ecx,%edx
    5078:	29 cf                	sub    %ecx,%edi
    507a:	8b 45 ec             	mov    -0x14(%ebp),%eax
    507d:	89 55 d4             	mov    %edx,-0x2c(%ebp)
    5080:	39 4d dc             	cmp    %ecx,-0x24(%ebp)
    5083:	74 12                	je     5097 <memset+0x107>
    5085:	8b 55 d4             	mov    -0x2c(%ebp),%edx
    5088:	8d 4c 3a 01          	lea    0x1(%edx,%edi,1),%ecx
    508c:	8d 74 26 00          	lea    0x0(%esi,%eiz,1),%esi
    5090:	88 1a                	mov    %bl,(%edx)
    5092:	42                   	inc    %edx
    5093:	39 ca                	cmp    %ecx,%edx
    5095:	75 f9                	jne    5090 <memset+0x100>
    5097:	8b 5d f0             	mov    -0x10(%ebp),%ebx
    509a:	01 c3                	add    %eax,%ebx
    509c:	8b 75 10             	mov    0x10(%ebp),%esi
    509f:	2b 75 f0             	sub    -0x10(%ebp),%esi
    50a2:	74 43                	je     50e7 <memset+0x157>
    50a4:	0f b6 55 0c          	movzbl 0xc(%ebp),%edx
    50a8:	89 d1                	mov    %edx,%ecx
    50aa:	89 f7                	mov    %esi,%edi
    50ac:	c1 e1 08             	shl    $0x8,%ecx
    50af:	83 e7 03             	and    $0x3,%edi
    50b2:	09 d1                	or     %edx,%ecx
    50b4:	c1 e1 08             	shl    $0x8,%ecx
    50b7:	09 d1                	or     %edx,%ecx
    50b9:	c1 e1 08             	shl    $0x8,%ecx
    50bc:	09 d1                	or     %edx,%ecx
    50be:	c1 ee 02             	shr    $0x2,%esi
    50c1:	74 10                	je     50d3 <memset+0x143>
    50c3:	31 d2                	xor    %edx,%edx
    50c5:	8d 76 00             	lea    0x0(%esi),%esi
    50c8:	89 0c 93             	mov    %ecx,(%ebx,%edx,4)
    50cb:	42                   	inc    %edx
    50cc:	39 f2                	cmp    %esi,%edx
    50ce:	75 f8                	jne    50c8 <memset+0x138>
    50d0:	8d 1c 93             	lea    (%ebx,%edx,4),%ebx
    50d3:	85 ff                	test   %edi,%edi
    50d5:	74 10                	je     50e7 <memset+0x157>
    50d7:	8a 55 0c             	mov    0xc(%ebp),%dl
    50da:	01 df                	add    %ebx,%edi
    50dc:	8d 74 26 00          	lea    0x0(%esi,%eiz,1),%esi
    50e0:	88 13                	mov    %dl,(%ebx)
    50e2:	43                   	inc    %ebx
    50e3:	39 fb                	cmp    %edi,%ebx
    50e5:	75 f9                	jne    50e0 <memset+0x150>
    50e7:	83 c4 20             	add    $0x20,%esp
    50ea:	5b                   	pop    %ebx
    50eb:	5e                   	pop    %esi
    50ec:	5f                   	pop    %edi
    50ed:	5d                   	pop    %ebp
    50ee:	c3                   	ret    
    50ef:	90                   	nop
    50f0:	89 55 ec             	mov    %edx,-0x14(%ebp)
    50f3:	e9 ea fe ff ff       	jmp    4fe2 <memset+0x52>
    50f8:	89 c3                	mov    %eax,%ebx
    50fa:	eb a0                	jmp    509c <memset+0x10c>
    50fc:	8b 4d ec             	mov    -0x14(%ebp),%ecx
    50ff:	85 c9                	test   %ecx,%ecx
    5101:	0f 85 eb fe ff ff    	jne    4ff2 <memset+0x62>
    5107:	89 45 d4             	mov    %eax,-0x2c(%ebp)
    510a:	e9 04 ff ff ff       	jmp    5013 <memset+0x83>
    510f:	90                   	nop

00005110 <memcpy>:
    5110:	55                   	push   %ebp
    5111:	89 e5                	mov    %esp,%ebp
    5113:	57                   	push   %edi
    5114:	56                   	push   %esi
    5115:	53                   	push   %ebx
    5116:	83 ec 0c             	sub    $0xc,%esp
    5119:	8b 4d 0c             	mov    0xc(%ebp),%ecx
    511c:	8b 45 08             	mov    0x8(%ebp),%eax
    511f:	89 ca                	mov    %ecx,%edx
    5121:	31 c2                	xor    %eax,%edx
    5123:	83 e2 03             	and    $0x3,%edx
    5126:	0f 85 84 01 00 00    	jne    52b0 <memcpy+0x1a0>
    512c:	c7 45 ec 04 00 00 00 	movl   $0x4,-0x14(%ebp)
    5133:	89 c2                	mov    %eax,%edx
    5135:	83 e2 03             	and    $0x3,%edx
    5138:	8b 75 ec             	mov    -0x14(%ebp),%esi
    513b:	29 d6                	sub    %edx,%esi
    513d:	8b 55 10             	mov    0x10(%ebp),%edx
    5140:	89 75 ec             	mov    %esi,-0x14(%ebp)
    5143:	39 55 ec             	cmp    %edx,-0x14(%ebp)
    5146:	0f 87 5c 01 00 00    	ja     52a8 <memcpy+0x198>
    514c:	8b 5d ec             	mov    -0x14(%ebp),%ebx
    514f:	4b                   	dec    %ebx
    5150:	89 5d f0             	mov    %ebx,-0x10(%ebp)
    5153:	8b 5d ec             	mov    -0x14(%ebp),%ebx
    5156:	85 db                	test   %ebx,%ebx
    5158:	0f 84 91 01 00 00    	je     52ef <memcpy+0x1df>
    515e:	8d 51 04             	lea    0x4(%ecx),%edx
    5161:	8b 5d ec             	mov    -0x14(%ebp),%ebx
    5164:	c1 eb 02             	shr    $0x2,%ebx
    5167:	39 d0                	cmp    %edx,%eax
    5169:	0f 93 c2             	setae  %dl
    516c:	89 d6                	mov    %edx,%esi
    516e:	8d 50 04             	lea    0x4(%eax),%edx
    5171:	39 d1                	cmp    %edx,%ecx
    5173:	8d 3c 9d 00 00 00 00 	lea    0x0(,%ebx,4),%edi
    517a:	0f 93 c2             	setae  %dl
    517d:	09 d6                	or     %edx,%esi
    517f:	83 7d ec 09          	cmpl   $0x9,-0x14(%ebp)
    5183:	0f 97 c2             	seta   %dl
    5186:	21 d6                	and    %edx,%esi
    5188:	89 ca                	mov    %ecx,%edx
    518a:	09 c2                	or     %eax,%edx
    518c:	83 e2 03             	and    $0x3,%edx
    518f:	89 f2                	mov    %esi,%edx
    5191:	0f 94 45 e8          	sete   -0x18(%ebp)
    5195:	84 55 e8             	test   %dl,-0x18(%ebp)
    5198:	0f 84 58 01 00 00    	je     52f6 <memcpy+0x1e6>
    519e:	85 ff                	test   %edi,%edi
    51a0:	0f 84 50 01 00 00    	je     52f6 <memcpy+0x1e6>
    51a6:	31 d2                	xor    %edx,%edx
    51a8:	8b 34 91             	mov    (%ecx,%edx,4),%esi
    51ab:	89 34 90             	mov    %esi,(%eax,%edx,4)
    51ae:	42                   	inc    %edx
    51af:	39 d3                	cmp    %edx,%ebx
    51b1:	77 f5                	ja     51a8 <memcpy+0x98>
    51b3:	8b 55 f0             	mov    -0x10(%ebp),%edx
    51b6:	8d 1c 39             	lea    (%ecx,%edi,1),%ebx
    51b9:	29 fa                	sub    %edi,%edx
    51bb:	8d 34 38             	lea    (%eax,%edi,1),%esi
    51be:	89 55 f0             	mov    %edx,-0x10(%ebp)
    51c1:	39 7d ec             	cmp    %edi,-0x14(%ebp)
    51c4:	74 18                	je     51de <memcpy+0xce>
    51c6:	8b 7d f0             	mov    -0x10(%ebp),%edi
    51c9:	31 d2                	xor    %edx,%edx
    51cb:	47                   	inc    %edi
    51cc:	89 45 f0             	mov    %eax,-0x10(%ebp)
    51cf:	90                   	nop
    51d0:	8a 04 13             	mov    (%ebx,%edx,1),%al
    51d3:	88 04 16             	mov    %al,(%esi,%edx,1)
    51d6:	42                   	inc    %edx
    51d7:	39 fa                	cmp    %edi,%edx
    51d9:	75 f5                	jne    51d0 <memcpy+0xc0>
    51db:	8b 45 f0             	mov    -0x10(%ebp),%eax
    51de:	8b 55 ec             	mov    -0x14(%ebp),%edx
    51e1:	8b 7d ec             	mov    -0x14(%ebp),%edi
    51e4:	01 c2                	add    %eax,%edx
    51e6:	01 f9                	add    %edi,%ecx
    51e8:	8b 5d 10             	mov    0x10(%ebp),%ebx
    51eb:	2b 5d ec             	sub    -0x14(%ebp),%ebx
    51ee:	0f 84 a9 00 00 00    	je     529d <memcpy+0x18d>
    51f4:	89 df                	mov    %ebx,%edi
    51f6:	c1 ef 02             	shr    $0x2,%edi
    51f9:	8d 34 bd 00 00 00 00 	lea    0x0(,%edi,4),%esi
    5200:	29 f3                	sub    %esi,%ebx
    5202:	85 ff                	test   %edi,%edi
    5204:	89 5d ec             	mov    %ebx,-0x14(%ebp)
    5207:	74 1c                	je     5225 <memcpy+0x115>
    5209:	31 db                	xor    %ebx,%ebx
    520b:	89 45 f0             	mov    %eax,-0x10(%ebp)
    520e:	66 90                	xchg   %ax,%ax
    5210:	8b 04 99             	mov    (%ecx,%ebx,4),%eax
    5213:	89 04 9a             	mov    %eax,(%edx,%ebx,4)
    5216:	43                   	inc    %ebx
    5217:	39 fb                	cmp    %edi,%ebx
    5219:	75 f5                	jne    5210 <memcpy+0x100>
    521b:	8b 45 f0             	mov    -0x10(%ebp),%eax
    521e:	01 f2                	add    %esi,%edx
    5220:	01 f1                	add    %esi,%ecx
    5222:	8b 5d ec             	mov    -0x14(%ebp),%ebx
    5225:	4b                   	dec    %ebx
    5226:	8b 75 ec             	mov    -0x14(%ebp),%esi
    5229:	89 5d e8             	mov    %ebx,-0x18(%ebp)
    522c:	85 f6                	test   %esi,%esi
    522e:	74 6d                	je     529d <memcpy+0x18d>
    5230:	8d 5a 04             	lea    0x4(%edx),%ebx
    5233:	8b 75 ec             	mov    -0x14(%ebp),%esi
    5236:	c1 ee 02             	shr    $0x2,%esi
    5239:	39 d9                	cmp    %ebx,%ecx
    523b:	8d 59 04             	lea    0x4(%ecx),%ebx
    523e:	0f 93 45 f0          	setae  -0x10(%ebp)
    5242:	39 da                	cmp    %ebx,%edx
    5244:	8d 3c b5 00 00 00 00 	lea    0x0(,%esi,4),%edi
    524b:	0f 93 c3             	setae  %bl
    524e:	08 5d f0             	or     %bl,-0x10(%ebp)
    5251:	83 7d ec 08          	cmpl   $0x8,-0x14(%ebp)
    5255:	0f 97 c3             	seta   %bl
    5258:	84 5d f0             	test   %bl,-0x10(%ebp)
    525b:	74 2a                	je     5287 <memcpy+0x177>
    525d:	85 ff                	test   %edi,%edi
    525f:	74 26                	je     5287 <memcpy+0x177>
    5261:	31 db                	xor    %ebx,%ebx
    5263:	89 45 f0             	mov    %eax,-0x10(%ebp)
    5266:	66 90                	xchg   %ax,%ax
    5268:	8b 04 99             	mov    (%ecx,%ebx,4),%eax
    526b:	89 04 9a             	mov    %eax,(%edx,%ebx,4)
    526e:	43                   	inc    %ebx
    526f:	39 de                	cmp    %ebx,%esi
    5271:	77 f5                	ja     5268 <memcpy+0x158>
    5273:	8b 5d e8             	mov    -0x18(%ebp),%ebx
    5276:	01 f9                	add    %edi,%ecx
    5278:	29 fb                	sub    %edi,%ebx
    527a:	01 fa                	add    %edi,%edx
    527c:	8b 45 f0             	mov    -0x10(%ebp),%eax
    527f:	89 5d e8             	mov    %ebx,-0x18(%ebp)
    5282:	39 7d ec             	cmp    %edi,-0x14(%ebp)
    5285:	74 16                	je     529d <memcpy+0x18d>
    5287:	8b 75 e8             	mov    -0x18(%ebp),%esi
    528a:	31 db                	xor    %ebx,%ebx
    528c:	46                   	inc    %esi
    528d:	89 c7                	mov    %eax,%edi
    528f:	90                   	nop
    5290:	8a 04 19             	mov    (%ecx,%ebx,1),%al
    5293:	88 04 1a             	mov    %al,(%edx,%ebx,1)
    5296:	43                   	inc    %ebx
    5297:	39 f3                	cmp    %esi,%ebx
    5299:	75 f5                	jne    5290 <memcpy+0x180>
    529b:	89 f8                	mov    %edi,%eax
    529d:	83 c4 0c             	add    $0xc,%esp
    52a0:	5b                   	pop    %ebx
    52a1:	5e                   	pop    %esi
    52a2:	5f                   	pop    %edi
    52a3:	5d                   	pop    %ebp
    52a4:	c3                   	ret    
    52a5:	8d 76 00             	lea    0x0(%esi),%esi
    52a8:	89 55 ec             	mov    %edx,-0x14(%ebp)
    52ab:	e9 9c fe ff ff       	jmp    514c <memcpy+0x3c>
    52b0:	8b 75 10             	mov    0x10(%ebp),%esi
    52b3:	31 d2                	xor    %edx,%edx
    52b5:	c1 ee 02             	shr    $0x2,%esi
    52b8:	74 11                	je     52cb <memcpy+0x1bb>
    52ba:	8d b6 00 00 00 00    	lea    0x0(%esi),%esi
    52c0:	8b 1c 91             	mov    (%ecx,%edx,4),%ebx
    52c3:	89 1c 90             	mov    %ebx,(%eax,%edx,4)
    52c6:	42                   	inc    %edx
    52c7:	39 f2                	cmp    %esi,%edx
    52c9:	75 f5                	jne    52c0 <memcpy+0x1b0>
    52cb:	8b 75 10             	mov    0x10(%ebp),%esi
    52ce:	83 e6 03             	and    $0x3,%esi
    52d1:	74 ca                	je     529d <memcpy+0x18d>
    52d3:	c1 e2 02             	shl    $0x2,%edx
    52d6:	31 db                	xor    %ebx,%ebx
    52d8:	01 d1                	add    %edx,%ecx
    52da:	89 c7                	mov    %eax,%edi
    52dc:	01 c2                	add    %eax,%edx
    52de:	66 90                	xchg   %ax,%ax
    52e0:	8a 04 19             	mov    (%ecx,%ebx,1),%al
    52e3:	88 04 1a             	mov    %al,(%edx,%ebx,1)
    52e6:	43                   	inc    %ebx
    52e7:	39 de                	cmp    %ebx,%esi
    52e9:	77 f5                	ja     52e0 <memcpy+0x1d0>
    52eb:	89 f8                	mov    %edi,%eax
    52ed:	eb ae                	jmp    529d <memcpy+0x18d>
    52ef:	89 c2                	mov    %eax,%edx
    52f1:	e9 f2 fe ff ff       	jmp    51e8 <memcpy+0xd8>
    52f6:	89 c6                	mov    %eax,%esi
    52f8:	89 cb                	mov    %ecx,%ebx
    52fa:	e9 c7 fe ff ff       	jmp    51c6 <memcpy+0xb6>
    52ff:	90                   	nop

00005300 <memmove>:
    5300:	55                   	push   %ebp
    5301:	89 e5                	mov    %esp,%ebp
    5303:	57                   	push   %edi
    5304:	56                   	push   %esi
    5305:	53                   	push   %ebx
    5306:	83 ec 0c             	sub    $0xc,%esp
    5309:	8b 45 08             	mov    0x8(%ebp),%eax
    530c:	8b 55 0c             	mov    0xc(%ebp),%edx
    530f:	39 c2                	cmp    %eax,%edx
    5311:	0f 84 b6 00 00 00    	je     53cd <memmove+0xcd>
    5317:	8b 4d 10             	mov    0x10(%ebp),%ecx
    531a:	01 d1                	add    %edx,%ecx
    531c:	39 c8                	cmp    %ecx,%eax
    531e:	0f 83 b4 00 00 00    	jae    53d8 <memmove+0xd8>
    5324:	8b 4d 10             	mov    0x10(%ebp),%ecx
    5327:	01 c1                	add    %eax,%ecx
    5329:	39 ca                	cmp    %ecx,%edx
    532b:	0f 83 a7 00 00 00    	jae    53d8 <memmove+0xd8>
    5331:	39 c2                	cmp    %eax,%edx
    5333:	0f 86 47 02 00 00    	jbe    5580 <memmove+0x280>
    5339:	8b 7d 10             	mov    0x10(%ebp),%edi
    533c:	8b 4d 10             	mov    0x10(%ebp),%ecx
    533f:	4f                   	dec    %edi
    5340:	85 c9                	test   %ecx,%ecx
    5342:	0f 84 85 00 00 00    	je     53cd <memmove+0xcd>
    5348:	8d 5a 04             	lea    0x4(%edx),%ebx
    534b:	8b 4d 10             	mov    0x10(%ebp),%ecx
    534e:	c1 e9 02             	shr    $0x2,%ecx
    5351:	39 d8                	cmp    %ebx,%eax
    5353:	8d 58 04             	lea    0x4(%eax),%ebx
    5356:	0f 93 45 f0          	setae  -0x10(%ebp)
    535a:	39 da                	cmp    %ebx,%edx
    535c:	8d 34 8d 00 00 00 00 	lea    0x0(,%ecx,4),%esi
    5363:	0f 93 c3             	setae  %bl
    5366:	08 5d f0             	or     %bl,-0x10(%ebp)
    5369:	83 7d 10 09          	cmpl   $0x9,0x10(%ebp)
    536d:	0f 97 c3             	seta   %bl
    5370:	20 5d f0             	and    %bl,-0x10(%ebp)
    5373:	89 d3                	mov    %edx,%ebx
    5375:	09 c3                	or     %eax,%ebx
    5377:	83 e3 03             	and    $0x3,%ebx
    537a:	0f 94 c3             	sete   %bl
    537d:	84 5d f0             	test   %bl,-0x10(%ebp)
    5380:	0f 84 8b 02 00 00    	je     5611 <memmove+0x311>
    5386:	85 f6                	test   %esi,%esi
    5388:	0f 84 83 02 00 00    	je     5611 <memmove+0x311>
    538e:	31 db                	xor    %ebx,%ebx
    5390:	89 75 f0             	mov    %esi,-0x10(%ebp)
    5393:	90                   	nop
    5394:	8d 74 26 00          	lea    0x0(%esi,%eiz,1),%esi
    5398:	8b 34 9a             	mov    (%edx,%ebx,4),%esi
    539b:	89 34 98             	mov    %esi,(%eax,%ebx,4)
    539e:	43                   	inc    %ebx
    539f:	39 d9                	cmp    %ebx,%ecx
    53a1:	77 f5                	ja     5398 <memmove+0x98>
    53a3:	8b 75 f0             	mov    -0x10(%ebp),%esi
    53a6:	01 f2                	add    %esi,%edx
    53a8:	29 f7                	sub    %esi,%edi
    53aa:	8d 0c 30             	lea    (%eax,%esi,1),%ecx
    53ad:	39 75 10             	cmp    %esi,0x10(%ebp)
    53b0:	74 1b                	je     53cd <memmove+0xcd>
    53b2:	8d 77 01             	lea    0x1(%edi),%esi
    53b5:	31 db                	xor    %ebx,%ebx
    53b7:	89 c7                	mov    %eax,%edi
    53b9:	8d b4 26 00 00 00 00 	lea    0x0(%esi,%eiz,1),%esi
    53c0:	8a 04 1a             	mov    (%edx,%ebx,1),%al
    53c3:	88 04 19             	mov    %al,(%ecx,%ebx,1)
    53c6:	43                   	inc    %ebx
    53c7:	39 f3                	cmp    %esi,%ebx
    53c9:	75 f5                	jne    53c0 <memmove+0xc0>
    53cb:	89 f8                	mov    %edi,%eax
    53cd:	83 c4 0c             	add    $0xc,%esp
    53d0:	5b                   	pop    %ebx
    53d1:	5e                   	pop    %esi
    53d2:	5f                   	pop    %edi
    53d3:	5d                   	pop    %ebp
    53d4:	c3                   	ret    
    53d5:	8d 76 00             	lea    0x0(%esi),%esi
    53d8:	89 d1                	mov    %edx,%ecx
    53da:	31 c1                	xor    %eax,%ecx
    53dc:	83 e1 03             	and    $0x3,%ecx
    53df:	0f 85 db 01 00 00    	jne    55c0 <memmove+0x2c0>
    53e5:	c7 45 e8 04 00 00 00 	movl   $0x4,-0x18(%ebp)
    53ec:	89 c1                	mov    %eax,%ecx
    53ee:	83 e1 03             	and    $0x3,%ecx
    53f1:	8b 75 e8             	mov    -0x18(%ebp),%esi
    53f4:	29 ce                	sub    %ecx,%esi
    53f6:	8b 4d 10             	mov    0x10(%ebp),%ecx
    53f9:	89 75 e8             	mov    %esi,-0x18(%ebp)
    53fc:	39 4d e8             	cmp    %ecx,-0x18(%ebp)
    53ff:	0f 87 b3 01 00 00    	ja     55b8 <memmove+0x2b8>
    5405:	8b 5d e8             	mov    -0x18(%ebp),%ebx
    5408:	4b                   	dec    %ebx
    5409:	89 5d f0             	mov    %ebx,-0x10(%ebp)
    540c:	8b 5d e8             	mov    -0x18(%ebp),%ebx
