
usbinfo:     file format elf32-i386


Disassembly of section .init:

00001094 <__entry>:
    1094:	66 8c d0             	mov    %ss,%ax
    1097:	8e d8                	mov    %eax,%ds
    1099:	8e c0                	mov    %eax,%es
    109b:	8e e0                	mov    %eax,%fs
    109d:	b8 01 00 00 00       	mov    $0x1,%eax
    10a2:	0f a2                	cpuid  
    10a4:	0f ba e2 0b          	bt     $0xb,%edx
    10a8:	73 0c                	jae    10b6 <__entry+0x22>
    10aa:	8d 05 c8 6d 03 00    	lea    0x36dc8,%eax
    10b0:	c7 00 e7 fc 02 00    	movl   $0x2fce7,(%eax)
    10b6:	6a 00                	push   $0x0
    10b8:	89 e5                	mov    %esp,%ebp
    10ba:	57                   	push   %edi
    10bb:	e8 50 12 01 00       	call   12310 <__main>

Disassembly of section .text:

000010c0 <browse_descriptor_tree_internal>:
    10c0:	55                   	push   %ebp
    10c1:	89 e5                	mov    %esp,%ebp
    10c3:	57                   	push   %edi
    10c4:	56                   	push   %esi
    10c5:	53                   	push   %ebx
    10c6:	83 ec 6c             	sub    $0x6c,%esp
    10c9:	89 4d b8             	mov    %ecx,-0x48(%ebp)
    10cc:	85 c9                	test   %ecx,%ecx
    10ce:	0f 84 b6 03 00 00    	je     148a <browse_descriptor_tree_internal+0x3ca>
    10d4:	89 c7                	mov    %eax,%edi
    10d6:	8b 45 10             	mov    0x10(%ebp),%eax
    10d9:	89 44 24 08          	mov    %eax,0x8(%esp)
    10dd:	8b 45 08             	mov    0x8(%ebp),%eax
    10e0:	89 44 24 04          	mov    %eax,0x4(%esp)
    10e4:	89 0c 24             	mov    %ecx,(%esp)
    10e7:	8b 45 0c             	mov    0xc(%ebp),%eax
    10ea:	89 d6                	mov    %edx,%esi
    10ec:	ff d0                	call   *%eax
    10ee:	8b 45 b8             	mov    -0x48(%ebp),%eax
    10f1:	89 44 24 08          	mov    %eax,0x8(%esp)
    10f5:	89 74 24 04          	mov    %esi,0x4(%esp)
    10f9:	89 3c 24             	mov    %edi,(%esp)
    10fc:	e8 2f 51 00 00       	call   6230 <usb_dp_get_nested_descriptor>
    1101:	89 45 cc             	mov    %eax,-0x34(%ebp)
    1104:	8b 45 08             	mov    0x8(%ebp),%eax
    1107:	40                   	inc    %eax
    1108:	89 45 b4             	mov    %eax,-0x4c(%ebp)
    110b:	8b 45 cc             	mov    -0x34(%ebp),%eax
    110e:	85 c0                	test   %eax,%eax
    1110:	0f 84 4f 03 00 00    	je     1465 <browse_descriptor_tree_internal+0x3a5>
    1116:	8b 45 10             	mov    0x10(%ebp),%eax
    1119:	89 44 24 08          	mov    %eax,0x8(%esp)
    111d:	8b 45 b4             	mov    -0x4c(%ebp),%eax
    1120:	89 44 24 04          	mov    %eax,0x4(%esp)
    1124:	8b 45 cc             	mov    -0x34(%ebp),%eax
    1127:	89 04 24             	mov    %eax,(%esp)
    112a:	8b 45 0c             	mov    0xc(%ebp),%eax
    112d:	ff d0                	call   *%eax
    112f:	8b 45 cc             	mov    -0x34(%ebp),%eax
    1132:	89 44 24 08          	mov    %eax,0x8(%esp)
    1136:	89 74 24 04          	mov    %esi,0x4(%esp)
    113a:	89 3c 24             	mov    %edi,(%esp)
    113d:	e8 ee 50 00 00       	call   6230 <usb_dp_get_nested_descriptor>
    1142:	89 45 c8             	mov    %eax,-0x38(%ebp)
    1145:	8b 45 08             	mov    0x8(%ebp),%eax
    1148:	83 c0 02             	add    $0x2,%eax
    114b:	89 45 b0             	mov    %eax,-0x50(%ebp)
    114e:	8b 45 c8             	mov    -0x38(%ebp),%eax
    1151:	85 c0                	test   %eax,%eax
    1153:	0f 84 e7 02 00 00    	je     1440 <browse_descriptor_tree_internal+0x380>
    1159:	8b 45 10             	mov    0x10(%ebp),%eax
    115c:	89 44 24 08          	mov    %eax,0x8(%esp)
    1160:	8b 45 b0             	mov    -0x50(%ebp),%eax
    1163:	89 44 24 04          	mov    %eax,0x4(%esp)
    1167:	8b 45 c8             	mov    -0x38(%ebp),%eax
    116a:	89 04 24             	mov    %eax,(%esp)
    116d:	8b 45 0c             	mov    0xc(%ebp),%eax
    1170:	ff d0                	call   *%eax
    1172:	8b 45 c8             	mov    -0x38(%ebp),%eax
    1175:	89 44 24 08          	mov    %eax,0x8(%esp)
    1179:	89 74 24 04          	mov    %esi,0x4(%esp)
    117d:	89 3c 24             	mov    %edi,(%esp)
    1180:	e8 ab 50 00 00       	call   6230 <usb_dp_get_nested_descriptor>
    1185:	89 45 c4             	mov    %eax,-0x3c(%ebp)
    1188:	8b 45 08             	mov    0x8(%ebp),%eax
    118b:	83 c0 03             	add    $0x3,%eax
    118e:	89 45 ac             	mov    %eax,-0x54(%ebp)
    1191:	8b 45 c4             	mov    -0x3c(%ebp),%eax
    1194:	85 c0                	test   %eax,%eax
    1196:	0f 84 7f 02 00 00    	je     141b <browse_descriptor_tree_internal+0x35b>
    119c:	8b 45 10             	mov    0x10(%ebp),%eax
    119f:	89 44 24 08          	mov    %eax,0x8(%esp)
    11a3:	8b 45 ac             	mov    -0x54(%ebp),%eax
    11a6:	89 44 24 04          	mov    %eax,0x4(%esp)
    11aa:	8b 45 c4             	mov    -0x3c(%ebp),%eax
    11ad:	89 04 24             	mov    %eax,(%esp)
    11b0:	8b 45 0c             	mov    0xc(%ebp),%eax
    11b3:	ff d0                	call   *%eax
    11b5:	8b 45 c4             	mov    -0x3c(%ebp),%eax
    11b8:	89 44 24 08          	mov    %eax,0x8(%esp)
    11bc:	89 74 24 04          	mov    %esi,0x4(%esp)
    11c0:	89 3c 24             	mov    %edi,(%esp)
    11c3:	e8 68 50 00 00       	call   6230 <usb_dp_get_nested_descriptor>
    11c8:	89 45 c0             	mov    %eax,-0x40(%ebp)
    11cb:	8b 45 08             	mov    0x8(%ebp),%eax
    11ce:	83 c0 04             	add    $0x4,%eax
    11d1:	89 45 a8             	mov    %eax,-0x58(%ebp)
    11d4:	8b 45 c0             	mov    -0x40(%ebp),%eax
    11d7:	85 c0                	test   %eax,%eax
    11d9:	0f 84 17 02 00 00    	je     13f6 <browse_descriptor_tree_internal+0x336>
    11df:	8b 45 10             	mov    0x10(%ebp),%eax
    11e2:	89 44 24 08          	mov    %eax,0x8(%esp)
    11e6:	8b 45 a8             	mov    -0x58(%ebp),%eax
    11e9:	89 44 24 04          	mov    %eax,0x4(%esp)
    11ed:	8b 45 c0             	mov    -0x40(%ebp),%eax
    11f0:	89 04 24             	mov    %eax,(%esp)
    11f3:	8b 45 0c             	mov    0xc(%ebp),%eax
    11f6:	ff d0                	call   *%eax
    11f8:	8b 45 c0             	mov    -0x40(%ebp),%eax
    11fb:	89 44 24 08          	mov    %eax,0x8(%esp)
    11ff:	89 74 24 04          	mov    %esi,0x4(%esp)
    1203:	89 3c 24             	mov    %edi,(%esp)
    1206:	e8 25 50 00 00       	call   6230 <usb_dp_get_nested_descriptor>
    120b:	89 45 bc             	mov    %eax,-0x44(%ebp)
    120e:	8b 45 08             	mov    0x8(%ebp),%eax
    1211:	83 c0 05             	add    $0x5,%eax
    1214:	8b 5d bc             	mov    -0x44(%ebp),%ebx
    1217:	89 45 a4             	mov    %eax,-0x5c(%ebp)
    121a:	85 db                	test   %ebx,%ebx
    121c:	0f 84 af 01 00 00    	je     13d1 <browse_descriptor_tree_internal+0x311>
    1222:	8b 45 10             	mov    0x10(%ebp),%eax
    1225:	89 44 24 08          	mov    %eax,0x8(%esp)
    1229:	8b 45 a4             	mov    -0x5c(%ebp),%eax
    122c:	89 44 24 04          	mov    %eax,0x4(%esp)
    1230:	8b 45 bc             	mov    -0x44(%ebp),%eax
    1233:	89 04 24             	mov    %eax,(%esp)
    1236:	8b 45 0c             	mov    0xc(%ebp),%eax
    1239:	ff d0                	call   *%eax
    123b:	8b 45 bc             	mov    -0x44(%ebp),%eax
    123e:	89 44 24 08          	mov    %eax,0x8(%esp)
    1242:	89 74 24 04          	mov    %esi,0x4(%esp)
    1246:	89 3c 24             	mov    %edi,(%esp)
    1249:	e8 e2 4f 00 00       	call   6230 <usb_dp_get_nested_descriptor>
    124e:	89 45 d4             	mov    %eax,-0x2c(%ebp)
    1251:	8b 45 08             	mov    0x8(%ebp),%eax
    1254:	83 c0 06             	add    $0x6,%eax
    1257:	8b 4d d4             	mov    -0x2c(%ebp),%ecx
    125a:	89 45 a0             	mov    %eax,-0x60(%ebp)
    125d:	85 c9                	test   %ecx,%ecx
    125f:	75 25                	jne    1286 <browse_descriptor_tree_internal+0x1c6>
    1261:	8b 45 d4             	mov    -0x2c(%ebp),%eax
    1264:	89 74 24 04          	mov    %esi,0x4(%esp)
    1268:	89 44 24 0c          	mov    %eax,0xc(%esp)
    126c:	8b 45 bc             	mov    -0x44(%ebp),%eax
    126f:	89 44 24 08          	mov    %eax,0x8(%esp)
    1273:	89 3c 24             	mov    %edi,(%esp)
    1276:	e8 d5 51 00 00       	call   6450 <usb_dp_get_sibling_descriptor>
    127b:	89 45 d4             	mov    %eax,-0x2c(%ebp)
    127e:	85 c0                	test   %eax,%eax
    1280:	0f 84 4b 01 00 00    	je     13d1 <browse_descriptor_tree_internal+0x311>
    1286:	8b 45 10             	mov    0x10(%ebp),%eax
    1289:	89 44 24 08          	mov    %eax,0x8(%esp)
    128d:	8b 45 a0             	mov    -0x60(%ebp),%eax
    1290:	89 44 24 04          	mov    %eax,0x4(%esp)
    1294:	8b 45 d4             	mov    -0x2c(%ebp),%eax
    1297:	89 04 24             	mov    %eax,(%esp)
    129a:	8b 45 0c             	mov    0xc(%ebp),%eax
    129d:	ff d0                	call   *%eax
    129f:	8b 45 d4             	mov    -0x2c(%ebp),%eax
    12a2:	89 44 24 08          	mov    %eax,0x8(%esp)
    12a6:	89 74 24 04          	mov    %esi,0x4(%esp)
    12aa:	89 3c 24             	mov    %edi,(%esp)
    12ad:	e8 7e 4f 00 00       	call   6230 <usb_dp_get_nested_descriptor>
    12b2:	89 45 dc             	mov    %eax,-0x24(%ebp)
    12b5:	8b 45 08             	mov    0x8(%ebp),%eax
    12b8:	83 c0 07             	add    $0x7,%eax
    12bb:	8b 55 dc             	mov    -0x24(%ebp),%edx
    12be:	89 45 d0             	mov    %eax,-0x30(%ebp)
    12c1:	85 d2                	test   %edx,%edx
    12c3:	75 28                	jne    12ed <browse_descriptor_tree_internal+0x22d>
    12c5:	8d 76 00             	lea    0x0(%esi),%esi
    12c8:	8b 45 dc             	mov    -0x24(%ebp),%eax
    12cb:	89 74 24 04          	mov    %esi,0x4(%esp)
    12cf:	89 44 24 0c          	mov    %eax,0xc(%esp)
    12d3:	8b 45 d4             	mov    -0x2c(%ebp),%eax
    12d6:	89 44 24 08          	mov    %eax,0x8(%esp)
    12da:	89 3c 24             	mov    %edi,(%esp)
    12dd:	e8 6e 51 00 00       	call   6450 <usb_dp_get_sibling_descriptor>
    12e2:	89 45 dc             	mov    %eax,-0x24(%ebp)
    12e5:	85 c0                	test   %eax,%eax
    12e7:	0f 84 74 ff ff ff    	je     1261 <browse_descriptor_tree_internal+0x1a1>
    12ed:	8b 45 10             	mov    0x10(%ebp),%eax
    12f0:	89 44 24 08          	mov    %eax,0x8(%esp)
    12f4:	8b 45 d0             	mov    -0x30(%ebp),%eax
    12f7:	89 44 24 04          	mov    %eax,0x4(%esp)
    12fb:	8b 45 dc             	mov    -0x24(%ebp),%eax
    12fe:	89 04 24             	mov    %eax,(%esp)
    1301:	8b 45 0c             	mov    0xc(%ebp),%eax
    1304:	ff d0                	call   *%eax
    1306:	8b 45 dc             	mov    -0x24(%ebp),%eax
    1309:	89 44 24 08          	mov    %eax,0x8(%esp)
    130d:	89 74 24 04          	mov    %esi,0x4(%esp)
    1311:	89 3c 24             	mov    %edi,(%esp)
    1314:	e8 17 4f 00 00       	call   6230 <usb_dp_get_nested_descriptor>
    1319:	89 45 e4             	mov    %eax,-0x1c(%ebp)
    131c:	8b 45 08             	mov    0x8(%ebp),%eax
    131f:	83 c0 08             	add    $0x8,%eax
    1322:	89 45 d8             	mov    %eax,-0x28(%ebp)
    1325:	8b 45 e4             	mov    -0x1c(%ebp),%eax
    1328:	85 c0                	test   %eax,%eax
    132a:	75 29                	jne    1355 <browse_descriptor_tree_internal+0x295>
    132c:	8d 74 26 00          	lea    0x0(%esi,%eiz,1),%esi
    1330:	8b 45 e4             	mov    -0x1c(%ebp),%eax
    1333:	89 74 24 04          	mov    %esi,0x4(%esp)
    1337:	89 44 24 0c          	mov    %eax,0xc(%esp)
    133b:	8b 45 dc             	mov    -0x24(%ebp),%eax
    133e:	89 44 24 08          	mov    %eax,0x8(%esp)
    1342:	89 3c 24             	mov    %edi,(%esp)
    1345:	e8 06 51 00 00       	call   6450 <usb_dp_get_sibling_descriptor>
    134a:	89 45 e4             	mov    %eax,-0x1c(%ebp)
    134d:	85 c0                	test   %eax,%eax
    134f:	0f 84 73 ff ff ff    	je     12c8 <browse_descriptor_tree_internal+0x208>
    1355:	8b 45 10             	mov    0x10(%ebp),%eax
    1358:	89 44 24 08          	mov    %eax,0x8(%esp)
    135c:	8b 45 d8             	mov    -0x28(%ebp),%eax
    135f:	89 44 24 04          	mov    %eax,0x4(%esp)
    1363:	8b 45 e4             	mov    -0x1c(%ebp),%eax
    1366:	89 04 24             	mov    %eax,(%esp)
    1369:	8b 45 0c             	mov    0xc(%ebp),%eax
    136c:	ff d0                	call   *%eax
    136e:	8b 45 e4             	mov    -0x1c(%ebp),%eax
    1371:	89 44 24 08          	mov    %eax,0x8(%esp)
    1375:	89 74 24 04          	mov    %esi,0x4(%esp)
    1379:	89 3c 24             	mov    %edi,(%esp)
    137c:	e8 af 4e 00 00       	call   6230 <usb_dp_get_nested_descriptor>
    1381:	89 c3                	mov    %eax,%ebx
    1383:	8b 45 08             	mov    0x8(%ebp),%eax
    1386:	83 c0 09             	add    $0x9,%eax
    1389:	89 45 e0             	mov    %eax,-0x20(%ebp)
    138c:	8d 74 26 00          	lea    0x0(%esi,%eiz,1),%esi
    1390:	8b 45 10             	mov    0x10(%ebp),%eax
    1393:	89 d9                	mov    %ebx,%ecx
    1395:	89 44 24 08          	mov    %eax,0x8(%esp)
    1399:	8b 45 0c             	mov    0xc(%ebp),%eax
    139c:	89 44 24 04          	mov    %eax,0x4(%esp)
    13a0:	8b 45 e0             	mov    -0x20(%ebp),%eax
    13a3:	89 04 24             	mov    %eax,(%esp)
    13a6:	89 f2                	mov    %esi,%edx
    13a8:	89 f8                	mov    %edi,%eax
    13aa:	e8 11 fd ff ff       	call   10c0 <browse_descriptor_tree_internal>
    13af:	8b 45 e4             	mov    -0x1c(%ebp),%eax
    13b2:	89 5c 24 0c          	mov    %ebx,0xc(%esp)
    13b6:	89 44 24 08          	mov    %eax,0x8(%esp)
    13ba:	89 74 24 04          	mov    %esi,0x4(%esp)
    13be:	89 3c 24             	mov    %edi,(%esp)
    13c1:	e8 8a 50 00 00       	call   6450 <usb_dp_get_sibling_descriptor>
    13c6:	89 c3                	mov    %eax,%ebx
    13c8:	85 c0                	test   %eax,%eax
    13ca:	75 c4                	jne    1390 <browse_descriptor_tree_internal+0x2d0>
    13cc:	e9 5f ff ff ff       	jmp    1330 <browse_descriptor_tree_internal+0x270>
    13d1:	8b 45 bc             	mov    -0x44(%ebp),%eax
    13d4:	89 74 24 04          	mov    %esi,0x4(%esp)
    13d8:	89 44 24 0c          	mov    %eax,0xc(%esp)
    13dc:	8b 45 c0             	mov    -0x40(%ebp),%eax
    13df:	89 44 24 08          	mov    %eax,0x8(%esp)
    13e3:	89 3c 24             	mov    %edi,(%esp)
    13e6:	e8 65 50 00 00       	call   6450 <usb_dp_get_sibling_descriptor>
    13eb:	89 45 bc             	mov    %eax,-0x44(%ebp)
    13ee:	85 c0                	test   %eax,%eax
    13f0:	0f 85 2c fe ff ff    	jne    1222 <browse_descriptor_tree_internal+0x162>
    13f6:	8b 45 c0             	mov    -0x40(%ebp),%eax
    13f9:	89 74 24 04          	mov    %esi,0x4(%esp)
    13fd:	89 44 24 0c          	mov    %eax,0xc(%esp)
    1401:	8b 45 c4             	mov    -0x3c(%ebp),%eax
    1404:	89 44 24 08          	mov    %eax,0x8(%esp)
    1408:	89 3c 24             	mov    %edi,(%esp)
    140b:	e8 40 50 00 00       	call   6450 <usb_dp_get_sibling_descriptor>
    1410:	89 45 c0             	mov    %eax,-0x40(%ebp)
    1413:	85 c0                	test   %eax,%eax
    1415:	0f 85 c4 fd ff ff    	jne    11df <browse_descriptor_tree_internal+0x11f>
    141b:	8b 45 c4             	mov    -0x3c(%ebp),%eax
    141e:	89 74 24 04          	mov    %esi,0x4(%esp)
    1422:	89 44 24 0c          	mov    %eax,0xc(%esp)
    1426:	8b 45 c8             	mov    -0x38(%ebp),%eax
    1429:	89 44 24 08          	mov    %eax,0x8(%esp)
    142d:	89 3c 24             	mov    %edi,(%esp)
    1430:	e8 1b 50 00 00       	call   6450 <usb_dp_get_sibling_descriptor>
    1435:	89 45 c4             	mov    %eax,-0x3c(%ebp)
    1438:	85 c0                	test   %eax,%eax
    143a:	0f 85 5c fd ff ff    	jne    119c <browse_descriptor_tree_internal+0xdc>
    1440:	8b 45 c8             	mov    -0x38(%ebp),%eax
    1443:	89 74 24 04          	mov    %esi,0x4(%esp)
    1447:	89 44 24 0c          	mov    %eax,0xc(%esp)
    144b:	8b 45 cc             	mov    -0x34(%ebp),%eax
    144e:	89 44 24 08          	mov    %eax,0x8(%esp)
    1452:	89 3c 24             	mov    %edi,(%esp)
    1455:	e8 f6 4f 00 00       	call   6450 <usb_dp_get_sibling_descriptor>
    145a:	89 45 c8             	mov    %eax,-0x38(%ebp)
    145d:	85 c0                	test   %eax,%eax
    145f:	0f 85 f4 fc ff ff    	jne    1159 <browse_descriptor_tree_internal+0x99>
    1465:	8b 45 cc             	mov    -0x34(%ebp),%eax
    1468:	89 74 24 04          	mov    %esi,0x4(%esp)
    146c:	89 44 24 0c          	mov    %eax,0xc(%esp)
    1470:	8b 45 b8             	mov    -0x48(%ebp),%eax
    1473:	89 44 24 08          	mov    %eax,0x8(%esp)
    1477:	89 3c 24             	mov    %edi,(%esp)
    147a:	e8 d1 4f 00 00       	call   6450 <usb_dp_get_sibling_descriptor>
    147f:	89 45 cc             	mov    %eax,-0x34(%ebp)
    1482:	85 c0                	test   %eax,%eax
    1484:	0f 85 8c fc ff ff    	jne    1116 <browse_descriptor_tree_internal+0x56>
    148a:	83 c4 6c             	add    $0x6c,%esp
    148d:	5b                   	pop    %ebx
    148e:	5e                   	pop    %esi
    148f:	5f                   	pop    %edi
    1490:	5d                   	pop    %ebp
    1491:	c3                   	ret    
    1492:	8d b4 26 00 00 00 00 	lea    0x0(%esi,%eiz,1),%esi
    1499:	8d bc 27 00 00 00 00 	lea    0x0(%edi,%eiz,1),%edi

000014a0 <browse_descriptor_tree>:
    14a0:	55                   	push   %ebp
    14a1:	89 e5                	mov    %esp,%ebp
    14a3:	83 ec 28             	sub    $0x28,%esp
    14a6:	8b 45 0c             	mov    0xc(%ebp),%eax
    14a9:	8b 4d 08             	mov    0x8(%ebp),%ecx
    14ac:	89 45 f0             	mov    %eax,-0x10(%ebp)
    14af:	8b 45 10             	mov    0x10(%ebp),%eax
    14b2:	89 45 e8             	mov    %eax,-0x18(%ebp)
    14b5:	8b 45 1c             	mov    0x1c(%ebp),%eax
    14b8:	89 44 24 08          	mov    %eax,0x8(%esp)
    14bc:	8b 45 14             	mov    0x14(%ebp),%eax
    14bf:	89 44 24 04          	mov    %eax,0x4(%esp)
    14c3:	8b 45 18             	mov    0x18(%ebp),%eax
    14c6:	89 04 24             	mov    %eax,(%esp)
    14c9:	8d 55 ec             	lea    -0x14(%ebp),%edx
    14cc:	8d 45 e8             	lea    -0x18(%ebp),%eax
    14cf:	89 4d ec             	mov    %ecx,-0x14(%ebp)
    14d2:	c7 45 f4 00 00 00 00 	movl   $0x0,-0xc(%ebp)
    14d9:	e8 e2 fb ff ff       	call   10c0 <browse_descriptor_tree_internal>
    14de:	c9                   	leave  
    14df:	c3                   	ret    

000014e0 <prepare_device>:
    14e0:	55                   	push   %ebp
    14e1:	89 e5                	mov    %esp,%ebp
    14e3:	57                   	push   %edi
    14e4:	56                   	push   %esi
    14e5:	53                   	push   %ebx
    14e6:	83 ec 1c             	sub    $0x1c,%esp
    14e9:	8b 75 10             	mov    0x10(%ebp),%esi
    14ec:	c7 04 24 58 00 00 00 	movl   $0x58,(%esp)
    14f3:	e8 08 31 02 00       	call   24600 <malloc>
    14f8:	89 c3                	mov    %eax,%ebx
    14fa:	85 c0                	test   %eax,%eax
    14fc:	0f 84 e6 01 00 00    	je     16e8 <prepare_device+0x208>
    1502:	8b 45 0c             	mov    0xc(%ebp),%eax
    1505:	c7 43 04 00 00 00 00 	movl   $0x0,0x4(%ebx)
    150c:	89 03                	mov    %eax,(%ebx)
    150e:	8d 43 08             	lea    0x8(%ebx),%eax
    1511:	c7 43 18 00 00 00 00 	movl   $0x0,0x18(%ebx)
    1518:	89 04 24             	mov    %eax,(%esp)
    151b:	e8 40 9d 01 00       	call   1b260 <fibril_mutex_initialize>
    1520:	8d 43 1c             	lea    0x1c(%ebx),%eax
    1523:	66 83 fe 7f          	cmp    $0x7f,%si
    1527:	0f 87 53 01 00 00    	ja     1680 <prepare_device+0x1a0>
    152d:	66 89 73 20          	mov    %si,0x20(%ebx)
    1531:	8d 73 24             	lea    0x24(%ebx),%esi
    1534:	89 5b 1c             	mov    %ebx,0x1c(%ebx)
    1537:	89 44 24 04          	mov    %eax,0x4(%esp)
    153b:	89 34 24             	mov    %esi,(%esp)
    153e:	e8 ad 5f 00 00       	call   74f0 <usb_pipe_initialize_default_control>
    1543:	85 c0                	test   %eax,%eax
    1545:	0f 85 a5 00 00 00    	jne    15f0 <prepare_device+0x110>
    154b:	89 34 24             	mov    %esi,(%esp)
    154e:	e8 cd 63 00 00       	call   7920 <usb_pipe_probe_default_control>
    1553:	85 c0                	test   %eax,%eax
    1555:	75 51                	jne    15a8 <prepare_device+0xc8>
    1557:	89 34 24             	mov    %esi,(%esp)
    155a:	e8 71 59 00 00       	call   6ed0 <usb_pipe_start_long_transfer>
    155f:	8d 43 3c             	lea    0x3c(%ebx),%eax
    1562:	89 44 24 04          	mov    %eax,0x4(%esp)
    1566:	89 34 24             	mov    %esi,(%esp)
    1569:	e8 f2 7b 00 00       	call   9160 <usb_request_get_device_descriptor>
    156e:	85 c0                	test   %eax,%eax
    1570:	0f 85 aa 00 00 00    	jne    1620 <prepare_device+0x140>
    1576:	8d 43 54             	lea    0x54(%ebx),%eax
    1579:	c7 44 24 04 00 00 00 	movl   $0x0,0x4(%esp)
    1580:	00 
    1581:	89 44 24 0c          	mov    %eax,0xc(%esp)
    1585:	8d 43 50             	lea    0x50(%ebx),%eax
    1588:	89 44 24 08          	mov    %eax,0x8(%esp)
    158c:	89 34 24             	mov    %esi,(%esp)
    158f:	e8 dc 7d 00 00       	call   9370 <usb_request_get_full_configuration_descriptor_alloc>
    1594:	85 c0                	test   %eax,%eax
    1596:	0f 85 1c 01 00 00    	jne    16b8 <prepare_device+0x1d8>
    159c:	83 c4 1c             	add    $0x1c,%esp
    159f:	89 d8                	mov    %ebx,%eax
    15a1:	5b                   	pop    %ebx
    15a2:	5e                   	pop    %esi
    15a3:	5f                   	pop    %edi
    15a4:	5d                   	pop    %ebp
    15a5:	c3                   	ret    
    15a6:	66 90                	xchg   %ax,%ax
    15a8:	83 f8 ff             	cmp    $0xffffffff,%eax
    15ab:	0f 84 a7 00 00 00    	je     1658 <prepare_device+0x178>
    15b1:	89 04 24             	mov    %eax,(%esp)
    15b4:	e8 27 92 01 00       	call   1a7e0 <str_error>
    15b9:	c7 44 24 04 d8 19 03 	movl   $0x319d8,0x4(%esp)
    15c0:	00 
    15c1:	89 44 24 0c          	mov    %eax,0xc(%esp)
    15c5:	8b 45 08             	mov    0x8(%ebp),%eax
    15c8:	89 44 24 08          	mov    %eax,0x8(%esp)
    15cc:	a1 50 6e 03 00       	mov    0x36e50,%eax
    15d1:	89 04 24             	mov    %eax,(%esp)
    15d4:	e8 a7 dc 01 00       	call   1f280 <fprintf>
    15d9:	89 1c 24             	mov    %ebx,(%esp)
    15dc:	31 db                	xor    %ebx,%ebx
    15de:	e8 2d 31 02 00       	call   24710 <free>
    15e3:	83 c4 1c             	add    $0x1c,%esp
    15e6:	89 d8                	mov    %ebx,%eax
    15e8:	5b                   	pop    %ebx
    15e9:	5e                   	pop    %esi
    15ea:	5f                   	pop    %edi
    15eb:	5d                   	pop    %ebp
    15ec:	c3                   	ret    
    15ed:	8d 76 00             	lea    0x0(%esi),%esi
    15f0:	89 04 24             	mov    %eax,(%esp)
    15f3:	e8 e8 91 01 00       	call   1a7e0 <str_error>
    15f8:	c7 44 24 04 68 19 03 	movl   $0x31968,0x4(%esp)
    15ff:	00 
    1600:	89 44 24 0c          	mov    %eax,0xc(%esp)
    1604:	8b 45 08             	mov    0x8(%ebp),%eax
    1607:	89 44 24 08          	mov    %eax,0x8(%esp)
    160b:	a1 50 6e 03 00       	mov    0x36e50,%eax
    1610:	89 04 24             	mov    %eax,(%esp)
    1613:	e8 68 dc 01 00       	call   1f280 <fprintf>
    1618:	eb bf                	jmp    15d9 <prepare_device+0xf9>
    161a:	8d b6 00 00 00 00    	lea    0x0(%esi),%esi
    1620:	89 04 24             	mov    %eax,(%esp)
    1623:	e8 b8 91 01 00       	call   1a7e0 <str_error>
    1628:	c7 44 24 04 14 1a 03 	movl   $0x31a14,0x4(%esp)
    162f:	00 
    1630:	89 44 24 0c          	mov    %eax,0xc(%esp)
    1634:	8b 45 08             	mov    0x8(%ebp),%eax
    1637:	89 44 24 08          	mov    %eax,0x8(%esp)
    163b:	a1 50 6e 03 00       	mov    0x36e50,%eax
    1640:	89 04 24             	mov    %eax,(%esp)
    1643:	e8 38 dc 01 00       	call   1f280 <fprintf>
    1648:	89 34 24             	mov    %esi,(%esp)
    164b:	e8 00 59 00 00       	call   6f50 <usb_pipe_end_long_transfer>
    1650:	eb 87                	jmp    15d9 <prepare_device+0xf9>
    1652:	8d b6 00 00 00 00    	lea    0x0(%esi),%esi
    1658:	8b 45 08             	mov    0x8(%ebp),%eax
    165b:	c7 44 24 04 a4 19 03 	movl   $0x319a4,0x4(%esp)
    1662:	00 
    1663:	89 44 24 08          	mov    %eax,0x8(%esp)
    1667:	a1 50 6e 03 00       	mov    0x36e50,%eax
    166c:	89 04 24             	mov    %eax,(%esp)
    166f:	e8 0c dc 01 00       	call   1f280 <fprintf>
    1674:	e9 60 ff ff ff       	jmp    15d9 <prepare_device+0xf9>
    1679:	8d b4 26 00 00 00 00 	lea    0x0(%esi,%eiz,1),%esi
    1680:	c7 04 24 f2 ff ff ff 	movl   $0xfffffff2,(%esp)
    1687:	e8 54 91 01 00       	call   1a7e0 <str_error>
    168c:	c7 44 24 04 94 1a 03 	movl   $0x31a94,0x4(%esp)
    1693:	00 
    1694:	89 44 24 0c          	mov    %eax,0xc(%esp)
    1698:	8b 45 08             	mov    0x8(%ebp),%eax
    169b:	89 44 24 08          	mov    %eax,0x8(%esp)
    169f:	a1 50 6e 03 00       	mov    0x36e50,%eax
    16a4:	89 04 24             	mov    %eax,(%esp)
    16a7:	e8 d4 db 01 00       	call   1f280 <fprintf>
    16ac:	e9 28 ff ff ff       	jmp    15d9 <prepare_device+0xf9>
    16b1:	8d b4 26 00 00 00 00 	lea    0x0(%esi,%eiz,1),%esi
    16b8:	89 04 24             	mov    %eax,(%esp)
    16bb:	e8 20 91 01 00       	call   1a7e0 <str_error>
    16c0:	c7 44 24 04 50 1a 03 	movl   $0x31a50,0x4(%esp)
    16c7:	00 
    16c8:	89 44 24 0c          	mov    %eax,0xc(%esp)
    16cc:	8b 45 08             	mov    0x8(%ebp),%eax
    16cf:	89 44 24 08          	mov    %eax,0x8(%esp)
    16d3:	a1 50 6e 03 00       	mov    0x36e50,%eax
    16d8:	89 04 24             	mov    %eax,(%esp)
    16db:	e8 a0 db 01 00       	call   1f280 <fprintf>
    16e0:	e9 63 ff ff ff       	jmp    1648 <prepare_device+0x168>
    16e5:	8d 76 00             	lea    0x0(%esi),%esi
    16e8:	a1 50 6e 03 00       	mov    0x36e50,%eax
    16ed:	c7 44 24 04 44 19 03 	movl   $0x31944,0x4(%esp)
    16f4:	00 
    16f5:	89 04 24             	mov    %eax,(%esp)
    16f8:	e8 83 db 01 00       	call   1f280 <fprintf>
    16fd:	e9 9a fe ff ff       	jmp    159c <prepare_device+0xbc>
    1702:	8d b4 26 00 00 00 00 	lea    0x0(%esi,%eiz,1),%esi
    1709:	8d bc 27 00 00 00 00 	lea    0x0(%edi,%eiz,1),%edi

00001710 <destroy_device>:
    1710:	55                   	push   %ebp
    1711:	89 e5                	mov    %esp,%ebp
    1713:	53                   	push   %ebx
    1714:	83 ec 14             	sub    $0x14,%esp
    1717:	8b 5d 08             	mov    0x8(%ebp),%ebx
    171a:	8d 43 24             	lea    0x24(%ebx),%eax
    171d:	89 04 24             	mov    %eax,(%esp)
    1720:	e8 2b 58 00 00       	call   6f50 <usb_pipe_end_long_transfer>
    1725:	89 5d 08             	mov    %ebx,0x8(%ebp)
    1728:	83 c4 14             	add    $0x14,%esp
    172b:	5b                   	pop    %ebx
    172c:	5d                   	pop    %ebp
    172d:	e9 de 2f 02 00       	jmp    24710 <free>
    1732:	66 90                	xchg   %ax,%ax
    1734:	66 90                	xchg   %ax,%ax
    1736:	66 90                	xchg   %ax,%ax
    1738:	66 90                	xchg   %ax,%ax
    173a:	66 90                	xchg   %ax,%ax
    173c:	66 90                	xchg   %ax,%ax
    173e:	66 90                	xchg   %ax,%ax

00001740 <dump_tree_internal.constprop.1>:
    1740:	55                   	push   %ebp
    1741:	89 e5                	mov    %esp,%ebp
    1743:	57                   	push   %edi
    1744:	56                   	push   %esi
    1745:	53                   	push   %ebx
    1746:	83 ec 7c             	sub    $0x7c,%esp
    1749:	89 55 b8             	mov    %edx,-0x48(%ebp)
    174c:	89 4d d8             	mov    %ecx,-0x28(%ebp)
    174f:	85 d2                	test   %edx,%edx
    1751:	0f 84 4d 07 00 00    	je     1ea4 <dump_tree_internal.constprop.1+0x764>
    1757:	89 c7                	mov    %eax,%edi
    1759:	8a 42 01             	mov    0x1(%edx),%al
    175c:	88 c1                	mov    %al,%cl
    175e:	31 d2                	xor    %edx,%edx
    1760:	49                   	dec    %ecx
    1761:	88 c2                	mov    %al,%dl
    1763:	80 f9 28             	cmp    $0x28,%cl
    1766:	b8 cc 1a 03 00       	mov    $0x31acc,%eax
    176b:	77 0d                	ja     177a <dump_tree_internal.constprop.1+0x3a>
    176d:	81 e1 ff 00 00 00    	and    $0xff,%ecx
    1773:	8b 04 8d a0 1b 03 00 	mov    0x31ba0(,%ecx,4),%eax
    177a:	83 7d d8 04          	cmpl   $0x4,-0x28(%ebp)
    177e:	0f 87 91 08 00 00    	ja     2015 <dump_tree_internal.constprop.1+0x8d5>
    1784:	8b 4d d8             	mov    -0x28(%ebp),%ecx
    1787:	89 54 24 0c          	mov    %edx,0xc(%esp)
    178b:	89 44 24 08          	mov    %eax,0x8(%esp)
    178f:	c7 04 24 df 1a 03 00 	movl   $0x31adf,(%esp)
    1796:	8b 1c 8d 80 1b 03 00 	mov    0x31b80(,%ecx,4),%ebx
    179d:	89 5c 24 04          	mov    %ebx,0x4(%esp)
    17a1:	e8 0a db 01 00       	call   1f2b0 <printf>
    17a6:	8b 55 b8             	mov    -0x48(%ebp),%edx
    17a9:	31 c0                	xor    %eax,%eax
    17ab:	8a 02                	mov    (%edx),%al
    17ad:	89 44 24 10          	mov    %eax,0x10(%esp)
    17b1:	a1 54 6e 03 00       	mov    0x36e54,%eax
    17b6:	89 54 24 0c          	mov    %edx,0xc(%esp)
    17ba:	89 04 24             	mov    %eax,(%esp)
    17bd:	c7 44 24 08 47 39 03 	movl   $0x33947,0x8(%esp)
    17c4:	00 
    17c5:	89 5c 24 04          	mov    %ebx,0x4(%esp)
    17c9:	e8 d2 9f 00 00       	call   b7a0 <usb_dump_standard_descriptor>
    17ce:	8b 55 b8             	mov    -0x48(%ebp),%edx
    17d1:	89 54 24 08          	mov    %edx,0x8(%esp)
    17d5:	89 7c 24 04          	mov    %edi,0x4(%esp)
    17d9:	c7 04 24 20 67 03 00 	movl   $0x36720,(%esp)
    17e0:	e8 4b 4a 00 00       	call   6230 <usb_dp_get_nested_descriptor>
    17e5:	8b 4d d8             	mov    -0x28(%ebp),%ecx
    17e8:	89 45 cc             	mov    %eax,-0x34(%ebp)
    17eb:	8b 45 d8             	mov    -0x28(%ebp),%eax
    17ee:	83 c0 02             	add    $0x2,%eax
    17f1:	41                   	inc    %ecx
    17f2:	89 45 a4             	mov    %eax,-0x5c(%ebp)
    17f5:	8b 45 d8             	mov    -0x28(%ebp),%eax
    17f8:	83 c0 05             	add    $0x5,%eax
    17fb:	89 4d a0             	mov    %ecx,-0x60(%ebp)
    17fe:	8b 55 d8             	mov    -0x28(%ebp),%edx
    1801:	8b 4d d8             	mov    -0x28(%ebp),%ecx
    1804:	83 c2 03             	add    $0x3,%edx
    1807:	83 c1 04             	add    $0x4,%ecx
    180a:	89 45 b0             	mov    %eax,-0x50(%ebp)
    180d:	8b 45 d8             	mov    -0x28(%ebp),%eax
    1810:	83 c0 08             	add    $0x8,%eax
    1813:	89 55 a8             	mov    %edx,-0x58(%ebp)
    1816:	89 4d ac             	mov    %ecx,-0x54(%ebp)
    1819:	8b 55 d8             	mov    -0x28(%ebp),%edx
    181c:	8b 4d d8             	mov    -0x28(%ebp),%ecx
    181f:	83 c2 06             	add    $0x6,%edx
    1822:	83 c1 07             	add    $0x7,%ecx
    1825:	89 45 dc             	mov    %eax,-0x24(%ebp)
    1828:	8b 45 cc             	mov    -0x34(%ebp),%eax
    182b:	89 55 b4             	mov    %edx,-0x4c(%ebp)
    182e:	89 4d d0             	mov    %ecx,-0x30(%ebp)
    1831:	85 c0                	test   %eax,%eax
    1833:	0f 84 42 06 00 00    	je     1e7b <dump_tree_internal.constprop.1+0x73b>
    1839:	8b 4d cc             	mov    -0x34(%ebp),%ecx
    183c:	31 d2                	xor    %edx,%edx
    183e:	b8 cc 1a 03 00       	mov    $0x31acc,%eax
    1843:	8a 49 01             	mov    0x1(%ecx),%cl
    1846:	88 4d 9e             	mov    %cl,-0x62(%ebp)
    1849:	88 ca                	mov    %cl,%dl
    184b:	49                   	dec    %ecx
    184c:	80 f9 28             	cmp    $0x28,%cl
    184f:	77 0d                	ja     185e <dump_tree_internal.constprop.1+0x11e>
    1851:	81 e1 ff 00 00 00    	and    $0xff,%ecx
    1857:	8b 04 8d a0 1b 03 00 	mov    0x31ba0(,%ecx,4),%eax
    185e:	83 7d a0 04          	cmpl   $0x4,-0x60(%ebp)
    1862:	0f 87 80 07 00 00    	ja     1fe8 <dump_tree_internal.constprop.1+0x8a8>
    1868:	8b 4d a0             	mov    -0x60(%ebp),%ecx
    186b:	89 54 24 0c          	mov    %edx,0xc(%esp)
    186f:	89 44 24 08          	mov    %eax,0x8(%esp)
    1873:	c7 04 24 df 1a 03 00 	movl   $0x31adf,(%esp)
    187a:	8b 1c 8d 80 1b 03 00 	mov    0x31b80(,%ecx,4),%ebx
    1881:	89 5c 24 04          	mov    %ebx,0x4(%esp)
    1885:	e8 26 da 01 00       	call   1f2b0 <printf>
    188a:	8b 55 cc             	mov    -0x34(%ebp),%edx
    188d:	31 c0                	xor    %eax,%eax
    188f:	8a 02                	mov    (%edx),%al
    1891:	89 44 24 10          	mov    %eax,0x10(%esp)
    1895:	8b 45 cc             	mov    -0x34(%ebp),%eax
    1898:	89 44 24 0c          	mov    %eax,0xc(%esp)
    189c:	a1 54 6e 03 00       	mov    0x36e54,%eax
    18a1:	89 04 24             	mov    %eax,(%esp)
    18a4:	c7 44 24 08 47 39 03 	movl   $0x33947,0x8(%esp)
    18ab:	00 
    18ac:	89 5c 24 04          	mov    %ebx,0x4(%esp)
    18b0:	e8 eb 9e 00 00       	call   b7a0 <usb_dump_standard_descriptor>
    18b5:	8b 45 cc             	mov    -0x34(%ebp),%eax
    18b8:	89 44 24 08          	mov    %eax,0x8(%esp)
    18bc:	89 7c 24 04          	mov    %edi,0x4(%esp)
    18c0:	c7 04 24 20 67 03 00 	movl   $0x36720,(%esp)
    18c7:	e8 64 49 00 00       	call   6230 <usb_dp_get_nested_descriptor>
    18cc:	89 45 c8             	mov    %eax,-0x38(%ebp)
    18cf:	85 c0                	test   %eax,%eax
    18d1:	0f 84 7b 05 00 00    	je     1e52 <dump_tree_internal.constprop.1+0x712>
    18d7:	8b 55 c8             	mov    -0x38(%ebp),%edx
    18da:	b8 cc 1a 03 00       	mov    $0x31acc,%eax
    18df:	8a 52 01             	mov    0x1(%edx),%dl
    18e2:	88 55 9d             	mov    %dl,-0x63(%ebp)
    18e5:	31 d2                	xor    %edx,%edx
    18e7:	8a 4d 9d             	mov    -0x63(%ebp),%cl
    18ea:	8a 55 9d             	mov    -0x63(%ebp),%dl
    18ed:	49                   	dec    %ecx
    18ee:	80 f9 28             	cmp    $0x28,%cl
    18f1:	77 0d                	ja     1900 <dump_tree_internal.constprop.1+0x1c0>
    18f3:	81 e1 ff 00 00 00    	and    $0xff,%ecx
    18f9:	8b 04 8d a0 1b 03 00 	mov    0x31ba0(,%ecx,4),%eax
    1900:	83 7d a4 04          	cmpl   $0x4,-0x5c(%ebp)
    1904:	0f 87 b1 06 00 00    	ja     1fbb <dump_tree_internal.constprop.1+0x87b>
    190a:	8b 4d a4             	mov    -0x5c(%ebp),%ecx
    190d:	89 54 24 0c          	mov    %edx,0xc(%esp)
    1911:	89 44 24 08          	mov    %eax,0x8(%esp)
    1915:	c7 04 24 df 1a 03 00 	movl   $0x31adf,(%esp)
    191c:	8b 1c 8d 80 1b 03 00 	mov    0x31b80(,%ecx,4),%ebx
    1923:	89 5c 24 04          	mov    %ebx,0x4(%esp)
    1927:	e8 84 d9 01 00       	call   1f2b0 <printf>
    192c:	8b 55 c8             	mov    -0x38(%ebp),%edx
    192f:	31 c0                	xor    %eax,%eax
    1931:	8a 02                	mov    (%edx),%al
    1933:	89 44 24 10          	mov    %eax,0x10(%esp)
    1937:	8b 45 c8             	mov    -0x38(%ebp),%eax
    193a:	89 44 24 0c          	mov    %eax,0xc(%esp)
    193e:	a1 54 6e 03 00       	mov    0x36e54,%eax
    1943:	89 04 24             	mov    %eax,(%esp)
    1946:	c7 44 24 08 47 39 03 	movl   $0x33947,0x8(%esp)
    194d:	00 
    194e:	89 5c 24 04          	mov    %ebx,0x4(%esp)
    1952:	e8 49 9e 00 00       	call   b7a0 <usb_dump_standard_descriptor>
    1957:	8b 45 c8             	mov    -0x38(%ebp),%eax
    195a:	89 44 24 08          	mov    %eax,0x8(%esp)
    195e:	89 7c 24 04          	mov    %edi,0x4(%esp)
    1962:	c7 04 24 20 67 03 00 	movl   $0x36720,(%esp)
    1969:	e8 c2 48 00 00       	call   6230 <usb_dp_get_nested_descriptor>
    196e:	89 45 c4             	mov    %eax,-0x3c(%ebp)
    1971:	85 c0                	test   %eax,%eax
    1973:	0f 84 b0 04 00 00    	je     1e29 <dump_tree_internal.constprop.1+0x6e9>
    1979:	8b 55 c4             	mov    -0x3c(%ebp),%edx
    197c:	b8 cc 1a 03 00       	mov    $0x31acc,%eax
    1981:	8a 52 01             	mov    0x1(%edx),%dl
    1984:	88 55 9c             	mov    %dl,-0x64(%ebp)
    1987:	31 d2                	xor    %edx,%edx
    1989:	8a 4d 9c             	mov    -0x64(%ebp),%cl
    198c:	8a 55 9c             	mov    -0x64(%ebp),%dl
    198f:	49                   	dec    %ecx
    1990:	80 f9 28             	cmp    $0x28,%cl
    1993:	77 0d                	ja     19a2 <dump_tree_internal.constprop.1+0x262>
    1995:	81 e1 ff 00 00 00    	and    $0xff,%ecx
    199b:	8b 04 8d a0 1b 03 00 	mov    0x31ba0(,%ecx,4),%eax
    19a2:	83 7d a8 04          	cmpl   $0x4,-0x58(%ebp)
    19a6:	0f 87 e2 05 00 00    	ja     1f8e <dump_tree_internal.constprop.1+0x84e>
    19ac:	8b 4d a8             	mov    -0x58(%ebp),%ecx
    19af:	89 54 24 0c          	mov    %edx,0xc(%esp)
    19b3:	89 44 24 08          	mov    %eax,0x8(%esp)
    19b7:	c7 04 24 df 1a 03 00 	movl   $0x31adf,(%esp)
    19be:	8b 1c 8d 80 1b 03 00 	mov    0x31b80(,%ecx,4),%ebx
    19c5:	89 5c 24 04          	mov    %ebx,0x4(%esp)
    19c9:	e8 e2 d8 01 00       	call   1f2b0 <printf>
    19ce:	8b 55 c4             	mov    -0x3c(%ebp),%edx
    19d1:	31 c0                	xor    %eax,%eax
    19d3:	8a 02                	mov    (%edx),%al
    19d5:	89 44 24 10          	mov    %eax,0x10(%esp)
    19d9:	8b 45 c4             	mov    -0x3c(%ebp),%eax
    19dc:	89 44 24 0c          	mov    %eax,0xc(%esp)
    19e0:	a1 54 6e 03 00       	mov    0x36e54,%eax
    19e5:	89 04 24             	mov    %eax,(%esp)
    19e8:	c7 44 24 08 47 39 03 	movl   $0x33947,0x8(%esp)
    19ef:	00 
    19f0:	89 5c 24 04          	mov    %ebx,0x4(%esp)
    19f4:	e8 a7 9d 00 00       	call   b7a0 <usb_dump_standard_descriptor>
    19f9:	8b 45 c4             	mov    -0x3c(%ebp),%eax
    19fc:	89 44 24 08          	mov    %eax,0x8(%esp)
    1a00:	89 7c 24 04          	mov    %edi,0x4(%esp)
    1a04:	c7 04 24 20 67 03 00 	movl   $0x36720,(%esp)
    1a0b:	e8 20 48 00 00       	call   6230 <usb_dp_get_nested_descriptor>
    1a10:	89 45 c0             	mov    %eax,-0x40(%ebp)
    1a13:	85 c0                	test   %eax,%eax
    1a15:	0f 84 e5 03 00 00    	je     1e00 <dump_tree_internal.constprop.1+0x6c0>
    1a1b:	8b 55 c0             	mov    -0x40(%ebp),%edx
    1a1e:	b8 cc 1a 03 00       	mov    $0x31acc,%eax
    1a23:	8a 52 01             	mov    0x1(%edx),%dl
    1a26:	88 55 9b             	mov    %dl,-0x65(%ebp)
    1a29:	31 d2                	xor    %edx,%edx
    1a2b:	8a 4d 9b             	mov    -0x65(%ebp),%cl
    1a2e:	8a 55 9b             	mov    -0x65(%ebp),%dl
    1a31:	49                   	dec    %ecx
    1a32:	80 f9 28             	cmp    $0x28,%cl
    1a35:	77 0d                	ja     1a44 <dump_tree_internal.constprop.1+0x304>
    1a37:	81 e1 ff 00 00 00    	and    $0xff,%ecx
    1a3d:	8b 04 8d a0 1b 03 00 	mov    0x31ba0(,%ecx,4),%eax
    1a44:	83 7d ac 04          	cmpl   $0x4,-0x54(%ebp)
    1a48:	0f 87 13 05 00 00    	ja     1f61 <dump_tree_internal.constprop.1+0x821>
    1a4e:	8b 4d ac             	mov    -0x54(%ebp),%ecx
    1a51:	89 54 24 0c          	mov    %edx,0xc(%esp)
    1a55:	89 44 24 08          	mov    %eax,0x8(%esp)
    1a59:	c7 04 24 df 1a 03 00 	movl   $0x31adf,(%esp)
    1a60:	8b 1c 8d 80 1b 03 00 	mov    0x31b80(,%ecx,4),%ebx
    1a67:	89 5c 24 04          	mov    %ebx,0x4(%esp)
    1a6b:	e8 40 d8 01 00       	call   1f2b0 <printf>
    1a70:	8b 55 c0             	mov    -0x40(%ebp),%edx
    1a73:	31 c0                	xor    %eax,%eax
    1a75:	8a 02                	mov    (%edx),%al
    1a77:	89 44 24 10          	mov    %eax,0x10(%esp)
    1a7b:	8b 45 c0             	mov    -0x40(%ebp),%eax
    1a7e:	89 44 24 0c          	mov    %eax,0xc(%esp)
    1a82:	a1 54 6e 03 00       	mov    0x36e54,%eax
    1a87:	89 04 24             	mov    %eax,(%esp)
    1a8a:	c7 44 24 08 47 39 03 	movl   $0x33947,0x8(%esp)
    1a91:	00 
    1a92:	89 5c 24 04          	mov    %ebx,0x4(%esp)
    1a96:	e8 05 9d 00 00       	call   b7a0 <usb_dump_standard_descriptor>
    1a9b:	8b 45 c0             	mov    -0x40(%ebp),%eax
    1a9e:	89 44 24 08          	mov    %eax,0x8(%esp)
    1aa2:	89 7c 24 04          	mov    %edi,0x4(%esp)
    1aa6:	c7 04 24 20 67 03 00 	movl   $0x36720,(%esp)
    1aad:	e8 7e 47 00 00       	call   6230 <usb_dp_get_nested_descriptor>
    1ab2:	89 45 bc             	mov    %eax,-0x44(%ebp)
    1ab5:	85 c0                	test   %eax,%eax
    1ab7:	0f 84 1a 03 00 00    	je     1dd7 <dump_tree_internal.constprop.1+0x697>
    1abd:	8b 55 bc             	mov    -0x44(%ebp),%edx
    1ac0:	b8 cc 1a 03 00       	mov    $0x31acc,%eax
    1ac5:	8a 52 01             	mov    0x1(%edx),%dl
    1ac8:	88 55 9a             	mov    %dl,-0x66(%ebp)
    1acb:	31 d2                	xor    %edx,%edx
    1acd:	8a 4d 9a             	mov    -0x66(%ebp),%cl
    1ad0:	8a 55 9a             	mov    -0x66(%ebp),%dl
    1ad3:	49                   	dec    %ecx
    1ad4:	80 f9 28             	cmp    $0x28,%cl
    1ad7:	77 0d                	ja     1ae6 <dump_tree_internal.constprop.1+0x3a6>
    1ad9:	81 e1 ff 00 00 00    	and    $0xff,%ecx
    1adf:	8b 04 8d a0 1b 03 00 	mov    0x31ba0(,%ecx,4),%eax
    1ae6:	83 7d b0 04          	cmpl   $0x4,-0x50(%ebp)
    1aea:	0f 87 44 04 00 00    	ja     1f34 <dump_tree_internal.constprop.1+0x7f4>
    1af0:	8b 4d b0             	mov    -0x50(%ebp),%ecx
    1af3:	89 54 24 0c          	mov    %edx,0xc(%esp)
    1af7:	89 44 24 08          	mov    %eax,0x8(%esp)
    1afb:	c7 04 24 df 1a 03 00 	movl   $0x31adf,(%esp)
    1b02:	8b 1c 8d 80 1b 03 00 	mov    0x31b80(,%ecx,4),%ebx
    1b09:	89 5c 24 04          	mov    %ebx,0x4(%esp)
    1b0d:	e8 9e d7 01 00       	call   1f2b0 <printf>
    1b12:	8b 55 bc             	mov    -0x44(%ebp),%edx
    1b15:	31 c0                	xor    %eax,%eax
    1b17:	8a 02                	mov    (%edx),%al
    1b19:	89 44 24 10          	mov    %eax,0x10(%esp)
    1b1d:	8b 45 bc             	mov    -0x44(%ebp),%eax
    1b20:	89 44 24 0c          	mov    %eax,0xc(%esp)
    1b24:	a1 54 6e 03 00       	mov    0x36e54,%eax
    1b29:	89 04 24             	mov    %eax,(%esp)
    1b2c:	c7 44 24 08 47 39 03 	movl   $0x33947,0x8(%esp)
    1b33:	00 
    1b34:	89 5c 24 04          	mov    %ebx,0x4(%esp)
    1b38:	e8 63 9c 00 00       	call   b7a0 <usb_dump_standard_descriptor>
    1b3d:	8b 45 bc             	mov    -0x44(%ebp),%eax
    1b40:	89 44 24 08          	mov    %eax,0x8(%esp)
    1b44:	89 7c 24 04          	mov    %edi,0x4(%esp)
    1b48:	c7 04 24 20 67 03 00 	movl   $0x36720,(%esp)
    1b4f:	e8 dc 46 00 00       	call   6230 <usb_dp_get_nested_descriptor>
    1b54:	89 45 d4             	mov    %eax,-0x2c(%ebp)
    1b57:	85 c0                	test   %eax,%eax
    1b59:	75 29                	jne    1b84 <dump_tree_internal.constprop.1+0x444>
    1b5b:	8b 45 d4             	mov    -0x2c(%ebp),%eax
    1b5e:	89 7c 24 04          	mov    %edi,0x4(%esp)
    1b62:	89 44 24 0c          	mov    %eax,0xc(%esp)
    1b66:	8b 45 bc             	mov    -0x44(%ebp),%eax
    1b69:	89 44 24 08          	mov    %eax,0x8(%esp)
    1b6d:	c7 04 24 20 67 03 00 	movl   $0x36720,(%esp)
    1b74:	e8 d7 48 00 00       	call   6450 <usb_dp_get_sibling_descriptor>
    1b79:	89 45 d4             	mov    %eax,-0x2c(%ebp)
    1b7c:	85 c0                	test   %eax,%eax
    1b7e:	0f 84 53 02 00 00    	je     1dd7 <dump_tree_internal.constprop.1+0x697>
    1b84:	8b 55 d4             	mov    -0x2c(%ebp),%edx
    1b87:	b8 cc 1a 03 00       	mov    $0x31acc,%eax
    1b8c:	8a 52 01             	mov    0x1(%edx),%dl
    1b8f:	88 55 99             	mov    %dl,-0x67(%ebp)
    1b92:	31 d2                	xor    %edx,%edx
    1b94:	8a 4d 99             	mov    -0x67(%ebp),%cl
    1b97:	8a 55 99             	mov    -0x67(%ebp),%dl
    1b9a:	49                   	dec    %ecx
    1b9b:	80 f9 28             	cmp    $0x28,%cl
    1b9e:	77 0d                	ja     1bad <dump_tree_internal.constprop.1+0x46d>
    1ba0:	81 e1 ff 00 00 00    	and    $0xff,%ecx
    1ba6:	8b 04 8d a0 1b 03 00 	mov    0x31ba0(,%ecx,4),%eax
    1bad:	83 7d b4 04          	cmpl   $0x4,-0x4c(%ebp)
    1bb1:	0f 87 50 03 00 00    	ja     1f07 <dump_tree_internal.constprop.1+0x7c7>
    1bb7:	8b 4d b4             	mov    -0x4c(%ebp),%ecx
    1bba:	89 54 24 0c          	mov    %edx,0xc(%esp)
    1bbe:	89 44 24 08          	mov    %eax,0x8(%esp)
    1bc2:	c7 04 24 df 1a 03 00 	movl   $0x31adf,(%esp)
    1bc9:	8b 1c 8d 80 1b 03 00 	mov    0x31b80(,%ecx,4),%ebx
    1bd0:	89 5c 24 04          	mov    %ebx,0x4(%esp)
    1bd4:	e8 d7 d6 01 00       	call   1f2b0 <printf>
    1bd9:	8b 55 d4             	mov    -0x2c(%ebp),%edx
    1bdc:	31 c0                	xor    %eax,%eax
    1bde:	8a 02                	mov    (%edx),%al
    1be0:	89 44 24 10          	mov    %eax,0x10(%esp)
    1be4:	8b 45 d4             	mov    -0x2c(%ebp),%eax
    1be7:	89 44 24 0c          	mov    %eax,0xc(%esp)
    1beb:	a1 54 6e 03 00       	mov    0x36e54,%eax
    1bf0:	89 04 24             	mov    %eax,(%esp)
    1bf3:	c7 44 24 08 47 39 03 	movl   $0x33947,0x8(%esp)
    1bfa:	00 
    1bfb:	89 5c 24 04          	mov    %ebx,0x4(%esp)
    1bff:	e8 9c 9b 00 00       	call   b7a0 <usb_dump_standard_descriptor>
    1c04:	8b 45 d4             	mov    -0x2c(%ebp),%eax
    1c07:	89 44 24 08          	mov    %eax,0x8(%esp)
    1c0b:	89 7c 24 04          	mov    %edi,0x4(%esp)
    1c0f:	c7 04 24 20 67 03 00 	movl   $0x36720,(%esp)
    1c16:	e8 15 46 00 00       	call   6230 <usb_dp_get_nested_descriptor>
    1c1b:	89 45 e0             	mov    %eax,-0x20(%ebp)
    1c1e:	85 c0                	test   %eax,%eax
    1c20:	75 2f                	jne    1c51 <dump_tree_internal.constprop.1+0x511>
    1c22:	8d b6 00 00 00 00    	lea    0x0(%esi),%esi
    1c28:	8b 45 e0             	mov    -0x20(%ebp),%eax
    1c2b:	89 7c 24 04          	mov    %edi,0x4(%esp)
    1c2f:	89 44 24 0c          	mov    %eax,0xc(%esp)
    1c33:	8b 45 d4             	mov    -0x2c(%ebp),%eax
    1c36:	89 44 24 08          	mov    %eax,0x8(%esp)
    1c3a:	c7 04 24 20 67 03 00 	movl   $0x36720,(%esp)
    1c41:	e8 0a 48 00 00       	call   6450 <usb_dp_get_sibling_descriptor>
    1c46:	89 45 e0             	mov    %eax,-0x20(%ebp)
    1c49:	85 c0                	test   %eax,%eax
    1c4b:	0f 84 0a ff ff ff    	je     1b5b <dump_tree_internal.constprop.1+0x41b>
    1c51:	8b 55 e0             	mov    -0x20(%ebp),%edx
    1c54:	b8 cc 1a 03 00       	mov    $0x31acc,%eax
    1c59:	8a 52 01             	mov    0x1(%edx),%dl
    1c5c:	88 55 98             	mov    %dl,-0x68(%ebp)
    1c5f:	31 d2                	xor    %edx,%edx
    1c61:	8a 4d 98             	mov    -0x68(%ebp),%cl
    1c64:	8a 55 98             	mov    -0x68(%ebp),%dl
    1c67:	49                   	dec    %ecx
    1c68:	80 f9 28             	cmp    $0x28,%cl
    1c6b:	77 0d                	ja     1c7a <dump_tree_internal.constprop.1+0x53a>
    1c6d:	81 e1 ff 00 00 00    	and    $0xff,%ecx
    1c73:	8b 04 8d a0 1b 03 00 	mov    0x31ba0(,%ecx,4),%eax
    1c7a:	83 7d d0 04          	cmpl   $0x4,-0x30(%ebp)
    1c7e:	0f 87 56 02 00 00    	ja     1eda <dump_tree_internal.constprop.1+0x79a>
    1c84:	8b 4d d0             	mov    -0x30(%ebp),%ecx
    1c87:	89 54 24 0c          	mov    %edx,0xc(%esp)
    1c8b:	89 44 24 08          	mov    %eax,0x8(%esp)
    1c8f:	c7 04 24 df 1a 03 00 	movl   $0x31adf,(%esp)
    1c96:	8b 1c 8d 80 1b 03 00 	mov    0x31b80(,%ecx,4),%ebx
    1c9d:	89 5c 24 04          	mov    %ebx,0x4(%esp)
    1ca1:	e8 0a d6 01 00       	call   1f2b0 <printf>
    1ca6:	8b 55 e0             	mov    -0x20(%ebp),%edx
    1ca9:	31 c0                	xor    %eax,%eax
    1cab:	8a 02                	mov    (%edx),%al
    1cad:	89 44 24 10          	mov    %eax,0x10(%esp)
    1cb1:	8b 45 e0             	mov    -0x20(%ebp),%eax
    1cb4:	89 44 24 0c          	mov    %eax,0xc(%esp)
    1cb8:	a1 54 6e 03 00       	mov    0x36e54,%eax
    1cbd:	89 04 24             	mov    %eax,(%esp)
    1cc0:	c7 44 24 08 47 39 03 	movl   $0x33947,0x8(%esp)
    1cc7:	00 
    1cc8:	89 5c 24 04          	mov    %ebx,0x4(%esp)
    1ccc:	e8 cf 9a 00 00       	call   b7a0 <usb_dump_standard_descriptor>
    1cd1:	8b 45 e0             	mov    -0x20(%ebp),%eax
    1cd4:	89 44 24 08          	mov    %eax,0x8(%esp)
    1cd8:	89 7c 24 04          	mov    %edi,0x4(%esp)
    1cdc:	c7 04 24 20 67 03 00 	movl   $0x36720,(%esp)
    1ce3:	e8 48 45 00 00       	call   6230 <usb_dp_get_nested_descriptor>
    1ce8:	89 c6                	mov    %eax,%esi
    1cea:	85 c0                	test   %eax,%eax
    1cec:	75 27                	jne    1d15 <dump_tree_internal.constprop.1+0x5d5>
    1cee:	66 90                	xchg   %ax,%ax
    1cf0:	8b 45 e0             	mov    -0x20(%ebp),%eax
    1cf3:	89 74 24 0c          	mov    %esi,0xc(%esp)
    1cf7:	89 44 24 08          	mov    %eax,0x8(%esp)
    1cfb:	89 7c 24 04          	mov    %edi,0x4(%esp)
    1cff:	c7 04 24 20 67 03 00 	movl   $0x36720,(%esp)
    1d06:	e8 45 47 00 00       	call   6450 <usb_dp_get_sibling_descriptor>
    1d0b:	89 c6                	mov    %eax,%esi
    1d0d:	85 c0                	test   %eax,%eax
    1d0f:	0f 84 13 ff ff ff    	je     1c28 <dump_tree_internal.constprop.1+0x4e8>
    1d15:	8a 4e 01             	mov    0x1(%esi),%cl
    1d18:	31 d2                	xor    %edx,%edx
    1d1a:	49                   	dec    %ecx
    1d1b:	8a 56 01             	mov    0x1(%esi),%dl
    1d1e:	b8 cc 1a 03 00       	mov    $0x31acc,%eax
    1d23:	80 f9 28             	cmp    $0x28,%cl
    1d26:	77 0d                	ja     1d35 <dump_tree_internal.constprop.1+0x5f5>
    1d28:	81 e1 ff 00 00 00    	and    $0xff,%ecx
    1d2e:	8b 04 8d a0 1b 03 00 	mov    0x31ba0(,%ecx,4),%eax
    1d35:	83 7d dc 04          	cmpl   $0x4,-0x24(%ebp)
    1d39:	0f 87 71 01 00 00    	ja     1eb0 <dump_tree_internal.constprop.1+0x770>
    1d3f:	8b 4d dc             	mov    -0x24(%ebp),%ecx
    1d42:	89 54 24 0c          	mov    %edx,0xc(%esp)
    1d46:	89 44 24 08          	mov    %eax,0x8(%esp)
    1d4a:	c7 04 24 df 1a 03 00 	movl   $0x31adf,(%esp)
    1d51:	8b 1c 8d 80 1b 03 00 	mov    0x31b80(,%ecx,4),%ebx
    1d58:	89 5c 24 04          	mov    %ebx,0x4(%esp)
    1d5c:	e8 4f d5 01 00       	call   1f2b0 <printf>
    1d61:	31 c0                	xor    %eax,%eax
    1d63:	8a 06                	mov    (%esi),%al
    1d65:	89 44 24 10          	mov    %eax,0x10(%esp)
    1d69:	a1 54 6e 03 00       	mov    0x36e54,%eax
    1d6e:	89 5c 24 04          	mov    %ebx,0x4(%esp)
    1d72:	89 04 24             	mov    %eax,(%esp)
    1d75:	89 74 24 0c          	mov    %esi,0xc(%esp)
    1d79:	c7 44 24 08 47 39 03 	movl   $0x33947,0x8(%esp)
    1d80:	00 
    1d81:	e8 1a 9a 00 00       	call   b7a0 <usb_dump_standard_descriptor>
    1d86:	89 74 24 08          	mov    %esi,0x8(%esp)
    1d8a:	89 7c 24 04          	mov    %edi,0x4(%esp)
    1d8e:	c7 04 24 20 67 03 00 	movl   $0x36720,(%esp)
    1d95:	e8 96 44 00 00       	call   6230 <usb_dp_get_nested_descriptor>
    1d9a:	89 c3                	mov    %eax,%ebx
    1d9c:	8b 45 d8             	mov    -0x28(%ebp),%eax
    1d9f:	83 c0 09             	add    $0x9,%eax
    1da2:	89 45 e4             	mov    %eax,-0x1c(%ebp)
    1da5:	8d 76 00             	lea    0x0(%esi),%esi
    1da8:	89 da                	mov    %ebx,%edx
    1daa:	8b 4d e4             	mov    -0x1c(%ebp),%ecx
    1dad:	89 f8                	mov    %edi,%eax
    1daf:	e8 8c f9 ff ff       	call   1740 <dump_tree_internal.constprop.1>
    1db4:	89 5c 24 0c          	mov    %ebx,0xc(%esp)
    1db8:	89 74 24 08          	mov    %esi,0x8(%esp)
    1dbc:	89 7c 24 04          	mov    %edi,0x4(%esp)
    1dc0:	c7 04 24 20 67 03 00 	movl   $0x36720,(%esp)
    1dc7:	e8 84 46 00 00       	call   6450 <usb_dp_get_sibling_descriptor>
    1dcc:	89 c3                	mov    %eax,%ebx
    1dce:	85 c0                	test   %eax,%eax
    1dd0:	75 d6                	jne    1da8 <dump_tree_internal.constprop.1+0x668>
    1dd2:	e9 19 ff ff ff       	jmp    1cf0 <dump_tree_internal.constprop.1+0x5b0>
    1dd7:	8b 45 bc             	mov    -0x44(%ebp),%eax
    1dda:	89 7c 24 04          	mov    %edi,0x4(%esp)
    1dde:	89 44 24 0c          	mov    %eax,0xc(%esp)
    1de2:	8b 45 c0             	mov    -0x40(%ebp),%eax
    1de5:	89 44 24 08          	mov    %eax,0x8(%esp)
    1de9:	c7 04 24 20 67 03 00 	movl   $0x36720,(%esp)
    1df0:	e8 5b 46 00 00       	call   6450 <usb_dp_get_sibling_descriptor>
    1df5:	89 45 bc             	mov    %eax,-0x44(%ebp)
    1df8:	85 c0                	test   %eax,%eax
    1dfa:	0f 85 bd fc ff ff    	jne    1abd <dump_tree_internal.constprop.1+0x37d>
    1e00:	8b 45 c0             	mov    -0x40(%ebp),%eax
    1e03:	89 7c 24 04          	mov    %edi,0x4(%esp)
    1e07:	89 44 24 0c          	mov    %eax,0xc(%esp)
    1e0b:	8b 45 c4             	mov    -0x3c(%ebp),%eax
    1e0e:	89 44 24 08          	mov    %eax,0x8(%esp)
    1e12:	c7 04 24 20 67 03 00 	movl   $0x36720,(%esp)
    1e19:	e8 32 46 00 00       	call   6450 <usb_dp_get_sibling_descriptor>
    1e1e:	89 45 c0             	mov    %eax,-0x40(%ebp)
    1e21:	85 c0                	test   %eax,%eax
    1e23:	0f 85 f2 fb ff ff    	jne    1a1b <dump_tree_internal.constprop.1+0x2db>
    1e29:	8b 45 c4             	mov    -0x3c(%ebp),%eax
    1e2c:	89 7c 24 04          	mov    %edi,0x4(%esp)
    1e30:	89 44 24 0c          	mov    %eax,0xc(%esp)
    1e34:	8b 45 c8             	mov    -0x38(%ebp),%eax
    1e37:	89 44 24 08          	mov    %eax,0x8(%esp)
    1e3b:	c7 04 24 20 67 03 00 	movl   $0x36720,(%esp)
    1e42:	e8 09 46 00 00       	call   6450 <usb_dp_get_sibling_descriptor>
    1e47:	89 45 c4             	mov    %eax,-0x3c(%ebp)
    1e4a:	85 c0                	test   %eax,%eax
    1e4c:	0f 85 27 fb ff ff    	jne    1979 <dump_tree_internal.constprop.1+0x239>
    1e52:	8b 45 c8             	mov    -0x38(%ebp),%eax
    1e55:	89 7c 24 04          	mov    %edi,0x4(%esp)
    1e59:	89 44 24 0c          	mov    %eax,0xc(%esp)
    1e5d:	8b 45 cc             	mov    -0x34(%ebp),%eax
    1e60:	89 44 24 08          	mov    %eax,0x8(%esp)
    1e64:	c7 04 24 20 67 03 00 	movl   $0x36720,(%esp)
    1e6b:	e8 e0 45 00 00       	call   6450 <usb_dp_get_sibling_descriptor>
    1e70:	89 45 c8             	mov    %eax,-0x38(%ebp)
    1e73:	85 c0                	test   %eax,%eax
    1e75:	0f 85 5c fa ff ff    	jne    18d7 <dump_tree_internal.constprop.1+0x197>
    1e7b:	8b 45 cc             	mov    -0x34(%ebp),%eax
    1e7e:	8b 55 b8             	mov    -0x48(%ebp),%edx
    1e81:	89 44 24 0c          	mov    %eax,0xc(%esp)
    1e85:	89 54 24 08          	mov    %edx,0x8(%esp)
    1e89:	89 7c 24 04          	mov    %edi,0x4(%esp)
    1e8d:	c7 04 24 20 67 03 00 	movl   $0x36720,(%esp)
    1e94:	e8 b7 45 00 00       	call   6450 <usb_dp_get_sibling_descriptor>
    1e99:	89 45 cc             	mov    %eax,-0x34(%ebp)
    1e9c:	85 c0                	test   %eax,%eax
    1e9e:	0f 85 95 f9 ff ff    	jne    1839 <dump_tree_internal.constprop.1+0xf9>
    1ea4:	83 c4 7c             	add    $0x7c,%esp
    1ea7:	5b                   	pop    %ebx
    1ea8:	5e                   	pop    %esi
    1ea9:	5f                   	pop    %edi
    1eaa:	5d                   	pop    %ebp
    1eab:	c3                   	ret    
    1eac:	8d 74 26 00          	lea    0x0(%esi,%eiz,1),%esi
    1eb0:	89 54 24 0c          	mov    %edx,0xc(%esp)
    1eb4:	89 44 24 08          	mov    %eax,0x8(%esp)
    1eb8:	c7 44 24 04 d4 1a 03 	movl   $0x31ad4,0x4(%esp)
    1ebf:	00 
    1ec0:	c7 04 24 df 1a 03 00 	movl   $0x31adf,(%esp)
    1ec7:	e8 e4 d3 01 00       	call   1f2b0 <printf>
    1ecc:	31 c0                	xor    %eax,%eax
    1ece:	8a 06                	mov    (%esi),%al
    1ed0:	bb d4 1a 03 00       	mov    $0x31ad4,%ebx
    1ed5:	e9 8b fe ff ff       	jmp    1d65 <dump_tree_internal.constprop.1+0x625>
    1eda:	89 54 24 0c          	mov    %edx,0xc(%esp)
    1ede:	89 44 24 08          	mov    %eax,0x8(%esp)
    1ee2:	c7 44 24 04 d4 1a 03 	movl   $0x31ad4,0x4(%esp)
    1ee9:	00 
    1eea:	c7 04 24 df 1a 03 00 	movl   $0x31adf,(%esp)
    1ef1:	e8 ba d3 01 00       	call   1f2b0 <printf>
    1ef6:	8b 4d e0             	mov    -0x20(%ebp),%ecx
    1ef9:	31 c0                	xor    %eax,%eax
    1efb:	bb d4 1a 03 00       	mov    $0x31ad4,%ebx
    1f00:	8a 01                	mov    (%ecx),%al
    1f02:	e9 a6 fd ff ff       	jmp    1cad <dump_tree_internal.constprop.1+0x56d>
    1f07:	89 54 24 0c          	mov    %edx,0xc(%esp)
    1f0b:	89 44 24 08          	mov    %eax,0x8(%esp)
    1f0f:	c7 44 24 04 d4 1a 03 	movl   $0x31ad4,0x4(%esp)
    1f16:	00 
    1f17:	c7 04 24 df 1a 03 00 	movl   $0x31adf,(%esp)
    1f1e:	e8 8d d3 01 00       	call   1f2b0 <printf>
    1f23:	8b 55 d4             	mov    -0x2c(%ebp),%edx
    1f26:	31 c0                	xor    %eax,%eax
    1f28:	bb d4 1a 03 00       	mov    $0x31ad4,%ebx
    1f2d:	8a 02                	mov    (%edx),%al
    1f2f:	e9 ac fc ff ff       	jmp    1be0 <dump_tree_internal.constprop.1+0x4a0>
    1f34:	89 54 24 0c          	mov    %edx,0xc(%esp)
    1f38:	89 44 24 08          	mov    %eax,0x8(%esp)
    1f3c:	c7 44 24 04 d4 1a 03 	movl   $0x31ad4,0x4(%esp)
    1f43:	00 
    1f44:	c7 04 24 df 1a 03 00 	movl   $0x31adf,(%esp)
    1f4b:	e8 60 d3 01 00       	call   1f2b0 <printf>
    1f50:	8b 4d bc             	mov    -0x44(%ebp),%ecx
    1f53:	31 c0                	xor    %eax,%eax
    1f55:	bb d4 1a 03 00       	mov    $0x31ad4,%ebx
    1f5a:	8a 01                	mov    (%ecx),%al
    1f5c:	e9 b8 fb ff ff       	jmp    1b19 <dump_tree_internal.constprop.1+0x3d9>
    1f61:	89 54 24 0c          	mov    %edx,0xc(%esp)
    1f65:	89 44 24 08          	mov    %eax,0x8(%esp)
    1f69:	c7 44 24 04 d4 1a 03 	movl   $0x31ad4,0x4(%esp)
    1f70:	00 
    1f71:	c7 04 24 df 1a 03 00 	movl   $0x31adf,(%esp)
    1f78:	e8 33 d3 01 00       	call   1f2b0 <printf>
    1f7d:	8b 55 c0             	mov    -0x40(%ebp),%edx
    1f80:	31 c0                	xor    %eax,%eax
    1f82:	bb d4 1a 03 00       	mov    $0x31ad4,%ebx
    1f87:	8a 02                	mov    (%edx),%al
    1f89:	e9 e9 fa ff ff       	jmp    1a77 <dump_tree_internal.constprop.1+0x337>
    1f8e:	89 54 24 0c          	mov    %edx,0xc(%esp)
    1f92:	89 44 24 08          	mov    %eax,0x8(%esp)
    1f96:	c7 44 24 04 d4 1a 03 	movl   $0x31ad4,0x4(%esp)
    1f9d:	00 
    1f9e:	c7 04 24 df 1a 03 00 	movl   $0x31adf,(%esp)
    1fa5:	e8 06 d3 01 00       	call   1f2b0 <printf>
    1faa:	8b 4d c4             	mov    -0x3c(%ebp),%ecx
    1fad:	31 c0                	xor    %eax,%eax
    1faf:	bb d4 1a 03 00       	mov    $0x31ad4,%ebx
    1fb4:	8a 01                	mov    (%ecx),%al
    1fb6:	e9 1a fa ff ff       	jmp    19d5 <dump_tree_internal.constprop.1+0x295>
    1fbb:	89 54 24 0c          	mov    %edx,0xc(%esp)
    1fbf:	89 44 24 08          	mov    %eax,0x8(%esp)
    1fc3:	c7 44 24 04 d4 1a 03 	movl   $0x31ad4,0x4(%esp)
    1fca:	00 
    1fcb:	c7 04 24 df 1a 03 00 	movl   $0x31adf,(%esp)
    1fd2:	e8 d9 d2 01 00       	call   1f2b0 <printf>
    1fd7:	8b 55 c8             	mov    -0x38(%ebp),%edx
    1fda:	31 c0                	xor    %eax,%eax
    1fdc:	bb d4 1a 03 00       	mov    $0x31ad4,%ebx
    1fe1:	8a 02                	mov    (%edx),%al
    1fe3:	e9 4b f9 ff ff       	jmp    1933 <dump_tree_internal.constprop.1+0x1f3>
    1fe8:	89 54 24 0c          	mov    %edx,0xc(%esp)
    1fec:	89 44 24 08          	mov    %eax,0x8(%esp)
    1ff0:	c7 44 24 04 d4 1a 03 	movl   $0x31ad4,0x4(%esp)
    1ff7:	00 
    1ff8:	c7 04 24 df 1a 03 00 	movl   $0x31adf,(%esp)
    1fff:	e8 ac d2 01 00       	call   1f2b0 <printf>
    2004:	8b 4d cc             	mov    -0x34(%ebp),%ecx
    2007:	31 c0                	xor    %eax,%eax
    2009:	bb d4 1a 03 00       	mov    $0x31ad4,%ebx
    200e:	8a 01                	mov    (%ecx),%al
    2010:	e9 7c f8 ff ff       	jmp    1891 <dump_tree_internal.constprop.1+0x151>
    2015:	89 54 24 0c          	mov    %edx,0xc(%esp)
    2019:	89 44 24 08          	mov    %eax,0x8(%esp)
    201d:	c7 44 24 04 d4 1a 03 	movl   $0x31ad4,0x4(%esp)
    2024:	00 
    2025:	c7 04 24 df 1a 03 00 	movl   $0x31adf,(%esp)
    202c:	e8 7f d2 01 00       	call   1f2b0 <printf>
    2031:	8b 55 b8             	mov    -0x48(%ebp),%edx
    2034:	31 c0                	xor    %eax,%eax
    2036:	bb d4 1a 03 00       	mov    $0x31ad4,%ebx
    203b:	8a 02                	mov    (%edx),%al
    203d:	e9 6b f7 ff ff       	jmp    17ad <dump_tree_internal.constprop.1+0x6d>
    2042:	8d b4 26 00 00 00 00 	lea    0x0(%esi,%eiz,1),%esi
    2049:	8d bc 27 00 00 00 00 	lea    0x0(%edi,%eiz,1),%edi

00002050 <get_indent>:
    2050:	55                   	push   %ebp
    2051:	b8 d4 1a 03 00       	mov    $0x31ad4,%eax
    2056:	89 e5                	mov    %esp,%ebp
    2058:	8b 55 08             	mov    0x8(%ebp),%edx
    205b:	83 fa 04             	cmp    $0x4,%edx
    205e:	77 07                	ja     2067 <get_indent+0x17>
    2060:	8b 04 95 80 1b 03 00 	mov    0x31b80(,%edx,4),%eax
    2067:	5d                   	pop    %ebp
    2068:	c3                   	ret    
    2069:	8d b4 26 00 00 00 00 	lea    0x0(%esi,%eiz,1),%esi

00002070 <dump_buffer>:
    2070:	55                   	push   %ebp
    2071:	89 e5                	mov    %esp,%ebp
    2073:	57                   	push   %edi
    2074:	56                   	push   %esi
    2075:	53                   	push   %ebx
    2076:	83 ec 2c             	sub    $0x2c,%esp
    2079:	8b 45 08             	mov    0x8(%ebp),%eax
    207c:	8b 5d 0c             	mov    0xc(%ebp),%ebx
    207f:	8b 7d 10             	mov    0x10(%ebp),%edi
    2082:	8b 75 14             	mov    0x14(%ebp),%esi
    2085:	85 c0                	test   %eax,%eax
    2087:	74 10                	je     2099 <dump_buffer+0x29>
    2089:	89 44 24 04          	mov    %eax,0x4(%esp)
    208d:	c7 04 24 bd 21 03 00 	movl   $0x321bd,(%esp)
    2094:	e8 17 d2 01 00       	call   1f2b0 <printf>
    2099:	85 f6                	test   %esi,%esi
    209b:	75 0b                	jne    20a8 <dump_buffer+0x38>
    209d:	83 c4 2c             	add    $0x2c,%esp
    20a0:	5b                   	pop    %ebx
    20a1:	5e                   	pop    %esi
    20a2:	5f                   	pop    %edi
    20a3:	5d                   	pop    %ebp
    20a4:	c3                   	ret    
    20a5:	8d 76 00             	lea    0x0(%esi),%esi
    20a8:	83 fb 04             	cmp    $0x4,%ebx
    20ab:	0f 86 87 00 00 00    	jbe    2138 <dump_buffer+0xc8>
    20b1:	c7 44 24 04 d4 1a 03 	movl   $0x31ad4,0x4(%esp)
    20b8:	00 
    20b9:	c7 04 24 8c 1d 03 00 	movl   $0x31d8c,(%esp)
    20c0:	e8 eb d1 01 00       	call   1f2b0 <printf>
    20c5:	bb 01 00 00 00       	mov    $0x1,%ebx
    20ca:	89 75 e4             	mov    %esi,-0x1c(%ebp)
    20cd:	8d 76 00             	lea    0x0(%esi),%esi
    20d0:	31 c0                	xor    %eax,%eax
    20d2:	be 01 00 00 00       	mov    $0x1,%esi
    20d7:	8a 44 1f ff          	mov    -0x1(%edi,%ebx,1),%al
    20db:	c7 04 24 ef 1a 03 00 	movl   $0x31aef,(%esp)
    20e2:	89 44 24 04          	mov    %eax,0x4(%esp)
    20e6:	e8 c5 d1 01 00       	call   1f2b0 <printf>
    20eb:	83 fb 01             	cmp    $0x1,%ebx
    20ee:	74 23                	je     2113 <dump_buffer+0xa3>
    20f0:	b8 ab aa aa aa       	mov    $0xaaaaaaab,%eax
    20f5:	f7 e3                	mul    %ebx
    20f7:	89 55 dc             	mov    %edx,-0x24(%ebp)
    20fa:	89 45 d8             	mov    %eax,-0x28(%ebp)
    20fd:	8b 45 dc             	mov    -0x24(%ebp),%eax
    2100:	c1 e8 03             	shr    $0x3,%eax
    2103:	8d 04 40             	lea    (%eax,%eax,2),%eax
    2106:	c1 e0 02             	shl    $0x2,%eax
    2109:	39 c3                	cmp    %eax,%ebx
    210b:	0f 84 f7 00 00 00    	je     2208 <dump_buffer+0x198>
    2111:	89 de                	mov    %ebx,%esi
    2113:	39 75 e4             	cmp    %esi,-0x1c(%ebp)
    2116:	0f 84 ac 00 00 00    	je     21c8 <dump_buffer+0x158>
    211c:	c7 04 24 dc 1a 03 00 	movl   $0x31adc,(%esp)
    2123:	e8 88 d1 01 00       	call   1f2b0 <printf>
    2128:	39 75 e4             	cmp    %esi,-0x1c(%ebp)
    212b:	0f 86 6c ff ff ff    	jbe    209d <dump_buffer+0x2d>
    2131:	43                   	inc    %ebx
    2132:	eb 9c                	jmp    20d0 <dump_buffer+0x60>
    2134:	8d 74 26 00          	lea    0x0(%esi,%eiz,1),%esi
    2138:	8b 1c 9d 80 1b 03 00 	mov    0x31b80(,%ebx,4),%ebx
    213f:	c7 04 24 8c 1d 03 00 	movl   $0x31d8c,(%esp)
    2146:	89 5c 24 04          	mov    %ebx,0x4(%esp)
    214a:	89 5d e0             	mov    %ebx,-0x20(%ebp)
    214d:	e8 5e d1 01 00       	call   1f2b0 <printf>
    2152:	bb 01 00 00 00       	mov    $0x1,%ebx
    2157:	89 75 e4             	mov    %esi,-0x1c(%ebp)
    215a:	8d b6 00 00 00 00    	lea    0x0(%esi),%esi
    2160:	31 c0                	xor    %eax,%eax
    2162:	8a 44 1f ff          	mov    -0x1(%edi,%ebx,1),%al
    2166:	c7 04 24 ef 1a 03 00 	movl   $0x31aef,(%esp)
    216d:	89 44 24 04          	mov    %eax,0x4(%esp)
    2171:	e8 3a d1 01 00       	call   1f2b0 <printf>
    2176:	83 fb 01             	cmp    $0x1,%ebx
    2179:	74 65                	je     21e0 <dump_buffer+0x170>
    217b:	b8 ab aa aa aa       	mov    $0xaaaaaaab,%eax
    2180:	f7 e3                	mul    %ebx
    2182:	89 55 dc             	mov    %edx,-0x24(%ebp)
    2185:	89 45 d8             	mov    %eax,-0x28(%ebp)
    2188:	8b 45 dc             	mov    -0x24(%ebp),%eax
    218b:	c1 e8 03             	shr    $0x3,%eax
    218e:	8d 04 40             	lea    (%eax,%eax,2),%eax
    2191:	c1 e0 02             	shl    $0x2,%eax
    2194:	39 c3                	cmp    %eax,%ebx
    2196:	0f 85 9c 00 00 00    	jne    2238 <dump_buffer+0x1c8>
    219c:	c7 04 24 47 39 03 00 	movl   $0x33947,(%esp)
    21a3:	e8 08 d1 01 00       	call   1f2b0 <printf>
    21a8:	39 5d e4             	cmp    %ebx,-0x1c(%ebp)
    21ab:	0f 86 ec fe ff ff    	jbe    209d <dump_buffer+0x2d>
    21b1:	8b 55 e0             	mov    -0x20(%ebp),%edx
    21b4:	c7 04 24 8c 1d 03 00 	movl   $0x31d8c,(%esp)
    21bb:	89 54 24 04          	mov    %edx,0x4(%esp)
    21bf:	43                   	inc    %ebx
    21c0:	e8 eb d0 01 00       	call   1f2b0 <printf>
    21c5:	eb 99                	jmp    2160 <dump_buffer+0xf0>
    21c7:	90                   	nop
    21c8:	c7 45 08 47 39 03 00 	movl   $0x33947,0x8(%ebp)
    21cf:	83 c4 2c             	add    $0x2c,%esp
    21d2:	5b                   	pop    %ebx
    21d3:	5e                   	pop    %esi
    21d4:	5f                   	pop    %edi
    21d5:	5d                   	pop    %ebp
    21d6:	e9 d5 d0 01 00       	jmp    1f2b0 <printf>
    21db:	90                   	nop
    21dc:	8d 74 26 00          	lea    0x0(%esi,%eiz,1),%esi
    21e0:	be 01 00 00 00       	mov    $0x1,%esi
    21e5:	39 75 e4             	cmp    %esi,-0x1c(%ebp)
    21e8:	74 de                	je     21c8 <dump_buffer+0x158>
    21ea:	c7 04 24 dc 1a 03 00 	movl   $0x31adc,(%esp)
    21f1:	e8 ba d0 01 00       	call   1f2b0 <printf>
    21f6:	39 75 e4             	cmp    %esi,-0x1c(%ebp)
    21f9:	0f 86 9e fe ff ff    	jbe    209d <dump_buffer+0x2d>
    21ff:	43                   	inc    %ebx
    2200:	e9 5b ff ff ff       	jmp    2160 <dump_buffer+0xf0>
    2205:	8d 76 00             	lea    0x0(%esi),%esi
    2208:	c7 04 24 47 39 03 00 	movl   $0x33947,(%esp)
    220f:	e8 9c d0 01 00       	call   1f2b0 <printf>
    2214:	39 5d e4             	cmp    %ebx,-0x1c(%ebp)
    2217:	0f 86 80 fe ff ff    	jbe    209d <dump_buffer+0x2d>
    221d:	c7 44 24 04 d4 1a 03 	movl   $0x31ad4,0x4(%esp)
    2224:	00 
    2225:	c7 04 24 8c 1d 03 00 	movl   $0x31d8c,(%esp)
    222c:	e8 7f d0 01 00       	call   1f2b0 <printf>
    2231:	43                   	inc    %ebx
    2232:	e9 99 fe ff ff       	jmp    20d0 <dump_buffer+0x60>
    2237:	90                   	nop
    2238:	89 de                	mov    %ebx,%esi
    223a:	eb a9                	jmp    21e5 <dump_buffer+0x175>
    223c:	8d 74 26 00          	lea    0x0(%esi,%eiz,1),%esi

00002240 <dump_usb_descriptor>:
    2240:	55                   	push   %ebp
    2241:	89 e5                	mov    %esp,%ebp
    2243:	83 ec 28             	sub    $0x28,%esp
    2246:	c7 04 24 f6 1a 03 00 	movl   $0x31af6,(%esp)
    224d:	e8 5e d0 01 00       	call   1f2b0 <printf>
    2252:	8b 45 0c             	mov    0xc(%ebp),%eax
    2255:	89 44 24 10          	mov    %eax,0x10(%esp)
    2259:	8b 45 08             	mov    0x8(%ebp),%eax
    225c:	89 44 24 0c          	mov    %eax,0xc(%esp)
    2260:	a1 54 6e 03 00       	mov    0x36e54,%eax
    2265:	c7 44 24 08 47 39 03 	movl   $0x33947,0x8(%esp)
    226c:	00 
    226d:	c7 44 24 04 dc 1a 03 	movl   $0x31adc,0x4(%esp)
    2274:	00 
    2275:	89 04 24             	mov    %eax,(%esp)
    2278:	e8 23 95 00 00       	call   b7a0 <usb_dump_standard_descriptor>
    227d:	c9                   	leave  
    227e:	c3                   	ret    
    227f:	90                   	nop

00002280 <dump_match_ids>:
    2280:	55                   	push   %ebp
    2281:	89 e5                	mov    %esp,%ebp
    2283:	57                   	push   %edi
    2284:	56                   	push   %esi
    2285:	53                   	push   %ebx
    2286:	83 ec 1c             	sub    $0x1c,%esp
    2289:	8b 75 08             	mov    0x8(%ebp),%esi
    228c:	8b 7d 0c             	mov    0xc(%ebp),%edi
    228f:	8b 5e 04             	mov    0x4(%esi),%ebx
    2292:	39 f3                	cmp    %esi,%ebx
    2294:	74 27                	je     22bd <dump_match_ids+0x3d>
    2296:	66 90                	xchg   %ax,%ax
    2298:	8b 43 08             	mov    0x8(%ebx),%eax
    229b:	89 44 24 0c          	mov    %eax,0xc(%esp)
    229f:	8b 43 0c             	mov    0xc(%ebx),%eax
    22a2:	89 7c 24 04          	mov    %edi,0x4(%esp)
    22a6:	89 44 24 08          	mov    %eax,0x8(%esp)
    22aa:	c7 04 24 0a 1b 03 00 	movl   $0x31b0a,(%esp)
    22b1:	e8 fa cf 01 00       	call   1f2b0 <printf>
    22b6:	8b 5b 04             	mov    0x4(%ebx),%ebx
    22b9:	39 f3                	cmp    %esi,%ebx
    22bb:	75 db                	jne    2298 <dump_match_ids+0x18>
    22bd:	83 c4 1c             	add    $0x1c,%esp
    22c0:	5b                   	pop    %ebx
    22c1:	5e                   	pop    %esi
    22c2:	5f                   	pop    %edi
    22c3:	5d                   	pop    %ebp
    22c4:	c3                   	ret    
    22c5:	8d 74 26 00          	lea    0x0(%esi,%eiz,1),%esi
    22c9:	8d bc 27 00 00 00 00 	lea    0x0(%edi,%eiz,1),%edi

000022d0 <dump_descriptor_tree>:
    22d0:	55                   	push   %ebp
    22d1:	89 e5                	mov    %esp,%ebp
    22d3:	53                   	push   %ebx
    22d4:	83 ec 24             	sub    $0x24,%esp
    22d7:	8b 5d 08             	mov    0x8(%ebp),%ebx
    22da:	8b 45 0c             	mov    0xc(%ebp),%eax
    22dd:	c7 04 24 14 1b 03 00 	movl   $0x31b14,(%esp)
    22e4:	89 5d ec             	mov    %ebx,-0x14(%ebp)
    22e7:	89 45 f0             	mov    %eax,-0x10(%ebp)
    22ea:	c7 45 f4 00 00 00 00 	movl   $0x0,-0xc(%ebp)
    22f1:	e8 ba cf 01 00       	call   1f2b0 <printf>
    22f6:	89 da                	mov    %ebx,%edx
    22f8:	8d 45 ec             	lea    -0x14(%ebp),%eax
    22fb:	31 c9                	xor    %ecx,%ecx
    22fd:	e8 3e f4 ff ff       	call   1740 <dump_tree_internal.constprop.1>
    2302:	83 c4 24             	add    $0x24,%esp
    2305:	5b                   	pop    %ebx
    2306:	5d                   	pop    %ebp
    2307:	c3                   	ret    
    2308:	66 90                	xchg   %ax,%ax
    230a:	66 90                	xchg   %ax,%ax
    230c:	66 90                	xchg   %ax,%ax
    230e:	66 90                	xchg   %ax,%ax

00002310 <descriptor_walk_callback>:
    2310:	55                   	push   %ebp
    2311:	89 e5                	mov    %esp,%ebp
    2313:	57                   	push   %edi
    2314:	56                   	push   %esi
    2315:	53                   	push   %ebx
    2316:	81 ec 8c 00 00 00    	sub    $0x8c,%esp
    231c:	8b 45 08             	mov    0x8(%ebp),%eax
    231f:	85 c0                	test   %eax,%eax
    2321:	74 15                	je     2338 <descriptor_walk_callback+0x28>
    2323:	80 38 01             	cmpb   $0x1,(%eax)
    2326:	76 10                	jbe    2338 <descriptor_walk_callback+0x28>
    2328:	31 d2                	xor    %edx,%edx
    232a:	8a 50 01             	mov    0x1(%eax),%dl
    232d:	83 fa 04             	cmp    $0x4,%edx
    2330:	75 16                	jne    2348 <descriptor_walk_callback+0x38>
    2332:	8b 55 10             	mov    0x10(%ebp),%edx
    2335:	89 42 08             	mov    %eax,0x8(%edx)
    2338:	81 c4 8c 00 00 00    	add    $0x8c,%esp
    233e:	5b                   	pop    %ebx
    233f:	5e                   	pop    %esi
    2340:	5f                   	pop    %edi
    2341:	5d                   	pop    %ebp
    2342:	c3                   	ret    
    2343:	90                   	nop
    2344:	8d 74 26 00          	lea    0x0(%esi,%eiz,1),%esi
    2348:	83 fa 21             	cmp    $0x21,%edx
    234b:	75 eb                	jne    2338 <descriptor_walk_callback+0x28>
    234d:	8b 4d 10             	mov    0x10(%ebp),%ecx
    2350:	8b 51 08             	mov    0x8(%ecx),%edx
    2353:	85 d2                	test   %edx,%edx
    2355:	74 e1                	je     2338 <descriptor_walk_callback+0x28>
    2357:	80 78 06 22          	cmpb   $0x22,0x6(%eax)
    235b:	75 db                	jne    2338 <descriptor_walk_callback+0x28>
    235d:	66 8b 58 07          	mov    0x7(%eax),%bx
    2361:	81 e3 ff ff 00 00    	and    $0xffff,%ebx
    2367:	85 db                	test   %ebx,%ebx
    2369:	74 cd                	je     2338 <descriptor_walk_callback+0x28>
    236b:	8b 01                	mov    (%ecx),%eax
    236d:	8b 79 04             	mov    0x4(%ecx),%edi
    2370:	0f b6 72 02          	movzbl 0x2(%edx),%esi
    2374:	83 c0 24             	add    $0x24,%eax
    2377:	89 1c 24             	mov    %ebx,(%esp)
    237a:	89 45 ac             	mov    %eax,-0x54(%ebp)
    237d:	e8 7e 22 02 00       	call   24600 <malloc>
    2382:	81 e6 ff 00 00 00    	and    $0xff,%esi
    2388:	89 45 a8             	mov    %eax,-0x58(%ebp)
    238b:	85 c0                	test   %eax,%eax
    238d:	0f 84 74 01 00 00    	je     2507 <descriptor_walk_callback+0x1f7>
    2393:	8d 45 c4             	lea    -0x3c(%ebp),%eax
    2396:	8b 55 ac             	mov    -0x54(%ebp),%edx
    2399:	89 44 24 20          	mov    %eax,0x20(%esp)
    239d:	8b 45 a8             	mov    -0x58(%ebp),%eax
    23a0:	89 5c 24 1c          	mov    %ebx,0x1c(%esp)
    23a4:	89 44 24 18          	mov    %eax,0x18(%esp)
    23a8:	89 74 24 14          	mov    %esi,0x14(%esp)
    23ac:	c7 44 24 10 00 00 00 	movl   $0x0,0x10(%esp)
    23b3:	00 
    23b4:	c7 44 24 0c 22 00 00 	movl   $0x22,0xc(%esp)
    23bb:	00 
    23bc:	c7 44 24 08 01 00 00 	movl   $0x1,0x8(%esp)
    23c3:	00 
    23c4:	c7 44 24 04 00 00 00 	movl   $0x0,0x4(%esp)
    23cb:	00 
    23cc:	89 14 24             	mov    %edx,(%esp)
    23cf:	e8 6c 6b 00 00       	call   8f40 <usb_request_get_descriptor>
    23d4:	85 c0                	test   %eax,%eax
    23d6:	74 38                	je     2410 <descriptor_walk_callback+0x100>
    23d8:	89 04 24             	mov    %eax,(%esp)
    23db:	e8 00 84 01 00       	call   1a7e0 <str_error>
    23e0:	c7 44 24 08 78 1c 03 	movl   $0x31c78,0x8(%esp)
    23e7:	00 
    23e8:	89 44 24 0c          	mov    %eax,0xc(%esp)
    23ec:	c7 44 24 04 01 00 00 	movl   $0x1,0x4(%esp)
    23f3:	00 
    23f4:	c7 04 24 ff ff ff ff 	movl   $0xffffffff,(%esp)
    23fb:	e8 60 d1 01 00       	call   1f560 <log_msg>
    2400:	8b 45 a8             	mov    -0x58(%ebp),%eax
    2403:	89 04 24             	mov    %eax,(%esp)
    2406:	e8 05 23 02 00       	call   24710 <free>
    240b:	e9 28 ff ff ff       	jmp    2338 <descriptor_walk_callback+0x28>
    2410:	8b 45 a8             	mov    -0x58(%ebp),%eax
    2413:	8d 55 c8             	lea    -0x38(%ebp),%edx
    2416:	89 5c 24 08          	mov    %ebx,0x8(%esp)
    241a:	89 44 24 04          	mov    %eax,0x4(%esp)
    241e:	89 14 24             	mov    %edx,(%esp)
    2421:	e8 6a 23 00 00       	call   4790 <usb_hid_parse_report_descriptor>
    2426:	85 c0                	test   %eax,%eax
    2428:	0f 85 04 02 00 00    	jne    2632 <descriptor_walk_callback+0x322>
    242e:	85 ff                	test   %edi,%edi
    2430:	0f 85 b2 00 00 00    	jne    24e8 <descriptor_walk_callback+0x1d8>
    2436:	c7 04 24 00 00 00 00 	movl   $0x0,(%esp)
    243d:	31 ff                	xor    %edi,%edi
    243f:	e8 0c fc ff ff       	call   2050 <get_indent>
    2444:	89 74 24 08          	mov    %esi,0x8(%esp)
    2448:	89 44 24 04          	mov    %eax,0x4(%esp)
    244c:	c7 04 24 d0 1c 03 00 	movl   $0x31cd0,(%esp)
    2453:	e8 58 ce 01 00       	call   1f2b0 <printf>
    2458:	89 5d b0             	mov    %ebx,-0x50(%ebp)
    245b:	8b 75 a8             	mov    -0x58(%ebp),%esi
    245e:	eb 24                	jmp    2484 <descriptor_walk_callback+0x174>
    2460:	31 c0                	xor    %eax,%eax
    2462:	8a 04 3e             	mov    (%esi,%edi,1),%al
    2465:	c7 04 24 f1 1a 03 00 	movl   $0x31af1,(%esp)
    246c:	89 44 24 04          	mov    %eax,0x4(%esp)
    2470:	e8 3b ce 01 00       	call   1f2b0 <printf>
    2475:	83 fb 13             	cmp    $0x13,%ebx
    2478:	75 5a                	jne    24d4 <descriptor_walk_callback+0x1c4>
    247a:	47                   	inc    %edi
    247b:	39 7d b0             	cmp    %edi,-0x50(%ebp)
    247e:	0f 86 ac 00 00 00    	jbe    2530 <descriptor_walk_callback+0x220>
    2484:	b8 cd cc cc cc       	mov    $0xcccccccd,%eax
    2489:	f7 e7                	mul    %edi
    248b:	89 55 9c             	mov    %edx,-0x64(%ebp)
    248e:	89 45 98             	mov    %eax,-0x68(%ebp)
    2491:	8b 5d 9c             	mov    -0x64(%ebp),%ebx
    2494:	c1 eb 04             	shr    $0x4,%ebx
    2497:	8d 04 9b             	lea    (%ebx,%ebx,4),%eax
    249a:	89 fb                	mov    %edi,%ebx
    249c:	c1 e0 02             	shl    $0x2,%eax
    249f:	29 c3                	sub    %eax,%ebx
    24a1:	75 bd                	jne    2460 <descriptor_walk_callback+0x150>
    24a3:	c7 04 24 01 00 00 00 	movl   $0x1,(%esp)
    24aa:	e8 a1 fb ff ff       	call   2050 <get_indent>
    24af:	c7 04 24 8b 1d 03 00 	movl   $0x31d8b,(%esp)
    24b6:	89 44 24 04          	mov    %eax,0x4(%esp)
    24ba:	e8 f1 cd 01 00       	call   1f2b0 <printf>
    24bf:	31 c0                	xor    %eax,%eax
    24c1:	8a 04 3e             	mov    (%esi,%edi,1),%al
    24c4:	c7 04 24 f1 1a 03 00 	movl   $0x31af1,(%esp)
    24cb:	89 44 24 04          	mov    %eax,0x4(%esp)
    24cf:	e8 dc cd 01 00       	call   1f2b0 <printf>
    24d4:	c7 04 24 dd 1a 03 00 	movl   $0x31add,(%esp)
    24db:	e8 d0 cd 01 00       	call   1f2b0 <printf>
    24e0:	eb 98                	jmp    247a <descriptor_walk_callback+0x16a>
    24e2:	8d b6 00 00 00 00    	lea    0x0(%esi),%esi
    24e8:	4f                   	dec    %edi
    24e9:	74 6c                	je     2557 <descriptor_walk_callback+0x247>
    24eb:	c7 44 24 08 a5 00 00 	movl   $0xa5,0x8(%esp)
    24f2:	00 
    24f3:	c7 44 24 04 a6 1d 03 	movl   $0x31da6,0x4(%esp)
    24fa:	00 
    24fb:	c7 04 24 5c 1d 03 00 	movl   $0x31d5c,(%esp)
    2502:	e8 89 d5 02 00       	call   2fa90 <assert_abort>
    2507:	89 74 24 10          	mov    %esi,0x10(%esp)
    250b:	89 5c 24 0c          	mov    %ebx,0xc(%esp)
    250f:	c7 44 24 08 44 1c 03 	movl   $0x31c44,0x8(%esp)
    2516:	00 
    2517:	c7 44 24 04 02 00 00 	movl   $0x2,0x4(%esp)
    251e:	00 
    251f:	c7 04 24 ff ff ff ff 	movl   $0xffffffff,(%esp)
    2526:	e8 35 d0 01 00       	call   1f560 <log_msg>
    252b:	e9 08 fe ff ff       	jmp    2338 <descriptor_walk_callback+0x28>
    2530:	c7 04 24 47 39 03 00 	movl   $0x33947,(%esp)
    2537:	e8 74 cd 01 00       	call   1f2b0 <printf>
    253c:	8b 45 a8             	mov    -0x58(%ebp),%eax
    253f:	89 04 24             	mov    %eax,(%esp)
    2542:	e8 c9 21 02 00       	call   24710 <free>
    2547:	8d 55 c8             	lea    -0x38(%ebp),%edx
    254a:	89 14 24             	mov    %edx,(%esp)
    254d:	e8 ee 2a 00 00       	call   5040 <usb_hid_report_deinit>
    2552:	e9 e1 fd ff ff       	jmp    2338 <descriptor_walk_callback+0x28>
    2557:	c7 04 24 00 00 00 00 	movl   $0x0,(%esp)
    255e:	e8 ed fa ff ff       	call   2050 <get_indent>
    2563:	89 74 24 08          	mov    %esi,0x8(%esp)
    2567:	89 44 24 04          	mov    %eax,0x4(%esp)
    256b:	c7 04 24 fc 1c 03 00 	movl   $0x31cfc,(%esp)
    2572:	e8 39 cd 01 00       	call   1f2b0 <printf>
    2577:	8b 55 d0             	mov    -0x30(%ebp),%edx
    257a:	8d 4d cc             	lea    -0x34(%ebp),%ecx
    257d:	89 55 ac             	mov    %edx,-0x54(%ebp)
    2580:	89 4d b4             	mov    %ecx,-0x4c(%ebp)
    2583:	39 ca                	cmp    %ecx,%edx
    2585:	74 b5                	je     253c <descriptor_walk_callback+0x22c>
    2587:	90                   	nop
    2588:	8b 4d ac             	mov    -0x54(%ebp),%ecx
    258b:	8b 5d ac             	mov    -0x54(%ebp),%ebx
    258e:	8a 41 e8             	mov    -0x18(%ecx),%al
    2591:	8b 53 ec             	mov    -0x14(%ebx),%edx
    2594:	25 ff 00 00 00       	and    $0xff,%eax
    2599:	c7 04 24 01 00 00 00 	movl   $0x1,(%esp)
    25a0:	89 c6                	mov    %eax,%esi
    25a2:	89 55 a0             	mov    %edx,-0x60(%ebp)
    25a5:	e8 a6 fa ff ff       	call   2050 <get_indent>
    25aa:	8b 55 a0             	mov    -0x60(%ebp),%edx
    25ad:	83 eb 18             	sub    $0x18,%ebx
    25b0:	89 54 24 0c          	mov    %edx,0xc(%esp)
    25b4:	89 74 24 08          	mov    %esi,0x8(%esp)
    25b8:	89 44 24 04          	mov    %eax,0x4(%esp)
    25bc:	c7 04 24 8f 1d 03 00 	movl   $0x31d8f,(%esp)
    25c3:	e8 e8 cc 01 00       	call   1f2b0 <printf>
    25c8:	8b 55 ac             	mov    -0x54(%ebp),%edx
    25cb:	83 ea 08             	sub    $0x8,%edx
    25ce:	8b 5b 14             	mov    0x14(%ebx),%ebx
    25d1:	89 55 b0             	mov    %edx,-0x50(%ebp)
    25d4:	39 d3                	cmp    %edx,%ebx
    25d6:	74 41                	je     2619 <descriptor_walk_callback+0x309>
    25d8:	66 8b 53 ca          	mov    -0x36(%ebx),%dx
    25dc:	8b 7b c8             	mov    -0x38(%ebx),%edi
    25df:	c7 04 24 02 00 00 00 	movl   $0x2,(%esp)
    25e6:	89 d6                	mov    %edx,%esi
    25e8:	e8 63 fa ff ff       	call   2050 <get_indent>
    25ed:	81 e6 ff ff 00 00    	and    $0xffff,%esi
    25f3:	81 e7 ff ff 00 00    	and    $0xffff,%edi
    25f9:	89 74 24 0c          	mov    %esi,0xc(%esp)
    25fd:	89 7c 24 08          	mov    %edi,0x8(%esp)
    2601:	89 44 24 04          	mov    %eax,0x4(%esp)
    2605:	c7 04 24 30 1d 03 00 	movl   $0x31d30,(%esp)
    260c:	e8 9f cc 01 00       	call   1f2b0 <printf>
    2611:	8b 5b 04             	mov    0x4(%ebx),%ebx
    2614:	3b 5d b0             	cmp    -0x50(%ebp),%ebx
    2617:	75 bf                	jne    25d8 <descriptor_walk_callback+0x2c8>
    2619:	8b 4d ac             	mov    -0x54(%ebp),%ecx
    261c:	8b 55 b4             	mov    -0x4c(%ebp),%edx
    261f:	8b 49 04             	mov    0x4(%ecx),%ecx
    2622:	89 4d ac             	mov    %ecx,-0x54(%ebp)
    2625:	39 d1                	cmp    %edx,%ecx
    2627:	0f 85 5b ff ff ff    	jne    2588 <descriptor_walk_callback+0x278>
    262d:	e9 0a ff ff ff       	jmp    253c <descriptor_walk_callback+0x22c>
    2632:	89 04 24             	mov    %eax,(%esp)
    2635:	e8 a6 81 01 00       	call   1a7e0 <str_error>
    263a:	c7 44 24 08 a8 1c 03 	movl   $0x31ca8,0x8(%esp)
    2641:	00 
    2642:	89 44 24 0c          	mov    %eax,0xc(%esp)
    2646:	c7 44 24 04 01 00 00 	movl   $0x1,0x4(%esp)
    264d:	00 
    264e:	c7 04 24 ff ff ff ff 	movl   $0xffffffff,(%esp)
    2655:	e8 06 cf 01 00       	call   1f560 <log_msg>
    265a:	e9 cf fd ff ff       	jmp    242e <descriptor_walk_callback+0x11e>
    265f:	90                   	nop

00002660 <dump_hidreport_raw>:
    2660:	55                   	push   %ebp
    2661:	89 e5                	mov    %esp,%ebp
    2663:	83 ec 38             	sub    $0x38,%esp
    2666:	8b 45 08             	mov    0x8(%ebp),%eax
    2669:	8d 55 ec             	lea    -0x14(%ebp),%edx
    266c:	89 54 24 10          	mov    %edx,0x10(%esp)
    2670:	c7 44 24 0c 10 23 00 	movl   $0x2310,0xc(%esp)
    2677:	00 
    2678:	c7 44 24 08 60 2a 03 	movl   $0x32a60,0x8(%esp)
    267f:	00 
    2680:	89 45 ec             	mov    %eax,-0x14(%ebp)
    2683:	8b 50 54             	mov    0x54(%eax),%edx
    2686:	c7 45 f0 00 00 00 00 	movl   $0x0,-0x10(%ebp)
    268d:	89 54 24 04          	mov    %edx,0x4(%esp)
    2691:	c7 45 f4 00 00 00 00 	movl   $0x0,-0xc(%ebp)
    2698:	8b 40 50             	mov    0x50(%eax),%eax
    269b:	89 04 24             	mov    %eax,(%esp)
    269e:	e8 9d 47 00 00       	call   6e40 <usb_dp_walk_simple>
    26a3:	c9                   	leave  
    26a4:	c3                   	ret    
    26a5:	8d 74 26 00          	lea    0x0(%esi,%eiz,1),%esi
    26a9:	8d bc 27 00 00 00 00 	lea    0x0(%edi,%eiz,1),%edi

000026b0 <dump_hidreport_usages>:
    26b0:	55                   	push   %ebp
    26b1:	89 e5                	mov    %esp,%ebp
    26b3:	83 ec 38             	sub    $0x38,%esp
    26b6:	8b 45 08             	mov    0x8(%ebp),%eax
    26b9:	8d 55 ec             	lea    -0x14(%ebp),%edx
    26bc:	89 54 24 10          	mov    %edx,0x10(%esp)
    26c0:	c7 44 24 0c 10 23 00 	movl   $0x2310,0xc(%esp)
    26c7:	00 
    26c8:	c7 44 24 08 60 2a 03 	movl   $0x32a60,0x8(%esp)
    26cf:	00 
    26d0:	89 45 ec             	mov    %eax,-0x14(%ebp)
    26d3:	8b 50 54             	mov    0x54(%eax),%edx
    26d6:	c7 45 f0 01 00 00 00 	movl   $0x1,-0x10(%ebp)
    26dd:	89 54 24 04          	mov    %edx,0x4(%esp)
    26e1:	c7 45 f4 00 00 00 00 	movl   $0x0,-0xc(%ebp)
    26e8:	8b 40 50             	mov    0x50(%eax),%eax
    26eb:	89 04 24             	mov    %eax,(%esp)
    26ee:	e8 4d 47 00 00       	call   6e40 <usb_dp_walk_simple>
    26f3:	c9                   	leave  
    26f4:	c3                   	ret    
    26f5:	66 90                	xchg   %ax,%ax
    26f7:	66 90                	xchg   %ax,%ax
    26f9:	66 90                	xchg   %ax,%ax
    26fb:	66 90                	xchg   %ax,%ax
    26fd:	66 90                	xchg   %ax,%ax
    26ff:	90                   	nop

00002700 <find_string_indexes_callback>:
    2700:	55                   	push   %ebp
    2701:	89 e5                	mov    %esp,%ebp
    2703:	57                   	push   %edi
    2704:	56                   	push   %esi
    2705:	53                   	push   %ebx
    2706:	8b 75 08             	mov    0x8(%ebp),%esi
    2709:	8b 5d 10             	mov    0x10(%ebp),%ebx
    270c:	80 3e 01             	cmpb   $0x1,(%esi)
    270f:	76 0f                	jbe    2720 <find_string_indexes_callback+0x20>
    2711:	8a 46 01             	mov    0x1(%esi),%al
    2714:	3c 01                	cmp    $0x1,%al
    2716:	74 60                	je     2778 <find_string_indexes_callback+0x78>
    2718:	3c 02                	cmp    $0x2,%al
    271a:	74 34                	je     2750 <find_string_indexes_callback+0x50>
    271c:	3c 04                	cmp    $0x4,%al
    271e:	74 08                	je     2728 <find_string_indexes_callback+0x28>
    2720:	5b                   	pop    %ebx
    2721:	5e                   	pop    %esi
    2722:	5f                   	pop    %edi
    2723:	5d                   	pop    %ebp
    2724:	c3                   	ret    
    2725:	8d 76 00             	lea    0x0(%esi),%esi
    2728:	31 c0                	xor    %eax,%eax
    272a:	8a 4e 08             	mov    0x8(%esi),%cl
    272d:	88 c8                	mov    %cl,%al
    272f:	48                   	dec    %eax
    2730:	83 f8 3e             	cmp    $0x3e,%eax
    2733:	77 eb                	ja     2720 <find_string_indexes_callback+0x20>
    2735:	be 01 00 00 00       	mov    $0x1,%esi
    273a:	d3 e6                	shl    %cl,%esi
    273c:	89 f2                	mov    %esi,%edx
    273e:	09 33                	or     %esi,(%ebx)
    2740:	c1 fa 1f             	sar    $0x1f,%edx
    2743:	09 53 04             	or     %edx,0x4(%ebx)
    2746:	5b                   	pop    %ebx
    2747:	5e                   	pop    %esi
    2748:	5f                   	pop    %edi
    2749:	5d                   	pop    %ebp
    274a:	c3                   	ret    
    274b:	90                   	nop
    274c:	8d 74 26 00          	lea    0x0(%esi,%eiz,1),%esi
    2750:	31 c0                	xor    %eax,%eax
    2752:	8a 4e 06             	mov    0x6(%esi),%cl
    2755:	88 c8                	mov    %cl,%al
    2757:	48                   	dec    %eax
    2758:	83 f8 3e             	cmp    $0x3e,%eax
    275b:	77 c3                	ja     2720 <find_string_indexes_callback+0x20>
    275d:	bf 01 00 00 00       	mov    $0x1,%edi
    2762:	d3 e7                	shl    %cl,%edi
    2764:	89 fa                	mov    %edi,%edx
    2766:	09 3b                	or     %edi,(%ebx)
    2768:	c1 fa 1f             	sar    $0x1f,%edx
    276b:	09 53 04             	or     %edx,0x4(%ebx)
    276e:	8a 46 01             	mov    0x1(%esi),%al
    2771:	3c 04                	cmp    $0x4,%al
    2773:	75 ab                	jne    2720 <find_string_indexes_callback+0x20>
    2775:	eb b1                	jmp    2728 <find_string_indexes_callback+0x28>
    2777:	90                   	nop
    2778:	31 c0                	xor    %eax,%eax
    277a:	8a 4e 0e             	mov    0xe(%esi),%cl
    277d:	88 c8                	mov    %cl,%al
    277f:	48                   	dec    %eax
    2780:	83 f8 3e             	cmp    $0x3e,%eax
    2783:	77 1c                	ja     27a1 <find_string_indexes_callback+0xa1>
    2785:	bf 01 00 00 00       	mov    $0x1,%edi
    278a:	d3 e7                	shl    %cl,%edi
    278c:	89 fa                	mov    %edi,%edx
    278e:	09 3b                	or     %edi,(%ebx)
    2790:	c1 fa 1f             	sar    $0x1f,%edx
    2793:	09 53 04             	or     %edx,0x4(%ebx)
    2796:	8a 46 01             	mov    0x1(%esi),%al
    2799:	3c 01                	cmp    $0x1,%al
    279b:	0f 85 77 ff ff ff    	jne    2718 <find_string_indexes_callback+0x18>
    27a1:	31 c0                	xor    %eax,%eax
    27a3:	8a 4e 0f             	mov    0xf(%esi),%cl
    27a6:	88 c8                	mov    %cl,%al
    27a8:	48                   	dec    %eax
    27a9:	83 f8 3e             	cmp    $0x3e,%eax
    27ac:	77 1c                	ja     27ca <find_string_indexes_callback+0xca>
    27ae:	bf 01 00 00 00       	mov    $0x1,%edi
    27b3:	d3 e7                	shl    %cl,%edi
    27b5:	89 fa                	mov    %edi,%edx
    27b7:	09 3b                	or     %edi,(%ebx)
    27b9:	c1 fa 1f             	sar    $0x1f,%edx
    27bc:	09 53 04             	or     %edx,0x4(%ebx)
    27bf:	8a 46 01             	mov    0x1(%esi),%al
    27c2:	3c 01                	cmp    $0x1,%al
    27c4:	0f 85 4e ff ff ff    	jne    2718 <find_string_indexes_callback+0x18>
    27ca:	31 c0                	xor    %eax,%eax
    27cc:	8a 4e 10             	mov    0x10(%esi),%cl
    27cf:	88 c8                	mov    %cl,%al
    27d1:	48                   	dec    %eax
    27d2:	83 f8 3e             	cmp    $0x3e,%eax
    27d5:	0f 87 45 ff ff ff    	ja     2720 <find_string_indexes_callback+0x20>
    27db:	bf 01 00 00 00       	mov    $0x1,%edi
    27e0:	d3 e7                	shl    %cl,%edi
    27e2:	89 fa                	mov    %edi,%edx
    27e4:	09 3b                	or     %edi,(%ebx)
    27e6:	c1 fa 1f             	sar    $0x1f,%edx
    27e9:	09 53 04             	or     %edx,0x4(%ebx)
    27ec:	8a 46 01             	mov    0x1(%esi),%al
    27ef:	e9 24 ff ff ff       	jmp    2718 <find_string_indexes_callback+0x18>
    27f4:	8d b6 00 00 00 00    	lea    0x0(%esi),%esi
    27fa:	8d bf 00 00 00 00    	lea    0x0(%edi),%edi

00002800 <dump_descriptor_tree_callback>:
    2800:	55                   	push   %ebp
    2801:	89 e5                	mov    %esp,%ebp
    2803:	57                   	push   %edi
    2804:	56                   	push   %esi
    2805:	53                   	push   %ebx
    2806:	83 ec 4c             	sub    $0x4c,%esp
    2809:	8b 75 0c             	mov    0xc(%ebp),%esi
    280c:	8b 5d 08             	mov    0x8(%ebp),%ebx
    280f:	8b 7d 10             	mov    0x10(%ebp),%edi
    2812:	8d 46 01             	lea    0x1(%esi),%eax
    2815:	89 04 24             	mov    %eax,(%esp)
    2818:	e8 33 f8 ff ff       	call   2050 <get_indent>
    281d:	31 d2                	xor    %edx,%edx
    281f:	8a 13                	mov    (%ebx),%dl
    2821:	89 c1                	mov    %eax,%ecx
    2823:	85 d2                	test   %edx,%edx
    2825:	75 19                	jne    2840 <dump_descriptor_tree_callback+0x40>
    2827:	89 4d 0c             	mov    %ecx,0xc(%ebp)
    282a:	c7 45 08 e2 1d 03 00 	movl   $0x31de2,0x8(%ebp)
    2831:	83 c4 4c             	add    $0x4c,%esp
    2834:	5b                   	pop    %ebx
    2835:	5e                   	pop    %esi
    2836:	5f                   	pop    %edi
    2837:	5d                   	pop    %ebp
    2838:	e9 73 ca 01 00       	jmp    1f2b0 <printf>
    283d:	8d 76 00             	lea    0x0(%esi),%esi
    2840:	80 7b 01 29          	cmpb   $0x29,0x1(%ebx)
    2844:	76 0a                	jbe    2850 <dump_descriptor_tree_callback+0x50>
    2846:	83 c4 4c             	add    $0x4c,%esp
    2849:	5b                   	pop    %ebx
    284a:	5e                   	pop    %esi
    284b:	5f                   	pop    %edi
    284c:	5d                   	pop    %ebp
    284d:	c3                   	ret    
    284e:	66 90                	xchg   %ax,%ax
    2850:	31 c0                	xor    %eax,%eax
    2852:	8a 43 01             	mov    0x1(%ebx),%al
    2855:	ff 24 85 f4 20 03 00 	jmp    *0x320f4(,%eax,4)
    285c:	8d 74 26 00          	lea    0x0(%esi,%eiz,1),%esi
    2860:	83 fa 06             	cmp    $0x6,%edx
    2863:	76 c2                	jbe    2827 <dump_descriptor_tree_callback+0x27>
    2865:	31 c0                	xor    %eax,%eax
    2867:	8a 43 02             	mov    0x2(%ebx),%al
    286a:	89 4c 24 04          	mov    %ecx,0x4(%esp)
    286e:	89 44 24 08          	mov    %eax,0x8(%esp)
    2872:	c7 04 24 d0 1d 03 00 	movl   $0x31dd0,(%esp)
    2879:	89 55 d4             	mov    %edx,-0x2c(%ebp)
    287c:	e8 2f ca 01 00       	call   1f2b0 <printf>
    2881:	85 ff                	test   %edi,%edi
    2883:	0f 85 ef 01 00 00    	jne    2a78 <dump_descriptor_tree_callback+0x278>
    2889:	eb bb                	jmp    2846 <dump_descriptor_tree_callback+0x46>
    288b:	90                   	nop
    288c:	8d 74 26 00          	lea    0x0(%esi,%eiz,1),%esi
    2890:	83 fa 08             	cmp    $0x8,%edx
    2893:	76 92                	jbe    2827 <dump_descriptor_tree_callback+0x27>
    2895:	31 c0                	xor    %eax,%eax
    2897:	8a 43 05             	mov    0x5(%ebx),%al
    289a:	89 44 24 0c          	mov    %eax,0xc(%esp)
    289e:	31 c0                	xor    %eax,%eax
    28a0:	8a 43 04             	mov    0x4(%ebx),%al
    28a3:	89 4c 24 04          	mov    %ecx,0x4(%esp)
    28a7:	89 44 24 08          	mov    %eax,0x8(%esp)
    28ab:	c7 04 24 f4 1e 03 00 	movl   $0x31ef4,(%esp)
    28b2:	89 55 d4             	mov    %edx,-0x2c(%ebp)
    28b5:	e8 f6 c9 01 00       	call   1f2b0 <printf>
    28ba:	85 ff                	test   %edi,%edi
    28bc:	0f 85 b6 01 00 00    	jne    2a78 <dump_descriptor_tree_callback+0x278>
    28c2:	eb 82                	jmp    2846 <dump_descriptor_tree_callback+0x46>
    28c4:	8d 74 26 00          	lea    0x0(%esi,%eiz,1),%esi
    28c8:	83 fa 06             	cmp    $0x6,%edx
    28cb:	0f 86 56 ff ff ff    	jbe    2827 <dump_descriptor_tree_callback+0x27>
    28d1:	8a 43 02             	mov    0x2(%ebx),%al
    28d4:	c7 45 dc af 1d 03 00 	movl   $0x31daf,-0x24(%ebp)
    28db:	83 e0 0f             	and    $0xf,%eax
    28de:	88 45 db             	mov    %al,-0x25(%ebp)
    28e1:	8a 43 03             	mov    0x3(%ebx),%al
    28e4:	83 e0 03             	and    $0x3,%eax
    28e7:	89 45 e0             	mov    %eax,-0x20(%ebp)
    28ea:	66 8b 43 04          	mov    0x4(%ebx),%ax
    28ee:	25 ff ff 00 00       	and    $0xffff,%eax
    28f3:	89 45 e4             	mov    %eax,-0x1c(%ebp)
    28f6:	80 7b 02 00          	cmpb   $0x0,0x2(%ebx)
    28fa:	0f 88 af 01 00 00    	js     2aaf <dump_descriptor_tree_callback+0x2af>
    2900:	8b 45 e0             	mov    -0x20(%ebp),%eax
    2903:	89 55 d4             	mov    %edx,-0x2c(%ebp)
    2906:	89 04 24             	mov    %eax,(%esp)
    2909:	89 4d d0             	mov    %ecx,-0x30(%ebp)
    290c:	e8 8f 9f 00 00       	call   c8a0 <usb_str_transfer_type>
    2911:	8b 4d d0             	mov    -0x30(%ebp),%ecx
    2914:	89 44 24 0c          	mov    %eax,0xc(%esp)
    2918:	8b 45 e4             	mov    -0x1c(%ebp),%eax
    291b:	89 44 24 14          	mov    %eax,0x14(%esp)
    291f:	8b 45 dc             	mov    -0x24(%ebp),%eax
    2922:	89 44 24 10          	mov    %eax,0x10(%esp)
    2926:	31 c0                	xor    %eax,%eax
    2928:	8a 45 db             	mov    -0x25(%ebp),%al
    292b:	89 4c 24 04          	mov    %ecx,0x4(%esp)
    292f:	89 44 24 08          	mov    %eax,0x8(%esp)
    2933:	c7 04 24 b3 1d 03 00 	movl   $0x31db3,(%esp)
    293a:	e8 71 c9 01 00       	call   1f2b0 <printf>
    293f:	85 ff                	test   %edi,%edi
    2941:	0f 85 31 01 00 00    	jne    2a78 <dump_descriptor_tree_callback+0x278>
    2947:	e9 fa fe ff ff       	jmp    2846 <dump_descriptor_tree_callback+0x46>
    294c:	8d 74 26 00          	lea    0x0(%esi,%eiz,1),%esi
    2950:	83 fa 08             	cmp    $0x8,%edx
    2953:	0f 86 ce fe ff ff    	jbe    2827 <dump_descriptor_tree_callback+0x27>
    2959:	31 c0                	xor    %eax,%eax
    295b:	8a 43 03             	mov    0x3(%ebx),%al
    295e:	89 45 e4             	mov    %eax,-0x1c(%ebp)
    2961:	31 c0                	xor    %eax,%eax
    2963:	8a 43 07             	mov    0x7(%ebx),%al
    2966:	89 45 e0             	mov    %eax,-0x20(%ebp)
    2969:	31 c0                	xor    %eax,%eax
    296b:	8a 43 06             	mov    0x6(%ebx),%al
    296e:	89 45 dc             	mov    %eax,-0x24(%ebp)
    2971:	31 c0                	xor    %eax,%eax
    2973:	8a 43 05             	mov    0x5(%ebx),%al
    2976:	89 55 d4             	mov    %edx,-0x2c(%ebp)
    2979:	89 04 24             	mov    %eax,(%esp)
    297c:	89 4d d0             	mov    %ecx,-0x30(%ebp)
    297f:	e8 4c 72 00 00       	call   9bd0 <usb_str_class>
    2984:	8b 4d d0             	mov    -0x30(%ebp),%ecx
    2987:	89 44 24 0c          	mov    %eax,0xc(%esp)
    298b:	8b 45 e4             	mov    -0x1c(%ebp),%eax
    298e:	89 44 24 18          	mov    %eax,0x18(%esp)
    2992:	8b 45 e0             	mov    -0x20(%ebp),%eax
    2995:	89 44 24 14          	mov    %eax,0x14(%esp)
    2999:	8b 45 dc             	mov    -0x24(%ebp),%eax
    299c:	89 44 24 10          	mov    %eax,0x10(%esp)
    29a0:	31 c0                	xor    %eax,%eax
    29a2:	8a 43 02             	mov    0x2(%ebx),%al
    29a5:	89 4c 24 04          	mov    %ecx,0x4(%esp)
    29a9:	89 44 24 08          	mov    %eax,0x8(%esp)
    29ad:	c7 04 24 c0 1e 03 00 	movl   $0x31ec0,(%esp)
    29b4:	e8 f7 c8 01 00       	call   1f2b0 <printf>
    29b9:	85 ff                	test   %edi,%edi
    29bb:	0f 85 b7 00 00 00    	jne    2a78 <dump_descriptor_tree_callback+0x278>
    29c1:	e9 80 fe ff ff       	jmp    2846 <dump_descriptor_tree_callback+0x46>
    29c6:	66 90                	xchg   %ax,%ax
    29c8:	83 fa 08             	cmp    $0x8,%edx
    29cb:	0f 86 56 fe ff ff    	jbe    2827 <dump_descriptor_tree_callback+0x27>
    29d1:	66 8b 43 02          	mov    0x2(%ebx),%ax
    29d5:	25 ff ff 00 00       	and    $0xffff,%eax
    29da:	89 44 24 10          	mov    %eax,0x10(%esp)
    29de:	31 c0                	xor    %eax,%eax
    29e0:	8a 43 04             	mov    0x4(%ebx),%al
    29e3:	89 44 24 0c          	mov    %eax,0xc(%esp)
    29e7:	31 c0                	xor    %eax,%eax
    29e9:	8a 43 05             	mov    0x5(%ebx),%al
    29ec:	89 4c 24 04          	mov    %ecx,0x4(%esp)
    29f0:	89 44 24 08          	mov    %eax,0x8(%esp)
    29f4:	c7 04 24 8c 1e 03 00 	movl   $0x31e8c,(%esp)
    29fb:	89 55 d4             	mov    %edx,-0x2c(%ebp)
    29fe:	e8 ad c8 01 00       	call   1f2b0 <printf>
    2a03:	85 ff                	test   %edi,%edi
    2a05:	75 71                	jne    2a78 <dump_descriptor_tree_callback+0x278>
    2a07:	e9 3a fe ff ff       	jmp    2846 <dump_descriptor_tree_callback+0x46>
    2a0c:	8d 74 26 00          	lea    0x0(%esi,%eiz,1),%esi
    2a10:	83 fa 11             	cmp    $0x11,%edx
    2a13:	0f 86 0e fe ff ff    	jbe    2827 <dump_descriptor_tree_callback+0x27>
    2a19:	31 c0                	xor    %eax,%eax
    2a1b:	8a 43 11             	mov    0x11(%ebx),%al
    2a1e:	89 45 e4             	mov    %eax,-0x1c(%ebp)
    2a21:	31 c0                	xor    %eax,%eax
    2a23:	8a 43 04             	mov    0x4(%ebx),%al
    2a26:	89 55 d4             	mov    %edx,-0x2c(%ebp)
    2a29:	89 04 24             	mov    %eax,(%esp)
    2a2c:	89 4d d0             	mov    %ecx,-0x30(%ebp)
    2a2f:	e8 9c 71 00 00       	call   9bd0 <usb_str_class>
    2a34:	8b 4d d0             	mov    -0x30(%ebp),%ecx
    2a37:	89 44 24 10          	mov    %eax,0x10(%esp)
    2a3b:	8b 45 e4             	mov    -0x1c(%ebp),%eax
    2a3e:	89 44 24 14          	mov    %eax,0x14(%esp)
    2a42:	66 8b 43 08          	mov    0x8(%ebx),%ax
    2a46:	25 ff ff 00 00       	and    $0xffff,%eax
    2a4b:	89 44 24 0c          	mov    %eax,0xc(%esp)
    2a4f:	66 8b 43 0a          	mov    0xa(%ebx),%ax
    2a53:	89 4c 24 04          	mov    %ecx,0x4(%esp)
    2a57:	25 ff ff 00 00       	and    $0xffff,%eax
    2a5c:	c7 04 24 54 1e 03 00 	movl   $0x31e54,(%esp)
    2a63:	89 44 24 08          	mov    %eax,0x8(%esp)
    2a67:	e8 44 c8 01 00       	call   1f2b0 <printf>
    2a6c:	85 ff                	test   %edi,%edi
    2a6e:	0f 84 d2 fd ff ff    	je     2846 <dump_descriptor_tree_callback+0x46>
    2a74:	8d 74 26 00          	lea    0x0(%esi,%eiz,1),%esi
    2a78:	83 c6 02             	add    $0x2,%esi
    2a7b:	89 34 24             	mov    %esi,(%esp)
    2a7e:	e8 cd f5 ff ff       	call   2050 <get_indent>
    2a83:	8b 55 d4             	mov    -0x2c(%ebp),%edx
    2a86:	89 44 24 04          	mov    %eax,0x4(%esp)
    2a8a:	a1 54 6e 03 00       	mov    0x36e54,%eax
    2a8f:	89 5c 24 0c          	mov    %ebx,0xc(%esp)
    2a93:	89 54 24 10          	mov    %edx,0x10(%esp)
    2a97:	c7 44 24 08 47 39 03 	movl   $0x33947,0x8(%esp)
    2a9e:	00 
    2a9f:	89 04 24             	mov    %eax,(%esp)
    2aa2:	e8 f9 8c 00 00       	call   b7a0 <usb_dump_standard_descriptor>
    2aa7:	83 c4 4c             	add    $0x4c,%esp
    2aaa:	5b                   	pop    %ebx
    2aab:	5e                   	pop    %esi
    2aac:	5f                   	pop    %edi
    2aad:	5d                   	pop    %ebp
    2aae:	c3                   	ret    
    2aaf:	c7 45 dc ac 1d 03 00 	movl   $0x31dac,-0x24(%ebp)
    2ab6:	e9 45 fe ff ff       	jmp    2900 <dump_descriptor_tree_callback+0x100>
    2abb:	90                   	nop
    2abc:	8d 74 26 00          	lea    0x0(%esi,%eiz,1),%esi

00002ac0 <dump_match_ids_from_interface>:
    2ac0:	55                   	push   %ebp
    2ac1:	89 e5                	mov    %esp,%ebp
    2ac3:	57                   	push   %edi
    2ac4:	56                   	push   %esi
    2ac5:	53                   	push   %ebx
    2ac6:	83 ec 4c             	sub    $0x4c,%esp
    2ac9:	83 7d 0c 01          	cmpl   $0x1,0xc(%ebp)
    2acd:	74 09                	je     2ad8 <dump_match_ids_from_interface+0x18>
    2acf:	83 c4 4c             	add    $0x4c,%esp
    2ad2:	5b                   	pop    %ebx
    2ad3:	5e                   	pop    %esi
    2ad4:	5f                   	pop    %edi
    2ad5:	5d                   	pop    %ebp
    2ad6:	c3                   	ret    
    2ad7:	90                   	nop
    2ad8:	8b 45 08             	mov    0x8(%ebp),%eax
    2adb:	80 38 08             	cmpb   $0x8,(%eax)
    2ade:	76 ef                	jbe    2acf <dump_match_ids_from_interface+0xf>
    2ae0:	80 78 01 04          	cmpb   $0x4,0x1(%eax)
    2ae4:	75 e9                	jne    2acf <dump_match_ids_from_interface+0xf>
    2ae6:	8a 48 06             	mov    0x6(%eax),%cl
    2ae9:	31 d2                	xor    %edx,%edx
    2aeb:	81 e1 ff 00 00 00    	and    $0xff,%ecx
    2af1:	8a 50 07             	mov    0x7(%eax),%dl
    2af4:	89 cf                	mov    %ecx,%edi
    2af6:	89 c1                	mov    %eax,%ecx
    2af8:	31 c0                	xor    %eax,%eax
    2afa:	31 db                	xor    %ebx,%ebx
    2afc:	8a 41 05             	mov    0x5(%ecx),%al
    2aff:	89 55 d4             	mov    %edx,-0x2c(%ebp)
    2b02:	89 04 24             	mov    %eax,(%esp)
    2b05:	e8 c6 70 00 00       	call   9bd0 <usb_str_class>
    2b0a:	89 c6                	mov    %eax,%esi
    2b0c:	8b 45 08             	mov    0x8(%ebp),%eax
    2b0f:	8a 58 02             	mov    0x2(%eax),%bl
    2b12:	c7 04 24 00 00 00 00 	movl   $0x0,(%esp)
    2b19:	e8 32 f5 ff ff       	call   2050 <get_indent>
    2b1e:	8b 55 d4             	mov    -0x2c(%ebp),%edx
    2b21:	89 54 24 14          	mov    %edx,0x14(%esp)
    2b25:	89 74 24 0c          	mov    %esi,0xc(%esp)
    2b29:	89 5c 24 08          	mov    %ebx,0x8(%esp)
    2b2d:	89 7c 24 10          	mov    %edi,0x10(%esp)
    2b31:	89 44 24 04          	mov    %eax,0x4(%esp)
    2b35:	c7 04 24 18 1f 03 00 	movl   $0x31f18,(%esp)
    2b3c:	e8 6f c7 01 00       	call   1f2b0 <printf>
    2b41:	8b 45 10             	mov    0x10(%ebp),%eax
    2b44:	8d 75 e0             	lea    -0x20(%ebp),%esi
    2b47:	8b 4d 08             	mov    0x8(%ebp),%ecx
    2b4a:	83 c0 3c             	add    $0x3c,%eax
    2b4d:	89 4c 24 04          	mov    %ecx,0x4(%esp)
    2b51:	89 74 24 08          	mov    %esi,0x8(%esp)
    2b55:	89 04 24             	mov    %eax,(%esp)
    2b58:	89 75 e0             	mov    %esi,-0x20(%ebp)
    2b5b:	89 75 e4             	mov    %esi,-0x1c(%ebp)
    2b5e:	e8 4d 4f 00 00       	call   7ab0 <usb_device_create_match_ids_from_interface>
    2b63:	c7 04 24 01 00 00 00 	movl   $0x1,(%esp)
    2b6a:	e8 e1 f4 ff ff       	call   2050 <get_indent>
    2b6f:	89 34 24             	mov    %esi,(%esp)
    2b72:	89 44 24 04          	mov    %eax,0x4(%esp)
    2b76:	e8 05 f7 ff ff       	call   2280 <dump_match_ids>
    2b7b:	8b 5d e4             	mov    -0x1c(%ebp),%ebx
    2b7e:	39 f3                	cmp    %esi,%ebx
    2b80:	0f 84 49 ff ff ff    	je     2acf <dump_match_ids_from_interface+0xf>
    2b86:	66 90                	xchg   %ax,%ax
    2b88:	8b 13                	mov    (%ebx),%edx
    2b8a:	85 d2                	test   %edx,%edx
    2b8c:	74 0e                	je     2b9c <dump_match_ids_from_interface+0xdc>
    2b8e:	8b 43 04             	mov    0x4(%ebx),%eax
    2b91:	85 c0                	test   %eax,%eax
    2b93:	74 07                	je     2b9c <dump_match_ids_from_interface+0xdc>
    2b95:	89 10                	mov    %edx,(%eax)
    2b97:	8b 13                	mov    (%ebx),%edx
    2b99:	89 42 04             	mov    %eax,0x4(%edx)
    2b9c:	8b 43 08             	mov    0x8(%ebx),%eax
    2b9f:	c7 03 00 00 00 00    	movl   $0x0,(%ebx)
    2ba5:	c7 43 04 00 00 00 00 	movl   $0x0,0x4(%ebx)
    2bac:	85 c0                	test   %eax,%eax
    2bae:	74 08                	je     2bb8 <dump_match_ids_from_interface+0xf8>
    2bb0:	89 04 24             	mov    %eax,(%esp)
    2bb3:	e8 58 1b 02 00       	call   24710 <free>
    2bb8:	89 1c 24             	mov    %ebx,(%esp)
    2bbb:	e8 50 1b 02 00       	call   24710 <free>
    2bc0:	8b 5d e4             	mov    -0x1c(%ebp),%ebx
    2bc3:	39 f3                	cmp    %esi,%ebx
    2bc5:	75 c1                	jne    2b88 <dump_match_ids_from_interface+0xc8>
    2bc7:	e9 03 ff ff ff       	jmp    2acf <dump_match_ids_from_interface+0xf>
    2bcc:	8d 74 26 00          	lea    0x0(%esi,%eiz,1),%esi

00002bd0 <dump_short_device_identification>:
    2bd0:	55                   	push   %ebp
    2bd1:	89 e5                	mov    %esp,%ebp
    2bd3:	56                   	push   %esi
    2bd4:	53                   	push   %ebx
    2bd5:	83 ec 10             	sub    $0x10,%esp
    2bd8:	8b 45 08             	mov    0x8(%ebp),%eax
    2bdb:	8b 70 44             	mov    0x44(%eax),%esi
    2bde:	66 8b 58 46          	mov    0x46(%eax),%bx
    2be2:	c7 04 24 00 00 00 00 	movl   $0x0,(%esp)
    2be9:	81 e6 ff ff 00 00    	and    $0xffff,%esi
    2bef:	e8 5c f4 ff ff       	call   2050 <get_indent>
    2bf4:	81 e3 ff ff 00 00    	and    $0xffff,%ebx
    2bfa:	89 74 24 0c          	mov    %esi,0xc(%esp)
    2bfe:	89 5c 24 08          	mov    %ebx,0x8(%esp)
    2c02:	89 44 24 04          	mov    %eax,0x4(%esp)
    2c06:	c7 04 24 48 1f 03 00 	movl   $0x31f48,(%esp)
    2c0d:	e8 9e c6 01 00       	call   1f2b0 <printf>
    2c12:	83 c4 10             	add    $0x10,%esp
    2c15:	5b                   	pop    %ebx
    2c16:	5e                   	pop    %esi
    2c17:	5d                   	pop    %ebp
    2c18:	c3                   	ret    
    2c19:	8d b4 26 00 00 00 00 	lea    0x0(%esi,%eiz,1),%esi

00002c20 <dump_device_match_ids>:
    2c20:	55                   	push   %ebp
    2c21:	89 e5                	mov    %esp,%ebp
    2c23:	57                   	push   %edi
    2c24:	56                   	push   %esi
    2c25:	53                   	push   %ebx
    2c26:	83 ec 4c             	sub    $0x4c,%esp
    2c29:	8d 75 e0             	lea    -0x20(%ebp),%esi
    2c2c:	8b 7d 08             	mov    0x8(%ebp),%edi
    2c2f:	89 75 e0             	mov    %esi,-0x20(%ebp)
    2c32:	89 74 24 04          	mov    %esi,0x4(%esp)
    2c36:	89 75 e4             	mov    %esi,-0x1c(%ebp)
    2c39:	8d 47 3c             	lea    0x3c(%edi),%eax
    2c3c:	89 04 24             	mov    %eax,(%esp)
    2c3f:	e8 0c 59 00 00       	call   8550 <usb_device_create_match_ids_from_device_descriptor>
    2c44:	31 c0                	xor    %eax,%eax
    2c46:	8a 47 40             	mov    0x40(%edi),%al
    2c49:	89 04 24             	mov    %eax,(%esp)
    2c4c:	e8 7f 6f 00 00       	call   9bd0 <usb_str_class>
    2c51:	8b 57 44             	mov    0x44(%edi),%edx
    2c54:	66 8b 5f 46          	mov    0x46(%edi),%bx
    2c58:	81 e2 ff ff 00 00    	and    $0xffff,%edx
    2c5e:	c7 04 24 00 00 00 00 	movl   $0x0,(%esp)
    2c65:	89 55 d0             	mov    %edx,-0x30(%ebp)
    2c68:	89 45 d4             	mov    %eax,-0x2c(%ebp)
    2c6b:	e8 e0 f3 ff ff       	call   2050 <get_indent>
    2c70:	81 e3 ff ff 00 00    	and    $0xffff,%ebx
    2c76:	8b 4d d4             	mov    -0x2c(%ebp),%ecx
    2c79:	8b 55 d0             	mov    -0x30(%ebp),%edx
    2c7c:	89 4c 24 10          	mov    %ecx,0x10(%esp)
    2c80:	89 54 24 0c          	mov    %edx,0xc(%esp)
    2c84:	89 5c 24 08          	mov    %ebx,0x8(%esp)
    2c88:	89 44 24 04          	mov    %eax,0x4(%esp)
    2c8c:	c7 04 24 6c 1f 03 00 	movl   $0x31f6c,(%esp)
    2c93:	e8 18 c6 01 00       	call   1f2b0 <printf>
    2c98:	c7 04 24 01 00 00 00 	movl   $0x1,(%esp)
    2c9f:	e8 ac f3 ff ff       	call   2050 <get_indent>
    2ca4:	89 34 24             	mov    %esi,(%esp)
    2ca7:	89 44 24 04          	mov    %eax,0x4(%esp)
    2cab:	e8 d0 f5 ff ff       	call   2280 <dump_match_ids>
    2cb0:	8b 5d e4             	mov    -0x1c(%ebp),%ebx
    2cb3:	39 f3                	cmp    %esi,%ebx
    2cb5:	74 40                	je     2cf7 <dump_device_match_ids+0xd7>
    2cb7:	90                   	nop
    2cb8:	8b 13                	mov    (%ebx),%edx
    2cba:	85 d2                	test   %edx,%edx
    2cbc:	74 0e                	je     2ccc <dump_device_match_ids+0xac>
    2cbe:	8b 43 04             	mov    0x4(%ebx),%eax
    2cc1:	85 c0                	test   %eax,%eax
    2cc3:	74 07                	je     2ccc <dump_device_match_ids+0xac>
    2cc5:	89 10                	mov    %edx,(%eax)
    2cc7:	8b 13                	mov    (%ebx),%edx
    2cc9:	89 42 04             	mov    %eax,0x4(%edx)
    2ccc:	8b 43 08             	mov    0x8(%ebx),%eax
    2ccf:	c7 03 00 00 00 00    	movl   $0x0,(%ebx)
    2cd5:	c7 43 04 00 00 00 00 	movl   $0x0,0x4(%ebx)
    2cdc:	85 c0                	test   %eax,%eax
    2cde:	74 08                	je     2ce8 <dump_device_match_ids+0xc8>
    2ce0:	89 04 24             	mov    %eax,(%esp)
    2ce3:	e8 28 1a 02 00       	call   24710 <free>
    2ce8:	89 1c 24             	mov    %ebx,(%esp)
    2ceb:	e8 20 1a 02 00       	call   24710 <free>
    2cf0:	8b 5d e4             	mov    -0x1c(%ebp),%ebx
    2cf3:	39 f3                	cmp    %esi,%ebx
    2cf5:	75 c1                	jne    2cb8 <dump_device_match_ids+0x98>
    2cf7:	89 7c 24 10          	mov    %edi,0x10(%esp)
    2cfb:	c7 44 24 0c c0 2a 00 	movl   $0x2ac0,0xc(%esp)
    2d02:	00 
    2d03:	c7 44 24 08 60 2a 03 	movl   $0x32a60,0x8(%esp)
    2d0a:	00 
    2d0b:	8b 47 54             	mov    0x54(%edi),%eax
    2d0e:	89 44 24 04          	mov    %eax,0x4(%esp)
    2d12:	8b 47 50             	mov    0x50(%edi),%eax
    2d15:	89 04 24             	mov    %eax,(%esp)
    2d18:	e8 23 41 00 00       	call   6e40 <usb_dp_walk_simple>
    2d1d:	83 c4 4c             	add    $0x4c,%esp
    2d20:	5b                   	pop    %ebx
    2d21:	5e                   	pop    %esi
    2d22:	5f                   	pop    %edi
    2d23:	5d                   	pop    %ebp
    2d24:	c3                   	ret    
    2d25:	8d 74 26 00          	lea    0x0(%esi,%eiz,1),%esi
    2d29:	8d bc 27 00 00 00 00 	lea    0x0(%edi,%eiz,1),%edi

00002d30 <dump_descriptor_tree_brief>:
    2d30:	55                   	push   %ebp
    2d31:	89 e5                	mov    %esp,%ebp
    2d33:	53                   	push   %ebx
    2d34:	83 ec 24             	sub    $0x24,%esp
    2d37:	8b 5d 08             	mov    0x8(%ebp),%ebx
    2d3a:	c7 44 24 08 00 00 00 	movl   $0x0,0x8(%esp)
    2d41:	00 
    2d42:	c7 44 24 04 ff ff ff 	movl   $0xffffffff,0x4(%esp)
    2d49:	ff 
    2d4a:	8d 43 3c             	lea    0x3c(%ebx),%eax
    2d4d:	89 04 24             	mov    %eax,(%esp)
    2d50:	e8 ab fa ff ff       	call   2800 <dump_descriptor_tree_callback>
    2d55:	c7 44 24 10 00 00 00 	movl   $0x0,0x10(%esp)
    2d5c:	00 
    2d5d:	c7 44 24 0c 00 28 00 	movl   $0x2800,0xc(%esp)
    2d64:	00 
    2d65:	c7 44 24 08 60 2a 03 	movl   $0x32a60,0x8(%esp)
    2d6c:	00 
    2d6d:	8b 43 54             	mov    0x54(%ebx),%eax
    2d70:	89 44 24 04          	mov    %eax,0x4(%esp)
    2d74:	8b 43 50             	mov    0x50(%ebx),%eax
    2d77:	89 04 24             	mov    %eax,(%esp)
    2d7a:	e8 c1 40 00 00       	call   6e40 <usb_dp_walk_simple>
    2d7f:	83 c4 24             	add    $0x24,%esp
    2d82:	5b                   	pop    %ebx
    2d83:	5d                   	pop    %ebp
    2d84:	c3                   	ret    
    2d85:	8d 74 26 00          	lea    0x0(%esi,%eiz,1),%esi
    2d89:	8d bc 27 00 00 00 00 	lea    0x0(%edi,%eiz,1),%edi

00002d90 <dump_descriptor_tree_full>:
    2d90:	55                   	push   %ebp
    2d91:	89 e5                	mov    %esp,%ebp
    2d93:	53                   	push   %ebx
    2d94:	83 ec 24             	sub    $0x24,%esp
    2d97:	8b 5d 08             	mov    0x8(%ebp),%ebx
    2d9a:	89 5c 24 08          	mov    %ebx,0x8(%esp)
    2d9e:	c7 44 24 04 ff ff ff 	movl   $0xffffffff,0x4(%esp)
    2da5:	ff 
    2da6:	8d 43 3c             	lea    0x3c(%ebx),%eax
    2da9:	89 04 24             	mov    %eax,(%esp)
    2dac:	e8 4f fa ff ff       	call   2800 <dump_descriptor_tree_callback>
    2db1:	89 5c 24 10          	mov    %ebx,0x10(%esp)
    2db5:	c7 44 24 0c 00 28 00 	movl   $0x2800,0xc(%esp)
    2dbc:	00 
    2dbd:	c7 44 24 08 60 2a 03 	movl   $0x32a60,0x8(%esp)
    2dc4:	00 
    2dc5:	8b 43 54             	mov    0x54(%ebx),%eax
    2dc8:	89 44 24 04          	mov    %eax,0x4(%esp)
    2dcc:	8b 43 50             	mov    0x50(%ebx),%eax
    2dcf:	89 04 24             	mov    %eax,(%esp)
    2dd2:	e8 69 40 00 00       	call   6e40 <usb_dp_walk_simple>
    2dd7:	83 c4 24             	add    $0x24,%esp
    2dda:	5b                   	pop    %ebx
    2ddb:	5d                   	pop    %ebp
    2ddc:	c3                   	ret    
    2ddd:	8d 76 00             	lea    0x0(%esi),%esi

00002de0 <dump_strings>:
    2de0:	55                   	push   %ebp
    2de1:	89 e5                	mov    %esp,%ebp
    2de3:	57                   	push   %edi
    2de4:	56                   	push   %esi
    2de5:	53                   	push   %ebx
    2de6:	83 ec 5c             	sub    $0x5c,%esp
    2de9:	8d 5d e0             	lea    -0x20(%ebp),%ebx
    2dec:	8b 75 08             	mov    0x8(%ebp),%esi
    2def:	c7 45 e0 00 00 00 00 	movl   $0x0,-0x20(%ebp)
    2df6:	89 5c 24 08          	mov    %ebx,0x8(%esp)
    2dfa:	c7 44 24 04 00 00 00 	movl   $0x0,0x4(%esp)
    2e01:	00 
    2e02:	8d 46 3c             	lea    0x3c(%esi),%eax
    2e05:	c7 45 e4 00 00 00 00 	movl   $0x0,-0x1c(%ebp)
    2e0c:	89 04 24             	mov    %eax,(%esp)
    2e0f:	e8 ec f8 ff ff       	call   2700 <find_string_indexes_callback>
    2e14:	89 5c 24 10          	mov    %ebx,0x10(%esp)
    2e18:	c7 44 24 0c 00 27 00 	movl   $0x2700,0xc(%esp)
    2e1f:	00 
    2e20:	c7 44 24 08 60 2a 03 	movl   $0x32a60,0x8(%esp)
    2e27:	00 
    2e28:	8b 46 54             	mov    0x54(%esi),%eax
    2e2b:	89 44 24 04          	mov    %eax,0x4(%esp)
    2e2f:	8b 46 50             	mov    0x50(%esi),%eax
    2e32:	89 04 24             	mov    %eax,(%esp)
    2e35:	e8 06 40 00 00       	call   6e40 <usb_dp_walk_simple>
    2e3a:	8b 45 e4             	mov    -0x1c(%ebp),%eax
    2e3d:	0b 45 e0             	or     -0x20(%ebp),%eax
    2e40:	75 14                	jne    2e56 <dump_strings+0x76>
    2e42:	c7 04 24 98 1f 03 00 	movl   $0x31f98,(%esp)
    2e49:	e8 62 c4 01 00       	call   1f2b0 <printf>
    2e4e:	83 c4 5c             	add    $0x5c,%esp
    2e51:	5b                   	pop    %ebx
    2e52:	5e                   	pop    %esi
    2e53:	5f                   	pop    %edi
    2e54:	5d                   	pop    %ebp
    2e55:	c3                   	ret    
    2e56:	8d 45 d8             	lea    -0x28(%ebp),%eax
    2e59:	83 c6 24             	add    $0x24,%esi
    2e5c:	89 44 24 08          	mov    %eax,0x8(%esp)
    2e60:	8d 45 d4             	lea    -0x2c(%ebp),%eax
    2e63:	89 44 24 04          	mov    %eax,0x4(%esp)
    2e67:	89 34 24             	mov    %esi,(%esp)
    2e6a:	89 75 c4             	mov    %esi,-0x3c(%ebp)
    2e6d:	e8 2e 69 00 00       	call   97a0 <usb_request_get_supported_languages>
    2e72:	85 c0                	test   %eax,%eax
    2e74:	0f 85 69 01 00 00    	jne    2fe3 <dump_strings+0x203>
    2e7a:	c7 04 24 00 00 00 00 	movl   $0x0,(%esp)
    2e81:	8b 5d d8             	mov    -0x28(%ebp),%ebx
    2e84:	e8 c7 f1 ff ff       	call   2050 <get_indent>
    2e89:	89 5c 24 08          	mov    %ebx,0x8(%esp)
    2e8d:	89 44 24 04          	mov    %eax,0x4(%esp)
    2e91:	c7 04 24 f9 1d 03 00 	movl   $0x31df9,(%esp)
    2e98:	e8 13 c4 01 00       	call   1f2b0 <printf>
    2e9d:	8b 4d d8             	mov    -0x28(%ebp),%ecx
    2ea0:	31 db                	xor    %ebx,%ebx
    2ea2:	85 c9                	test   %ecx,%ecx
    2ea4:	74 1e                	je     2ec4 <dump_strings+0xe4>
    2ea6:	66 90                	xchg   %ax,%ax
    2ea8:	8b 45 d4             	mov    -0x2c(%ebp),%eax
    2eab:	8b 04 98             	mov    (%eax,%ebx,4),%eax
    2eae:	c7 04 24 13 1e 03 00 	movl   $0x31e13,(%esp)
    2eb5:	89 44 24 04          	mov    %eax,0x4(%esp)
    2eb9:	43                   	inc    %ebx
    2eba:	e8 f1 c3 01 00       	call   1f2b0 <printf>
    2ebf:	39 5d d8             	cmp    %ebx,-0x28(%ebp)
    2ec2:	77 e4                	ja     2ea8 <dump_strings+0xc8>
    2ec4:	c7 04 24 79 3e 03 00 	movl   $0x33e79,(%esp)
    2ecb:	e8 e0 c3 01 00       	call   1f2b0 <printf>
    2ed0:	8b 55 d8             	mov    -0x28(%ebp),%edx
    2ed3:	c7 45 c0 00 00 00 00 	movl   $0x0,-0x40(%ebp)
    2eda:	85 d2                	test   %edx,%edx
    2edc:	0f 84 6c ff ff ff    	je     2e4e <dump_strings+0x6e>
    2ee2:	8d b6 00 00 00 00    	lea    0x0(%esi),%esi
    2ee8:	8b 55 c0             	mov    -0x40(%ebp),%edx
    2eeb:	8b 45 d4             	mov    -0x2c(%ebp),%eax
    2eee:	8b 1c 90             	mov    (%eax,%edx,4),%ebx
    2ef1:	89 1c 24             	mov    %ebx,(%esp)
    2ef4:	e8 97 79 01 00       	call   1a890 <str_l18_win_locale>
    2ef9:	c7 04 24 00 00 00 00 	movl   $0x0,(%esp)
    2f00:	89 c7                	mov    %eax,%edi
    2f02:	e8 49 f1 ff ff       	call   2050 <get_indent>
    2f07:	89 7c 24 08          	mov    %edi,0x8(%esp)
    2f0b:	89 44 24 04          	mov    %eax,0x4(%esp)
    2f0f:	c7 04 24 1b 1e 03 00 	movl   $0x31e1b,(%esp)
    2f16:	bf 01 00 00 00       	mov    $0x1,%edi
    2f1b:	e8 90 c3 01 00       	call   1f2b0 <printf>
    2f20:	eb 10                	jmp    2f32 <dump_strings+0x152>
    2f22:	8d b6 00 00 00 00    	lea    0x0(%esi),%esi
    2f28:	47                   	inc    %edi
    2f29:	83 ff 40             	cmp    $0x40,%edi
    2f2c:	0f 84 96 00 00 00    	je     2fc8 <dump_strings+0x1e8>
    2f32:	89 f9                	mov    %edi,%ecx
    2f34:	8b 55 e4             	mov    -0x1c(%ebp),%edx
    2f37:	8b 45 e0             	mov    -0x20(%ebp),%eax
    2f3a:	0f ad d0             	shrd   %cl,%edx,%eax
    2f3d:	d3 ea                	shr    %cl,%edx
    2f3f:	f6 c1 20             	test   $0x20,%cl
    2f42:	74 02                	je     2f46 <dump_strings+0x166>
    2f44:	89 d0                	mov    %edx,%eax
    2f46:	83 e0 01             	and    $0x1,%eax
    2f49:	85 c0                	test   %eax,%eax
    2f4b:	74 db                	je     2f28 <dump_strings+0x148>
    2f4d:	8d 45 dc             	lea    -0x24(%ebp),%eax
    2f50:	8b 55 c4             	mov    -0x3c(%ebp),%edx
    2f53:	89 44 24 0c          	mov    %eax,0xc(%esp)
    2f57:	89 5c 24 08          	mov    %ebx,0x8(%esp)
    2f5b:	89 7c 24 04          	mov    %edi,0x4(%esp)
    2f5f:	89 14 24             	mov    %edx,(%esp)
    2f62:	c7 45 dc 00 00 00 00 	movl   $0x0,-0x24(%ebp)
    2f69:	e8 92 69 00 00       	call   9900 <usb_request_get_string>
    2f6e:	3d d2 fe ff ff       	cmp    $0xfffffed2,%eax
    2f73:	0f 85 97 00 00 00    	jne    3010 <dump_strings+0x230>
    2f79:	be 35 4c 03 00       	mov    $0x34c35,%esi
    2f7e:	85 c0                	test   %eax,%eax
    2f80:	75 03                	jne    2f85 <dump_strings+0x1a5>
    2f82:	8b 75 dc             	mov    -0x24(%ebp),%esi
    2f85:	c7 04 24 01 00 00 00 	movl   $0x1,(%esp)
    2f8c:	e8 bf f0 ff ff       	call   2050 <get_indent>
    2f91:	89 74 24 0c          	mov    %esi,0xc(%esp)
    2f95:	89 7c 24 08          	mov    %edi,0x8(%esp)
    2f99:	89 44 24 04          	mov    %eax,0x4(%esp)
    2f9d:	c7 04 24 2d 1e 03 00 	movl   $0x31e2d,(%esp)
    2fa4:	e8 07 c3 01 00       	call   1f2b0 <printf>
    2fa9:	8b 45 dc             	mov    -0x24(%ebp),%eax
    2fac:	85 c0                	test   %eax,%eax
    2fae:	0f 84 74 ff ff ff    	je     2f28 <dump_strings+0x148>
    2fb4:	89 04 24             	mov    %eax,(%esp)
    2fb7:	47                   	inc    %edi
    2fb8:	e8 53 17 02 00       	call   24710 <free>
    2fbd:	83 ff 40             	cmp    $0x40,%edi
    2fc0:	0f 85 6c ff ff ff    	jne    2f32 <dump_strings+0x152>
    2fc6:	66 90                	xchg   %ax,%ax
    2fc8:	8b 45 c0             	mov    -0x40(%ebp),%eax
    2fcb:	40                   	inc    %eax
    2fcc:	89 45 c0             	mov    %eax,-0x40(%ebp)
    2fcf:	8b 55 c0             	mov    -0x40(%ebp),%edx
    2fd2:	39 55 d8             	cmp    %edx,-0x28(%ebp)
    2fd5:	0f 87 0d ff ff ff    	ja     2ee8 <dump_strings+0x108>
    2fdb:	83 c4 5c             	add    $0x5c,%esp
    2fde:	5b                   	pop    %ebx
    2fdf:	5e                   	pop    %esi
    2fe0:	5f                   	pop    %edi
    2fe1:	5d                   	pop    %ebp
    2fe2:	c3                   	ret    
    2fe3:	89 04 24             	mov    %eax,(%esp)
    2fe6:	e8 f5 77 01 00       	call   1a7e0 <str_error>
    2feb:	c7 44 24 04 c8 1f 03 	movl   $0x31fc8,0x4(%esp)
    2ff2:	00 
    2ff3:	89 44 24 08          	mov    %eax,0x8(%esp)
    2ff7:	a1 50 6e 03 00       	mov    0x36e50,%eax
    2ffc:	89 04 24             	mov    %eax,(%esp)
    2fff:	e8 7c c2 01 00       	call   1f280 <fprintf>
    3004:	83 c4 5c             	add    $0x5c,%esp
    3007:	5b                   	pop    %ebx
    3008:	5e                   	pop    %esi
    3009:	5f                   	pop    %edi
    300a:	5d                   	pop    %ebp
    300b:	c3                   	ret    
    300c:	8d 74 26 00          	lea    0x0(%esi,%eiz,1),%esi
    3010:	85 c0                	test   %eax,%eax
    3012:	0f 84 61 ff ff ff    	je     2f79 <dump_strings+0x199>
    3018:	89 04 24             	mov    %eax,(%esp)
    301b:	e8 c0 77 01 00       	call   1a7e0 <str_error>
    3020:	c7 04 24 01 00 00 00 	movl   $0x1,(%esp)
    3027:	89 c6                	mov    %eax,%esi
    3029:	e8 22 f0 ff ff       	call   2050 <get_indent>
    302e:	89 74 24 0c          	mov    %esi,0xc(%esp)
    3032:	89 7c 24 08          	mov    %edi,0x8(%esp)
    3036:	89 44 24 04          	mov    %eax,0x4(%esp)
    303a:	c7 04 24 04 20 03 00 	movl   $0x32004,(%esp)
    3041:	e8 6a c2 01 00       	call   1f2b0 <printf>
    3046:	e9 dd fe ff ff       	jmp    2f28 <dump_strings+0x148>
    304b:	90                   	nop
    304c:	8d 74 26 00          	lea    0x0(%esi,%eiz,1),%esi

00003050 <dump_status>:
    3050:	55                   	push   %ebp
    3051:	89 e5                	mov    %esp,%ebp
    3053:	57                   	push   %edi
    3054:	56                   	push   %esi
    3055:	53                   	push   %ebx
    3056:	83 ec 4c             	sub    $0x4c,%esp
    3059:	8d 45 e0             	lea    -0x20(%ebp),%eax
    305c:	8b 5d 08             	mov    0x8(%ebp),%ebx
    305f:	66 c7 45 e0 00 00    	movw   $0x0,-0x20(%ebp)
    3065:	83 c3 24             	add    $0x24,%ebx
    3068:	89 44 24 0c          	mov    %eax,0xc(%esp)
    306c:	c7 44 24 08 00 00 00 	movl   $0x0,0x8(%esp)
    3073:	00 
    3074:	c7 44 24 04 00 00 00 	movl   $0x0,0x4(%esp)
    307b:	00 
    307c:	89 1c 24             	mov    %ebx,(%esp)
    307f:	66 c7 45 e4 00 00    	movw   $0x0,-0x1c(%ebp)
    3085:	e8 16 5d 00 00       	call   8da0 <usb_request_get_status>
    308a:	85 c0                	test   %eax,%eax
    308c:	0f 85 de 00 00 00    	jne    3170 <dump_status+0x120>
    3092:	8b 75 e0             	mov    -0x20(%ebp),%esi
    3095:	ba 46 1e 03 00       	mov    $0x31e46,%edx
    309a:	f7 c6 02 00 00 00    	test   $0x2,%esi
    30a0:	74 05                	je     30a7 <dump_status+0x57>
    30a2:	ba 42 1e 03 00       	mov    $0x31e42,%edx
    30a7:	bf 4e 1e 03 00       	mov    $0x31e4e,%edi
    30ac:	f7 c6 01 00 00 00    	test   $0x1,%esi
    30b2:	0f 85 a8 00 00 00    	jne    3160 <dump_status+0x110>
    30b8:	c7 04 24 00 00 00 00 	movl   $0x0,(%esp)
    30bf:	89 55 d4             	mov    %edx,-0x2c(%ebp)
    30c2:	e8 89 ef ff ff       	call   2050 <get_indent>
    30c7:	81 e6 ff ff 00 00    	and    $0xffff,%esi
    30cd:	8b 55 d4             	mov    -0x2c(%ebp),%edx
    30d0:	89 7c 24 0c          	mov    %edi,0xc(%esp)
    30d4:	89 54 24 10          	mov    %edx,0x10(%esp)
    30d8:	89 74 24 08          	mov    %esi,0x8(%esp)
    30dc:	89 44 24 04          	mov    %eax,0x4(%esp)
    30e0:	c7 04 24 58 20 03 00 	movl   $0x32058,(%esp)
    30e7:	e8 c4 c1 01 00       	call   1f2b0 <printf>
    30ec:	8d 45 e4             	lea    -0x1c(%ebp),%eax
    30ef:	c7 44 24 08 00 00 00 	movl   $0x0,0x8(%esp)
    30f6:	00 
    30f7:	89 44 24 0c          	mov    %eax,0xc(%esp)
    30fb:	c7 44 24 04 02 00 00 	movl   $0x2,0x4(%esp)
    3102:	00 
    3103:	89 1c 24             	mov    %ebx,(%esp)
    3106:	e8 95 5c 00 00       	call   8da0 <usb_request_get_status>
    310b:	85 c0                	test   %eax,%eax
    310d:	0f 85 8d 00 00 00    	jne    31a0 <dump_status+0x150>
    3113:	8b 5d e4             	mov    -0x1c(%ebp),%ebx
    3116:	be 46 1e 03 00       	mov    $0x31e46,%esi
    311b:	f6 c3 01             	test   $0x1,%bl
    311e:	75 38                	jne    3158 <dump_status+0x108>
    3120:	c7 04 24 00 00 00 00 	movl   $0x0,(%esp)
    3127:	81 e3 ff ff 00 00    	and    $0xffff,%ebx
    312d:	e8 1e ef ff ff       	call   2050 <get_indent>
    3132:	89 74 24 0c          	mov    %esi,0xc(%esp)
    3136:	89 5c 24 08          	mov    %ebx,0x8(%esp)
    313a:	89 44 24 04          	mov    %eax,0x4(%esp)
    313e:	c7 04 24 c0 20 03 00 	movl   $0x320c0,(%esp)
    3145:	e8 66 c1 01 00       	call   1f2b0 <printf>
    314a:	83 c4 4c             	add    $0x4c,%esp
    314d:	5b                   	pop    %ebx
    314e:	5e                   	pop    %esi
    314f:	5f                   	pop    %edi
    3150:	5d                   	pop    %ebp
    3151:	c3                   	ret    
    3152:	8d b6 00 00 00 00    	lea    0x0(%esi),%esi
    3158:	be 42 1e 03 00       	mov    $0x31e42,%esi
    315d:	eb c1                	jmp    3120 <dump_status+0xd0>
    315f:	90                   	nop
    3160:	bf 49 1e 03 00       	mov    $0x31e49,%edi
    3165:	e9 4e ff ff ff       	jmp    30b8 <dump_status+0x68>
    316a:	8d b6 00 00 00 00    	lea    0x0(%esi),%esi
    3170:	89 04 24             	mov    %eax,(%esp)
    3173:	e8 68 76 01 00       	call   1a7e0 <str_error>
    3178:	c7 04 24 00 00 00 00 	movl   $0x0,(%esp)
    317f:	89 c6                	mov    %eax,%esi
    3181:	e8 ca ee ff ff       	call   2050 <get_indent>
    3186:	89 74 24 08          	mov    %esi,0x8(%esp)
    318a:	89 44 24 04          	mov    %eax,0x4(%esp)
    318e:	c7 04 24 34 20 03 00 	movl   $0x32034,(%esp)
    3195:	e8 16 c1 01 00       	call   1f2b0 <printf>
    319a:	e9 4d ff ff ff       	jmp    30ec <dump_status+0x9c>
    319f:	90                   	nop
    31a0:	89 04 24             	mov    %eax,(%esp)
    31a3:	e8 38 76 01 00       	call   1a7e0 <str_error>
    31a8:	c7 04 24 00 00 00 00 	movl   $0x0,(%esp)
    31af:	89 c3                	mov    %eax,%ebx
    31b1:	e8 9a ee ff ff       	call   2050 <get_indent>
    31b6:	89 5c 24 08          	mov    %ebx,0x8(%esp)
    31ba:	89 44 24 04          	mov    %eax,0x4(%esp)
    31be:	c7 04 24 90 20 03 00 	movl   $0x32090,(%esp)
    31c5:	e8 e6 c0 01 00       	call   1f2b0 <printf>
    31ca:	83 c4 4c             	add    $0x4c,%esp
    31cd:	5b                   	pop    %ebx
    31ce:	5e                   	pop    %esi
    31cf:	5f                   	pop    %edi
    31d0:	5d                   	pop    %ebp
    31d1:	c3                   	ret    
    31d2:	66 90                	xchg   %ax,%ax
    31d4:	66 90                	xchg   %ax,%ax
    31d6:	66 90                	xchg   %ax,%ax
    31d8:	66 90                	xchg   %ax,%ax
    31da:	66 90                	xchg   %ax,%ax
    31dc:	66 90                	xchg   %ax,%ax
    31de:	66 90                	xchg   %ax,%ax

000031e0 <list>:
    31e0:	55                   	push   %ebp
    31e1:	89 e5                	mov    %esp,%ebp
    31e3:	57                   	push   %edi
    31e4:	56                   	push   %esi
    31e5:	53                   	push   %ebx
    31e6:	81 ec 5c 08 00 00    	sub    $0x85c,%esp
    31ec:	8d 85 b8 f7 ff ff    	lea    -0x848(%ebp),%eax
    31f2:	c7 44 24 08 00 00 00 	movl   $0x0,0x8(%esp)
    31f9:	00 
    31fa:	89 44 24 04          	mov    %eax,0x4(%esp)
    31fe:	c7 04 24 9c 21 03 00 	movl   $0x3219c,(%esp)
    3205:	e8 46 2a 01 00       	call   15c50 <loc_category_get_id>
    320a:	85 c0                	test   %eax,%eax
    320c:	74 1f                	je     322d <list+0x4d>
    320e:	c7 44 24 04 9c 21 03 	movl   $0x3219c,0x4(%esp)
    3215:	00 
    3216:	c7 04 24 c4 21 03 00 	movl   $0x321c4,(%esp)
    321d:	e8 8e c0 01 00       	call   1f2b0 <printf>
    3222:	81 c4 5c 08 00 00    	add    $0x85c,%esp
    3228:	5b                   	pop    %ebx
    3229:	5e                   	pop    %esi
    322a:	5f                   	pop    %edi
    322b:	5d                   	pop    %ebp
    322c:	c3                   	ret    
    322d:	8d 85 c0 f7 ff ff    	lea    -0x840(%ebp),%eax
    3233:	89 44 24 08          	mov    %eax,0x8(%esp)
    3237:	8d 85 bc f7 ff ff    	lea    -0x844(%ebp),%eax
    323d:	89 44 24 04          	mov    %eax,0x4(%esp)
    3241:	8b 85 b8 f7 ff ff    	mov    -0x848(%ebp),%eax
    3247:	89 04 24             	mov    %eax,(%esp)
    324a:	e8 f1 3a 01 00       	call   16d40 <loc_category_get_svcs>
    324f:	85 c0                	test   %eax,%eax
    3251:	0f 85 cf 01 00 00    	jne    3426 <list+0x246>
    3257:	8b 95 c0 f7 ff ff    	mov    -0x840(%ebp),%edx
    325d:	c7 85 b4 f7 ff ff 00 	movl   $0x0,-0x84c(%ebp)
    3264:	00 00 00 
    3267:	8d bd cc f7 ff ff    	lea    -0x834(%ebp),%edi
    326d:	85 d2                	test   %edx,%edx
    326f:	75 3f                	jne    32b0 <list+0xd0>
    3271:	e9 97 01 00 00       	jmp    340d <list+0x22d>
    3276:	66 90                	xchg   %ax,%ax
    3278:	8b 85 bc f7 ff ff    	mov    -0x844(%ebp),%eax
    327e:	8b 04 18             	mov    (%eax,%ebx,1),%eax
    3281:	c7 04 24 20 22 03 00 	movl   $0x32220,(%esp)
    3288:	89 44 24 04          	mov    %eax,0x4(%esp)
    328c:	e8 1f c0 01 00       	call   1f2b0 <printf>
    3291:	8b 85 b4 f7 ff ff    	mov    -0x84c(%ebp),%eax
    3297:	40                   	inc    %eax
    3298:	89 85 b4 f7 ff ff    	mov    %eax,-0x84c(%ebp)
    329e:	8b 85 b4 f7 ff ff    	mov    -0x84c(%ebp),%eax
    32a4:	39 85 c0 f7 ff ff    	cmp    %eax,-0x840(%ebp)
    32aa:	0f 86 5d 01 00 00    	jbe    340d <list+0x22d>
    32b0:	8b 9d b4 f7 ff ff    	mov    -0x84c(%ebp),%ebx
    32b6:	8d 85 c4 f7 ff ff    	lea    -0x83c(%ebp),%eax
    32bc:	89 44 24 04          	mov    %eax,0x4(%esp)
    32c0:	8b 85 bc f7 ff ff    	mov    -0x844(%ebp),%eax
    32c6:	c1 e3 02             	shl    $0x2,%ebx
    32c9:	c7 85 c4 f7 ff ff 00 	movl   $0x0,-0x83c(%ebp)
    32d0:	00 00 00 
    32d3:	8b 04 18             	mov    (%eax,%ebx,1),%eax
    32d6:	89 04 24             	mov    %eax,(%esp)
    32d9:	e8 32 12 01 00       	call   14510 <devman_fun_sid_to_handle>
    32de:	85 c0                	test   %eax,%eax
    32e0:	75 96                	jne    3278 <list+0x98>
    32e2:	8d 85 e8 f7 ff ff    	lea    -0x818(%ebp),%eax
    32e8:	c7 44 24 08 00 04 00 	movl   $0x400,0x8(%esp)
    32ef:	00 
    32f0:	89 44 24 04          	mov    %eax,0x4(%esp)
    32f4:	8b 85 c4 f7 ff ff    	mov    -0x83c(%ebp),%eax
    32fa:	89 04 24             	mov    %eax,(%esp)
    32fd:	e8 1e 06 01 00       	call   13920 <devman_fun_get_path>
    3302:	85 c0                	test   %eax,%eax
    3304:	74 22                	je     3328 <list+0x148>
    3306:	8b 85 bc f7 ff ff    	mov    -0x844(%ebp),%eax
    330c:	8b 04 18             	mov    (%eax,%ebx,1),%eax
    330f:	c7 04 24 60 22 03 00 	movl   $0x32260,(%esp)
    3316:	89 44 24 04          	mov    %eax,0x4(%esp)
    331a:	e8 91 bf 01 00       	call   1f2b0 <printf>
    331f:	e9 6d ff ff ff       	jmp    3291 <list+0xb1>
    3324:	8d 74 26 00          	lea    0x0(%esi,%eiz,1),%esi
    3328:	8d 85 e8 f7 ff ff    	lea    -0x818(%ebp),%eax
    332e:	89 44 24 08          	mov    %eax,0x8(%esp)
    3332:	8b 85 bc f7 ff ff    	mov    -0x844(%ebp),%eax
    3338:	8b 04 18             	mov    (%eax,%ebx,1),%eax
    333b:	c7 04 24 a2 21 03 00 	movl   $0x321a2,(%esp)
    3342:	89 44 24 04          	mov    %eax,0x4(%esp)
    3346:	e8 65 bf 01 00       	call   1f2b0 <printf>
    334b:	8b 85 c4 f7 ff ff    	mov    -0x83c(%ebp),%eax
    3351:	89 85 cc f7 ff ff    	mov    %eax,-0x834(%ebp)
    3357:	8d 85 d4 f7 ff ff    	lea    -0x82c(%ebp),%eax
    335d:	89 04 24             	mov    %eax,(%esp)
    3360:	c7 85 d0 f7 ff ff 00 	movl   $0x0,-0x830(%ebp)
    3367:	00 00 00 
    336a:	c7 85 e4 f7 ff ff 00 	movl   $0x0,-0x81c(%ebp)
    3371:	00 00 00 
    3374:	e8 e7 7e 01 00       	call   1b260 <fibril_mutex_initialize>
    3379:	89 3c 24             	mov    %edi,(%esp)
    337c:	e8 0f 86 00 00       	call   b990 <usb_hc_connection_open>
    3381:	85 c0                	test   %eax,%eax
    3383:	0f 85 b4 00 00 00    	jne    343d <list+0x25d>
    3389:	bb 01 00 00 00       	mov    $0x1,%ebx
    338e:	8d b5 c8 f7 ff ff    	lea    -0x838(%ebp),%esi
    3394:	eb 0b                	jmp    33a1 <list+0x1c1>
    3396:	66 90                	xchg   %ax,%ax
    3398:	43                   	inc    %ebx
    3399:	81 fb 80 00 00 00    	cmp    $0x80,%ebx
    339f:	74 5f                	je     3400 <list+0x220>
    33a1:	89 74 24 08          	mov    %esi,0x8(%esp)
    33a5:	89 5c 24 04          	mov    %ebx,0x4(%esp)
    33a9:	89 3c 24             	mov    %edi,(%esp)
    33ac:	e8 af 8a 00 00       	call   be60 <usb_hc_get_handle_by_address>
    33b1:	85 c0                	test   %eax,%eax
    33b3:	75 e3                	jne    3398 <list+0x1b8>
    33b5:	8d 85 e8 fb ff ff    	lea    -0x418(%ebp),%eax
    33bb:	c7 44 24 08 00 04 00 	movl   $0x400,0x8(%esp)
    33c2:	00 
    33c3:	89 44 24 04          	mov    %eax,0x4(%esp)
    33c7:	8b 85 c8 f7 ff ff    	mov    -0x838(%ebp),%eax
    33cd:	89 04 24             	mov    %eax,(%esp)
    33d0:	e8 4b 05 01 00       	call   13920 <devman_fun_get_path>
    33d5:	85 c0                	test   %eax,%eax
    33d7:	75 bf                	jne    3398 <list+0x1b8>
    33d9:	8d 85 e8 fb ff ff    	lea    -0x418(%ebp),%eax
    33df:	89 5c 24 04          	mov    %ebx,0x4(%esp)
    33e3:	89 44 24 08          	mov    %eax,0x8(%esp)
    33e7:	c7 04 24 ae 21 03 00 	movl   $0x321ae,(%esp)
    33ee:	43                   	inc    %ebx
    33ef:	e8 bc be 01 00       	call   1f2b0 <printf>
    33f4:	81 fb 80 00 00 00    	cmp    $0x80,%ebx
    33fa:	75 a5                	jne    33a1 <list+0x1c1>
    33fc:	8d 74 26 00          	lea    0x0(%esi,%eiz,1),%esi
    3400:	89 3c 24             	mov    %edi,(%esp)
    3403:	e8 38 86 00 00       	call   ba40 <usb_hc_connection_close>
    3408:	e9 84 fe ff ff       	jmp    3291 <list+0xb1>
    340d:	8b 85 bc f7 ff ff    	mov    -0x844(%ebp),%eax
    3413:	89 04 24             	mov    %eax,(%esp)
    3416:	e8 f5 12 02 00       	call   24710 <free>
    341b:	81 c4 5c 08 00 00    	add    $0x85c,%esp
    3421:	5b                   	pop    %ebx
    3422:	5e                   	pop    %esi
    3423:	5f                   	pop    %edi
    3424:	5d                   	pop    %ebp
    3425:	c3                   	ret    
    3426:	c7 04 24 ec 21 03 00 	movl   $0x321ec,(%esp)
    342d:	e8 7e be 01 00       	call   1f2b0 <printf>
    3432:	81 c4 5c 08 00 00    	add    $0x85c,%esp
    3438:	5b                   	pop    %ebx
    3439:	5e                   	pop    %esi
    343a:	5f                   	pop    %edi
    343b:	5d                   	pop    %ebp
    343c:	c3                   	ret    
    343d:	89 04 24             	mov    %eax,(%esp)
    3440:	e8 9b 73 01 00       	call   1a7e0 <str_error>
    3445:	c7 04 24 9c 22 03 00 	movl   $0x3229c,(%esp)
    344c:	89 44 24 04          	mov    %eax,0x4(%esp)
    3450:	e8 5b be 01 00       	call   1f2b0 <printf>
    3455:	e9 37 fe ff ff       	jmp    3291 <list+0xb1>
    345a:	66 90                	xchg   %ax,%ax
    345c:	66 90                	xchg   %ax,%ax
    345e:	66 90                	xchg   %ax,%ax

00003460 <print_usage>:
    3460:	55                   	push   %ebp
    3461:	89 e5                	mov    %esp,%ebp
    3463:	53                   	push   %ebx
    3464:	83 ec 14             	sub    $0x14,%esp
    3467:	89 c3                	mov    %eax,%ebx
    3469:	c7 04 24 c4 22 03 00 	movl   $0x322c4,(%esp)
    3470:	e8 3b be 01 00       	call   1f2b0 <printf>
    3475:	89 5c 24 04          	mov    %ebx,0x4(%esp)
    3479:	c7 04 24 f4 22 03 00 	movl   $0x322f4,(%esp)
    3480:	e8 2b be 01 00       	call   1f2b0 <printf>
    3485:	c7 04 24 2c 23 03 00 	movl   $0x3232c,(%esp)
    348c:	e8 1f be 01 00       	call   1f2b0 <printf>
    3491:	c7 04 24 5c 23 03 00 	movl   $0x3235c,(%esp)
    3498:	e8 13 be 01 00       	call   1f2b0 <printf>
    349d:	c7 04 24 9c 23 03 00 	movl   $0x3239c,(%esp)
    34a4:	e8 07 be 01 00       	call   1f2b0 <printf>
    34a9:	c7 04 24 d8 23 03 00 	movl   $0x323d8,(%esp)
    34b0:	e8 fb bd 01 00       	call   1f2b0 <printf>
    34b5:	c7 04 24 10 24 03 00 	movl   $0x32410,(%esp)
    34bc:	e8 ef bd 01 00       	call   1f2b0 <printf>
    34c1:	c7 04 24 5c 24 03 00 	movl   $0x3245c,(%esp)
    34c8:	e8 e3 bd 01 00       	call   1f2b0 <printf>
    34cd:	c7 04 24 a0 24 03 00 	movl   $0x324a0,(%esp)
    34d4:	e8 d7 bd 01 00       	call   1f2b0 <printf>
    34d9:	c7 04 24 ec 24 03 00 	movl   $0x324ec,(%esp)
    34e0:	e8 cb bd 01 00       	call   1f2b0 <printf>
    34e5:	c7 04 24 2c 25 03 00 	movl   $0x3252c,(%esp)
    34ec:	e8 bf bd 01 00       	call   1f2b0 <printf>
    34f1:	c7 04 24 78 25 03 00 	movl   $0x32578,(%esp)
    34f8:	e8 b3 bd 01 00       	call   1f2b0 <printf>
    34fd:	c7 04 24 c0 25 03 00 	movl   $0x325c0,(%esp)
    3504:	e8 a7 bd 01 00       	call   1f2b0 <printf>
    3509:	c7 04 24 fc 25 03 00 	movl   $0x325fc,(%esp)
    3510:	e8 9b bd 01 00       	call   1f2b0 <printf>
    3515:	c7 04 24 3c 26 03 00 	movl   $0x3263c,(%esp)
    351c:	e8 8f bd 01 00       	call   1f2b0 <printf>
    3521:	c7 04 24 47 39 03 00 	movl   $0x33947,(%esp)
    3528:	e8 83 bd 01 00       	call   1f2b0 <printf>
    352d:	c7 04 24 84 26 03 00 	movl   $0x32684,(%esp)
    3534:	e8 77 bd 01 00       	call   1f2b0 <printf>
    3539:	c7 04 24 47 39 03 00 	movl   $0x33947,(%esp)
    3540:	e8 6b bd 01 00       	call   1f2b0 <printf>
    3545:	83 c4 14             	add    $0x14,%esp
    3548:	5b                   	pop    %ebx
    3549:	5d                   	pop    %ebp
    354a:	c3                   	ret    
    354b:	66 90                	xchg   %ax,%ax
    354d:	66 90                	xchg   %ax,%ax
    354f:	90                   	nop

00003550 <main>:
    3550:	55                   	push   %ebp
    3551:	89 e5                	mov    %esp,%ebp
    3553:	57                   	push   %edi
    3554:	56                   	push   %esi
    3555:	53                   	push   %ebx
    3556:	83 e4 f0             	and    $0xfffffff0,%esp
    3559:	83 ec 30             	sub    $0x30,%esp
    355c:	83 7d 08 01          	cmpl   $0x1,0x8(%ebp)
    3560:	0f 8e be 01 00 00    	jle    3724 <main+0x1d4>
    3566:	31 f6                	xor    %esi,%esi
    3568:	8b 5d 08             	mov    0x8(%ebp),%ebx
    356b:	8b 55 0c             	mov    0xc(%ebp),%edx
    356e:	c7 44 24 10 00 00 00 	movl   $0x0,0x10(%esp)
    3575:	00 
    3576:	c7 44 24 0c 80 67 03 	movl   $0x36780,0xc(%esp)
    357d:	00 
    357e:	c7 44 24 08 fa 26 03 	movl   $0x326fa,0x8(%esp)
    3585:	00 
    3586:	89 54 24 04          	mov    %edx,0x4(%esp)
    358a:	89 1c 24             	mov    %ebx,(%esp)
    358d:	e8 1e 73 02 00       	call   2a8b0 <getopt_long>
    3592:	83 f8 68             	cmp    $0x68,%eax
    3595:	0f 84 51 01 00 00    	je     36ec <main+0x19c>
    359b:	7f 23                	jg     35c0 <main+0x70>
    359d:	83 f8 ff             	cmp    $0xffffffff,%eax
    35a0:	74 60                	je     3602 <main+0xb2>
    35a2:	83 f8 3f             	cmp    $0x3f,%eax
    35a5:	75 22                	jne    35c9 <main+0x79>
    35a7:	8b 55 0c             	mov    0xc(%ebp),%edx
    35aa:	8b 02                	mov    (%edx),%eax
    35ac:	e8 af fe ff ff       	call   3460 <print_usage>
    35b1:	b8 01 00 00 00       	mov    $0x1,%eax
    35b6:	8d 65 f4             	lea    -0xc(%ebp),%esp
    35b9:	5b                   	pop    %ebx
    35ba:	5e                   	pop    %esi
    35bb:	5f                   	pop    %edi
    35bc:	5d                   	pop    %ebp
    35bd:	c3                   	ret    
    35be:	66 90                	xchg   %ax,%ax
    35c0:	83 f8 6c             	cmp    $0x6c,%eax
    35c3:	0f 84 34 01 00 00    	je     36fd <main+0x1ad>
    35c9:	8b 15 40 68 03 00    	mov    0x36840,%edx
    35cf:	85 d2                	test   %edx,%edx
    35d1:	74 27                	je     35fa <main+0xaa>
    35d3:	39 d0                	cmp    %edx,%eax
    35d5:	0f 84 2c 01 00 00    	je     3707 <main+0x1b7>
    35db:	ba 4c 68 03 00       	mov    $0x3684c,%edx
    35e0:	31 ff                	xor    %edi,%edi
    35e2:	eb 0f                	jmp    35f3 <main+0xa3>
    35e4:	8d 74 26 00          	lea    0x0(%esi,%eiz,1),%esi
    35e8:	83 c2 0c             	add    $0xc,%edx
    35eb:	39 c8                	cmp    %ecx,%eax
    35ed:	0f 84 16 01 00 00    	je     3709 <main+0x1b9>
    35f3:	8b 0a                	mov    (%edx),%ecx
    35f5:	47                   	inc    %edi
    35f6:	85 c9                	test   %ecx,%ecx
    35f8:	75 ee                	jne    35e8 <main+0x98>
    35fa:	85 c0                	test   %eax,%eax
    35fc:	0f 8f 69 ff ff ff    	jg     356b <main+0x1b>
    3602:	89 f0                	mov    %esi,%eax
    3604:	84 c0                	test   %al,%al
    3606:	75 07                	jne    360f <main+0xbf>
    3608:	c6 05 48 68 03 00 01 	movb   $0x1,0x36848
    360f:	8b 35 74 6d 03 00    	mov    0x36d74,%esi
    3615:	39 75 08             	cmp    %esi,0x8(%ebp)
    3618:	7f 29                	jg     3643 <main+0xf3>
    361a:	e9 fe 00 00 00       	jmp    371d <main+0x1cd>
    361f:	90                   	nop
    3620:	a1 50 6e 03 00       	mov    0x36e50,%eax
    3625:	89 7c 24 08          	mov    %edi,0x8(%esp)
    3629:	c7 44 24 04 bc 26 03 	movl   $0x326bc,0x4(%esp)
    3630:	00 
    3631:	89 04 24             	mov    %eax,(%esp)
    3634:	e8 47 bc 01 00       	call   1f280 <fprintf>
    3639:	46                   	inc    %esi
    363a:	3b 75 08             	cmp    0x8(%ebp),%esi
    363d:	0f 84 da 00 00 00    	je     371d <main+0x1cd>
    3643:	8b 55 0c             	mov    0xc(%ebp),%edx
    3646:	8d 44 24 2a          	lea    0x2a(%esp),%eax
    364a:	c7 44 24 2c 00 00 00 	movl   $0x0,0x2c(%esp)
    3651:	00 
    3652:	66 c7 44 24 2a 00 00 	movw   $0x0,0x2a(%esp)
    3659:	8b 3c b2             	mov    (%edx,%esi,4),%edi
    365c:	8d 54 24 2c          	lea    0x2c(%esp),%edx
    3660:	c7 44 24 0c 00 00 00 	movl   $0x0,0xc(%esp)
    3667:	00 
    3668:	89 44 24 08          	mov    %eax,0x8(%esp)
    366c:	89 54 24 04          	mov    %edx,0x4(%esp)
    3670:	89 3c 24             	mov    %edi,(%esp)
    3673:	e8 38 69 00 00       	call   9fb0 <usb_resolve_device_handle>
    3678:	85 c0                	test   %eax,%eax
    367a:	75 a4                	jne    3620 <main+0xd0>
    367c:	0f bf 44 24 2a       	movswl 0x2a(%esp),%eax
    3681:	89 44 24 08          	mov    %eax,0x8(%esp)
    3685:	8b 44 24 2c          	mov    0x2c(%esp),%eax
    3689:	89 44 24 04          	mov    %eax,0x4(%esp)
    368d:	89 3c 24             	mov    %edi,(%esp)
    3690:	e8 4b de ff ff       	call   14e0 <prepare_device>
    3695:	89 c3                	mov    %eax,%ebx
    3697:	85 c0                	test   %eax,%eax
    3699:	74 9e                	je     3639 <main+0xe9>
    369b:	89 7c 24 04          	mov    %edi,0x4(%esp)
    369f:	c7 04 24 bd 21 03 00 	movl   $0x321bd,(%esp)
    36a6:	e8 05 bc 01 00       	call   1f2b0 <printf>
    36ab:	bf 48 68 03 00       	mov    $0x36848,%edi
    36b0:	83 3d 40 68 03 00 00 	cmpl   $0x0,0x36840
    36b7:	75 11                	jne    36ca <main+0x17a>
    36b9:	eb 24                	jmp    36df <main+0x18f>
    36bb:	90                   	nop
    36bc:	8d 74 26 00          	lea    0x0(%esi,%eiz,1),%esi
    36c0:	83 c7 0c             	add    $0xc,%edi
    36c3:	8b 47 f8             	mov    -0x8(%edi),%eax
    36c6:	85 c0                	test   %eax,%eax
    36c8:	74 15                	je     36df <main+0x18f>
    36ca:	80 3f 00             	cmpb   $0x0,(%edi)
    36cd:	74 f1                	je     36c0 <main+0x170>
    36cf:	89 1c 24             	mov    %ebx,(%esp)
    36d2:	ff 57 fc             	call   *-0x4(%edi)
    36d5:	83 c7 0c             	add    $0xc,%edi
    36d8:	8b 47 f8             	mov    -0x8(%edi),%eax
    36db:	85 c0                	test   %eax,%eax
    36dd:	75 eb                	jne    36ca <main+0x17a>
    36df:	89 1c 24             	mov    %ebx,(%esp)
    36e2:	e8 29 e0 ff ff       	call   1710 <destroy_device>
    36e7:	e9 4d ff ff ff       	jmp    3639 <main+0xe9>
    36ec:	8b 55 0c             	mov    0xc(%ebp),%edx
    36ef:	8b 02                	mov    (%edx),%eax
    36f1:	e8 6a fd ff ff       	call   3460 <print_usage>
    36f6:	31 c0                	xor    %eax,%eax
    36f8:	e9 b9 fe ff ff       	jmp    35b6 <main+0x66>
    36fd:	e8 de fa ff ff       	call   31e0 <list>
    3702:	e9 64 fe ff ff       	jmp    356b <main+0x1b>
    3707:	31 ff                	xor    %edi,%edi
    3709:	6b ff 0c             	imul   $0xc,%edi,%edi
    370c:	be 01 00 00 00       	mov    $0x1,%esi
    3711:	c6 87 48 68 03 00 01 	movb   $0x1,0x36848(%edi)
    3718:	e9 dd fe ff ff       	jmp    35fa <main+0xaa>
    371d:	31 c0                	xor    %eax,%eax
    371f:	e9 92 fe ff ff       	jmp    35b6 <main+0x66>
    3724:	8b 55 0c             	mov    0xc(%ebp),%edx
    3727:	8b 02                	mov    (%edx),%eax
    3729:	e8 32 fd ff ff       	call   3460 <print_usage>
    372e:	83 c8 ff             	or     $0xffffffff,%eax
    3731:	e9 80 fe ff ff       	jmp    35b6 <main+0x66>
    3736:	66 90                	xchg   %ax,%ax
    3738:	66 90                	xchg   %ax,%ax
    373a:	66 90                	xchg   %ax,%ax
    373c:	66 90                	xchg   %ax,%ax
    373e:	66 90                	xchg   %ax,%ax

00003740 <usb_hid_report_path_try_insert>:
    3740:	55                   	push   %ebp
    3741:	89 e5                	mov    %esp,%ebp
    3743:	57                   	push   %edi
    3744:	56                   	push   %esi
    3745:	53                   	push   %ebx
    3746:	83 ec 2c             	sub    $0x2c,%esp
    3749:	8b 55 08             	mov    0x8(%ebp),%edx
    374c:	8b 5d 0c             	mov    0xc(%ebp),%ebx
    374f:	85 db                	test   %ebx,%ebx
    3751:	8b 72 10             	mov    0x10(%edx),%esi
    3754:	0f 84 7e 00 00 00    	je     37d8 <usb_hid_report_path_try_insert+0x98>
    375a:	89 d1                	mov    %edx,%ecx
    375c:	83 c1 0c             	add    $0xc,%ecx
    375f:	89 4d e4             	mov    %ecx,-0x1c(%ebp)
    3762:	39 ce                	cmp    %ecx,%esi
    3764:	75 0a                	jne    3770 <usb_hid_report_path_try_insert+0x30>
    3766:	eb 38                	jmp    37a0 <usb_hid_report_path_try_insert+0x60>
    3768:	8b 76 04             	mov    0x4(%esi),%esi
    376b:	39 75 e4             	cmp    %esi,-0x1c(%ebp)
    376e:	74 30                	je     37a0 <usb_hid_report_path_try_insert+0x60>
    3770:	8d 7e f8             	lea    -0x8(%esi),%edi
    3773:	c7 44 24 08 00 00 00 	movl   $0x0,0x8(%esp)
    377a:	00 
    377b:	89 5c 24 04          	mov    %ebx,0x4(%esp)
    377f:	89 3c 24             	mov    %edi,(%esp)
    3782:	e8 09 26 00 00       	call   5d90 <usb_hid_report_compare_usage_path>
    3787:	85 c0                	test   %eax,%eax
    3789:	75 dd                	jne    3768 <usb_hid_report_path_try_insert+0x28>
    378b:	39 75 e4             	cmp    %esi,-0x1c(%ebp)
    378e:	74 10                	je     37a0 <usb_hid_report_path_try_insert+0x60>
    3790:	83 c4 2c             	add    $0x2c,%esp
    3793:	89 f8                	mov    %edi,%eax
    3795:	5b                   	pop    %ebx
    3796:	5e                   	pop    %esi
    3797:	5f                   	pop    %edi
    3798:	5d                   	pop    %ebp
    3799:	c3                   	ret    
    379a:	8d b6 00 00 00 00    	lea    0x0(%esi),%esi
    37a0:	89 1c 24             	mov    %ebx,(%esp)
    37a3:	e8 a8 29 00 00       	call   6150 <usb_hid_report_path_clone>
    37a8:	89 c7                	mov    %eax,%edi
    37aa:	85 c0                	test   %eax,%eax
    37ac:	74 2a                	je     37d8 <usb_hid_report_path_try_insert+0x98>
    37ae:	8b 4d 08             	mov    0x8(%ebp),%ecx
    37b1:	8b 55 e4             	mov    -0x1c(%ebp),%edx
    37b4:	89 57 0c             	mov    %edx,0xc(%edi)
    37b7:	8d 40 08             	lea    0x8(%eax),%eax
    37ba:	8b 51 0c             	mov    0xc(%ecx),%edx
    37bd:	89 57 08             	mov    %edx,0x8(%edi)
    37c0:	8b 51 0c             	mov    0xc(%ecx),%edx
    37c3:	89 41 0c             	mov    %eax,0xc(%ecx)
    37c6:	89 42 04             	mov    %eax,0x4(%edx)
    37c9:	8b 41 14             	mov    0x14(%ecx),%eax
    37cc:	40                   	inc    %eax
    37cd:	89 41 14             	mov    %eax,0x14(%ecx)
    37d0:	eb be                	jmp    3790 <usb_hid_report_path_try_insert+0x50>
    37d2:	8d b6 00 00 00 00    	lea    0x0(%esi),%esi
    37d8:	83 c4 2c             	add    $0x2c,%esp
    37db:	31 ff                	xor    %edi,%edi
    37dd:	89 f8                	mov    %edi,%eax
    37df:	5b                   	pop    %ebx
    37e0:	5e                   	pop    %esi
    37e1:	5f                   	pop    %edi
    37e2:	5d                   	pop    %ebp
    37e3:	c3                   	ret    
    37e4:	8d b6 00 00 00 00    	lea    0x0(%esi),%esi
    37ea:	8d bf 00 00 00 00    	lea    0x0(%edi),%edi

000037f0 <usb_hid_report_init>:
    37f0:	55                   	push   %ebp
    37f1:	89 e5                	mov    %esp,%ebp
    37f3:	53                   	push   %ebx
    37f4:	83 ec 14             	sub    $0x14,%esp
    37f7:	8b 5d 08             	mov    0x8(%ebp),%ebx
    37fa:	85 db                	test   %ebx,%ebx
    37fc:	74 3a                	je     3838 <usb_hid_report_init+0x48>
    37fe:	c7 44 24 08 20 00 00 	movl   $0x20,0x8(%esp)
    3805:	00 
    3806:	c7 44 24 04 00 00 00 	movl   $0x0,0x4(%esp)
    380d:	00 
    380e:	89 1c 24             	mov    %ebx,(%esp)
    3811:	e8 5a 37 01 00       	call   16f70 <memset>
    3816:	8d 43 04             	lea    0x4(%ebx),%eax
    3819:	89 43 04             	mov    %eax,0x4(%ebx)
    381c:	89 43 08             	mov    %eax,0x8(%ebx)
    381f:	8d 43 0c             	lea    0xc(%ebx),%eax
    3822:	c7 43 18 00 00 00 00 	movl   $0x0,0x18(%ebx)
    3829:	89 43 0c             	mov    %eax,0xc(%ebx)
    382c:	89 43 10             	mov    %eax,0x10(%ebx)
    382f:	31 c0                	xor    %eax,%eax
    3831:	83 c4 14             	add    $0x14,%esp
    3834:	5b                   	pop    %ebx
    3835:	5d                   	pop    %ebp
    3836:	c3                   	ret    
    3837:	90                   	nop
    3838:	b8 f2 ff ff ff       	mov    $0xfffffff2,%eax
    383d:	eb f2                	jmp    3831 <usb_hid_report_init+0x41>
    383f:	90                   	nop

00003840 <usb_hid_report_append_fields>:
    3840:	55                   	push   %ebp
    3841:	89 e5                	mov    %esp,%ebp
    3843:	57                   	push   %edi
    3844:	56                   	push   %esi
    3845:	53                   	push   %ebx
    3846:	83 ec 4c             	sub    $0x4c,%esp
    3849:	8b 75 0c             	mov    0xc(%ebp),%esi
    384c:	85 f6                	test   %esi,%esi
    384e:	0f 84 58 04 00 00    	je     3cac <usb_hid_report_append_fields+0x46c>
    3854:	8b 45 08             	mov    0x8(%ebp),%eax
    3857:	85 c0                	test   %eax,%eax
    3859:	0f 84 4d 04 00 00    	je     3cac <usb_hid_report_append_fields+0x46c>
    385f:	8b 86 04 00 04 00    	mov    0x40004(%esi),%eax
    3865:	c7 45 cc 00 00 00 00 	movl   $0x0,-0x34(%ebp)
    386c:	85 c0                	test   %eax,%eax
    386e:	7e 2d                	jle    389d <usb_hid_report_append_fields+0x5d>
    3870:	c1 e0 02             	shl    $0x2,%eax
    3873:	89 04 24             	mov    %eax,(%esp)
    3876:	e8 85 0d 02 00       	call   24600 <malloc>
    387b:	89 45 cc             	mov    %eax,-0x34(%ebp)
    387e:	8b 86 04 00 04 00    	mov    0x40004(%esi),%eax
    3884:	c1 e0 02             	shl    $0x2,%eax
    3887:	89 44 24 08          	mov    %eax,0x8(%esp)
    388b:	8d 46 08             	lea    0x8(%esi),%eax
    388e:	89 44 24 04          	mov    %eax,0x4(%esp)
    3892:	8b 45 cc             	mov    -0x34(%ebp),%eax
    3895:	89 04 24             	mov    %eax,(%esp)
    3898:	e8 53 38 01 00       	call   170f0 <memcpy>
    389d:	8b 96 58 00 04 00    	mov    0x40058(%esi),%edx
    38a3:	8b 86 20 00 04 00    	mov    0x40020(%esi),%eax
    38a9:	89 55 d8             	mov    %edx,-0x28(%ebp)
    38ac:	85 c0                	test   %eax,%eax
    38ae:	0f 8e d8 03 00 00    	jle    3c8c <usb_hid_report_append_fields+0x44c>
    38b4:	8b 4d 08             	mov    0x8(%ebp),%ecx
    38b7:	8b 7d 08             	mov    0x8(%ebp),%edi
    38ba:	83 c1 0c             	add    $0xc,%ecx
    38bd:	83 c7 04             	add    $0x4,%edi
    38c0:	c7 45 c8 00 00 00 00 	movl   $0x0,-0x38(%ebp)
    38c7:	c7 45 e0 00 00 00 00 	movl   $0x0,-0x20(%ebp)
    38ce:	89 4d e4             	mov    %ecx,-0x1c(%ebp)
    38d1:	89 7d d4             	mov    %edi,-0x2c(%ebp)
    38d4:	8d 74 26 00          	lea    0x0(%esi,%eiz,1),%esi
    38d8:	c7 04 24 48 00 00 00 	movl   $0x48,(%esp)
    38df:	e8 1c 0d 02 00       	call   24600 <malloc>
    38e4:	89 c3                	mov    %eax,%ebx
    38e6:	85 c0                	test   %eax,%eax
    38e8:	0f 84 91 03 00 00    	je     3c7f <usb_hid_report_append_fields+0x43f>
    38ee:	c7 44 24 08 48 00 00 	movl   $0x48,0x8(%esp)
    38f5:	00 
    38f6:	c7 44 24 04 00 00 00 	movl   $0x0,0x4(%esp)
    38fd:	00 
    38fe:	89 04 24             	mov    %eax,(%esp)
    3901:	e8 6a 36 01 00       	call   16f70 <memset>
    3906:	8b 86 14 00 04 00    	mov    0x40014(%esi),%eax
    390c:	89 43 14             	mov    %eax,0x14(%ebx)
    390f:	8b 86 18 00 04 00    	mov    0x40018(%esi),%eax
    3915:	89 43 18             	mov    %eax,0x18(%ebx)
    3918:	8b 86 48 00 04 00    	mov    0x40048(%esi),%eax
    391e:	89 43 1c             	mov    %eax,0x1c(%ebx)
    3921:	8b 86 4c 00 04 00    	mov    0x4004c(%esi),%eax
    3927:	c7 43 40 00 00 00 00 	movl   $0x0,0x40(%ebx)
    392e:	c7 43 44 00 00 00 00 	movl   $0x0,0x44(%ebx)
    3935:	89 43 20             	mov    %eax,0x20(%ebx)
    3938:	f6 86 50 00 04 00 02 	testb  $0x2,0x40050(%esi)
    393f:	0f 85 2b 02 00 00    	jne    3b70 <usb_hid_report_append_fields+0x330>
    3945:	8b 86 04 00 04 00    	mov    0x40004(%esi),%eax
    394b:	66 c7 43 0a 00 00    	movw   $0x0,0xa(%ebx)
    3951:	89 43 38             	mov    %eax,0x38(%ebx)
    3954:	8b 45 cc             	mov    -0x34(%ebp),%eax
    3957:	89 43 34             	mov    %eax,0x34(%ebx)
    395a:	66 c7 43 08 00 00    	movw   $0x0,0x8(%ebx)
    3960:	31 c0                	xor    %eax,%eax
    3962:	c7 45 c8 01 00 00 00 	movl   $0x1,-0x38(%ebp)
    3969:	8b 4d d8             	mov    -0x28(%ebp),%ecx
    396c:	89 44 24 08          	mov    %eax,0x8(%esp)
    3970:	89 0c 24             	mov    %ecx,(%esp)
    3973:	c7 44 24 04 01 00 00 	movl   $0x1,0x4(%esp)
    397a:	00 
    397b:	e8 f0 22 00 00       	call   5c70 <usb_hid_report_set_last_item>
    3980:	66 8b 43 0a          	mov    0xa(%ebx),%ax
    3984:	25 ff ff 00 00       	and    $0xffff,%eax
    3989:	8b 7d d8             	mov    -0x28(%ebp),%edi
    398c:	89 44 24 08          	mov    %eax,0x8(%esp)
    3990:	89 3c 24             	mov    %edi,(%esp)
    3993:	c7 44 24 04 02 00 00 	movl   $0x2,0x4(%esp)
    399a:	00 
    399b:	e8 d0 22 00 00       	call   5c70 <usb_hid_report_set_last_item>
    39a0:	8b 55 08             	mov    0x8(%ebp),%edx
    39a3:	8b 45 d8             	mov    -0x28(%ebp),%eax
    39a6:	8b 7a 10             	mov    0x10(%edx),%edi
    39a9:	85 c0                	test   %eax,%eax
    39ab:	0f 84 c7 02 00 00    	je     3c78 <usb_hid_report_append_fields+0x438>
    39b1:	3b 7d e4             	cmp    -0x1c(%ebp),%edi
    39b4:	0f 84 1c 02 00 00    	je     3bd6 <usb_hid_report_append_fields+0x396>
    39ba:	89 5d dc             	mov    %ebx,-0x24(%ebp)
    39bd:	89 75 d0             	mov    %esi,-0x30(%ebp)
    39c0:	89 fb                	mov    %edi,%ebx
    39c2:	8b 7d d8             	mov    -0x28(%ebp),%edi
    39c5:	eb 0d                	jmp    39d4 <usb_hid_report_append_fields+0x194>
    39c7:	90                   	nop
    39c8:	8b 5b 04             	mov    0x4(%ebx),%ebx
    39cb:	3b 5d e4             	cmp    -0x1c(%ebp),%ebx
    39ce:	0f 84 fc 01 00 00    	je     3bd0 <usb_hid_report_append_fields+0x390>
    39d4:	8d 73 f8             	lea    -0x8(%ebx),%esi
    39d7:	c7 44 24 08 00 00 00 	movl   $0x0,0x8(%esp)
    39de:	00 
    39df:	89 7c 24 04          	mov    %edi,0x4(%esp)
    39e3:	89 34 24             	mov    %esi,(%esp)
    39e6:	e8 a5 23 00 00       	call   5d90 <usb_hid_report_compare_usage_path>
    39eb:	85 c0                	test   %eax,%eax
    39ed:	75 d9                	jne    39c8 <usb_hid_report_append_fields+0x188>
    39ef:	89 df                	mov    %ebx,%edi
    39f1:	89 f2                	mov    %esi,%edx
    39f3:	8b 5d dc             	mov    -0x24(%ebp),%ebx
    39f6:	8b 75 d0             	mov    -0x30(%ebp),%esi
    39f9:	3b 7d e4             	cmp    -0x1c(%ebp),%edi
    39fc:	0f 84 d4 01 00 00    	je     3bd6 <usb_hid_report_append_fields+0x396>
    3a02:	89 53 10             	mov    %edx,0x10(%ebx)
    3a05:	8b 96 1c 00 04 00    	mov    0x4001c(%esi),%edx
    3a0b:	89 53 04             	mov    %edx,0x4(%ebx)
    3a0e:	83 be 54 00 04 00 01 	cmpl   $0x1,0x40054(%esi)
    3a15:	0f 84 fd 01 00 00    	je     3c18 <usb_hid_report_append_fields+0x3d8>
    3a1b:	8b 45 e0             	mov    -0x20(%ebp),%eax
    3a1e:	0f af c2             	imul   %edx,%eax
    3a21:	8b 96 24 00 04 00    	mov    0x40024(%esi),%edx
    3a27:	01 d0                	add    %edx,%eax
    3a29:	89 03                	mov    %eax,(%ebx)
    3a2b:	8b 55 08             	mov    0x8(%ebp),%edx
    3a2e:	8b 7a 18             	mov    0x18(%edx),%edi
    3a31:	85 ff                	test   %edi,%edi
    3a33:	74 0c                	je     3a41 <usb_hid_report_append_fields+0x201>
    3a35:	83 c0 08             	add    $0x8,%eax
    3a38:	89 03                	mov    %eax,(%ebx)
    3a3a:	c7 42 18 01 00 00 00 	movl   $0x1,0x18(%edx)
    3a41:	8a 8e 50 00 04 00    	mov    0x40050(%esi),%cl
    3a47:	8b 7d 08             	mov    0x8(%ebp),%edi
    3a4a:	88 4b 0c             	mov    %cl,0xc(%ebx)
    3a4d:	8b 57 08             	mov    0x8(%edi),%edx
    3a50:	8b 86 54 00 04 00    	mov    0x40054(%esi),%eax
    3a56:	8a 0e                	mov    (%esi),%cl
    3a58:	3b 55 d4             	cmp    -0x2c(%ebp),%edx
    3a5b:	0f 84 8a 00 00 00    	je     3aeb <usb_hid_report_append_fields+0x2ab>
    3a61:	84 c9                	test   %cl,%cl
    3a63:	0f 84 3f 01 00 00    	je     3ba8 <usb_hid_report_append_fields+0x368>
    3a69:	89 5d dc             	mov    %ebx,-0x24(%ebp)
    3a6c:	8b 5d d4             	mov    -0x2c(%ebp),%ebx
    3a6f:	eb 0e                	jmp    3a7f <usb_hid_report_append_fields+0x23f>
    3a71:	8d b4 26 00 00 00 00 	lea    0x0(%esi,%eiz,1),%esi
    3a78:	8b 52 04             	mov    0x4(%edx),%edx
    3a7b:	39 da                	cmp    %ebx,%edx
    3a7d:	74 69                	je     3ae8 <usb_hid_report_append_fields+0x2a8>
    3a7f:	8d 7a e8             	lea    -0x18(%edx),%edi
    3a82:	3a 4a e8             	cmp    -0x18(%edx),%cl
    3a85:	75 f1                	jne    3a78 <usb_hid_report_append_fields+0x238>
    3a87:	3b 47 04             	cmp    0x4(%edi),%eax
    3a8a:	75 ec                	jne    3a78 <usb_hid_report_append_fields+0x238>
    3a8c:	8b 5d dc             	mov    -0x24(%ebp),%ebx
    3a8f:	8d 42 f8             	lea    -0x8(%edx),%eax
    3a92:	89 43 44             	mov    %eax,0x44(%ebx)
    3a95:	8b 47 10             	mov    0x10(%edi),%eax
    3a98:	89 43 40             	mov    %eax,0x40(%ebx)
    3a9b:	8d 53 40             	lea    0x40(%ebx),%edx
    3a9e:	8b 47 10             	mov    0x10(%edi),%eax
    3aa1:	89 57 10             	mov    %edx,0x10(%edi)
    3aa4:	89 50 04             	mov    %edx,0x4(%eax)
    3aa7:	8b 43 04             	mov    0x4(%ebx),%eax
    3aaa:	8b 5f 08             	mov    0x8(%edi),%ebx
    3aad:	01 c3                	add    %eax,%ebx
    3aaf:	8b 47 0c             	mov    0xc(%edi),%eax
    3ab2:	40                   	inc    %eax
    3ab3:	89 5f 08             	mov    %ebx,0x8(%edi)
    3ab6:	89 47 0c             	mov    %eax,0xc(%edi)
    3ab9:	8b 45 e0             	mov    -0x20(%ebp),%eax
    3abc:	40                   	inc    %eax
    3abd:	89 45 e0             	mov    %eax,-0x20(%ebp)
    3ac0:	8b 4d e0             	mov    -0x20(%ebp),%ecx
    3ac3:	39 8e 20 00 04 00    	cmp    %ecx,0x40020(%esi)
    3ac9:	0f 8f 09 fe ff ff    	jg     38d8 <usb_hid_report_append_fields+0x98>
    3acf:	8b 4d c8             	mov    -0x38(%ebp),%ecx
    3ad2:	85 c9                	test   %ecx,%ecx
    3ad4:	0f 84 b2 01 00 00    	je     3c8c <usb_hid_report_append_fields+0x44c>
    3ada:	83 c4 4c             	add    $0x4c,%esp
    3add:	31 c0                	xor    %eax,%eax
    3adf:	5b                   	pop    %ebx
    3ae0:	5e                   	pop    %esi
    3ae1:	5f                   	pop    %edi
    3ae2:	5d                   	pop    %ebp
    3ae3:	c3                   	ret    
    3ae4:	8d 74 26 00          	lea    0x0(%esi,%eiz,1),%esi
    3ae8:	8b 5d dc             	mov    -0x24(%ebp),%ebx
    3aeb:	c7 04 24 20 00 00 00 	movl   $0x20,(%esp)
    3af2:	e8 09 0b 02 00       	call   24600 <malloc>
    3af7:	89 c7                	mov    %eax,%edi
    3af9:	85 c0                	test   %eax,%eax
    3afb:	0f 84 7e 01 00 00    	je     3c7f <usb_hid_report_append_fields+0x43f>
    3b01:	c7 44 24 08 20 00 00 	movl   $0x20,0x8(%esp)
    3b08:	00 
    3b09:	c7 44 24 04 00 00 00 	movl   $0x0,0x4(%esp)
    3b10:	00 
    3b11:	89 3c 24             	mov    %edi,(%esp)
    3b14:	e8 57 34 01 00       	call   16f70 <memset>
    3b19:	8b 86 54 00 04 00    	mov    0x40054(%esi),%eax
    3b1f:	89 47 04             	mov    %eax,0x4(%edi)
    3b22:	8b 06                	mov    (%esi),%eax
    3b24:	88 07                	mov    %al,(%edi)
    3b26:	84 c0                	test   %al,%al
    3b28:	74 07                	je     3b31 <usb_hid_report_append_fields+0x2f1>
    3b2a:	c7 47 08 08 00 00 00 	movl   $0x8,0x8(%edi)
    3b31:	8b 55 d4             	mov    -0x2c(%ebp),%edx
    3b34:	8d 47 10             	lea    0x10(%edi),%eax
    3b37:	89 57 1c             	mov    %edx,0x1c(%edi)
    3b3a:	8b 55 08             	mov    0x8(%ebp),%edx
    3b3d:	c7 47 18 00 00 00 00 	movl   $0x0,0x18(%edi)
    3b44:	89 47 10             	mov    %eax,0x10(%edi)
    3b47:	8b 52 04             	mov    0x4(%edx),%edx
    3b4a:	8d 4f 18             	lea    0x18(%edi),%ecx
    3b4d:	89 57 18             	mov    %edx,0x18(%edi)
    3b50:	8b 55 08             	mov    0x8(%ebp),%edx
    3b53:	89 47 14             	mov    %eax,0x14(%edi)
    3b56:	8b 52 04             	mov    0x4(%edx),%edx
    3b59:	89 4a 04             	mov    %ecx,0x4(%edx)
    3b5c:	8b 55 08             	mov    0x8(%ebp),%edx
    3b5f:	89 4a 04             	mov    %ecx,0x4(%edx)
    3b62:	8b 0a                	mov    (%edx),%ecx
    3b64:	41                   	inc    %ecx
    3b65:	89 0a                	mov    %ecx,(%edx)
    3b67:	e9 26 ff ff ff       	jmp    3a92 <usb_hid_report_append_fields+0x252>
    3b6c:	8d 74 26 00          	lea    0x0(%esi,%eiz,1),%esi
    3b70:	8b 86 04 00 04 00    	mov    0x40004(%esi),%eax
    3b76:	3b 45 e0             	cmp    -0x20(%ebp),%eax
    3b79:	0f 8e e9 00 00 00    	jle    3c68 <usb_hid_report_append_fields+0x428>
    3b7f:	8b 55 e0             	mov    -0x20(%ebp),%edx
    3b82:	8b 44 96 08          	mov    0x8(%esi,%edx,4),%eax
    3b86:	66 89 43 0a          	mov    %ax,0xa(%ebx)
    3b8a:	a9 00 00 ff ff       	test   $0xffff0000,%eax
    3b8f:	0f 84 bb 00 00 00    	je     3c50 <usb_hid_report_append_fields+0x410>
    3b95:	c1 e8 10             	shr    $0x10,%eax
    3b98:	66 89 43 08          	mov    %ax,0x8(%ebx)
    3b9c:	e9 c8 fd ff ff       	jmp    3969 <usb_hid_report_append_fields+0x129>
    3ba1:	8d b4 26 00 00 00 00 	lea    0x0(%esi,%eiz,1),%esi
    3ba8:	8b 4d d4             	mov    -0x2c(%ebp),%ecx
    3bab:	eb 0e                	jmp    3bbb <usb_hid_report_append_fields+0x37b>
    3bad:	8d 76 00             	lea    0x0(%esi),%esi
    3bb0:	8b 52 04             	mov    0x4(%edx),%edx
    3bb3:	39 ca                	cmp    %ecx,%edx
    3bb5:	0f 84 30 ff ff ff    	je     3aeb <usb_hid_report_append_fields+0x2ab>
    3bbb:	8d 7a e8             	lea    -0x18(%edx),%edi
    3bbe:	3b 47 04             	cmp    0x4(%edi),%eax
    3bc1:	75 ed                	jne    3bb0 <usb_hid_report_append_fields+0x370>
    3bc3:	8d 42 f8             	lea    -0x8(%edx),%eax
    3bc6:	e9 c7 fe ff ff       	jmp    3a92 <usb_hid_report_append_fields+0x252>
    3bcb:	90                   	nop
    3bcc:	8d 74 26 00          	lea    0x0(%esi,%eiz,1),%esi
    3bd0:	8b 5d dc             	mov    -0x24(%ebp),%ebx
    3bd3:	8b 75 d0             	mov    -0x30(%ebp),%esi
    3bd6:	8b 4d d8             	mov    -0x28(%ebp),%ecx
    3bd9:	89 0c 24             	mov    %ecx,(%esp)
    3bdc:	e8 6f 25 00 00       	call   6150 <usb_hid_report_path_clone>
    3be1:	89 c2                	mov    %eax,%edx
    3be3:	85 c0                	test   %eax,%eax
    3be5:	0f 84 8d 00 00 00    	je     3c78 <usb_hid_report_append_fields+0x438>
    3beb:	8b 7d e4             	mov    -0x1c(%ebp),%edi
    3bee:	8d 40 08             	lea    0x8(%eax),%eax
    3bf1:	89 7a 0c             	mov    %edi,0xc(%edx)
    3bf4:	8b 7d 08             	mov    0x8(%ebp),%edi
    3bf7:	8b 4f 0c             	mov    0xc(%edi),%ecx
    3bfa:	89 4a 08             	mov    %ecx,0x8(%edx)
    3bfd:	8b 4f 0c             	mov    0xc(%edi),%ecx
    3c00:	89 47 0c             	mov    %eax,0xc(%edi)
    3c03:	89 41 04             	mov    %eax,0x4(%ecx)
    3c06:	8b 47 14             	mov    0x14(%edi),%eax
    3c09:	40                   	inc    %eax
    3c0a:	89 47 14             	mov    %eax,0x14(%edi)
    3c0d:	e9 f0 fd ff ff       	jmp    3a02 <usb_hid_report_append_fields+0x1c2>
    3c12:	8d b6 00 00 00 00    	lea    0x0(%esi),%esi
    3c18:	8b 4d e0             	mov    -0x20(%ebp),%ecx
    3c1b:	8b be 24 00 04 00    	mov    0x40024(%esi),%edi
    3c21:	0f af ca             	imul   %edx,%ecx
    3c24:	01 f9                	add    %edi,%ecx
    3c26:	89 c8                	mov    %ecx,%eax
    3c28:	c1 f8 1f             	sar    $0x1f,%eax
    3c2b:	c1 e8 1d             	shr    $0x1d,%eax
    3c2e:	01 c8                	add    %ecx,%eax
    3c30:	c1 f8 03             	sar    $0x3,%eax
    3c33:	c1 e0 04             	shl    $0x4,%eax
    3c36:	83 c0 08             	add    $0x8,%eax
    3c39:	29 c8                	sub    %ecx,%eax
    3c3b:	29 d0                	sub    %edx,%eax
    3c3d:	0f 89 e6 fd ff ff    	jns    3a29 <usb_hid_report_append_fields+0x1e9>
    3c43:	c7 03 00 00 00 00    	movl   $0x0,(%ebx)
    3c49:	31 c0                	xor    %eax,%eax
    3c4b:	e9 db fd ff ff       	jmp    3a2b <usb_hid_report_append_fields+0x1eb>
    3c50:	8b 86 08 00 04 00    	mov    0x40008(%esi),%eax
    3c56:	66 89 43 08          	mov    %ax,0x8(%ebx)
    3c5a:	25 ff ff 00 00       	and    $0xffff,%eax
    3c5f:	e9 05 fd ff ff       	jmp    3969 <usb_hid_report_append_fields+0x129>
    3c64:	8d 74 26 00          	lea    0x0(%esi,%eiz,1),%esi
    3c68:	8b 44 86 04          	mov    0x4(%esi,%eax,4),%eax
    3c6c:	e9 15 ff ff ff       	jmp    3b86 <usb_hid_report_append_fields+0x346>
    3c71:	8d b4 26 00 00 00 00 	lea    0x0(%esi,%eiz,1),%esi
    3c78:	31 d2                	xor    %edx,%edx
    3c7a:	e9 83 fd ff ff       	jmp    3a02 <usb_hid_report_append_fields+0x1c2>
    3c7f:	b8 fe ff ff ff       	mov    $0xfffffffe,%eax
    3c84:	83 c4 4c             	add    $0x4c,%esp
    3c87:	5b                   	pop    %ebx
    3c88:	5e                   	pop    %esi
    3c89:	5f                   	pop    %edi
    3c8a:	5d                   	pop    %ebp
    3c8b:	c3                   	ret    
    3c8c:	8b 55 cc             	mov    -0x34(%ebp),%edx
    3c8f:	85 d2                	test   %edx,%edx
    3c91:	0f 84 43 fe ff ff    	je     3ada <usb_hid_report_append_fields+0x29a>
    3c97:	8b 45 cc             	mov    -0x34(%ebp),%eax
    3c9a:	89 04 24             	mov    %eax,(%esp)
    3c9d:	e8 6e 0a 02 00       	call   24710 <free>
    3ca2:	83 c4 4c             	add    $0x4c,%esp
    3ca5:	31 c0                	xor    %eax,%eax
    3ca7:	5b                   	pop    %ebx
    3ca8:	5e                   	pop    %esi
    3ca9:	5f                   	pop    %edi
    3caa:	5d                   	pop    %ebp
    3cab:	c3                   	ret    
    3cac:	b8 f2 ff ff ff       	mov    $0xfffffff2,%eax
    3cb1:	eb d1                	jmp    3c84 <usb_hid_report_append_fields+0x444>
    3cb3:	8d b6 00 00 00 00    	lea    0x0(%esi),%esi
    3cb9:	8d bc 27 00 00 00 00 	lea    0x0(%edi,%eiz,1),%edi

00003cc0 <usb_hid_report_find_description>:
    3cc0:	55                   	push   %ebp
    3cc1:	89 e5                	mov    %esp,%ebp
    3cc3:	56                   	push   %esi
    3cc4:	53                   	push   %ebx
    3cc5:	51                   	push   %ecx
    3cc6:	8b 4d 08             	mov    0x8(%ebp),%ecx
    3cc9:	8a 45 0c             	mov    0xc(%ebp),%al
    3ccc:	8b 5d 10             	mov    0x10(%ebp),%ebx
    3ccf:	88 45 f7             	mov    %al,-0x9(%ebp)
    3cd2:	85 c9                	test   %ecx,%ecx
    3cd4:	74 52                	je     3d28 <usb_hid_report_find_description+0x68>
    3cd6:	8b 51 08             	mov    0x8(%ecx),%edx
    3cd9:	8d 71 04             	lea    0x4(%ecx),%esi
    3cdc:	39 f2                	cmp    %esi,%edx
    3cde:	74 48                	je     3d28 <usb_hid_report_find_description+0x68>
    3ce0:	84 c0                	test   %al,%al
    3ce2:	74 33                	je     3d17 <usb_hid_report_find_description+0x57>
    3ce4:	8a 4d f7             	mov    -0x9(%ebp),%cl
    3ce7:	8d 42 e8             	lea    -0x18(%edx),%eax
    3cea:	38 4a e8             	cmp    %cl,-0x18(%edx)
    3ced:	74 13                	je     3d02 <usb_hid_report_find_description+0x42>
    3cef:	90                   	nop
    3cf0:	8b 52 04             	mov    0x4(%edx),%edx
    3cf3:	39 f2                	cmp    %esi,%edx
    3cf5:	74 31                	je     3d28 <usb_hid_report_find_description+0x68>
    3cf7:	8a 4d f7             	mov    -0x9(%ebp),%cl
    3cfa:	8d 42 e8             	lea    -0x18(%edx),%eax
    3cfd:	38 4a e8             	cmp    %cl,-0x18(%edx)
    3d00:	75 ee                	jne    3cf0 <usb_hid_report_find_description+0x30>
    3d02:	39 58 04             	cmp    %ebx,0x4(%eax)
    3d05:	75 e9                	jne    3cf0 <usb_hid_report_find_description+0x30>
    3d07:	5a                   	pop    %edx
    3d08:	5b                   	pop    %ebx
    3d09:	5e                   	pop    %esi
    3d0a:	5d                   	pop    %ebp
    3d0b:	c3                   	ret    
    3d0c:	8d 74 26 00          	lea    0x0(%esi,%eiz,1),%esi
    3d10:	8b 52 04             	mov    0x4(%edx),%edx
    3d13:	39 f2                	cmp    %esi,%edx
    3d15:	74 11                	je     3d28 <usb_hid_report_find_description+0x68>
    3d17:	8d 42 e8             	lea    -0x18(%edx),%eax
    3d1a:	39 58 04             	cmp    %ebx,0x4(%eax)
    3d1d:	75 f1                	jne    3d10 <usb_hid_report_find_description+0x50>
    3d1f:	eb e6                	jmp    3d07 <usb_hid_report_find_description+0x47>
    3d21:	8d b4 26 00 00 00 00 	lea    0x0(%esi,%eiz,1),%esi
    3d28:	5a                   	pop    %edx
    3d29:	31 c0                	xor    %eax,%eax
    3d2b:	5b                   	pop    %ebx
    3d2c:	5e                   	pop    %esi
    3d2d:	5d                   	pop    %ebp
    3d2e:	c3                   	ret    
    3d2f:	90                   	nop

00003d30 <usb_hid_report_parse_main_tag>:
    3d30:	55                   	push   %ebp
    3d31:	b8 02 00 00 00       	mov    $0x2,%eax
    3d36:	89 e5                	mov    %esp,%ebp
    3d38:	56                   	push   %esi
    3d39:	53                   	push   %ebx
    3d3a:	83 ec 10             	sub    $0x10,%esp
    3d3d:	8a 55 08             	mov    0x8(%ebp),%dl
    3d40:	8b 4d 0c             	mov    0xc(%ebp),%ecx
    3d43:	83 ea 08             	sub    $0x8,%edx
    3d46:	8b 5d 14             	mov    0x14(%ebp),%ebx
    3d49:	8b 75 18             	mov    0x18(%ebp),%esi
    3d4c:	80 fa 04             	cmp    $0x4,%dl
    3d4f:	0f 87 9a 00 00 00    	ja     3def <usb_hid_report_parse_main_tag+0xbf>
    3d55:	81 e2 ff 00 00 00    	and    $0xff,%edx
    3d5b:	ff 24 95 7c 27 03 00 	jmp    *0x3277c(,%edx,4)
    3d62:	8d b6 00 00 00 00    	lea    0x0(%esi),%esi
    3d68:	8b 46 14             	mov    0x14(%esi),%eax
    3d6b:	8d 56 10             	lea    0x10(%esi),%edx
    3d6e:	39 d0                	cmp    %edx,%eax
    3d70:	0f 84 b2 00 00 00    	je     3e28 <usb_hid_report_parse_main_tag+0xf8>
    3d76:	83 e8 0c             	sub    $0xc,%eax
    3d79:	8a 09                	mov    (%ecx),%cl
    3d7b:	88 48 08             	mov    %cl,0x8(%eax)
    3d7e:	8b 83 04 00 04 00    	mov    0x40004(%ebx),%eax
    3d84:	8b 44 83 04          	mov    0x4(%ebx,%eax,4),%eax
    3d88:	c7 44 24 04 01 00 00 	movl   $0x1,0x4(%esp)
    3d8f:	00 
    3d90:	c1 e8 10             	shr    $0x10,%eax
    3d93:	89 34 24             	mov    %esi,(%esp)
    3d96:	89 44 24 08          	mov    %eax,0x8(%esp)
    3d9a:	e8 d1 1e 00 00       	call   5c70 <usb_hid_report_set_last_item>
    3d9f:	8b 83 04 00 04 00    	mov    0x40004(%ebx),%eax
    3da5:	8b 44 83 04          	mov    0x4(%ebx,%eax,4),%eax
    3da9:	c7 44 24 04 02 00 00 	movl   $0x2,0x4(%esp)
    3db0:	00 
    3db1:	25 ff ff 00 00       	and    $0xffff,%eax
    3db6:	89 34 24             	mov    %esi,(%esp)
    3db9:	89 44 24 08          	mov    %eax,0x8(%esp)
    3dbd:	e8 ae 1e 00 00       	call   5c70 <usb_hid_report_set_last_item>
    3dc2:	8b 83 04 00 04 00    	mov    0x40004(%ebx),%eax
    3dc8:	8b 44 83 04          	mov    0x4(%ebx,%eax,4),%eax
    3dcc:	89 44 24 08          	mov    %eax,0x8(%esp)
    3dd0:	8b 83 08 00 04 00    	mov    0x40008(%ebx),%eax
    3dd6:	89 34 24             	mov    %esi,(%esp)
    3dd9:	89 44 24 04          	mov    %eax,0x4(%esp)
    3ddd:	e8 7e 1d 00 00       	call   5b60 <usb_hid_report_path_append_item>
    3de2:	89 1c 24             	mov    %ebx,(%esp)
    3de5:	e8 e6 1c 00 00       	call   5ad0 <usb_hid_report_reset_local_items>
    3dea:	b8 02 00 00 00       	mov    $0x2,%eax
    3def:	83 c4 10             	add    $0x10,%esp
    3df2:	5b                   	pop    %ebx
    3df3:	5e                   	pop    %esi
    3df4:	5d                   	pop    %ebp
    3df5:	c3                   	ret    
    3df6:	66 90                	xchg   %ax,%ax
    3df8:	8a 09                	mov    (%ecx),%cl
    3dfa:	31 c0                	xor    %eax,%eax
    3dfc:	88 8b 50 00 04 00    	mov    %cl,0x40050(%ebx)
    3e02:	83 c4 10             	add    $0x10,%esp
    3e05:	5b                   	pop    %ebx
    3e06:	5e                   	pop    %esi
    3e07:	5d                   	pop    %ebp
    3e08:	c3                   	ret    
    3e09:	8d b4 26 00 00 00 00 	lea    0x0(%esi,%eiz,1),%esi
    3e10:	89 34 24             	mov    %esi,(%esp)
    3e13:	e8 a8 1d 00 00       	call   5bc0 <usb_hid_report_remove_last_item>
    3e18:	83 c4 10             	add    $0x10,%esp
    3e1b:	b8 02 00 00 00       	mov    $0x2,%eax
    3e20:	5b                   	pop    %ebx
    3e21:	5e                   	pop    %esi
    3e22:	5d                   	pop    %ebp
    3e23:	c3                   	ret    
    3e24:	8d 74 26 00          	lea    0x0(%esi,%eiz,1),%esi
    3e28:	b8 f4 ff ff ff       	mov    $0xfffffff4,%eax
    3e2d:	e9 47 ff ff ff       	jmp    3d79 <usb_hid_report_parse_main_tag+0x49>
    3e32:	8d b4 26 00 00 00 00 	lea    0x0(%esi,%eiz,1),%esi
    3e39:	8d bc 27 00 00 00 00 	lea    0x0(%edi,%eiz,1),%edi

00003e40 <usb_hid_report_parse_global_tag>:
    3e40:	55                   	push   %ebp
    3e41:	b8 02 00 00 00       	mov    $0x2,%eax
    3e46:	89 e5                	mov    %esp,%ebp
    3e48:	57                   	push   %edi
    3e49:	56                   	push   %esi
    3e4a:	53                   	push   %ebx
    3e4b:	56                   	push   %esi
    3e4c:	8a 4d 08             	mov    0x8(%ebp),%cl
    3e4f:	8b 5d 0c             	mov    0xc(%ebp),%ebx
    3e52:	8b 55 10             	mov    0x10(%ebp),%edx
    3e55:	80 f9 0b             	cmp    $0xb,%cl
    3e58:	77 3e                	ja     3e98 <usb_hid_report_parse_global_tag+0x58>
    3e5a:	31 c0                	xor    %eax,%eax
    3e5c:	88 c8                	mov    %cl,%al
    3e5e:	ff 24 85 90 27 03 00 	jmp    *0x32790(,%eax,4)
    3e65:	8d 76 00             	lea    0x0(%esi),%esi
    3e68:	31 ff                	xor    %edi,%edi
    3e6a:	31 c0                	xor    %eax,%eax
    3e6c:	85 d2                	test   %edx,%edx
    3e6e:	74 1b                	je     3e8b <usb_hid_report_parse_global_tag+0x4b>
    3e70:	8a 0c 03             	mov    (%ebx,%eax,1),%cl
    3e73:	81 e1 ff 00 00 00    	and    $0xff,%ecx
    3e79:	89 ce                	mov    %ecx,%esi
    3e7b:	8d 0c c5 00 00 00 00 	lea    0x0(,%eax,8),%ecx
    3e82:	d3 e6                	shl    %cl,%esi
    3e84:	40                   	inc    %eax
    3e85:	09 f7                	or     %esi,%edi
    3e87:	39 d0                	cmp    %edx,%eax
    3e89:	75 e5                	jne    3e70 <usb_hid_report_parse_global_tag+0x30>
    3e8b:	8b 45 14             	mov    0x14(%ebp),%eax
    3e8e:	89 b8 20 00 04 00    	mov    %edi,0x40020(%eax)
    3e94:	31 c0                	xor    %eax,%eax
    3e96:	66 90                	xchg   %ax,%ax
    3e98:	5b                   	pop    %ebx
    3e99:	5b                   	pop    %ebx
    3e9a:	5e                   	pop    %esi
    3e9b:	5f                   	pop    %edi
    3e9c:	5d                   	pop    %ebp
    3e9d:	c3                   	ret    
    3e9e:	66 90                	xchg   %ax,%ax
    3ea0:	31 c0                	xor    %eax,%eax
    3ea2:	88 c8                	mov    %cl,%al
    3ea4:	eb f2                	jmp    3e98 <usb_hid_report_parse_global_tag+0x58>
    3ea6:	66 90                	xchg   %ax,%ax
    3ea8:	31 ff                	xor    %edi,%edi
    3eaa:	85 d2                	test   %edx,%edx
    3eac:	74 1d                	je     3ecb <usb_hid_report_parse_global_tag+0x8b>
    3eae:	31 c0                	xor    %eax,%eax
    3eb0:	8a 0c 03             	mov    (%ebx,%eax,1),%cl
    3eb3:	81 e1 ff 00 00 00    	and    $0xff,%ecx
    3eb9:	89 ce                	mov    %ecx,%esi
    3ebb:	8d 0c c5 00 00 00 00 	lea    0x0(,%eax,8),%ecx
    3ec2:	d3 e6                	shl    %cl,%esi
    3ec4:	40                   	inc    %eax
    3ec5:	09 f7                	or     %esi,%edi
    3ec7:	39 d0                	cmp    %edx,%eax
    3ec9:	75 e5                	jne    3eb0 <usb_hid_report_parse_global_tag+0x70>
    3ecb:	8b 45 14             	mov    0x14(%ebp),%eax
    3ece:	89 b8 08 00 04 00    	mov    %edi,0x40008(%eax)
    3ed4:	31 c0                	xor    %eax,%eax
    3ed6:	eb c0                	jmp    3e98 <usb_hid_report_parse_global_tag+0x58>
    3ed8:	31 f6                	xor    %esi,%esi
    3eda:	31 c0                	xor    %eax,%eax
    3edc:	31 ff                	xor    %edi,%edi
    3ede:	85 d2                	test   %edx,%edx
    3ee0:	74 6a                	je     3f4c <usb_hid_report_parse_global_tag+0x10c>
    3ee2:	8d b6 00 00 00 00    	lea    0x0(%esi),%esi
    3ee8:	8a 0c 03             	mov    (%ebx,%eax,1),%cl
    3eeb:	81 e1 ff 00 00 00    	and    $0xff,%ecx
    3ef1:	89 cf                	mov    %ecx,%edi
    3ef3:	8d 0c c5 00 00 00 00 	lea    0x0(,%eax,8),%ecx
    3efa:	d3 e7                	shl    %cl,%edi
    3efc:	40                   	inc    %eax
    3efd:	09 fe                	or     %edi,%esi
    3eff:	39 d0                	cmp    %edx,%eax
    3f01:	75 e5                	jne    3ee8 <usb_hid_report_parse_global_tag+0xa8>
    3f03:	8d 0c d5 00 00 00 00 	lea    0x0(,%edx,8),%ecx
    3f0a:	b8 01 00 00 00       	mov    $0x1,%eax
    3f0f:	89 4d f0             	mov    %ecx,-0x10(%ebp)
    3f12:	49                   	dec    %ecx
    3f13:	d3 e0                	shl    %cl,%eax
    3f15:	31 ff                	xor    %edi,%edi
    3f17:	85 c6                	test   %eax,%esi
    3f19:	b8 00 00 00 00       	mov    $0x0,%eax
    3f1e:	74 40                	je     3f60 <usb_hid_report_parse_global_tag+0x120>
    3f20:	8a 0c 03             	mov    (%ebx,%eax,1),%cl
    3f23:	81 e1 ff 00 00 00    	and    $0xff,%ecx
    3f29:	89 ce                	mov    %ecx,%esi
    3f2b:	8d 0c c5 00 00 00 00 	lea    0x0(,%eax,8),%ecx
    3f32:	d3 e6                	shl    %cl,%esi
    3f34:	40                   	inc    %eax
    3f35:	09 f7                	or     %esi,%edi
    3f37:	39 d0                	cmp    %edx,%eax
    3f39:	75 e5                	jne    3f20 <usb_hid_report_parse_global_tag+0xe0>
    3f3b:	b8 01 00 00 00       	mov    $0x1,%eax
    3f40:	8a 4d f0             	mov    -0x10(%ebp),%cl
    3f43:	d3 e0                	shl    %cl,%eax
    3f45:	48                   	dec    %eax
    3f46:	f7 df                	neg    %edi
    3f48:	21 c7                	and    %eax,%edi
    3f4a:	f7 df                	neg    %edi
    3f4c:	8b 45 14             	mov    0x14(%ebp),%eax
    3f4f:	89 b8 14 00 04 00    	mov    %edi,0x40014(%eax)
    3f55:	31 c0                	xor    %eax,%eax
    3f57:	e9 3c ff ff ff       	jmp    3e98 <usb_hid_report_parse_global_tag+0x58>
    3f5c:	8d 74 26 00          	lea    0x0(%esi,%eiz,1),%esi
    3f60:	8a 0c 03             	mov    (%ebx,%eax,1),%cl
    3f63:	81 e1 ff 00 00 00    	and    $0xff,%ecx
    3f69:	89 ce                	mov    %ecx,%esi
    3f6b:	8d 0c c5 00 00 00 00 	lea    0x0(,%eax,8),%ecx
    3f72:	d3 e6                	shl    %cl,%esi
    3f74:	40                   	inc    %eax
    3f75:	09 f7                	or     %esi,%edi
    3f77:	39 d0                	cmp    %edx,%eax
    3f79:	75 e5                	jne    3f60 <usb_hid_report_parse_global_tag+0x120>
    3f7b:	eb cf                	jmp    3f4c <usb_hid_report_parse_global_tag+0x10c>
    3f7d:	8d 76 00             	lea    0x0(%esi),%esi
    3f80:	31 f6                	xor    %esi,%esi
    3f82:	31 c0                	xor    %eax,%eax
    3f84:	85 d2                	test   %edx,%edx
    3f86:	74 64                	je     3fec <usb_hid_report_parse_global_tag+0x1ac>
    3f88:	8a 0c 03             	mov    (%ebx,%eax,1),%cl
    3f8b:	81 e1 ff 00 00 00    	and    $0xff,%ecx
    3f91:	89 cf                	mov    %ecx,%edi
    3f93:	8d 0c c5 00 00 00 00 	lea    0x0(,%eax,8),%ecx
    3f9a:	d3 e7                	shl    %cl,%edi
    3f9c:	40                   	inc    %eax
    3f9d:	09 fe                	or     %edi,%esi
    3f9f:	39 d0                	cmp    %edx,%eax
    3fa1:	75 e5                	jne    3f88 <usb_hid_report_parse_global_tag+0x148>
    3fa3:	8d 0c d5 00 00 00 00 	lea    0x0(,%edx,8),%ecx
    3faa:	b8 01 00 00 00       	mov    $0x1,%eax
    3faf:	89 4d f0             	mov    %ecx,-0x10(%ebp)
    3fb2:	49                   	dec    %ecx
    3fb3:	d3 e0                	shl    %cl,%eax
    3fb5:	31 ff                	xor    %edi,%edi
    3fb7:	85 c6                	test   %eax,%esi
    3fb9:	b8 00 00 00 00       	mov    $0x0,%eax
    3fbe:	74 40                	je     4000 <usb_hid_report_parse_global_tag+0x1c0>
    3fc0:	8a 0c 03             	mov    (%ebx,%eax,1),%cl
    3fc3:	81 e1 ff 00 00 00    	and    $0xff,%ecx
    3fc9:	89 ce                	mov    %ecx,%esi
    3fcb:	8d 0c c5 00 00 00 00 	lea    0x0(,%eax,8),%ecx
    3fd2:	d3 e6                	shl    %cl,%esi
    3fd4:	40                   	inc    %eax
    3fd5:	09 f7                	or     %esi,%edi
    3fd7:	39 d0                	cmp    %edx,%eax
    3fd9:	75 e5                	jne    3fc0 <usb_hid_report_parse_global_tag+0x180>
    3fdb:	b8 01 00 00 00       	mov    $0x1,%eax
    3fe0:	8a 4d f0             	mov    -0x10(%ebp),%cl
    3fe3:	d3 e0                	shl    %cl,%eax
    3fe5:	48                   	dec    %eax
    3fe6:	f7 df                	neg    %edi
    3fe8:	21 f8                	and    %edi,%eax
    3fea:	f7 d8                	neg    %eax
    3fec:	8b 55 14             	mov    0x14(%ebp),%edx
    3fef:	89 82 18 00 04 00    	mov    %eax,0x40018(%edx)
    3ff5:	31 c0                	xor    %eax,%eax
    3ff7:	e9 9c fe ff ff       	jmp    3e98 <usb_hid_report_parse_global_tag+0x58>
    3ffc:	8d 74 26 00          	lea    0x0(%esi,%eiz,1),%esi
    4000:	8a 0c 03             	mov    (%ebx,%eax,1),%cl
    4003:	81 e1 ff 00 00 00    	and    $0xff,%ecx
    4009:	89 ce                	mov    %ecx,%esi
    400b:	8d 0c c5 00 00 00 00 	lea    0x0(,%eax,8),%ecx
    4012:	d3 e6                	shl    %cl,%esi
    4014:	40                   	inc    %eax
    4015:	09 f7                	or     %esi,%edi
    4017:	39 d0                	cmp    %edx,%eax
    4019:	75 e5                	jne    4000 <usb_hid_report_parse_global_tag+0x1c0>
    401b:	89 f8                	mov    %edi,%eax
    401d:	eb cd                	jmp    3fec <usb_hid_report_parse_global_tag+0x1ac>
    401f:	90                   	nop
    4020:	31 f6                	xor    %esi,%esi
    4022:	31 c0                	xor    %eax,%eax
    4024:	85 d2                	test   %edx,%edx
    4026:	74 64                	je     408c <usb_hid_report_parse_global_tag+0x24c>
    4028:	8a 0c 03             	mov    (%ebx,%eax,1),%cl
    402b:	81 e1 ff 00 00 00    	and    $0xff,%ecx
    4031:	89 cf                	mov    %ecx,%edi
    4033:	8d 0c c5 00 00 00 00 	lea    0x0(,%eax,8),%ecx
    403a:	d3 e7                	shl    %cl,%edi
    403c:	40                   	inc    %eax
    403d:	09 fe                	or     %edi,%esi
    403f:	39 d0                	cmp    %edx,%eax
    4041:	75 e5                	jne    4028 <usb_hid_report_parse_global_tag+0x1e8>
    4043:	8d 0c d5 00 00 00 00 	lea    0x0(,%edx,8),%ecx
    404a:	b8 01 00 00 00       	mov    $0x1,%eax
    404f:	89 4d f0             	mov    %ecx,-0x10(%ebp)
    4052:	49                   	dec    %ecx
    4053:	d3 e0                	shl    %cl,%eax
    4055:	31 ff                	xor    %edi,%edi
    4057:	85 c6                	test   %eax,%esi
    4059:	b8 00 00 00 00       	mov    $0x0,%eax
    405e:	74 40                	je     40a0 <usb_hid_report_parse_global_tag+0x260>
    4060:	8a 0c 03             	mov    (%ebx,%eax,1),%cl
    4063:	81 e1 ff 00 00 00    	and    $0xff,%ecx
    4069:	89 ce                	mov    %ecx,%esi
    406b:	8d 0c c5 00 00 00 00 	lea    0x0(,%eax,8),%ecx
    4072:	d3 e6                	shl    %cl,%esi
    4074:	40                   	inc    %eax
    4075:	09 f7                	or     %esi,%edi
    4077:	39 d0                	cmp    %edx,%eax
    4079:	75 e5                	jne    4060 <usb_hid_report_parse_global_tag+0x220>
    407b:	b8 01 00 00 00       	mov    $0x1,%eax
    4080:	8a 4d f0             	mov    -0x10(%ebp),%cl
    4083:	d3 e0                	shl    %cl,%eax
    4085:	48                   	dec    %eax
    4086:	f7 df                	neg    %edi
    4088:	21 f8                	and    %edi,%eax
    408a:	f7 d8                	neg    %eax
    408c:	8b 55 14             	mov    0x14(%ebp),%edx
    408f:	89 82 48 00 04 00    	mov    %eax,0x40048(%edx)
    4095:	31 c0                	xor    %eax,%eax
    4097:	e9 fc fd ff ff       	jmp    3e98 <usb_hid_report_parse_global_tag+0x58>
    409c:	8d 74 26 00          	lea    0x0(%esi,%eiz,1),%esi
    40a0:	8a 0c 03             	mov    (%ebx,%eax,1),%cl
    40a3:	81 e1 ff 00 00 00    	and    $0xff,%ecx
    40a9:	89 ce                	mov    %ecx,%esi
    40ab:	8d 0c c5 00 00 00 00 	lea    0x0(,%eax,8),%ecx
    40b2:	d3 e6                	shl    %cl,%esi
    40b4:	40                   	inc    %eax
    40b5:	09 f7                	or     %esi,%edi
    40b7:	39 d0                	cmp    %edx,%eax
    40b9:	75 e5                	jne    40a0 <usb_hid_report_parse_global_tag+0x260>
    40bb:	89 f8                	mov    %edi,%eax
    40bd:	eb cd                	jmp    408c <usb_hid_report_parse_global_tag+0x24c>
    40bf:	90                   	nop
    40c0:	31 f6                	xor    %esi,%esi
    40c2:	31 c0                	xor    %eax,%eax
    40c4:	85 d2                	test   %edx,%edx
    40c6:	74 64                	je     412c <usb_hid_report_parse_global_tag+0x2ec>
    40c8:	8a 0c 03             	mov    (%ebx,%eax,1),%cl
    40cb:	81 e1 ff 00 00 00    	and    $0xff,%ecx
    40d1:	89 cf                	mov    %ecx,%edi
    40d3:	8d 0c c5 00 00 00 00 	lea    0x0(,%eax,8),%ecx
    40da:	d3 e7                	shl    %cl,%edi
    40dc:	40                   	inc    %eax
    40dd:	09 fe                	or     %edi,%esi
    40df:	39 d0                	cmp    %edx,%eax
    40e1:	75 e5                	jne    40c8 <usb_hid_report_parse_global_tag+0x288>
    40e3:	8d 0c d5 00 00 00 00 	lea    0x0(,%edx,8),%ecx
    40ea:	b8 01 00 00 00       	mov    $0x1,%eax
    40ef:	89 4d f0             	mov    %ecx,-0x10(%ebp)
    40f2:	49                   	dec    %ecx
    40f3:	d3 e0                	shl    %cl,%eax
    40f5:	31 ff                	xor    %edi,%edi
    40f7:	85 c6                	test   %eax,%esi
    40f9:	b8 00 00 00 00       	mov    $0x0,%eax
    40fe:	74 40                	je     4140 <usb_hid_report_parse_global_tag+0x300>
    4100:	8a 0c 03             	mov    (%ebx,%eax,1),%cl
    4103:	81 e1 ff 00 00 00    	and    $0xff,%ecx
    4109:	89 ce                	mov    %ecx,%esi
    410b:	8d 0c c5 00 00 00 00 	lea    0x0(,%eax,8),%ecx
    4112:	d3 e6                	shl    %cl,%esi
    4114:	40                   	inc    %eax
    4115:	09 f7                	or     %esi,%edi
    4117:	39 d0                	cmp    %edx,%eax
    4119:	75 e5                	jne    4100 <usb_hid_report_parse_global_tag+0x2c0>
    411b:	b8 01 00 00 00       	mov    $0x1,%eax
    4120:	8a 4d f0             	mov    -0x10(%ebp),%cl
    4123:	d3 e0                	shl    %cl,%eax
    4125:	48                   	dec    %eax
    4126:	f7 df                	neg    %edi
    4128:	21 f8                	and    %edi,%eax
    412a:	f7 d8                	neg    %eax
    412c:	8b 55 14             	mov    0x14(%ebp),%edx
    412f:	89 82 4c 00 04 00    	mov    %eax,0x4004c(%edx)
    4135:	31 c0                	xor    %eax,%eax
    4137:	e9 5c fd ff ff       	jmp    3e98 <usb_hid_report_parse_global_tag+0x58>
    413c:	8d 74 26 00          	lea    0x0(%esi,%eiz,1),%esi
    4140:	8a 0c 03             	mov    (%ebx,%eax,1),%cl
    4143:	81 e1 ff 00 00 00    	and    $0xff,%ecx
    4149:	89 ce                	mov    %ecx,%esi
    414b:	8d 0c c5 00 00 00 00 	lea    0x0(,%eax,8),%ecx
    4152:	d3 e6                	shl    %cl,%esi
    4154:	40                   	inc    %eax
    4155:	09 f7                	or     %esi,%edi
    4157:	39 d0                	cmp    %edx,%eax
    4159:	75 e5                	jne    4140 <usb_hid_report_parse_global_tag+0x300>
    415b:	89 f8                	mov    %edi,%eax
    415d:	eb cd                	jmp    412c <usb_hid_report_parse_global_tag+0x2ec>
    415f:	90                   	nop
    4160:	31 ff                	xor    %edi,%edi
    4162:	31 c0                	xor    %eax,%eax
    4164:	85 d2                	test   %edx,%edx
    4166:	74 1b                	je     4183 <usb_hid_report_parse_global_tag+0x343>
    4168:	8a 0c 03             	mov    (%ebx,%eax,1),%cl
    416b:	81 e1 ff 00 00 00    	and    $0xff,%ecx
    4171:	89 ce                	mov    %ecx,%esi
    4173:	8d 0c c5 00 00 00 00 	lea    0x0(,%eax,8),%ecx
    417a:	d3 e6                	shl    %cl,%esi
    417c:	40                   	inc    %eax
    417d:	09 f7                	or     %esi,%edi
    417f:	39 d0                	cmp    %edx,%eax
    4181:	75 e5                	jne    4168 <usb_hid_report_parse_global_tag+0x328>
    4183:	8b 45 14             	mov    0x14(%ebp),%eax
    4186:	89 b8 28 00 04 00    	mov    %edi,0x40028(%eax)
    418c:	31 c0                	xor    %eax,%eax
    418e:	e9 05 fd ff ff       	jmp    3e98 <usb_hid_report_parse_global_tag+0x58>
    4193:	90                   	nop
    4194:	8d 74 26 00          	lea    0x0(%esi,%eiz,1),%esi
    4198:	31 ff                	xor    %edi,%edi
    419a:	31 c0                	xor    %eax,%eax
    419c:	85 d2                	test   %edx,%edx
    419e:	74 1b                	je     41bb <usb_hid_report_parse_global_tag+0x37b>
    41a0:	8a 0c 03             	mov    (%ebx,%eax,1),%cl
    41a3:	81 e1 ff 00 00 00    	and    $0xff,%ecx
    41a9:	89 ce                	mov    %ecx,%esi
    41ab:	8d 0c c5 00 00 00 00 	lea    0x0(,%eax,8),%ecx
    41b2:	d3 e6                	shl    %cl,%esi
    41b4:	40                   	inc    %eax
    41b5:	09 f7                	or     %esi,%edi
    41b7:	39 d0                	cmp    %edx,%eax
    41b9:	75 e5                	jne    41a0 <usb_hid_report_parse_global_tag+0x360>
    41bb:	8b 45 14             	mov    0x14(%ebp),%eax
    41be:	89 b8 2c 00 04 00    	mov    %edi,0x4002c(%eax)
    41c4:	31 c0                	xor    %eax,%eax
    41c6:	e9 cd fc ff ff       	jmp    3e98 <usb_hid_report_parse_global_tag+0x58>
    41cb:	90                   	nop
    41cc:	8d 74 26 00          	lea    0x0(%esi,%eiz,1),%esi
    41d0:	31 ff                	xor    %edi,%edi
    41d2:	31 c0                	xor    %eax,%eax
    41d4:	85 d2                	test   %edx,%edx
    41d6:	74 1b                	je     41f3 <usb_hid_report_parse_global_tag+0x3b3>
    41d8:	8a 0c 03             	mov    (%ebx,%eax,1),%cl
    41db:	81 e1 ff 00 00 00    	and    $0xff,%ecx
    41e1:	89 ce                	mov    %ecx,%esi
    41e3:	8d 0c c5 00 00 00 00 	lea    0x0(,%eax,8),%ecx
    41ea:	d3 e6                	shl    %cl,%esi
    41ec:	40                   	inc    %eax
    41ed:	09 f7                	or     %esi,%edi
    41ef:	39 d0                	cmp    %edx,%eax
    41f1:	75 e5                	jne    41d8 <usb_hid_report_parse_global_tag+0x398>
    41f3:	8b 45 14             	mov    0x14(%ebp),%eax
    41f6:	89 b8 1c 00 04 00    	mov    %edi,0x4001c(%eax)
    41fc:	31 c0                	xor    %eax,%eax
    41fe:	e9 95 fc ff ff       	jmp    3e98 <usb_hid_report_parse_global_tag+0x58>
    4203:	90                   	nop
    4204:	8d 74 26 00          	lea    0x0(%esi,%eiz,1),%esi
    4208:	31 ff                	xor    %edi,%edi
    420a:	31 c0                	xor    %eax,%eax
    420c:	85 d2                	test   %edx,%edx
    420e:	74 1b                	je     422b <usb_hid_report_parse_global_tag+0x3eb>
    4210:	8a 0c 03             	mov    (%ebx,%eax,1),%cl
    4213:	81 e1 ff 00 00 00    	and    $0xff,%ecx
    4219:	89 ce                	mov    %ecx,%esi
    421b:	8d 0c c5 00 00 00 00 	lea    0x0(,%eax,8),%ecx
    4222:	d3 e6                	shl    %cl,%esi
    4224:	40                   	inc    %eax
    4225:	09 f7                	or     %esi,%edi
    4227:	39 d0                	cmp    %edx,%eax
    4229:	75 e5                	jne    4210 <usb_hid_report_parse_global_tag+0x3d0>
    422b:	8b 45 14             	mov    0x14(%ebp),%eax
    422e:	89 38                	mov    %edi,(%eax)
    4230:	b8 03 00 00 00       	mov    $0x3,%eax
    4235:	e9 5e fc ff ff       	jmp    3e98 <usb_hid_report_parse_global_tag+0x58>
    423a:	8d b6 00 00 00 00    	lea    0x0(%esi),%esi

00004240 <usb_hid_report_parse_local_tag>:
    4240:	55                   	push   %ebp
    4241:	89 e5                	mov    %esp,%ebp
    4243:	57                   	push   %edi
    4244:	56                   	push   %esi
    4245:	53                   	push   %ebx
    4246:	83 ec 08             	sub    $0x8,%esp
    4249:	8a 4d 08             	mov    0x8(%ebp),%cl
    424c:	8b 55 0c             	mov    0xc(%ebp),%edx
    424f:	8b 45 10             	mov    0x10(%ebp),%eax
    4252:	80 f9 0a             	cmp    $0xa,%cl
    4255:	76 11                	jbe    4268 <usb_hid_report_parse_local_tag+0x28>
    4257:	b8 02 00 00 00       	mov    $0x2,%eax
    425c:	8d 74 26 00          	lea    0x0(%esi,%eiz,1),%esi
    4260:	5f                   	pop    %edi
    4261:	5a                   	pop    %edx
    4262:	5b                   	pop    %ebx
    4263:	5e                   	pop    %esi
    4264:	5f                   	pop    %edi
    4265:	5d                   	pop    %ebp
    4266:	c3                   	ret    
    4267:	90                   	nop
    4268:	81 e1 ff 00 00 00    	and    $0xff,%ecx
    426e:	ff 24 8d c0 27 03 00 	jmp    *0x327c0(,%ecx,4)
    4275:	8d 76 00             	lea    0x0(%esi),%esi
    4278:	31 ff                	xor    %edi,%edi
    427a:	31 db                	xor    %ebx,%ebx
    427c:	85 c0                	test   %eax,%eax
    427e:	74 1b                	je     429b <usb_hid_report_parse_local_tag+0x5b>
    4280:	8a 0c 1a             	mov    (%edx,%ebx,1),%cl
    4283:	81 e1 ff 00 00 00    	and    $0xff,%ecx
    4289:	89 ce                	mov    %ecx,%esi
    428b:	8d 0c dd 00 00 00 00 	lea    0x0(,%ebx,8),%ecx
    4292:	d3 e6                	shl    %cl,%esi
    4294:	43                   	inc    %ebx
    4295:	09 f7                	or     %esi,%edi
    4297:	39 c3                	cmp    %eax,%ebx
    4299:	75 e5                	jne    4280 <usb_hid_report_parse_local_tag+0x40>
    429b:	8b 5d 14             	mov    0x14(%ebp),%ebx
    429e:	31 c0                	xor    %eax,%eax
    42a0:	89 bb 64 00 04 00    	mov    %edi,0x40064(%ebx)
    42a6:	eb b8                	jmp    4260 <usb_hid_report_parse_local_tag+0x20>
    42a8:	8b 5d 14             	mov    0x14(%ebp),%ebx
    42ab:	8b 8b 64 00 04 00    	mov    0x40064(%ebx),%ecx
    42b1:	85 c9                	test   %ecx,%ecx
    42b3:	0f 85 9f 02 00 00    	jne    4558 <usb_hid_report_parse_local_tag+0x318>
    42b9:	8b 9b 08 00 04 00    	mov    0x40008(%ebx),%ebx
    42bf:	31 ff                	xor    %edi,%edi
    42c1:	c1 e3 10             	shl    $0x10,%ebx
    42c4:	85 c0                	test   %eax,%eax
    42c6:	89 5d f0             	mov    %ebx,-0x10(%ebp)
    42c9:	74 20                	je     42eb <usb_hid_report_parse_local_tag+0xab>
    42cb:	31 db                	xor    %ebx,%ebx
    42cd:	8d 76 00             	lea    0x0(%esi),%esi
    42d0:	8a 0c 1a             	mov    (%edx,%ebx,1),%cl
    42d3:	81 e1 ff 00 00 00    	and    $0xff,%ecx
    42d9:	89 ce                	mov    %ecx,%esi
    42db:	8d 0c dd 00 00 00 00 	lea    0x0(,%ebx,8),%ecx
    42e2:	d3 e6                	shl    %cl,%esi
    42e4:	43                   	inc    %ebx
    42e5:	09 f7                	or     %esi,%edi
    42e7:	39 c3                	cmp    %eax,%ebx
    42e9:	75 e5                	jne    42d0 <usb_hid_report_parse_local_tag+0x90>
    42eb:	8b 5d 14             	mov    0x14(%ebp),%ebx
    42ee:	8b 4d f0             	mov    -0x10(%ebp),%ecx
    42f1:	01 cf                	add    %ecx,%edi
    42f3:	8b 83 04 00 04 00    	mov    0x40004(%ebx),%eax
    42f9:	89 7c 83 08          	mov    %edi,0x8(%ebx,%eax,4)
    42fd:	40                   	inc    %eax
    42fe:	89 83 04 00 04 00    	mov    %eax,0x40004(%ebx)
    4304:	31 c0                	xor    %eax,%eax
    4306:	e9 55 ff ff ff       	jmp    4260 <usb_hid_report_parse_local_tag+0x20>
    430b:	90                   	nop
    430c:	8d 74 26 00          	lea    0x0(%esi,%eiz,1),%esi
    4310:	83 f8 03             	cmp    $0x3,%eax
    4313:	0f 84 d7 02 00 00    	je     45f0 <usb_hid_report_parse_local_tag+0x3b0>
    4319:	31 ff                	xor    %edi,%edi
    431b:	31 db                	xor    %ebx,%ebx
    431d:	85 c0                	test   %eax,%eax
    431f:	74 22                	je     4343 <usb_hid_report_parse_local_tag+0x103>
    4321:	8d b4 26 00 00 00 00 	lea    0x0(%esi,%eiz,1),%esi
    4328:	8a 0c 1a             	mov    (%edx,%ebx,1),%cl
    432b:	81 e1 ff 00 00 00    	and    $0xff,%ecx
    4331:	89 ce                	mov    %ecx,%esi
    4333:	8d 0c dd 00 00 00 00 	lea    0x0(,%ebx,8),%ecx
    433a:	d3 e6                	shl    %cl,%esi
    433c:	43                   	inc    %ebx
    433d:	09 f7                	or     %esi,%edi
    433f:	39 c3                	cmp    %eax,%ebx
    4341:	75 e5                	jne    4328 <usb_hid_report_parse_local_tag+0xe8>
    4343:	8b 5d 14             	mov    0x14(%ebp),%ebx
    4346:	31 c0                	xor    %eax,%eax
    4348:	89 bb 0c 00 04 00    	mov    %edi,0x4000c(%ebx)
    434e:	e9 0d ff ff ff       	jmp    4260 <usb_hid_report_parse_local_tag+0x20>
    4353:	90                   	nop
    4354:	8d 74 26 00          	lea    0x0(%esi,%eiz,1),%esi
    4358:	31 ff                	xor    %edi,%edi
    435a:	31 db                	xor    %ebx,%ebx
    435c:	85 c0                	test   %eax,%eax
    435e:	74 1b                	je     437b <usb_hid_report_parse_local_tag+0x13b>
    4360:	8a 0c 1a             	mov    (%edx,%ebx,1),%cl
    4363:	81 e1 ff 00 00 00    	and    $0xff,%ecx
    4369:	89 ce                	mov    %ecx,%esi
    436b:	8d 0c dd 00 00 00 00 	lea    0x0(,%ebx,8),%ecx
    4372:	d3 e6                	shl    %cl,%esi
    4374:	43                   	inc    %ebx
    4375:	09 f7                	or     %esi,%edi
    4377:	39 c3                	cmp    %eax,%ebx
    4379:	75 e5                	jne    4360 <usb_hid_report_parse_local_tag+0x120>
    437b:	8b 5d 14             	mov    0x14(%ebp),%ebx
    437e:	31 c0                	xor    %eax,%eax
    4380:	89 bb 44 00 04 00    	mov    %edi,0x40044(%ebx)
    4386:	e9 d5 fe ff ff       	jmp    4260 <usb_hid_report_parse_local_tag+0x20>
    438b:	90                   	nop
    438c:	8d 74 26 00          	lea    0x0(%esi,%eiz,1),%esi
    4390:	31 ff                	xor    %edi,%edi
    4392:	31 db                	xor    %ebx,%ebx
    4394:	85 c0                	test   %eax,%eax
    4396:	74 1b                	je     43b3 <usb_hid_report_parse_local_tag+0x173>
    4398:	8a 0c 1a             	mov    (%edx,%ebx,1),%cl
    439b:	81 e1 ff 00 00 00    	and    $0xff,%ecx
    43a1:	89 ce                	mov    %ecx,%esi
    43a3:	8d 0c dd 00 00 00 00 	lea    0x0(,%ebx,8),%ecx
    43aa:	d3 e6                	shl    %cl,%esi
    43ac:	43                   	inc    %ebx
    43ad:	09 f7                	or     %esi,%edi
    43af:	39 c3                	cmp    %eax,%ebx
    43b1:	75 e5                	jne    4398 <usb_hid_report_parse_local_tag+0x158>
    43b3:	8b 5d 14             	mov    0x14(%ebp),%ebx
    43b6:	31 c0                	xor    %eax,%eax
    43b8:	89 bb 30 00 04 00    	mov    %edi,0x40030(%ebx)
    43be:	e9 9d fe ff ff       	jmp    4260 <usb_hid_report_parse_local_tag+0x20>
    43c3:	90                   	nop
    43c4:	8d 74 26 00          	lea    0x0(%esi,%eiz,1),%esi
    43c8:	31 ff                	xor    %edi,%edi
    43ca:	31 db                	xor    %ebx,%ebx
    43cc:	85 c0                	test   %eax,%eax
    43ce:	74 1b                	je     43eb <usb_hid_report_parse_local_tag+0x1ab>
    43d0:	8a 0c 1a             	mov    (%edx,%ebx,1),%cl
    43d3:	81 e1 ff 00 00 00    	and    $0xff,%ecx
    43d9:	89 ce                	mov    %ecx,%esi
    43db:	8d 0c dd 00 00 00 00 	lea    0x0(,%ebx,8),%ecx
    43e2:	d3 e6                	shl    %cl,%esi
    43e4:	43                   	inc    %ebx
    43e5:	09 f7                	or     %esi,%edi
    43e7:	39 c3                	cmp    %eax,%ebx
    43e9:	75 e5                	jne    43d0 <usb_hid_report_parse_local_tag+0x190>
    43eb:	8b 5d 14             	mov    0x14(%ebp),%ebx
    43ee:	31 c0                	xor    %eax,%eax
    43f0:	89 bb 34 00 04 00    	mov    %edi,0x40034(%ebx)
    43f6:	e9 65 fe ff ff       	jmp    4260 <usb_hid_report_parse_local_tag+0x20>
    43fb:	90                   	nop
    43fc:	8d 74 26 00          	lea    0x0(%esi,%eiz,1),%esi
    4400:	31 ff                	xor    %edi,%edi
    4402:	31 db                	xor    %ebx,%ebx
    4404:	85 c0                	test   %eax,%eax
    4406:	74 1b                	je     4423 <usb_hid_report_parse_local_tag+0x1e3>
    4408:	8a 0c 1a             	mov    (%edx,%ebx,1),%cl
    440b:	81 e1 ff 00 00 00    	and    $0xff,%ecx
    4411:	89 ce                	mov    %ecx,%esi
    4413:	8d 0c dd 00 00 00 00 	lea    0x0(,%ebx,8),%ecx
    441a:	d3 e6                	shl    %cl,%esi
    441c:	43                   	inc    %ebx
    441d:	09 f7                	or     %esi,%edi
    441f:	39 c3                	cmp    %eax,%ebx
    4421:	75 e5                	jne    4408 <usb_hid_report_parse_local_tag+0x1c8>
    4423:	8b 5d 14             	mov    0x14(%ebp),%ebx
    4426:	31 c0                	xor    %eax,%eax
    4428:	89 bb 38 00 04 00    	mov    %edi,0x40038(%ebx)
    442e:	e9 2d fe ff ff       	jmp    4260 <usb_hid_report_parse_local_tag+0x20>
    4433:	90                   	nop
    4434:	8d 74 26 00          	lea    0x0(%esi,%eiz,1),%esi
    4438:	31 ff                	xor    %edi,%edi
    443a:	31 db                	xor    %ebx,%ebx
    443c:	85 c0                	test   %eax,%eax
    443e:	74 1b                	je     445b <usb_hid_report_parse_local_tag+0x21b>
    4440:	8a 0c 1a             	mov    (%edx,%ebx,1),%cl
    4443:	81 e1 ff 00 00 00    	and    $0xff,%ecx
    4449:	89 ce                	mov    %ecx,%esi
    444b:	8d 0c dd 00 00 00 00 	lea    0x0(,%ebx,8),%ecx
    4452:	d3 e6                	shl    %cl,%esi
    4454:	43                   	inc    %ebx
    4455:	09 f7                	or     %esi,%edi
    4457:	39 c3                	cmp    %eax,%ebx
    4459:	75 e5                	jne    4440 <usb_hid_report_parse_local_tag+0x200>
    445b:	8b 5d 14             	mov    0x14(%ebp),%ebx
    445e:	31 c0                	xor    %eax,%eax
    4460:	89 bb 3c 00 04 00    	mov    %edi,0x4003c(%ebx)
    4466:	e9 f5 fd ff ff       	jmp    4260 <usb_hid_report_parse_local_tag+0x20>
    446b:	90                   	nop
    446c:	8d 74 26 00          	lea    0x0(%esi,%eiz,1),%esi
    4470:	31 ff                	xor    %edi,%edi
    4472:	31 db                	xor    %ebx,%ebx
    4474:	85 c0                	test   %eax,%eax
    4476:	74 1b                	je     4493 <usb_hid_report_parse_local_tag+0x253>
    4478:	8a 0c 1a             	mov    (%edx,%ebx,1),%cl
    447b:	81 e1 ff 00 00 00    	and    $0xff,%ecx
    4481:	89 ce                	mov    %ecx,%esi
    4483:	8d 0c dd 00 00 00 00 	lea    0x0(,%ebx,8),%ecx
    448a:	d3 e6                	shl    %cl,%esi
    448c:	43                   	inc    %ebx
    448d:	09 f7                	or     %esi,%edi
    448f:	39 c3                	cmp    %eax,%ebx
    4491:	75 e5                	jne    4478 <usb_hid_report_parse_local_tag+0x238>
    4493:	8b 5d 14             	mov    0x14(%ebp),%ebx
    4496:	31 c0                	xor    %eax,%eax
    4498:	89 bb 40 00 04 00    	mov    %edi,0x40040(%ebx)
    449e:	e9 bd fd ff ff       	jmp    4260 <usb_hid_report_parse_local_tag+0x20>
    44a3:	90                   	nop
    44a4:	8d 74 26 00          	lea    0x0(%esi,%eiz,1),%esi
    44a8:	83 f8 03             	cmp    $0x3,%eax
    44ab:	0f 84 ff 00 00 00    	je     45b0 <usb_hid_report_parse_local_tag+0x370>
    44b1:	31 ff                	xor    %edi,%edi
    44b3:	31 db                	xor    %ebx,%ebx
    44b5:	85 c0                	test   %eax,%eax
    44b7:	74 22                	je     44db <usb_hid_report_parse_local_tag+0x29b>
    44b9:	8d b4 26 00 00 00 00 	lea    0x0(%esi,%eiz,1),%esi
    44c0:	8a 0c 1a             	mov    (%edx,%ebx,1),%cl
    44c3:	81 e1 ff 00 00 00    	and    $0xff,%ecx
    44c9:	89 ce                	mov    %ecx,%esi
    44cb:	8d 0c dd 00 00 00 00 	lea    0x0(,%ebx,8),%ecx
    44d2:	d3 e6                	shl    %cl,%esi
    44d4:	43                   	inc    %ebx
    44d5:	09 f7                	or     %esi,%edi
    44d7:	39 c3                	cmp    %eax,%ebx
    44d9:	75 e5                	jne    44c0 <usb_hid_report_parse_local_tag+0x280>
    44db:	8b 5d 14             	mov    0x14(%ebp),%ebx
    44de:	89 d8                	mov    %ebx,%eax
    44e0:	89 bb 10 00 04 00    	mov    %edi,0x40010(%ebx)
    44e6:	8b b0 0c 00 04 00    	mov    0x4000c(%eax),%esi
    44ec:	39 fe                	cmp    %edi,%esi
    44ee:	7f 5b                	jg     454b <usb_hid_report_parse_local_tag+0x30b>
    44f0:	89 c2                	mov    %eax,%edx
    44f2:	8b 40 04             	mov    0x4(%eax),%eax
    44f5:	8b 8a 04 00 04 00    	mov    0x40004(%edx),%ecx
    44fb:	89 c2                	mov    %eax,%edx
    44fd:	c1 e2 10             	shl    $0x10,%edx
    4500:	89 4d f0             	mov    %ecx,-0x10(%ebp)
    4503:	66 85 c0             	test   %ax,%ax
    4506:	75 60                	jne    4568 <usb_hid_report_parse_local_tag+0x328>
    4508:	89 c8                	mov    %ecx,%eax
    450a:	8b 55 14             	mov    0x14(%ebp),%edx
    450d:	29 f0                	sub    %esi,%eax
    450f:	89 75 ec             	mov    %esi,-0x14(%ebp)
    4512:	8d 5f 01             	lea    0x1(%edi),%ebx
    4515:	8d 0c 82             	lea    (%edx,%eax,4),%ecx
    4518:	89 f0                	mov    %esi,%eax
    451a:	89 d6                	mov    %edx,%esi
    451c:	8d 74 26 00          	lea    0x0(%esi,%eiz,1),%esi
    4520:	8b 96 08 00 04 00    	mov    0x40008(%esi),%edx
    4526:	c1 e2 10             	shl    $0x10,%edx
    4529:	01 c2                	add    %eax,%edx
    452b:	89 54 81 08          	mov    %edx,0x8(%ecx,%eax,4)
    452f:	40                   	inc    %eax
    4530:	39 d8                	cmp    %ebx,%eax
    4532:	75 ec                	jne    4520 <usb_hid_report_parse_local_tag+0x2e0>
    4534:	8b 75 ec             	mov    -0x14(%ebp),%esi
    4537:	8b 4d f0             	mov    -0x10(%ebp),%ecx
    453a:	29 f7                	sub    %esi,%edi
    453c:	8d 44 39 01          	lea    0x1(%ecx,%edi,1),%eax
    4540:	8b 5d 14             	mov    0x14(%ebp),%ebx
    4543:	89 83 04 00 04 00    	mov    %eax,0x40004(%ebx)
    4549:	89 d8                	mov    %ebx,%eax
    454b:	66 c7 40 04 00 00    	movw   $0x0,0x4(%eax)
    4551:	31 c0                	xor    %eax,%eax
    4553:	e9 08 fd ff ff       	jmp    4260 <usb_hid_report_parse_local_tag+0x20>
    4558:	49                   	dec    %ecx
    4559:	74 3d                	je     4598 <usb_hid_report_parse_local_tag+0x358>
    455b:	31 c0                	xor    %eax,%eax
    455d:	e9 fe fc ff ff       	jmp    4260 <usb_hid_report_parse_local_tag+0x20>
    4562:	8d b6 00 00 00 00    	lea    0x0(%esi),%esi
    4568:	89 cb                	mov    %ecx,%ebx
    456a:	8d 04 16             	lea    (%esi,%edx,1),%eax
    456d:	29 d3                	sub    %edx,%ebx
    456f:	8d 4c 3a 01          	lea    0x1(%edx,%edi,1),%ecx
    4573:	89 da                	mov    %ebx,%edx
    4575:	8b 5d 14             	mov    0x14(%ebp),%ebx
    4578:	29 f2                	sub    %esi,%edx
    457a:	8d 14 93             	lea    (%ebx,%edx,4),%edx
    457d:	8d 76 00             	lea    0x0(%esi),%esi
    4580:	89 44 82 08          	mov    %eax,0x8(%edx,%eax,4)
    4584:	40                   	inc    %eax
    4585:	39 c8                	cmp    %ecx,%eax
    4587:	75 f7                	jne    4580 <usb_hid_report_parse_local_tag+0x340>
    4589:	29 f7                	sub    %esi,%edi
    458b:	8b 55 f0             	mov    -0x10(%ebp),%edx
    458e:	8d 44 3a 01          	lea    0x1(%edx,%edi,1),%eax
    4592:	eb ac                	jmp    4540 <usb_hid_report_parse_local_tag+0x300>
    4594:	8d 74 26 00          	lea    0x0(%esi,%eiz,1),%esi
    4598:	c7 83 64 00 04 00 02 	movl   $0x2,0x40064(%ebx)
    459f:	00 00 00 
    45a2:	8b 5d 14             	mov    0x14(%ebp),%ebx
    45a5:	e9 0f fd ff ff       	jmp    42b9 <usb_hid_report_parse_local_tag+0x79>
    45aa:	8d b6 00 00 00 00    	lea    0x0(%esi),%esi
    45b0:	8b 5d 14             	mov    0x14(%ebp),%ebx
    45b3:	31 c9                	xor    %ecx,%ecx
    45b5:	8a 4a 02             	mov    0x2(%edx),%cl
    45b8:	8b 43 04             	mov    0x4(%ebx),%eax
    45bb:	89 c3                	mov    %eax,%ebx
    45bd:	81 e3 ff ff 00 00    	and    $0xffff,%ebx
    45c3:	39 cb                	cmp    %ecx,%ebx
    45c5:	75 54                	jne    461b <usb_hid_report_parse_local_tag+0x3db>
    45c7:	8a 02                	mov    (%edx),%al
    45c9:	8b 5d 14             	mov    0x14(%ebp),%ebx
    45cc:	25 ff 00 00 00       	and    $0xff,%eax
    45d1:	89 c7                	mov    %eax,%edi
    45d3:	31 c0                	xor    %eax,%eax
    45d5:	8a 42 01             	mov    0x1(%edx),%al
    45d8:	c1 e0 08             	shl    $0x8,%eax
    45db:	09 c7                	or     %eax,%edi
    45dd:	89 d8                	mov    %ebx,%eax
    45df:	89 bb 10 00 04 00    	mov    %edi,0x40010(%ebx)
    45e5:	e9 fc fe ff ff       	jmp    44e6 <usb_hid_report_parse_local_tag+0x2a6>
    45ea:	8d b6 00 00 00 00    	lea    0x0(%esi),%esi
    45f0:	8b 5d 14             	mov    0x14(%ebp),%ebx
    45f3:	31 c0                	xor    %eax,%eax
    45f5:	8a 42 02             	mov    0x2(%edx),%al
    45f8:	66 89 43 04          	mov    %ax,0x4(%ebx)
    45fc:	31 c0                	xor    %eax,%eax
    45fe:	8a 02                	mov    (%edx),%al
    4600:	8a 52 01             	mov    0x1(%edx),%dl
    4603:	81 e2 ff 00 00 00    	and    $0xff,%edx
    4609:	c1 e2 08             	shl    $0x8,%edx
    460c:	09 d0                	or     %edx,%eax
    460e:	89 83 0c 00 04 00    	mov    %eax,0x4000c(%ebx)
    4614:	31 c0                	xor    %eax,%eax
    4616:	e9 45 fc ff ff       	jmp    4260 <usb_hid_report_parse_local_tag+0x20>
    461b:	b8 f2 ff ff ff       	mov    $0xfffffff2,%eax
    4620:	e9 3b fc ff ff       	jmp    4260 <usb_hid_report_parse_local_tag+0x20>
    4625:	8d 74 26 00          	lea    0x0(%esi,%eiz,1),%esi
    4629:	8d bc 27 00 00 00 00 	lea    0x0(%edi,%eiz,1),%edi

00004630 <usb_hid_report_parse_tag>:
    4630:	55                   	push   %ebp
    4631:	89 e5                	mov    %esp,%ebp
    4633:	57                   	push   %edi
    4634:	56                   	push   %esi
    4635:	53                   	push   %ebx
    4636:	83 ec 1c             	sub    $0x1c,%esp
    4639:	8a 45 0c             	mov    0xc(%ebp),%al
    463c:	8b 4d 10             	mov    0x10(%ebp),%ecx
    463f:	8b 7d 14             	mov    0x14(%ebp),%edi
    4642:	8b 5d 18             	mov    0x18(%ebp),%ebx
    4645:	8b 75 1c             	mov    0x1c(%ebp),%esi
    4648:	8a 55 08             	mov    0x8(%ebp),%dl
    464b:	3c 01                	cmp    $0x1,%al
    464d:	74 31                	je     4680 <usb_hid_report_parse_tag+0x50>
    464f:	72 17                	jb     4668 <usb_hid_report_parse_tag+0x38>
    4651:	3c 02                	cmp    $0x2,%al
    4653:	74 53                	je     46a8 <usb_hid_report_parse_tag+0x78>
    4655:	b8 02 00 00 00       	mov    $0x2,%eax
    465a:	83 c4 1c             	add    $0x1c,%esp
    465d:	5b                   	pop    %ebx
    465e:	5e                   	pop    %esi
    465f:	5f                   	pop    %edi
    4660:	5d                   	pop    %ebp
    4661:	c3                   	ret    
    4662:	8d b6 00 00 00 00    	lea    0x0(%esi),%esi
    4668:	83 ea 08             	sub    $0x8,%edx
    466b:	80 fa 04             	cmp    $0x4,%dl
    466e:	77 e5                	ja     4655 <usb_hid_report_parse_tag+0x25>
    4670:	81 e2 ff 00 00 00    	and    $0xff,%edx
    4676:	ff 24 95 ec 27 03 00 	jmp    *0x327ec(,%edx,4)
    467d:	8d 76 00             	lea    0x0(%esi),%esi
    4680:	81 e2 ff 00 00 00    	and    $0xff,%edx
    4686:	89 75 18             	mov    %esi,0x18(%ebp)
    4689:	89 5d 14             	mov    %ebx,0x14(%ebp)
    468c:	89 7d 10             	mov    %edi,0x10(%ebp)
    468f:	89 4d 0c             	mov    %ecx,0xc(%ebp)
    4692:	89 55 08             	mov    %edx,0x8(%ebp)
    4695:	83 c4 1c             	add    $0x1c,%esp
    4698:	5b                   	pop    %ebx
    4699:	5e                   	pop    %esi
    469a:	5f                   	pop    %edi
    469b:	5d                   	pop    %ebp
    469c:	e9 9f f7 ff ff       	jmp    3e40 <usb_hid_report_parse_global_tag>
    46a1:	8d b4 26 00 00 00 00 	lea    0x0(%esi,%eiz,1),%esi
    46a8:	81 e2 ff 00 00 00    	and    $0xff,%edx
    46ae:	89 75 18             	mov    %esi,0x18(%ebp)
    46b1:	89 5d 14             	mov    %ebx,0x14(%ebp)
    46b4:	89 7d 10             	mov    %edi,0x10(%ebp)
    46b7:	89 4d 0c             	mov    %ecx,0xc(%ebp)
    46ba:	89 55 08             	mov    %edx,0x8(%ebp)
    46bd:	83 c4 1c             	add    $0x1c,%esp
    46c0:	5b                   	pop    %ebx
    46c1:	5e                   	pop    %esi
    46c2:	5f                   	pop    %edi
    46c3:	5d                   	pop    %ebp
    46c4:	e9 77 fb ff ff       	jmp    4240 <usb_hid_report_parse_local_tag>
    46c9:	8d b4 26 00 00 00 00 	lea    0x0(%esi,%eiz,1),%esi
    46d0:	8b 46 14             	mov    0x14(%esi),%eax
    46d3:	8d 56 10             	lea    0x10(%esi),%edx
    46d6:	39 d0                	cmp    %edx,%eax
    46d8:	0f 84 9f 00 00 00    	je     477d <usb_hid_report_parse_tag+0x14d>
    46de:	83 e8 0c             	sub    $0xc,%eax
    46e1:	8a 09                	mov    (%ecx),%cl
    46e3:	88 48 08             	mov    %cl,0x8(%eax)
    46e6:	8b 83 04 00 04 00    	mov    0x40004(%ebx),%eax
    46ec:	8b 44 83 04          	mov    0x4(%ebx,%eax,4),%eax
    46f0:	c7 44 24 04 01 00 00 	movl   $0x1,0x4(%esp)
    46f7:	00 
    46f8:	c1 e8 10             	shr    $0x10,%eax
    46fb:	89 34 24             	mov    %esi,(%esp)
    46fe:	89 44 24 08          	mov    %eax,0x8(%esp)
    4702:	e8 69 15 00 00       	call   5c70 <usb_hid_report_set_last_item>
    4707:	8b 83 04 00 04 00    	mov    0x40004(%ebx),%eax
    470d:	8b 44 83 04          	mov    0x4(%ebx,%eax,4),%eax
    4711:	c7 44 24 04 02 00 00 	movl   $0x2,0x4(%esp)
    4718:	00 
    4719:	25 ff ff 00 00       	and    $0xffff,%eax
    471e:	89 34 24             	mov    %esi,(%esp)
    4721:	89 44 24 08          	mov    %eax,0x8(%esp)
    4725:	e8 46 15 00 00       	call   5c70 <usb_hid_report_set_last_item>
    472a:	8b 83 04 00 04 00    	mov    0x40004(%ebx),%eax
    4730:	8b 44 83 04          	mov    0x4(%ebx,%eax,4),%eax
    4734:	89 44 24 08          	mov    %eax,0x8(%esp)
    4738:	8b 83 08 00 04 00    	mov    0x40008(%ebx),%eax
    473e:	89 34 24             	mov    %esi,(%esp)
    4741:	89 44 24 04          	mov    %eax,0x4(%esp)
    4745:	e8 16 14 00 00       	call   5b60 <usb_hid_report_path_append_item>
    474a:	89 1c 24             	mov    %ebx,(%esp)
    474d:	e8 7e 13 00 00       	call   5ad0 <usb_hid_report_reset_local_items>
    4752:	e9 fe fe ff ff       	jmp    4655 <usb_hid_report_parse_tag+0x25>
    4757:	90                   	nop
    4758:	8a 09                	mov    (%ecx),%cl
    475a:	b8 01 00 00 00       	mov    $0x1,%eax
    475f:	88 8b 50 00 04 00    	mov    %cl,0x40050(%ebx)
    4765:	e9 f0 fe ff ff       	jmp    465a <usb_hid_report_parse_tag+0x2a>
    476a:	8d b6 00 00 00 00    	lea    0x0(%esi),%esi
    4770:	89 34 24             	mov    %esi,(%esp)
    4773:	e8 48 14 00 00       	call   5bc0 <usb_hid_report_remove_last_item>
    4778:	e9 d8 fe ff ff       	jmp    4655 <usb_hid_report_parse_tag+0x25>
    477d:	b8 f4 ff ff ff       	mov    $0xfffffff4,%eax
    4782:	e9 5a ff ff ff       	jmp    46e1 <usb_hid_report_parse_tag+0xb1>
    4787:	89 f6                	mov    %esi,%esi
    4789:	8d bc 27 00 00 00 00 	lea    0x0(%edi,%eiz,1),%edi

00004790 <usb_hid_parse_report_descriptor>:
    4790:	55                   	push   %ebp
    4791:	89 e5                	mov    %esp,%ebp
    4793:	57                   	push   %edi
    4794:	56                   	push   %esi
    4795:	53                   	push   %ebx
    4796:	83 ec 7c             	sub    $0x7c,%esp
    4799:	8d 55 e0             	lea    -0x20(%ebp),%edx
    479c:	89 55 d4             	mov    %edx,-0x2c(%ebp)
    479f:	89 55 e0             	mov    %edx,-0x20(%ebp)
    47a2:	89 55 e4             	mov    %edx,-0x1c(%ebp)
    47a5:	8b 55 08             	mov    0x8(%ebp),%edx
    47a8:	85 d2                	test   %edx,%edx
    47aa:	0f 84 50 04 00 00    	je     4c00 <usb_hid_parse_report_descriptor+0x470>
    47b0:	8b 55 08             	mov    0x8(%ebp),%edx
    47b3:	c7 44 24 08 20 00 00 	movl   $0x20,0x8(%esp)
    47ba:	00 
    47bb:	89 14 24             	mov    %edx,(%esp)
    47be:	c7 44 24 04 00 00 00 	movl   $0x0,0x4(%esp)
    47c5:	00 
    47c6:	e8 a5 27 01 00       	call   16f70 <memset>
    47cb:	8b 5d 08             	mov    0x8(%ebp),%ebx
    47ce:	8b 45 08             	mov    0x8(%ebp),%eax
    47d1:	c7 43 18 00 00 00 00 	movl   $0x0,0x18(%ebx)
    47d8:	83 c0 04             	add    $0x4,%eax
    47db:	89 43 04             	mov    %eax,0x4(%ebx)
    47de:	89 43 08             	mov    %eax,0x8(%ebx)
    47e1:	89 d8                	mov    %ebx,%eax
    47e3:	83 c0 0c             	add    $0xc,%eax
    47e6:	89 43 0c             	mov    %eax,0xc(%ebx)
    47e9:	89 43 10             	mov    %eax,0x10(%ebx)
    47ec:	c7 04 24 68 00 04 00 	movl   $0x40068,(%esp)
    47f3:	e8 08 fe 01 00       	call   24600 <malloc>
    47f8:	89 c6                	mov    %eax,%esi
    47fa:	85 c0                	test   %eax,%eax
    47fc:	0f 84 a4 04 00 00    	je     4ca6 <usb_hid_parse_report_descriptor+0x516>
    4802:	c7 44 24 08 68 00 04 	movl   $0x40068,0x8(%esp)
    4809:	00 
    480a:	c7 44 24 04 00 00 00 	movl   $0x0,0x4(%esp)
    4811:	00 
    4812:	89 04 24             	mov    %eax,(%esp)
    4815:	e8 56 27 01 00       	call   16f70 <memset>
    481a:	c7 86 5c 00 04 00 00 	movl   $0x0,0x4005c(%esi)
    4821:	00 00 00 
    4824:	c7 86 60 00 04 00 00 	movl   $0x0,0x40060(%esi)
    482b:	00 00 00 
    482e:	e8 2d 18 00 00       	call   6060 <usb_hid_report_path>
    4833:	89 45 cc             	mov    %eax,-0x34(%ebp)
    4836:	85 c0                	test   %eax,%eax
    4838:	0f 84 68 04 00 00    	je     4ca6 <usb_hid_parse_report_descriptor+0x516>
    483e:	c7 44 24 08 00 00 00 	movl   $0x0,0x8(%esp)
    4845:	00 
    4846:	c7 44 24 04 00 00 00 	movl   $0x0,0x4(%esp)
    484d:	00 
    484e:	89 04 24             	mov    %eax,(%esp)
    4851:	e8 0a 13 00 00       	call   5b60 <usb_hid_report_path_append_item>
    4856:	8b 45 10             	mov    0x10(%ebp),%eax
    4859:	85 c0                	test   %eax,%eax
    485b:	0f 84 3d 01 00 00    	je     499e <usb_hid_parse_report_descriptor+0x20e>
    4861:	8b 45 cc             	mov    -0x34(%ebp),%eax
    4864:	31 db                	xor    %ebx,%ebx
    4866:	83 c0 10             	add    $0x10,%eax
    4869:	c7 45 bc 00 00 00 00 	movl   $0x0,-0x44(%ebp)
    4870:	c7 45 c4 00 00 00 00 	movl   $0x0,-0x3c(%ebp)
    4877:	c7 45 c0 00 00 00 00 	movl   $0x0,-0x40(%ebp)
    487e:	89 45 b8             	mov    %eax,-0x48(%ebp)
    4881:	89 d9                	mov    %ebx,%ecx
    4883:	90                   	nop
    4884:	8d 74 26 00          	lea    0x0(%esi,%eiz,1),%esi
    4888:	8b 7d 0c             	mov    0xc(%ebp),%edi
    488b:	01 cf                	add    %ecx,%edi
    488d:	8a 07                	mov    (%edi),%al
    488f:	3c fe                	cmp    $0xfe,%al
    4891:	0f 84 c1 01 00 00    	je     4a58 <usb_hid_parse_report_descriptor+0x2c8>
    4897:	89 c2                	mov    %eax,%edx
    4899:	83 e2 03             	and    $0x3,%edx
    489c:	8d 1c 0a             	lea    (%edx,%ecx,1),%ebx
    489f:	39 5d 10             	cmp    %ebx,0x10(%ebp)
    48a2:	0f 86 58 03 00 00    	jbe    4c00 <usb_hid_parse_report_descriptor+0x470>
    48a8:	88 c3                	mov    %al,%bl
    48aa:	41                   	inc    %ecx
    48ab:	c0 eb 04             	shr    $0x4,%bl
    48ae:	83 e0 0c             	and    $0xc,%eax
    48b1:	89 4d d0             	mov    %ecx,-0x30(%ebp)
    48b4:	88 5d a3             	mov    %bl,-0x5d(%ebp)
    48b7:	8b 4d 0c             	mov    0xc(%ebp),%ecx
    48ba:	81 e3 ff 00 00 00    	and    $0xff,%ebx
    48c0:	c1 f8 02             	sar    $0x2,%eax
    48c3:	03 4d d0             	add    -0x30(%ebp),%ecx
    48c6:	89 5d c8             	mov    %ebx,-0x38(%ebp)
    48c9:	3c 01                	cmp    $0x1,%al
    48cb:	0f 84 df 01 00 00    	je     4ab0 <usb_hid_parse_report_descriptor+0x320>
    48d1:	0f 83 99 01 00 00    	jae    4a70 <usb_hid_parse_report_descriptor+0x2e0>
    48d7:	8a 45 a3             	mov    -0x5d(%ebp),%al
    48da:	83 e8 08             	sub    $0x8,%eax
    48dd:	3c 04                	cmp    $0x4,%al
    48df:	0f 87 ab 00 00 00    	ja     4990 <usb_hid_parse_report_descriptor+0x200>
    48e5:	25 ff 00 00 00       	and    $0xff,%eax
    48ea:	ff 24 85 00 28 03 00 	jmp    *0x32800(,%eax,4)
    48f1:	8d b4 26 00 00 00 00 	lea    0x0(%esi,%eiz,1),%esi
    48f8:	8b 55 cc             	mov    -0x34(%ebp),%edx
    48fb:	8b 42 14             	mov    0x14(%edx),%eax
    48fe:	3b 45 b8             	cmp    -0x48(%ebp),%eax
    4901:	0f 84 95 03 00 00    	je     4c9c <usb_hid_parse_report_descriptor+0x50c>
    4907:	83 e8 0c             	sub    $0xc,%eax
    490a:	8a 09                	mov    (%ecx),%cl
    490c:	88 48 08             	mov    %cl,0x8(%eax)
    490f:	8b 86 04 00 04 00    	mov    0x40004(%esi),%eax
    4915:	8b 44 86 04          	mov    0x4(%esi,%eax,4),%eax
    4919:	c7 44 24 04 01 00 00 	movl   $0x1,0x4(%esp)
    4920:	00 
    4921:	c1 e8 10             	shr    $0x10,%eax
    4924:	89 44 24 08          	mov    %eax,0x8(%esp)
    4928:	8b 45 cc             	mov    -0x34(%ebp),%eax
    492b:	89 04 24             	mov    %eax,(%esp)
    492e:	e8 3d 13 00 00       	call   5c70 <usb_hid_report_set_last_item>
    4933:	8b 86 04 00 04 00    	mov    0x40004(%esi),%eax
    4939:	8b 44 86 04          	mov    0x4(%esi,%eax,4),%eax
    493d:	c7 44 24 04 02 00 00 	movl   $0x2,0x4(%esp)
    4944:	00 
    4945:	25 ff ff 00 00       	and    $0xffff,%eax
    494a:	89 44 24 08          	mov    %eax,0x8(%esp)
    494e:	8b 45 cc             	mov    -0x34(%ebp),%eax
    4951:	89 04 24             	mov    %eax,(%esp)
    4954:	e8 17 13 00 00       	call   5c70 <usb_hid_report_set_last_item>
    4959:	8b 86 04 00 04 00    	mov    0x40004(%esi),%eax
    495f:	8b 44 86 04          	mov    0x4(%esi,%eax,4),%eax
    4963:	89 44 24 08          	mov    %eax,0x8(%esp)
    4967:	8b 86 08 00 04 00    	mov    0x40008(%esi),%eax
    496d:	89 44 24 04          	mov    %eax,0x4(%esp)
    4971:	8b 45 cc             	mov    -0x34(%ebp),%eax
    4974:	89 04 24             	mov    %eax,(%esp)
    4977:	e8 e4 11 00 00       	call   5b60 <usb_hid_report_path_append_item>
    497c:	89 34 24             	mov    %esi,(%esp)
    497f:	e8 4c 11 00 00       	call   5ad0 <usb_hid_report_reset_local_items>
    4984:	8a 17                	mov    (%edi),%dl
    4986:	83 e2 03             	and    $0x3,%edx
    4989:	8d b4 26 00 00 00 00 	lea    0x0(%esi,%eiz,1),%esi
    4990:	8b 4d d0             	mov    -0x30(%ebp),%ecx
    4993:	01 d1                	add    %edx,%ecx
    4995:	39 4d 10             	cmp    %ecx,0x10(%ebp)
    4998:	0f 87 ea fe ff ff    	ja     4888 <usb_hid_parse_report_descriptor+0xf8>
    499e:	83 c4 7c             	add    $0x7c,%esp
    49a1:	31 c0                	xor    %eax,%eax
    49a3:	5b                   	pop    %ebx
    49a4:	5e                   	pop    %esi
    49a5:	5f                   	pop    %edi
    49a6:	5d                   	pop    %ebp
    49a7:	c3                   	ret    
    49a8:	8b 45 cc             	mov    -0x34(%ebp),%eax
    49ab:	89 04 24             	mov    %eax,(%esp)
    49ae:	e8 0d 12 00 00       	call   5bc0 <usb_hid_report_remove_last_item>
    49b3:	8a 17                	mov    (%edi),%dl
    49b5:	83 e2 03             	and    $0x3,%edx
    49b8:	eb d6                	jmp    4990 <usb_hid_parse_report_descriptor+0x200>
    49ba:	8d b6 00 00 00 00    	lea    0x0(%esi),%esi
    49c0:	8a 09                	mov    (%ecx),%cl
    49c2:	88 8e 50 00 04 00    	mov    %cl,0x40050(%esi)
    49c8:	8b 45 cc             	mov    -0x34(%ebp),%eax
    49cb:	89 86 58 00 04 00    	mov    %eax,0x40058(%esi)
    49d1:	31 c0                	xor    %eax,%eax
    49d3:	8a 06                	mov    (%esi),%al
    49d5:	89 44 24 04          	mov    %eax,0x4(%esp)
    49d9:	8b 45 cc             	mov    -0x34(%ebp),%eax
    49dc:	89 04 24             	mov    %eax,(%esp)
    49df:	e8 2c 18 00 00       	call   6210 <usb_hid_report_path_set_report_id>
    49e4:	8b 0e                	mov    (%esi),%ecx
    49e6:	85 c9                	test   %ecx,%ecx
    49e8:	74 0a                	je     49f4 <usb_hid_parse_report_descriptor+0x264>
    49ea:	8b 55 08             	mov    0x8(%ebp),%edx
    49ed:	c7 42 18 01 00 00 00 	movl   $0x1,0x18(%edx)
    49f4:	80 7d a3 09          	cmpb   $0x9,-0x5d(%ebp)
    49f8:	0f 84 72 02 00 00    	je     4c70 <usb_hid_parse_report_descriptor+0x4e0>
    49fe:	80 7d a3 0b          	cmpb   $0xb,-0x5d(%ebp)
    4a02:	0f 84 38 02 00 00    	je     4c40 <usb_hid_parse_report_descriptor+0x4b0>
    4a08:	80 7d a3 08          	cmpb   $0x8,-0x5d(%ebp)
    4a0c:	0f 84 fe 01 00 00    	je     4c10 <usb_hid_parse_report_descriptor+0x480>
    4a12:	8b 55 c8             	mov    -0x38(%ebp),%edx
    4a15:	c7 44 24 08 14 28 03 	movl   $0x32814,0x8(%esp)
    4a1c:	00 
    4a1d:	89 54 24 0c          	mov    %edx,0xc(%esp)
    4a21:	c7 44 24 04 05 00 00 	movl   $0x5,0x4(%esp)
    4a28:	00 
    4a29:	c7 04 24 ff ff ff ff 	movl   $0xffffffff,(%esp)
    4a30:	e8 2b ab 01 00       	call   1f560 <log_msg>
    4a35:	8b 5d 08             	mov    0x8(%ebp),%ebx
    4a38:	89 74 24 04          	mov    %esi,0x4(%esp)
    4a3c:	89 1c 24             	mov    %ebx,(%esp)
    4a3f:	e8 fc ed ff ff       	call   3840 <usb_hid_report_append_fields>
    4a44:	89 34 24             	mov    %esi,(%esp)
    4a47:	e8 84 10 00 00       	call   5ad0 <usb_hid_report_reset_local_items>
    4a4c:	8a 17                	mov    (%edi),%dl
    4a4e:	83 e2 03             	and    $0x3,%edx
    4a51:	e9 3a ff ff ff       	jmp    4990 <usb_hid_parse_report_descriptor+0x200>
    4a56:	66 90                	xchg   %ax,%ax
    4a58:	8b 55 0c             	mov    0xc(%ebp),%edx
    4a5b:	8a 54 0a 01          	mov    0x1(%edx,%ecx,1),%dl
    4a5f:	88 d0                	mov    %dl,%al
    4a61:	83 e0 03             	and    $0x3,%eax
    4a64:	8d 4c 08 03          	lea    0x3(%eax,%ecx,1),%ecx
    4a68:	e9 28 ff ff ff       	jmp    4995 <usb_hid_parse_report_descriptor+0x205>
    4a6d:	8d 76 00             	lea    0x0(%esi),%esi
    4a70:	3c 02                	cmp    $0x2,%al
    4a72:	0f 85 18 ff ff ff    	jne    4990 <usb_hid_parse_report_descriptor+0x200>
    4a78:	8b 45 cc             	mov    -0x34(%ebp),%eax
    4a7b:	89 54 24 08          	mov    %edx,0x8(%esp)
    4a7f:	8b 55 c8             	mov    -0x38(%ebp),%edx
    4a82:	89 44 24 10          	mov    %eax,0x10(%esp)
    4a86:	89 74 24 0c          	mov    %esi,0xc(%esp)
    4a8a:	89 4c 24 04          	mov    %ecx,0x4(%esp)
    4a8e:	89 14 24             	mov    %edx,(%esp)
    4a91:	e8 aa f7 ff ff       	call   4240 <usb_hid_report_parse_local_tag>
    4a96:	83 f8 03             	cmp    $0x3,%eax
    4a99:	74 38                	je     4ad3 <usb_hid_parse_report_descriptor+0x343>
    4a9b:	7f 6b                	jg     4b08 <usb_hid_parse_report_descriptor+0x378>
    4a9d:	48                   	dec    %eax
    4a9e:	0f 84 24 ff ff ff    	je     49c8 <usb_hid_parse_report_descriptor+0x238>
    4aa4:	8a 17                	mov    (%edi),%dl
    4aa6:	83 e2 03             	and    $0x3,%edx
    4aa9:	e9 e2 fe ff ff       	jmp    4990 <usb_hid_parse_report_descriptor+0x200>
    4aae:	66 90                	xchg   %ax,%ax
    4ab0:	8b 45 cc             	mov    -0x34(%ebp),%eax
    4ab3:	89 54 24 08          	mov    %edx,0x8(%esp)
    4ab7:	8b 55 c8             	mov    -0x38(%ebp),%edx
    4aba:	89 44 24 10          	mov    %eax,0x10(%esp)
    4abe:	89 74 24 0c          	mov    %esi,0xc(%esp)
    4ac2:	89 4c 24 04          	mov    %ecx,0x4(%esp)
    4ac6:	89 14 24             	mov    %edx,(%esp)
    4ac9:	e8 72 f3 ff ff       	call   3e40 <usb_hid_report_parse_global_tag>
    4ace:	83 f8 03             	cmp    $0x3,%eax
    4ad1:	75 c8                	jne    4a9b <usb_hid_parse_report_descriptor+0x30b>
    4ad3:	31 c0                	xor    %eax,%eax
    4ad5:	8a 06                	mov    (%esi),%al
    4ad7:	89 44 24 04          	mov    %eax,0x4(%esp)
    4adb:	8b 45 cc             	mov    -0x34(%ebp),%eax
    4ade:	89 04 24             	mov    %eax,(%esp)
    4ae1:	e8 2a 17 00 00       	call   6210 <usb_hid_report_path_set_report_id>
    4ae6:	8a 17                	mov    (%edi),%dl
    4ae8:	83 e2 03             	and    $0x3,%edx
    4aeb:	c7 45 bc 00 00 00 00 	movl   $0x0,-0x44(%ebp)
    4af2:	c7 45 c4 00 00 00 00 	movl   $0x0,-0x3c(%ebp)
    4af9:	c7 45 c0 00 00 00 00 	movl   $0x0,-0x40(%ebp)
    4b00:	e9 8b fe ff ff       	jmp    4990 <usb_hid_parse_report_descriptor+0x200>
    4b05:	8d 76 00             	lea    0x0(%esi),%esi
    4b08:	83 f8 0a             	cmp    $0xa,%eax
    4b0b:	0f 84 a7 00 00 00    	je     4bb8 <usb_hid_parse_report_descriptor+0x428>
    4b11:	83 f8 0b             	cmp    $0xb,%eax
    4b14:	75 8e                	jne    4aa4 <usb_hid_parse_report_descriptor+0x314>
    4b16:	8b 5d e4             	mov    -0x1c(%ebp),%ebx
    4b19:	3b 5d d4             	cmp    -0x2c(%ebp),%ebx
    4b1c:	0f 84 de 00 00 00    	je     4c00 <usb_hid_parse_report_descriptor+0x470>
    4b22:	85 db                	test   %ebx,%ebx
    4b24:	0f 84 d6 00 00 00    	je     4c00 <usb_hid_parse_report_descriptor+0x470>
    4b2a:	89 34 24             	mov    %esi,(%esp)
    4b2d:	8d b3 a4 ff fb ff    	lea    -0x4005c(%ebx),%esi
    4b33:	e8 d8 fb 01 00       	call   24710 <free>
    4b38:	8b 86 58 00 04 00    	mov    0x40058(%esi),%eax
    4b3e:	8b 40 08             	mov    0x8(%eax),%eax
    4b41:	8d 50 f4             	lea    -0xc(%eax),%edx
    4b44:	8b 40 f4             	mov    -0xc(%eax),%eax
    4b47:	89 44 24 08          	mov    %eax,0x8(%esp)
    4b4b:	8b 45 cc             	mov    -0x34(%ebp),%eax
    4b4e:	89 04 24             	mov    %eax,(%esp)
    4b51:	c7 44 24 04 01 00 00 	movl   $0x1,0x4(%esp)
    4b58:	00 
    4b59:	89 55 a4             	mov    %edx,-0x5c(%ebp)
    4b5c:	e8 0f 11 00 00       	call   5c70 <usb_hid_report_set_last_item>
    4b61:	8b 55 a4             	mov    -0x5c(%ebp),%edx
    4b64:	8b 42 04             	mov    0x4(%edx),%eax
    4b67:	c7 44 24 04 02 00 00 	movl   $0x2,0x4(%esp)
    4b6e:	00 
    4b6f:	89 44 24 08          	mov    %eax,0x8(%esp)
    4b73:	8b 45 cc             	mov    -0x34(%ebp),%eax
    4b76:	89 04 24             	mov    %eax,(%esp)
    4b79:	e8 f2 10 00 00       	call   5c70 <usb_hid_report_set_last_item>
    4b7e:	8b 86 58 00 04 00    	mov    0x40058(%esi),%eax
    4b84:	89 04 24             	mov    %eax,(%esp)
    4b87:	e8 14 15 00 00       	call   60a0 <usb_hid_report_path_free>
    4b8c:	8b 13                	mov    (%ebx),%edx
    4b8e:	85 d2                	test   %edx,%edx
    4b90:	74 0e                	je     4ba0 <usb_hid_parse_report_descriptor+0x410>
    4b92:	8b 43 04             	mov    0x4(%ebx),%eax
    4b95:	85 c0                	test   %eax,%eax
    4b97:	74 07                	je     4ba0 <usb_hid_parse_report_descriptor+0x410>
    4b99:	89 10                	mov    %edx,(%eax)
    4b9b:	8b 13                	mov    (%ebx),%edx
    4b9d:	89 42 04             	mov    %eax,0x4(%edx)
    4ba0:	c7 03 00 00 00 00    	movl   $0x0,(%ebx)
    4ba6:	c7 43 04 00 00 00 00 	movl   $0x0,0x4(%ebx)
    4bad:	e9 f2 fe ff ff       	jmp    4aa4 <usb_hid_parse_report_descriptor+0x314>
    4bb2:	8d b6 00 00 00 00    	lea    0x0(%esi),%esi
    4bb8:	89 34 24             	mov    %esi,(%esp)
    4bbb:	e8 70 0d 00 00       	call   5930 <usb_hid_report_item_clone>
    4bc0:	89 c3                	mov    %eax,%ebx
    4bc2:	8b 45 cc             	mov    -0x34(%ebp),%eax
    4bc5:	89 04 24             	mov    %eax,(%esp)
    4bc8:	e8 83 15 00 00       	call   6150 <usb_hid_report_path_clone>
    4bcd:	8d 55 e0             	lea    -0x20(%ebp),%edx
    4bd0:	89 93 5c 00 04 00    	mov    %edx,0x4005c(%ebx)
    4bd6:	8b 55 e4             	mov    -0x1c(%ebp),%edx
    4bd9:	89 83 58 00 04 00    	mov    %eax,0x40058(%ebx)
    4bdf:	8d 83 5c 00 04 00    	lea    0x4005c(%ebx),%eax
    4be5:	89 93 60 00 04 00    	mov    %edx,0x40060(%ebx)
    4beb:	89 02                	mov    %eax,(%edx)
    4bed:	8a 17                	mov    (%edi),%dl
    4bef:	89 45 e4             	mov    %eax,-0x1c(%ebp)
    4bf2:	83 e2 03             	and    $0x3,%edx
    4bf5:	e9 96 fd ff ff       	jmp    4990 <usb_hid_parse_report_descriptor+0x200>
    4bfa:	8d b6 00 00 00 00    	lea    0x0(%esi),%esi
    4c00:	b8 f2 ff ff ff       	mov    $0xfffffff2,%eax
    4c05:	83 c4 7c             	add    $0x7c,%esp
    4c08:	5b                   	pop    %ebx
    4c09:	5e                   	pop    %esi
    4c0a:	5f                   	pop    %edi
    4c0b:	5d                   	pop    %ebp
    4c0c:	c3                   	ret    
    4c0d:	8d 76 00             	lea    0x0(%esi),%esi
    4c10:	8b 86 20 00 04 00    	mov    0x40020(%esi),%eax
    4c16:	8b 96 1c 00 04 00    	mov    0x4001c(%esi),%edx
    4c1c:	0f af c2             	imul   %edx,%eax
    4c1f:	8b 5d c0             	mov    -0x40(%ebp),%ebx
    4c22:	c7 86 54 00 04 00 01 	movl   $0x1,0x40054(%esi)
    4c29:	00 00 00 
    4c2c:	89 9e 24 00 04 00    	mov    %ebx,0x40024(%esi)
    4c32:	01 c3                	add    %eax,%ebx
    4c34:	89 5d c0             	mov    %ebx,-0x40(%ebp)
    4c37:	e9 f9 fd ff ff       	jmp    4a35 <usb_hid_parse_report_descriptor+0x2a5>
    4c3c:	8d 74 26 00          	lea    0x0(%esi,%eiz,1),%esi
    4c40:	8b 86 20 00 04 00    	mov    0x40020(%esi),%eax
    4c46:	8b 96 1c 00 04 00    	mov    0x4001c(%esi),%edx
    4c4c:	0f af c2             	imul   %edx,%eax
    4c4f:	8b 5d bc             	mov    -0x44(%ebp),%ebx
    4c52:	c7 86 54 00 04 00 03 	movl   $0x3,0x40054(%esi)
    4c59:	00 00 00 
    4c5c:	89 9e 24 00 04 00    	mov    %ebx,0x40024(%esi)
    4c62:	01 c3                	add    %eax,%ebx
    4c64:	89 5d bc             	mov    %ebx,-0x44(%ebp)
    4c67:	e9 c9 fd ff ff       	jmp    4a35 <usb_hid_parse_report_descriptor+0x2a5>
    4c6c:	8d 74 26 00          	lea    0x0(%esi,%eiz,1),%esi
    4c70:	8b 86 20 00 04 00    	mov    0x40020(%esi),%eax
    4c76:	8b 8e 1c 00 04 00    	mov    0x4001c(%esi),%ecx
    4c7c:	0f af c1             	imul   %ecx,%eax
    4c7f:	8b 55 c4             	mov    -0x3c(%ebp),%edx
    4c82:	c7 86 54 00 04 00 02 	movl   $0x2,0x40054(%esi)
    4c89:	00 00 00 
    4c8c:	89 96 24 00 04 00    	mov    %edx,0x40024(%esi)
    4c92:	01 c2                	add    %eax,%edx
    4c94:	89 55 c4             	mov    %edx,-0x3c(%ebp)
    4c97:	e9 99 fd ff ff       	jmp    4a35 <usb_hid_parse_report_descriptor+0x2a5>
    4c9c:	b8 f4 ff ff ff       	mov    $0xfffffff4,%eax
    4ca1:	e9 64 fc ff ff       	jmp    490a <usb_hid_parse_report_descriptor+0x17a>
    4ca6:	b8 fe ff ff ff       	mov    $0xfffffffe,%eax
    4cab:	e9 55 ff ff ff       	jmp    4c05 <usb_hid_parse_report_descriptor+0x475>

00004cb0 <usb_hid_report_tag_data_uint32>:
    4cb0:	55                   	push   %ebp
    4cb1:	31 c0                	xor    %eax,%eax
    4cb3:	89 e5                	mov    %esp,%ebp
    4cb5:	57                   	push   %edi
    4cb6:	56                   	push   %esi
    4cb7:	53                   	push   %ebx
    4cb8:	8b 75 0c             	mov    0xc(%ebp),%esi
    4cbb:	8b 7d 08             	mov    0x8(%ebp),%edi
    4cbe:	85 f6                	test   %esi,%esi
    4cc0:	74 1b                	je     4cdd <usb_hid_report_tag_data_uint32+0x2d>
    4cc2:	31 d2                	xor    %edx,%edx
    4cc4:	8d 74 26 00          	lea    0x0(%esi,%eiz,1),%esi
    4cc8:	31 db                	xor    %ebx,%ebx
    4cca:	8d 0c d5 00 00 00 00 	lea    0x0(,%edx,8),%ecx
    4cd1:	8a 1c 17             	mov    (%edi,%edx,1),%bl
    4cd4:	42                   	inc    %edx
    4cd5:	d3 e3                	shl    %cl,%ebx
    4cd7:	09 d8                	or     %ebx,%eax
    4cd9:	39 f2                	cmp    %esi,%edx
    4cdb:	75 eb                	jne    4cc8 <usb_hid_report_tag_data_uint32+0x18>
    4cdd:	5b                   	pop    %ebx
    4cde:	5e                   	pop    %esi
    4cdf:	5f                   	pop    %edi
    4ce0:	5d                   	pop    %ebp
    4ce1:	c3                   	ret    
    4ce2:	8d b4 26 00 00 00 00 	lea    0x0(%esi,%eiz,1),%esi
    4ce9:	8d bc 27 00 00 00 00 	lea    0x0(%edi,%eiz,1),%edi

00004cf0 <usb_hid_descriptor_print_list>:
    4cf0:	55                   	push   %ebp
    4cf1:	89 e5                	mov    %esp,%ebp
    4cf3:	57                   	push   %edi
    4cf4:	56                   	push   %esi
    4cf5:	53                   	push   %ebx
    4cf6:	83 ec 1c             	sub    $0x1c,%esp
    4cf9:	8b 7d 08             	mov    0x8(%ebp),%edi
    4cfc:	85 ff                	test   %edi,%edi
    4cfe:	0f 84 fc 01 00 00    	je     4f00 <usb_hid_descriptor_print_list+0x210>
    4d04:	8b 77 04             	mov    0x4(%edi),%esi
    4d07:	39 fe                	cmp    %edi,%esi
    4d09:	0f 84 f1 01 00 00    	je     4f00 <usb_hid_descriptor_print_list+0x210>
    4d0f:	90                   	nop
    4d10:	8b 46 c0             	mov    -0x40(%esi),%eax
    4d13:	c7 44 24 08 31 28 03 	movl   $0x32831,0x8(%esp)
    4d1a:	00 
    4d1b:	89 44 24 0c          	mov    %eax,0xc(%esp)
    4d1f:	c7 44 24 04 04 00 00 	movl   $0x4,0x4(%esp)
    4d26:	00 
    4d27:	c7 04 24 ff ff ff ff 	movl   $0xffffffff,(%esp)
    4d2e:	e8 2d a8 01 00       	call   1f560 <log_msg>
    4d33:	8b 46 c4             	mov    -0x3c(%esi),%eax
    4d36:	89 44 24 0c          	mov    %eax,0xc(%esp)
    4d3a:	c7 44 24 08 3f 28 03 	movl   $0x3283f,0x8(%esp)
    4d41:	00 
    4d42:	c7 44 24 04 04 00 00 	movl   $0x4,0x4(%esp)
    4d49:	00 
    4d4a:	c7 04 24 ff ff ff ff 	movl   $0xffffffff,(%esp)
    4d51:	e8 0a a8 01 00       	call   1f560 <log_msg>
    4d56:	8b 46 d4             	mov    -0x2c(%esi),%eax
    4d59:	89 44 24 0c          	mov    %eax,0xc(%esp)
    4d5d:	c7 44 24 08 4c 28 03 	movl   $0x3284c,0x8(%esp)
    4d64:	00 
    4d65:	c7 44 24 04 04 00 00 	movl   $0x4,0x4(%esp)
    4d6c:	00 
    4d6d:	c7 04 24 ff ff ff ff 	movl   $0xffffffff,(%esp)
    4d74:	e8 e7 a7 01 00       	call   1f560 <log_msg>
    4d79:	8b 46 d8             	mov    -0x28(%esi),%eax
    4d7c:	89 44 24 0c          	mov    %eax,0xc(%esp)
    4d80:	c7 44 24 08 5a 28 03 	movl   $0x3285a,0x8(%esp)
    4d87:	00 
    4d88:	c7 44 24 04 04 00 00 	movl   $0x4,0x4(%esp)
    4d8f:	00 
    4d90:	c7 04 24 ff ff ff ff 	movl   $0xffffffff,(%esp)
    4d97:	e8 c4 a7 01 00       	call   1f560 <log_msg>
    4d9c:	8b 46 dc             	mov    -0x24(%esi),%eax
    4d9f:	89 44 24 0c          	mov    %eax,0xc(%esp)
    4da3:	c7 44 24 08 68 28 03 	movl   $0x32868,0x8(%esp)
    4daa:	00 
    4dab:	c7 44 24 04 04 00 00 	movl   $0x4,0x4(%esp)
    4db2:	00 
    4db3:	c7 04 24 ff ff ff ff 	movl   $0xffffffff,(%esp)
    4dba:	e8 a1 a7 01 00       	call   1f560 <log_msg>
    4dbf:	8b 46 e0             	mov    -0x20(%esi),%eax
    4dc2:	89 44 24 0c          	mov    %eax,0xc(%esp)
    4dc6:	c7 44 24 08 76 28 03 	movl   $0x32876,0x8(%esp)
    4dcd:	00 
    4dce:	c7 44 24 04 04 00 00 	movl   $0x4,0x4(%esp)
    4dd5:	00 
    4dd6:	c7 04 24 ff ff ff ff 	movl   $0xffffffff,(%esp)
    4ddd:	e8 7e a7 01 00       	call   1f560 <log_msg>
    4de2:	8b 46 e4             	mov    -0x1c(%esi),%eax
    4de5:	89 44 24 0c          	mov    %eax,0xc(%esp)
    4de9:	c7 44 24 08 84 28 03 	movl   $0x32884,0x8(%esp)
    4df0:	00 
    4df1:	c7 44 24 04 04 00 00 	movl   $0x4,0x4(%esp)
    4df8:	00 
    4df9:	c7 04 24 ff ff ff ff 	movl   $0xffffffff,(%esp)
    4e00:	e8 5b a7 01 00       	call   1f560 <log_msg>
    4e05:	8b 46 e8             	mov    -0x18(%esi),%eax
    4e08:	89 44 24 0c          	mov    %eax,0xc(%esp)
    4e0c:	c7 44 24 08 95 28 03 	movl   $0x32895,0x8(%esp)
    4e13:	00 
    4e14:	c7 44 24 04 04 00 00 	movl   $0x4,0x4(%esp)
    4e1b:	00 
    4e1c:	c7 04 24 ff ff ff ff 	movl   $0xffffffff,(%esp)
    4e23:	e8 38 a7 01 00       	call   1f560 <log_msg>
    4e28:	8b 46 f8             	mov    -0x8(%esi),%eax
    4e2b:	89 44 24 0c          	mov    %eax,0xc(%esp)
    4e2f:	c7 44 24 08 a5 28 03 	movl   $0x328a5,0x8(%esp)
    4e36:	00 
    4e37:	c7 44 24 04 04 00 00 	movl   $0x4,0x4(%esp)
    4e3e:	00 
    4e3f:	c7 04 24 ff ff ff ff 	movl   $0xffffffff,(%esp)
    4e46:	e8 15 a7 01 00       	call   1f560 <log_msg>
    4e4b:	8b 46 fc             	mov    -0x4(%esi),%eax
    4e4e:	89 44 24 0c          	mov    %eax,0xc(%esp)
    4e52:	c7 44 24 08 ba 28 03 	movl   $0x328ba,0x8(%esp)
    4e59:	00 
    4e5a:	c7 44 24 04 04 00 00 	movl   $0x4,0x4(%esp)
    4e61:	00 
    4e62:	c7 04 24 ff ff ff ff 	movl   $0xffffffff,(%esp)
    4e69:	e8 f2 a6 01 00       	call   1f560 <log_msg>
    4e6e:	66 8b 46 ca          	mov    -0x36(%esi),%ax
    4e72:	25 ff ff 00 00       	and    $0xffff,%eax
    4e77:	c7 44 24 08 c7 28 03 	movl   $0x328c7,0x8(%esp)
    4e7e:	00 
    4e7f:	89 44 24 0c          	mov    %eax,0xc(%esp)
