
ahci:     file format elf32-i386


Disassembly of section .init:

00001094 <__entry>:
    1094:	66 8c d0             	mov    %ss,%ax
    1097:	8e d8                	mov    %eax,%ds
    1099:	8e c0                	mov    %eax,%es
    109b:	8e e0                	mov    %eax,%fs
    109d:	b8 01 00 00 00       	mov    $0x1,%eax
    10a2:	0f a2                	cpuid  
    10a4:	0f ba e2 0b          	bt     $0xb,%edx
    10a8:	73 0c                	jae    10b6 <__entry+0x22>
    10aa:	8d 05 50 bc 02 00    	lea    0x2bc50,%eax
    10b0:	c7 00 17 2b 02 00    	movl   $0x22b17,(%eax)
    10b6:	6a 00                	push   $0x0
    10b8:	89 e5                	mov    %esp,%ebp
    10ba:	57                   	push   %edi
    10bb:	e8 50 70 00 00       	call   8110 <__main>

Disassembly of section .text:

000010c0 <ahci_interrupt>:
    10c0:	55                   	push   %ebp
    10c1:	89 e5                	mov    %esp,%ebp
    10c3:	57                   	push   %edi
    10c4:	56                   	push   %esi
    10c5:	53                   	push   %ebx
    10c6:	83 ec 1c             	sub    $0x1c,%esp
    10c9:	8b 5d 10             	mov    0x10(%ebp),%ebx
    10cc:	8b 45 08             	mov    0x8(%ebp),%eax
    10cf:	89 04 24             	mov    %eax,(%esp)
    10d2:	e8 69 1f 00 00       	call   3040 <ddf_dev_data_get>
    10d7:	8b 53 04             	mov    0x4(%ebx),%edx
    10da:	8b 73 08             	mov    0x8(%ebx),%esi
    10dd:	83 fa 1f             	cmp    $0x1f,%edx
    10e0:	77 3e                	ja     1120 <ahci_interrupt+0x60>
    10e2:	8b 5c 90 08          	mov    0x8(%eax,%edx,4),%ebx
    10e6:	85 db                	test   %ebx,%ebx
    10e8:	74 36                	je     1120 <ahci_interrupt+0x60>
    10ea:	f7 c6 d9 00 c0 fd    	test   $0xfdc000d9,%esi
    10f0:	74 2e                	je     1120 <ahci_interrupt+0x60>
    10f2:	8d 7b 28             	lea    0x28(%ebx),%edi
    10f5:	89 3c 24             	mov    %edi,(%esp)
    10f8:	e8 83 dc 00 00       	call   ed80 <fibril_mutex_lock>
    10fd:	89 73 40             	mov    %esi,0x40(%ebx)
    1100:	83 c3 38             	add    $0x38,%ebx
    1103:	89 1c 24             	mov    %ebx,(%esp)
    1106:	e8 15 e9 00 00       	call   fa20 <fibril_condvar_signal>
    110b:	89 7d 08             	mov    %edi,0x8(%ebp)
    110e:	83 c4 1c             	add    $0x1c,%esp
    1111:	5b                   	pop    %ebx
    1112:	5e                   	pop    %esi
    1113:	5f                   	pop    %edi
    1114:	5d                   	pop    %ebp
    1115:	e9 86 dd 00 00       	jmp    eea0 <fibril_mutex_unlock>
    111a:	8d b6 00 00 00 00    	lea    0x0(%esi),%esi
    1120:	83 c4 1c             	add    $0x1c,%esp
    1123:	5b                   	pop    %ebx
    1124:	5e                   	pop    %esi
    1125:	5f                   	pop    %edi
    1126:	5d                   	pop    %ebp
    1127:	c3                   	ret    
    1128:	90                   	nop
    1129:	8d b4 26 00 00 00 00 	lea    0x0(%esi,%eiz,1),%esi

00001130 <ahci_get_block_size>:
    1130:	55                   	push   %ebp
    1131:	89 e5                	mov    %esp,%ebp
    1133:	83 ec 18             	sub    $0x18,%esp
    1136:	8b 45 08             	mov    0x8(%ebp),%eax
    1139:	89 04 24             	mov    %eax,(%esp)
    113c:	e8 5f 21 00 00       	call   32a0 <ddf_fun_data_get>
    1141:	8b 50 50             	mov    0x50(%eax),%edx
    1144:	8b 45 0c             	mov    0xc(%ebp),%eax
    1147:	89 10                	mov    %edx,(%eax)
    1149:	31 c0                	xor    %eax,%eax
    114b:	c9                   	leave  
    114c:	c3                   	ret    
    114d:	8d 76 00             	lea    0x0(%esi),%esi

00001150 <ahci_get_num_blocks>:
    1150:	55                   	push   %ebp
    1151:	89 e5                	mov    %esp,%ebp
    1153:	83 ec 18             	sub    $0x18,%esp
    1156:	8b 45 08             	mov    0x8(%ebp),%eax
    1159:	89 04 24             	mov    %eax,(%esp)
    115c:	e8 3f 21 00 00       	call   32a0 <ddf_fun_data_get>
    1161:	8b 4d 0c             	mov    0xc(%ebp),%ecx
    1164:	8b 50 4c             	mov    0x4c(%eax),%edx
    1167:	8b 40 48             	mov    0x48(%eax),%eax
    116a:	89 01                	mov    %eax,(%ecx)
    116c:	89 51 04             	mov    %edx,0x4(%ecx)
    116f:	31 c0                	xor    %eax,%eax
    1171:	c9                   	leave  
    1172:	c3                   	ret    
    1173:	8d b6 00 00 00 00    	lea    0x0(%esi),%esi
    1179:	8d bc 27 00 00 00 00 	lea    0x0(%edi,%eiz,1),%edi

00001180 <ahci_get_sata_device_name>:
    1180:	55                   	push   %ebp
    1181:	89 e5                	mov    %esp,%ebp
    1183:	83 ec 18             	sub    $0x18,%esp
    1186:	8b 45 08             	mov    0x8(%ebp),%eax
    1189:	89 04 24             	mov    %eax,(%esp)
    118c:	e8 0f 21 00 00       	call   32a0 <ddf_fun_data_get>
    1191:	83 c0 54             	add    $0x54,%eax
    1194:	89 44 24 08          	mov    %eax,0x8(%esp)
    1198:	8b 45 0c             	mov    0xc(%ebp),%eax
    119b:	89 44 24 04          	mov    %eax,0x4(%esp)
    119f:	8b 45 10             	mov    0x10(%ebp),%eax
    11a2:	89 04 24             	mov    %eax,(%esp)
    11a5:	e8 b6 b4 00 00       	call   c660 <str_cpy>
    11aa:	31 c0                	xor    %eax,%eax
    11ac:	c9                   	leave  
    11ad:	c3                   	ret    
    11ae:	66 90                	xchg   %ax,%ax

000011b0 <ahci_write_blocks>:
    11b0:	55                   	push   %ebp
    11b1:	89 e5                	mov    %esp,%ebp
    11b3:	57                   	push   %edi
    11b4:	56                   	push   %esi
    11b5:	53                   	push   %ebx
    11b6:	83 ec 5c             	sub    $0x5c,%esp
    11b9:	8b 45 0c             	mov    0xc(%ebp),%eax
    11bc:	8b 55 10             	mov    0x10(%ebp),%edx
    11bf:	89 45 d0             	mov    %eax,-0x30(%ebp)
    11c2:	8b 45 08             	mov    0x8(%ebp),%eax
    11c5:	89 04 24             	mov    %eax,(%esp)
    11c8:	89 55 d4             	mov    %edx,-0x2c(%ebp)
    11cb:	e8 d0 20 00 00       	call   32a0 <ddf_fun_data_get>
    11d0:	c7 44 24 08 00 00 00 	movl   $0x0,0x8(%esp)
    11d7:	00 
    11d8:	89 c6                	mov    %eax,%esi
    11da:	8d 45 e4             	lea    -0x1c(%ebp),%eax
    11dd:	89 44 24 10          	mov    %eax,0x10(%esp)
    11e1:	8d 45 e0             	lea    -0x20(%ebp),%eax
    11e4:	89 44 24 0c          	mov    %eax,0xc(%esp)
    11e8:	c7 44 24 04 03 00 00 	movl   $0x3,0x4(%esp)
    11ef:	00 
    11f0:	8b 46 50             	mov    0x50(%esi),%eax
    11f3:	89 04 24             	mov    %eax,(%esp)
    11f6:	e8 b5 70 00 00       	call   82b0 <dmamem_map_anonymous>
    11fb:	89 45 c4             	mov    %eax,-0x3c(%ebp)
    11fe:	85 c0                	test   %eax,%eax
    1200:	0f 85 fd 01 00 00    	jne    1403 <ahci_write_blocks+0x253>
    1206:	8d 56 18             	lea    0x18(%esi),%edx
    1209:	89 14 24             	mov    %edx,(%esp)
    120c:	89 55 c0             	mov    %edx,-0x40(%ebp)
    120f:	e8 6c db 00 00       	call   ed80 <fibril_mutex_lock>
    1214:	8b 5d 14             	mov    0x14(%ebp),%ebx
    1217:	85 db                	test   %ebx,%ebx
    1219:	0f 84 c3 01 00 00    	je     13e2 <ahci_write_blocks+0x232>
    121f:	8b 46 50             	mov    0x50(%esi),%eax
    1222:	c7 45 c8 00 00 00 00 	movl   $0x0,-0x38(%ebp)
    1229:	8d 7e 28             	lea    0x28(%esi),%edi
    122c:	8d 5e 38             	lea    0x38(%esi),%ebx
    122f:	90                   	nop
    1230:	8b 55 c8             	mov    -0x38(%ebp),%edx
    1233:	89 44 24 08          	mov    %eax,0x8(%esp)
    1237:	0f af c2             	imul   %edx,%eax
    123a:	8b 4d 18             	mov    0x18(%ebp),%ecx
    123d:	01 c8                	add    %ecx,%eax
    123f:	89 44 24 04          	mov    %eax,0x4(%esp)
    1243:	8b 45 e4             	mov    -0x1c(%ebp),%eax
    1246:	89 04 24             	mov    %eax,(%esp)
    1249:	e8 52 9a 00 00       	call   aca0 <memcpy>
    124e:	8b 45 e0             	mov    -0x20(%ebp),%eax
    1251:	89 45 cc             	mov    %eax,-0x34(%ebp)
    1254:	80 7e 09 00          	cmpb   $0x0,0x9(%esi)
    1258:	0f 85 c4 01 00 00    	jne    1422 <ahci_write_blocks+0x272>
    125e:	8b 4e 14             	mov    0x14(%esi),%ecx
    1261:	8a 55 d0             	mov    -0x30(%ebp),%dl
    1264:	8b 45 d0             	mov    -0x30(%ebp),%eax
    1267:	c6 01 27             	movb   $0x27,(%ecx)
    126a:	c6 41 01 80          	movb   $0x80,0x1(%ecx)
    126e:	c6 41 02 61          	movb   $0x61,0x2(%ecx)
    1272:	c6 41 0c 00          	movb   $0x0,0xc(%ecx)
    1276:	c6 41 0f 00          	movb   $0x0,0xf(%ecx)
    127a:	c6 41 0d 00          	movb   $0x0,0xd(%ecx)
    127e:	c6 41 0e 00          	movb   $0x0,0xe(%ecx)
    1282:	c6 41 10 00          	movb   $0x0,0x10(%ecx)
    1286:	c6 41 11 00          	movb   $0x0,0x11(%ecx)
    128a:	c6 41 12 00          	movb   $0x0,0x12(%ecx)
    128e:	c6 41 13 00          	movb   $0x0,0x13(%ecx)
    1292:	c6 41 03 01          	movb   $0x1,0x3(%ecx)
    1296:	c6 41 0b 00          	movb   $0x0,0xb(%ecx)
    129a:	88 51 04             	mov    %dl,0x4(%ecx)
    129d:	8b 55 d4             	mov    -0x2c(%ebp),%edx
    12a0:	0f ac d0 08          	shrd   $0x8,%edx,%eax
    12a4:	88 41 05             	mov    %al,0x5(%ecx)
    12a7:	8b 55 d4             	mov    -0x2c(%ebp),%edx
    12aa:	8b 45 d0             	mov    -0x30(%ebp),%eax
    12ad:	0f ac d0 10          	shrd   $0x10,%edx,%eax
    12b1:	88 41 06             	mov    %al,0x6(%ecx)
    12b4:	8b 55 d4             	mov    -0x2c(%ebp),%edx
    12b7:	8b 45 d0             	mov    -0x30(%ebp),%eax
    12ba:	0f ac d0 18          	shrd   $0x18,%edx,%eax
    12be:	88 41 08             	mov    %al,0x8(%ecx)
    12c1:	8b 45 d4             	mov    -0x2c(%ebp),%eax
    12c4:	88 41 09             	mov    %al,0x9(%ecx)
    12c7:	8b 55 cc             	mov    -0x34(%ebp),%edx
    12ca:	c1 e8 08             	shr    $0x8,%eax
    12cd:	88 41 0a             	mov    %al,0xa(%ecx)
    12d0:	8b 46 14             	mov    0x14(%esi),%eax
    12d3:	8b 4e 50             	mov    0x50(%esi),%ecx
    12d6:	49                   	dec    %ecx
    12d7:	89 90 80 00 00 00    	mov    %edx,0x80(%eax)
    12dd:	c7 80 84 00 00 00 00 	movl   $0x0,0x84(%eax)
    12e4:	00 00 00 
    12e7:	c7 80 88 00 00 00 00 	movl   $0x0,0x88(%eax)
    12ee:	00 00 00 
    12f1:	81 e1 ff ff 3f 00    	and    $0x3fffff,%ecx
    12f7:	8b 90 8c 00 00 00    	mov    0x8c(%eax),%edx
    12fd:	81 e2 00 00 c0 ff    	and    $0xffc00000,%edx
    1303:	09 ca                	or     %ecx,%edx
    1305:	89 90 8c 00 00 00    	mov    %edx,0x8c(%eax)
    130b:	8b 90 8c 00 00 00    	mov    0x8c(%eax),%edx
    1311:	81 e2 ff ff 3f 80    	and    $0x803fffff,%edx
    1317:	89 90 8c 00 00 00    	mov    %edx,0x8c(%eax)
    131d:	8b 90 8c 00 00 00    	mov    0x8c(%eax),%edx
    1323:	81 e2 ff ff ff 7f    	and    $0x7fffffff,%edx
    1329:	89 90 8c 00 00 00    	mov    %edx,0x8c(%eax)
    132f:	8b 46 10             	mov    0x10(%esi),%eax
    1332:	66 c7 40 02 01 00    	movw   $0x1,0x2(%eax)
    1338:	66 c7 00 45 04       	movw   $0x445,(%eax)
    133d:	c7 40 04 00 00 00 00 	movl   $0x0,0x4(%eax)
    1344:	8b 46 0c             	mov    0xc(%esi),%eax
    1347:	8b 50 34             	mov    0x34(%eax),%edx
    134a:	83 ca 01             	or     $0x1,%edx
    134d:	89 50 34             	mov    %edx,0x34(%eax)
    1350:	8b 50 38             	mov    0x38(%eax),%edx
    1353:	83 ca 01             	or     $0x1,%edx
    1356:	89 50 38             	mov    %edx,0x38(%eax)
    1359:	89 3c 24             	mov    %edi,(%esp)
    135c:	e8 1f da 00 00       	call   ed80 <fibril_mutex_lock>
    1361:	c7 46 40 00 00 00 00 	movl   $0x0,0x40(%esi)
    1368:	89 7c 24 04          	mov    %edi,0x4(%esp)
    136c:	89 1c 24             	mov    %ebx,(%esp)
    136f:	e8 5c e6 00 00       	call   f9d0 <fibril_condvar_wait>
    1374:	8b 46 40             	mov    0x40(%esi),%eax
    1377:	85 c0                	test   %eax,%eax
    1379:	74 ed                	je     1368 <ahci_write_blocks+0x1b8>
    137b:	a9 c0 00 c0 80       	test   $0x80c000c0,%eax
    1380:	74 04                	je     1386 <ahci_write_blocks+0x1d6>
    1382:	c6 46 09 01          	movb   $0x1,0x9(%esi)
    1386:	89 3c 24             	mov    %edi,(%esp)
    1389:	89 45 bc             	mov    %eax,-0x44(%ebp)
    138c:	e8 0f db 00 00       	call   eea0 <fibril_mutex_unlock>
    1391:	8b 45 bc             	mov    -0x44(%ebp),%eax
    1394:	80 7e 09 00          	cmpb   $0x0,0x9(%esi)
    1398:	75 26                	jne    13c0 <ahci_write_blocks+0x210>
    139a:	a9 d0 00 c0 fd       	test   $0xfdc000d0,%eax
    139f:	75 1f                	jne    13c0 <ahci_write_blocks+0x210>
    13a1:	8b 45 c8             	mov    -0x38(%ebp),%eax
    13a4:	8b 55 14             	mov    0x14(%ebp),%edx
    13a7:	40                   	inc    %eax
    13a8:	83 45 d0 01          	addl   $0x1,-0x30(%ebp)
    13ac:	83 55 d4 00          	adcl   $0x0,-0x2c(%ebp)
    13b0:	89 45 c8             	mov    %eax,-0x38(%ebp)
    13b3:	39 55 c8             	cmp    %edx,-0x38(%ebp)
    13b6:	74 2a                	je     13e2 <ahci_write_blocks+0x232>
    13b8:	8b 46 50             	mov    0x50(%esi),%eax
    13bb:	e9 70 fe ff ff       	jmp    1230 <ahci_write_blocks+0x80>
    13c0:	83 c6 54             	add    $0x54,%esi
    13c3:	c7 44 24 04 90 73 02 	movl   $0x27390,0x4(%esp)
    13ca:	00 
    13cb:	89 74 24 08          	mov    %esi,0x8(%esp)
    13cf:	c7 04 24 01 00 00 00 	movl   $0x1,(%esp)
    13d6:	e8 c5 27 00 00       	call   3ba0 <ddf_msg>
    13db:	c7 45 c4 ef ff ff ff 	movl   $0xffffffef,-0x3c(%ebp)
    13e2:	8b 55 c0             	mov    -0x40(%ebp),%edx
    13e5:	89 14 24             	mov    %edx,(%esp)
    13e8:	e8 b3 da 00 00       	call   eea0 <fibril_mutex_unlock>
    13ed:	8b 45 e4             	mov    -0x1c(%ebp),%eax
    13f0:	89 04 24             	mov    %eax,(%esp)
    13f3:	e8 58 6f 00 00       	call   8350 <dmamem_unmap_anonymous>
    13f8:	8b 45 c4             	mov    -0x3c(%ebp),%eax
    13fb:	83 c4 5c             	add    $0x5c,%esp
    13fe:	5b                   	pop    %ebx
    13ff:	5e                   	pop    %esi
    1400:	5f                   	pop    %edi
    1401:	5d                   	pop    %ebp
    1402:	c3                   	ret    
    1403:	c7 44 24 04 82 72 02 	movl   $0x27282,0x4(%esp)
    140a:	00 
    140b:	c7 04 24 01 00 00 00 	movl   $0x1,(%esp)
    1412:	e8 89 27 00 00       	call   3ba0 <ddf_msg>
    1417:	8b 45 c4             	mov    -0x3c(%ebp),%eax
    141a:	83 c4 5c             	add    $0x5c,%esp
    141d:	5b                   	pop    %ebx
    141e:	5e                   	pop    %esi
    141f:	5f                   	pop    %edi
    1420:	5d                   	pop    %ebp
    1421:	c3                   	ret    
    1422:	83 c6 54             	add    $0x54,%esi
    1425:	c7 44 24 04 6c 73 02 	movl   $0x2736c,0x4(%esp)
    142c:	00 
    142d:	89 74 24 08          	mov    %esi,0x8(%esp)
    1431:	c7 04 24 01 00 00 00 	movl   $0x1,(%esp)
    1438:	e8 63 27 00 00       	call   3ba0 <ddf_msg>
    143d:	eb 9c                	jmp    13db <ahci_write_blocks+0x22b>
    143f:	90                   	nop

00001440 <ahci_read_blocks>:
    1440:	55                   	push   %ebp
    1441:	89 e5                	mov    %esp,%ebp
    1443:	57                   	push   %edi
    1444:	56                   	push   %esi
    1445:	53                   	push   %ebx
    1446:	83 ec 6c             	sub    $0x6c,%esp
    1449:	8b 45 08             	mov    0x8(%ebp),%eax
    144c:	8b 4d 0c             	mov    0xc(%ebp),%ecx
    144f:	89 04 24             	mov    %eax,(%esp)
    1452:	89 4d b4             	mov    %ecx,-0x4c(%ebp)
    1455:	8b 5d 10             	mov    0x10(%ebp),%ebx
    1458:	e8 43 1e 00 00       	call   32a0 <ddf_fun_data_get>
    145d:	89 c6                	mov    %eax,%esi
    145f:	8d 45 e4             	lea    -0x1c(%ebp),%eax
    1462:	89 44 24 10          	mov    %eax,0x10(%esp)
    1466:	8d 45 e0             	lea    -0x20(%ebp),%eax
    1469:	89 44 24 0c          	mov    %eax,0xc(%esp)
    146d:	c7 44 24 08 00 00 00 	movl   $0x0,0x8(%esp)
    1474:	00 
    1475:	c7 44 24 04 03 00 00 	movl   $0x3,0x4(%esp)
    147c:	00 
    147d:	8b 46 50             	mov    0x50(%esi),%eax
    1480:	89 04 24             	mov    %eax,(%esp)
    1483:	e8 28 6e 00 00       	call   82b0 <dmamem_map_anonymous>
    1488:	8b 4d b4             	mov    -0x4c(%ebp),%ecx
    148b:	89 45 bc             	mov    %eax,-0x44(%ebp)
    148e:	85 c0                	test   %eax,%eax
    1490:	0f 85 69 02 00 00    	jne    16ff <ahci_read_blocks+0x2bf>
    1496:	8b 46 50             	mov    0x50(%esi),%eax
    1499:	8b 55 18             	mov    0x18(%ebp),%edx
    149c:	89 14 24             	mov    %edx,(%esp)
    149f:	89 44 24 08          	mov    %eax,0x8(%esp)
    14a3:	c7 44 24 04 00 00 00 	movl   $0x0,0x4(%esp)
    14aa:	00 
    14ab:	89 4d b4             	mov    %ecx,-0x4c(%ebp)
    14ae:	e8 6d 96 00 00       	call   ab20 <memset>
    14b3:	8d 56 18             	lea    0x18(%esi),%edx
    14b6:	89 14 24             	mov    %edx,(%esp)
    14b9:	89 55 b8             	mov    %edx,-0x48(%ebp)
    14bc:	e8 bf d8 00 00       	call   ed80 <fibril_mutex_lock>
    14c1:	8b 45 14             	mov    0x14(%ebp),%eax
    14c4:	85 c0                	test   %eax,%eax
    14c6:	8b 4d b4             	mov    -0x4c(%ebp),%ecx
    14c9:	0f 84 0f 02 00 00    	je     16de <ahci_read_blocks+0x29e>
    14cf:	8b 45 e0             	mov    -0x20(%ebp),%eax
    14d2:	89 45 c8             	mov    %eax,-0x38(%ebp)
    14d5:	80 7e 09 00          	cmpb   $0x0,0x9(%esi)
    14d9:	0f 85 3f 02 00 00    	jne    171e <ahci_read_blocks+0x2de>
    14df:	89 c8                	mov    %ecx,%eax
    14e1:	89 da                	mov    %ebx,%edx
    14e3:	83 c0 01             	add    $0x1,%eax
    14e6:	89 5d d4             	mov    %ebx,-0x2c(%ebp)
    14e9:	83 d2 00             	adc    $0x0,%edx
    14ec:	89 45 c0             	mov    %eax,-0x40(%ebp)
    14ef:	89 55 c4             	mov    %edx,-0x3c(%ebp)
    14f2:	8d 56 28             	lea    0x28(%esi),%edx
    14f5:	c7 45 cc 00 00 00 00 	movl   $0x0,-0x34(%ebp)
    14fc:	8d 7e 38             	lea    0x38(%esi),%edi
    14ff:	89 4d d0             	mov    %ecx,-0x30(%ebp)
    1502:	89 d3                	mov    %edx,%ebx
    1504:	8d 74 26 00          	lea    0x0(%esi,%eiz,1),%esi
    1508:	8b 4e 14             	mov    0x14(%esi),%ecx
    150b:	8a 55 d0             	mov    -0x30(%ebp),%dl
    150e:	8b 45 d0             	mov    -0x30(%ebp),%eax
    1511:	c6 01 27             	movb   $0x27,(%ecx)
    1514:	c6 41 01 80          	movb   $0x80,0x1(%ecx)
    1518:	c6 41 02 60          	movb   $0x60,0x2(%ecx)
    151c:	c6 41 0c 00          	movb   $0x0,0xc(%ecx)
    1520:	c6 41 0f 00          	movb   $0x0,0xf(%ecx)
    1524:	c6 41 0d 00          	movb   $0x0,0xd(%ecx)
    1528:	c6 41 0e 00          	movb   $0x0,0xe(%ecx)
    152c:	c6 41 10 00          	movb   $0x0,0x10(%ecx)
    1530:	c6 41 11 00          	movb   $0x0,0x11(%ecx)
    1534:	c6 41 12 00          	movb   $0x0,0x12(%ecx)
    1538:	c6 41 13 00          	movb   $0x0,0x13(%ecx)
    153c:	c6 41 03 01          	movb   $0x1,0x3(%ecx)
    1540:	c6 41 0b 00          	movb   $0x0,0xb(%ecx)
    1544:	88 51 04             	mov    %dl,0x4(%ecx)
    1547:	8b 55 d4             	mov    -0x2c(%ebp),%edx
    154a:	0f ac d0 08          	shrd   $0x8,%edx,%eax
    154e:	88 41 05             	mov    %al,0x5(%ecx)
    1551:	8b 55 d4             	mov    -0x2c(%ebp),%edx
    1554:	8b 45 d0             	mov    -0x30(%ebp),%eax
    1557:	0f ac d0 10          	shrd   $0x10,%edx,%eax
    155b:	88 41 06             	mov    %al,0x6(%ecx)
    155e:	8b 55 d4             	mov    -0x2c(%ebp),%edx
    1561:	8b 45 d0             	mov    -0x30(%ebp),%eax
    1564:	0f ac d0 18          	shrd   $0x18,%edx,%eax
    1568:	88 41 08             	mov    %al,0x8(%ecx)
    156b:	8b 45 d4             	mov    -0x2c(%ebp),%eax
    156e:	88 41 09             	mov    %al,0x9(%ecx)
    1571:	8b 55 c8             	mov    -0x38(%ebp),%edx
    1574:	c1 e8 08             	shr    $0x8,%eax
    1577:	88 41 0a             	mov    %al,0xa(%ecx)
    157a:	8b 46 14             	mov    0x14(%esi),%eax
    157d:	8b 4e 50             	mov    0x50(%esi),%ecx
    1580:	49                   	dec    %ecx
    1581:	89 90 80 00 00 00    	mov    %edx,0x80(%eax)
    1587:	c7 80 84 00 00 00 00 	movl   $0x0,0x84(%eax)
    158e:	00 00 00 
    1591:	c7 80 88 00 00 00 00 	movl   $0x0,0x88(%eax)
    1598:	00 00 00 
    159b:	81 e1 ff ff 3f 00    	and    $0x3fffff,%ecx
    15a1:	8b 90 8c 00 00 00    	mov    0x8c(%eax),%edx
    15a7:	81 e2 00 00 c0 ff    	and    $0xffc00000,%edx
    15ad:	09 ca                	or     %ecx,%edx
    15af:	89 90 8c 00 00 00    	mov    %edx,0x8c(%eax)
    15b5:	8b 90 8c 00 00 00    	mov    0x8c(%eax),%edx
    15bb:	81 e2 ff ff 3f 80    	and    $0x803fffff,%edx
    15c1:	89 90 8c 00 00 00    	mov    %edx,0x8c(%eax)
    15c7:	8b 90 8c 00 00 00    	mov    0x8c(%eax),%edx
    15cd:	81 e2 ff ff ff 7f    	and    $0x7fffffff,%edx
    15d3:	89 90 8c 00 00 00    	mov    %edx,0x8c(%eax)
    15d9:	8b 46 10             	mov    0x10(%esi),%eax
    15dc:	66 c7 40 02 01 00    	movw   $0x1,0x2(%eax)
    15e2:	66 c7 00 05 04       	movw   $0x405,(%eax)
    15e7:	c7 40 04 00 00 00 00 	movl   $0x0,0x4(%eax)
    15ee:	8b 46 0c             	mov    0xc(%esi),%eax
    15f1:	8b 50 34             	mov    0x34(%eax),%edx
    15f4:	83 ca 01             	or     $0x1,%edx
    15f7:	89 50 34             	mov    %edx,0x34(%eax)
    15fa:	8b 50 38             	mov    0x38(%eax),%edx
    15fd:	83 ca 01             	or     $0x1,%edx
    1600:	89 50 38             	mov    %edx,0x38(%eax)
    1603:	89 1c 24             	mov    %ebx,(%esp)
    1606:	e8 75 d7 00 00       	call   ed80 <fibril_mutex_lock>
    160b:	c7 46 40 00 00 00 00 	movl   $0x0,0x40(%esi)
    1612:	8d b6 00 00 00 00    	lea    0x0(%esi),%esi
    1618:	89 5c 24 04          	mov    %ebx,0x4(%esp)
    161c:	89 3c 24             	mov    %edi,(%esp)
    161f:	e8 ac e3 00 00       	call   f9d0 <fibril_condvar_wait>
    1624:	8b 46 40             	mov    0x40(%esi),%eax
    1627:	85 c0                	test   %eax,%eax
    1629:	74 ed                	je     1618 <ahci_read_blocks+0x1d8>
    162b:	a9 c0 00 c0 80       	test   $0x80c000c0,%eax
    1630:	74 04                	je     1636 <ahci_read_blocks+0x1f6>
    1632:	c6 46 09 01          	movb   $0x1,0x9(%esi)
    1636:	89 1c 24             	mov    %ebx,(%esp)
    1639:	89 45 b4             	mov    %eax,-0x4c(%ebp)
    163c:	e8 5f d8 00 00       	call   eea0 <fibril_mutex_unlock>
    1641:	8b 45 b4             	mov    -0x4c(%ebp),%eax
    1644:	80 7e 09 00          	cmpb   $0x0,0x9(%esi)
    1648:	75 72                	jne    16bc <ahci_read_blocks+0x27c>
    164a:	a9 d0 00 c0 fd       	test   $0xfdc000d0,%eax
    164f:	75 6b                	jne    16bc <ahci_read_blocks+0x27c>
    1651:	8b 55 e4             	mov    -0x1c(%ebp),%edx
    1654:	8b 46 50             	mov    0x50(%esi),%eax
    1657:	89 54 24 04          	mov    %edx,0x4(%esp)
    165b:	8b 55 cc             	mov    -0x34(%ebp),%edx
    165e:	89 44 24 08          	mov    %eax,0x8(%esp)
    1662:	8b 4d 18             	mov    0x18(%ebp),%ecx
    1665:	0f af c2             	imul   %edx,%eax
    1668:	01 c8                	add    %ecx,%eax
    166a:	89 04 24             	mov    %eax,(%esp)
    166d:	e8 2e 96 00 00       	call   aca0 <memcpy>
    1672:	8b 45 cc             	mov    -0x34(%ebp),%eax
    1675:	40                   	inc    %eax
    1676:	8b 55 14             	mov    0x14(%ebp),%edx
    1679:	89 45 cc             	mov    %eax,-0x34(%ebp)
    167c:	39 55 cc             	cmp    %edx,-0x34(%ebp)
    167f:	74 5d                	je     16de <ahci_read_blocks+0x29e>
    1681:	8b 45 e0             	mov    -0x20(%ebp),%eax
    1684:	8b 55 c4             	mov    -0x3c(%ebp),%edx
    1687:	89 45 c8             	mov    %eax,-0x38(%ebp)
    168a:	8b 45 c0             	mov    -0x40(%ebp),%eax
    168d:	83 c0 01             	add    $0x1,%eax
    1690:	83 d2 00             	adc    $0x0,%edx
    1693:	89 45 a8             	mov    %eax,-0x58(%ebp)
    1696:	89 55 ac             	mov    %edx,-0x54(%ebp)
    1699:	8b 45 c0             	mov    -0x40(%ebp),%eax
    169c:	8b 55 c4             	mov    -0x3c(%ebp),%edx
    169f:	89 45 d0             	mov    %eax,-0x30(%ebp)
    16a2:	89 55 d4             	mov    %edx,-0x2c(%ebp)
    16a5:	80 7e 09 00          	cmpb   $0x0,0x9(%esi)
    16a9:	75 73                	jne    171e <ahci_read_blocks+0x2de>
    16ab:	8b 45 a8             	mov    -0x58(%ebp),%eax
    16ae:	8b 55 ac             	mov    -0x54(%ebp),%edx
    16b1:	89 45 c0             	mov    %eax,-0x40(%ebp)
    16b4:	89 55 c4             	mov    %edx,-0x3c(%ebp)
    16b7:	e9 4c fe ff ff       	jmp    1508 <ahci_read_blocks+0xc8>
    16bc:	83 c6 54             	add    $0x54,%esi
    16bf:	c7 44 24 04 e0 73 02 	movl   $0x273e0,0x4(%esp)
    16c6:	00 
    16c7:	89 74 24 08          	mov    %esi,0x8(%esp)
    16cb:	c7 04 24 01 00 00 00 	movl   $0x1,(%esp)
    16d2:	e8 c9 24 00 00       	call   3ba0 <ddf_msg>
    16d7:	c7 45 bc ef ff ff ff 	movl   $0xffffffef,-0x44(%ebp)
    16de:	8b 55 b8             	mov    -0x48(%ebp),%edx
    16e1:	89 14 24             	mov    %edx,(%esp)
    16e4:	e8 b7 d7 00 00       	call   eea0 <fibril_mutex_unlock>
    16e9:	8b 45 e4             	mov    -0x1c(%ebp),%eax
    16ec:	89 04 24             	mov    %eax,(%esp)
    16ef:	e8 5c 6c 00 00       	call   8350 <dmamem_unmap_anonymous>
    16f4:	8b 45 bc             	mov    -0x44(%ebp),%eax
    16f7:	83 c4 6c             	add    $0x6c,%esp
    16fa:	5b                   	pop    %ebx
    16fb:	5e                   	pop    %esi
    16fc:	5f                   	pop    %edi
    16fd:	5d                   	pop    %ebp
    16fe:	c3                   	ret    
    16ff:	c7 44 24 04 a0 72 02 	movl   $0x272a0,0x4(%esp)
    1706:	00 
    1707:	c7 04 24 01 00 00 00 	movl   $0x1,(%esp)
    170e:	e8 8d 24 00 00       	call   3ba0 <ddf_msg>
    1713:	8b 45 bc             	mov    -0x44(%ebp),%eax
    1716:	83 c4 6c             	add    $0x6c,%esp
    1719:	5b                   	pop    %ebx
    171a:	5e                   	pop    %esi
    171b:	5f                   	pop    %edi
    171c:	5d                   	pop    %ebp
    171d:	c3                   	ret    
    171e:	83 c6 54             	add    $0x54,%esi
    1721:	c7 44 24 04 bc 73 02 	movl   $0x273bc,0x4(%esp)
    1728:	00 
    1729:	89 74 24 08          	mov    %esi,0x8(%esp)
    172d:	c7 04 24 01 00 00 00 	movl   $0x1,(%esp)
    1734:	e8 67 24 00 00       	call   3ba0 <ddf_msg>
    1739:	eb 9c                	jmp    16d7 <ahci_read_blocks+0x297>
    173b:	90                   	nop
    173c:	8d 74 26 00          	lea    0x0(%esi,%eiz,1),%esi

00001740 <ahci_dev_add>:
    1740:	55                   	push   %ebp
    1741:	89 e5                	mov    %esp,%ebp
    1743:	57                   	push   %edi
    1744:	56                   	push   %esi
    1745:	53                   	push   %ebx
    1746:	81 ec ac 00 00 00    	sub    $0xac,%esp
    174c:	8b 5d 08             	mov    0x8(%ebp),%ebx
    174f:	c7 44 24 04 8c 00 00 	movl   $0x8c,0x4(%esp)
    1756:	00 
    1757:	89 1c 24             	mov    %ebx,(%esp)
    175a:	e8 51 18 00 00       	call   2fb0 <ddf_dev_data_alloc>
    175f:	89 45 90             	mov    %eax,-0x70(%ebp)
    1762:	85 c0                	test   %eax,%eax
    1764:	0f 84 f6 0c 00 00    	je     2460 <ahci_dev_add+0xd20>
    176a:	c7 44 24 04 02 00 00 	movl   $0x2,0x4(%esp)
    1771:	00 
    1772:	89 1c 24             	mov    %ebx,(%esp)
    1775:	e8 f6 18 00 00       	call   3070 <ddf_dev_parent_sess_create>
    177a:	8b 55 90             	mov    -0x70(%ebp),%edx
    177d:	85 c0                	test   %eax,%eax
    177f:	89 82 88 00 00 00    	mov    %eax,0x88(%edx)
    1785:	0f 84 d5 0c 00 00    	je     2460 <ahci_dev_add+0xd20>
    178b:	8d 4d c0             	lea    -0x40(%ebp),%ecx
    178e:	89 1a                	mov    %ebx,(%edx)
    1790:	89 0c 24             	mov    %ecx,(%esp)
    1793:	c7 44 24 08 20 00 00 	movl   $0x20,0x8(%esp)
    179a:	00 
    179b:	c7 44 24 04 00 00 00 	movl   $0x0,0x4(%esp)
    17a2:	00 
    17a3:	e8 78 93 00 00       	call   ab20 <memset>
    17a8:	8d 45 c0             	lea    -0x40(%ebp),%eax
    17ab:	8b 55 90             	mov    -0x70(%ebp),%edx
    17ae:	c7 44 24 08 00 00 00 	movl   $0x0,0x8(%esp)
    17b5:	00 
    17b6:	89 44 24 04          	mov    %eax,0x4(%esp)
    17ba:	8b 82 88 00 00 00    	mov    0x88(%edx),%eax
    17c0:	89 04 24             	mov    %eax,(%esp)
    17c3:	e8 38 8f 00 00       	call   a700 <hw_res_get_list_parsed>
    17c8:	85 c0                	test   %eax,%eax
    17ca:	0f 85 85 0c 00 00    	jne    2455 <ahci_dev_add+0xd15>
    17d0:	8b 45 90             	mov    -0x70(%ebp),%eax
    17d3:	c7 40 04 00 00 00 00 	movl   $0x0,0x4(%eax)
    17da:	83 c0 04             	add    $0x4,%eax
    17dd:	89 44 24 0c          	mov    %eax,0xc(%esp)
    17e1:	8b 45 d4             	mov    -0x2c(%ebp),%eax
    17e4:	c7 44 24 08 03 00 00 	movl   $0x3,0x8(%esp)
    17eb:	00 
    17ec:	c7 44 24 04 08 00 00 	movl   $0x8,0x4(%esp)
    17f3:	00 
    17f4:	8b 00                	mov    (%eax),%eax
    17f6:	89 04 24             	mov    %eax,(%esp)
    17f9:	e8 22 6a 00 00       	call   8220 <physmem_map>
    17fe:	8b 45 90             	mov    -0x70(%ebp),%eax
    1801:	8b 40 04             	mov    0x4(%eax),%eax
    1804:	85 c0                	test   %eax,%eax
    1806:	0f 84 02 0c 00 00    	je     240e <ahci_dev_add+0xcce>
    180c:	8b 45 d4             	mov    -0x2c(%ebp),%eax
    180f:	8b 30                	mov    (%eax),%esi
    1811:	c7 05 d4 bc 02 00 00 	movl   $0x1100,0x2bcd4
    1818:	11 00 00 
    181b:	89 35 d0 bc 02 00    	mov    %esi,0x2bcd0
    1821:	b8 84 a6 02 00       	mov    $0x2a684,%eax
    1826:	8d 96 10 01 00 00    	lea    0x110(%esi),%edx
    182c:	8d 4e 08             	lea    0x8(%esi),%ecx
    182f:	81 c6 10 11 00 00    	add    $0x1110,%esi
    1835:	8d 76 00             	lea    0x0(%esi),%esi
    1838:	89 10                	mov    %edx,(%eax)
    183a:	89 50 28             	mov    %edx,0x28(%eax)
    183d:	83 ea 80             	sub    $0xffffff80,%edx
    1840:	89 48 3c             	mov    %ecx,0x3c(%eax)
    1843:	89 48 50             	mov    %ecx,0x50(%eax)
    1846:	05 8c 00 00 00       	add    $0x8c,%eax
    184b:	39 f2                	cmp    %esi,%edx
    184d:	75 e9                	jne    1838 <ahci_dev_add+0xf8>
    184f:	8d 45 b0             	lea    -0x50(%ebp),%eax
    1852:	c7 45 b8 e0 00 00 00 	movl   $0xe0,-0x48(%ebp)
    1859:	89 44 24 0c          	mov    %eax,0xc(%esp)
    185d:	8b 45 c4             	mov    -0x3c(%ebp),%eax
    1860:	c7 45 b0 01 00 00 00 	movl   $0x1,-0x50(%ebp)
    1867:	c7 44 24 08 c0 10 00 	movl   $0x10c0,0x8(%esp)
    186e:	00 
    186f:	8b 00                	mov    (%eax),%eax
    1871:	89 1c 24             	mov    %ebx,(%esp)
    1874:	89 44 24 04          	mov    %eax,0x4(%esp)
    1878:	c7 45 bc 80 a6 02 00 	movl   $0x2a680,-0x44(%ebp)
    187f:	c7 45 b4 d0 bc 02 00 	movl   $0x2bcd0,-0x4c(%ebp)
    1886:	e8 05 21 00 00       	call   3990 <register_interrupt_handler>
    188b:	85 c0                	test   %eax,%eax
    188d:	0f 85 67 0b 00 00    	jne    23fa <ahci_dev_add+0xcba>
    1893:	8b 45 c4             	mov    -0x3c(%ebp),%eax
    1896:	8b 30                	mov    (%eax),%esi
    1898:	c7 44 24 0c 00 00 00 	movl   $0x0,0xc(%esp)
    189f:	00 
    18a0:	c7 44 24 08 00 00 00 	movl   $0x0,0x8(%esp)
    18a7:	00 
    18a8:	c7 44 24 04 69 72 63 	movl   $0x20637269,0x4(%esp)
    18af:	20 
    18b0:	c7 04 24 02 00 00 00 	movl   $0x2,(%esp)
    18b7:	e8 34 70 01 00       	call   188f0 <service_connect_blocking>
    18bc:	89 c7                	mov    %eax,%edi
    18be:	85 c0                	test   %eax,%eax
    18c0:	0f 84 3a 0c 00 00    	je     2500 <ahci_dev_add+0xdc0>
    18c6:	89 04 24             	mov    %eax,(%esp)
    18c9:	e8 d2 9c 01 00       	call   1b5a0 <async_exchange_begin>
    18ce:	89 74 24 08          	mov    %esi,0x8(%esp)
    18d2:	c7 44 24 28 00 00 00 	movl   $0x0,0x28(%esp)
    18d9:	00 
    18da:	c7 44 24 24 00 00 00 	movl   $0x0,0x24(%esp)
    18e1:	00 
    18e2:	c7 44 24 20 00 00 00 	movl   $0x0,0x20(%esp)
    18e9:	00 
    18ea:	c7 44 24 1c 00 00 00 	movl   $0x0,0x1c(%esp)
    18f1:	00 
    18f2:	c7 44 24 18 00 00 00 	movl   $0x0,0x18(%esp)
    18f9:	00 
    18fa:	c7 44 24 14 00 00 00 	movl   $0x0,0x14(%esp)
    1901:	00 
    1902:	c7 44 24 10 00 00 00 	movl   $0x0,0x10(%esp)
    1909:	00 
    190a:	c7 44 24 0c 00 00 00 	movl   $0x0,0xc(%esp)
    1911:	00 
    1912:	c7 44 24 04 00 04 00 	movl   $0x400,0x4(%esp)
    1919:	00 
    191a:	89 04 24             	mov    %eax,(%esp)
    191d:	89 85 78 ff ff ff    	mov    %eax,-0x88(%ebp)
    1923:	e8 28 8c 01 00       	call   1a550 <async_req_fast>
    1928:	8b 95 78 ff ff ff    	mov    -0x88(%ebp),%edx
    192e:	89 c6                	mov    %eax,%esi
    1930:	89 14 24             	mov    %edx,(%esp)
    1933:	e8 d8 9f 01 00       	call   1b910 <async_exchange_end>
    1938:	89 3c 24             	mov    %edi,(%esp)
    193b:	e8 60 9b 01 00       	call   1b4a0 <async_hangup>
    1940:	85 f6                	test   %esi,%esi
    1942:	0f 85 b8 0b 00 00    	jne    2500 <ahci_dev_add+0xdc0>
    1948:	8b 45 c4             	mov    -0x3c(%ebp),%eax
    194b:	89 04 24             	mov    %eax,(%esp)
    194e:	e8 1d 68 01 00       	call   18170 <free>
    1953:	8b 45 dc             	mov    -0x24(%ebp),%eax
    1956:	89 04 24             	mov    %eax,(%esp)
    1959:	e8 12 68 01 00       	call   18170 <free>
    195e:	8b 45 d4             	mov    -0x2c(%ebp),%eax
    1961:	89 04 24             	mov    %eax,(%esp)
    1964:	e8 07 68 01 00       	call   18170 <free>
    1969:	8b 45 cc             	mov    -0x34(%ebp),%eax
    196c:	89 04 24             	mov    %eax,(%esp)
    196f:	e8 fc 67 01 00       	call   18170 <free>
    1974:	8d 55 c0             	lea    -0x40(%ebp),%edx
    1977:	89 14 24             	mov    %edx,(%esp)
    197a:	c7 44 24 08 20 00 00 	movl   $0x20,0x8(%esp)
    1981:	00 
    1982:	c7 44 24 04 00 00 00 	movl   $0x0,0x4(%esp)
    1989:	00 
    198a:	e8 91 91 00 00       	call   ab20 <memset>
    198f:	8b 45 90             	mov    -0x70(%ebp),%eax
    1992:	8b 50 04             	mov    0x4(%eax),%edx
    1995:	8b 42 14             	mov    0x14(%edx),%eax
    1998:	83 e0 fe             	and    $0xfffffffe,%eax
    199b:	89 42 14             	mov    %eax,0x14(%edx)
    199e:	8b 55 90             	mov    -0x70(%ebp),%edx
    19a1:	c7 44 24 08 20 00 00 	movl   $0x20,0x8(%esp)
    19a8:	00 
    19a9:	c7 44 24 04 0d 00 00 	movl   $0xd,0x4(%esp)
    19b0:	00 
    19b1:	8b 82 88 00 00 00    	mov    0x88(%edx),%eax
    19b7:	89 04 24             	mov    %eax,(%esp)
    19ba:	e8 c1 8f 00 00       	call   a980 <pci_config_space_write_8>
    19bf:	8b 4d 90             	mov    -0x70(%ebp),%ecx
    19c2:	8d 45 98             	lea    -0x68(%ebp),%eax
    19c5:	c7 44 24 04 04 00 00 	movl   $0x4,0x4(%esp)
    19cc:	00 
    19cd:	89 44 24 08          	mov    %eax,0x8(%esp)
    19d1:	8b 81 88 00 00 00    	mov    0x88(%ecx),%eax
    19d7:	89 04 24             	mov    %eax,(%esp)
    19da:	e8 81 8e 00 00       	call   a860 <pci_config_space_read_16>
    19df:	8b 55 90             	mov    -0x70(%ebp),%edx
    19e2:	80 65 99 fb          	andb   $0xfb,-0x67(%ebp)
    19e6:	80 4d 98 04          	orb    $0x4,-0x68(%ebp)
    19ea:	8b 45 98             	mov    -0x68(%ebp),%eax
    19ed:	c7 44 24 04 04 00 00 	movl   $0x4,0x4(%esp)
    19f4:	00 
    19f5:	25 ff ff 00 00       	and    $0xffff,%eax
    19fa:	89 44 24 08          	mov    %eax,0x8(%esp)
    19fe:	8b 82 88 00 00 00    	mov    0x88(%edx),%eax
    1a04:	89 04 24             	mov    %eax,(%esp)
    1a07:	e8 04 90 00 00       	call   aa10 <pci_config_space_write_16>
    1a0c:	8b 45 90             	mov    -0x70(%ebp),%eax
    1a0f:	8b 50 04             	mov    0x4(%eax),%edx
    1a12:	c7 45 94 00 00 00 00 	movl   $0x0,-0x6c(%ebp)
    1a19:	c7 42 04 02 00 00 80 	movl   $0x80000002,0x4(%edx)
    1a20:	eb 1d                	jmp    1a3f <ahci_dev_add+0x2ff>
    1a22:	8d b6 00 00 00 00    	lea    0x0(%esi),%esi
    1a28:	8b 45 94             	mov    -0x6c(%ebp),%eax
    1a2b:	40                   	inc    %eax
    1a2c:	89 45 94             	mov    %eax,-0x6c(%ebp)
    1a2f:	83 7d 94 20          	cmpl   $0x20,-0x6c(%ebp)
    1a33:	0f 84 bf 08 00 00    	je     22f8 <ahci_dev_add+0xbb8>
    1a39:	8b 45 90             	mov    -0x70(%ebp),%eax
    1a3c:	8b 50 04             	mov    0x4(%eax),%edx
    1a3f:	b8 01 00 00 00       	mov    $0x1,%eax
    1a44:	8a 4d 94             	mov    -0x6c(%ebp),%cl
    1a47:	8b 5a 0c             	mov    0xc(%edx),%ebx
    1a4a:	d3 e0                	shl    %cl,%eax
    1a4c:	85 d8                	test   %ebx,%eax
    1a4e:	74 d8                	je     1a28 <ahci_dev_add+0x2e8>
    1a50:	8b 45 94             	mov    -0x6c(%ebp),%eax
    1a53:	83 c0 02             	add    $0x2,%eax
    1a56:	c1 e0 07             	shl    $0x7,%eax
    1a59:	8d 34 02             	lea    (%edx,%eax,1),%esi
    1a5c:	8b 46 28             	mov    0x28(%esi),%eax
    1a5f:	83 e0 0f             	and    $0xf,%eax
    1a62:	3c 03                	cmp    $0x3,%al
    1a64:	75 c2                	jne    1a28 <ahci_dev_add+0x2e8>
    1a66:	8b 55 90             	mov    -0x70(%ebp),%edx
    1a69:	8b 02                	mov    (%edx),%eax
    1a6b:	c7 44 24 08 00 00 00 	movl   $0x0,0x8(%esp)
    1a72:	00 
    1a73:	c7 44 24 04 02 00 00 	movl   $0x2,0x4(%esp)
    1a7a:	00 
    1a7b:	89 04 24             	mov    %eax,(%esp)
    1a7e:	c7 45 9c 00 00 00 00 	movl   $0x0,-0x64(%ebp)
    1a85:	c7 45 a0 00 00 00 00 	movl   $0x0,-0x60(%ebp)
    1a8c:	c7 45 a8 00 00 00 00 	movl   $0x0,-0x58(%ebp)
    1a93:	c7 45 ac 00 00 00 00 	movl   $0x0,-0x54(%ebp)
    1a9a:	e8 a1 16 00 00       	call   3140 <ddf_fun_create>
    1a9f:	c7 44 24 04 f8 00 00 	movl   $0xf8,0x4(%esp)
    1aa6:	00 
    1aa7:	89 04 24             	mov    %eax,(%esp)
    1aaa:	89 c7                	mov    %eax,%edi
    1aac:	e8 7f 17 00 00       	call   3230 <ddf_fun_data_alloc>
    1ab1:	89 c3                	mov    %eax,%ebx
    1ab3:	85 c0                	test   %eax,%eax
    1ab5:	0f 84 6d ff ff ff    	je     1a28 <ahci_dev_add+0x2e8>
    1abb:	89 78 04             	mov    %edi,0x4(%eax)
    1abe:	89 70 0c             	mov    %esi,0xc(%eax)
    1ac1:	8d 4d a0             	lea    -0x60(%ebp),%ecx
    1ac4:	8d 45 9c             	lea    -0x64(%ebp),%eax
    1ac7:	89 4c 24 10          	mov    %ecx,0x10(%esp)
    1acb:	89 44 24 0c          	mov    %eax,0xc(%esp)
    1acf:	c7 44 24 08 00 00 00 	movl   $0x0,0x8(%esp)
    1ad6:	00 
    1ad7:	c7 44 24 04 03 00 00 	movl   $0x3,0x4(%esp)
    1ade:	00 
    1adf:	c7 04 24 00 10 00 00 	movl   $0x1000,(%esp)
    1ae6:	e8 c5 67 00 00       	call   82b0 <dmamem_map_anonymous>
    1aeb:	85 c0                	test   %eax,%eax
    1aed:	0f 85 a8 08 00 00    	jne    239b <ahci_dev_add+0xc5b>
    1af3:	8b 45 a0             	mov    -0x60(%ebp),%eax
    1af6:	c7 44 24 08 00 10 00 	movl   $0x1000,0x8(%esp)
    1afd:	00 
    1afe:	c7 44 24 04 00 00 00 	movl   $0x0,0x4(%esp)
    1b05:	00 
    1b06:	89 04 24             	mov    %eax,(%esp)
    1b09:	e8 12 90 00 00       	call   ab20 <memset>
    1b0e:	8b 43 0c             	mov    0xc(%ebx),%eax
    1b11:	8b 55 9c             	mov    -0x64(%ebp),%edx
    1b14:	c7 40 0c 00 00 00 00 	movl   $0x0,0xc(%eax)
    1b1b:	8d 4d 9c             	lea    -0x64(%ebp),%ecx
    1b1e:	89 50 08             	mov    %edx,0x8(%eax)
    1b21:	8d 55 a8             	lea    -0x58(%ebp),%edx
    1b24:	89 4c 24 0c          	mov    %ecx,0xc(%esp)
    1b28:	89 54 24 10          	mov    %edx,0x10(%esp)
    1b2c:	c7 44 24 08 00 00 00 	movl   $0x0,0x8(%esp)
    1b33:	00 
    1b34:	c7 44 24 04 03 00 00 	movl   $0x3,0x4(%esp)
    1b3b:	00 
    1b3c:	c7 04 24 00 10 00 00 	movl   $0x1000,(%esp)
    1b43:	e8 68 67 00 00       	call   82b0 <dmamem_map_anonymous>
    1b48:	85 c0                	test   %eax,%eax
    1b4a:	0f 85 38 08 00 00    	jne    2388 <ahci_dev_add+0xc48>
    1b50:	8b 45 a8             	mov    -0x58(%ebp),%eax
    1b53:	c7 44 24 08 00 10 00 	movl   $0x1000,0x8(%esp)
    1b5a:	00 
    1b5b:	c7 44 24 04 00 00 00 	movl   $0x0,0x4(%esp)
    1b62:	00 
    1b63:	89 04 24             	mov    %eax,(%esp)
    1b66:	e8 b5 8f 00 00       	call   ab20 <memset>
    1b6b:	8b 43 0c             	mov    0xc(%ebx),%eax
    1b6e:	8b 55 9c             	mov    -0x64(%ebp),%edx
    1b71:	c7 40 04 00 00 00 00 	movl   $0x0,0x4(%eax)
    1b78:	89 10                	mov    %edx,(%eax)
    1b7a:	8b 45 a8             	mov    -0x58(%ebp),%eax
    1b7d:	89 43 10             	mov    %eax,0x10(%ebx)
    1b80:	8d 55 9c             	lea    -0x64(%ebp),%edx
    1b83:	8d 45 ac             	lea    -0x54(%ebp),%eax
    1b86:	89 54 24 0c          	mov    %edx,0xc(%esp)
    1b8a:	89 44 24 10          	mov    %eax,0x10(%esp)
    1b8e:	c7 44 24 08 00 00 00 	movl   $0x0,0x8(%esp)
    1b95:	00 
    1b96:	c7 44 24 04 03 00 00 	movl   $0x3,0x4(%esp)
    1b9d:	00 
    1b9e:	c7 04 24 00 10 00 00 	movl   $0x1000,(%esp)
    1ba5:	e8 06 67 00 00       	call   82b0 <dmamem_map_anonymous>
    1baa:	85 c0                	test   %eax,%eax
    1bac:	0f 85 c3 07 00 00    	jne    2375 <ahci_dev_add+0xc35>
    1bb2:	8b 45 ac             	mov    -0x54(%ebp),%eax
    1bb5:	c7 44 24 08 00 10 00 	movl   $0x1000,0x8(%esp)
    1bbc:	00 
    1bbd:	c7 44 24 04 00 00 00 	movl   $0x0,0x4(%esp)
    1bc4:	00 
    1bc5:	89 04 24             	mov    %eax,(%esp)
    1bc8:	e8 53 8f 00 00       	call   ab20 <memset>
    1bcd:	8b 43 10             	mov    0x10(%ebx),%eax
    1bd0:	8b 55 9c             	mov    -0x64(%ebp),%edx
    1bd3:	c7 40 0c 00 00 00 00 	movl   $0x0,0xc(%eax)
    1bda:	89 50 08             	mov    %edx,0x8(%eax)
    1bdd:	8b 45 ac             	mov    -0x54(%ebp),%eax
    1be0:	89 43 14             	mov    %eax,0x14(%ebx)
    1be3:	8a 55 94             	mov    -0x6c(%ebp),%dl
    1be6:	8b 45 90             	mov    -0x70(%ebp),%eax
    1be9:	8b 4d 94             	mov    -0x6c(%ebp),%ecx
    1bec:	88 53 08             	mov    %dl,0x8(%ebx)
    1bef:	8d 53 18             	lea    0x18(%ebx),%edx
    1bf2:	89 03                	mov    %eax,(%ebx)
    1bf4:	89 5c 88 08          	mov    %ebx,0x8(%eax,%ecx,4)
    1bf8:	89 14 24             	mov    %edx,(%esp)
    1bfb:	89 55 88             	mov    %edx,-0x78(%ebp)
    1bfe:	e8 5d d1 00 00       	call   ed60 <fibril_mutex_initialize>
    1c03:	8d 4b 28             	lea    0x28(%ebx),%ecx
    1c06:	89 0c 24             	mov    %ecx,(%esp)
    1c09:	89 4d 8c             	mov    %ecx,-0x74(%ebp)
    1c0c:	e8 4f d1 00 00       	call   ed60 <fibril_mutex_initialize>
    1c11:	8d 53 38             	lea    0x38(%ebx),%edx
    1c14:	89 14 24             	mov    %edx,(%esp)
    1c17:	89 55 80             	mov    %edx,-0x80(%ebp)
    1c1a:	e8 d1 d7 00 00       	call   f3f0 <fibril_condvar_initialize>
    1c1f:	8b 43 0c             	mov    0xc(%ebx),%eax
    1c22:	8b 50 18             	mov    0x18(%eax),%edx
    1c25:	83 e2 ee             	and    $0xffffffee,%edx
    1c28:	89 50 18             	mov    %edx,0x18(%eax)
    1c2b:	83 ca 11             	or     $0x11,%edx
    1c2e:	c7 40 10 ff ff ff ff 	movl   $0xffffffff,0x10(%eax)
    1c35:	c7 40 30 ff ff ff ff 	movl   $0xffffffff,0x30(%eax)
    1c3c:	80 7b 09 00          	cmpb   $0x0,0x9(%ebx)
    1c40:	c7 40 14 ff ff ff ff 	movl   $0xffffffff,0x14(%eax)
    1c47:	89 50 18             	mov    %edx,0x18(%eax)
    1c4a:	0f 85 74 08 00 00    	jne    24c4 <ahci_dev_add+0xd84>
    1c50:	8d 4d ac             	lea    -0x54(%ebp),%ecx
    1c53:	8d 45 a8             	lea    -0x58(%ebp),%eax
    1c56:	89 4c 24 10          	mov    %ecx,0x10(%esp)
    1c5a:	89 44 24 0c          	mov    %eax,0xc(%esp)
    1c5e:	c7 44 24 08 00 00 00 	movl   $0x0,0x8(%esp)
    1c65:	00 
    1c66:	c7 44 24 04 03 00 00 	movl   $0x3,0x4(%esp)
    1c6d:	00 
    1c6e:	c7 04 24 00 02 00 00 	movl   $0x200,(%esp)
    1c75:	e8 36 66 00 00       	call   82b0 <dmamem_map_anonymous>
    1c7a:	85 c0                	test   %eax,%eax
    1c7c:	0f 85 86 06 00 00    	jne    2308 <ahci_dev_add+0xbc8>
    1c82:	8b 45 ac             	mov    -0x54(%ebp),%eax
    1c85:	c7 44 24 08 00 02 00 	movl   $0x200,0x8(%esp)
    1c8c:	00 
    1c8d:	c7 44 24 04 00 00 00 	movl   $0x0,0x4(%esp)
    1c94:	00 
    1c95:	89 04 24             	mov    %eax,(%esp)
    1c98:	e8 83 8e 00 00       	call   ab20 <memset>
    1c9d:	8b 55 88             	mov    -0x78(%ebp),%edx
    1ca0:	89 14 24             	mov    %edx,(%esp)
    1ca3:	e8 d8 d0 00 00       	call   ed80 <fibril_mutex_lock>
    1ca8:	8b 43 14             	mov    0x14(%ebx),%eax
    1cab:	8b 4d a8             	mov    -0x58(%ebp),%ecx
    1cae:	c6 00 27             	movb   $0x27,(%eax)
    1cb1:	c6 40 01 80          	movb   $0x80,0x1(%eax)
    1cb5:	c6 40 02 ec          	movb   $0xec,0x2(%eax)
    1cb9:	c6 40 03 00          	movb   $0x0,0x3(%eax)
    1cbd:	8b 50 04             	mov    0x4(%eax),%edx
    1cc0:	81 e2 00 00 00 ff    	and    $0xff000000,%edx
    1cc6:	89 50 04             	mov    %edx,0x4(%eax)
    1cc9:	c6 40 07 00          	movb   $0x0,0x7(%eax)
    1ccd:	8b 50 08             	mov    0x8(%eax),%edx
    1cd0:	81 e2 00 00 00 ff    	and    $0xff000000,%edx
    1cd6:	89 50 08             	mov    %edx,0x8(%eax)
    1cd9:	c6 40 0b 00          	movb   $0x0,0xb(%eax)
    1cdd:	66 c7 40 0c 00 00    	movw   $0x0,0xc(%eax)
    1ce3:	c6 40 0e 00          	movb   $0x0,0xe(%eax)
    1ce7:	c6 40 0f 00          	movb   $0x0,0xf(%eax)
    1ceb:	c7 40 10 00 00 00 00 	movl   $0x0,0x10(%eax)
    1cf2:	89 88 80 00 00 00    	mov    %ecx,0x80(%eax)
    1cf8:	c7 80 84 00 00 00 00 	movl   $0x0,0x84(%eax)
    1cff:	00 00 00 
    1d02:	c7 80 88 00 00 00 00 	movl   $0x0,0x88(%eax)
    1d09:	00 00 00 
    1d0c:	8b 90 8c 00 00 00    	mov    0x8c(%eax),%edx
    1d12:	81 e2 00 00 c0 ff    	and    $0xffc00000,%edx
    1d18:	81 ca ff 01 00 00    	or     $0x1ff,%edx
    1d1e:	89 90 8c 00 00 00    	mov    %edx,0x8c(%eax)
    1d24:	8b 90 8c 00 00 00    	mov    0x8c(%eax),%edx
    1d2a:	81 e2 ff ff 3f 80    	and    $0x803fffff,%edx
    1d30:	89 90 8c 00 00 00    	mov    %edx,0x8c(%eax)
    1d36:	8b 90 8c 00 00 00    	mov    0x8c(%eax),%edx
    1d3c:	81 e2 ff ff ff 7f    	and    $0x7fffffff,%edx
    1d42:	89 90 8c 00 00 00    	mov    %edx,0x8c(%eax)
    1d48:	8b 43 10             	mov    0x10(%ebx),%eax
    1d4b:	66 c7 40 02 01 00    	movw   $0x1,0x2(%eax)
    1d51:	66 c7 00 02 04       	movw   $0x402,(%eax)
    1d56:	c7 40 04 00 00 00 00 	movl   $0x0,0x4(%eax)
    1d5d:	8b 43 0c             	mov    0xc(%ebx),%eax
    1d60:	8b 50 34             	mov    0x34(%eax),%edx
    1d63:	83 ca 01             	or     $0x1,%edx
    1d66:	89 50 34             	mov    %edx,0x34(%eax)
    1d69:	8b 50 38             	mov    0x38(%eax),%edx
    1d6c:	83 ca 01             	or     $0x1,%edx
    1d6f:	89 50 38             	mov    %edx,0x38(%eax)
    1d72:	8b 4d 8c             	mov    -0x74(%ebp),%ecx
    1d75:	89 0c 24             	mov    %ecx,(%esp)
    1d78:	e8 03 d0 00 00       	call   ed80 <fibril_mutex_lock>
    1d7d:	c7 43 40 00 00 00 00 	movl   $0x0,0x40(%ebx)
    1d84:	8b 7d 8c             	mov    -0x74(%ebp),%edi
    1d87:	8b 75 80             	mov    -0x80(%ebp),%esi
    1d8a:	8d b6 00 00 00 00    	lea    0x0(%esi),%esi
    1d90:	89 7c 24 04          	mov    %edi,0x4(%esp)
    1d94:	89 34 24             	mov    %esi,(%esp)
    1d97:	e8 34 dc 00 00       	call   f9d0 <fibril_condvar_wait>
    1d9c:	8b 43 40             	mov    0x40(%ebx),%eax
    1d9f:	85 c0                	test   %eax,%eax
    1da1:	74 ed                	je     1d90 <ahci_dev_add+0x650>
    1da3:	89 c6                	mov    %eax,%esi
    1da5:	a9 c0 00 c0 80       	test   $0x80c000c0,%eax
    1daa:	74 04                	je     1db0 <ahci_dev_add+0x670>
    1dac:	c6 43 09 01          	movb   $0x1,0x9(%ebx)
    1db0:	8b 55 8c             	mov    -0x74(%ebp),%edx
    1db3:	89 14 24             	mov    %edx,(%esp)
    1db6:	e8 e5 d0 00 00       	call   eea0 <fibril_mutex_unlock>
    1dbb:	80 7b 09 00          	cmpb   $0x0,0x9(%ebx)
    1dbf:	0f 85 23 08 00 00    	jne    25e8 <ahci_dev_add+0xea8>
    1dc5:	81 e6 00 00 00 40    	and    $0x40000000,%esi
    1dcb:	0f 84 2f 01 00 00    	je     1f00 <ahci_dev_add+0x7c0>
    1dd1:	8b 43 14             	mov    0x14(%ebx),%eax
    1dd4:	8b 4d a8             	mov    -0x58(%ebp),%ecx
    1dd7:	c6 00 27             	movb   $0x27,(%eax)
    1dda:	c6 40 01 80          	movb   $0x80,0x1(%eax)
    1dde:	c6 40 02 a1          	movb   $0xa1,0x2(%eax)
    1de2:	c6 40 03 00          	movb   $0x0,0x3(%eax)
    1de6:	8b 50 04             	mov    0x4(%eax),%edx
    1de9:	81 e2 00 00 00 ff    	and    $0xff000000,%edx
    1def:	89 50 04             	mov    %edx,0x4(%eax)
    1df2:	c6 40 07 00          	movb   $0x0,0x7(%eax)
    1df6:	8b 50 08             	mov    0x8(%eax),%edx
    1df9:	81 e2 00 00 00 ff    	and    $0xff000000,%edx
    1dff:	89 50 08             	mov    %edx,0x8(%eax)
    1e02:	c6 40 0b 00          	movb   $0x0,0xb(%eax)
    1e06:	66 c7 40 0c 00 00    	movw   $0x0,0xc(%eax)
    1e0c:	c6 40 0e 00          	movb   $0x0,0xe(%eax)
    1e10:	c6 40 0f 00          	movb   $0x0,0xf(%eax)
    1e14:	c7 40 10 00 00 00 00 	movl   $0x0,0x10(%eax)
    1e1b:	89 88 80 00 00 00    	mov    %ecx,0x80(%eax)
    1e21:	c7 80 84 00 00 00 00 	movl   $0x0,0x84(%eax)
    1e28:	00 00 00 
    1e2b:	c7 80 88 00 00 00 00 	movl   $0x0,0x88(%eax)
    1e32:	00 00 00 
    1e35:	8b 90 8c 00 00 00    	mov    0x8c(%eax),%edx
    1e3b:	81 e2 00 00 c0 ff    	and    $0xffc00000,%edx
    1e41:	81 ca ff 01 00 00    	or     $0x1ff,%edx
    1e47:	89 90 8c 00 00 00    	mov    %edx,0x8c(%eax)
    1e4d:	8b 90 8c 00 00 00    	mov    0x8c(%eax),%edx
    1e53:	81 e2 ff ff 3f 80    	and    $0x803fffff,%edx
    1e59:	89 90 8c 00 00 00    	mov    %edx,0x8c(%eax)
    1e5f:	8b 90 8c 00 00 00    	mov    0x8c(%eax),%edx
    1e65:	81 e2 ff ff ff 7f    	and    $0x7fffffff,%edx
    1e6b:	89 90 8c 00 00 00    	mov    %edx,0x8c(%eax)
    1e71:	8b 43 10             	mov    0x10(%ebx),%eax
    1e74:	66 c7 40 02 01 00    	movw   $0x1,0x2(%eax)
    1e7a:	66 c7 00 02 04       	movw   $0x402,(%eax)
    1e7f:	c7 40 04 00 00 00 00 	movl   $0x0,0x4(%eax)
    1e86:	8b 43 0c             	mov    0xc(%ebx),%eax
    1e89:	8b 50 34             	mov    0x34(%eax),%edx
    1e8c:	83 ca 01             	or     $0x1,%edx
    1e8f:	89 50 34             	mov    %edx,0x34(%eax)
    1e92:	8b 50 38             	mov    0x38(%eax),%edx
    1e95:	83 ca 01             	or     $0x1,%edx
    1e98:	89 50 38             	mov    %edx,0x38(%eax)
    1e9b:	8b 4d 8c             	mov    -0x74(%ebp),%ecx
    1e9e:	89 0c 24             	mov    %ecx,(%esp)
    1ea1:	e8 da ce 00 00       	call   ed80 <fibril_mutex_lock>
    1ea6:	c7 43 40 00 00 00 00 	movl   $0x0,0x40(%ebx)
    1ead:	8b 7d 8c             	mov    -0x74(%ebp),%edi
    1eb0:	8b 75 80             	mov    -0x80(%ebp),%esi
    1eb3:	90                   	nop
    1eb4:	8d 74 26 00          	lea    0x0(%esi,%eiz,1),%esi
    1eb8:	89 7c 24 04          	mov    %edi,0x4(%esp)
    1ebc:	89 34 24             	mov    %esi,(%esp)
    1ebf:	e8 0c db 00 00       	call   f9d0 <fibril_condvar_wait>
    1ec4:	8b 43 40             	mov    0x40(%ebx),%eax
    1ec7:	85 c0                	test   %eax,%eax
    1ec9:	74 ed                	je     1eb8 <ahci_dev_add+0x778>
    1ecb:	89 c6                	mov    %eax,%esi
    1ecd:	a9 c0 00 c0 80       	test   $0x80c000c0,%eax
    1ed2:	74 04                	je     1ed8 <ahci_dev_add+0x798>
    1ed4:	c6 43 09 01          	movb   $0x1,0x9(%ebx)
    1ed8:	8b 55 8c             	mov    -0x74(%ebp),%edx
    1edb:	89 14 24             	mov    %edx,(%esp)
    1ede:	e8 bd cf 00 00       	call   eea0 <fibril_mutex_unlock>
    1ee3:	80 7b 09 00          	cmpb   $0x0,0x9(%ebx)
    1ee7:	0f 85 9c 06 00 00    	jne    2589 <ahci_dev_add+0xe49>
    1eed:	81 e6 d0 00 c0 fd    	and    $0xfdc000d0,%esi
    1ef3:	0f 85 90 06 00 00    	jne    2589 <ahci_dev_add+0xe49>
    1ef9:	c6 83 f5 00 00 00 01 	movb   $0x1,0xf5(%ebx)
    1f00:	8d 45 c0             	lea    -0x40(%ebp),%eax
    1f03:	8d 4b 54             	lea    0x54(%ebx),%ecx
    1f06:	8b 75 ac             	mov    -0x54(%ebp),%esi
    1f09:	c7 44 24 08 28 00 00 	movl   $0x28,0x8(%esp)
    1f10:	00 
    1f11:	c7 44 24 04 00 00 00 	movl   $0x0,0x4(%esp)
    1f18:	00 
    1f19:	89 04 24             	mov    %eax,(%esp)
    1f1c:	89 8d 7c ff ff ff    	mov    %ecx,-0x84(%ebp)
    1f22:	83 c6 36             	add    $0x36,%esi
    1f25:	e8 f6 8b 00 00       	call   ab20 <memset>
    1f2a:	31 c0                	xor    %eax,%eax
    1f2c:	8d 74 26 00          	lea    0x0(%esi,%eiz,1),%esi
    1f30:	66 8b 14 46          	mov    (%esi,%eax,2),%dx
    1f34:	89 d1                	mov    %edx,%ecx
    1f36:	88 54 45 c1          	mov    %dl,-0x3f(%ebp,%eax,2)
    1f3a:	66 c1 e9 08          	shr    $0x8,%cx
    1f3e:	88 4c 45 c0          	mov    %cl,-0x40(%ebp,%eax,2)
    1f42:	40                   	inc    %eax
    1f43:	83 f8 14             	cmp    $0x14,%eax
    1f46:	75 e8                	jne    1f30 <ahci_dev_add+0x7f0>
    1f48:	bf 28 00 00 00       	mov    $0x28,%edi
    1f4d:	eb 0b                	jmp    1f5a <ahci_dev_add+0x81a>
    1f4f:	90                   	nop
    1f50:	89 c7                	mov    %eax,%edi
    1f52:	85 c0                	test   %eax,%eax
    1f54:	0f 84 99 04 00 00    	je     23f3 <ahci_dev_add+0xcb3>
    1f5a:	8d 47 ff             	lea    -0x1(%edi),%eax
    1f5d:	80 7c 05 c0 20       	cmpb   $0x20,-0x40(%ebp,%eax,1)
    1f62:	74 ec                	je     1f50 <ahci_dev_add+0x810>
    1f64:	c7 45 a4 00 00 00 00 	movl   $0x0,-0x5c(%ebp)
    1f6b:	85 ff                	test   %edi,%edi
    1f6d:	0f 84 80 04 00 00    	je     23f3 <ahci_dev_add+0xcb3>
    1f73:	8d 75 c0             	lea    -0x40(%ebp),%esi
    1f76:	89 5d 84             	mov    %ebx,-0x7c(%ebp)
    1f79:	01 f7                	add    %esi,%edi
    1f7b:	89 f3                	mov    %esi,%ebx
    1f7d:	8b b5 7c ff ff ff    	mov    -0x84(%ebp),%esi
    1f83:	eb 28                	jmp    1fad <ahci_dev_add+0x86d>
    1f85:	8d 76 00             	lea    0x0(%esi),%esi
    1f88:	25 ff 00 00 00       	and    $0xff,%eax
    1f8d:	8d 4d a4             	lea    -0x5c(%ebp),%ecx
    1f90:	c7 44 24 0c 28 00 00 	movl   $0x28,0xc(%esp)
    1f97:	00 
    1f98:	89 4c 24 08          	mov    %ecx,0x8(%esp)
    1f9c:	89 74 24 04          	mov    %esi,0x4(%esp)
    1fa0:	89 04 24             	mov    %eax,(%esp)
    1fa3:	43                   	inc    %ebx
    1fa4:	e8 17 9a 00 00       	call   b9c0 <chr_encode>
    1fa9:	39 fb                	cmp    %edi,%ebx
    1fab:	74 13                	je     1fc0 <ahci_dev_add+0x880>
    1fad:	8a 03                	mov    (%ebx),%al
    1faf:	84 c0                	test   %al,%al
    1fb1:	79 d5                	jns    1f88 <ahci_dev_add+0x848>
    1fb3:	b8 3f 00 00 00       	mov    $0x3f,%eax
    1fb8:	eb d3                	jmp    1f8d <ahci_dev_add+0x84d>
    1fba:	8d b6 00 00 00 00    	lea    0x0(%esi),%esi
    1fc0:	8b 5d 84             	mov    -0x7c(%ebp),%ebx
    1fc3:	8b 45 a4             	mov    -0x5c(%ebp),%eax
    1fc6:	c6 44 03 54 00       	movb   $0x0,0x54(%ebx,%eax,1)
    1fcb:	8b 45 ac             	mov    -0x54(%ebp),%eax
    1fce:	f6 80 99 00 00 00 01 	testb  $0x1,0x99(%eax)
    1fd5:	0f 84 26 06 00 00    	je     2601 <ahci_dev_add+0xec1>
    1fdb:	66 8b 90 d4 00 00 00 	mov    0xd4(%eax),%dx
    1fe2:	89 d1                	mov    %edx,%ecx
    1fe4:	81 e1 00 c0 ff ff    	and    $0xffffc000,%ecx
    1fea:	66 81 f9 00 40       	cmp    $0x4000,%cx
    1fef:	0f 84 7b 04 00 00    	je     2470 <ahci_dev_add+0xd30>
    1ff5:	80 bb f5 00 00 00 00 	cmpb   $0x0,0xf5(%ebx)
    1ffc:	c7 43 50 00 02 00 00 	movl   $0x200,0x50(%ebx)
    2003:	0f 84 37 03 00 00    	je     2340 <ahci_dev_add+0xc00>
    2009:	c7 43 48 00 00 00 00 	movl   $0x0,0x48(%ebx)
    2010:	c7 43 4c 00 00 00 00 	movl   $0x0,0x4c(%ebx)
    2017:	66 8b 80 b0 00 00 00 	mov    0xb0(%eax),%ax
    201e:	c6 83 f6 00 00 00 ff 	movb   $0xff,0xf6(%ebx)
    2025:	88 c2                	mov    %al,%dl
    2027:	83 e2 7f             	and    $0x7f,%edx
    202a:	0f 84 95 05 00 00    	je     25c5 <ahci_dev_add+0xe85>
    2030:	81 e2 ff 00 00 00    	and    $0xff,%edx
    2036:	a8 01                	test   $0x1,%al
    2038:	74 07                	je     2041 <ahci_dev_add+0x901>
    203a:	c6 83 f6 00 00 00 00 	movb   $0x0,0xf6(%ebx)
    2041:	a8 02                	test   $0x2,%al
    2043:	74 07                	je     204c <ahci_dev_add+0x90c>
    2045:	c6 83 f6 00 00 00 01 	movb   $0x1,0xf6(%ebx)
    204c:	a8 04                	test   $0x4,%al
    204e:	74 07                	je     2057 <ahci_dev_add+0x917>
    2050:	c6 83 f6 00 00 00 02 	movb   $0x2,0xf6(%ebx)
    2057:	a8 08                	test   $0x8,%al
    2059:	74 07                	je     2062 <ahci_dev_add+0x922>
    205b:	c6 83 f6 00 00 00 03 	movb   $0x3,0xf6(%ebx)
    2062:	a8 10                	test   $0x10,%al
    2064:	74 07                	je     206d <ahci_dev_add+0x92d>
    2066:	c6 83 f6 00 00 00 04 	movb   $0x4,0xf6(%ebx)
    206d:	a8 20                	test   $0x20,%al
    206f:	74 07                	je     2078 <ahci_dev_add+0x938>
    2071:	c6 83 f6 00 00 00 05 	movb   $0x5,0xf6(%ebx)
    2078:	c1 ea 06             	shr    $0x6,%edx
    207b:	74 07                	je     2084 <ahci_dev_add+0x944>
    207d:	c6 83 f6 00 00 00 06 	movb   $0x6,0xf6(%ebx)
    2084:	8b 55 88             	mov    -0x78(%ebp),%edx
    2087:	89 14 24             	mov    %edx,(%esp)
    208a:	e8 11 ce 00 00       	call   eea0 <fibril_mutex_unlock>
    208f:	8b 45 ac             	mov    -0x54(%ebp),%eax
    2092:	89 04 24             	mov    %eax,(%esp)
    2095:	e8 b6 62 00 00       	call   8350 <dmamem_unmap_anonymous>
    209a:	80 7b 09 00          	cmpb   $0x0,0x9(%ebx)
    209e:	0f 85 c2 04 00 00    	jne    2566 <ahci_dev_add+0xe26>
    20a4:	8a 83 f6 00 00 00    	mov    0xf6(%ebx),%al
    20aa:	3c ff                	cmp    $0xff,%al
    20ac:	0f 84 72 05 00 00    	je     2624 <ahci_dev_add+0xee4>
    20b2:	3c 06                	cmp    $0x6,%al
    20b4:	0f 87 23 04 00 00    	ja     24dd <ahci_dev_add+0xd9d>
    20ba:	8d 45 ac             	lea    -0x54(%ebp),%eax
    20bd:	8d 55 a8             	lea    -0x58(%ebp),%edx
    20c0:	89 44 24 10          	mov    %eax,0x10(%esp)
    20c4:	89 54 24 0c          	mov    %edx,0xc(%esp)
    20c8:	c7 44 24 08 00 00 00 	movl   $0x0,0x8(%esp)
    20cf:	00 
    20d0:	c7 44 24 04 03 00 00 	movl   $0x3,0x4(%esp)
    20d7:	00 
    20d8:	c7 04 24 00 02 00 00 	movl   $0x200,(%esp)
    20df:	e8 cc 61 00 00       	call   82b0 <dmamem_map_anonymous>
    20e4:	85 c0                	test   %eax,%eax
    20e6:	0f 85 3c 02 00 00    	jne    2328 <ahci_dev_add+0xbe8>
    20ec:	8b 45 ac             	mov    -0x54(%ebp),%eax
    20ef:	c7 44 24 08 00 02 00 	movl   $0x200,0x8(%esp)
    20f6:	00 
    20f7:	c7 44 24 04 00 00 00 	movl   $0x0,0x4(%esp)
    20fe:	00 
    20ff:	89 04 24             	mov    %eax,(%esp)
    2102:	e8 19 8a 00 00       	call   ab20 <memset>
    2107:	8b 4d 88             	mov    -0x78(%ebp),%ecx
    210a:	89 0c 24             	mov    %ecx,(%esp)
    210d:	e8 6e cc 00 00       	call   ed80 <fibril_mutex_lock>
    2112:	8b 43 14             	mov    0x14(%ebx),%eax
    2115:	8a 93 f6 00 00 00    	mov    0xf6(%ebx),%dl
    211b:	8b 75 a8             	mov    -0x58(%ebp),%esi
    211e:	c6 00 27             	movb   $0x27,(%eax)
    2121:	c6 40 01 80          	movb   $0x80,0x1(%eax)
    2125:	c6 40 02 ef          	movb   $0xef,0x2(%eax)
    2129:	c6 40 03 03          	movb   $0x3,0x3(%eax)
    212d:	8b 48 04             	mov    0x4(%eax),%ecx
    2130:	83 e2 07             	and    $0x7,%edx
    2133:	81 e1 00 00 00 ff    	and    $0xff000000,%ecx
    2139:	83 ca 40             	or     $0x40,%edx
    213c:	89 48 04             	mov    %ecx,0x4(%eax)
    213f:	c6 40 07 00          	movb   $0x0,0x7(%eax)
    2143:	8b 48 08             	mov    0x8(%eax),%ecx
    2146:	81 e1 00 00 00 ff    	and    $0xff000000,%ecx
    214c:	89 48 08             	mov    %ecx,0x8(%eax)
    214f:	c6 40 0b 00          	movb   $0x0,0xb(%eax)
    2153:	66 89 50 0c          	mov    %dx,0xc(%eax)
    2157:	c6 40 0e 00          	movb   $0x0,0xe(%eax)
    215b:	c6 40 0f 00          	movb   $0x0,0xf(%eax)
    215f:	c7 40 10 00 00 00 00 	movl   $0x0,0x10(%eax)
    2166:	89 b0 80 00 00 00    	mov    %esi,0x80(%eax)
    216c:	c7 80 84 00 00 00 00 	movl   $0x0,0x84(%eax)
    2173:	00 00 00 
    2176:	c7 80 88 00 00 00 00 	movl   $0x0,0x88(%eax)
    217d:	00 00 00 
    2180:	8b 90 8c 00 00 00    	mov    0x8c(%eax),%edx
    2186:	81 e2 00 00 c0 ff    	and    $0xffc00000,%edx
    218c:	81 ca ff 01 00 00    	or     $0x1ff,%edx
    2192:	89 90 8c 00 00 00    	mov    %edx,0x8c(%eax)
    2198:	8b 90 8c 00 00 00    	mov    0x8c(%eax),%edx
    219e:	81 e2 ff ff 3f 80    	and    $0x803fffff,%edx
    21a4:	89 90 8c 00 00 00    	mov    %edx,0x8c(%eax)
    21aa:	8b 90 8c 00 00 00    	mov    0x8c(%eax),%edx
    21b0:	81 e2 ff ff ff 7f    	and    $0x7fffffff,%edx
    21b6:	89 90 8c 00 00 00    	mov    %edx,0x8c(%eax)
    21bc:	8b 43 10             	mov    0x10(%ebx),%eax
    21bf:	66 c7 40 02 01 00    	movw   $0x1,0x2(%eax)
    21c5:	66 c7 00 02 04       	movw   $0x402,(%eax)
    21ca:	c7 40 04 00 00 00 00 	movl   $0x0,0x4(%eax)
    21d1:	8b 43 0c             	mov    0xc(%ebx),%eax
    21d4:	8b 50 34             	mov    0x34(%eax),%edx
    21d7:	83 ca 01             	or     $0x1,%edx
    21da:	89 50 34             	mov    %edx,0x34(%eax)
    21dd:	8b 50 38             	mov    0x38(%eax),%edx
    21e0:	83 ca 01             	or     $0x1,%edx
    21e3:	89 50 38             	mov    %edx,0x38(%eax)
    21e6:	8b 55 8c             	mov    -0x74(%ebp),%edx
    21e9:	89 14 24             	mov    %edx,(%esp)
    21ec:	e8 8f cb 00 00       	call   ed80 <fibril_mutex_lock>
    21f1:	c7 43 40 00 00 00 00 	movl   $0x0,0x40(%ebx)
    21f8:	8b 7d 8c             	mov    -0x74(%ebp),%edi
    21fb:	8b 75 80             	mov    -0x80(%ebp),%esi
    21fe:	66 90                	xchg   %ax,%ax
    2200:	89 7c 24 04          	mov    %edi,0x4(%esp)
    2204:	89 34 24             	mov    %esi,(%esp)
    2207:	e8 c4 d7 00 00       	call   f9d0 <fibril_condvar_wait>
    220c:	8b 43 40             	mov    0x40(%ebx),%eax
    220f:	85 c0                	test   %eax,%eax
    2211:	74 ed                	je     2200 <ahci_dev_add+0xac0>
    2213:	89 c6                	mov    %eax,%esi
    2215:	a9 c0 00 c0 80       	test   $0x80c000c0,%eax
    221a:	74 04                	je     2220 <ahci_dev_add+0xae0>
    221c:	c6 43 09 01          	movb   $0x1,0x9(%ebx)
    2220:	8b 4d 8c             	mov    -0x74(%ebp),%ecx
    2223:	89 0c 24             	mov    %ecx,(%esp)
    2226:	e8 75 cc 00 00       	call   eea0 <fibril_mutex_unlock>
    222b:	80 7b 09 00          	cmpb   $0x0,0x9(%ebx)
    222f:	0f 85 6d 03 00 00    	jne    25a2 <ahci_dev_add+0xe62>
    2235:	81 e6 d0 00 c0 fd    	and    $0xfdc000d0,%esi
    223b:	0f 85 02 03 00 00    	jne    2543 <ahci_dev_add+0xe03>
    2241:	8b 55 88             	mov    -0x78(%ebp),%edx
    2244:	89 14 24             	mov    %edx,(%esp)
    2247:	e8 54 cc 00 00       	call   eea0 <fibril_mutex_unlock>
    224c:	8b 45 ac             	mov    -0x54(%ebp),%eax
    224f:	89 04 24             	mov    %eax,(%esp)
    2252:	e8 f9 60 00 00       	call   8350 <dmamem_unmap_anonymous>
    2257:	8d 4d c0             	lea    -0x40(%ebp),%ecx
    225a:	a1 d8 bc 02 00       	mov    0x2bcd8,%eax
    225f:	89 0c 24             	mov    %ecx,(%esp)
    2262:	89 44 24 0c          	mov    %eax,0xc(%esp)
    2266:	c7 44 24 08 25 73 02 	movl   $0x27325,0x8(%esp)
    226d:	00 
    226e:	c7 44 24 04 10 00 00 	movl   $0x10,0x4(%esp)
    2275:	00 
    2276:	e8 05 12 01 00       	call   13480 <snprintf>
    227b:	c7 04 24 c0 bc 02 00 	movl   $0x2bcc0,(%esp)
    2282:	e8 f9 ca 00 00       	call   ed80 <fibril_mutex_lock>
    2287:	a1 d8 bc 02 00       	mov    0x2bcd8,%eax
    228c:	40                   	inc    %eax
    228d:	c7 04 24 c0 bc 02 00 	movl   $0x2bcc0,(%esp)
    2294:	a3 d8 bc 02 00       	mov    %eax,0x2bcd8
    2299:	e8 02 cc 00 00       	call   eea0 <fibril_mutex_unlock>
    229e:	8d 45 c0             	lea    -0x40(%ebp),%eax
    22a1:	89 44 24 04          	mov    %eax,0x4(%esp)
    22a5:	8b 43 04             	mov    0x4(%ebx),%eax
    22a8:	89 04 24             	mov    %eax,(%esp)
    22ab:	e8 20 0e 00 00       	call   30d0 <ddf_fun_set_name>
    22b0:	85 c0                	test   %eax,%eax
    22b2:	0f 85 72 02 00 00    	jne    252a <ahci_dev_add+0xdea>
    22b8:	c7 44 24 04 00 b8 02 	movl   $0x2b800,0x4(%esp)
    22bf:	00 
    22c0:	c7 04 24 00 00 00 00 	movl   $0x0,(%esp)
    22c7:	e8 04 14 00 00       	call   36d0 <ddf_fun_set_ops>
    22cc:	c7 04 24 00 00 00 00 	movl   $0x0,(%esp)
    22d3:	e8 f8 10 00 00       	call   33d0 <ddf_fun_bind>
    22d8:	85 c0                	test   %eax,%eax
    22da:	0f 84 48 f7 ff ff    	je     1a28 <ahci_dev_add+0x2e8>
    22e0:	c7 44 24 04 4b 73 02 	movl   $0x2734b,0x4(%esp)
    22e7:	00 
    22e8:	c7 04 24 01 00 00 00 	movl   $0x1,(%esp)
    22ef:	e8 ac 18 00 00       	call   3ba0 <ddf_msg>
    22f4:	eb 26                	jmp    231c <ahci_dev_add+0xbdc>
    22f6:	66 90                	xchg   %ax,%ax
    22f8:	81 c4 ac 00 00 00    	add    $0xac,%esp
    22fe:	31 c0                	xor    %eax,%eax
    2300:	5b                   	pop    %ebx
    2301:	5e                   	pop    %esi
    2302:	5f                   	pop    %edi
    2303:	5d                   	pop    %ebp
    2304:	c3                   	ret    
    2305:	8d 76 00             	lea    0x0(%esi),%esi
    2308:	c7 44 24 04 60 74 02 	movl   $0x27460,0x4(%esp)
    230f:	00 
    2310:	c7 04 24 01 00 00 00 	movl   $0x1,(%esp)
    2317:	e8 84 18 00 00       	call   3ba0 <ddf_msg>
    231c:	c6 43 09 01          	movb   $0x1,0x9(%ebx)
    2320:	e9 03 f7 ff ff       	jmp    1a28 <ahci_dev_add+0x2e8>
    2325:	8d 76 00             	lea    0x0(%esi),%esi
    2328:	c7 44 24 04 b0 75 02 	movl   $0x275b0,0x4(%esp)
    232f:	00 
    2330:	c7 04 24 01 00 00 00 	movl   $0x1,(%esp)
    2337:	e8 64 18 00 00       	call   3ba0 <ddf_msg>
    233c:	eb de                	jmp    231c <ahci_dev_add+0xbdc>
    233e:	66 90                	xchg   %ax,%ax
    2340:	f6 40 63 02          	testb  $0x2,0x63(%eax)
    2344:	0f 84 fd 02 00 00    	je     2647 <ahci_dev_add+0xf07>
    234a:	f6 80 a7 00 00 00 04 	testb  $0x4,0xa7(%eax)
    2351:	75 55                	jne    23a8 <ahci_dev_add+0xc68>
    2353:	66 8b 50 7a          	mov    0x7a(%eax),%dx
    2357:	66 8b 48 78          	mov    0x78(%eax),%cx
    235b:	c1 e2 10             	shl    $0x10,%edx
    235e:	81 e1 ff ff 00 00    	and    $0xffff,%ecx
    2364:	09 ca                	or     %ecx,%edx
    2366:	c7 43 4c 00 00 00 00 	movl   $0x0,0x4c(%ebx)
    236d:	89 53 48             	mov    %edx,0x48(%ebx)
    2370:	e9 a2 fc ff ff       	jmp    2017 <ahci_dev_add+0x8d7>
    2375:	8b 45 a8             	mov    -0x58(%ebp),%eax
    2378:	c7 44 24 04 00 10 00 	movl   $0x1000,0x4(%esp)
    237f:	00 
    2380:	89 04 24             	mov    %eax,(%esp)
    2383:	e8 78 5f 00 00       	call   8300 <dmamem_unmap>
    2388:	8b 45 a0             	mov    -0x60(%ebp),%eax
    238b:	c7 44 24 04 00 10 00 	movl   $0x1000,0x4(%esp)
    2392:	00 
    2393:	89 04 24             	mov    %eax,(%esp)
    2396:	e8 65 5f 00 00       	call   8300 <dmamem_unmap>
    239b:	89 1c 24             	mov    %ebx,(%esp)
    239e:	e8 cd 5d 01 00       	call   18170 <free>
    23a3:	e9 80 f6 ff ff       	jmp    1a28 <ahci_dev_add+0x2e8>
    23a8:	66 8b b0 ca 00 00 00 	mov    0xca(%eax),%si
    23af:	66 8b 88 c8 00 00 00 	mov    0xc8(%eax),%cx
    23b6:	81 e6 ff ff 00 00    	and    $0xffff,%esi
    23bc:	31 ff                	xor    %edi,%edi
    23be:	66 8b 90 cc 00 00 00 	mov    0xcc(%eax),%dx
    23c5:	81 e1 ff ff 00 00    	and    $0xffff,%ecx
    23cb:	0f a4 f7 10          	shld   $0x10,%esi,%edi
    23cf:	c1 e6 10             	shl    $0x10,%esi
    23d2:	81 e2 ff ff 00 00    	and    $0xffff,%edx
    23d8:	09 ce                	or     %ecx,%esi
    23da:	66 8b 88 ce 00 00 00 	mov    0xce(%eax),%cx
    23e1:	09 fa                	or     %edi,%edx
    23e3:	89 73 48             	mov    %esi,0x48(%ebx)
    23e6:	c1 e1 10             	shl    $0x10,%ecx
    23e9:	09 ca                	or     %ecx,%edx
    23eb:	89 53 4c             	mov    %edx,0x4c(%ebx)
    23ee:	e9 24 fc ff ff       	jmp    2017 <ahci_dev_add+0x8d7>
    23f3:	31 c0                	xor    %eax,%eax
    23f5:	e9 cc fb ff ff       	jmp    1fc6 <ahci_dev_add+0x886>
    23fa:	c7 44 24 04 0c 74 02 	movl   $0x2740c,0x4(%esp)
    2401:	00 
    2402:	c7 04 24 01 00 00 00 	movl   $0x1,(%esp)
    2409:	e8 92 17 00 00       	call   3ba0 <ddf_msg>
    240e:	8b 45 c4             	mov    -0x3c(%ebp),%eax
    2411:	89 04 24             	mov    %eax,(%esp)
    2414:	e8 57 5d 01 00       	call   18170 <free>
    2419:	8b 45 dc             	mov    -0x24(%ebp),%eax
    241c:	89 04 24             	mov    %eax,(%esp)
    241f:	e8 4c 5d 01 00       	call   18170 <free>
    2424:	8b 45 d4             	mov    -0x2c(%ebp),%eax
    2427:	89 04 24             	mov    %eax,(%esp)
    242a:	e8 41 5d 01 00       	call   18170 <free>
    242f:	8b 45 cc             	mov    -0x34(%ebp),%eax
    2432:	89 04 24             	mov    %eax,(%esp)
    2435:	e8 36 5d 01 00       	call   18170 <free>
    243a:	8d 55 c0             	lea    -0x40(%ebp),%edx
    243d:	c7 44 24 08 20 00 00 	movl   $0x20,0x8(%esp)
    2444:	00 
    2445:	c7 44 24 04 00 00 00 	movl   $0x0,0x4(%esp)
    244c:	00 
    244d:	89 14 24             	mov    %edx,(%esp)
    2450:	e8 cb 86 00 00       	call   ab20 <memset>
    2455:	8b 45 90             	mov    -0x70(%ebp),%eax
    2458:	89 04 24             	mov    %eax,(%esp)
    245b:	e8 10 5d 01 00       	call   18170 <free>
    2460:	81 c4 ac 00 00 00    	add    $0xac,%esp
    2466:	b8 ef ff ff ff       	mov    $0xffffffef,%eax
    246b:	5b                   	pop    %ebx
    246c:	5e                   	pop    %esi
    246d:	5f                   	pop    %edi
    246e:	5d                   	pop    %ebp
    246f:	c3                   	ret    
    2470:	f6 c6 01             	test   $0x1,%dh
    2473:	0f 85 f1 01 00 00    	jne    266a <ahci_dev_add+0xf2a>
    2479:	f6 c6 02             	test   $0x2,%dh
    247c:	0f 84 73 fb ff ff    	je     1ff5 <ahci_dev_add+0x8b5>
    2482:	83 e2 0f             	and    $0xf,%edx
    2485:	0f 84 6a fb ff ff    	je     1ff5 <ahci_dev_add+0x8b5>
    248b:	8b 95 7c ff ff ff    	mov    -0x84(%ebp),%edx
    2491:	c7 44 24 04 f4 74 02 	movl   $0x274f4,0x4(%esp)
    2498:	00 
    2499:	89 54 24 08          	mov    %edx,0x8(%esp)
    249d:	c7 04 24 01 00 00 00 	movl   $0x1,(%esp)
    24a4:	e8 f7 16 00 00       	call   3ba0 <ddf_msg>
    24a9:	8b 55 88             	mov    -0x78(%ebp),%edx
    24ac:	89 14 24             	mov    %edx,(%esp)
    24af:	e8 ec c9 00 00       	call   eea0 <fibril_mutex_unlock>
    24b4:	8b 45 ac             	mov    -0x54(%ebp),%eax
    24b7:	89 04 24             	mov    %eax,(%esp)
    24ba:	e8 91 5e 00 00       	call   8350 <dmamem_unmap_anonymous>
    24bf:	e9 58 fe ff ff       	jmp    231c <ahci_dev_add+0xbdc>
    24c4:	c7 44 24 04 34 74 02 	movl   $0x27434,0x4(%esp)
    24cb:	00 
    24cc:	c7 04 24 01 00 00 00 	movl   $0x1,(%esp)
    24d3:	e8 c8 16 00 00       	call   3ba0 <ddf_msg>
    24d8:	e9 3f fe ff ff       	jmp    231c <ahci_dev_add+0xbdc>
    24dd:	8b 8d 7c ff ff ff    	mov    -0x84(%ebp),%ecx
    24e3:	c7 44 24 04 09 73 02 	movl   $0x27309,0x4(%esp)
    24ea:	00 
    24eb:	89 4c 24 08          	mov    %ecx,0x8(%esp)
    24ef:	c7 04 24 01 00 00 00 	movl   $0x1,(%esp)
    24f6:	e8 a5 16 00 00       	call   3ba0 <ddf_msg>
    24fb:	e9 1c fe ff ff       	jmp    231c <ahci_dev_add+0xbdc>
    2500:	c7 44 24 04 bd 72 02 	movl   $0x272bd,0x4(%esp)
    2507:	00 
    2508:	c7 04 24 01 00 00 00 	movl   $0x1,(%esp)
    250f:	e8 8c 16 00 00       	call   3ba0 <ddf_msg>
    2514:	8b 45 c4             	mov    -0x3c(%ebp),%eax
    2517:	8b 00                	mov    (%eax),%eax
    2519:	89 1c 24             	mov    %ebx,(%esp)
    251c:	89 44 24 04          	mov    %eax,0x4(%esp)
    2520:	e8 8b 15 00 00       	call   3ab0 <unregister_interrupt_handler>
    2525:	e9 e4 fe ff ff       	jmp    240e <ahci_dev_add+0xcce>
    252a:	c7 44 24 04 2d 73 02 	movl   $0x2732d,0x4(%esp)
    2531:	00 
    2532:	c7 04 24 01 00 00 00 	movl   $0x1,(%esp)
    2539:	e8 62 16 00 00       	call   3ba0 <ddf_msg>
    253e:	e9 d9 fd ff ff       	jmp    231c <ahci_dev_add+0xbdc>
    2543:	8b 8d 7c ff ff ff    	mov    -0x84(%ebp),%ecx
    2549:	c7 44 24 04 14 76 02 	movl   $0x27614,0x4(%esp)
    2550:	00 
    2551:	89 4c 24 08          	mov    %ecx,0x8(%esp)
    2555:	c7 04 24 01 00 00 00 	movl   $0x1,(%esp)
    255c:	e8 3f 16 00 00       	call   3ba0 <ddf_msg>
    2561:	e9 43 ff ff ff       	jmp    24a9 <ahci_dev_add+0xd69>
    2566:	8b 8d 7c ff ff ff    	mov    -0x84(%ebp),%ecx
    256c:	c7 44 24 04 80 75 02 	movl   $0x27580,0x4(%esp)
    2573:	00 
    2574:	89 4c 24 08          	mov    %ecx,0x8(%esp)
    2578:	c7 04 24 01 00 00 00 	movl   $0x1,(%esp)
    257f:	e8 1c 16 00 00       	call   3ba0 <ddf_msg>
    2584:	e9 93 fd ff ff       	jmp    231c <ahci_dev_add+0xbdc>
    2589:	c7 44 24 04 bc 74 02 	movl   $0x274bc,0x4(%esp)
    2590:	00 
    2591:	c7 04 24 01 00 00 00 	movl   $0x1,(%esp)
    2598:	e8 03 16 00 00       	call   3ba0 <ddf_msg>
    259d:	e9 07 ff ff ff       	jmp    24a9 <ahci_dev_add+0xd69>
    25a2:	8b 95 7c ff ff ff    	mov    -0x84(%ebp),%edx
    25a8:	c7 44 24 04 dc 75 02 	movl   $0x275dc,0x4(%esp)
    25af:	00 
    25b0:	89 54 24 08          	mov    %edx,0x8(%esp)
    25b4:	c7 04 24 01 00 00 00 	movl   $0x1,(%esp)
    25bb:	e8 e0 15 00 00       	call   3ba0 <ddf_msg>
    25c0:	e9 e4 fe ff ff       	jmp    24a9 <ahci_dev_add+0xd69>
    25c5:	8b 8d 7c ff ff ff    	mov    -0x84(%ebp),%ecx
    25cb:	c7 44 24 04 4c 75 02 	movl   $0x2754c,0x4(%esp)
    25d2:	00 
    25d3:	89 4c 24 08          	mov    %ecx,0x8(%esp)
    25d7:	c7 04 24 01 00 00 00 	movl   $0x1,(%esp)
    25de:	e8 bd 15 00 00       	call   3ba0 <ddf_msg>
    25e3:	e9 c1 fe ff ff       	jmp    24a9 <ahci_dev_add+0xd69>
    25e8:	c7 44 24 04 8c 74 02 	movl   $0x2748c,0x4(%esp)
    25ef:	00 
    25f0:	c7 04 24 01 00 00 00 	movl   $0x1,(%esp)
    25f7:	e8 a4 15 00 00       	call   3ba0 <ddf_msg>
    25fc:	e9 a8 fe ff ff       	jmp    24a9 <ahci_dev_add+0xd69>
    2601:	8b 95 7c ff ff ff    	mov    -0x84(%ebp),%edx
    2607:	c7 44 24 04 d5 72 02 	movl   $0x272d5,0x4(%esp)
    260e:	00 
    260f:	89 54 24 08          	mov    %edx,0x8(%esp)
    2613:	c7 04 24 01 00 00 00 	movl   $0x1,(%esp)
    261a:	e8 81 15 00 00       	call   3ba0 <ddf_msg>
    261f:	e9 85 fe ff ff       	jmp    24a9 <ahci_dev_add+0xd69>
    2624:	8b 95 7c ff ff ff    	mov    -0x84(%ebp),%edx
    262a:	c7 44 24 04 ef 72 02 	movl   $0x272ef,0x4(%esp)
    2631:	00 
    2632:	89 54 24 08          	mov    %edx,0x8(%esp)
    2636:	c7 04 24 01 00 00 00 	movl   $0x1,(%esp)
    263d:	e8 5e 15 00 00       	call   3ba0 <ddf_msg>
    2642:	e9 d5 fc ff ff       	jmp    231c <ahci_dev_add+0xbdc>
    2647:	8b 8d 7c ff ff ff    	mov    -0x84(%ebp),%ecx
    264d:	c7 44 24 04 28 75 02 	movl   $0x27528,0x4(%esp)
    2654:	00 
    2655:	89 4c 24 08          	mov    %ecx,0x8(%esp)
    2659:	c7 04 24 01 00 00 00 	movl   $0x1,(%esp)
    2660:	e8 3b 15 00 00       	call   3ba0 <ddf_msg>
    2665:	e9 3f fe ff ff       	jmp    24a9 <ahci_dev_add+0xd69>
    266a:	8b 8d 7c ff ff ff    	mov    -0x84(%ebp),%ecx
    2670:	c7 44 24 04 f4 74 02 	movl   $0x274f4,0x4(%esp)
    2677:	00 
    2678:	89 4c 24 08          	mov    %ecx,0x8(%esp)
    267c:	c7 04 24 01 00 00 00 	movl   $0x1,(%esp)
    2683:	e8 18 15 00 00       	call   3ba0 <ddf_msg>
    2688:	e9 1c fe ff ff       	jmp    24a9 <ahci_dev_add+0xd69>
    268d:	66 90                	xchg   %ax,%ax
    268f:	90                   	nop

00002690 <main>:
    2690:	55                   	push   %ebp
    2691:	89 e5                	mov    %esp,%ebp
    2693:	83 e4 f0             	and    $0xfffffff0,%esp
    2696:	83 ec 10             	sub    $0x10,%esp
    2699:	c7 44 24 04 64 73 02 	movl   $0x27364,0x4(%esp)
    26a0:	00 
    26a1:	c7 04 24 3c 76 02 00 	movl   $0x2763c,(%esp)
    26a8:	e8 63 06 01 00       	call   12d10 <printf>
    26ad:	c7 04 24 64 73 02 00 	movl   $0x27364,(%esp)
    26b4:	e8 d7 14 00 00       	call   3b90 <ddf_log_init>
    26b9:	c7 04 24 c0 bc 02 00 	movl   $0x2bcc0,(%esp)
    26c0:	e8 9b c6 00 00       	call   ed60 <fibril_mutex_initialize>
    26c5:	c7 04 24 60 a6 02 00 	movl   $0x2a660,(%esp)
    26cc:	e8 df 10 00 00       	call   37b0 <ddf_driver_main>
    26d1:	c9                   	leave  
    26d2:	c3                   	ret    
    26d3:	66 90                	xchg   %ax,%ax
    26d5:	66 90                	xchg   %ax,%ax
    26d7:	66 90                	xchg   %ax,%ax
    26d9:	66 90                	xchg   %ax,%ax
    26db:	66 90                	xchg   %ax,%ax
    26dd:	66 90                	xchg   %ax,%ax
    26df:	90                   	nop

000026e0 <driver_connection_gen.isra.8>:
    26e0:	55                   	push   %ebp
    26e1:	89 e5                	mov    %esp,%ebp
    26e3:	57                   	push   %edi
    26e4:	56                   	push   %esi
    26e5:	53                   	push   %ebx
    26e6:	83 ec 5c             	sub    $0x5c,%esp
    26e9:	89 c6                	mov    %eax,%esi
    26eb:	8b 7a 08             	mov    0x8(%edx),%edi
    26ee:	89 55 a8             	mov    %edx,-0x58(%ebp)
    26f1:	c7 04 24 60 b8 02 00 	movl   $0x2b860,(%esp)
    26f8:	e8 83 c6 00 00       	call   ed80 <fibril_mutex_lock>
    26fd:	c7 04 24 60 b8 02 00 	movl   $0x2b860,(%esp)
    2704:	e8 a7 c8 00 00       	call   efb0 <fibril_mutex_is_locked>
    2709:	8b 55 a8             	mov    -0x58(%ebp),%edx
    270c:	84 c0                	test   %al,%al
    270e:	0f 84 a6 02 00 00    	je     29ba <driver_connection_gen.isra.8+0x2da>
    2714:	a1 74 b8 02 00       	mov    0x2b874,%eax
    2719:	3d 70 b8 02 00       	cmp    $0x2b870,%eax
    271e:	75 12                	jne    2732 <driver_connection_gen.isra.8+0x52>
    2720:	eb 46                	jmp    2768 <driver_connection_gen.isra.8+0x88>
    2722:	8d b6 00 00 00 00    	lea    0x0(%esi),%esi
    2728:	8b 40 04             	mov    0x4(%eax),%eax
    272b:	3d 70 b8 02 00       	cmp    $0x2b870,%eax
    2730:	74 36                	je     2768 <driver_connection_gen.isra.8+0x88>
    2732:	8d 58 d4             	lea    -0x2c(%eax),%ebx
    2735:	3b 7b 04             	cmp    0x4(%ebx),%edi
    2738:	75 ee                	jne    2728 <driver_connection_gen.isra.8+0x48>
    273a:	c7 04 24 60 b8 02 00 	movl   $0x2b860,(%esp)
    2741:	89 55 a8             	mov    %edx,-0x58(%ebp)
    2744:	e8 57 c7 00 00       	call   eea0 <fibril_mutex_unlock>
    2749:	8b 43 28             	mov    0x28(%ebx),%eax
    274c:	85 c0                	test   %eax,%eax
    274e:	8b 55 a8             	mov    -0x58(%ebp),%edx
    2751:	74 55                	je     27a8 <driver_connection_gen.isra.8+0xc8>
    2753:	89 5c 24 08          	mov    %ebx,0x8(%esp)
    2757:	89 34 24             	mov    %esi,(%esp)
    275a:	89 54 24 04          	mov    %edx,0x4(%esp)
    275e:	ff d0                	call   *%eax
    2760:	83 c4 5c             	add    $0x5c,%esp
    2763:	5b                   	pop    %ebx
    2764:	5e                   	pop    %esi
    2765:	5f                   	pop    %edi
    2766:	5d                   	pop    %ebp
    2767:	c3                   	ret    
    2768:	c7 04 24 60 b8 02 00 	movl   $0x2b860,(%esp)
    276f:	e8 2c c7 00 00       	call   eea0 <fibril_mutex_unlock>
    2774:	a1 dc bc 02 00       	mov    0x2bcdc,%eax
    2779:	89 7c 24 08          	mov    %edi,0x8(%esp)
    277d:	8b 00                	mov    (%eax),%eax
    277f:	c7 04 24 a4 78 02 00 	movl   $0x278a4,(%esp)
    2786:	89 44 24 04          	mov    %eax,0x4(%esp)
    278a:	e8 81 05 01 00       	call   12d10 <printf>
    278f:	c7 44 24 04 ff ff ff 	movl   $0xffffffff,0x4(%esp)
    2796:	ff 
    2797:	89 34 24             	mov    %esi,(%esp)
    279a:	e8 01 84 01 00       	call   1aba0 <async_answer_0>
    279f:	83 c4 5c             	add    $0x5c,%esp
    27a2:	5b                   	pop    %ebx
    27a3:	5e                   	pop    %esi
    27a4:	5f                   	pop    %edi
    27a5:	5d                   	pop    %ebp
    27a6:	c3                   	ret    
    27a7:	90                   	nop
    27a8:	8b 43 24             	mov    0x24(%ebx),%eax
    27ab:	85 c0                	test   %eax,%eax
    27ad:	0f 84 cd 01 00 00    	je     2980 <driver_connection_gen.isra.8+0x2a0>
    27b3:	8b 00                	mov    (%eax),%eax
    27b5:	85 c0                	test   %eax,%eax
    27b7:	0f 84 c3 01 00 00    	je     2980 <driver_connection_gen.isra.8+0x2a0>
    27bd:	89 1c 24             	mov    %ebx,(%esp)
    27c0:	ff d0                	call   *%eax
    27c2:	89 34 24             	mov    %esi,(%esp)
    27c5:	89 44 24 04          	mov    %eax,0x4(%esp)
    27c9:	89 45 a8             	mov    %eax,-0x58(%ebp)
    27cc:	e8 cf 83 01 00       	call   1aba0 <async_answer_0>
    27d1:	8b 55 a8             	mov    -0x58(%ebp),%edx
    27d4:	85 d2                	test   %edx,%edx
    27d6:	75 c7                	jne    279f <driver_connection_gen.isra.8+0xbf>
    27d8:	8d 55 c4             	lea    -0x3c(%ebp),%edx
    27db:	89 7d ac             	mov    %edi,-0x54(%ebp)
    27de:	89 55 b4             	mov    %edx,-0x4c(%ebp)
    27e1:	8d b4 26 00 00 00 00 	lea    0x0(%esi,%eiz,1),%esi
    27e8:	c7 44 24 04 00 00 00 	movl   $0x0,0x4(%esp)
    27ef:	00 
    27f0:	89 14 24             	mov    %edx,(%esp)
    27f3:	e8 78 6d 01 00       	call   19570 <async_get_call_timeout>
    27f8:	8b 75 c4             	mov    -0x3c(%ebp),%esi
    27fb:	89 c7                	mov    %eax,%edi
    27fd:	85 f6                	test   %esi,%esi
    27ff:	0f 84 eb 00 00 00    	je     28f0 <driver_connection_gen.isra.8+0x210>
    2805:	81 ee 00 04 00 00    	sub    $0x400,%esi
    280b:	89 34 24             	mov    %esi,(%esp)
    280e:	e8 8d 10 00 00       	call   38a0 <is_valid_iface_idx>
    2813:	84 c0                	test   %al,%al
    2815:	75 31                	jne    2848 <driver_connection_gen.isra.8+0x168>
    2817:	8b 43 24             	mov    0x24(%ebx),%eax
    281a:	85 c0                	test   %eax,%eax
    281c:	0f 84 96 00 00 00    	je     28b8 <driver_connection_gen.isra.8+0x1d8>
    2822:	8b 40 34             	mov    0x34(%eax),%eax
    2825:	85 c0                	test   %eax,%eax
    2827:	0f 84 8b 00 00 00    	je     28b8 <driver_connection_gen.isra.8+0x1d8>
    282d:	8b 55 b4             	mov    -0x4c(%ebp),%edx
    2830:	89 7c 24 04          	mov    %edi,0x4(%esp)
    2834:	89 54 24 08          	mov    %edx,0x8(%esp)
    2838:	89 1c 24             	mov    %ebx,(%esp)
    283b:	ff d0                	call   *%eax
    283d:	8b 55 b4             	mov    -0x4c(%ebp),%edx
    2840:	eb a6                	jmp    27e8 <driver_connection_gen.isra.8+0x108>
    2842:	8d b6 00 00 00 00    	lea    0x0(%esi),%esi
    2848:	89 34 24             	mov    %esi,(%esp)
    284b:	e8 50 10 00 00       	call   38a0 <is_valid_iface_idx>
    2850:	84 c0                	test   %al,%al
    2852:	0f 84 46 01 00 00    	je     299e <driver_connection_gen.isra.8+0x2be>
    2858:	8b 43 24             	mov    0x24(%ebx),%eax
    285b:	85 c0                	test   %eax,%eax
    285d:	0f 84 bd 00 00 00    	je     2920 <driver_connection_gen.isra.8+0x240>
    2863:	8b 44 b0 08          	mov    0x8(%eax,%esi,4),%eax
    2867:	89 45 b0             	mov    %eax,-0x50(%ebp)
    286a:	85 c0                	test   %eax,%eax
    286c:	0f 84 ae 00 00 00    	je     2920 <driver_connection_gen.isra.8+0x240>
    2872:	89 34 24             	mov    %esi,(%esp)
    2875:	e8 c6 0f 00 00       	call   3840 <get_remote_iface>
    287a:	85 c0                	test   %eax,%eax
    287c:	0f 84 54 01 00 00    	je     29d6 <driver_connection_gen.isra.8+0x2f6>
    2882:	8b 55 c8             	mov    -0x38(%ebp),%edx
    2885:	89 04 24             	mov    %eax,(%esp)
    2888:	89 54 24 04          	mov    %edx,0x4(%esp)
    288c:	e8 ef 0f 00 00       	call   3880 <get_remote_method>
    2891:	85 c0                	test   %eax,%eax
    2893:	0f 84 b7 00 00 00    	je     2950 <driver_connection_gen.isra.8+0x270>
    2899:	8b 55 b4             	mov    -0x4c(%ebp),%edx
    289c:	89 7c 24 08          	mov    %edi,0x8(%esp)
    28a0:	89 54 24 0c          	mov    %edx,0xc(%esp)
    28a4:	8b 55 b0             	mov    -0x50(%ebp),%edx
    28a7:	89 54 24 04          	mov    %edx,0x4(%esp)
    28ab:	89 1c 24             	mov    %ebx,(%esp)
    28ae:	ff d0                	call   *%eax
    28b0:	8b 55 b4             	mov    -0x4c(%ebp),%edx
    28b3:	e9 30 ff ff ff       	jmp    27e8 <driver_connection_gen.isra.8+0x108>
    28b8:	a1 dc bc 02 00       	mov    0x2bcdc,%eax
    28bd:	89 74 24 08          	mov    %esi,0x8(%esp)
    28c1:	8b 00                	mov    (%eax),%eax
    28c3:	c7 04 24 d0 77 02 00 	movl   $0x277d0,(%esp)
    28ca:	89 44 24 04          	mov    %eax,0x4(%esp)
    28ce:	e8 3d 04 01 00       	call   12d10 <printf>
    28d3:	c7 44 24 04 f5 ff ff 	movl   $0xfffffff5,0x4(%esp)
    28da:	ff 
    28db:	89 3c 24             	mov    %edi,(%esp)
    28de:	e8 bd 82 01 00       	call   1aba0 <async_answer_0>
    28e3:	8b 55 b4             	mov    -0x4c(%ebp),%edx
    28e6:	e9 fd fe ff ff       	jmp    27e8 <driver_connection_gen.isra.8+0x108>
    28eb:	90                   	nop
    28ec:	8d 74 26 00          	lea    0x0(%esi,%eiz,1),%esi
    28f0:	8b 43 24             	mov    0x24(%ebx),%eax
    28f3:	85 c0                	test   %eax,%eax
    28f5:	74 0c                	je     2903 <driver_connection_gen.isra.8+0x223>
    28f7:	8b 40 04             	mov    0x4(%eax),%eax
    28fa:	85 c0                	test   %eax,%eax
    28fc:	74 05                	je     2903 <driver_connection_gen.isra.8+0x223>
    28fe:	89 1c 24             	mov    %ebx,(%esp)
    2901:	ff d0                	call   *%eax
    2903:	89 3c 24             	mov    %edi,(%esp)
    2906:	c7 44 24 04 00 00 00 	movl   $0x0,0x4(%esp)
    290d:	00 
    290e:	e8 8d 82 01 00       	call   1aba0 <async_answer_0>
    2913:	83 c4 5c             	add    $0x5c,%esp
    2916:	5b                   	pop    %ebx
    2917:	5e                   	pop    %esi
    2918:	5f                   	pop    %edi
    2919:	5d                   	pop    %ebp
    291a:	c3                   	ret    
    291b:	90                   	nop
    291c:	8d 74 26 00          	lea    0x0(%esi,%eiz,1),%esi
    2920:	a1 dc bc 02 00       	mov    0x2bcdc,%eax
    2925:	8b 00                	mov    (%eax),%eax
    2927:	c7 04 24 0c 78 02 00 	movl   $0x2780c,(%esp)
    292e:	89 44 24 04          	mov    %eax,0x4(%esp)
    2932:	e8 d9 03 01 00       	call   12d10 <printf>
    2937:	8b 55 ac             	mov    -0x54(%ebp),%edx
    293a:	89 74 24 08          	mov    %esi,0x8(%esp)
    293e:	89 54 24 04          	mov    %edx,0x4(%esp)
    2942:	c7 04 24 30 78 02 00 	movl   $0x27830,(%esp)
    2949:	eb 83                	jmp    28ce <driver_connection_gen.isra.8+0x1ee>
    294b:	90                   	nop
    294c:	8d 74 26 00          	lea    0x0(%esi,%eiz,1),%esi
    2950:	a1 dc bc 02 00       	mov    0x2bcdc,%eax
    2955:	8b 00                	mov    (%eax),%eax
    2957:	c7 04 24 68 78 02 00 	movl   $0x27868,(%esp)
    295e:	89 44 24 04          	mov    %eax,0x4(%esp)
    2962:	e8 a9 03 01 00       	call   12d10 <printf>
    2967:	c7 44 24 04 f5 ff ff 	movl   $0xfffffff5,0x4(%esp)
    296e:	ff 
    296f:	89 3c 24             	mov    %edi,(%esp)
    2972:	e8 29 82 01 00       	call   1aba0 <async_answer_0>
    2977:	8b 55 b4             	mov    -0x4c(%ebp),%edx
    297a:	e9 69 fe ff ff       	jmp    27e8 <driver_connection_gen.isra.8+0x108>
    297f:	90                   	nop
    2980:	c7 44 24 04 00 00 00 	movl   $0x0,0x4(%esp)
    2987:	00 
    2988:	89 34 24             	mov    %esi,(%esp)
    298b:	e8 10 82 01 00       	call   1aba0 <async_answer_0>
    2990:	8d 55 c4             	lea    -0x3c(%ebp),%edx
    2993:	89 55 b4             	mov    %edx,-0x4c(%ebp)
    2996:	89 7d ac             	mov    %edi,-0x54(%ebp)
    2999:	e9 4a fe ff ff       	jmp    27e8 <driver_connection_gen.isra.8+0x108>
    299e:	c7 44 24 08 1e 03 00 	movl   $0x31e,0x8(%esp)
    29a5:	00 
    29a6:	c7 44 24 04 5c 76 02 	movl   $0x2765c,0x4(%esp)
    29ad:	00 
    29ae:	c7 04 24 6d 76 02 00 	movl   $0x2766d,(%esp)
    29b5:	e8 06 ff 01 00       	call   228c0 <assert_abort>
    29ba:	c7 44 24 08 75 00 00 	movl   $0x75,0x8(%esp)
    29c1:	00 
    29c2:	c7 44 24 04 5c 76 02 	movl   $0x2765c,0x4(%esp)
    29c9:	00 
    29ca:	c7 04 24 a4 77 02 00 	movl   $0x277a4,(%esp)
    29d1:	e8 ea fe 01 00       	call   228c0 <assert_abort>
    29d6:	c7 44 24 08 a6 01 00 	movl   $0x1a6,0x8(%esp)
    29dd:	00 
    29de:	c7 44 24 04 5c 76 02 	movl   $0x2765c,0x4(%esp)
    29e5:	00 
    29e6:	c7 04 24 85 76 02 00 	movl   $0x27685,(%esp)
    29ed:	e8 ce fe 01 00       	call   228c0 <assert_abort>
    29f2:	8d b4 26 00 00 00 00 	lea    0x0(%esi,%eiz,1),%esi
    29f9:	8d bc 27 00 00 00 00 	lea    0x0(%edi,%eiz,1),%edi

00002a00 <driver_connection>:
    2a00:	55                   	push   %ebp
    2a01:	89 e5                	mov    %esp,%ebp
    2a03:	57                   	push   %edi
    2a04:	56                   	push   %esi
    2a05:	53                   	push   %ebx
    2a06:	83 ec 6c             	sub    $0x6c,%esp
    2a09:	8b 45 08             	mov    0x8(%ebp),%eax
    2a0c:	85 c0                	test   %eax,%eax
    2a0e:	75 58                	jne    2a68 <driver_connection+0x68>
    2a10:	c7 44 24 04 00 00 00 	movl   $0x0,0x4(%esp)
    2a17:	00 
    2a18:	89 04 24             	mov    %eax,(%esp)
    2a1b:	e8 80 81 01 00       	call   1aba0 <async_answer_0>
    2a20:	8d 45 c4             	lea    -0x3c(%ebp),%eax
    2a23:	c7 44 24 04 00 00 00 	movl   $0x0,0x4(%esp)
    2a2a:	00 
    2a2b:	89 04 24             	mov    %eax,(%esp)
    2a2e:	e8 3d 6b 01 00       	call   19570 <async_get_call_timeout>
    2a33:	89 c6                	mov    %eax,%esi
    2a35:	8b 45 c4             	mov    -0x3c(%ebp),%eax
    2a38:	85 c0                	test   %eax,%eax
    2a3a:	74 3e                	je     2a7a <driver_connection+0x7a>
    2a3c:	2d 00 04 00 00       	sub    $0x400,%eax
    2a41:	83 f8 04             	cmp    $0x4,%eax
    2a44:	76 12                	jbe    2a58 <driver_connection+0x58>
    2a46:	c7 44 24 04 f5 ff ff 	movl   $0xfffffff5,0x4(%esp)
    2a4d:	ff 
    2a4e:	89 34 24             	mov    %esi,(%esp)
    2a51:	e8 4a 81 01 00       	call   1aba0 <async_answer_0>
    2a56:	eb c8                	jmp    2a20 <driver_connection+0x20>
    2a58:	8b 7d c8             	mov    -0x38(%ebp),%edi
    2a5b:	ff 24 85 54 79 02 00 	jmp    *0x27954(,%eax,4)
    2a62:	8d b6 00 00 00 00    	lea    0x0(%esi),%esi
    2a68:	8b 4d 0c             	mov    0xc(%ebp),%ecx
    2a6b:	8b 51 04             	mov    0x4(%ecx),%edx
    2a6e:	83 fa 02             	cmp    $0x2,%edx
    2a71:	75 15                	jne    2a88 <driver_connection+0x88>
    2a73:	89 ca                	mov    %ecx,%edx
    2a75:	e8 66 fc ff ff       	call   26e0 <driver_connection_gen.isra.8>
    2a7a:	83 c4 6c             	add    $0x6c,%esp
    2a7d:	5b                   	pop    %ebx
    2a7e:	5e                   	pop    %esi
    2a7f:	5f                   	pop    %edi
    2a80:	5d                   	pop    %ebp
    2a81:	c3                   	ret    
    2a82:	8d b6 00 00 00 00    	lea    0x0(%esi),%esi
    2a88:	83 fa 03             	cmp    $0x3,%edx
    2a8b:	0f 84 2f 03 00 00    	je     2dc0 <driver_connection+0x3c0>
    2a91:	4a                   	dec    %edx
    2a92:	0f 84 78 ff ff ff    	je     2a10 <driver_connection+0x10>
    2a98:	c7 44 24 04 ff ff ff 	movl   $0xffffffff,0x4(%esp)
    2a9f:	ff 
    2aa0:	89 04 24             	mov    %eax,(%esp)
    2aa3:	e8 f8 80 01 00       	call   1aba0 <async_answer_0>
    2aa8:	83 c4 6c             	add    $0x6c,%esp
    2aab:	5b                   	pop    %ebx
    2aac:	5e                   	pop    %esi
    2aad:	5f                   	pop    %edi
    2aae:	5d                   	pop    %ebp
    2aaf:	c3                   	ret    
    2ab0:	c7 04 24 60 b8 02 00 	movl   $0x2b860,(%esp)
    2ab7:	e8 c4 c2 00 00       	call   ed80 <fibril_mutex_lock>
    2abc:	c7 04 24 60 b8 02 00 	movl   $0x2b860,(%esp)
    2ac3:	e8 e8 c4 00 00       	call   efb0 <fibril_mutex_is_locked>
    2ac8:	84 c0                	test   %al,%al
    2aca:	0f 84 a0 04 00 00    	je     2f70 <driver_connection+0x570>
    2ad0:	a1 74 b8 02 00       	mov    0x2b874,%eax
    2ad5:	3d 70 b8 02 00       	cmp    $0x2b870,%eax
    2ada:	75 1a                	jne    2af6 <driver_connection+0xf6>
    2adc:	e9 87 03 00 00       	jmp    2e68 <driver_connection+0x468>
    2ae1:	8d b4 26 00 00 00 00 	lea    0x0(%esi,%eiz,1),%esi
    2ae8:	8b 40 04             	mov    0x4(%eax),%eax
    2aeb:	3d 70 b8 02 00       	cmp    $0x2b870,%eax
    2af0:	0f 84 72 03 00 00    	je     2e68 <driver_connection+0x468>
    2af6:	8d 58 d4             	lea    -0x2c(%eax),%ebx
    2af9:	3b 7b 04             	cmp    0x4(%ebx),%edi
    2afc:	75 ea                	jne    2ae8 <driver_connection+0xe8>
    2afe:	8b 43 0c             	mov    0xc(%ebx),%eax
    2b01:	f0 ff 40 04          	lock incl 0x4(%eax)
    2b05:	8d 7b 08             	lea    0x8(%ebx),%edi
    2b08:	f0 ff 43 08          	lock incl 0x8(%ebx)
    2b0c:	c7 04 24 60 b8 02 00 	movl   $0x2b860,(%esp)
    2b13:	e8 88 c3 00 00       	call   eea0 <fibril_mutex_unlock>
    2b18:	a1 dc bc 02 00       	mov    0x2bcdc,%eax
    2b1d:	8b 40 04             	mov    0x4(%eax),%eax
    2b20:	8b 40 0c             	mov    0xc(%eax),%eax
    2b23:	85 c0                	test   %eax,%eax
    2b25:	0f 84 e5 02 00 00    	je     2e10 <driver_connection+0x410>
    2b2b:	89 1c 24             	mov    %ebx,(%esp)
    2b2e:	ff d0                	call   *%eax
    2b30:	89 45 b0             	mov    %eax,-0x50(%ebp)
    2b33:	8b 4b 0c             	mov    0xc(%ebx),%ecx
    2b36:	83 c8 ff             	or     $0xffffffff,%eax
    2b39:	89 4d b4             	mov    %ecx,-0x4c(%ebp)
    2b3c:	f0 0f c1 07          	lock xadd %eax,(%edi)
    2b40:	48                   	dec    %eax
    2b41:	0f 84 81 03 00 00    	je     2ec8 <driver_connection+0x4c8>
    2b47:	83 c8 ff             	or     $0xffffffff,%eax
    2b4a:	8b 55 b4             	mov    -0x4c(%ebp),%edx
    2b4d:	f0 0f c1 42 04       	lock xadd %eax,0x4(%edx)
    2b52:	48                   	dec    %eax
    2b53:	0f 84 37 03 00 00    	je     2e90 <driver_connection+0x490>
    2b59:	8b 45 b0             	mov    -0x50(%ebp),%eax
    2b5c:	e9 88 00 00 00       	jmp    2be9 <driver_connection+0x1e9>
    2b61:	8d b4 26 00 00 00 00 	lea    0x0(%esi,%eiz,1),%esi
    2b68:	c7 04 24 78 b8 02 00 	movl   $0x2b878,(%esp)
    2b6f:	e8 0c c2 00 00       	call   ed80 <fibril_mutex_lock>
    2b74:	c7 04 24 78 b8 02 00 	movl   $0x2b878,(%esp)
    2b7b:	e8 30 c4 00 00       	call   efb0 <fibril_mutex_is_locked>
    2b80:	84 c0                	test   %al,%al
    2b82:	0f 84 04 04 00 00    	je     2f8c <driver_connection+0x58c>
    2b88:	a1 8c b8 02 00       	mov    0x2b88c,%eax
    2b8d:	3d 88 b8 02 00       	cmp    $0x2b888,%eax
    2b92:	75 1a                	jne    2bae <driver_connection+0x1ae>
    2b94:	e9 a7 02 00 00       	jmp    2e40 <driver_connection+0x440>
    2b99:	8d b4 26 00 00 00 00 	lea    0x0(%esi,%eiz,1),%esi
    2ba0:	8b 40 04             	mov    0x4(%eax),%eax
    2ba3:	3d 88 b8 02 00       	cmp    $0x2b888,%eax
    2ba8:	0f 84 92 02 00 00    	je     2e40 <driver_connection+0x440>
    2bae:	8d 58 ec             	lea    -0x14(%eax),%ebx
    2bb1:	3b 78 ec             	cmp    -0x14(%eax),%edi
    2bb4:	75 ea                	jne    2ba0 <driver_connection+0x1a0>
    2bb6:	8d 7b 04             	lea    0x4(%ebx),%edi
    2bb9:	f0 ff 43 04          	lock incl 0x4(%ebx)
    2bbd:	c7 04 24 78 b8 02 00 	movl   $0x2b878,(%esp)
    2bc4:	e8 d7 c2 00 00       	call   eea0 <fibril_mutex_unlock>
    2bc9:	a1 dc bc 02 00       	mov    0x2bcdc,%eax
    2bce:	8b 40 04             	mov    0x4(%eax),%eax
    2bd1:	8b 40 08             	mov    0x8(%eax),%eax
    2bd4:	85 c0                	test   %eax,%eax
    2bd6:	0f 84 58 01 00 00    	je     2d34 <driver_connection+0x334>
    2bdc:	89 1c 24             	mov    %ebx,(%esp)
    2bdf:	ff d0                	call   *%eax
    2be1:	85 c0                	test   %eax,%eax
    2be3:	0f 84 e7 01 00 00    	je     2dd0 <driver_connection+0x3d0>
    2be9:	89 44 24 04          	mov    %eax,0x4(%esp)
    2bed:	89 34 24             	mov    %esi,(%esp)
    2bf0:	e8 ab 7f 01 00       	call   1aba0 <async_answer_0>
    2bf5:	e9 26 fe ff ff       	jmp    2a20 <driver_connection+0x20>
    2bfa:	8d b6 00 00 00 00    	lea    0x0(%esi),%esi
    2c00:	c7 44 24 04 1c 00 00 	movl   $0x1c,0x4(%esp)
    2c07:	00 
    2c08:	c7 04 24 01 00 00 00 	movl   $0x1,(%esp)
    2c0f:	e8 ec 53 01 00       	call   18000 <calloc>
    2c14:	89 c3                	mov    %eax,%ebx
    2c16:	f0 ff 40 04          	lock incl 0x4(%eax)
    2c1a:	8d 55 c0             	lea    -0x40(%ebp),%edx
    2c1d:	89 38                	mov    %edi,(%eax)
    2c1f:	89 14 24             	mov    %edx,(%esp)
    2c22:	c7 44 24 14 00 00 00 	movl   $0x0,0x14(%esp)
    2c29:	00 
    2c2a:	c7 44 24 10 00 00 00 	movl   $0x0,0x10(%esp)
    2c31:	00 
    2c32:	c7 44 24 0c 00 00 00 	movl   $0x0,0xc(%esp)
    2c39:	00 
    2c3a:	c7 44 24 08 00 00 00 	movl   $0x0,0x8(%esp)
    2c41:	00 
    2c42:	c7 44 24 04 01 00 00 	movl   $0x1,0x4(%esp)
    2c49:	00 
    2c4a:	c7 45 c0 00 00 00 00 	movl   $0x0,-0x40(%ebp)
    2c51:	e8 6a 9a 01 00       	call   1c6c0 <async_data_write_accept>
    2c56:	8b 45 c0             	mov    -0x40(%ebp),%eax
    2c59:	89 43 0c             	mov    %eax,0xc(%ebx)
    2c5c:	a1 dc bc 02 00       	mov    0x2bcdc,%eax
    2c61:	8b 40 04             	mov    0x4(%eax),%eax
    2c64:	89 1c 24             	mov    %ebx,(%esp)
    2c67:	ff 10                	call   *(%eax)
    2c69:	89 c7                	mov    %eax,%edi
    2c6b:	85 c0                	test   %eax,%eax
    2c6d:	0f 85 ad 01 00 00    	jne    2e20 <driver_connection+0x420>
    2c73:	c7 04 24 78 b8 02 00 	movl   $0x2b878,(%esp)
    2c7a:	e8 01 c1 00 00       	call   ed80 <fibril_mutex_lock>
    2c7f:	8b 15 88 b8 02 00    	mov    0x2b888,%edx
    2c85:	8d 43 14             	lea    0x14(%ebx),%eax
    2c88:	c7 43 18 88 b8 02 00 	movl   $0x2b888,0x18(%ebx)
    2c8f:	89 53 14             	mov    %edx,0x14(%ebx)
    2c92:	89 42 04             	mov    %eax,0x4(%edx)
    2c95:	c7 04 24 78 b8 02 00 	movl   $0x2b878,(%esp)
    2c9c:	a3 88 b8 02 00       	mov    %eax,0x2b888
    2ca1:	e8 fa c1 00 00       	call   eea0 <fibril_mutex_unlock>
    2ca6:	c7 44 24 04 00 00 00 	movl   $0x0,0x4(%esp)
    2cad:	00 
    2cae:	89 34 24             	mov    %esi,(%esp)
    2cb1:	e8 ea 7e 01 00       	call   1aba0 <async_answer_0>
    2cb6:	e9 65 fd ff ff       	jmp    2a20 <driver_connection+0x20>
    2cbb:	90                   	nop
    2cbc:	8d 74 26 00          	lea    0x0(%esi,%eiz,1),%esi
    2cc0:	c7 04 24 78 b8 02 00 	movl   $0x2b878,(%esp)
    2cc7:	e8 b4 c0 00 00       	call   ed80 <fibril_mutex_lock>
    2ccc:	c7 04 24 78 b8 02 00 	movl   $0x2b878,(%esp)
    2cd3:	e8 d8 c2 00 00       	call   efb0 <fibril_mutex_is_locked>
    2cd8:	84 c0                	test   %al,%al
    2cda:	0f 84 ac 02 00 00    	je     2f8c <driver_connection+0x58c>
    2ce0:	a1 8c b8 02 00       	mov    0x2b88c,%eax
    2ce5:	3d 88 b8 02 00       	cmp    $0x2b888,%eax
    2cea:	75 1a                	jne    2d06 <driver_connection+0x306>
    2cec:	e9 4f 01 00 00       	jmp    2e40 <driver_connection+0x440>
    2cf1:	8d b4 26 00 00 00 00 	lea    0x0(%esi,%eiz,1),%esi
    2cf8:	8b 40 04             	mov    0x4(%eax),%eax
    2cfb:	3d 88 b8 02 00       	cmp    $0x2b888,%eax
    2d00:	0f 84 3a 01 00 00    	je     2e40 <driver_connection+0x440>
    2d06:	8d 58 ec             	lea    -0x14(%eax),%ebx
    2d09:	3b 78 ec             	cmp    -0x14(%eax),%edi
    2d0c:	75 ea                	jne    2cf8 <driver_connection+0x2f8>
    2d0e:	8d 7b 04             	lea    0x4(%ebx),%edi
    2d11:	f0 ff 43 04          	lock incl 0x4(%ebx)
    2d15:	c7 04 24 78 b8 02 00 	movl   $0x2b878,(%esp)
    2d1c:	e8 7f c1 00 00       	call   eea0 <fibril_mutex_unlock>
    2d21:	a1 dc bc 02 00       	mov    0x2bcdc,%eax
    2d26:	8b 40 04             	mov    0x4(%eax),%eax
    2d29:	8b 40 04             	mov    0x4(%eax),%eax
    2d2c:	85 c0                	test   %eax,%eax
    2d2e:	0f 85 a8 fe ff ff    	jne    2bdc <driver_connection+0x1dc>
    2d34:	b8 f5 ff ff ff       	mov    $0xfffffff5,%eax
    2d39:	e9 ab fe ff ff       	jmp    2be9 <driver_connection+0x1e9>
    2d3e:	66 90                	xchg   %ax,%ax
    2d40:	c7 04 24 60 b8 02 00 	movl   $0x2b860,(%esp)
    2d47:	e8 34 c0 00 00       	call   ed80 <fibril_mutex_lock>
    2d4c:	c7 04 24 60 b8 02 00 	movl   $0x2b860,(%esp)
    2d53:	e8 58 c2 00 00       	call   efb0 <fibril_mutex_is_locked>
    2d58:	84 c0                	test   %al,%al
    2d5a:	0f 84 10 02 00 00    	je     2f70 <driver_connection+0x570>
    2d60:	a1 74 b8 02 00       	mov    0x2b874,%eax
    2d65:	3d 70 b8 02 00       	cmp    $0x2b870,%eax
    2d6a:	75 1a                	jne    2d86 <driver_connection+0x386>
    2d6c:	e9 f7 00 00 00       	jmp    2e68 <driver_connection+0x468>
    2d71:	8d b4 26 00 00 00 00 	lea    0x0(%esi,%eiz,1),%esi
    2d78:	8b 40 04             	mov    0x4(%eax),%eax
    2d7b:	3d 70 b8 02 00       	cmp    $0x2b870,%eax
    2d80:	0f 84 e2 00 00 00    	je     2e68 <driver_connection+0x468>
    2d86:	8d 58 d4             	lea    -0x2c(%eax),%ebx
    2d89:	3b 7b 04             	cmp    0x4(%ebx),%edi
    2d8c:	75 ea                	jne    2d78 <driver_connection+0x378>
    2d8e:	8b 43 0c             	mov    0xc(%ebx),%eax
    2d91:	f0 ff 40 04          	lock incl 0x4(%eax)
    2d95:	f0 ff 43 08          	lock incl 0x8(%ebx)
    2d99:	c7 04 24 60 b8 02 00 	movl   $0x2b860,(%esp)
    2da0:	e8 fb c0 00 00       	call   eea0 <fibril_mutex_unlock>
    2da5:	a1 dc bc 02 00       	mov    0x2bcdc,%eax
    2daa:	8b 40 04             	mov    0x4(%eax),%eax
    2dad:	8b 40 10             	mov    0x10(%eax),%eax
    2db0:	85 c0                	test   %eax,%eax
    2db2:	74 80                	je     2d34 <driver_connection+0x334>
    2db4:	89 1c 24             	mov    %ebx,(%esp)
    2db7:	ff d0                	call   *%eax
    2db9:	e9 2b fe ff ff       	jmp    2be9 <driver_connection+0x1e9>
    2dbe:	66 90                	xchg   %ax,%ax
    2dc0:	8b 55 0c             	mov    0xc(%ebp),%edx
    2dc3:	e8 18 f9 ff ff       	call   26e0 <driver_connection_gen.isra.8>
    2dc8:	83 c4 6c             	add    $0x6c,%esp
    2dcb:	5b                   	pop    %ebx
    2dcc:	5e                   	pop    %esi
    2dcd:	5f                   	pop    %edi
    2dce:	5d                   	pop    %ebp
    2dcf:	c3                   	ret    
    2dd0:	83 ca ff             	or     $0xffffffff,%edx
    2dd3:	f0 0f c1 17          	lock xadd %edx,(%edi)
    2dd7:	4a                   	dec    %edx
    2dd8:	0f 85 0b fe ff ff    	jne    2be9 <driver_connection+0x1e9>
    2dde:	8b 43 08             	mov    0x8(%ebx),%eax
    2de1:	85 c0                	test   %eax,%eax
    2de3:	74 08                	je     2ded <driver_connection+0x3ed>
    2de5:	89 04 24             	mov    %eax,(%esp)
    2de8:	e8 b3 86 01 00       	call   1b4a0 <async_hangup>
    2ded:	8b 43 10             	mov    0x10(%ebx),%eax
    2df0:	85 c0                	test   %eax,%eax
    2df2:	74 08                	je     2dfc <driver_connection+0x3fc>
    2df4:	89 04 24             	mov    %eax,(%esp)
    2df7:	e8 74 53 01 00       	call   18170 <free>
    2dfc:	89 1c 24             	mov    %ebx,(%esp)
    2dff:	e8 6c 53 01 00       	call   18170 <free>
    2e04:	31 c0                	xor    %eax,%eax
    2e06:	e9 de fd ff ff       	jmp    2be9 <driver_connection+0x1e9>
    2e0b:	90                   	nop
    2e0c:	8d 74 26 00          	lea    0x0(%esi,%eiz,1),%esi
    2e10:	c7 45 b0 f5 ff ff ff 	movl   $0xfffffff5,-0x50(%ebp)
    2e17:	e9 17 fd ff ff       	jmp    2b33 <driver_connection+0x133>
    2e1c:	8d 74 26 00          	lea    0x0(%esi,%eiz,1),%esi
    2e20:	83 c8 ff             	or     $0xffffffff,%eax
    2e23:	f0 0f c1 43 04       	lock xadd %eax,0x4(%ebx)
    2e28:	48                   	dec    %eax
    2e29:	0f 84 16 01 00 00    	je     2f45 <driver_connection+0x545>
    2e2f:	89 7c 24 04          	mov    %edi,0x4(%esp)
    2e33:	89 34 24             	mov    %esi,(%esp)
    2e36:	e8 65 7d 01 00       	call   1aba0 <async_answer_0>
    2e3b:	e9 e0 fb ff ff       	jmp    2a20 <driver_connection+0x20>
    2e40:	c7 04 24 78 b8 02 00 	movl   $0x2b878,(%esp)
    2e47:	e8 54 c0 00 00       	call   eea0 <fibril_mutex_unlock>
    2e4c:	c7 44 24 04 ff ff ff 	movl   $0xffffffff,0x4(%esp)
    2e53:	ff 
    2e54:	89 34 24             	mov    %esi,(%esp)
    2e57:	e8 44 7d 01 00       	call   1aba0 <async_answer_0>
    2e5c:	e9 bf fb ff ff       	jmp    2a20 <driver_connection+0x20>
    2e61:	8d b4 26 00 00 00 00 	lea    0x0(%esi,%eiz,1),%esi
    2e68:	c7 04 24 60 b8 02 00 	movl   $0x2b860,(%esp)
    2e6f:	e8 2c c0 00 00       	call   eea0 <fibril_mutex_unlock>
    2e74:	c7 44 24 04 ff ff ff 	movl   $0xffffffff,0x4(%esp)
    2e7b:	ff 
    2e7c:	89 34 24             	mov    %esi,(%esp)
    2e7f:	e8 1c 7d 01 00       	call   1aba0 <async_answer_0>
    2e84:	e9 97 fb ff ff       	jmp    2a20 <driver_connection+0x20>
    2e89:	8d b4 26 00 00 00 00 	lea    0x0(%esi,%eiz,1),%esi
    2e90:	8b 42 08             	mov    0x8(%edx),%eax
    2e93:	85 c0                	test   %eax,%eax
    2e95:	74 08                	je     2e9f <driver_connection+0x49f>
    2e97:	89 04 24             	mov    %eax,(%esp)
    2e9a:	e8 01 86 01 00       	call   1b4a0 <async_hangup>
    2e9f:	8b 4d b4             	mov    -0x4c(%ebp),%ecx
    2ea2:	8b 41 10             	mov    0x10(%ecx),%eax
    2ea5:	85 c0                	test   %eax,%eax
    2ea7:	74 08                	je     2eb1 <driver_connection+0x4b1>
    2ea9:	89 04 24             	mov    %eax,(%esp)
    2eac:	e8 bf 52 01 00       	call   18170 <free>
    2eb1:	8b 55 b4             	mov    -0x4c(%ebp),%edx
    2eb4:	89 14 24             	mov    %edx,(%esp)
    2eb7:	e8 b4 52 01 00       	call   18170 <free>
    2ebc:	e9 98 fc ff ff       	jmp    2b59 <driver_connection+0x159>
    2ec1:	8d b4 26 00 00 00 00 	lea    0x0(%esi,%eiz,1),%esi
    2ec8:	8d 7b 18             	lea    0x18(%ebx),%edi
    2ecb:	8b 43 1c             	mov    0x1c(%ebx),%eax
    2ece:	39 f8                	cmp    %edi,%eax
    2ed0:	74 48                	je     2f1a <driver_connection+0x51a>
    2ed2:	89 5d ac             	mov    %ebx,-0x54(%ebp)
    2ed5:	89 c3                	mov    %eax,%ebx
    2ed7:	90                   	nop
    2ed8:	8b 0b                	mov    (%ebx),%ecx
    2eda:	85 c9                	test   %ecx,%ecx
    2edc:	74 0e                	je     2eec <driver_connection+0x4ec>
    2ede:	8b 53 04             	mov    0x4(%ebx),%edx
    2ee1:	85 d2                	test   %edx,%edx
    2ee3:	74 07                	je     2eec <driver_connection+0x4ec>
    2ee5:	89 0a                	mov    %ecx,(%edx)
    2ee7:	8b 0b                	mov    (%ebx),%ecx
    2ee9:	89 51 04             	mov    %edx,0x4(%ecx)
    2eec:	8b 53 08             	mov    0x8(%ebx),%edx
    2eef:	c7 03 00 00 00 00    	movl   $0x0,(%ebx)
    2ef5:	c7 43 04 00 00 00 00 	movl   $0x0,0x4(%ebx)
    2efc:	85 d2                	test   %edx,%edx
    2efe:	74 08                	je     2f08 <driver_connection+0x508>
    2f00:	89 14 24             	mov    %edx,(%esp)
    2f03:	e8 68 52 01 00       	call   18170 <free>
    2f08:	89 1c 24             	mov    %ebx,(%esp)
    2f0b:	e8 60 52 01 00       	call   18170 <free>
    2f10:	8b 5f 04             	mov    0x4(%edi),%ebx
    2f13:	39 fb                	cmp    %edi,%ebx
    2f15:	75 c1                	jne    2ed8 <driver_connection+0x4d8>
    2f17:	8b 5d ac             	mov    -0x54(%ebp),%ebx
    2f1a:	8b 43 20             	mov    0x20(%ebx),%eax
    2f1d:	85 c0                	test   %eax,%eax
    2f1f:	74 08                	je     2f29 <driver_connection+0x529>
    2f21:	89 04 24             	mov    %eax,(%esp)
    2f24:	e8 47 52 01 00       	call   18170 <free>
    2f29:	8b 43 14             	mov    0x14(%ebx),%eax
    2f2c:	85 c0                	test   %eax,%eax
    2f2e:	74 08                	je     2f38 <driver_connection+0x538>
    2f30:	89 04 24             	mov    %eax,(%esp)
    2f33:	e8 38 52 01 00       	call   18170 <free>
    2f38:	89 1c 24             	mov    %ebx,(%esp)
    2f3b:	e8 30 52 01 00       	call   18170 <free>
    2f40:	e9 02 fc ff ff       	jmp    2b47 <driver_connection+0x147>
    2f45:	8b 43 08             	mov    0x8(%ebx),%eax
    2f48:	85 c0                	test   %eax,%eax
    2f4a:	74 08                	je     2f54 <driver_connection+0x554>
    2f4c:	89 04 24             	mov    %eax,(%esp)
    2f4f:	e8 4c 85 01 00       	call   1b4a0 <async_hangup>
    2f54:	8b 43 10             	mov    0x10(%ebx),%eax
    2f57:	85 c0                	test   %eax,%eax
    2f59:	74 08                	je     2f63 <driver_connection+0x563>
    2f5b:	89 04 24             	mov    %eax,(%esp)
    2f5e:	e8 0d 52 01 00       	call   18170 <free>
    2f63:	89 1c 24             	mov    %ebx,(%esp)
    2f66:	e8 05 52 01 00       	call   18170 <free>
    2f6b:	e9 bf fe ff ff       	jmp    2e2f <driver_connection+0x42f>
    2f70:	c7 44 24 08 75 00 00 	movl   $0x75,0x8(%esp)
    2f77:	00 
    2f78:	c7 44 24 04 5c 76 02 	movl   $0x2765c,0x4(%esp)
    2f7f:	00 
    2f80:	c7 04 24 a4 77 02 00 	movl   $0x277a4,(%esp)
    2f87:	e8 34 f9 01 00       	call   228c0 <assert_abort>
    2f8c:	c7 44 24 08 66 00 00 	movl   $0x66,0x8(%esp)
    2f93:	00 
    2f94:	c7 44 24 04 5c 76 02 	movl   $0x2765c,0x4(%esp)
    2f9b:	00 
    2f9c:	c7 04 24 f0 78 02 00 	movl   $0x278f0,(%esp)
    2fa3:	e8 18 f9 01 00       	call   228c0 <assert_abort>
    2fa8:	90                   	nop
    2fa9:	8d b4 26 00 00 00 00 	lea    0x0(%esi,%eiz,1),%esi

00002fb0 <ddf_dev_data_alloc>:
    2fb0:	55                   	push   %ebp
    2fb1:	89 e5                	mov    %esp,%ebp
    2fb3:	53                   	push   %ebx
    2fb4:	83 ec 14             	sub    $0x14,%esp
    2fb7:	8b 5d 08             	mov    0x8(%ebp),%ebx
    2fba:	8b 43 10             	mov    0x10(%ebx),%eax
    2fbd:	85 c0                	test   %eax,%eax
    2fbf:	75 20                	jne    2fe1 <ddf_dev_data_alloc+0x31>
    2fc1:	8b 45 0c             	mov    0xc(%ebp),%eax
    2fc4:	c7 04 24 01 00 00 00 	movl   $0x1,(%esp)
    2fcb:	89 44 24 04          	mov    %eax,0x4(%esp)
    2fcf:	e8 2c 50 01 00       	call   18000 <calloc>
    2fd4:	85 c0                	test   %eax,%eax
    2fd6:	74 03                	je     2fdb <ddf_dev_data_alloc+0x2b>
    2fd8:	89 43 10             	mov    %eax,0x10(%ebx)
    2fdb:	83 c4 14             	add    $0x14,%esp
    2fde:	5b                   	pop    %ebx
    2fdf:	5d                   	pop    %ebp
    2fe0:	c3                   	ret    
    2fe1:	c7 44 24 08 52 02 00 	movl   $0x252,0x8(%esp)
    2fe8:	00 
    2fe9:	c7 44 24 04 5c 76 02 	movl   $0x2765c,0x4(%esp)
    2ff0:	00 
    2ff1:	c7 04 24 97 76 02 00 	movl   $0x27697,(%esp)
    2ff8:	e8 c3 f8 01 00       	call   228c0 <assert_abort>
    2ffd:	8d 76 00             	lea    0x0(%esi),%esi

00003000 <ddf_fun_data_implant>:
    3000:	55                   	push   %ebp
    3001:	89 e5                	mov    %esp,%ebp
    3003:	83 ec 18             	sub    $0x18,%esp
    3006:	8b 45 08             	mov    0x8(%ebp),%eax
    3009:	8b 50 20             	mov    0x20(%eax),%edx
    300c:	85 d2                	test   %edx,%edx
    300e:	75 08                	jne    3018 <ddf_fun_data_implant+0x18>
    3010:	8b 55 0c             	mov    0xc(%ebp),%edx
    3013:	89 50 20             	mov    %edx,0x20(%eax)
    3016:	c9                   	leave  
    3017:	c3                   	ret    
    3018:	c7 44 24 08 63 02 00 	movl   $0x263,0x8(%esp)
    301f:	00 
    3020:	c7 44 24 04 5c 76 02 	movl   $0x2765c,0x4(%esp)
    3027:	00 
    3028:	c7 04 24 b0 76 02 00 	movl   $0x276b0,(%esp)
    302f:	e8 8c f8 01 00       	call   228c0 <assert_abort>
    3034:	8d b6 00 00 00 00    	lea    0x0(%esi),%esi
    303a:	8d bf 00 00 00 00    	lea    0x0(%edi),%edi

00003040 <ddf_dev_data_get>:
    3040:	55                   	push   %ebp
    3041:	89 e5                	mov    %esp,%ebp
    3043:	8b 45 08             	mov    0x8(%ebp),%eax
    3046:	5d                   	pop    %ebp
    3047:	8b 40 10             	mov    0x10(%eax),%eax
    304a:	c3                   	ret    
    304b:	90                   	nop
    304c:	8d 74 26 00          	lea    0x0(%esi,%eiz,1),%esi

00003050 <ddf_dev_get_handle>:
    3050:	55                   	push   %ebp
    3051:	89 e5                	mov    %esp,%ebp
    3053:	8b 45 08             	mov    0x8(%ebp),%eax
    3056:	5d                   	pop    %ebp
    3057:	8b 00                	mov    (%eax),%eax
    3059:	c3                   	ret    
    305a:	8d b6 00 00 00 00    	lea    0x0(%esi),%esi

00003060 <ddf_dev_get_name>:
    3060:	55                   	push   %ebp
    3061:	89 e5                	mov    %esp,%ebp
    3063:	8b 45 08             	mov    0x8(%ebp),%eax
    3066:	5d                   	pop    %ebp
    3067:	8b 40 0c             	mov    0xc(%eax),%eax
    306a:	c3                   	ret    
    306b:	90                   	nop
    306c:	8d 74 26 00          	lea    0x0(%esi,%eiz,1),%esi

00003070 <ddf_dev_parent_sess_create>:
    3070:	55                   	push   %ebp
    3071:	89 e5                	mov    %esp,%ebp
    3073:	53                   	push   %ebx
    3074:	83 ec 14             	sub    $0x14,%esp
    3077:	8b 5d 08             	mov    0x8(%ebp),%ebx
    307a:	8b 4b 08             	mov    0x8(%ebx),%ecx
    307d:	85 c9                	test   %ecx,%ecx
    307f:	75 22                	jne    30a3 <ddf_dev_parent_sess_create+0x33>
    3081:	c7 44 24 08 01 00 00 	movl   $0x1,0x8(%esp)
    3088:	00 
    3089:	8b 03                	mov    (%ebx),%eax
    308b:	89 44 24 04          	mov    %eax,0x4(%esp)
    308f:	8b 45 0c             	mov    0xc(%ebp),%eax
    3092:	89 04 24             	mov    %eax,(%esp)
    3095:	e8 f6 63 00 00       	call   9490 <devman_parent_device_connect>
    309a:	89 43 08             	mov    %eax,0x8(%ebx)
    309d:	83 c4 14             	add    $0x14,%esp
    30a0:	5b                   	pop    %ebx
    30a1:	5d                   	pop    %ebp
    30a2:	c3                   	ret    
    30a3:	c7 44 24 08 87 02 00 	movl   $0x287,0x8(%esp)
    30aa:	00 
    30ab:	c7 44 24 04 5c 76 02 	movl   $0x2765c,0x4(%esp)
    30b2:	00 
    30b3:	c7 04 24 c9 76 02 00 	movl   $0x276c9,(%esp)
    30ba:	e8 01 f8 01 00       	call   228c0 <assert_abort>
    30bf:	90                   	nop

000030c0 <ddf_dev_parent_sess_get>:
    30c0:	55                   	push   %ebp
    30c1:	89 e5                	mov    %esp,%ebp
    30c3:	8b 45 08             	mov    0x8(%ebp),%eax
    30c6:	5d                   	pop    %ebp
    30c7:	8b 40 08             	mov    0x8(%eax),%eax
    30ca:	c3                   	ret    
    30cb:	90                   	nop
    30cc:	8d 74 26 00          	lea    0x0(%esi,%eiz,1),%esi

000030d0 <ddf_fun_set_name>:
    30d0:	55                   	push   %ebp
    30d1:	89 e5                	mov    %esp,%ebp
    30d3:	53                   	push   %ebx
    30d4:	83 ec 14             	sub    $0x14,%esp
    30d7:	8b 5d 08             	mov    0x8(%ebp),%ebx
    30da:	8b 43 14             	mov    0x14(%ebx),%eax
    30dd:	85 c0                	test   %eax,%eax
    30df:	75 19                	jne    30fa <ddf_fun_set_name+0x2a>
    30e1:	8b 45 0c             	mov    0xc(%ebp),%eax
    30e4:	89 04 24             	mov    %eax,(%esp)
    30e7:	e8 64 a9 00 00       	call   da50 <str_dup>
    30ec:	83 f8 01             	cmp    $0x1,%eax
    30ef:	89 43 14             	mov    %eax,0x14(%ebx)
    30f2:	19 c0                	sbb    %eax,%eax
    30f4:	83 c4 14             	add    $0x14,%esp
    30f7:	5b                   	pop    %ebx
    30f8:	5d                   	pop    %ebp
    30f9:	c3                   	ret    
    30fa:	c7 44 24 08 a0 02 00 	movl   $0x2a0,0x8(%esp)
    3101:	00 
    3102:	c7 44 24 04 5c 76 02 	movl   $0x2765c,0x4(%esp)
    3109:	00 
    310a:	c7 04 24 e2 76 02 00 	movl   $0x276e2,(%esp)
    3111:	e8 aa f7 01 00       	call   228c0 <assert_abort>
    3116:	8d 76 00             	lea    0x0(%esi),%esi
    3119:	8d bc 27 00 00 00 00 	lea    0x0(%edi,%eiz,1),%edi

00003120 <ddf_fun_get_dev>:
    3120:	55                   	push   %ebp
    3121:	89 e5                	mov    %esp,%ebp
    3123:	8b 45 08             	mov    0x8(%ebp),%eax
    3126:	5d                   	pop    %ebp
    3127:	8b 40 0c             	mov    0xc(%eax),%eax
    312a:	c3                   	ret    
    312b:	90                   	nop
    312c:	8d 74 26 00          	lea    0x0(%esi,%eiz,1),%esi

00003130 <ddf_fun_get_handle>:
    3130:	55                   	push   %ebp
    3131:	89 e5                	mov    %esp,%ebp
    3133:	8b 45 08             	mov    0x8(%ebp),%eax
    3136:	5d                   	pop    %ebp
    3137:	8b 40 04             	mov    0x4(%eax),%eax
    313a:	c3                   	ret    
    313b:	90                   	nop
    313c:	8d 74 26 00          	lea    0x0(%esi,%eiz,1),%esi

00003140 <ddf_fun_create>:
    3140:	55                   	push   %ebp
    3141:	89 e5                	mov    %esp,%ebp
    3143:	57                   	push   %edi
    3144:	56                   	push   %esi
    3145:	53                   	push   %ebx
    3146:	83 ec 1c             	sub    $0x1c,%esp
    3149:	8b 75 08             	mov    0x8(%ebp),%esi
    314c:	c7 44 24 04 34 00 00 	movl   $0x34,0x4(%esp)
    3153:	00 
    3154:	c7 04 24 01 00 00 00 	movl   $0x1,(%esp)
    315b:	e8 a0 4e 01 00       	call   18000 <calloc>
    3160:	89 c3                	mov    %eax,%ebx
    3162:	85 c0                	test   %eax,%eax
    3164:	74 44                	je     31aa <ddf_fun_create+0x6a>
    3166:	8d 78 18             	lea    0x18(%eax),%edi
    3169:	c7 40 2c 00 00 00 00 	movl   $0x0,0x2c(%eax)
    3170:	89 78 18             	mov    %edi,0x18(%eax)
    3173:	89 78 1c             	mov    %edi,0x1c(%eax)
    3176:	c7 40 30 00 00 00 00 	movl   $0x0,0x30(%eax)
    317d:	89 70 0c             	mov    %esi,0xc(%eax)
    3180:	f0 ff 46 04          	lock incl 0x4(%esi)
    3184:	f0 ff 40 08          	lock incl 0x8(%eax)
    3188:	c6 00 00             	movb   $0x0,(%eax)
    318b:	8b 45 0c             	mov    0xc(%ebp),%eax
    318e:	89 43 10             	mov    %eax,0x10(%ebx)
    3191:	8b 45 10             	mov    0x10(%ebp),%eax
    3194:	85 c0                	test   %eax,%eax
    3196:	74 12                	je     31aa <ddf_fun_create+0x6a>
    3198:	8b 45 10             	mov    0x10(%ebp),%eax
    319b:	89 04 24             	mov    %eax,(%esp)
    319e:	e8 ad a8 00 00       	call   da50 <str_dup>
    31a3:	89 43 14             	mov    %eax,0x14(%ebx)
    31a6:	85 c0                	test   %eax,%eax
    31a8:	74 0a                	je     31b4 <ddf_fun_create+0x74>
    31aa:	83 c4 1c             	add    $0x1c,%esp
    31ad:	89 d8                	mov    %ebx,%eax
    31af:	5b                   	pop    %ebx
    31b0:	5e                   	pop    %esi
    31b1:	5f                   	pop    %edi
    31b2:	5d                   	pop    %ebp
    31b3:	c3                   	ret    
    31b4:	8b 73 1c             	mov    0x1c(%ebx),%esi
    31b7:	39 fe                	cmp    %edi,%esi
    31b9:	74 44                	je     31ff <ddf_fun_create+0xbf>
    31bb:	90                   	nop
    31bc:	8d 74 26 00          	lea    0x0(%esi,%eiz,1),%esi
    31c0:	8b 0e                	mov    (%esi),%ecx
    31c2:	85 c9                	test   %ecx,%ecx
    31c4:	74 0e                	je     31d4 <ddf_fun_create+0x94>
    31c6:	8b 46 04             	mov    0x4(%esi),%eax
    31c9:	85 c0                	test   %eax,%eax
    31cb:	74 07                	je     31d4 <ddf_fun_create+0x94>
    31cd:	89 08                	mov    %ecx,(%eax)
    31cf:	8b 0e                	mov    (%esi),%ecx
    31d1:	89 41 04             	mov    %eax,0x4(%ecx)
    31d4:	8b 46 08             	mov    0x8(%esi),%eax
    31d7:	c7 06 00 00 00 00    	movl   $0x0,(%esi)
    31dd:	c7 46 04 00 00 00 00 	movl   $0x0,0x4(%esi)
    31e4:	85 c0                	test   %eax,%eax
    31e6:	74 08                	je     31f0 <ddf_fun_create+0xb0>
    31e8:	89 04 24             	mov    %eax,(%esp)
    31eb:	e8 80 4f 01 00       	call   18170 <free>
    31f0:	89 34 24             	mov    %esi,(%esp)
    31f3:	e8 78 4f 01 00       	call   18170 <free>
    31f8:	8b 77 04             	mov    0x4(%edi),%esi
    31fb:	39 fe                	cmp    %edi,%esi
    31fd:	75 c1                	jne    31c0 <ddf_fun_create+0x80>
    31ff:	8b 43 20             	mov    0x20(%ebx),%eax
    3202:	85 c0                	test   %eax,%eax
    3204:	74 08                	je     320e <ddf_fun_create+0xce>
    3206:	89 04 24             	mov    %eax,(%esp)
    3209:	e8 62 4f 01 00       	call   18170 <free>
    320e:	8b 43 14             	mov    0x14(%ebx),%eax
    3211:	85 c0                	test   %eax,%eax
    3213:	74 08                	je     321d <ddf_fun_create+0xdd>
    3215:	89 04 24             	mov    %eax,(%esp)
    3218:	e8 53 4f 01 00       	call   18170 <free>
    321d:	89 1c 24             	mov    %ebx,(%esp)
    3220:	31 db                	xor    %ebx,%ebx
    3222:	e8 49 4f 01 00       	call   18170 <free>
    3227:	eb 81                	jmp    31aa <ddf_fun_create+0x6a>
    3229:	8d b4 26 00 00 00 00 	lea    0x0(%esi,%eiz,1),%esi

00003230 <ddf_fun_data_alloc>:
    3230:	55                   	push   %ebp
    3231:	89 e5                	mov    %esp,%ebp
    3233:	53                   	push   %ebx
    3234:	83 ec 14             	sub    $0x14,%esp
    3237:	8b 5d 08             	mov    0x8(%ebp),%ebx
    323a:	80 3b 00             	cmpb   $0x0,(%ebx)
    323d:	75 27                	jne    3266 <ddf_fun_data_alloc+0x36>
    323f:	8b 43 20             	mov    0x20(%ebx),%eax
    3242:	85 c0                	test   %eax,%eax
    3244:	75 3c                	jne    3282 <ddf_fun_data_alloc+0x52>
    3246:	8b 45 0c             	mov    0xc(%ebp),%eax
    3249:	c7 04 24 01 00 00 00 	movl   $0x1,(%esp)
    3250:	89 44 24 04          	mov    %eax,0x4(%esp)
    3254:	e8 a7 4d 01 00       	call   18000 <calloc>
    3259:	85 c0                	test   %eax,%eax
    325b:	74 03                	je     3260 <ddf_fun_data_alloc+0x30>
    325d:	89 43 20             	mov    %eax,0x20(%ebx)
    3260:	83 c4 14             	add    $0x14,%esp
    3263:	5b                   	pop    %ebx
    3264:	5d                   	pop    %ebp
    3265:	c3                   	ret    
    3266:	c7 44 24 08 ec 02 00 	movl   $0x2ec,0x8(%esp)
    326d:	00 
    326e:	c7 44 24 04 5c 76 02 	movl   $0x2765c,0x4(%esp)
    3275:	00 
    3276:	c7 04 24 f4 76 02 00 	movl   $0x276f4,(%esp)
    327d:	e8 3e f6 01 00       	call   228c0 <assert_abort>
    3282:	c7 44 24 08 ed 02 00 	movl   $0x2ed,0x8(%esp)
    3289:	00 
    328a:	c7 44 24 04 5c 76 02 	movl   $0x2765c,0x4(%esp)
    3291:	00 
    3292:	c7 04 24 b0 76 02 00 	movl   $0x276b0,(%esp)
    3299:	e8 22 f6 01 00       	call   228c0 <assert_abort>
    329e:	66 90                	xchg   %ax,%ax

000032a0 <ddf_fun_data_get>:
    32a0:	55                   	push   %ebp
    32a1:	89 e5                	mov    %esp,%ebp
    32a3:	8b 45 08             	mov    0x8(%ebp),%eax
    32a6:	5d                   	pop    %ebp
    32a7:	8b 40 20             	mov    0x20(%eax),%eax
    32aa:	c3                   	ret    
    32ab:	90                   	nop
    32ac:	8d 74 26 00          	lea    0x0(%esi,%eiz,1),%esi

000032b0 <ddf_fun_get_name>:
    32b0:	55                   	push   %ebp
    32b1:	89 e5                	mov    %esp,%ebp
    32b3:	8b 45 08             	mov    0x8(%ebp),%eax
    32b6:	5d                   	pop    %ebp
    32b7:	8b 40 14             	mov    0x14(%eax),%eax
    32ba:	c3                   	ret    
    32bb:	90                   	nop
    32bc:	8d 74 26 00          	lea    0x0(%esi,%eiz,1),%esi

000032c0 <ddf_fun_destroy>:
    32c0:	55                   	push   %ebp
    32c1:	89 e5                	mov    %esp,%ebp
    32c3:	57                   	push   %edi
    32c4:	56                   	push   %esi
    32c5:	53                   	push   %ebx
    32c6:	83 ec 2c             	sub    $0x2c,%esp
    32c9:	8b 5d 08             	mov    0x8(%ebp),%ebx
    32cc:	80 3b 00             	cmpb   $0x0,(%ebx)
    32cf:	0f 85 d8 00 00 00    	jne    33ad <ddf_fun_destroy+0xed>
    32d5:	8b 73 0c             	mov    0xc(%ebx),%esi
    32d8:	83 c8 ff             	or     $0xffffffff,%eax
    32db:	f0 0f c1 43 08       	lock xadd %eax,0x8(%ebx)
    32e0:	48                   	dec    %eax
    32e1:	74 1d                	je     3300 <ddf_fun_destroy+0x40>
    32e3:	83 c8 ff             	or     $0xffffffff,%eax
    32e6:	f0 0f c1 46 04       	lock xadd %eax,0x4(%esi)
    32eb:	48                   	dec    %eax
    32ec:	0f 84 8e 00 00 00    	je     3380 <ddf_fun_destroy+0xc0>
    32f2:	83 c4 2c             	add    $0x2c,%esp
    32f5:	5b                   	pop    %ebx
    32f6:	5e                   	pop    %esi
    32f7:	5f                   	pop    %edi
    32f8:	5d                   	pop    %ebp
    32f9:	c3                   	ret    
    32fa:	8d b6 00 00 00 00    	lea    0x0(%esi),%esi
    3300:	8d 7b 18             	lea    0x18(%ebx),%edi
    3303:	8b 43 1c             	mov    0x1c(%ebx),%eax
    3306:	39 f8                	cmp    %edi,%eax
    3308:	74 4b                	je     3355 <ddf_fun_destroy+0x95>
    330a:	8d b6 00 00 00 00    	lea    0x0(%esi),%esi
    3310:	8b 08                	mov    (%eax),%ecx
    3312:	85 c9                	test   %ecx,%ecx
    3314:	74 0e                	je     3324 <ddf_fun_destroy+0x64>
    3316:	8b 50 04             	mov    0x4(%eax),%edx
    3319:	85 d2                	test   %edx,%edx
    331b:	74 07                	je     3324 <ddf_fun_destroy+0x64>
    331d:	89 0a                	mov    %ecx,(%edx)
    331f:	8b 08                	mov    (%eax),%ecx
    3321:	89 51 04             	mov    %edx,0x4(%ecx)
    3324:	8b 50 08             	mov    0x8(%eax),%edx
    3327:	c7 00 00 00 00 00    	movl   $0x0,(%eax)
    332d:	c7 40 04 00 00 00 00 	movl   $0x0,0x4(%eax)
    3334:	85 d2                	test   %edx,%edx
    3336:	74 0e                	je     3346 <ddf_fun_destroy+0x86>
    3338:	89 14 24             	mov    %edx,(%esp)
    333b:	89 45 e4             	mov    %eax,-0x1c(%ebp)
    333e:	e8 2d 4e 01 00       	call   18170 <free>
    3343:	8b 45 e4             	mov    -0x1c(%ebp),%eax
    3346:	89 04 24             	mov    %eax,(%esp)
    3349:	e8 22 4e 01 00       	call   18170 <free>
    334e:	8b 47 04             	mov    0x4(%edi),%eax
    3351:	39 f8                	cmp    %edi,%eax
    3353:	75 bb                	jne    3310 <ddf_fun_destroy+0x50>
    3355:	8b 43 20             	mov    0x20(%ebx),%eax
    3358:	85 c0                	test   %eax,%eax
    335a:	74 08                	je     3364 <ddf_fun_destroy+0xa4>
    335c:	89 04 24             	mov    %eax,(%esp)
    335f:	e8 0c 4e 01 00       	call   18170 <free>
    3364:	8b 43 14             	mov    0x14(%ebx),%eax
    3367:	85 c0                	test   %eax,%eax
    3369:	74 08                	je     3373 <ddf_fun_destroy+0xb3>
    336b:	89 04 24             	mov    %eax,(%esp)
    336e:	e8 fd 4d 01 00       	call   18170 <free>
    3373:	89 1c 24             	mov    %ebx,(%esp)
    3376:	e8 f5 4d 01 00       	call   18170 <free>
    337b:	e9 63 ff ff ff       	jmp    32e3 <ddf_fun_destroy+0x23>
    3380:	8b 46 08             	mov    0x8(%esi),%eax
    3383:	85 c0                	test   %eax,%eax
    3385:	74 08                	je     338f <ddf_fun_destroy+0xcf>
    3387:	89 04 24             	mov    %eax,(%esp)
    338a:	e8 11 81 01 00       	call   1b4a0 <async_hangup>
    338f:	8b 46 10             	mov    0x10(%esi),%eax
    3392:	85 c0                	test   %eax,%eax
    3394:	74 08                	je     339e <ddf_fun_destroy+0xde>
    3396:	89 04 24             	mov    %eax,(%esp)
    3399:	e8 d2 4d 01 00       	call   18170 <free>
    339e:	89 75 08             	mov    %esi,0x8(%ebp)
    33a1:	83 c4 2c             	add    $0x2c,%esp
    33a4:	5b                   	pop    %ebx
    33a5:	5e                   	pop    %esi
    33a6:	5f                   	pop    %edi
    33a7:	5d                   	pop    %ebp
    33a8:	e9 c3 4d 01 00       	jmp    18170 <free>
    33ad:	c7 44 24 08 11 03 00 	movl   $0x311,0x8(%esp)
    33b4:	00 
    33b5:	c7 44 24 04 5c 76 02 	movl   $0x2765c,0x4(%esp)
    33bc:	00 
    33bd:	c7 04 24 f4 76 02 00 	movl   $0x276f4,(%esp)
    33c4:	e8 f7 f4 01 00       	call   228c0 <assert_abort>
    33c9:	8d b4 26 00 00 00 00 	lea    0x0(%esi,%eiz,1),%esi

000033d0 <ddf_fun_bind>:
    33d0:	55                   	push   %ebp
    33d1:	89 e5                	mov    %esp,%ebp
    33d3:	53                   	push   %ebx
    33d4:	83 ec 34             	sub    $0x34,%esp
    33d7:	8b 5d 08             	mov    0x8(%ebp),%ebx
    33da:	80 3b 00             	cmpb   $0x0,(%ebx)
    33dd:	0f 85 c3 00 00 00    	jne    34a6 <ddf_fun_bind+0xd6>
    33e3:	8b 43 14             	mov    0x14(%ebx),%eax
    33e6:	85 c0                	test   %eax,%eax
    33e8:	0f 84 d4 00 00 00    	je     34c2 <ddf_fun_bind+0xf2>
    33ee:	c7 04 24 60 b8 02 00 	movl   $0x2b860,(%esp)
    33f5:	e8 86 b9 00 00       	call   ed80 <fibril_mutex_lock>
    33fa:	8b 15 70 b8 02 00    	mov    0x2b870,%edx
    3400:	8d 43 2c             	lea    0x2c(%ebx),%eax
    3403:	c7 43 30 70 b8 02 00 	movl   $0x2b870,0x30(%ebx)
    340a:	89 53 2c             	mov    %edx,0x2c(%ebx)
    340d:	89 42 04             	mov    %eax,0x4(%edx)
    3410:	c7 04 24 60 b8 02 00 	movl   $0x2b860,(%esp)
    3417:	a3 70 b8 02 00       	mov    %eax,0x2b870
    341c:	e8 7f ba 00 00       	call   eea0 <fibril_mutex_unlock>
    3421:	8d 43 04             	lea    0x4(%ebx),%eax
    3424:	89 44 24 10          	mov    %eax,0x10(%esp)
    3428:	8b 43 0c             	mov    0xc(%ebx),%eax
    342b:	8b 00                	mov    (%eax),%eax
    342d:	89 44 24 0c          	mov    %eax,0xc(%esp)
    3431:	8d 43 18             	lea    0x18(%ebx),%eax
    3434:	89 44 24 08          	mov    %eax,0x8(%esp)
    3438:	8b 43 10             	mov    0x10(%ebx),%eax
    343b:	89 44 24 04          	mov    %eax,0x4(%esp)
    343f:	8b 43 14             	mov    0x14(%ebx),%eax
    3442:	89 04 24             	mov    %eax,(%esp)
    3445:	e8 56 58 00 00       	call   8ca0 <devman_add_function>
    344a:	85 c0                	test   %eax,%eax
    344c:	75 0a                	jne    3458 <ddf_fun_bind+0x88>
    344e:	c6 03 01             	movb   $0x1,(%ebx)
    3451:	83 c4 34             	add    $0x34,%esp
    3454:	5b                   	pop    %ebx
    3455:	5d                   	pop    %ebp
    3456:	c3                   	ret    
    3457:	90                   	nop
    3458:	c7 04 24 60 b8 02 00 	movl   $0x2b860,(%esp)
    345f:	89 45 f4             	mov    %eax,-0xc(%ebp)
    3462:	e8 19 b9 00 00       	call   ed80 <fibril_mutex_lock>
    3467:	8b 4b 2c             	mov    0x2c(%ebx),%ecx
    346a:	85 c9                	test   %ecx,%ecx
    346c:	8b 45 f4             	mov    -0xc(%ebp),%eax
    346f:	74 0f                	je     3480 <ddf_fun_bind+0xb0>
    3471:	8b 53 30             	mov    0x30(%ebx),%edx
    3474:	85 d2                	test   %edx,%edx
    3476:	74 08                	je     3480 <ddf_fun_bind+0xb0>
    3478:	89 0a                	mov    %ecx,(%edx)
    347a:	8b 4b 2c             	mov    0x2c(%ebx),%ecx
    347d:	89 51 04             	mov    %edx,0x4(%ecx)
    3480:	c7 43 2c 00 00 00 00 	movl   $0x0,0x2c(%ebx)
    3487:	c7 43 30 00 00 00 00 	movl   $0x0,0x30(%ebx)
    348e:	c7 04 24 60 b8 02 00 	movl   $0x2b860,(%esp)
    3495:	89 45 f4             	mov    %eax,-0xc(%ebp)
    3498:	e8 03 ba 00 00       	call   eea0 <fibril_mutex_unlock>
    349d:	8b 45 f4             	mov    -0xc(%ebp),%eax
    34a0:	83 c4 34             	add    $0x34,%esp
    34a3:	5b                   	pop    %ebx
    34a4:	5d                   	pop    %ebp
    34a5:	c3                   	ret    
    34a6:	c7 44 24 08 35 03 00 	movl   $0x335,0x8(%esp)
    34ad:	00 
    34ae:	c7 44 24 04 5c 76 02 	movl   $0x2765c,0x4(%esp)
    34b5:	00 
    34b6:	c7 04 24 f4 76 02 00 	movl   $0x276f4,(%esp)
    34bd:	e8 fe f3 01 00       	call   228c0 <assert_abort>
    34c2:	c7 44 24 08 36 03 00 	movl   $0x336,0x8(%esp)
    34c9:	00 
    34ca:	c7 44 24 04 5c 76 02 	movl   $0x2765c,0x4(%esp)
    34d1:	00 
    34d2:	c7 04 24 08 77 02 00 	movl   $0x27708,(%esp)
    34d9:	e8 e2 f3 01 00       	call   228c0 <assert_abort>
    34de:	66 90                	xchg   %ax,%ax

000034e0 <ddf_fun_unbind>:
    34e0:	55                   	push   %ebp
    34e1:	89 e5                	mov    %esp,%ebp
    34e3:	53                   	push   %ebx
    34e4:	83 ec 24             	sub    $0x24,%esp
    34e7:	8b 5d 08             	mov    0x8(%ebp),%ebx
    34ea:	80 3b 00             	cmpb   $0x0,(%ebx)
    34ed:	74 6a                	je     3559 <ddf_fun_unbind+0x79>
    34ef:	8b 43 04             	mov    0x4(%ebx),%eax
    34f2:	89 04 24             	mov    %eax,(%esp)
    34f5:	e8 46 5c 00 00       	call   9140 <devman_remove_function>
    34fa:	85 c0                	test   %eax,%eax
    34fc:	74 0a                	je     3508 <ddf_fun_unbind+0x28>
    34fe:	83 c4 24             	add    $0x24,%esp
    3501:	5b                   	pop    %ebx
    3502:	5d                   	pop    %ebp
    3503:	c3                   	ret    
    3504:	8d 74 26 00          	lea    0x0(%esi,%eiz,1),%esi
    3508:	c7 04 24 60 b8 02 00 	movl   $0x2b860,(%esp)
    350f:	89 45 f4             	mov    %eax,-0xc(%ebp)
    3512:	e8 69 b8 00 00       	call   ed80 <fibril_mutex_lock>
    3517:	8b 4b 2c             	mov    0x2c(%ebx),%ecx
    351a:	85 c9                	test   %ecx,%ecx
    351c:	8b 45 f4             	mov    -0xc(%ebp),%eax
    351f:	74 0f                	je     3530 <ddf_fun_unbind+0x50>
    3521:	8b 53 30             	mov    0x30(%ebx),%edx
    3524:	85 d2                	test   %edx,%edx
    3526:	74 08                	je     3530 <ddf_fun_unbind+0x50>
    3528:	89 0a                	mov    %ecx,(%edx)
    352a:	8b 4b 2c             	mov    0x2c(%ebx),%ecx
    352d:	89 51 04             	mov    %edx,0x4(%ecx)
    3530:	c7 43 2c 00 00 00 00 	movl   $0x0,0x2c(%ebx)
    3537:	c7 43 30 00 00 00 00 	movl   $0x0,0x30(%ebx)
    353e:	c7 04 24 60 b8 02 00 	movl   $0x2b860,(%esp)
    3545:	89 45 f4             	mov    %eax,-0xc(%ebp)
    3548:	e8 53 b9 00 00       	call   eea0 <fibril_mutex_unlock>
    354d:	c6 03 00             	movb   $0x0,(%ebx)
    3550:	8b 45 f4             	mov    -0xc(%ebp),%eax
    3553:	83 c4 24             	add    $0x24,%esp
    3556:	5b                   	pop    %ebx
    3557:	5d                   	pop    %ebp
    3558:	c3                   	ret    
    3559:	c7 44 24 08 50 03 00 	movl   $0x350,0x8(%esp)
    3560:	00 
    3561:	c7 44 24 04 5c 76 02 	movl   $0x2765c,0x4(%esp)
    3568:	00 
    3569:	c7 04 24 1a 77 02 00 	movl   $0x2771a,(%esp)
    3570:	e8 4b f3 01 00       	call   228c0 <assert_abort>
    3575:	8d 74 26 00          	lea    0x0(%esi,%eiz,1),%esi
    3579:	8d bc 27 00 00 00 00 	lea    0x0(%edi,%eiz,1),%edi

00003580 <ddf_fun_online>:
    3580:	55                   	push   %ebp
    3581:	89 e5                	mov    %esp,%ebp
    3583:	83 ec 18             	sub    $0x18,%esp
    3586:	8b 45 08             	mov    0x8(%ebp),%eax
    3589:	80 38 00             	cmpb   $0x0,(%eax)
    358c:	74 0c                	je     359a <ddf_fun_online+0x1a>
    358e:	8b 40 04             	mov    0x4(%eax),%eax
    3591:	89 45 08             	mov    %eax,0x8(%ebp)
    3594:	c9                   	leave  
    3595:	e9 16 5d 00 00       	jmp    92b0 <devman_drv_fun_online>
    359a:	c7 44 24 08 65 03 00 	movl   $0x365,0x8(%esp)
    35a1:	00 
    35a2:	c7 44 24 04 5c 76 02 	movl   $0x2765c,0x4(%esp)
    35a9:	00 
    35aa:	c7 04 24 1a 77 02 00 	movl   $0x2771a,(%esp)
    35b1:	e8 0a f3 01 00       	call   228c0 <assert_abort>
    35b6:	8d 76 00             	lea    0x0(%esi),%esi
    35b9:	8d bc 27 00 00 00 00 	lea    0x0(%edi,%eiz,1),%edi

000035c0 <ddf_fun_offline>:
    35c0:	55                   	push   %ebp
    35c1:	89 e5                	mov    %esp,%ebp
    35c3:	83 ec 18             	sub    $0x18,%esp
    35c6:	8b 45 08             	mov    0x8(%ebp),%eax
    35c9:	80 38 00             	cmpb   $0x0,(%eax)
    35cc:	74 0c                	je     35da <ddf_fun_offline+0x1a>
    35ce:	8b 40 04             	mov    0x4(%eax),%eax
    35d1:	89 45 08             	mov    %eax,0x8(%ebp)
    35d4:	c9                   	leave  
    35d5:	e9 c6 5d 00 00       	jmp    93a0 <devman_drv_fun_offline>
    35da:	c7 44 24 08 77 03 00 	movl   $0x377,0x8(%esp)
    35e1:	00 
    35e2:	c7 44 24 04 5c 76 02 	movl   $0x2765c,0x4(%esp)
    35e9:	00 
    35ea:	c7 04 24 1a 77 02 00 	movl   $0x2771a,(%esp)
    35f1:	e8 ca f2 01 00       	call   228c0 <assert_abort>
    35f6:	8d 76 00             	lea    0x0(%esi),%esi
    35f9:	8d bc 27 00 00 00 00 	lea    0x0(%edi,%eiz,1),%edi

00003600 <ddf_fun_add_match_id>:
    3600:	55                   	push   %ebp
    3601:	89 e5                	mov    %esp,%ebp
    3603:	57                   	push   %edi
    3604:	56                   	push   %esi
    3605:	53                   	push   %ebx
    3606:	83 ec 1c             	sub    $0x1c,%esp
    3609:	8b 75 08             	mov    0x8(%ebp),%esi
    360c:	8b 5d 10             	mov    0x10(%ebp),%ebx
    360f:	80 3e 00             	cmpb   $0x0,(%esi)
    3612:	0f 85 97 00 00 00    	jne    36af <ddf_fun_add_match_id+0xaf>
    3618:	83 7e 10 01          	cmpl   $0x1,0x10(%esi)
    361c:	75 75                	jne    3693 <ddf_fun_add_match_id+0x93>
    361e:	c7 04 24 10 00 00 00 	movl   $0x10,(%esp)
    3625:	e8 36 4a 01 00       	call   18060 <malloc>
    362a:	c7 44 24 08 10 00 00 	movl   $0x10,0x8(%esp)
    3631:	00 
    3632:	89 c7                	mov    %eax,%edi
    3634:	c7 44 24 04 00 00 00 	movl   $0x0,0x4(%esp)
    363b:	00 
    363c:	89 04 24             	mov    %eax,(%esp)
    363f:	e8 dc 74 00 00       	call   ab20 <memset>
    3644:	85 ff                	test   %edi,%edi
    3646:	74 44                	je     368c <ddf_fun_add_match_id+0x8c>
    3648:	8b 45 0c             	mov    0xc(%ebp),%eax
    364b:	89 04 24             	mov    %eax,(%esp)
    364e:	e8 fd a3 00 00       	call   da50 <str_dup>
    3653:	8b 56 1c             	mov    0x1c(%esi),%edx
    3656:	8d 4e 18             	lea    0x18(%esi),%ecx
    3659:	89 47 08             	mov    %eax,0x8(%edi)
    365c:	89 5f 0c             	mov    %ebx,0xc(%edi)
    365f:	39 ca                	cmp    %ecx,%edx
    3661:	75 0c                	jne    366f <ddf_fun_add_match_id+0x6f>
    3663:	eb 0f                	jmp    3674 <ddf_fun_add_match_id+0x74>
    3665:	8d 76 00             	lea    0x0(%esi),%esi
    3668:	8b 52 04             	mov    0x4(%edx),%edx
    366b:	39 ca                	cmp    %ecx,%edx
    366d:	74 05                	je     3674 <ddf_fun_add_match_id+0x74>
    366f:	3b 5a 0c             	cmp    0xc(%edx),%ebx
    3672:	76 f4                	jbe    3668 <ddf_fun_add_match_id+0x68>
    3674:	8b 02                	mov    (%edx),%eax
    3676:	89 57 04             	mov    %edx,0x4(%edi)
    3679:	89 07                	mov    %eax,(%edi)
    367b:	8b 02                	mov    (%edx),%eax
    367d:	89 3a                	mov    %edi,(%edx)
    367f:	89 78 04             	mov    %edi,0x4(%eax)
    3682:	31 c0                	xor    %eax,%eax
    3684:	83 c4 1c             	add    $0x1c,%esp
    3687:	5b                   	pop    %ebx
    3688:	5e                   	pop    %esi
    3689:	5f                   	pop    %edi
    368a:	5d                   	pop    %ebp
    368b:	c3                   	ret    
    368c:	b8 fe ff ff ff       	mov    $0xfffffffe,%eax
    3691:	eb f1                	jmp    3684 <ddf_fun_add_match_id+0x84>
    3693:	c7 44 24 08 91 03 00 	movl   $0x391,0x8(%esp)
    369a:	00 
    369b:	c7 44 24 04 5c 76 02 	movl   $0x2765c,0x4(%esp)
    36a2:	00 
    36a3:	c7 04 24 2d 77 02 00 	movl   $0x2772d,(%esp)
    36aa:	e8 11 f2 01 00       	call   228c0 <assert_abort>
    36af:	c7 44 24 08 90 03 00 	movl   $0x390,0x8(%esp)
    36b6:	00 
    36b7:	c7 44 24 04 5c 76 02 	movl   $0x2765c,0x4(%esp)
    36be:	00 
    36bf:	c7 04 24 f4 76 02 00 	movl   $0x276f4,(%esp)
    36c6:	e8 f5 f1 01 00       	call   228c0 <assert_abort>
    36cb:	90                   	nop
    36cc:	8d 74 26 00          	lea    0x0(%esi,%eiz,1),%esi

000036d0 <ddf_fun_set_ops>:
    36d0:	55                   	push   %ebp
    36d1:	89 e5                	mov    %esp,%ebp
    36d3:	83 ec 18             	sub    $0x18,%esp
    36d6:	8b 45 08             	mov    0x8(%ebp),%eax
    36d9:	8b 50 28             	mov    0x28(%eax),%edx
    36dc:	85 d2                	test   %edx,%edx
    36de:	75 08                	jne    36e8 <ddf_fun_set_ops+0x18>
    36e0:	8b 55 0c             	mov    0xc(%ebp),%edx
    36e3:	89 50 24             	mov    %edx,0x24(%eax)
    36e6:	c9                   	leave  
    36e7:	c3                   	ret    
    36e8:	c7 44 24 08 a1 03 00 	movl   $0x3a1,0x8(%esp)
    36ef:	00 
    36f0:	c7 44 24 04 5c 76 02 	movl   $0x2765c,0x4(%esp)
    36f7:	00 
    36f8:	c7 04 24 45 77 02 00 	movl   $0x27745,(%esp)
    36ff:	e8 bc f1 01 00       	call   228c0 <assert_abort>
    3704:	8d b6 00 00 00 00    	lea    0x0(%esi),%esi
    370a:	8d bf 00 00 00 00    	lea    0x0(%edi),%edi

00003710 <ddf_fun_set_conn_handler>:
    3710:	55                   	push   %ebp
    3711:	89 e5                	mov    %esp,%ebp
    3713:	83 ec 18             	sub    $0x18,%esp
    3716:	8b 45 08             	mov    0x8(%ebp),%eax
    3719:	8b 48 24             	mov    0x24(%eax),%ecx
    371c:	85 c9                	test   %ecx,%ecx
    371e:	75 08                	jne    3728 <ddf_fun_set_conn_handler+0x18>
    3720:	8b 55 0c             	mov    0xc(%ebp),%edx
    3723:	89 50 28             	mov    %edx,0x28(%eax)
    3726:	c9                   	leave  
    3727:	c3                   	ret    
    3728:	c7 44 24 08 ab 03 00 	movl   $0x3ab,0x8(%esp)
    372f:	00 
    3730:	c7 44 24 04 5c 76 02 	movl   $0x2765c,0x4(%esp)
    3737:	00 
    3738:	c7 04 24 5f 77 02 00 	movl   $0x2775f,(%esp)
    373f:	e8 7c f1 01 00       	call   228c0 <assert_abort>
    3744:	8d b6 00 00 00 00    	lea    0x0(%esi),%esi
    374a:	8d bf 00 00 00 00    	lea    0x0(%edi),%edi

00003750 <ddf_fun_add_to_category>:
    3750:	55                   	push   %ebp
    3751:	89 e5                	mov    %esp,%ebp
    3753:	83 ec 18             	sub    $0x18,%esp
    3756:	8b 45 08             	mov    0x8(%ebp),%eax
    3759:	8b 55 0c             	mov    0xc(%ebp),%edx
    375c:	80 38 00             	cmpb   $0x0,(%eax)
    375f:	74 15                	je     3776 <ddf_fun_add_to_category+0x26>
    3761:	83 78 10 02          	cmpl   $0x2,0x10(%eax)
    3765:	75 2b                	jne    3792 <ddf_fun_add_to_category+0x42>
    3767:	89 55 0c             	mov    %edx,0xc(%ebp)
    376a:	8b 40 04             	mov    0x4(%eax),%eax
    376d:	89 45 08             	mov    %eax,0x8(%ebp)
    3770:	c9                   	leave  
    3771:	e9 ea 57 00 00       	jmp    8f60 <devman_add_device_to_category>
    3776:	c7 44 24 08 be 03 00 	movl   $0x3be,0x8(%esp)
    377d:	00 
    377e:	c7 44 24 04 5c 76 02 	movl   $0x2765c,0x4(%esp)
    3785:	00 
    3786:	c7 04 24 1a 77 02 00 	movl   $0x2771a,(%esp)
    378d:	e8 2e f1 01 00       	call   228c0 <assert_abort>
    3792:	c7 44 24 08 bf 03 00 	movl   $0x3bf,0x8(%esp)
    3799:	00 
    379a:	c7 44 24 04 5c 76 02 	movl   $0x2765c,0x4(%esp)
    37a1:	00 
    37a2:	c7 04 24 70 77 02 00 	movl   $0x27770,(%esp)
    37a9:	e8 12 f1 01 00       	call   228c0 <assert_abort>
    37ae:	66 90                	xchg   %ax,%ax

000037b0 <ddf_driver_main>:
    37b0:	55                   	push   %ebp
    37b1:	89 e5                	mov    %esp,%ebp
    37b3:	53                   	push   %ebx
    37b4:	83 ec 14             	sub    $0x14,%esp
    37b7:	8b 45 08             	mov    0x8(%ebp),%eax
    37ba:	a3 dc bc 02 00       	mov    %eax,0x2bcdc
    37bf:	e8 7c 01 00 00       	call   3940 <interrupt_init>
    37c4:	c7 04 24 00 2a 00 00 	movl   $0x2a00,(%esp)
    37cb:	e8 80 5b 01 00       	call   19350 <async_set_client_connection>
    37d0:	a1 dc bc 02 00       	mov    0x2bcdc,%eax
    37d5:	8b 00                	mov    (%eax),%eax
    37d7:	89 04 24             	mov    %eax,(%esp)
    37da:	e8 81 52 00 00       	call   8a60 <devman_driver_register>
    37df:	89 c3                	mov    %eax,%ebx
    37e1:	85 c0                	test   %eax,%eax
    37e3:	74 2b                	je     3810 <ddf_driver_main+0x60>
    37e5:	b8 8a 77 02 00       	mov    $0x2778a,%eax
    37ea:	83 fb f7             	cmp    $0xfffffff7,%ebx
    37ed:	74 08                	je     37f7 <ddf_driver_main+0x47>
    37ef:	89 1c 24             	mov    %ebx,(%esp)
    37f2:	e8 99 ab 00 00       	call   e390 <str_error>
    37f7:	89 44 24 04          	mov    %eax,0x4(%esp)
    37fb:	c7 04 24 18 79 02 00 	movl   $0x27918,(%esp)
    3802:	e8 09 f5 00 00       	call   12d10 <printf>
    3807:	83 c4 14             	add    $0x14,%esp
    380a:	89 d8                	mov    %ebx,%eax
    380c:	5b                   	pop    %ebx
    380d:	5d                   	pop    %ebp
    380e:	c3                   	ret    
    380f:	90                   	nop
    3810:	c7 04 24 00 00 00 00 	movl   $0x0,(%esp)
    3817:	e8 b4 ce 00 00       	call   106d0 <task_retval>
    381c:	89 c3                	mov    %eax,%ebx
    381e:	85 c0                	test   %eax,%eax
    3820:	75 e5                	jne    3807 <ddf_driver_main+0x57>
    3822:	c7 04 24 01 00 00 00 	movl   $0x1,(%esp)
    3829:	e8 82 ad 00 00       	call   e5b0 <fibril_switch>
    382e:	83 c4 14             	add    $0x14,%esp
    3831:	89 d8                	mov    %ebx,%eax
    3833:	5b                   	pop    %ebx
    3834:	5d                   	pop    %ebp
    3835:	c3                   	ret    
    3836:	66 90                	xchg   %ax,%ax
    3838:	66 90                	xchg   %ax,%ax
    383a:	66 90                	xchg   %ax,%ax
    383c:	66 90                	xchg   %ax,%ax
    383e:	66 90                	xchg   %ax,%ax

00003840 <get_remote_iface>:
    3840:	55                   	push   %ebp
    3841:	89 e5                	mov    %esp,%ebp
    3843:	83 ec 18             	sub    $0x18,%esp
    3846:	8b 45 08             	mov    0x8(%ebp),%eax
    3849:	83 f8 0a             	cmp    $0xa,%eax
    384c:	77 09                	ja     3857 <get_remote_iface+0x17>
    384e:	8b 04 85 80 79 02 00 	mov    0x27980(,%eax,4),%eax
    3855:	c9                   	leave  
    3856:	c3                   	ret    
    3857:	c7 44 24 08 47 00 00 	movl   $0x47,0x8(%esp)
    385e:	00 
    385f:	c7 44 24 04 68 79 02 	movl   $0x27968,0x4(%esp)
    3866:	00 
    3867:	c7 04 24 6d 76 02 00 	movl   $0x2766d,(%esp)
    386e:	e8 4d f0 01 00       	call   228c0 <assert_abort>
    3873:	8d b6 00 00 00 00    	lea    0x0(%esi),%esi
    3879:	8d bc 27 00 00 00 00 	lea    0x0(%edi,%eiz,1),%edi

00003880 <get_remote_method>:
    3880:	55                   	push   %ebp
    3881:	89 e5                	mov    %esp,%ebp
    3883:	8b 55 08             	mov    0x8(%ebp),%edx
    3886:	8b 45 0c             	mov    0xc(%ebp),%eax
    3889:	39 02                	cmp    %eax,(%edx)
    388b:	76 0b                	jbe    3898 <get_remote_method+0x18>
    388d:	8b 52 04             	mov    0x4(%edx),%edx
    3890:	5d                   	pop    %ebp
    3891:	8b 04 82             	mov    (%edx,%eax,4),%eax
    3894:	c3                   	ret    
    3895:	8d 76 00             	lea    0x0(%esi),%esi
    3898:	31 c0                	xor    %eax,%eax
    389a:	5d                   	pop    %ebp
    389b:	c3                   	ret    
    389c:	8d 74 26 00          	lea    0x0(%esi,%eiz,1),%esi

000038a0 <is_valid_iface_idx>:
    38a0:	55                   	push   %ebp
    38a1:	89 e5                	mov    %esp,%ebp
    38a3:	83 7d 08 0a          	cmpl   $0xa,0x8(%ebp)
    38a7:	5d                   	pop    %ebp
    38a8:	0f 96 c0             	setbe  %al
    38ab:	c3                   	ret    
    38ac:	66 90                	xchg   %ax,%ax
    38ae:	66 90                	xchg   %ax,%ax

000038b0 <driver_irq_handler>:
    38b0:	55                   	push   %ebp
    38b1:	89 e5                	mov    %esp,%ebp
    38b3:	57                   	push   %edi
    38b4:	56                   	push   %esi
    38b5:	53                   	push   %ebx
    38b6:	83 ec 2c             	sub    $0x2c,%esp
    38b9:	8b 5d 0c             	mov    0xc(%ebp),%ebx
    38bc:	8b 45 08             	mov    0x8(%ebp),%eax
    38bf:	89 45 e4             	mov    %eax,-0x1c(%ebp)
    38c2:	8b 33                	mov    (%ebx),%esi
    38c4:	c7 04 24 ec bc 02 00 	movl   $0x2bcec,(%esp)
    38cb:	e8 b0 b4 00 00       	call   ed80 <fibril_mutex_lock>
    38d0:	a1 e8 bc 02 00       	mov    0x2bce8,%eax
    38d5:	3d e4 bc 02 00       	cmp    $0x2bce4,%eax
    38da:	75 0e                	jne    38ea <driver_irq_handler+0x3a>
    38dc:	eb 42                	jmp    3920 <driver_irq_handler+0x70>
    38de:	66 90                	xchg   %ax,%ax
    38e0:	8b 40 04             	mov    0x4(%eax),%eax
    38e3:	3d e4 bc 02 00       	cmp    $0x2bce4,%eax
    38e8:	74 36                	je     3920 <driver_irq_handler+0x70>
    38ea:	8d 78 f0             	lea    -0x10(%eax),%edi
    38ed:	3b 70 f0             	cmp    -0x10(%eax),%esi
    38f0:	75 ee                	jne    38e0 <driver_irq_handler+0x30>
    38f2:	c7 04 24 ec bc 02 00 	movl   $0x2bcec,(%esp)
    38f9:	e8 a2 b5 00 00       	call   eea0 <fibril_mutex_unlock>
    38fe:	8b 47 0c             	mov    0xc(%edi),%eax
    3901:	85 c0                	test   %eax,%eax
    3903:	74 13                	je     3918 <driver_irq_handler+0x68>
    3905:	8b 55 e4             	mov    -0x1c(%ebp),%edx
    3908:	89 5c 24 08          	mov    %ebx,0x8(%esp)
    390c:	89 54 24 04          	mov    %edx,0x4(%esp)
    3910:	8b 57 04             	mov    0x4(%edi),%edx
    3913:	89 14 24             	mov    %edx,(%esp)
    3916:	ff d0                	call   *%eax
    3918:	83 c4 2c             	add    $0x2c,%esp
    391b:	5b                   	pop    %ebx
    391c:	5e                   	pop    %esi
    391d:	5f                   	pop    %edi
    391e:	5d                   	pop    %ebp
    391f:	c3                   	ret    
    3920:	c7 45 08 ec bc 02 00 	movl   $0x2bcec,0x8(%ebp)
    3927:	83 c4 2c             	add    $0x2c,%esp
    392a:	5b                   	pop    %ebx
    392b:	5e                   	pop    %esi
    392c:	5f                   	pop    %edi
    392d:	5d                   	pop    %ebp
    392e:	e9 6d b5 00 00       	jmp    eea0 <fibril_mutex_unlock>
    3933:	8d b6 00 00 00 00    	lea    0x0(%esi),%esi
    3939:	8d bc 27 00 00 00 00 	lea    0x0(%edi,%eiz,1),%edi

00003940 <interrupt_init>:
    3940:	55                   	push   %ebp
    3941:	89 e5                	mov    %esp,%ebp
    3943:	83 ec 18             	sub    $0x18,%esp
    3946:	c7 44 24 08 1c 00 00 	movl   $0x1c,0x8(%esp)
    394d:	00 
    394e:	c7 44 24 04 00 00 00 	movl   $0x0,0x4(%esp)
    3955:	00 
    3956:	c7 04 24 e0 bc 02 00 	movl   $0x2bce0,(%esp)
    395d:	e8 be 71 00 00       	call   ab20 <memset>
    3962:	c7 04 24 ec bc 02 00 	movl   $0x2bcec,(%esp)
    3969:	e8 f2 b3 00 00       	call   ed60 <fibril_mutex_initialize>
    396e:	c7 04 24 b0 38 00 00 	movl   $0x38b0,(%esp)
    3975:	c7 05 e4 bc 02 00 e4 	movl   $0x2bce4,0x2bce4
    397c:	bc 02 00 
    397f:	c7 05 e8 bc 02 00 e4 	movl   $0x2bce4,0x2bce8
    3986:	bc 02 00 
    3989:	e8 02 5a 01 00       	call   19390 <async_set_interrupt_received>
    398e:	c9                   	leave  
    398f:	c3                   	ret    

00003990 <register_interrupt_handler>:
    3990:	55                   	push   %ebp
    3991:	89 e5                	mov    %esp,%ebp
    3993:	57                   	push   %edi
    3994:	56                   	push   %esi
    3995:	53                   	push   %ebx
    3996:	83 ec 2c             	sub    $0x2c,%esp
    3999:	8b 7d 08             	mov    0x8(%ebp),%edi
    399c:	8b 5d 14             	mov    0x14(%ebp),%ebx
    399f:	c7 04 24 18 00 00 00 	movl   $0x18,(%esp)
    39a6:	e8 b5 46 01 00       	call   18060 <malloc>
    39ab:	89 c6                	mov    %eax,%esi
    39ad:	85 c0                	test   %eax,%eax
    39af:	74 18                	je     39c9 <register_interrupt_handler+0x39>
    39b1:	c7 44 24 08 18 00 00 	movl   $0x18,0x8(%esp)
    39b8:	00 
    39b9:	c7 44 24 04 00 00 00 	movl   $0x0,0x4(%esp)
    39c0:	00 
    39c1:	89 04 24             	mov    %eax,(%esp)
    39c4:	e8 57 71 00 00       	call   ab20 <memset>
    39c9:	8b 45 0c             	mov    0xc(%ebp),%eax
    39cc:	c7 04 24 ec bc 02 00 	movl   $0x2bcec,(%esp)
    39d3:	89 46 08             	mov    %eax,0x8(%esi)
    39d6:	8b 45 10             	mov    0x10(%ebp),%eax
    39d9:	89 46 0c             	mov    %eax,0xc(%esi)
    39dc:	89 7e 04             	mov    %edi,0x4(%esi)
    39df:	e8 9c b3 00 00       	call   ed80 <fibril_mutex_lock>
    39e4:	a1 e0 bc 02 00       	mov    0x2bce0,%eax
    39e9:	8b 0d e4 bc 02 00    	mov    0x2bce4,%ecx
    39ef:	89 06                	mov    %eax,(%esi)
    39f1:	40                   	inc    %eax
    39f2:	c7 46 14 e4 bc 02 00 	movl   $0x2bce4,0x14(%esi)
    39f9:	a3 e0 bc 02 00       	mov    %eax,0x2bce0
    39fe:	8d 46 10             	lea    0x10(%esi),%eax
    3a01:	89 41 04             	mov    %eax,0x4(%ecx)
    3a04:	c7 04 24 ec bc 02 00 	movl   $0x2bcec,(%esp)
    3a0b:	89 4e 10             	mov    %ecx,0x10(%esi)
    3a0e:	a3 e4 bc 02 00       	mov    %eax,0x2bce4
    3a13:	e8 88 b4 00 00       	call   eea0 <fibril_mutex_unlock>
    3a18:	85 db                	test   %ebx,%ebx
    3a1a:	0f 84 80 00 00 00    	je     3aa0 <register_interrupt_handler+0x110>
    3a20:	8b 06                	mov    (%esi),%eax
    3a22:	89 5c 24 0c          	mov    %ebx,0xc(%esp)
    3a26:	89 44 24 08          	mov    %eax,0x8(%esp)
    3a2a:	8b 07                	mov    (%edi),%eax
    3a2c:	89 44 24 04          	mov    %eax,0x4(%esp)
    3a30:	8b 45 0c             	mov    0xc(%ebp),%eax
    3a33:	89 04 24             	mov    %eax,(%esp)
    3a36:	e8 05 4c 00 00       	call   8640 <irq_register>
    3a3b:	85 c0                	test   %eax,%eax
    3a3d:	75 09                	jne    3a48 <register_interrupt_handler+0xb8>
    3a3f:	83 c4 2c             	add    $0x2c,%esp
    3a42:	5b                   	pop    %ebx
    3a43:	5e                   	pop    %esi
    3a44:	5f                   	pop    %edi
    3a45:	5d                   	pop    %ebp
    3a46:	c3                   	ret    
    3a47:	90                   	nop
    3a48:	c7 04 24 ec bc 02 00 	movl   $0x2bcec,(%esp)
    3a4f:	89 45 e4             	mov    %eax,-0x1c(%ebp)
    3a52:	e8 29 b3 00 00       	call   ed80 <fibril_mutex_lock>
    3a57:	8b 5e 10             	mov    0x10(%esi),%ebx
    3a5a:	85 db                	test   %ebx,%ebx
    3a5c:	8b 45 e4             	mov    -0x1c(%ebp),%eax
    3a5f:	74 0f                	je     3a70 <register_interrupt_handler+0xe0>
    3a61:	8b 4e 14             	mov    0x14(%esi),%ecx
    3a64:	85 c9                	test   %ecx,%ecx
    3a66:	74 08                	je     3a70 <register_interrupt_handler+0xe0>
    3a68:	89 19                	mov    %ebx,(%ecx)
    3a6a:	8b 5e 10             	mov    0x10(%esi),%ebx
    3a6d:	89 4b 04             	mov    %ecx,0x4(%ebx)
    3a70:	c7 04 24 ec bc 02 00 	movl   $0x2bcec,(%esp)
    3a77:	89 45 e4             	mov    %eax,-0x1c(%ebp)
    3a7a:	c7 46 10 00 00 00 00 	movl   $0x0,0x10(%esi)
    3a81:	c7 46 14 00 00 00 00 	movl   $0x0,0x14(%esi)
    3a88:	e8 13 b4 00 00       	call   eea0 <fibril_mutex_unlock>
    3a8d:	89 34 24             	mov    %esi,(%esp)
    3a90:	e8 db 46 01 00       	call   18170 <free>
    3a95:	8b 45 e4             	mov    -0x1c(%ebp),%eax
    3a98:	83 c4 2c             	add    $0x2c,%esp
    3a9b:	5b                   	pop    %ebx
    3a9c:	5e                   	pop    %esi
    3a9d:	5f                   	pop    %edi
    3a9e:	5d                   	pop    %ebp
    3a9f:	c3                   	ret    
    3aa0:	bb 90 b8 02 00       	mov    $0x2b890,%ebx
    3aa5:	e9 76 ff ff ff       	jmp    3a20 <register_interrupt_handler+0x90>
    3aaa:	8d b6 00 00 00 00    	lea    0x0(%esi),%esi

00003ab0 <unregister_interrupt_handler>:
    3ab0:	55                   	push   %ebp
    3ab1:	89 e5                	mov    %esp,%ebp
    3ab3:	57                   	push   %edi
    3ab4:	56                   	push   %esi
    3ab5:	53                   	push   %ebx
    3ab6:	83 ec 1c             	sub    $0x1c,%esp
    3ab9:	8b 7d 08             	mov    0x8(%ebp),%edi
    3abc:	8b 75 0c             	mov    0xc(%ebp),%esi
    3abf:	c7 04 24 ec bc 02 00 	movl   $0x2bcec,(%esp)
    3ac6:	e8 b5 b2 00 00       	call   ed80 <fibril_mutex_lock>
    3acb:	a1 e8 bc 02 00       	mov    0x2bce8,%eax
    3ad0:	3d e4 bc 02 00       	cmp    $0x2bce4,%eax
    3ad5:	75 13                	jne    3aea <unregister_interrupt_handler+0x3a>
    3ad7:	e9 8c 00 00 00       	jmp    3b68 <unregister_interrupt_handler+0xb8>
    3adc:	8d 74 26 00          	lea    0x0(%esi,%eiz,1),%esi
    3ae0:	8b 40 04             	mov    0x4(%eax),%eax
    3ae3:	3d e4 bc 02 00       	cmp    $0x2bce4,%eax
    3ae8:	74 7e                	je     3b68 <unregister_interrupt_handler+0xb8>
    3aea:	8d 58 f0             	lea    -0x10(%eax),%ebx
    3aed:	3b 73 08             	cmp    0x8(%ebx),%esi
    3af0:	75 ee                	jne    3ae0 <unregister_interrupt_handler+0x30>
    3af2:	3b 7b 04             	cmp    0x4(%ebx),%edi
    3af5:	75 e9                	jne    3ae0 <unregister_interrupt_handler+0x30>
    3af7:	c7 04 24 ec bc 02 00 	movl   $0x2bcec,(%esp)
    3afe:	e8 9d b3 00 00       	call   eea0 <fibril_mutex_unlock>
    3b03:	8b 07                	mov    (%edi),%eax
    3b05:	89 44 24 04          	mov    %eax,0x4(%esp)
    3b09:	89 34 24             	mov    %esi,(%esp)
    3b0c:	e8 7f 4b 00 00       	call   8690 <irq_unregister>
    3b11:	c7 04 24 ec bc 02 00 	movl   $0x2bcec,(%esp)
    3b18:	89 c6                	mov    %eax,%esi
    3b1a:	e8 61 b2 00 00       	call   ed80 <fibril_mutex_lock>
    3b1f:	8b 43 10             	mov    0x10(%ebx),%eax
    3b22:	85 c0                	test   %eax,%eax
    3b24:	74 0f                	je     3b35 <unregister_interrupt_handler+0x85>
    3b26:	8b 53 14             	mov    0x14(%ebx),%edx
    3b29:	85 d2                	test   %edx,%edx
    3b2b:	74 08                	je     3b35 <unregister_interrupt_handler+0x85>
    3b2d:	89 02                	mov    %eax,(%edx)
    3b2f:	8b 4b 10             	mov    0x10(%ebx),%ecx
    3b32:	89 51 04             	mov    %edx,0x4(%ecx)
    3b35:	c7 43 10 00 00 00 00 	movl   $0x0,0x10(%ebx)
    3b3c:	c7 43 14 00 00 00 00 	movl   $0x0,0x14(%ebx)
    3b43:	c7 04 24 ec bc 02 00 	movl   $0x2bcec,(%esp)
    3b4a:	e8 51 b3 00 00       	call   eea0 <fibril_mutex_unlock>
    3b4f:	89 1c 24             	mov    %ebx,(%esp)
    3b52:	e8 19 46 01 00       	call   18170 <free>
    3b57:	83 c4 1c             	add    $0x1c,%esp
    3b5a:	89 f0                	mov    %esi,%eax
    3b5c:	5b                   	pop    %ebx
    3b5d:	5e                   	pop    %esi
    3b5e:	5f                   	pop    %edi
    3b5f:	5d                   	pop    %ebp
    3b60:	c3                   	ret    
    3b61:	8d b4 26 00 00 00 00 	lea    0x0(%esi,%eiz,1),%esi
    3b68:	c7 04 24 ec bc 02 00 	movl   $0x2bcec,(%esp)
    3b6f:	e8 2c b3 00 00       	call   eea0 <fibril_mutex_unlock>
    3b74:	8b 07                	mov    (%edi),%eax
    3b76:	89 45 0c             	mov    %eax,0xc(%ebp)
    3b79:	89 75 08             	mov    %esi,0x8(%ebp)
    3b7c:	83 c4 1c             	add    $0x1c,%esp
    3b7f:	5b                   	pop    %ebx
    3b80:	5e                   	pop    %esi
    3b81:	5f                   	pop    %edi
    3b82:	5d                   	pop    %ebp
    3b83:	e9 08 4b 00 00       	jmp    8690 <irq_unregister>
    3b88:	66 90                	xchg   %ax,%ax
    3b8a:	66 90                	xchg   %ax,%ax
    3b8c:	66 90                	xchg   %ax,%ax
    3b8e:	66 90                	xchg   %ax,%ax

00003b90 <ddf_log_init>:
    3b90:	55                   	push   %ebp
    3b91:	89 e5                	mov    %esp,%ebp
    3b93:	5d                   	pop    %ebp
    3b94:	e9 57 f2 00 00       	jmp    12df0 <log_init>
    3b99:	8d b4 26 00 00 00 00 	lea    0x0(%esi,%eiz,1),%esi

00003ba0 <ddf_msg>:
    3ba0:	55                   	push   %ebp
    3ba1:	89 e5                	mov    %esp,%ebp
    3ba3:	83 ec 18             	sub    $0x18,%esp
    3ba6:	8d 45 10             	lea    0x10(%ebp),%eax
    3ba9:	c7 04 24 ff ff ff ff 	movl   $0xffffffff,(%esp)
    3bb0:	89 44 24 0c          	mov    %eax,0xc(%esp)
    3bb4:	8b 45 0c             	mov    0xc(%ebp),%eax
    3bb7:	89 44 24 08          	mov    %eax,0x8(%esp)
    3bbb:	8b 45 08             	mov    0x8(%ebp),%eax
    3bbe:	89 44 24 04          	mov    %eax,0x4(%esp)
    3bc2:	e8 19 f5 00 00       	call   130e0 <log_msgv>
    3bc7:	c9                   	leave  
    3bc8:	c3                   	ret    
    3bc9:	66 90                	xchg   %ax,%ax
    3bcb:	66 90                	xchg   %ax,%ax
    3bcd:	66 90                	xchg   %ax,%ax
    3bcf:	90                   	nop

00003bd0 <remote_hw_res_enable_interrupt>:
    3bd0:	55                   	push   %ebp
    3bd1:	89 e5                	mov    %esp,%ebp
    3bd3:	53                   	push   %ebx
    3bd4:	83 ec 14             	sub    $0x14,%esp
    3bd7:	8b 45 0c             	mov    0xc(%ebp),%eax
    3bda:	8b 55 08             	mov    0x8(%ebp),%edx
    3bdd:	8b 5d 10             	mov    0x10(%ebp),%ebx
    3be0:	8b 40 04             	mov    0x4(%eax),%eax
    3be3:	85 c0                	test   %eax,%eax
    3be5:	74 39                	je     3c20 <remote_hw_res_enable_interrupt+0x50>
    3be7:	89 14 24             	mov    %edx,(%esp)
    3bea:	ff d0                	call   *%eax
    3bec:	84 c0                	test   %al,%al
    3bee:	75 18                	jne    3c08 <remote_hw_res_enable_interrupt+0x38>
    3bf0:	89 5d 08             	mov    %ebx,0x8(%ebp)
    3bf3:	c7 45 0c fc ff ff ff 	movl   $0xfffffffc,0xc(%ebp)
    3bfa:	83 c4 14             	add    $0x14,%esp
    3bfd:	5b                   	pop    %ebx
    3bfe:	5d                   	pop    %ebp
    3bff:	e9 9c 6f 01 00       	jmp    1aba0 <async_answer_0>
    3c04:	8d 74 26 00          	lea    0x0(%esi,%eiz,1),%esi
    3c08:	89 5d 08             	mov    %ebx,0x8(%ebp)
    3c0b:	c7 45 0c 00 00 00 00 	movl   $0x0,0xc(%ebp)
    3c12:	83 c4 14             	add    $0x14,%esp
    3c15:	5b                   	pop    %ebx
    3c16:	5d                   	pop    %ebp
    3c17:	e9 84 6f 01 00       	jmp    1aba0 <async_answer_0>
    3c1c:	8d 74 26 00          	lea    0x0(%esi,%eiz,1),%esi
    3c20:	89 5d 08             	mov    %ebx,0x8(%ebp)
    3c23:	c7 45 0c f5 ff ff ff 	movl   $0xfffffff5,0xc(%ebp)
    3c2a:	83 c4 14             	add    $0x14,%esp
    3c2d:	5b                   	pop    %ebx
    3c2e:	5d                   	pop    %ebp
    3c2f:	e9 6c 6f 01 00       	jmp    1aba0 <async_answer_0>
    3c34:	8d b6 00 00 00 00    	lea    0x0(%esi),%esi
    3c3a:	8d bf 00 00 00 00    	lea    0x0(%edi),%edi

00003c40 <remote_hw_res_get_resource_list>:
    3c40:	55                   	push   %ebp
    3c41:	89 e5                	mov    %esp,%ebp
    3c43:	53                   	push   %ebx
    3c44:	83 ec 24             	sub    $0x24,%esp
    3c47:	8b 45 0c             	mov    0xc(%ebp),%eax
    3c4a:	8b 00                	mov    (%eax),%eax
    3c4c:	85 c0                	test   %eax,%eax
    3c4e:	74 48                	je     3c98 <remote_hw_res_get_resource_list+0x58>
    3c50:	8b 55 08             	mov    0x8(%ebp),%edx
    3c53:	89 14 24             	mov    %edx,(%esp)
    3c56:	ff d0                	call   *%eax
    3c58:	89 c3                	mov    %eax,%ebx
    3c5a:	85 c0                	test   %eax,%eax
    3c5c:	74 7a                	je     3cd8 <remote_hw_res_get_resource_list+0x98>
    3c5e:	8b 00                	mov    (%eax),%eax
    3c60:	c7 44 24 04 00 00 00 	movl   $0x0,0x4(%esp)
    3c67:	00 
    3c68:	89 44 24 08          	mov    %eax,0x8(%esp)
    3c6c:	8b 45 10             	mov    0x10(%ebp),%eax
    3c6f:	89 04 24             	mov    %eax,(%esp)
    3c72:	e8 69 6f 01 00       	call   1abe0 <async_answer_1>
    3c77:	8d 45 f4             	lea    -0xc(%ebp),%eax
    3c7a:	89 44 24 04          	mov    %eax,0x4(%esp)
    3c7e:	8d 45 10             	lea    0x10(%ebp),%eax
    3c81:	89 04 24             	mov    %eax,(%esp)
    3c84:	e8 87 84 01 00       	call   1c110 <async_data_read_receive>
    3c89:	84 c0                	test   %al,%al
    3c8b:	75 2b                	jne    3cb8 <remote_hw_res_get_resource_list+0x78>
    3c8d:	83 c4 24             	add    $0x24,%esp
    3c90:	5b                   	pop    %ebx
    3c91:	5d                   	pop    %ebp
    3c92:	c3                   	ret    
    3c93:	90                   	nop
    3c94:	8d 74 26 00          	lea    0x0(%esi,%eiz,1),%esi
    3c98:	8b 45 10             	mov    0x10(%ebp),%eax
    3c9b:	c7 44 24 04 f5 ff ff 	movl   $0xfffffff5,0x4(%esp)
    3ca2:	ff 
    3ca3:	89 04 24             	mov    %eax,(%esp)
    3ca6:	e8 f5 6e 01 00       	call   1aba0 <async_answer_0>
    3cab:	83 c4 24             	add    $0x24,%esp
    3cae:	5b                   	pop    %ebx
    3caf:	5d                   	pop    %ebp
    3cb0:	c3                   	ret    
    3cb1:	8d b4 26 00 00 00 00 	lea    0x0(%esi,%eiz,1),%esi
    3cb8:	8b 45 f4             	mov    -0xc(%ebp),%eax
    3cbb:	89 44 24 08          	mov    %eax,0x8(%esp)
    3cbf:	8b 43 04             	mov    0x4(%ebx),%eax
    3cc2:	89 44 24 04          	mov    %eax,0x4(%esp)
    3cc6:	8b 45 10             	mov    0x10(%ebp),%eax
    3cc9:	89 04 24             	mov    %eax,(%esp)
    3ccc:	e8 9f 84 01 00       	call   1c170 <async_data_read_finalize>
    3cd1:	83 c4 24             	add    $0x24,%esp
    3cd4:	5b                   	pop    %ebx
    3cd5:	5d                   	pop    %ebp
    3cd6:	c3                   	ret    
    3cd7:	90                   	nop
    3cd8:	8b 45 10             	mov    0x10(%ebp),%eax
    3cdb:	c7 44 24 04 ff ff ff 	movl   $0xffffffff,0x4(%esp)
    3ce2:	ff 
    3ce3:	89 04 24             	mov    %eax,(%esp)
    3ce6:	e8 b5 6e 01 00       	call   1aba0 <async_answer_0>
    3ceb:	83 c4 24             	add    $0x24,%esp
    3cee:	5b                   	pop    %ebx
    3cef:	5d                   	pop    %ebp
    3cf0:	c3                   	ret    
    3cf1:	66 90                	xchg   %ax,%ax
    3cf3:	66 90                	xchg   %ax,%ax
    3cf5:	66 90                	xchg   %ax,%ax
    3cf7:	66 90                	xchg   %ax,%ax
    3cf9:	66 90                	xchg   %ax,%ax
    3cfb:	66 90                	xchg   %ax,%ax
    3cfd:	66 90                	xchg   %ax,%ax
    3cff:	90                   	nop

00003d00 <remote_char_write>:
    3d00:	55                   	push   %ebp
    3d01:	89 e5                	mov    %esp,%ebp
    3d03:	56                   	push   %esi
    3d04:	53                   	push   %ebx
    3d05:	81 ec 20 01 00 00    	sub    $0x120,%esp
    3d0b:	8d 85 f4 fe ff ff    	lea    -0x10c(%ebp),%eax
    3d11:	8b 5d 0c             	mov    0xc(%ebp),%ebx
    3d14:	89 44 24 04          	mov    %eax,0x4(%esp)
    3d18:	8d 85 f0 fe ff ff    	lea    -0x110(%ebp),%eax
    3d1e:	89 04 24             	mov    %eax,(%esp)
    3d21:	e8 0a 89 01 00       	call   1c630 <async_data_write_receive>
    3d26:	84 c0                	test   %al,%al
    3d28:	0f 84 82 00 00 00    	je     3db0 <remote_char_write+0xb0>
    3d2e:	8b 43 04             	mov    0x4(%ebx),%eax
    3d31:	85 c0                	test   %eax,%eax
    3d33:	0f 84 b7 00 00 00    	je     3df0 <remote_char_write+0xf0>
    3d39:	8b 85 f4 fe ff ff    	mov    -0x10c(%ebp),%eax
    3d3f:	3d 00 01 00 00       	cmp    $0x100,%eax
    3d44:	76 0f                	jbe    3d55 <remote_char_write+0x55>
    3d46:	c7 85 f4 fe ff ff 00 	movl   $0x100,-0x10c(%ebp)
    3d4d:	01 00 00 
    3d50:	b8 00 01 00 00       	mov    $0x100,%eax
    3d55:	89 44 24 08          	mov    %eax,0x8(%esp)
    3d59:	8d b5 f8 fe ff ff    	lea    -0x108(%ebp),%esi
    3d5f:	8b 85 f0 fe ff ff    	mov    -0x110(%ebp),%eax
    3d65:	89 74 24 04          	mov    %esi,0x4(%esp)
    3d69:	89 04 24             	mov    %eax,(%esp)
    3d6c:	e8 0f 89 01 00       	call   1c680 <async_data_write_finalize>
    3d71:	8b 85 f4 fe ff ff    	mov    -0x10c(%ebp),%eax
    3d77:	89 44 24 08          	mov    %eax,0x8(%esp)
    3d7b:	8b 45 08             	mov    0x8(%ebp),%eax
    3d7e:	89 74 24 04          	mov    %esi,0x4(%esp)
    3d82:	89 04 24             	mov    %eax,(%esp)
    3d85:	ff 53 04             	call   *0x4(%ebx)
    3d88:	85 c0                	test   %eax,%eax
    3d8a:	78 44                	js     3dd0 <remote_char_write+0xd0>
    3d8c:	89 44 24 08          	mov    %eax,0x8(%esp)
    3d90:	8b 45 10             	mov    0x10(%ebp),%eax
    3d93:	c7 44 24 04 00 00 00 	movl   $0x0,0x4(%esp)
    3d9a:	00 
    3d9b:	89 04 24             	mov    %eax,(%esp)
    3d9e:	e8 3d 6e 01 00       	call   1abe0 <async_answer_1>
    3da3:	81 c4 20 01 00 00    	add    $0x120,%esp
    3da9:	5b                   	pop    %ebx
    3daa:	5e                   	pop    %esi
    3dab:	5d                   	pop    %ebp
    3dac:	c3                   	ret    
    3dad:	8d 76 00             	lea    0x0(%esi),%esi
    3db0:	8b 45 10             	mov    0x10(%ebp),%eax
    3db3:	c7 44 24 04 f2 ff ff 	movl   $0xfffffff2,0x4(%esp)
    3dba:	ff 
    3dbb:	89 04 24             	mov    %eax,(%esp)
    3dbe:	e8 dd 6d 01 00       	call   1aba0 <async_answer_0>
    3dc3:	81 c4 20 01 00 00    	add    $0x120,%esp
    3dc9:	5b                   	pop    %ebx
    3dca:	5e                   	pop    %esi
    3dcb:	5d                   	pop    %ebp
    3dcc:	c3                   	ret    
    3dcd:	8d 76 00             	lea    0x0(%esi),%esi
    3dd0:	89 44 24 04          	mov    %eax,0x4(%esp)
    3dd4:	8b 45 10             	mov    0x10(%ebp),%eax
    3dd7:	89 04 24             	mov    %eax,(%esp)
    3dda:	e8 c1 6d 01 00       	call   1aba0 <async_answer_0>
    3ddf:	81 c4 20 01 00 00    	add    $0x120,%esp
    3de5:	5b                   	pop    %ebx
    3de6:	5e                   	pop    %esi
    3de7:	5d                   	pop    %ebp
    3de8:	c3                   	ret    
    3de9:	8d b4 26 00 00 00 00 	lea    0x0(%esi,%eiz,1),%esi
    3df0:	8b 85 f0 fe ff ff    	mov    -0x110(%ebp),%eax
    3df6:	c7 44 24 08 00 00 00 	movl   $0x0,0x8(%esp)
    3dfd:	00 
    3dfe:	c7 44 24 04 00 00 00 	movl   $0x0,0x4(%esp)
    3e05:	00 
    3e06:	89 04 24             	mov    %eax,(%esp)
    3e09:	e8 72 88 01 00       	call   1c680 <async_data_write_finalize>
    3e0e:	8b 45 10             	mov    0x10(%ebp),%eax
    3e11:	c7 44 24 04 f5 ff ff 	movl   $0xfffffff5,0x4(%esp)
    3e18:	ff 
    3e19:	89 04 24             	mov    %eax,(%esp)
    3e1c:	e8 7f 6d 01 00       	call   1aba0 <async_answer_0>
    3e21:	e9 7d ff ff ff       	jmp    3da3 <remote_char_write+0xa3>
    3e26:	8d 76 00             	lea    0x0(%esi),%esi
    3e29:	8d bc 27 00 00 00 00 	lea    0x0(%edi,%eiz,1),%edi

00003e30 <remote_char_read>:
    3e30:	55                   	push   %ebp
    3e31:	89 e5                	mov    %esp,%ebp
    3e33:	56                   	push   %esi
    3e34:	53                   	push   %ebx
    3e35:	81 ec 20 01 00 00    	sub    $0x120,%esp
    3e3b:	8d 85 f4 fe ff ff    	lea    -0x10c(%ebp),%eax
    3e41:	89 44 24 04          	mov    %eax,0x4(%esp)
    3e45:	8d 85 f0 fe ff ff    	lea    -0x110(%ebp),%eax
    3e4b:	89 04 24             	mov    %eax,(%esp)
    3e4e:	e8 bd 82 01 00       	call   1c110 <async_data_read_receive>
    3e53:	84 c0                	test   %al,%al
    3e55:	0f 84 b5 00 00 00    	je     3f10 <remote_char_read+0xe0>
    3e5b:	8b 45 0c             	mov    0xc(%ebp),%eax
    3e5e:	8b 10                	mov    (%eax),%edx
    3e60:	85 d2                	test   %edx,%edx
    3e62:	0f 84 c8 00 00 00    	je     3f30 <remote_char_read+0x100>
    3e68:	8b 85 f4 fe ff ff    	mov    -0x10c(%ebp),%eax
    3e6e:	3d 00 01 00 00       	cmp    $0x100,%eax
    3e73:	76 0f                	jbe    3e84 <remote_char_read+0x54>
    3e75:	c7 85 f4 fe ff ff 00 	movl   $0x100,-0x10c(%ebp)
    3e7c:	01 00 00 
    3e7f:	b8 00 01 00 00       	mov    $0x100,%eax
    3e84:	89 44 24 08          	mov    %eax,0x8(%esp)
    3e88:	8d b5 f8 fe ff ff    	lea    -0x108(%ebp),%esi
    3e8e:	8b 45 08             	mov    0x8(%ebp),%eax
    3e91:	89 74 24 04          	mov    %esi,0x4(%esp)
    3e95:	89 04 24             	mov    %eax,(%esp)
    3e98:	ff d2                	call   *%edx
    3e9a:	89 c3                	mov    %eax,%ebx
    3e9c:	85 c0                	test   %eax,%eax
    3e9e:	78 38                	js     3ed8 <remote_char_read+0xa8>
    3ea0:	89 44 24 08          	mov    %eax,0x8(%esp)
    3ea4:	8b 85 f0 fe ff ff    	mov    -0x110(%ebp),%eax
    3eaa:	89 74 24 04          	mov    %esi,0x4(%esp)
    3eae:	89 04 24             	mov    %eax,(%esp)
    3eb1:	e8 ba 82 01 00       	call   1c170 <async_data_read_finalize>
    3eb6:	8b 45 10             	mov    0x10(%ebp),%eax
    3eb9:	89 5c 24 08          	mov    %ebx,0x8(%esp)
    3ebd:	c7 44 24 04 00 00 00 	movl   $0x0,0x4(%esp)
    3ec4:	00 
    3ec5:	89 04 24             	mov    %eax,(%esp)
    3ec8:	e8 13 6d 01 00       	call   1abe0 <async_answer_1>
    3ecd:	81 c4 20 01 00 00    	add    $0x120,%esp
    3ed3:	5b                   	pop    %ebx
    3ed4:	5e                   	pop    %esi
    3ed5:	5d                   	pop    %ebp
    3ed6:	c3                   	ret    
    3ed7:	90                   	nop
    3ed8:	8b 85 f0 fe ff ff    	mov    -0x110(%ebp),%eax
    3ede:	89 74 24 04          	mov    %esi,0x4(%esp)
    3ee2:	c7 44 24 08 00 00 00 	movl   $0x0,0x8(%esp)
    3ee9:	00 
    3eea:	89 04 24             	mov    %eax,(%esp)
    3eed:	e8 7e 82 01 00       	call   1c170 <async_data_read_finalize>
    3ef2:	8b 45 10             	mov    0x10(%ebp),%eax
    3ef5:	89 5c 24 04          	mov    %ebx,0x4(%esp)
    3ef9:	89 04 24             	mov    %eax,(%esp)
    3efc:	e8 9f 6c 01 00       	call   1aba0 <async_answer_0>
    3f01:	81 c4 20 01 00 00    	add    $0x120,%esp
    3f07:	5b                   	pop    %ebx
    3f08:	5e                   	pop    %esi
    3f09:	5d                   	pop    %ebp
    3f0a:	c3                   	ret    
    3f0b:	90                   	nop
    3f0c:	8d 74 26 00          	lea    0x0(%esi,%eiz,1),%esi
    3f10:	8b 45 10             	mov    0x10(%ebp),%eax
    3f13:	c7 44 24 04 f2 ff ff 	movl   $0xfffffff2,0x4(%esp)
    3f1a:	ff 
    3f1b:	89 04 24             	mov    %eax,(%esp)
    3f1e:	e8 7d 6c 01 00       	call   1aba0 <async_answer_0>
    3f23:	81 c4 20 01 00 00    	add    $0x120,%esp
    3f29:	5b                   	pop    %ebx
    3f2a:	5e                   	pop    %esi
    3f2b:	5d                   	pop    %ebp
    3f2c:	c3                   	ret    
    3f2d:	8d 76 00             	lea    0x0(%esi),%esi
    3f30:	8b 85 f0 fe ff ff    	mov    -0x110(%ebp),%eax
    3f36:	c7 44 24 08 00 00 00 	movl   $0x0,0x8(%esp)
    3f3d:	00 
    3f3e:	c7 44 24 04 00 00 00 	movl   $0x0,0x4(%esp)
    3f45:	00 
    3f46:	89 04 24             	mov    %eax,(%esp)
    3f49:	e8 22 82 01 00       	call   1c170 <async_data_read_finalize>
    3f4e:	8b 45 10             	mov    0x10(%ebp),%eax
    3f51:	c7 44 24 04 f5 ff ff 	movl   $0xfffffff5,0x4(%esp)
    3f58:	ff 
    3f59:	89 04 24             	mov    %eax,(%esp)
    3f5c:	e8 3f 6c 01 00       	call   1aba0 <async_answer_0>
    3f61:	e9 67 ff ff ff       	jmp    3ecd <remote_char_read+0x9d>
    3f66:	66 90                	xchg   %ax,%ax
    3f68:	66 90                	xchg   %ax,%ax
    3f6a:	66 90                	xchg   %ax,%ax
    3f6c:	66 90                	xchg   %ax,%ax
    3f6e:	66 90                	xchg   %ax,%ax

00003f70 <remote_graph_connect>:
    3f70:	55                   	push   %ebp
    3f71:	89 e5                	mov    %esp,%ebp
    3f73:	57                   	push   %edi
    3f74:	56                   	push   %esi
    3f75:	53                   	push   %ebx
    3f76:	83 ec 2c             	sub    $0x2c,%esp
    3f79:	8b 5d 0c             	mov    0xc(%ebp),%ebx
    3f7c:	8b 55 14             	mov    0x14(%ebp),%edx
    3f7f:	8b 7d 08             	mov    0x8(%ebp),%edi
    3f82:	8b 75 10             	mov    0x10(%ebp),%esi
    3f85:	8b 03                	mov    (%ebx),%eax
    3f87:	89 55 e4             	mov    %edx,-0x1c(%ebp)
    3f8a:	85 c0                	test   %eax,%eax
    3f8c:	74 3a                	je     3fc8 <remote_graph_connect+0x58>
    3f8e:	89 3c 24             	mov    %edi,(%esp)
    3f91:	e8 0a f3 ff ff       	call   32a0 <ddf_fun_data_get>
    3f96:	85 c0                	test   %eax,%eax
    3f98:	74 2e                	je     3fc8 <remote_graph_connect+0x58>
    3f9a:	8b 1b                	mov    (%ebx),%ebx
    3f9c:	89 3c 24             	mov    %edi,(%esp)
    3f9f:	e8 fc f2 ff ff       	call   32a0 <ddf_fun_data_get>
    3fa4:	8b 55 e4             	mov    -0x1c(%ebp),%edx
    3fa7:	89 75 0c             	mov    %esi,0xc(%ebp)
    3faa:	89 45 08             	mov    %eax,0x8(%ebp)
    3fad:	c7 45 14 00 00 00 00 	movl   $0x0,0x14(%ebp)
    3fb4:	89 55 10             	mov    %edx,0x10(%ebp)
    3fb7:	83 c4 2c             	add    $0x2c,%esp
    3fba:	89 d8                	mov    %ebx,%eax
    3fbc:	5b                   	pop    %ebx
    3fbd:	5e                   	pop    %esi
    3fbe:	5f                   	pop    %edi
    3fbf:	5d                   	pop    %ebp
    3fc0:	ff e0                	jmp    *%eax
    3fc2:	8d b6 00 00 00 00    	lea    0x0(%esi),%esi
    3fc8:	89 75 08             	mov    %esi,0x8(%ebp)
    3fcb:	c7 45 0c f5 ff ff ff 	movl   $0xfffffff5,0xc(%ebp)
    3fd2:	83 c4 2c             	add    $0x2c,%esp
    3fd5:	5b                   	pop    %ebx
    3fd6:	5e                   	pop    %esi
    3fd7:	5f                   	pop    %edi
    3fd8:	5d                   	pop    %ebp
    3fd9:	e9 c2 6b 01 00       	jmp    1aba0 <async_answer_0>
    3fde:	66 90                	xchg   %ax,%ax

00003fe0 <remote_nic_poll_now>:
    3fe0:	55                   	push   %ebp
    3fe1:	89 e5                	mov    %esp,%ebp
    3fe3:	53                   	push   %ebx
    3fe4:	83 ec 14             	sub    $0x14,%esp
    3fe7:	8b 45 0c             	mov    0xc(%ebp),%eax
    3fea:	8b 55 08             	mov    0x8(%ebp),%edx
    3fed:	8b 5d 10             	mov    0x10(%ebp),%ebx
    3ff0:	8b 80 a0 00 00 00    	mov    0xa0(%eax),%eax
    3ff6:	85 c0                	test   %eax,%eax
    3ff8:	74 16                	je     4010 <remote_nic_poll_now+0x30>
    3ffa:	89 14 24             	mov    %edx,(%esp)
    3ffd:	ff d0                	call   *%eax
    3fff:	89 5d 08             	mov    %ebx,0x8(%ebp)
    4002:	89 45 0c             	mov    %eax,0xc(%ebp)
    4005:	83 c4 14             	add    $0x14,%esp
    4008:	5b                   	pop    %ebx
    4009:	5d                   	pop    %ebp
    400a:	e9 91 6b 01 00       	jmp    1aba0 <async_answer_0>
    400f:	90                   	nop
    4010:	89 5d 08             	mov    %ebx,0x8(%ebp)
    4013:	c7 45 0c f5 ff ff ff 	movl   $0xfffffff5,0xc(%ebp)
    401a:	83 c4 14             	add    $0x14,%esp
    401d:	5b                   	pop    %ebx
    401e:	5d                   	pop    %ebp
    401f:	e9 7c 6b 01 00       	jmp    1aba0 <async_answer_0>
    4024:	8d b6 00 00 00 00    	lea    0x0(%esi),%esi
    402a:	8d bf 00 00 00 00    	lea    0x0(%edi),%edi

00004030 <remote_nic_offload_set>:
    4030:	55                   	push   %ebp
    4031:	89 e5                	mov    %esp,%ebp
    4033:	56                   	push   %esi
    4034:	53                   	push   %ebx
    4035:	83 ec 10             	sub    $0x10,%esp
    4038:	8b 45 0c             	mov    0xc(%ebp),%eax
    403b:	8b 4d 08             	mov    0x8(%ebp),%ecx
    403e:	8b 5d 10             	mov    0x10(%ebp),%ebx
    4041:	8b 55 14             	mov    0x14(%ebp),%edx
    4044:	8b 80 94 00 00 00    	mov    0x94(%eax),%eax
    404a:	85 c0                	test   %eax,%eax
    404c:	74 2a                	je     4078 <remote_nic_offload_set+0x48>
    404e:	8b 72 0c             	mov    0xc(%edx),%esi
    4051:	89 74 24 08          	mov    %esi,0x8(%esp)
    4055:	8b 52 08             	mov    0x8(%edx),%edx
    4058:	89 0c 24             	mov    %ecx,(%esp)
    405b:	89 54 24 04          	mov    %edx,0x4(%esp)
    405f:	ff d0                	call   *%eax
    4061:	89 5d 08             	mov    %ebx,0x8(%ebp)
    4064:	89 45 0c             	mov    %eax,0xc(%ebp)
    4067:	83 c4 10             	add    $0x10,%esp
    406a:	5b                   	pop    %ebx
    406b:	5e                   	pop    %esi
    406c:	5d                   	pop    %ebp
    406d:	e9 2e 6b 01 00       	jmp    1aba0 <async_answer_0>
    4072:	8d b6 00 00 00 00    	lea    0x0(%esi),%esi
    4078:	89 5d 08             	mov    %ebx,0x8(%ebp)
    407b:	c7 45 0c f5 ff ff ff 	movl   $0xfffffff5,0xc(%ebp)
    4082:	83 c4 10             	add    $0x10,%esp
    4085:	5b                   	pop    %ebx
    4086:	5e                   	pop    %esi
    4087:	5d                   	pop    %ebp
    4088:	e9 13 6b 01 00       	jmp    1aba0 <async_answer_0>
    408d:	8d 76 00             	lea    0x0(%esi),%esi

00004090 <remote_nic_wol_virtue_remove>:
    4090:	55                   	push   %ebp
    4091:	89 e5                	mov    %esp,%ebp
    4093:	53                   	push   %ebx
    4094:	83 ec 14             	sub    $0x14,%esp
    4097:	8b 45 0c             	mov    0xc(%ebp),%eax
    409a:	8b 55 08             	mov    0x8(%ebp),%edx
    409d:	8b 5d 10             	mov    0x10(%ebp),%ebx
    40a0:	8b 4d 14             	mov    0x14(%ebp),%ecx
    40a3:	8b 40 7c             	mov    0x7c(%eax),%eax
    40a6:	85 c0                	test   %eax,%eax
    40a8:	74 1e                	je     40c8 <remote_nic_wol_virtue_remove+0x38>
    40aa:	8b 49 08             	mov    0x8(%ecx),%ecx
    40ad:	89 14 24             	mov    %edx,(%esp)
    40b0:	89 4c 24 04          	mov    %ecx,0x4(%esp)
    40b4:	ff d0                	call   *%eax
    40b6:	89 5d 08             	mov    %ebx,0x8(%ebp)
    40b9:	89 45 0c             	mov    %eax,0xc(%ebp)
    40bc:	83 c4 14             	add    $0x14,%esp
    40bf:	5b                   	pop    %ebx
    40c0:	5d                   	pop    %ebp
    40c1:	e9 da 6a 01 00       	jmp    1aba0 <async_answer_0>
    40c6:	66 90                	xchg   %ax,%ax
    40c8:	89 5d 08             	mov    %ebx,0x8(%ebp)
    40cb:	c7 45 0c f5 ff ff ff 	movl   $0xfffffff5,0xc(%ebp)
    40d2:	83 c4 14             	add    $0x14,%esp
    40d5:	5b                   	pop    %ebx
    40d6:	5d                   	pop    %ebp
    40d7:	e9 c4 6a 01 00       	jmp    1aba0 <async_answer_0>
    40dc:	8d 74 26 00          	lea    0x0(%esi,%eiz,1),%esi

000040e0 <remote_nic_vlan_set_tag>:
    40e0:	55                   	push   %ebp
    40e1:	89 e5                	mov    %esp,%ebp
    40e3:	57                   	push   %edi
    40e4:	56                   	push   %esi
    40e5:	53                   	push   %ebx
    40e6:	83 ec 1c             	sub    $0x1c,%esp
    40e9:	8b 55 0c             	mov    0xc(%ebp),%edx
    40ec:	8b 7d 08             	mov    0x8(%ebp),%edi
    40ef:	8b 5d 10             	mov    0x10(%ebp),%ebx
    40f2:	8b 45 14             	mov    0x14(%ebp),%eax
    40f5:	8b 52 74             	mov    0x74(%edx),%edx
    40f8:	85 d2                	test   %edx,%edx
    40fa:	74 4c                	je     4148 <remote_nic_vlan_set_tag+0x68>
    40fc:	8b 48 10             	mov    0x10(%eax),%ecx
    40ff:	85 c9                	test   %ecx,%ecx
    4101:	0f 95 c1             	setne  %cl
    4104:	81 e1 ff 00 00 00    	and    $0xff,%ecx
    410a:	89 4c 24 0c          	mov    %ecx,0xc(%esp)
    410e:	8b 70 0c             	mov    0xc(%eax),%esi
    4111:	85 f6                	test   %esi,%esi
    4113:	0f 95 c1             	setne  %cl
    4116:	81 e1 ff 00 00 00    	and    $0xff,%ecx
    411c:	89 4c 24 08          	mov    %ecx,0x8(%esp)
    4120:	8b 40 08             	mov    0x8(%eax),%eax
    4123:	89 3c 24             	mov    %edi,(%esp)
    4126:	25 ff ff 00 00       	and    $0xffff,%eax
    412b:	89 44 24 04          	mov    %eax,0x4(%esp)
    412f:	ff d2                	call   *%edx
    4131:	89 5d 08             	mov    %ebx,0x8(%ebp)
    4134:	89 45 0c             	mov    %eax,0xc(%ebp)
    4137:	83 c4 1c             	add    $0x1c,%esp
    413a:	5b                   	pop    %ebx
    413b:	5e                   	pop    %esi
    413c:	5f                   	pop    %edi
    413d:	5d                   	pop    %ebp
    413e:	e9 5d 6a 01 00       	jmp    1aba0 <async_answer_0>
    4143:	90                   	nop
    4144:	8d 74 26 00          	lea    0x0(%esi,%eiz,1),%esi
    4148:	89 5d 08             	mov    %ebx,0x8(%ebp)
    414b:	c7 45 0c f5 ff ff ff 	movl   $0xfffffff5,0xc(%ebp)
    4152:	83 c4 1c             	add    $0x1c,%esp
    4155:	5b                   	pop    %ebx
    4156:	5e                   	pop    %esi
    4157:	5f                   	pop    %edi
    4158:	5d                   	pop    %ebp
    4159:	e9 42 6a 01 00       	jmp    1aba0 <async_answer_0>
    415e:	66 90                	xchg   %ax,%ax

00004160 <remote_nic_defective_set_mode>:
    4160:	55                   	push   %ebp
    4161:	89 e5                	mov    %esp,%ebp
    4163:	53                   	push   %ebx
    4164:	83 ec 14             	sub    $0x14,%esp
    4167:	8b 45 0c             	mov    0xc(%ebp),%eax
    416a:	8b 55 08             	mov    0x8(%ebp),%edx
    416d:	8b 5d 10             	mov    0x10(%ebp),%ebx
    4170:	8b 4d 14             	mov    0x14(%ebp),%ecx
    4173:	8b 40 60             	mov    0x60(%eax),%eax
    4176:	85 c0                	test   %eax,%eax
    4178:	74 1e                	je     4198 <remote_nic_defective_set_mode+0x38>
    417a:	8b 49 08             	mov    0x8(%ecx),%ecx
    417d:	89 14 24             	mov    %edx,(%esp)
    4180:	89 4c 24 04          	mov    %ecx,0x4(%esp)
    4184:	ff d0                	call   *%eax
    4186:	89 5d 08             	mov    %ebx,0x8(%ebp)
    4189:	89 45 0c             	mov    %eax,0xc(%ebp)
    418c:	83 c4 14             	add    $0x14,%esp
    418f:	5b                   	pop    %ebx
    4190:	5d                   	pop    %ebp
    4191:	e9 0a 6a 01 00       	jmp    1aba0 <async_answer_0>
    4196:	66 90                	xchg   %ax,%ax
    4198:	89 5d 08             	mov    %ebx,0x8(%ebp)
    419b:	c7 45 0c f5 ff ff ff 	movl   $0xfffffff5,0xc(%ebp)
    41a2:	83 c4 14             	add    $0x14,%esp
    41a5:	5b                   	pop    %ebx
    41a6:	5d                   	pop    %ebp
    41a7:	e9 f4 69 01 00       	jmp    1aba0 <async_answer_0>
    41ac:	8d 74 26 00          	lea    0x0(%esi,%eiz,1),%esi

000041b0 <remote_nic_broadcast_set_mode>:
    41b0:	55                   	push   %ebp
    41b1:	89 e5                	mov    %esp,%ebp
    41b3:	53                   	push   %ebx
    41b4:	83 ec 14             	sub    $0x14,%esp
    41b7:	8b 45 0c             	mov    0xc(%ebp),%eax
    41ba:	8b 55 08             	mov    0x8(%ebp),%edx
    41bd:	8b 5d 10             	mov    0x10(%ebp),%ebx
    41c0:	8b 4d 14             	mov    0x14(%ebp),%ecx
    41c3:	8b 40 58             	mov    0x58(%eax),%eax
    41c6:	85 c0                	test   %eax,%eax
    41c8:	74 1e                	je     41e8 <remote_nic_broadcast_set_mode+0x38>
    41ca:	8b 49 08             	mov    0x8(%ecx),%ecx
    41cd:	89 14 24             	mov    %edx,(%esp)
    41d0:	89 4c 24 04          	mov    %ecx,0x4(%esp)
    41d4:	ff d0                	call   *%eax
    41d6:	89 5d 08             	mov    %ebx,0x8(%ebp)
    41d9:	89 45 0c             	mov    %eax,0xc(%ebp)
    41dc:	83 c4 14             	add    $0x14,%esp
    41df:	5b                   	pop    %ebx
    41e0:	5d                   	pop    %ebp
    41e1:	e9 ba 69 01 00       	jmp    1aba0 <async_answer_0>
    41e6:	66 90                	xchg   %ax,%ax
    41e8:	89 5d 08             	mov    %ebx,0x8(%ebp)
    41eb:	c7 45 0c f5 ff ff ff 	movl   $0xfffffff5,0xc(%ebp)
    41f2:	83 c4 14             	add    $0x14,%esp
    41f5:	5b                   	pop    %ebx
    41f6:	5d                   	pop    %ebp
    41f7:	e9 a4 69 01 00       	jmp    1aba0 <async_answer_0>
    41fc:	8d 74 26 00          	lea    0x0(%esi,%eiz,1),%esi

00004200 <remote_nic_set_pause>:
    4200:	55                   	push   %ebp
    4201:	89 e5                	mov    %esp,%ebp
    4203:	56                   	push   %esi
    4204:	53                   	push   %ebx
    4205:	83 ec 10             	sub    $0x10,%esp
    4208:	8b 55 0c             	mov    0xc(%ebp),%edx
    420b:	8b 4d 08             	mov    0x8(%ebp),%ecx
    420e:	8b 5d 10             	mov    0x10(%ebp),%ebx
    4211:	8b 45 14             	mov    0x14(%ebp),%eax
    4214:	8b 52 40             	mov    0x40(%edx),%edx
    4217:	85 d2                	test   %edx,%edx
    4219:	74 2d                	je     4248 <remote_nic_set_pause+0x48>
    421b:	0f b7 70 10          	movzwl 0x10(%eax),%esi
    421f:	89 74 24 0c          	mov    %esi,0xc(%esp)
    4223:	8b 70 0c             	mov    0xc(%eax),%esi
    4226:	89 74 24 08          	mov    %esi,0x8(%esp)
    422a:	8b 40 08             	mov    0x8(%eax),%eax
    422d:	89 0c 24             	mov    %ecx,(%esp)
    4230:	89 44 24 04          	mov    %eax,0x4(%esp)
    4234:	ff d2                	call   *%edx
    4236:	89 5d 08             	mov    %ebx,0x8(%ebp)
    4239:	89 45 0c             	mov    %eax,0xc(%ebp)
    423c:	83 c4 10             	add    $0x10,%esp
    423f:	5b                   	pop    %ebx
    4240:	5e                   	pop    %esi
    4241:	5d                   	pop    %ebp
    4242:	e9 59 69 01 00       	jmp    1aba0 <async_answer_0>
    4247:	90                   	nop
    4248:	89 5d 08             	mov    %ebx,0x8(%ebp)
    424b:	c7 45 0c f5 ff ff ff 	movl   $0xfffffff5,0xc(%ebp)
    4252:	83 c4 10             	add    $0x10,%esp
    4255:	5b                   	pop    %ebx
    4256:	5e                   	pop    %esi
    4257:	5d                   	pop    %ebp
    4258:	e9 43 69 01 00       	jmp    1aba0 <async_answer_0>
    425d:	8d 76 00             	lea    0x0(%esi),%esi

00004260 <remote_nic_autoneg_restart>:
    4260:	55                   	push   %ebp
    4261:	89 e5                	mov    %esp,%ebp
    4263:	53                   	push   %ebx
    4264:	83 ec 14             	sub    $0x14,%esp
    4267:	8b 45 0c             	mov    0xc(%ebp),%eax
    426a:	8b 55 08             	mov    0x8(%ebp),%edx
    426d:	8b 5d 10             	mov    0x10(%ebp),%ebx
    4270:	8b 40 38             	mov    0x38(%eax),%eax
    4273:	85 c0                	test   %eax,%eax
    4275:	74 19                	je     4290 <remote_nic_autoneg_restart+0x30>
    4277:	89 14 24             	mov    %edx,(%esp)
    427a:	ff d0                	call   *%eax
    427c:	89 5d 08             	mov    %ebx,0x8(%ebp)
    427f:	89 45 0c             	mov    %eax,0xc(%ebp)
    4282:	83 c4 14             	add    $0x14,%esp
    4285:	5b                   	pop    %ebx
    4286:	5d                   	pop    %ebp
    4287:	e9 14 69 01 00       	jmp    1aba0 <async_answer_0>
    428c:	8d 74 26 00          	lea    0x0(%esi,%eiz,1),%esi
    4290:	89 5d 08             	mov    %ebx,0x8(%ebp)
    4293:	c7 45 0c f5 ff ff ff 	movl   $0xfffffff5,0xc(%ebp)
    429a:	83 c4 14             	add    $0x14,%esp
    429d:	5b                   	pop    %ebx
    429e:	5d                   	pop    %ebp
    429f:	e9 fc 68 01 00       	jmp    1aba0 <async_answer_0>
    42a4:	8d b6 00 00 00 00    	lea    0x0(%esi),%esi
    42aa:	8d bf 00 00 00 00    	lea    0x0(%edi),%edi

000042b0 <remote_nic_autoneg_disable>:
    42b0:	55                   	push   %ebp
    42b1:	89 e5                	mov    %esp,%ebp
    42b3:	53                   	push   %ebx
    42b4:	83 ec 14             	sub    $0x14,%esp
    42b7:	8b 45 0c             	mov    0xc(%ebp),%eax
    42ba:	8b 55 08             	mov    0x8(%ebp),%edx
    42bd:	8b 5d 10             	mov    0x10(%ebp),%ebx
    42c0:	8b 40 30             	mov    0x30(%eax),%eax
    42c3:	85 c0                	test   %eax,%eax
    42c5:	74 19                	je     42e0 <remote_nic_autoneg_disable+0x30>
    42c7:	89 14 24             	mov    %edx,(%esp)
    42ca:	ff d0                	call   *%eax
    42cc:	89 5d 08             	mov    %ebx,0x8(%ebp)
    42cf:	89 45 0c             	mov    %eax,0xc(%ebp)
    42d2:	83 c4 14             	add    $0x14,%esp
    42d5:	5b                   	pop    %ebx
    42d6:	5d                   	pop    %ebp
    42d7:	e9 c4 68 01 00       	jmp    1aba0 <async_answer_0>
    42dc:	8d 74 26 00          	lea    0x0(%esi,%eiz,1),%esi
    42e0:	89 5d 08             	mov    %ebx,0x8(%ebp)
    42e3:	c7 45 0c f5 ff ff ff 	movl   $0xfffffff5,0xc(%ebp)
    42ea:	83 c4 14             	add    $0x14,%esp
    42ed:	5b                   	pop    %ebx
    42ee:	5d                   	pop    %ebp
    42ef:	e9 ac 68 01 00       	jmp    1aba0 <async_answer_0>
    42f4:	8d b6 00 00 00 00    	lea    0x0(%esi),%esi
    42fa:	8d bf 00 00 00 00    	lea    0x0(%edi),%edi

00004300 <remote_nic_autoneg_enable>:
    4300:	55                   	push   %ebp
    4301:	89 e5                	mov    %esp,%ebp
    4303:	53                   	push   %ebx
    4304:	83 ec 14             	sub    $0x14,%esp
    4307:	8b 45 0c             	mov    0xc(%ebp),%eax
    430a:	8b 55 08             	mov    0x8(%ebp),%edx
    430d:	8b 5d 10             	mov    0x10(%ebp),%ebx
    4310:	8b 4d 14             	mov    0x14(%ebp),%ecx
    4313:	8b 40 2c             	mov    0x2c(%eax),%eax
    4316:	85 c0                	test   %eax,%eax
    4318:	74 1e                	je     4338 <remote_nic_autoneg_enable+0x38>
    431a:	8b 49 08             	mov    0x8(%ecx),%ecx
    431d:	89 14 24             	mov    %edx,(%esp)
    4320:	89 4c 24 04          	mov    %ecx,0x4(%esp)
    4324:	ff d0                	call   *%eax
    4326:	89 5d 08             	mov    %ebx,0x8(%ebp)
    4329:	89 45 0c             	mov    %eax,0xc(%ebp)
    432c:	83 c4 14             	add    $0x14,%esp
    432f:	5b                   	pop    %ebx
    4330:	5d                   	pop    %ebp
    4331:	e9 6a 68 01 00       	jmp    1aba0 <async_answer_0>
    4336:	66 90                	xchg   %ax,%ax
    4338:	89 5d 08             	mov    %ebx,0x8(%ebp)
    433b:	c7 45 0c f5 ff ff ff 	movl   $0xfffffff5,0xc(%ebp)
    4342:	83 c4 14             	add    $0x14,%esp
    4345:	5b                   	pop    %ebx
    4346:	5d                   	pop    %ebp
    4347:	e9 54 68 01 00       	jmp    1aba0 <async_answer_0>
    434c:	8d 74 26 00          	lea    0x0(%esi,%eiz,1),%esi

00004350 <remote_nic_set_operation_mode>:
    4350:	55                   	push   %ebp
    4351:	89 e5                	mov    %esp,%ebp
    4353:	56                   	push   %esi
    4354:	53                   	push   %ebx
    4355:	83 ec 10             	sub    $0x10,%esp
    4358:	8b 55 0c             	mov    0xc(%ebp),%edx
    435b:	8b 4d 08             	mov    0x8(%ebp),%ecx
    435e:	8b 5d 10             	mov    0x10(%ebp),%ebx
    4361:	8b 45 14             	mov    0x14(%ebp),%eax
    4364:	8b 52 28             	mov    0x28(%edx),%edx
    4367:	85 d2                	test   %edx,%edx
    4369:	74 2d                	je     4398 <remote_nic_set_operation_mode+0x48>
    436b:	8b 70 10             	mov    0x10(%eax),%esi
    436e:	89 74 24 0c          	mov    %esi,0xc(%esp)
    4372:	8b 70 0c             	mov    0xc(%eax),%esi
    4375:	89 74 24 08          	mov    %esi,0x8(%esp)
    4379:	8b 40 08             	mov    0x8(%eax),%eax
    437c:	89 0c 24             	mov    %ecx,(%esp)
    437f:	89 44 24 04          	mov    %eax,0x4(%esp)
    4383:	ff d2                	call   *%edx
    4385:	89 5d 08             	mov    %ebx,0x8(%ebp)
    4388:	89 45 0c             	mov    %eax,0xc(%ebp)
    438b:	83 c4 10             	add    $0x10,%esp
    438e:	5b                   	pop    %ebx
    438f:	5e                   	pop    %esi
    4390:	5d                   	pop    %ebp
    4391:	e9 0a 68 01 00       	jmp    1aba0 <async_answer_0>
    4396:	66 90                	xchg   %ax,%ax
    4398:	89 5d 08             	mov    %ebx,0x8(%ebp)
    439b:	c7 45 0c f5 ff ff ff 	movl   $0xfffffff5,0xc(%ebp)
    43a2:	83 c4 10             	add    $0x10,%esp
    43a5:	5b                   	pop    %ebx
    43a6:	5e                   	pop    %esi
    43a7:	5d                   	pop    %ebp
    43a8:	e9 f3 67 01 00       	jmp    1aba0 <async_answer_0>
    43ad:	8d 76 00             	lea    0x0(%esi),%esi

000043b0 <remote_nic_poll_set_mode>:
    43b0:	55                   	push   %ebp
    43b1:	31 d2                	xor    %edx,%edx
    43b3:	89 e5                	mov    %esp,%ebp
    43b5:	56                   	push   %esi
    43b6:	53                   	push   %ebx
    43b7:	83 ec 20             	sub    $0x20,%esp
    43ba:	8b 45 14             	mov    0x14(%ebp),%eax
    43bd:	8b 58 08             	mov    0x8(%eax),%ebx
    43c0:	8b 40 0c             	mov    0xc(%eax),%eax
    43c3:	85 c0                	test   %eax,%eax
    43c5:	75 39                	jne    4400 <remote_nic_poll_set_mode+0x50>
    43c7:	8b 45 0c             	mov    0xc(%ebp),%eax
    43ca:	8b 80 9c 00 00 00    	mov    0x9c(%eax),%eax
    43d0:	85 c0                	test   %eax,%eax
    43d2:	0f 84 b8 00 00 00    	je     4490 <remote_nic_poll_set_mode+0xe0>
    43d8:	89 54 24 08          	mov    %edx,0x8(%esp)
    43dc:	8b 55 08             	mov    0x8(%ebp),%edx
    43df:	89 5c 24 04          	mov    %ebx,0x4(%esp)
    43e3:	89 14 24             	mov    %edx,(%esp)
    43e6:	ff d0                	call   *%eax
    43e8:	89 44 24 04          	mov    %eax,0x4(%esp)
    43ec:	8b 45 10             	mov    0x10(%ebp),%eax
    43ef:	89 04 24             	mov    %eax,(%esp)
    43f2:	e8 a9 67 01 00       	call   1aba0 <async_answer_0>
    43f7:	83 c4 20             	add    $0x20,%esp
    43fa:	5b                   	pop    %ebx
    43fb:	5e                   	pop    %esi
    43fc:	5d                   	pop    %ebp
    43fd:	c3                   	ret    
    43fe:	66 90                	xchg   %ax,%ax
    4400:	8d 45 e8             	lea    -0x18(%ebp),%eax
    4403:	89 44 24 04          	mov    %eax,0x4(%esp)
    4407:	8d 45 ec             	lea    -0x14(%ebp),%eax
    440a:	89 04 24             	mov    %eax,(%esp)
    440d:	e8 1e 82 01 00       	call   1c630 <async_data_write_receive>
    4412:	84 c0                	test   %al,%al
    4414:	0f 84 96 00 00 00    	je     44b0 <remote_nic_poll_set_mode+0x100>
    441a:	83 7d e8 08          	cmpl   $0x8,-0x18(%ebp)
    441e:	74 30                	je     4450 <remote_nic_poll_set_mode+0xa0>
    4420:	8b 45 ec             	mov    -0x14(%ebp),%eax
    4423:	c7 44 24 04 fd ff ff 	movl   $0xfffffffd,0x4(%esp)
    442a:	ff 
    442b:	89 04 24             	mov    %eax,(%esp)
    442e:	e8 6d 67 01 00       	call   1aba0 <async_answer_0>
    4433:	8b 45 10             	mov    0x10(%ebp),%eax
    4436:	c7 44 24 04 fd ff ff 	movl   $0xfffffffd,0x4(%esp)
    443d:	ff 
    443e:	89 04 24             	mov    %eax,(%esp)
    4441:	e8 5a 67 01 00       	call   1aba0 <async_answer_0>
    4446:	83 c4 20             	add    $0x20,%esp
    4449:	5b                   	pop    %ebx
    444a:	5e                   	pop    %esi
    444b:	5d                   	pop    %ebp
    444c:	c3                   	ret    
    444d:	8d 76 00             	lea    0x0(%esi),%esi
    4450:	8d 75 f0             	lea    -0x10(%ebp),%esi
    4453:	8b 45 ec             	mov    -0x14(%ebp),%eax
    4456:	c7 44 24 08 08 00 00 	movl   $0x8,0x8(%esp)
    445d:	00 
    445e:	89 74 24 04          	mov    %esi,0x4(%esp)
    4462:	89 04 24             	mov    %eax,(%esp)
    4465:	e8 16 82 01 00       	call   1c680 <async_data_write_finalize>
    446a:	89 f2                	mov    %esi,%edx
    446c:	85 c0                	test   %eax,%eax
    446e:	0f 84 53 ff ff ff    	je     43c7 <remote_nic_poll_set_mode+0x17>
    4474:	8b 45 10             	mov    0x10(%ebp),%eax
    4477:	c7 44 24 04 f2 ff ff 	movl   $0xfffffff2,0x4(%esp)
    447e:	ff 
    447f:	89 04 24             	mov    %eax,(%esp)
    4482:	e8 19 67 01 00       	call   1aba0 <async_answer_0>
    4487:	e9 6b ff ff ff       	jmp    43f7 <remote_nic_poll_set_mode+0x47>
    448c:	8d 74 26 00          	lea    0x0(%esi,%eiz,1),%esi
    4490:	8b 45 10             	mov    0x10(%ebp),%eax
    4493:	c7 44 24 04 f5 ff ff 	movl   $0xfffffff5,0x4(%esp)
    449a:	ff 
    449b:	89 04 24             	mov    %eax,(%esp)
    449e:	e8 fd 66 01 00       	call   1aba0 <async_answer_0>
    44a3:	83 c4 20             	add    $0x20,%esp
    44a6:	5b                   	pop    %ebx
    44a7:	5e                   	pop    %esi
    44a8:	5d                   	pop    %ebp
    44a9:	c3                   	ret    
    44aa:	8d b6 00 00 00 00    	lea    0x0(%esi),%esi
    44b0:	8b 45 ec             	mov    -0x14(%ebp),%eax
    44b3:	c7 44 24 04 f2 ff ff 	movl   $0xfffffff2,0x4(%esp)
    44ba:	ff 
    44bb:	89 04 24             	mov    %eax,(%esp)
    44be:	e8 dd 66 01 00       	call   1aba0 <async_answer_0>
    44c3:	8b 45 10             	mov    0x10(%ebp),%eax
    44c6:	c7 44 24 04 f2 ff ff 	movl   $0xfffffff2,0x4(%esp)
    44cd:	ff 
    44ce:	89 04 24             	mov    %eax,(%esp)
    44d1:	e8 ca 66 01 00       	call   1aba0 <async_answer_0>
    44d6:	e9 1c ff ff ff       	jmp    43f7 <remote_nic_poll_set_mode+0x47>
    44db:	90                   	nop
    44dc:	8d 74 26 00          	lea    0x0(%esi,%eiz,1),%esi

000044e0 <remote_nic_vlan_set_mask>:
    44e0:	55                   	push   %ebp
    44e1:	31 d2                	xor    %edx,%edx
    44e3:	89 e5                	mov    %esp,%ebp
    44e5:	53                   	push   %ebx
    44e6:	81 ec 24 02 00 00    	sub    $0x224,%esp
    44ec:	8b 45 14             	mov    0x14(%ebp),%eax
    44ef:	8b 40 08             	mov    0x8(%eax),%eax
    44f2:	85 c0                	test   %eax,%eax
    44f4:	75 32                	jne    4528 <remote_nic_vlan_set_mask+0x48>
    44f6:	8b 45 0c             	mov    0xc(%ebp),%eax
    44f9:	8b 40 70             	mov    0x70(%eax),%eax
    44fc:	85 c0                	test   %eax,%eax
    44fe:	0f 84 cc 00 00 00    	je     45d0 <remote_nic_vlan_set_mask+0xf0>
    4504:	89 54 24 04          	mov    %edx,0x4(%esp)
    4508:	8b 55 08             	mov    0x8(%ebp),%edx
    450b:	89 14 24             	mov    %edx,(%esp)
    450e:	ff d0                	call   *%eax
    4510:	89 44 24 04          	mov    %eax,0x4(%esp)
    4514:	8b 45 10             	mov    0x10(%ebp),%eax
    4517:	89 04 24             	mov    %eax,(%esp)
    451a:	e8 81 66 01 00       	call   1aba0 <async_answer_0>
    451f:	81 c4 24 02 00 00    	add    $0x224,%esp
    4525:	5b                   	pop    %ebx
    4526:	5d                   	pop    %ebp
    4527:	c3                   	ret    
    4528:	8d 85 f4 fd ff ff    	lea    -0x20c(%ebp),%eax
    452e:	89 44 24 04          	mov    %eax,0x4(%esp)
    4532:	8d 85 f0 fd ff ff    	lea    -0x210(%ebp),%eax
    4538:	89 04 24             	mov    %eax,(%esp)
    453b:	e8 f0 80 01 00       	call   1c630 <async_data_write_receive>
    4540:	84 c0                	test   %al,%al
    4542:	0f 84 a8 00 00 00    	je     45f0 <remote_nic_vlan_set_mask+0x110>
    4548:	81 bd f4 fd ff ff 00 	cmpl   $0x200,-0x20c(%ebp)
    454f:	02 00 00 
    4552:	74 34                	je     4588 <remote_nic_vlan_set_mask+0xa8>
    4554:	8b 85 f0 fd ff ff    	mov    -0x210(%ebp),%eax
    455a:	c7 44 24 04 fd ff ff 	movl   $0xfffffffd,0x4(%esp)
    4561:	ff 
    4562:	89 04 24             	mov    %eax,(%esp)
    4565:	e8 36 66 01 00       	call   1aba0 <async_answer_0>
    456a:	8b 45 10             	mov    0x10(%ebp),%eax
    456d:	c7 44 24 04 fd ff ff 	movl   $0xfffffffd,0x4(%esp)
    4574:	ff 
    4575:	89 04 24             	mov    %eax,(%esp)
    4578:	e8 23 66 01 00       	call   1aba0 <async_answer_0>
    457d:	81 c4 24 02 00 00    	add    $0x224,%esp
    4583:	5b                   	pop    %ebx
    4584:	5d                   	pop    %ebp
    4585:	c3                   	ret    
    4586:	66 90                	xchg   %ax,%ax
    4588:	8d 9d f8 fd ff ff    	lea    -0x208(%ebp),%ebx
    458e:	8b 85 f0 fd ff ff    	mov    -0x210(%ebp),%eax
    4594:	c7 44 24 08 00 02 00 	movl   $0x200,0x8(%esp)
    459b:	00 
    459c:	89 5c 24 04          	mov    %ebx,0x4(%esp)
    45a0:	89 04 24             	mov    %eax,(%esp)
    45a3:	e8 d8 80 01 00       	call   1c680 <async_data_write_finalize>
    45a8:	89 da                	mov    %ebx,%edx
    45aa:	85 c0                	test   %eax,%eax
    45ac:	0f 84 44 ff ff ff    	je     44f6 <remote_nic_vlan_set_mask+0x16>
    45b2:	8b 45 10             	mov    0x10(%ebp),%eax
    45b5:	c7 44 24 04 f2 ff ff 	movl   $0xfffffff2,0x4(%esp)
    45bc:	ff 
    45bd:	89 04 24             	mov    %eax,(%esp)
    45c0:	e8 db 65 01 00       	call   1aba0 <async_answer_0>
    45c5:	e9 55 ff ff ff       	jmp    451f <remote_nic_vlan_set_mask+0x3f>
    45ca:	8d b6 00 00 00 00    	lea    0x0(%esi),%esi
    45d0:	8b 45 10             	mov    0x10(%ebp),%eax
    45d3:	c7 44 24 04 f5 ff ff 	movl   $0xfffffff5,0x4(%esp)
    45da:	ff 
    45db:	89 04 24             	mov    %eax,(%esp)
    45de:	e8 bd 65 01 00       	call   1aba0 <async_answer_0>
    45e3:	81 c4 24 02 00 00    	add    $0x224,%esp
    45e9:	5b                   	pop    %ebx
    45ea:	5d                   	pop    %ebp
    45eb:	c3                   	ret    
    45ec:	8d 74 26 00          	lea    0x0(%esi,%eiz,1),%esi
    45f0:	8b 85 f0 fd ff ff    	mov    -0x210(%ebp),%eax
    45f6:	c7 44 24 04 f2 ff ff 	movl   $0xfffffff2,0x4(%esp)
    45fd:	ff 
    45fe:	89 04 24             	mov    %eax,(%esp)
    4601:	e8 9a 65 01 00       	call   1aba0 <async_answer_0>
    4606:	8b 45 10             	mov    0x10(%ebp),%eax
    4609:	c7 44 24 04 f2 ff ff 	movl   $0xfffffff2,0x4(%esp)
    4610:	ff 
    4611:	89 04 24             	mov    %eax,(%esp)
    4614:	e8 87 65 01 00       	call   1aba0 <async_answer_0>
    4619:	e9 01 ff ff ff       	jmp    451f <remote_nic_vlan_set_mask+0x3f>
    461e:	66 90                	xchg   %ax,%ax

00004620 <remote_nic_set_address>:
    4620:	55                   	push   %ebp
    4621:	89 e5                	mov    %esp,%ebp
    4623:	53                   	push   %ebx
    4624:	83 ec 24             	sub    $0x24,%esp
    4627:	8d 45 e8             	lea    -0x18(%ebp),%eax
    462a:	89 44 24 04          	mov    %eax,0x4(%esp)
    462e:	8d 45 ec             	lea    -0x14(%ebp),%eax
    4631:	89 04 24             	mov    %eax,(%esp)
    4634:	e8 f7 7f 01 00       	call   1c630 <async_data_write_receive>
    4639:	84 c0                	test   %al,%al
    463b:	0f 84 87 00 00 00    	je     46c8 <remote_nic_set_address+0xa8>
    4641:	8b 45 e8             	mov    -0x18(%ebp),%eax
    4644:	83 f8 06             	cmp    $0x6,%eax
    4647:	77 4f                	ja     4698 <remote_nic_set_address+0x78>
    4649:	89 44 24 08          	mov    %eax,0x8(%esp)
    464d:	8d 5d f2             	lea    -0xe(%ebp),%ebx
    4650:	8b 45 ec             	mov    -0x14(%ebp),%eax
    4653:	89 5c 24 04          	mov    %ebx,0x4(%esp)
    4657:	89 04 24             	mov    %eax,(%esp)
    465a:	e8 21 80 01 00       	call   1c680 <async_data_write_finalize>
    465f:	85 c0                	test   %eax,%eax
    4661:	0f 85 91 00 00 00    	jne    46f8 <remote_nic_set_address+0xd8>
    4667:	8b 45 0c             	mov    0xc(%ebp),%eax
    466a:	8b 40 14             	mov    0x14(%eax),%eax
    466d:	85 c0                	test   %eax,%eax
    466f:	0f 84 a3 00 00 00    	je     4718 <remote_nic_set_address+0xf8>
    4675:	8b 55 08             	mov    0x8(%ebp),%edx
    4678:	89 5c 24 04          	mov    %ebx,0x4(%esp)
    467c:	89 14 24             	mov    %edx,(%esp)
    467f:	ff d0                	call   *%eax
    4681:	89 44 24 04          	mov    %eax,0x4(%esp)
    4685:	8b 45 10             	mov    0x10(%ebp),%eax
    4688:	89 04 24             	mov    %eax,(%esp)
    468b:	e8 10 65 01 00       	call   1aba0 <async_answer_0>
    4690:	83 c4 24             	add    $0x24,%esp
    4693:	5b                   	pop    %ebx
    4694:	5d                   	pop    %ebp
    4695:	c3                   	ret    
    4696:	66 90                	xchg   %ax,%ax
    4698:	8b 45 ec             	mov    -0x14(%ebp),%eax
    469b:	c7 44 24 04 fd ff ff 	movl   $0xfffffffd,0x4(%esp)
    46a2:	ff 
    46a3:	89 04 24             	mov    %eax,(%esp)
    46a6:	e8 f5 64 01 00       	call   1aba0 <async_answer_0>
    46ab:	8b 45 10             	mov    0x10(%ebp),%eax
    46ae:	c7 44 24 04 fd ff ff 	movl   $0xfffffffd,0x4(%esp)
    46b5:	ff 
    46b6:	89 04 24             	mov    %eax,(%esp)
    46b9:	e8 e2 64 01 00       	call   1aba0 <async_answer_0>
    46be:	83 c4 24             	add    $0x24,%esp
    46c1:	5b                   	pop    %ebx
    46c2:	5d                   	pop    %ebp
    46c3:	c3                   	ret    
    46c4:	8d 74 26 00          	lea    0x0(%esi,%eiz,1),%esi
    46c8:	8b 45 ec             	mov    -0x14(%ebp),%eax
    46cb:	c7 44 24 04 f2 ff ff 	movl   $0xfffffff2,0x4(%esp)
    46d2:	ff 
    46d3:	89 04 24             	mov    %eax,(%esp)
    46d6:	e8 c5 64 01 00       	call   1aba0 <async_answer_0>
    46db:	8b 45 10             	mov    0x10(%ebp),%eax
    46de:	c7 44 24 04 f2 ff ff 	movl   $0xfffffff2,0x4(%esp)
    46e5:	ff 
    46e6:	89 04 24             	mov    %eax,(%esp)
    46e9:	e8 b2 64 01 00       	call   1aba0 <async_answer_0>
    46ee:	83 c4 24             	add    $0x24,%esp
    46f1:	5b                   	pop    %ebx
    46f2:	5d                   	pop    %ebp
    46f3:	c3                   	ret    
    46f4:	8d 74 26 00          	lea    0x0(%esi,%eiz,1),%esi
    46f8:	8b 45 10             	mov    0x10(%ebp),%eax
    46fb:	c7 44 24 04 f2 ff ff 	movl   $0xfffffff2,0x4(%esp)
    4702:	ff 
    4703:	89 04 24             	mov    %eax,(%esp)
    4706:	e8 95 64 01 00       	call   1aba0 <async_answer_0>
    470b:	83 c4 24             	add    $0x24,%esp
    470e:	5b                   	pop    %ebx
    470f:	5d                   	pop    %ebp
    4710:	c3                   	ret    
    4711:	8d b4 26 00 00 00 00 	lea    0x0(%esi,%eiz,1),%esi
    4718:	8b 45 10             	mov    0x10(%ebp),%eax
    471b:	c7 44 24 04 f5 ff ff 	movl   $0xfffffff5,0x4(%esp)
    4722:	ff 
    4723:	89 04 24             	mov    %eax,(%esp)
    4726:	e8 75 64 01 00       	call   1aba0 <async_answer_0>
    472b:	e9 60 ff ff ff       	jmp    4690 <remote_nic_set_address+0x70>

00004730 <remote_nic_poll_get_mode>:
    4730:	55                   	push   %ebp
    4731:	89 e5                	mov    %esp,%ebp
    4733:	57                   	push   %edi
    4734:	56                   	push   %esi
    4735:	53                   	push   %ebx
    4736:	83 ec 3c             	sub    $0x3c,%esp
    4739:	8b 45 0c             	mov    0xc(%ebp),%eax
    473c:	8b 80 98 00 00 00    	mov    0x98(%eax),%eax
    4742:	85 c0                	test   %eax,%eax
    4744:	0f 84 ee 00 00 00    	je     4838 <remote_nic_poll_get_mode+0x108>
    474a:	8b 55 14             	mov    0x14(%ebp),%edx
    474d:	8d 5d e0             	lea    -0x20(%ebp),%ebx
    4750:	c7 45 d4 00 00 00 00 	movl   $0x0,-0x2c(%ebp)
    4757:	c7 45 e0 00 00 00 00 	movl   $0x0,-0x20(%ebp)
    475e:	8b 72 08             	mov    0x8(%edx),%esi
    4761:	8d 55 d4             	lea    -0x2c(%ebp),%edx
    4764:	89 54 24 04          	mov    %edx,0x4(%esp)
    4768:	8b 55 08             	mov    0x8(%ebp),%edx
    476b:	c7 45 e4 00 00 00 00 	movl   $0x0,-0x1c(%ebp)
    4772:	89 5c 24 08          	mov    %ebx,0x8(%esp)
    4776:	89 14 24             	mov    %edx,(%esp)
    4779:	ff d0                	call   *%eax
    477b:	89 c7                	mov    %eax,%edi
    477d:	85 c0                	test   %eax,%eax
    477f:	75 67                	jne    47e8 <remote_nic_poll_get_mode+0xb8>
    4781:	85 f6                	test   %esi,%esi
    4783:	74 63                	je     47e8 <remote_nic_poll_get_mode+0xb8>
    4785:	8d 45 d8             	lea    -0x28(%ebp),%eax
    4788:	89 44 24 04          	mov    %eax,0x4(%esp)
    478c:	8d 45 dc             	lea    -0x24(%ebp),%eax
    478f:	89 04 24             	mov    %eax,(%esp)
    4792:	e8 79 79 01 00       	call   1c110 <async_data_read_receive>
    4797:	84 c0                	test   %al,%al
    4799:	74 6d                	je     4808 <remote_nic_poll_get_mode+0xd8>
    479b:	83 7d d8 08          	cmpl   $0x8,-0x28(%ebp)
    479f:	74 2f                	je     47d0 <remote_nic_poll_get_mode+0xa0>
    47a1:	8b 45 dc             	mov    -0x24(%ebp),%eax
    47a4:	c7 44 24 04 fd ff ff 	movl   $0xfffffffd,0x4(%esp)
    47ab:	ff 
    47ac:	89 04 24             	mov    %eax,(%esp)
    47af:	e8 ec 63 01 00       	call   1aba0 <async_answer_0>
    47b4:	8b 45 10             	mov    0x10(%ebp),%eax
    47b7:	c7 44 24 04 fd ff ff 	movl   $0xfffffffd,0x4(%esp)
    47be:	ff 
    47bf:	89 04 24             	mov    %eax,(%esp)
    47c2:	e8 d9 63 01 00       	call   1aba0 <async_answer_0>
    47c7:	83 c4 3c             	add    $0x3c,%esp
    47ca:	5b                   	pop    %ebx
    47cb:	5e                   	pop    %esi
    47cc:	5f                   	pop    %edi
    47cd:	5d                   	pop    %ebp
    47ce:	c3                   	ret    
    47cf:	90                   	nop
    47d0:	8b 45 dc             	mov    -0x24(%ebp),%eax
    47d3:	c7 44 24 08 08 00 00 	movl   $0x8,0x8(%esp)
    47da:	00 
    47db:	89 5c 24 04          	mov    %ebx,0x4(%esp)
    47df:	89 04 24             	mov    %eax,(%esp)
    47e2:	e8 89 79 01 00       	call   1c170 <async_data_read_finalize>
    47e7:	90                   	nop
    47e8:	8b 45 d4             	mov    -0x2c(%ebp),%eax
    47eb:	89 7c 24 04          	mov    %edi,0x4(%esp)
    47ef:	89 44 24 08          	mov    %eax,0x8(%esp)
    47f3:	8b 45 10             	mov    0x10(%ebp),%eax
    47f6:	89 04 24             	mov    %eax,(%esp)
    47f9:	e8 e2 63 01 00       	call   1abe0 <async_answer_1>
    47fe:	83 c4 3c             	add    $0x3c,%esp
    4801:	5b                   	pop    %ebx
    4802:	5e                   	pop    %esi
    4803:	5f                   	pop    %edi
    4804:	5d                   	pop    %ebp
    4805:	c3                   	ret    
    4806:	66 90                	xchg   %ax,%ax
    4808:	8b 45 dc             	mov    -0x24(%ebp),%eax
    480b:	c7 44 24 04 f2 ff ff 	movl   $0xfffffff2,0x4(%esp)
    4812:	ff 
    4813:	89 04 24             	mov    %eax,(%esp)
    4816:	e8 85 63 01 00       	call   1aba0 <async_answer_0>
    481b:	8b 45 10             	mov    0x10(%ebp),%eax
    481e:	c7 44 24 04 f2 ff ff 	movl   $0xfffffff2,0x4(%esp)
    4825:	ff 
    4826:	89 04 24             	mov    %eax,(%esp)
    4829:	e8 72 63 01 00       	call   1aba0 <async_answer_0>
    482e:	83 c4 3c             	add    $0x3c,%esp
    4831:	5b                   	pop    %ebx
    4832:	5e                   	pop    %esi
    4833:	5f                   	pop    %edi
    4834:	5d                   	pop    %ebp
    4835:	c3                   	ret    
    4836:	66 90                	xchg   %ax,%ax
    4838:	8b 45 10             	mov    0x10(%ebp),%eax
    483b:	c7 44 24 04 f5 ff ff 	movl   $0xfffffff5,0x4(%esp)
    4842:	ff 
    4843:	89 04 24             	mov    %eax,(%esp)
    4846:	e8 55 63 01 00       	call   1aba0 <async_answer_0>
    484b:	83 c4 3c             	add    $0x3c,%esp
    484e:	5b                   	pop    %ebx
    484f:	5e                   	pop    %esi
    4850:	5f                   	pop    %edi
    4851:	5d                   	pop    %ebp
    4852:	c3                   	ret    
    4853:	8d b6 00 00 00 00    	lea    0x0(%esi),%esi
    4859:	8d bc 27 00 00 00 00 	lea    0x0(%edi,%eiz,1),%edi

00004860 <remote_nic_wol_virtue_get_caps>:
    4860:	55                   	push   %ebp
    4861:	89 e5                	mov    %esp,%ebp
    4863:	83 ec 28             	sub    $0x28,%esp
    4866:	8b 45 0c             	mov    0xc(%ebp),%eax
    4869:	8b 80 88 00 00 00    	mov    0x88(%eax),%eax
    486f:	85 c0                	test   %eax,%eax
    4871:	74 3d                	je     48b0 <remote_nic_wol_virtue_get_caps+0x50>
    4873:	8d 55 f4             	lea    -0xc(%ebp),%edx
    4876:	c7 45 f4 ff ff ff ff 	movl   $0xffffffff,-0xc(%ebp)
    487d:	89 54 24 08          	mov    %edx,0x8(%esp)
    4881:	8b 55 14             	mov    0x14(%ebp),%edx
    4884:	8b 52 08             	mov    0x8(%edx),%edx
    4887:	89 54 24 04          	mov    %edx,0x4(%esp)
    488b:	8b 55 08             	mov    0x8(%ebp),%edx
    488e:	89 14 24             	mov    %edx,(%esp)
    4891:	ff d0                	call   *%eax
    4893:	8b 55 f4             	mov    -0xc(%ebp),%edx
    4896:	89 44 24 04          	mov    %eax,0x4(%esp)
    489a:	8b 45 10             	mov    0x10(%ebp),%eax
    489d:	89 54 24 08          	mov    %edx,0x8(%esp)
    48a1:	89 04 24             	mov    %eax,(%esp)
    48a4:	e8 37 63 01 00       	call   1abe0 <async_answer_1>
    48a9:	c9                   	leave  
    48aa:	c3                   	ret    
    48ab:	90                   	nop
    48ac:	8d 74 26 00          	lea    0x0(%esi,%eiz,1),%esi
    48b0:	8b 45 10             	mov    0x10(%ebp),%eax
    48b3:	c7 44 24 04 f5 ff ff 	movl   $0xfffffff5,0x4(%esp)
    48ba:	ff 
    48bb:	89 04 24             	mov    %eax,(%esp)
    48be:	e8 dd 62 01 00       	call   1aba0 <async_answer_0>
    48c3:	c9                   	leave  
    48c4:	c3                   	ret    
    48c5:	8d 74 26 00          	lea    0x0(%esi,%eiz,1),%esi
    48c9:	8d bc 27 00 00 00 00 	lea    0x0(%edi,%eiz,1),%edi

000048d0 <remote_nic_defective_get_mode>:
    48d0:	55                   	push   %ebp
    48d1:	89 e5                	mov    %esp,%ebp
    48d3:	83 ec 28             	sub    $0x28,%esp
    48d6:	8b 45 0c             	mov    0xc(%ebp),%eax
    48d9:	8b 40 5c             	mov    0x5c(%eax),%eax
    48dc:	85 c0                	test   %eax,%eax
    48de:	74 30                	je     4910 <remote_nic_defective_get_mode+0x40>
    48e0:	8d 55 f4             	lea    -0xc(%ebp),%edx
    48e3:	c7 45 f4 00 00 00 00 	movl   $0x0,-0xc(%ebp)
    48ea:	89 54 24 04          	mov    %edx,0x4(%esp)
    48ee:	8b 55 08             	mov    0x8(%ebp),%edx
    48f1:	89 14 24             	mov    %edx,(%esp)
    48f4:	ff d0                	call   *%eax
    48f6:	8b 55 f4             	mov    -0xc(%ebp),%edx
    48f9:	89 44 24 04          	mov    %eax,0x4(%esp)
    48fd:	8b 45 10             	mov    0x10(%ebp),%eax
    4900:	89 54 24 08          	mov    %edx,0x8(%esp)
    4904:	89 04 24             	mov    %eax,(%esp)
    4907:	e8 d4 62 01 00       	call   1abe0 <async_answer_1>
    490c:	c9                   	leave  
    490d:	c3                   	ret    
    490e:	66 90                	xchg   %ax,%ax
    4910:	8b 45 10             	mov    0x10(%ebp),%eax
    4913:	c7 44 24 04 f5 ff ff 	movl   $0xfffffff5,0x4(%esp)
    491a:	ff 
    491b:	89 04 24             	mov    %eax,(%esp)
    491e:	e8 7d 62 01 00       	call   1aba0 <async_answer_0>
    4923:	c9                   	leave  
    4924:	c3                   	ret    
    4925:	8d 74 26 00          	lea    0x0(%esi,%eiz,1),%esi
    4929:	8d bc 27 00 00 00 00 	lea    0x0(%edi,%eiz,1),%edi

00004930 <remote_nic_broadcast_get_mode>:
    4930:	55                   	push   %ebp
    4931:	89 e5                	mov    %esp,%ebp
    4933:	83 ec 28             	sub    $0x28,%esp
    4936:	8b 45 0c             	mov    0xc(%ebp),%eax
    4939:	8b 40 54             	mov    0x54(%eax),%eax
    493c:	85 c0                	test   %eax,%eax
    493e:	74 30                	je     4970 <remote_nic_broadcast_get_mode+0x40>
    4940:	8d 55 f4             	lea    -0xc(%ebp),%edx
    4943:	c7 45 f4 02 00 00 00 	movl   $0x2,-0xc(%ebp)
    494a:	89 54 24 04          	mov    %edx,0x4(%esp)
    494e:	8b 55 08             	mov    0x8(%ebp),%edx
    4951:	89 14 24             	mov    %edx,(%esp)
    4954:	ff d0                	call   *%eax
    4956:	8b 55 f4             	mov    -0xc(%ebp),%edx
    4959:	89 44 24 04          	mov    %eax,0x4(%esp)
    495d:	8b 45 10             	mov    0x10(%ebp),%eax
    4960:	89 54 24 08          	mov    %edx,0x8(%esp)
    4964:	89 04 24             	mov    %eax,(%esp)
    4967:	e8 74 62 01 00       	call   1abe0 <async_answer_1>
    496c:	c9                   	leave  
    496d:	c3                   	ret    
    496e:	66 90                	xchg   %ax,%ax
    4970:	8b 45 10             	mov    0x10(%ebp),%eax
    4973:	c7 44 24 04 f5 ff ff 	movl   $0xfffffff5,0x4(%esp)
    497a:	ff 
    497b:	89 04 24             	mov    %eax,(%esp)
    497e:	e8 1d 62 01 00       	call   1aba0 <async_answer_0>
    4983:	c9                   	leave  
    4984:	c3                   	ret    
    4985:	8d 74 26 00          	lea    0x0(%esi,%eiz,1),%esi
    4989:	8d bc 27 00 00 00 00 	lea    0x0(%edi,%eiz,1),%edi

00004990 <remote_nic_get_cable_state>:
    4990:	55                   	push   %ebp
    4991:	89 e5                	mov    %esp,%ebp
    4993:	83 ec 28             	sub    $0x28,%esp
    4996:	8b 45 0c             	mov    0xc(%ebp),%eax
    4999:	8b 40 20             	mov    0x20(%eax),%eax
    499c:	85 c0                	test   %eax,%eax
    499e:	74 30                	je     49d0 <remote_nic_get_cable_state+0x40>
    49a0:	8d 55 f4             	lea    -0xc(%ebp),%edx
    49a3:	c7 45 f4 00 00 00 00 	movl   $0x0,-0xc(%ebp)
    49aa:	89 54 24 04          	mov    %edx,0x4(%esp)
    49ae:	8b 55 08             	mov    0x8(%ebp),%edx
    49b1:	89 14 24             	mov    %edx,(%esp)
    49b4:	ff d0                	call   *%eax
    49b6:	8b 55 f4             	mov    -0xc(%ebp),%edx
    49b9:	89 44 24 04          	mov    %eax,0x4(%esp)
    49bd:	8b 45 10             	mov    0x10(%ebp),%eax
    49c0:	89 54 24 08          	mov    %edx,0x8(%esp)
    49c4:	89 04 24             	mov    %eax,(%esp)
    49c7:	e8 14 62 01 00       	call   1abe0 <async_answer_1>
    49cc:	c9                   	leave  
    49cd:	c3                   	ret    
    49ce:	66 90                	xchg   %ax,%ax
    49d0:	8b 45 10             	mov    0x10(%ebp),%eax
    49d3:	c7 44 24 04 f5 ff ff 	movl   $0xfffffff5,0x4(%esp)
    49da:	ff 
    49db:	89 04 24             	mov    %eax,(%esp)
    49de:	e8 bd 61 01 00       	call   1aba0 <async_answer_0>
    49e3:	c9                   	leave  
    49e4:	c3                   	ret    
    49e5:	8d 74 26 00          	lea    0x0(%esi,%eiz,1),%esi
    49e9:	8d bc 27 00 00 00 00 	lea    0x0(%edi,%eiz,1),%edi

000049f0 <remote_nic_offload_probe>:
    49f0:	55                   	push   %ebp
    49f1:	89 e5                	mov    %esp,%ebp
    49f3:	83 ec 28             	sub    $0x28,%esp
    49f6:	8b 45 0c             	mov    0xc(%ebp),%eax
    49f9:	8b 80 90 00 00 00    	mov    0x90(%eax),%eax
    49ff:	85 c0                	test   %eax,%eax
    4a01:	74 45                	je     4a48 <remote_nic_offload_probe+0x58>
    4a03:	8d 55 f4             	lea    -0xc(%ebp),%edx
    4a06:	c7 45 f0 00 00 00 00 	movl   $0x0,-0x10(%ebp)
    4a0d:	89 54 24 08          	mov    %edx,0x8(%esp)
    4a11:	8d 55 f0             	lea    -0x10(%ebp),%edx
    4a14:	89 54 24 04          	mov    %edx,0x4(%esp)
    4a18:	8b 55 08             	mov    0x8(%ebp),%edx
    4a1b:	89 14 24             	mov    %edx,(%esp)
    4a1e:	c7 45 f4 00 00 00 00 	movl   $0x0,-0xc(%ebp)
    4a25:	ff d0                	call   *%eax
    4a27:	8b 55 f4             	mov    -0xc(%ebp),%edx
    4a2a:	89 54 24 0c          	mov    %edx,0xc(%esp)
    4a2e:	89 44 24 04          	mov    %eax,0x4(%esp)
    4a32:	8b 55 f0             	mov    -0x10(%ebp),%edx
    4a35:	8b 45 10             	mov    0x10(%ebp),%eax
    4a38:	89 54 24 08          	mov    %edx,0x8(%esp)
    4a3c:	89 04 24             	mov    %eax,(%esp)
    4a3f:	e8 dc 61 01 00       	call   1ac20 <async_answer_2>
    4a44:	c9                   	leave  
    4a45:	c3                   	ret    
    4a46:	66 90                	xchg   %ax,%ax
    4a48:	8b 45 10             	mov    0x10(%ebp),%eax
    4a4b:	c7 44 24 04 f5 ff ff 	movl   $0xfffffff5,0x4(%esp)
    4a52:	ff 
    4a53:	89 04 24             	mov    %eax,(%esp)
    4a56:	e8 45 61 01 00       	call   1aba0 <async_answer_0>
    4a5b:	c9                   	leave  
    4a5c:	c3                   	ret    
    4a5d:	8d 76 00             	lea    0x0(%esi),%esi

00004a60 <remote_nic_vlan_get_mask>:
    4a60:	55                   	push   %ebp
    4a61:	89 e5                	mov    %esp,%ebp
    4a63:	56                   	push   %esi
    4a64:	53                   	push   %ebx
    4a65:	81 ec 20 02 00 00    	sub    $0x220,%esp
    4a6b:	8b 5d 0c             	mov    0xc(%ebp),%ebx
    4a6e:	8b 43 6c             	mov    0x6c(%ebx),%eax
    4a71:	85 c0                	test   %eax,%eax
    4a73:	0f 84 c7 00 00 00    	je     4b40 <remote_nic_vlan_get_mask+0xe0>
    4a79:	8d b5 f8 fd ff ff    	lea    -0x208(%ebp),%esi
    4a7f:	c7 44 24 08 00 02 00 	movl   $0x200,0x8(%esp)
    4a86:	00 
    4a87:	c7 44 24 04 00 00 00 	movl   $0x0,0x4(%esp)
    4a8e:	00 
    4a8f:	89 34 24             	mov    %esi,(%esp)
    4a92:	e8 89 60 00 00       	call   ab20 <memset>
    4a97:	8b 45 08             	mov    0x8(%ebp),%eax
    4a9a:	89 74 24 04          	mov    %esi,0x4(%esp)
    4a9e:	89 04 24             	mov    %eax,(%esp)
    4aa1:	ff 53 6c             	call   *0x6c(%ebx)
    4aa4:	89 c3                	mov    %eax,%ebx
    4aa6:	85 c0                	test   %eax,%eax
    4aa8:	75 78                	jne    4b22 <remote_nic_vlan_get_mask+0xc2>
    4aaa:	8d 85 f4 fd ff ff    	lea    -0x20c(%ebp),%eax
    4ab0:	89 44 24 04          	mov    %eax,0x4(%esp)
    4ab4:	8d 85 f0 fd ff ff    	lea    -0x210(%ebp),%eax
    4aba:	89 04 24             	mov    %eax,(%esp)
    4abd:	e8 4e 76 01 00       	call   1c110 <async_data_read_receive>
    4ac2:	84 c0                	test   %al,%al
    4ac4:	74 0c                	je     4ad2 <remote_nic_vlan_get_mask+0x72>
    4ac6:	81 bd f4 fd ff ff 00 	cmpl   $0x200,-0x20c(%ebp)
    4acd:	02 00 00 
    4ad0:	74 36                	je     4b08 <remote_nic_vlan_get_mask+0xa8>
    4ad2:	8b 85 f0 fd ff ff    	mov    -0x210(%ebp),%eax
    4ad8:	c7 44 24 04 f2 ff ff 	movl   $0xfffffff2,0x4(%esp)
    4adf:	ff 
    4ae0:	89 04 24             	mov    %eax,(%esp)
    4ae3:	e8 b8 60 01 00       	call   1aba0 <async_answer_0>
    4ae8:	8b 45 10             	mov    0x10(%ebp),%eax
    4aeb:	c7 44 24 04 f2 ff ff 	movl   $0xfffffff2,0x4(%esp)
    4af2:	ff 
    4af3:	89 04 24             	mov    %eax,(%esp)
    4af6:	e8 a5 60 01 00       	call   1aba0 <async_answer_0>
    4afb:	81 c4 20 02 00 00    	add    $0x220,%esp
    4b01:	5b                   	pop    %ebx
    4b02:	5e                   	pop    %esi
    4b03:	5d                   	pop    %ebp
    4b04:	c3                   	ret    
    4b05:	8d 76 00             	lea    0x0(%esi),%esi
    4b08:	8b 85 f0 fd ff ff    	mov    -0x210(%ebp),%eax
    4b0e:	c7 44 24 08 00 02 00 	movl   $0x200,0x8(%esp)
    4b15:	00 
    4b16:	89 74 24 04          	mov    %esi,0x4(%esp)
    4b1a:	89 04 24             	mov    %eax,(%esp)
    4b1d:	e8 4e 76 01 00       	call   1c170 <async_data_read_finalize>
    4b22:	8b 45 10             	mov    0x10(%ebp),%eax
    4b25:	89 5c 24 04          	mov    %ebx,0x4(%esp)
    4b29:	89 04 24             	mov    %eax,(%esp)
    4b2c:	e8 6f 60 01 00       	call   1aba0 <async_answer_0>
    4b31:	81 c4 20 02 00 00    	add    $0x220,%esp
    4b37:	5b                   	pop    %ebx
    4b38:	5e                   	pop    %esi
    4b39:	5d                   	pop    %ebp
    4b3a:	c3                   	ret    
    4b3b:	90                   	nop
    4b3c:	8d 74 26 00          	lea    0x0(%esi,%eiz,1),%esi
    4b40:	8b 45 10             	mov    0x10(%ebp),%eax
    4b43:	c7 44 24 04 f5 ff ff 	movl   $0xfffffff5,0x4(%esp)
    4b4a:	ff 
    4b4b:	89 04 24             	mov    %eax,(%esp)
    4b4e:	e8 4d 60 01 00       	call   1aba0 <async_answer_0>
    4b53:	81 c4 20 02 00 00    	add    $0x220,%esp
    4b59:	5b                   	pop    %ebx
    4b5a:	5e                   	pop    %esi
    4b5b:	5d                   	pop    %ebp
    4b5c:	c3                   	ret    
    4b5d:	8d 76 00             	lea    0x0(%esi),%esi

00004b60 <remote_nic_get_device_info>:
    4b60:	55                   	push   %ebp
    4b61:	89 e5                	mov    %esp,%ebp
    4b63:	56                   	push   %esi
    4b64:	53                   	push   %ebx
    4b65:	81 ec 40 01 00 00    	sub    $0x140,%esp
    4b6b:	8b 5d 0c             	mov    0xc(%ebp),%ebx
    4b6e:	8b 43 1c             	mov    0x1c(%ebx),%eax
    4b71:	85 c0                	test   %eax,%eax
    4b73:	0f 84 ff 00 00 00    	je     4c78 <remote_nic_get_device_info+0x118>
    4b79:	8d b5 dc fe ff ff    	lea    -0x124(%ebp),%esi
    4b7f:	c7 44 24 08 1c 01 00 	movl   $0x11c,0x8(%esp)
    4b86:	00 
    4b87:	c7 44 24 04 00 00 00 	movl   $0x0,0x4(%esp)
    4b8e:	00 
    4b8f:	89 34 24             	mov    %esi,(%esp)
    4b92:	e8 89 5f 00 00       	call   ab20 <memset>
    4b97:	8b 45 08             	mov    0x8(%ebp),%eax
    4b9a:	89 74 24 04          	mov    %esi,0x4(%esp)
    4b9e:	89 04 24             	mov    %eax,(%esp)
    4ba1:	ff 53 1c             	call   *0x1c(%ebx)
    4ba4:	89 c3                	mov    %eax,%ebx
    4ba6:	85 c0                	test   %eax,%eax
    4ba8:	75 78                	jne    4c22 <remote_nic_get_device_info+0xc2>
    4baa:	8d 85 d8 fe ff ff    	lea    -0x128(%ebp),%eax
    4bb0:	89 44 24 04          	mov    %eax,0x4(%esp)
    4bb4:	8d 85 d4 fe ff ff    	lea    -0x12c(%ebp),%eax
    4bba:	89 04 24             	mov    %eax,(%esp)
    4bbd:	e8 4e 75 01 00       	call   1c110 <async_data_read_receive>
    4bc2:	84 c0                	test   %al,%al
    4bc4:	74 7a                	je     4c40 <remote_nic_get_device_info+0xe0>
    4bc6:	81 bd d8 fe ff ff 1b 	cmpl   $0x11b,-0x128(%ebp)
    4bcd:	01 00 00 
    4bd0:	77 36                	ja     4c08 <remote_nic_get_device_info+0xa8>
    4bd2:	8b 85 d4 fe ff ff    	mov    -0x12c(%ebp),%eax
    4bd8:	c7 44 24 04 fd ff ff 	movl   $0xfffffffd,0x4(%esp)
    4bdf:	ff 
    4be0:	89 04 24             	mov    %eax,(%esp)
    4be3:	e8 b8 5f 01 00       	call   1aba0 <async_answer_0>
    4be8:	8b 45 10             	mov    0x10(%ebp),%eax
    4beb:	c7 44 24 04 fd ff ff 	movl   $0xfffffffd,0x4(%esp)
    4bf2:	ff 
    4bf3:	89 04 24             	mov    %eax,(%esp)
    4bf6:	e8 a5 5f 01 00       	call   1aba0 <async_answer_0>
    4bfb:	81 c4 40 01 00 00    	add    $0x140,%esp
    4c01:	5b                   	pop    %ebx
    4c02:	5e                   	pop    %esi
    4c03:	5d                   	pop    %ebp
    4c04:	c3                   	ret    
    4c05:	8d 76 00             	lea    0x0(%esi),%esi
    4c08:	8b 85 d4 fe ff ff    	mov    -0x12c(%ebp),%eax
    4c0e:	c7 44 24 08 1c 01 00 	movl   $0x11c,0x8(%esp)
    4c15:	00 
    4c16:	89 74 24 04          	mov    %esi,0x4(%esp)
    4c1a:	89 04 24             	mov    %eax,(%esp)
    4c1d:	e8 4e 75 01 00       	call   1c170 <async_data_read_finalize>
    4c22:	8b 45 10             	mov    0x10(%ebp),%eax
    4c25:	89 5c 24 04          	mov    %ebx,0x4(%esp)
    4c29:	89 04 24             	mov    %eax,(%esp)
    4c2c:	e8 6f 5f 01 00       	call   1aba0 <async_answer_0>
    4c31:	81 c4 40 01 00 00    	add    $0x140,%esp
    4c37:	5b                   	pop    %ebx
    4c38:	5e                   	pop    %esi
    4c39:	5d                   	pop    %ebp
    4c3a:	c3                   	ret    
    4c3b:	90                   	nop
    4c3c:	8d 74 26 00          	lea    0x0(%esi,%eiz,1),%esi
    4c40:	8b 85 d4 fe ff ff    	mov    -0x12c(%ebp),%eax
    4c46:	c7 44 24 04 f2 ff ff 	movl   $0xfffffff2,0x4(%esp)
    4c4d:	ff 
    4c4e:	89 04 24             	mov    %eax,(%esp)
    4c51:	e8 4a 5f 01 00       	call   1aba0 <async_answer_0>
    4c56:	8b 45 10             	mov    0x10(%ebp),%eax
    4c59:	c7 44 24 04 f2 ff ff 	movl   $0xfffffff2,0x4(%esp)
    4c60:	ff 
    4c61:	89 04 24             	mov    %eax,(%esp)
    4c64:	e8 37 5f 01 00       	call   1aba0 <async_answer_0>
    4c69:	81 c4 40 01 00 00    	add    $0x140,%esp
    4c6f:	5b                   	pop    %ebx
    4c70:	5e                   	pop    %esi
    4c71:	5d                   	pop    %ebp
    4c72:	c3                   	ret    
    4c73:	90                   	nop
    4c74:	8d 74 26 00          	lea    0x0(%esi,%eiz,1),%esi
    4c78:	8b 45 10             	mov    0x10(%ebp),%eax
    4c7b:	c7 44 24 04 f5 ff ff 	movl   $0xfffffff5,0x4(%esp)
    4c82:	ff 
    4c83:	89 04 24             	mov    %eax,(%esp)
    4c86:	e8 15 5f 01 00       	call   1aba0 <async_answer_0>
    4c8b:	81 c4 40 01 00 00    	add    $0x140,%esp
    4c91:	5b                   	pop    %ebx
    4c92:	5e                   	pop    %esi
    4c93:	5d                   	pop    %ebp
    4c94:	c3                   	ret    
    4c95:	8d 74 26 00          	lea    0x0(%esi,%eiz,1),%esi
    4c99:	8d bc 27 00 00 00 00 	lea    0x0(%edi,%eiz,1),%edi

00004ca0 <remote_nic_get_stats>:
    4ca0:	55                   	push   %ebp
    4ca1:	89 e5                	mov    %esp,%ebp
    4ca3:	56                   	push   %esi
    4ca4:	53                   	push   %ebx
    4ca5:	81 ec 90 00 00 00    	sub    $0x90,%esp
    4cab:	8b 5d 0c             	mov    0xc(%ebp),%ebx
    4cae:	8b 43 18             	mov    0x18(%ebx),%eax
    4cb1:	85 c0                	test   %eax,%eax
    4cb3:	0f 84 df 00 00 00    	je     4d98 <remote_nic_get_stats+0xf8>
    4cb9:	8d 75 8c             	lea    -0x74(%ebp),%esi
    4cbc:	c7 44 24 08 6c 00 00 	movl   $0x6c,0x8(%esp)
    4cc3:	00 
    4cc4:	c7 44 24 04 00 00 00 	movl   $0x0,0x4(%esp)
    4ccb:	00 
    4ccc:	89 34 24             	mov    %esi,(%esp)
    4ccf:	e8 4c 5e 00 00       	call   ab20 <memset>
    4cd4:	8b 45 08             	mov    0x8(%ebp),%eax
    4cd7:	89 74 24 04          	mov    %esi,0x4(%esp)
    4cdb:	89 04 24             	mov    %eax,(%esp)
    4cde:	ff 53 18             	call   *0x18(%ebx)
    4ce1:	89 c3                	mov    %eax,%ebx
    4ce3:	85 c0                	test   %eax,%eax
    4ce5:	75 68                	jne    4d4f <remote_nic_get_stats+0xaf>
    4ce7:	8d 45 88             	lea    -0x78(%ebp),%eax
    4cea:	89 44 24 04          	mov    %eax,0x4(%esp)
    4cee:	8d 45 84             	lea    -0x7c(%ebp),%eax
    4cf1:	89 04 24             	mov    %eax,(%esp)
    4cf4:	e8 17 74 01 00       	call   1c110 <async_data_read_receive>
    4cf9:	84 c0                	test   %al,%al
    4cfb:	74 6b                	je     4d68 <remote_nic_get_stats+0xc8>
    4cfd:	83 7d 88 6b          	cmpl   $0x6b,-0x78(%ebp)
    4d01:	77 35                	ja     4d38 <remote_nic_get_stats+0x98>
    4d03:	8b 45 84             	mov    -0x7c(%ebp),%eax
    4d06:	c7 44 24 04 fd ff ff 	movl   $0xfffffffd,0x4(%esp)
    4d0d:	ff 
    4d0e:	89 04 24             	mov    %eax,(%esp)
    4d11:	e8 8a 5e 01 00       	call   1aba0 <async_answer_0>
    4d16:	8b 45 10             	mov    0x10(%ebp),%eax
    4d19:	c7 44 24 04 fd ff ff 	movl   $0xfffffffd,0x4(%esp)
    4d20:	ff 
    4d21:	89 04 24             	mov    %eax,(%esp)
    4d24:	e8 77 5e 01 00       	call   1aba0 <async_answer_0>
    4d29:	81 c4 90 00 00 00    	add    $0x90,%esp
    4d2f:	5b                   	pop    %ebx
    4d30:	5e                   	pop    %esi
    4d31:	5d                   	pop    %ebp
    4d32:	c3                   	ret    
    4d33:	90                   	nop
    4d34:	8d 74 26 00          	lea    0x0(%esi,%eiz,1),%esi
    4d38:	8b 45 84             	mov    -0x7c(%ebp),%eax
    4d3b:	c7 44 24 08 6c 00 00 	movl   $0x6c,0x8(%esp)
    4d42:	00 
    4d43:	89 74 24 04          	mov    %esi,0x4(%esp)
    4d47:	89 04 24             	mov    %eax,(%esp)
    4d4a:	e8 21 74 01 00       	call   1c170 <async_data_read_finalize>
    4d4f:	8b 45 10             	mov    0x10(%ebp),%eax
    4d52:	89 5c 24 04          	mov    %ebx,0x4(%esp)
    4d56:	89 04 24             	mov    %eax,(%esp)
    4d59:	e8 42 5e 01 00       	call   1aba0 <async_answer_0>
    4d5e:	81 c4 90 00 00 00    	add    $0x90,%esp
    4d64:	5b                   	pop    %ebx
    4d65:	5e                   	pop    %esi
    4d66:	5d                   	pop    %ebp
    4d67:	c3                   	ret    
    4d68:	8b 45 84             	mov    -0x7c(%ebp),%eax
    4d6b:	c7 44 24 04 f2 ff ff 	movl   $0xfffffff2,0x4(%esp)
    4d72:	ff 
    4d73:	89 04 24             	mov    %eax,(%esp)
    4d76:	e8 25 5e 01 00       	call   1aba0 <async_answer_0>
    4d7b:	8b 45 10             	mov    0x10(%ebp),%eax
    4d7e:	c7 44 24 04 f2 ff ff 	movl   $0xfffffff2,0x4(%esp)
    4d85:	ff 
    4d86:	89 04 24             	mov    %eax,(%esp)
    4d89:	e8 12 5e 01 00       	call   1aba0 <async_answer_0>
    4d8e:	81 c4 90 00 00 00    	add    $0x90,%esp
    4d94:	5b                   	pop    %ebx
    4d95:	5e                   	pop    %esi
    4d96:	5d                   	pop    %ebp
    4d97:	c3                   	ret    
    4d98:	8b 45 10             	mov    0x10(%ebp),%eax
    4d9b:	c7 44 24 04 f5 ff ff 	movl   $0xfffffff5,0x4(%esp)
    4da2:	ff 
    4da3:	89 04 24             	mov    %eax,(%esp)
    4da6:	e8 f5 5d 01 00       	call   1aba0 <async_answer_0>
    4dab:	81 c4 90 00 00 00    	add    $0x90,%esp
    4db1:	5b                   	pop    %ebx
    4db2:	5e                   	pop    %esi
    4db3:	5d                   	pop    %ebp
    4db4:	c3                   	ret    
    4db5:	8d 74 26 00          	lea    0x0(%esi,%eiz,1),%esi
    4db9:	8d bc 27 00 00 00 00 	lea    0x0(%edi,%eiz,1),%edi

00004dc0 <remote_nic_wol_load_info>:
    4dc0:	55                   	push   %ebp
    4dc1:	89 e5                	mov    %esp,%ebp
    4dc3:	57                   	push   %edi
    4dc4:	56                   	push   %esi
    4dc5:	53                   	push   %ebx
    4dc6:	83 ec 3c             	sub    $0x3c,%esp
    4dc9:	8b 7d 0c             	mov    0xc(%ebp),%edi
    4dcc:	8b 87 8c 00 00 00    	mov    0x8c(%edi),%eax
    4dd2:	85 c0                	test   %eax,%eax
    4dd4:	0f 84 2e 01 00 00    	je     4f08 <remote_nic_wol_load_info+0x148>
    4dda:	8b 45 14             	mov    0x14(%ebp),%eax
    4ddd:	c7 45 d8 00 00 00 00 	movl   $0x0,-0x28(%ebp)
    4de4:	c7 45 dc 00 00 00 00 	movl   $0x0,-0x24(%ebp)
    4deb:	8b 58 08             	mov    0x8(%eax),%ebx
    4dee:	85 db                	test   %ebx,%ebx
    4df0:	0f 85 92 00 00 00    	jne    4e88 <remote_nic_wol_load_info+0xc8>
    4df6:	31 f6                	xor    %esi,%esi
    4df8:	89 5c 24 08          	mov    %ebx,0x8(%esp)
    4dfc:	c7 44 24 04 00 00 00 	movl   $0x0,0x4(%esp)
    4e03:	00 
    4e04:	89 34 24             	mov    %esi,(%esp)
    4e07:	e8 14 5d 00 00       	call   ab20 <memset>
    4e0c:	8d 45 d8             	lea    -0x28(%ebp),%eax
    4e0f:	89 44 24 10          	mov    %eax,0x10(%esp)
    4e13:	8d 45 dc             	lea    -0x24(%ebp),%eax
    4e16:	89 44 24 04          	mov    %eax,0x4(%esp)
    4e1a:	8b 45 08             	mov    0x8(%ebp),%eax
    4e1d:	89 74 24 0c          	mov    %esi,0xc(%esp)
    4e21:	89 5c 24 08          	mov    %ebx,0x8(%esp)
    4e25:	89 04 24             	mov    %eax,(%esp)
    4e28:	ff 97 8c 00 00 00    	call   *0x8c(%edi)
    4e2e:	89 c7                	mov    %eax,%edi
    4e30:	85 c0                	test   %eax,%eax
    4e32:	0f 85 a0 00 00 00    	jne    4ed8 <remote_nic_wol_load_info+0x118>
    4e38:	8d 45 e4             	lea    -0x1c(%ebp),%eax
    4e3b:	89 44 24 04          	mov    %eax,0x4(%esp)
    4e3f:	8d 45 e0             	lea    -0x20(%ebp),%eax
    4e42:	89 04 24             	mov    %eax,(%esp)
    4e45:	e8 c6 72 01 00       	call   1c110 <async_data_read_receive>
    4e4a:	84 c0                	test   %al,%al
    4e4c:	75 62                	jne    4eb0 <remote_nic_wol_load_info+0xf0>
    4e4e:	8b 45 e0             	mov    -0x20(%ebp),%eax
    4e51:	c7 44 24 04 f2 ff ff 	movl   $0xfffffff2,0x4(%esp)
    4e58:	ff 
    4e59:	89 04 24             	mov    %eax,(%esp)
    4e5c:	e8 3f 5d 01 00       	call   1aba0 <async_answer_0>
    4e61:	8b 45 10             	mov    0x10(%ebp),%eax
    4e64:	c7 44 24 04 f2 ff ff 	movl   $0xfffffff2,0x4(%esp)
    4e6b:	ff 
    4e6c:	89 04 24             	mov    %eax,(%esp)
    4e6f:	e8 2c 5d 01 00       	call   1aba0 <async_answer_0>
    4e74:	89 34 24             	mov    %esi,(%esp)
    4e77:	e8 f4 32 01 00       	call   18170 <free>
    4e7c:	83 c4 3c             	add    $0x3c,%esp
    4e7f:	5b                   	pop    %ebx
    4e80:	5e                   	pop    %esi
    4e81:	5f                   	pop    %edi
    4e82:	5d                   	pop    %ebp
    4e83:	c3                   	ret    
    4e84:	8d 74 26 00          	lea    0x0(%esi,%eiz,1),%esi
    4e88:	89 1c 24             	mov    %ebx,(%esp)
    4e8b:	e8 d0 31 01 00       	call   18060 <malloc>
    4e90:	89 c6                	mov    %eax,%esi
    4e92:	85 c0                	test   %eax,%eax
    4e94:	0f 85 5e ff ff ff    	jne    4df8 <remote_nic_wol_load_info+0x38>
    4e9a:	8b 45 10             	mov    0x10(%ebp),%eax
    4e9d:	c7 44 24 04 fe ff ff 	movl   $0xfffffffe,0x4(%esp)
    4ea4:	ff 
    4ea5:	89 04 24             	mov    %eax,(%esp)
    4ea8:	e8 f3 5c 01 00       	call   1aba0 <async_answer_0>
    4ead:	eb cd                	jmp    4e7c <remote_nic_wol_load_info+0xbc>
    4eaf:	90                   	nop
    4eb0:	8b 45 e4             	mov    -0x1c(%ebp),%eax
    4eb3:	39 d8                	cmp    %ebx,%eax
    4eb5:	76 02                	jbe    4eb9 <remote_nic_wol_load_info+0xf9>
    4eb7:	89 d8                	mov    %ebx,%eax
    4eb9:	8b 55 d8             	mov    -0x28(%ebp),%edx
    4ebc:	39 d0                	cmp    %edx,%eax
    4ebe:	76 02                	jbe    4ec2 <remote_nic_wol_load_info+0x102>
    4ec0:	89 d0                	mov    %edx,%eax
    4ec2:	89 45 e4             	mov    %eax,-0x1c(%ebp)
    4ec5:	89 44 24 08          	mov    %eax,0x8(%esp)
    4ec9:	8b 45 e0             	mov    -0x20(%ebp),%eax
    4ecc:	89 74 24 04          	mov    %esi,0x4(%esp)
    4ed0:	89 04 24             	mov    %eax,(%esp)
    4ed3:	e8 98 72 01 00       	call   1c170 <async_data_read_finalize>
    4ed8:	8b 45 d8             	mov    -0x28(%ebp),%eax
    4edb:	89 7c 24 04          	mov    %edi,0x4(%esp)
    4edf:	89 44 24 0c          	mov    %eax,0xc(%esp)
    4ee3:	8b 45 dc             	mov    -0x24(%ebp),%eax
    4ee6:	89 44 24 08          	mov    %eax,0x8(%esp)
    4eea:	8b 45 10             	mov    0x10(%ebp),%eax
    4eed:	89 04 24             	mov    %eax,(%esp)
    4ef0:	e8 2b 5d 01 00       	call   1ac20 <async_answer_2>
    4ef5:	89 34 24             	mov    %esi,(%esp)
    4ef8:	e8 73 32 01 00       	call   18170 <free>
    4efd:	83 c4 3c             	add    $0x3c,%esp
    4f00:	5b                   	pop    %ebx
    4f01:	5e                   	pop    %esi
    4f02:	5f                   	pop    %edi
    4f03:	5d                   	pop    %ebp
    4f04:	c3                   	ret    
    4f05:	8d 76 00             	lea    0x0(%esi),%esi
    4f08:	8b 45 10             	mov    0x10(%ebp),%eax
    4f0b:	c7 44 24 04 f5 ff ff 	movl   $0xfffffff5,0x4(%esp)
    4f12:	ff 
    4f13:	89 04 24             	mov    %eax,(%esp)
    4f16:	e8 85 5c 01 00       	call   1aba0 <async_answer_0>
    4f1b:	e9 5c ff ff ff       	jmp    4e7c <remote_nic_wol_load_info+0xbc>

00004f20 <remote_nic_wol_virtue_list>:
    4f20:	55                   	push   %ebp
    4f21:	89 e5                	mov    %esp,%ebp
    4f23:	57                   	push   %edi
    4f24:	56                   	push   %esi
    4f25:	53                   	push   %ebx
    4f26:	83 ec 4c             	sub    $0x4c,%esp
    4f29:	8b 55 0c             	mov    0xc(%ebp),%edx
    4f2c:	8b 45 14             	mov    0x14(%ebp),%eax
    4f2f:	8b 8a 84 00 00 00    	mov    0x84(%edx),%ecx
    4f35:	85 c9                	test   %ecx,%ecx
    4f37:	0f 84 6b 01 00 00    	je     50a8 <remote_nic_wol_virtue_list+0x188>
    4f3d:	8b 78 0c             	mov    0xc(%eax),%edi
    4f40:	8b 70 08             	mov    0x8(%eax),%esi
    4f43:	c7 45 dc 00 00 00 00 	movl   $0x0,-0x24(%ebp)
    4f4a:	85 ff                	test   %edi,%edi
    4f4c:	74 62                	je     4fb0 <remote_nic_wol_virtue_list+0x90>
    4f4e:	8d 14 bd 00 00 00 00 	lea    0x0(,%edi,4),%edx
    4f55:	89 14 24             	mov    %edx,(%esp)
    4f58:	89 55 d4             	mov    %edx,-0x2c(%ebp)
    4f5b:	e8 00 31 01 00       	call   18060 <malloc>
    4f60:	89 c3                	mov    %eax,%ebx
    4f62:	85 c0                	test   %eax,%eax
    4f64:	0f 84 56 01 00 00    	je     50c0 <remote_nic_wol_virtue_list+0x1a0>
    4f6a:	8b 55 d4             	mov    -0x2c(%ebp),%edx
    4f6d:	c7 44 24 04 00 00 00 	movl   $0x0,0x4(%esp)
    4f74:	00 
    4f75:	89 54 24 08          	mov    %edx,0x8(%esp)
    4f79:	89 04 24             	mov    %eax,(%esp)
    4f7c:	e8 9f 5b 00 00       	call   ab20 <memset>
    4f81:	8d 45 dc             	lea    -0x24(%ebp),%eax
    4f84:	89 44 24 10          	mov    %eax,0x10(%esp)
    4f88:	8b 55 0c             	mov    0xc(%ebp),%edx
    4f8b:	8b 45 08             	mov    0x8(%ebp),%eax
    4f8e:	89 5c 24 0c          	mov    %ebx,0xc(%esp)
    4f92:	89 7c 24 08          	mov    %edi,0x8(%esp)
    4f96:	89 74 24 04          	mov    %esi,0x4(%esp)
    4f9a:	89 04 24             	mov    %eax,(%esp)
    4f9d:	ff 92 84 00 00 00    	call   *0x84(%edx)
    4fa3:	8b 55 dc             	mov    -0x24(%ebp),%edx
    4fa6:	85 d2                	test   %edx,%edx
    4fa8:	75 76                	jne    5020 <remote_nic_wol_virtue_list+0x100>
    4faa:	31 d2                	xor    %edx,%edx
    4fac:	eb 4d                	jmp    4ffb <remote_nic_wol_virtue_list+0xdb>
    4fae:	66 90                	xchg   %ax,%ax
    4fb0:	c7 44 24 08 00 00 00 	movl   $0x0,0x8(%esp)
    4fb7:	00 
    4fb8:	c7 44 24 04 00 00 00 	movl   $0x0,0x4(%esp)
    4fbf:	00 
    4fc0:	c7 04 24 00 00 00 00 	movl   $0x0,(%esp)
    4fc7:	31 db                	xor    %ebx,%ebx
    4fc9:	e8 52 5b 00 00       	call   ab20 <memset>
    4fce:	8d 45 dc             	lea    -0x24(%ebp),%eax
    4fd1:	89 44 24 10          	mov    %eax,0x10(%esp)
    4fd5:	8b 55 0c             	mov    0xc(%ebp),%edx
    4fd8:	8b 45 08             	mov    0x8(%ebp),%eax
    4fdb:	c7 44 24 0c 00 00 00 	movl   $0x0,0xc(%esp)
    4fe2:	00 
    4fe3:	c7 44 24 08 00 00 00 	movl   $0x0,0x8(%esp)
    4fea:	00 
    4feb:	89 74 24 04          	mov    %esi,0x4(%esp)
    4fef:	89 04 24             	mov    %eax,(%esp)
    4ff2:	ff 92 84 00 00 00    	call   *0x84(%edx)
    4ff8:	8b 55 dc             	mov    -0x24(%ebp),%edx
    4ffb:	89 44 24 04          	mov    %eax,0x4(%esp)
    4fff:	8b 45 10             	mov    0x10(%ebp),%eax
    5002:	89 54 24 08          	mov    %edx,0x8(%esp)
    5006:	89 04 24             	mov    %eax,(%esp)
    5009:	e8 d2 5b 01 00       	call   1abe0 <async_answer_1>
    500e:	89 1c 24             	mov    %ebx,(%esp)
    5011:	e8 5a 31 01 00       	call   18170 <free>
    5016:	83 c4 4c             	add    $0x4c,%esp
    5019:	5b                   	pop    %ebx
    501a:	5e                   	pop    %esi
    501b:	5f                   	pop    %edi
    501c:	5d                   	pop    %ebp
    501d:	c3                   	ret    
    501e:	66 90                	xchg   %ax,%ax
    5020:	8d 45 e4             	lea    -0x1c(%ebp),%eax
    5023:	89 44 24 04          	mov    %eax,0x4(%esp)
    5027:	8d 45 e0             	lea    -0x20(%ebp),%eax
    502a:	89 04 24             	mov    %eax,(%esp)
    502d:	e8 de 70 01 00       	call   1c110 <async_data_read_receive>
    5032:	84 c0                	test   %al,%al
    5034:	74 3a                	je     5070 <remote_nic_wol_virtue_list+0x150>
    5036:	8b 55 dc             	mov    -0x24(%ebp),%edx
    5039:	8b 45 e4             	mov    -0x1c(%ebp),%eax
    503c:	c1 e2 02             	shl    $0x2,%edx
    503f:	39 c2                	cmp    %eax,%edx
    5041:	73 05                	jae    5048 <remote_nic_wol_virtue_list+0x128>
    5043:	89 55 e4             	mov    %edx,-0x1c(%ebp)
    5046:	89 d0                	mov    %edx,%eax
    5048:	39 45 d4             	cmp    %eax,-0x2c(%ebp)
