
clipboard:     file format elf32-i386


Disassembly of section .init:

00001094 <__entry>:
    1094:	66 8c d0             	mov    %ss,%ax
    1097:	8e d8                	mov    %eax,%ds
    1099:	8e c0                	mov    %eax,%es
    109b:	8e e0                	mov    %eax,%fs
    109d:	b8 01 00 00 00       	mov    $0x1,%eax
    10a2:	0f a2                	cpuid  
    10a4:	0f ba e2 0b          	bt     $0xb,%edx
    10a8:	73 0c                	jae    10b6 <__entry+0x22>
    10aa:	8d 05 54 05 02 00    	lea    0x20554,%eax
    10b0:	c7 00 57 53 01 00    	movl   $0x15357,(%eax)
    10b6:	6a 00                	push   $0x0
    10b8:	89 e5                	mov    %esp,%ebp
    10ba:	57                   	push   %edi
    10bb:	e8 20 04 00 00       	call   14e0 <__main>

Disassembly of section .text:

000010c0 <clip_connection>:
    10c0:	55                   	push   %ebp
    10c1:	89 e5                	mov    %esp,%ebp
    10c3:	57                   	push   %edi
    10c4:	56                   	push   %esi
    10c5:	53                   	push   %ebx
    10c6:	83 ec 6c             	sub    $0x6c,%esp
    10c9:	8d 75 c4             	lea    -0x3c(%ebp),%esi
    10cc:	8b 45 08             	mov    0x8(%ebp),%eax
    10cf:	c7 44 24 04 00 00 00 	movl   $0x0,0x4(%esp)
    10d6:	00 
    10d7:	89 04 24             	mov    %eax,(%esp)
    10da:	e8 51 c5 00 00       	call   d630 <async_answer_0>
    10df:	90                   	nop
    10e0:	c7 44 24 04 00 00 00 	movl   $0x0,0x4(%esp)
    10e7:	00 
    10e8:	89 34 24             	mov    %esi,(%esp)
    10eb:	e8 10 af 00 00       	call   c000 <async_get_call_timeout>
    10f0:	89 c3                	mov    %eax,%ebx
    10f2:	8b 45 c4             	mov    -0x3c(%ebp),%eax
    10f5:	85 c0                	test   %eax,%eax
    10f7:	0f 84 8b 01 00 00    	je     1288 <clip_connection+0x1c8>
    10fd:	3d 01 04 00 00       	cmp    $0x401,%eax
    1102:	74 24                	je     1128 <clip_connection+0x68>
    1104:	3d 02 04 00 00       	cmp    $0x402,%eax
    1109:	0f 84 b9 00 00 00    	je     11c8 <clip_connection+0x108>
    110f:	3d 00 04 00 00       	cmp    $0x400,%eax
    1114:	74 4a                	je     1160 <clip_connection+0xa0>
    1116:	c7 44 24 04 ff ff ff 	movl   $0xffffffff,0x4(%esp)
    111d:	ff 
    111e:	89 1c 24             	mov    %ebx,(%esp)
    1121:	e8 0a c5 00 00       	call   d630 <async_answer_0>
    1126:	eb b8                	jmp    10e0 <clip_connection+0x20>
    1128:	c7 04 24 c0 03 02 00 	movl   $0x203c0,(%esp)
    112f:	e8 ac 0d 00 00       	call   1ee0 <fibril_mutex_lock>
    1134:	83 7d c8 01          	cmpl   $0x1,-0x38(%ebp)
    1138:	0f 84 ea 00 00 00    	je     1228 <clip_connection+0x168>
    113e:	c7 44 24 04 f2 ff ff 	movl   $0xfffffff2,0x4(%esp)
    1145:	ff 
    1146:	89 1c 24             	mov    %ebx,(%esp)
    1149:	e8 e2 c4 00 00       	call   d630 <async_answer_0>
    114e:	c7 04 24 c0 03 02 00 	movl   $0x203c0,(%esp)
    1155:	e8 a6 0e 00 00       	call   2000 <fibril_mutex_unlock>
    115a:	eb 84                	jmp    10e0 <clip_connection+0x20>
    115c:	8d 74 26 00          	lea    0x0(%esi,%eiz,1),%esi
    1160:	8b 45 c8             	mov    -0x38(%ebp),%eax
    1163:	85 c0                	test   %eax,%eax
    1165:	0f 85 a5 00 00 00    	jne    1210 <clip_connection+0x150>
    116b:	c7 04 24 c0 03 02 00 	movl   $0x203c0,(%esp)
    1172:	e8 69 0d 00 00       	call   1ee0 <fibril_mutex_lock>
    1177:	a1 e0 05 02 00       	mov    0x205e0,%eax
    117c:	85 c0                	test   %eax,%eax
    117e:	74 08                	je     1188 <clip_connection+0xc8>
    1180:	89 04 24             	mov    %eax,(%esp)
    1183:	e8 78 9a 00 00       	call   ac00 <free>
    1188:	c7 05 e0 05 02 00 00 	movl   $0x0,0x205e0
    118f:	00 00 00 
    1192:	c7 05 e4 05 02 00 00 	movl   $0x0,0x205e4
    1199:	00 00 00 
    119c:	c7 05 e8 05 02 00 00 	movl   $0x0,0x205e8
    11a3:	00 00 00 
    11a6:	c7 04 24 c0 03 02 00 	movl   $0x203c0,(%esp)
    11ad:	e8 4e 0e 00 00       	call   2000 <fibril_mutex_unlock>
    11b2:	c7 44 24 04 00 00 00 	movl   $0x0,0x4(%esp)
    11b9:	00 
    11ba:	89 1c 24             	mov    %ebx,(%esp)
    11bd:	e8 6e c4 00 00       	call   d630 <async_answer_0>
    11c2:	e9 19 ff ff ff       	jmp    10e0 <clip_connection+0x20>
    11c7:	90                   	nop
    11c8:	c7 04 24 c0 03 02 00 	movl   $0x203c0,(%esp)
    11cf:	e8 0c 0d 00 00       	call   1ee0 <fibril_mutex_lock>
    11d4:	8b 15 e8 05 02 00    	mov    0x205e8,%edx
    11da:	c7 04 24 c0 03 02 00 	movl   $0x203c0,(%esp)
    11e1:	8b 3d e4 05 02 00    	mov    0x205e4,%edi
    11e7:	89 55 b4             	mov    %edx,-0x4c(%ebp)
    11ea:	e8 11 0e 00 00       	call   2000 <fibril_mutex_unlock>
    11ef:	8b 55 b4             	mov    -0x4c(%ebp),%edx
    11f2:	89 7c 24 08          	mov    %edi,0x8(%esp)
    11f6:	89 54 24 0c          	mov    %edx,0xc(%esp)
    11fa:	c7 44 24 04 00 00 00 	movl   $0x0,0x4(%esp)
    1201:	00 
    1202:	89 1c 24             	mov    %ebx,(%esp)
    1205:	e8 a6 c4 00 00       	call   d6b0 <async_answer_2>
    120a:	e9 d1 fe ff ff       	jmp    10e0 <clip_connection+0x20>
    120f:	90                   	nop
    1210:	48                   	dec    %eax
    1211:	74 7d                	je     1290 <clip_connection+0x1d0>
    1213:	c7 44 24 04 f2 ff ff 	movl   $0xfffffff2,0x4(%esp)
    121a:	ff 
    121b:	89 1c 24             	mov    %ebx,(%esp)
    121e:	e8 0d c4 00 00       	call   d630 <async_answer_0>
    1223:	e9 b8 fe ff ff       	jmp    10e0 <clip_connection+0x20>
    1228:	8d 45 c0             	lea    -0x40(%ebp),%eax
    122b:	89 44 24 04          	mov    %eax,0x4(%esp)
    122f:	8d 45 bc             	lea    -0x44(%ebp),%eax
    1232:	89 04 24             	mov    %eax,(%esp)
    1235:	e8 66 d9 00 00       	call   eba0 <async_data_read_receive>
    123a:	84 c0                	test   %al,%al
    123c:	0f 84 16 01 00 00    	je     1358 <clip_connection+0x298>
    1242:	83 3d e8 05 02 00 01 	cmpl   $0x1,0x205e8
    1249:	75 0e                	jne    1259 <clip_connection+0x199>
    124b:	a1 e4 05 02 00       	mov    0x205e4,%eax
    1250:	3b 45 c0             	cmp    -0x40(%ebp),%eax
    1253:	0f 84 af 00 00 00    	je     1308 <clip_connection+0x248>
    1259:	8b 45 bc             	mov    -0x44(%ebp),%eax
    125c:	c7 44 24 04 f0 ff ff 	movl   $0xfffffff0,0x4(%esp)
    1263:	ff 
    1264:	89 04 24             	mov    %eax,(%esp)
    1267:	e8 c4 c3 00 00       	call   d630 <async_answer_0>
    126c:	c7 44 24 04 f0 ff ff 	movl   $0xfffffff0,0x4(%esp)
    1273:	ff 
    1274:	89 1c 24             	mov    %ebx,(%esp)
    1277:	e8 b4 c3 00 00       	call   d630 <async_answer_0>
    127c:	e9 cd fe ff ff       	jmp    114e <clip_connection+0x8e>
    1281:	8d b4 26 00 00 00 00 	lea    0x0(%esi,%eiz,1),%esi
    1288:	83 c4 6c             	add    $0x6c,%esp
    128b:	5b                   	pop    %ebx
    128c:	5e                   	pop    %esi
    128d:	5f                   	pop    %edi
    128e:	5d                   	pop    %ebp
    128f:	c3                   	ret    
    1290:	8d 45 c0             	lea    -0x40(%ebp),%eax
    1293:	c7 44 24 10 00 00 00 	movl   $0x0,0x10(%esp)
    129a:	00 
    129b:	89 44 24 14          	mov    %eax,0x14(%esp)
    129f:	8d 45 b8             	lea    -0x48(%ebp),%eax
    12a2:	c7 44 24 0c 00 00 00 	movl   $0x0,0xc(%esp)
    12a9:	00 
    12aa:	c7 44 24 08 00 00 00 	movl   $0x0,0x8(%esp)
    12b1:	00 
    12b2:	c7 44 24 04 00 00 00 	movl   $0x0,0x4(%esp)
    12b9:	00 
    12ba:	89 04 24             	mov    %eax,(%esp)
    12bd:	e8 8e de 00 00       	call   f150 <async_data_write_accept>
    12c2:	85 c0                	test   %eax,%eax
    12c4:	75 7a                	jne    1340 <clip_connection+0x280>
    12c6:	c7 04 24 c0 03 02 00 	movl   $0x203c0,(%esp)
    12cd:	e8 0e 0c 00 00       	call   1ee0 <fibril_mutex_lock>
    12d2:	a1 e0 05 02 00       	mov    0x205e0,%eax
    12d7:	85 c0                	test   %eax,%eax
    12d9:	74 08                	je     12e3 <clip_connection+0x223>
    12db:	89 04 24             	mov    %eax,(%esp)
    12de:	e8 1d 99 00 00       	call   ac00 <free>
    12e3:	8b 45 b8             	mov    -0x48(%ebp),%eax
    12e6:	c7 05 e8 05 02 00 01 	movl   $0x1,0x205e8
    12ed:	00 00 00 
    12f0:	a3 e0 05 02 00       	mov    %eax,0x205e0
    12f5:	8b 45 c0             	mov    -0x40(%ebp),%eax
    12f8:	a3 e4 05 02 00       	mov    %eax,0x205e4
    12fd:	e9 a4 fe ff ff       	jmp    11a6 <clip_connection+0xe6>
    1302:	8d b6 00 00 00 00    	lea    0x0(%esi),%esi
    1308:	89 44 24 08          	mov    %eax,0x8(%esp)
    130c:	a1 e0 05 02 00       	mov    0x205e0,%eax
    1311:	89 44 24 04          	mov    %eax,0x4(%esp)
    1315:	8b 45 bc             	mov    -0x44(%ebp),%eax
    1318:	89 04 24             	mov    %eax,(%esp)
    131b:	e8 e0 d8 00 00       	call   ec00 <async_data_read_finalize>
    1320:	85 c0                	test   %eax,%eax
    1322:	75 5c                	jne    1380 <clip_connection+0x2c0>
    1324:	c7 44 24 04 00 00 00 	movl   $0x0,0x4(%esp)
    132b:	00 
    132c:	89 1c 24             	mov    %ebx,(%esp)
    132f:	e8 fc c2 00 00       	call   d630 <async_answer_0>
    1334:	e9 05 fe ff ff       	jmp    113e <clip_connection+0x7e>
    1339:	8d b4 26 00 00 00 00 	lea    0x0(%esi,%eiz,1),%esi
    1340:	89 44 24 04          	mov    %eax,0x4(%esp)
    1344:	89 1c 24             	mov    %ebx,(%esp)
    1347:	e8 e4 c2 00 00       	call   d630 <async_answer_0>
    134c:	e9 8f fd ff ff       	jmp    10e0 <clip_connection+0x20>
    1351:	8d b4 26 00 00 00 00 	lea    0x0(%esi,%eiz,1),%esi
    1358:	8b 45 bc             	mov    -0x44(%ebp),%eax
    135b:	c7 44 24 04 f2 ff ff 	movl   $0xfffffff2,0x4(%esp)
    1362:	ff 
    1363:	89 04 24             	mov    %eax,(%esp)
    1366:	e8 c5 c2 00 00       	call   d630 <async_answer_0>
    136b:	c7 44 24 04 f2 ff ff 	movl   $0xfffffff2,0x4(%esp)
    1372:	ff 
    1373:	89 1c 24             	mov    %ebx,(%esp)
    1376:	e8 b5 c2 00 00       	call   d630 <async_answer_0>
    137b:	e9 ce fd ff ff       	jmp    114e <clip_connection+0x8e>
    1380:	89 44 24 04          	mov    %eax,0x4(%esp)
    1384:	89 1c 24             	mov    %ebx,(%esp)
    1387:	e8 a4 c2 00 00       	call   d630 <async_answer_0>
    138c:	e9 bd fd ff ff       	jmp    114e <clip_connection+0x8e>
    1391:	66 90                	xchg   %ax,%ax
    1393:	66 90                	xchg   %ax,%ax
    1395:	66 90                	xchg   %ax,%ax
    1397:	66 90                	xchg   %ax,%ax
    1399:	66 90                	xchg   %ax,%ax
    139b:	66 90                	xchg   %ax,%ax
    139d:	66 90                	xchg   %ax,%ax
    139f:	90                   	nop

000013a0 <main>:
    13a0:	55                   	push   %ebp
    13a1:	89 e5                	mov    %esp,%ebp
    13a3:	53                   	push   %ebx
    13a4:	83 e4 f0             	and    $0xfffffff0,%esp
    13a7:	83 ec 10             	sub    $0x10,%esp
    13aa:	c7 44 24 04 72 da 01 	movl   $0x1da72,0x4(%esp)
    13b1:	00 
    13b2:	c7 04 24 98 da 01 00 	movl   $0x1da98,(%esp)
    13b9:	e8 b2 4a 00 00       	call   5e70 <printf>
    13be:	c7 04 24 c0 10 00 00 	movl   $0x10c0,(%esp)
    13c5:	e8 16 aa 00 00       	call   bde0 <async_set_client_connection>
    13ca:	c7 04 24 63 6c 69 70 	movl   $0x70696c63,(%esp)
    13d1:	e8 ca 9e 00 00       	call   b2a0 <service_register>
    13d6:	89 c3                	mov    %eax,%ebx
    13d8:	85 c0                	test   %eax,%eax
    13da:	75 2c                	jne    1408 <main+0x68>
    13dc:	c7 44 24 04 72 da 01 	movl   $0x1da72,0x4(%esp)
    13e3:	00 
    13e4:	c7 04 24 7c da 01 00 	movl   $0x1da7c,(%esp)
    13eb:	e8 80 4a 00 00       	call   5e70 <printf>
    13f0:	c7 04 24 00 00 00 00 	movl   $0x0,(%esp)
    13f7:	e8 34 24 00 00       	call   3830 <task_retval>
    13fc:	c7 04 24 01 00 00 00 	movl   $0x1,(%esp)
    1403:	e8 08 03 00 00       	call   1710 <fibril_switch>
    1408:	89 d8                	mov    %ebx,%eax
    140a:	8b 5d fc             	mov    -0x4(%ebp),%ebx
    140d:	c9                   	leave  
    140e:	c3                   	ret    
    140f:	90                   	nop

00001410 <exit>:
    1410:	55                   	push   %ebp
    1411:	89 e5                	mov    %esp,%ebp
    1413:	83 ec 28             	sub    $0x28,%esp
    1416:	80 3d ec 05 02 00 00 	cmpb   $0x0,0x205ec
    141d:	75 3f                	jne    145e <exit+0x4e>
    141f:	c7 44 24 18 0a 00 00 	movl   $0xa,0x18(%esp)
    1426:	00 
    1427:	c7 44 24 14 00 00 00 	movl   $0x0,0x14(%esp)
    142e:	00 
    142f:	c7 44 24 10 00 00 00 	movl   $0x0,0x10(%esp)
    1436:	00 
    1437:	c7 44 24 0c 00 00 00 	movl   $0x0,0xc(%esp)
    143e:	00 
    143f:	c7 44 24 08 00 00 00 	movl   $0x0,0x8(%esp)
    1446:	00 
    1447:	c7 44 24 04 00 00 00 	movl   $0x0,0x4(%esp)
    144e:	00 
    144f:	c7 04 24 00 00 00 00 	movl   $0x0,(%esp)
    1456:	ff 15 54 05 02 00    	call   *0x20554
    145c:	eb fe                	jmp    145c <exit+0x4c>
    145e:	e8 ad 28 00 00       	call   3d10 <__stdio_done>
    1463:	8b 45 08             	mov    0x8(%ebp),%eax
    1466:	89 04 24             	mov    %eax,(%esp)
    1469:	e8 c2 23 00 00       	call   3830 <task_retval>
    146e:	65 a1 00 00 00 00    	mov    %gs:0x0,%eax
    1474:	8b 40 04             	mov    0x4(%eax),%eax
    1477:	89 04 24             	mov    %eax,(%esp)
    147a:	e8 a1 01 00 00       	call   1620 <fibril_teardown>
    147f:	eb 9e                	jmp    141f <exit+0xf>
    1481:	eb 0d                	jmp    1490 <abort>
    1483:	90                   	nop
    1484:	90                   	nop
    1485:	90                   	nop
    1486:	90                   	nop
    1487:	90                   	nop
    1488:	90                   	nop
    1489:	90                   	nop
    148a:	90                   	nop
    148b:	90                   	nop
    148c:	90                   	nop
    148d:	90                   	nop
    148e:	90                   	nop
    148f:	90                   	nop

00001490 <abort>:
    1490:	55                   	push   %ebp
    1491:	89 e5                	mov    %esp,%ebp
    1493:	83 ec 28             	sub    $0x28,%esp
    1496:	c7 44 24 18 0a 00 00 	movl   $0xa,0x18(%esp)
    149d:	00 
    149e:	c7 44 24 14 00 00 00 	movl   $0x0,0x14(%esp)
    14a5:	00 
    14a6:	c7 44 24 10 00 00 00 	movl   $0x0,0x10(%esp)
    14ad:	00 
    14ae:	c7 44 24 0c 00 00 00 	movl   $0x0,0xc(%esp)
    14b5:	00 
    14b6:	c7 44 24 08 00 00 00 	movl   $0x0,0x8(%esp)
    14bd:	00 
    14be:	c7 44 24 04 00 00 00 	movl   $0x0,0x4(%esp)
    14c5:	00 
    14c6:	c7 04 24 01 00 00 00 	movl   $0x1,(%esp)
    14cd:	ff 15 54 05 02 00    	call   *0x20554
    14d3:	eb fe                	jmp    14d3 <abort+0x43>
    14d5:	8d 74 26 00          	lea    0x0(%esi,%eiz,1),%esi
    14d9:	8d bc 27 00 00 00 00 	lea    0x0(%edi,%eiz,1),%edi

000014e0 <__main>:
    14e0:	55                   	push   %ebp
    14e1:	89 e5                	mov    %esp,%ebp
    14e3:	57                   	push   %edi
    14e4:	56                   	push   %esi
    14e5:	53                   	push   %ebx
    14e6:	83 ec 2c             	sub    $0x2c,%esp
    14e9:	8b 5d 08             	mov    0x8(%ebp),%ebx
    14ec:	e8 ff 94 00 00       	call   a9f0 <__malloc_init>
    14f1:	e8 0a b4 00 00       	call   c900 <__async_init>
    14f6:	e8 a5 00 00 00       	call   15a0 <fibril_setup>
    14fb:	85 c0                	test   %eax,%eax
    14fd:	0f 84 82 00 00 00    	je     1585 <__main+0xa5>
    1503:	c7 44 24 18 01 00 00 	movl   $0x1,0x18(%esp)
    150a:	00 
    150b:	c7 44 24 14 00 00 00 	movl   $0x0,0x14(%esp)
    1512:	00 
    1513:	c7 44 24 10 00 00 00 	movl   $0x0,0x10(%esp)
    151a:	00 
    151b:	c7 44 24 0c 00 00 00 	movl   $0x0,0xc(%esp)
    1522:	00 
    1523:	c7 44 24 08 00 00 00 	movl   $0x0,0x8(%esp)
    152a:	00 
    152b:	c7 44 24 04 00 00 00 	movl   $0x0,0x4(%esp)
    1532:	00 
    1533:	8b 40 30             	mov    0x30(%eax),%eax
    1536:	89 04 24             	mov    %eax,(%esp)
    1539:	ff 15 54 05 02 00    	call   *0x20554
    153f:	89 1d d8 05 02 00    	mov    %ebx,0x205d8
    1545:	c6 05 ec 05 02 00 01 	movb   $0x1,0x205ec
    154c:	85 db                	test   %ebx,%ebx
    154e:	74 3a                	je     158a <__main+0xaa>
    1550:	8b 43 10             	mov    0x10(%ebx),%eax
    1553:	8b 73 08             	mov    0x8(%ebx),%esi
    1556:	8b 7b 0c             	mov    0xc(%ebx),%edi
    1559:	89 04 24             	mov    %eax,(%esp)
    155c:	e8 1f 25 00 00       	call   3a80 <__stdio_init>
    1561:	a1 d8 05 02 00       	mov    0x205d8,%eax
    1566:	8b 40 04             	mov    0x4(%eax),%eax
    1569:	89 04 24             	mov    %eax,(%esp)
    156c:	e8 ef 30 01 00       	call   14660 <chdir>
    1571:	89 7c 24 04          	mov    %edi,0x4(%esp)
    1575:	89 34 24             	mov    %esi,(%esp)
    1578:	e8 23 fe ff ff       	call   13a0 <main>
    157d:	89 04 24             	mov    %eax,(%esp)
    1580:	e8 8b fe ff ff       	call   1410 <exit>
    1585:	e8 06 ff ff ff       	call   1490 <abort>
    158a:	c7 04 24 00 00 00 00 	movl   $0x0,(%esp)
    1591:	31 ff                	xor    %edi,%edi
    1593:	e8 e8 24 00 00       	call   3a80 <__stdio_init>
    1598:	31 f6                	xor    %esi,%esi
    159a:	eb d5                	jmp    1571 <__main+0x91>
    159c:	66 90                	xchg   %ax,%ax
    159e:	66 90                	xchg   %ax,%ax

000015a0 <fibril_setup>:
    15a0:	55                   	push   %ebp
    15a1:	89 e5                	mov    %esp,%ebp
    15a3:	53                   	push   %ebx
    15a4:	83 ec 24             	sub    $0x24,%esp
    15a7:	e8 c4 1b 00 00       	call   3170 <__make_tls>
    15ac:	89 c3                	mov    %eax,%ebx
    15ae:	85 c0                	test   %eax,%eax
    15b0:	74 4e                	je     1600 <fibril_setup+0x60>
    15b2:	c7 04 24 44 00 00 00 	movl   $0x44,(%esp)
    15b9:	e8 32 95 00 00       	call   aaf0 <malloc>
    15be:	85 c0                	test   %eax,%eax
    15c0:	74 42                	je     1604 <fibril_setup+0x64>
    15c2:	89 43 04             	mov    %eax,0x4(%ebx)
    15c5:	89 58 30             	mov    %ebx,0x30(%eax)
    15c8:	c7 40 2c 00 00 00 00 	movl   $0x0,0x2c(%eax)
    15cf:	c7 40 28 00 00 00 00 	movl   $0x0,0x28(%eax)
    15d6:	c7 40 24 00 00 00 00 	movl   $0x0,0x24(%eax)
    15dd:	c7 40 34 00 00 00 00 	movl   $0x0,0x34(%eax)
    15e4:	c7 40 38 00 00 00 00 	movl   $0x0,0x38(%eax)
    15eb:	c7 40 3c 00 00 00 00 	movl   $0x0,0x3c(%eax)
    15f2:	c7 40 40 00 00 00 00 	movl   $0x0,0x40(%eax)
    15f9:	83 c4 24             	add    $0x24,%esp
    15fc:	5b                   	pop    %ebx
    15fd:	5d                   	pop    %ebp
    15fe:	c3                   	ret    
    15ff:	90                   	nop
    1600:	31 c0                	xor    %eax,%eax
    1602:	eb f5                	jmp    15f9 <fibril_setup+0x59>
    1604:	89 1c 24             	mov    %ebx,(%esp)
    1607:	89 45 f4             	mov    %eax,-0xc(%ebp)
    160a:	e8 e1 1b 00 00       	call   31f0 <__free_tls>
    160f:	8b 45 f4             	mov    -0xc(%ebp),%eax
    1612:	eb e5                	jmp    15f9 <fibril_setup+0x59>
    1614:	8d b6 00 00 00 00    	lea    0x0(%esi),%esi
    161a:	8d bf 00 00 00 00    	lea    0x0(%edi),%edi

00001620 <fibril_teardown>:
    1620:	55                   	push   %ebp
    1621:	89 e5                	mov    %esp,%ebp
    1623:	53                   	push   %ebx
    1624:	83 ec 14             	sub    $0x14,%esp
    1627:	8b 5d 08             	mov    0x8(%ebp),%ebx
    162a:	8b 43 30             	mov    0x30(%ebx),%eax
    162d:	89 04 24             	mov    %eax,(%esp)
    1630:	e8 bb 1b 00 00       	call   31f0 <__free_tls>
    1635:	89 5d 08             	mov    %ebx,0x8(%ebp)
    1638:	83 c4 14             	add    $0x14,%esp
    163b:	5b                   	pop    %ebx
    163c:	5d                   	pop    %ebp
    163d:	e9 be 95 00 00       	jmp    ac00 <free>
    1642:	8d b4 26 00 00 00 00 	lea    0x0(%esi,%eiz,1),%esi
    1649:	8d bc 27 00 00 00 00 	lea    0x0(%edi,%eiz,1),%edi

00001650 <fibril_switch.constprop.0>:
    1650:	55                   	push   %ebp
    1651:	89 e5                	mov    %esp,%ebp
    1653:	53                   	push   %ebx
    1654:	83 ec 14             	sub    $0x14,%esp
    1657:	eb 18                	jmp    1671 <fibril_switch.constprop.0+0x21>
    1659:	8d b4 26 00 00 00 00 	lea    0x0(%esi,%eiz,1),%esi
    1660:	c7 04 24 d0 03 02 00 	movl   $0x203d0,(%esp)
    1667:	e8 e4 22 00 00       	call   3950 <futex_up>
    166c:	e8 4f b2 00 00       	call   c8c0 <async_create_manager>
    1671:	c7 04 24 d0 03 02 00 	movl   $0x203d0,(%esp)
    1678:	e8 73 22 00 00       	call   38f0 <futex_down>
    167d:	8b 1d e8 03 02 00    	mov    0x203e8,%ebx
    1683:	81 fb e4 03 02 00    	cmp    $0x203e4,%ebx
    1689:	74 d5                	je     1660 <fibril_switch.constprop.0+0x10>
    168b:	65 a1 00 00 00 00    	mov    %gs:0x0,%eax
    1691:	8b 15 f0 05 02 00    	mov    0x205f0,%edx
    1697:	8b 40 04             	mov    0x4(%eax),%eax
    169a:	42                   	inc    %edx
    169b:	89 43 34             	mov    %eax,0x34(%ebx)
    169e:	8b 03                	mov    (%ebx),%eax
    16a0:	89 15 f0 05 02 00    	mov    %edx,0x205f0
    16a6:	85 c0                	test   %eax,%eax
    16a8:	74 0e                	je     16b8 <fibril_switch.constprop.0+0x68>
    16aa:	8b 53 04             	mov    0x4(%ebx),%edx
    16ad:	85 d2                	test   %edx,%edx
    16af:	74 07                	je     16b8 <fibril_switch.constprop.0+0x68>
    16b1:	89 02                	mov    %eax,(%edx)
    16b3:	8b 03                	mov    (%ebx),%eax
    16b5:	89 50 04             	mov    %edx,0x4(%eax)
    16b8:	c7 03 00 00 00 00    	movl   $0x0,(%ebx)
    16be:	c7 43 04 00 00 00 00 	movl   $0x0,0x4(%ebx)
    16c5:	c7 04 24 d0 03 02 00 	movl   $0x203d0,(%esp)
    16cc:	83 c3 08             	add    $0x8,%ebx
    16cf:	e8 7c 22 00 00       	call   3950 <futex_up>
    16d4:	89 1c 24             	mov    %ebx,(%esp)
    16d7:	e8 d5 3c 01 00       	call   153b1 <context_restore>
    16dc:	8d 74 26 00          	lea    0x0(%esi,%eiz,1),%esi

000016e0 <fibril_main>:
    16e0:	55                   	push   %ebp
    16e1:	89 e5                	mov    %esp,%ebp
    16e3:	53                   	push   %ebx
    16e4:	83 ec 14             	sub    $0x14,%esp
    16e7:	65 a1 00 00 00 00    	mov    %gs:0x0,%eax
    16ed:	8b 58 04             	mov    0x4(%eax),%ebx
    16f0:	8b 43 28             	mov    0x28(%ebx),%eax
    16f3:	89 04 24             	mov    %eax,(%esp)
    16f6:	ff 53 2c             	call   *0x2c(%ebx)
    16f9:	89 43 38             	mov    %eax,0x38(%ebx)
    16fc:	e8 4f ff ff ff       	call   1650 <fibril_switch.constprop.0>
    1701:	eb 0d                	jmp    1710 <fibril_switch>
    1703:	90                   	nop
    1704:	90                   	nop
    1705:	90                   	nop
    1706:	90                   	nop
    1707:	90                   	nop
    1708:	90                   	nop
    1709:	90                   	nop
    170a:	90                   	nop
    170b:	90                   	nop
    170c:	90                   	nop
    170d:	90                   	nop
    170e:	90                   	nop
    170f:	90                   	nop

00001710 <fibril_switch>:
    1710:	55                   	push   %ebp
    1711:	89 e5                	mov    %esp,%ebp
    1713:	53                   	push   %ebx
    1714:	83 ec 24             	sub    $0x24,%esp
    1717:	c7 04 24 d0 03 02 00 	movl   $0x203d0,(%esp)
    171e:	e8 cd 21 00 00       	call   38f0 <futex_down>
    1723:	8b 45 08             	mov    0x8(%ebp),%eax
    1726:	85 c0                	test   %eax,%eax
    1728:	0f 85 b2 00 00 00    	jne    17e0 <fibril_switch+0xd0>
    172e:	81 3d d8 03 02 00 d4 	cmpl   $0x203d4,0x203d8
    1735:	03 02 00 
    1738:	0f 84 da 00 00 00    	je     1818 <fibril_switch+0x108>
    173e:	8b 45 08             	mov    0x8(%ebp),%eax
    1741:	83 e0 fd             	and    $0xfffffffd,%eax
    1744:	48                   	dec    %eax
    1745:	0f 94 45 f3          	sete   -0xd(%ebp)
    1749:	83 7d 08 01          	cmpl   $0x1,0x8(%ebp)
    174d:	0f 94 45 f2          	sete   -0xe(%ebp)
    1751:	83 7d 08 03          	cmpl   $0x3,0x8(%ebp)
    1755:	0f 94 45 f1          	sete   -0xf(%ebp)
    1759:	65 a1 00 00 00 00    	mov    %gs:0x0,%eax
    175f:	8b 40 04             	mov    0x4(%eax),%eax
    1762:	89 45 f4             	mov    %eax,-0xc(%ebp)
    1765:	83 7d 08 03          	cmpl   $0x3,0x8(%ebp)
    1769:	0f 84 8e 01 00 00    	je     18fd <fibril_switch+0x1ed>
    176f:	83 c0 08             	add    $0x8,%eax
    1772:	89 04 24             	mov    %eax,(%esp)
    1775:	e8 12 3c 01 00       	call   1538c <context_save>
    177a:	85 c0                	test   %eax,%eax
    177c:	0f 85 07 02 00 00    	jne    1989 <fibril_switch+0x279>
    1782:	65 8b 1d f4 ff ff ff 	mov    %gs:0xfffffff4,%ebx
    1789:	85 db                	test   %ebx,%ebx
    178b:	0f 85 9f 00 00 00    	jne    1830 <fibril_switch+0x120>
    1791:	8b 45 f4             	mov    -0xc(%ebp),%eax
    1794:	8b 58 34             	mov    0x34(%eax),%ebx
    1797:	85 db                	test   %ebx,%ebx
    1799:	0f 84 11 01 00 00    	je     18b0 <fibril_switch+0x1a0>
    179f:	8b 43 24             	mov    0x24(%ebx),%eax
    17a2:	85 c0                	test   %eax,%eax
    17a4:	74 0e                	je     17b4 <fibril_switch+0xa4>
    17a6:	89 04 24             	mov    %eax,(%esp)
    17a9:	e8 a2 42 01 00       	call   15a50 <as_area_destroy>
    17ae:	8b 55 f4             	mov    -0xc(%ebp),%edx
    17b1:	8b 5a 34             	mov    0x34(%edx),%ebx
    17b4:	8b 43 30             	mov    0x30(%ebx),%eax
    17b7:	89 04 24             	mov    %eax,(%esp)
    17ba:	e8 31 1a 00 00       	call   31f0 <__free_tls>
    17bf:	89 1c 24             	mov    %ebx,(%esp)
    17c2:	e8 39 94 00 00       	call   ac00 <free>
    17c7:	8b 45 f4             	mov    -0xc(%ebp),%eax
    17ca:	c7 40 34 00 00 00 00 	movl   $0x0,0x34(%eax)
    17d1:	b8 01 00 00 00       	mov    $0x1,%eax
    17d6:	83 c4 24             	add    $0x24,%esp
    17d9:	5b                   	pop    %ebx
    17da:	5d                   	pop    %ebp
    17db:	c3                   	ret    
    17dc:	8d 74 26 00          	lea    0x0(%esi,%eiz,1),%esi
    17e0:	83 7d 08 02          	cmpl   $0x2,0x8(%ebp)
    17e4:	75 62                	jne    1848 <fibril_switch+0x138>
    17e6:	81 3d d8 03 02 00 d4 	cmpl   $0x203d4,0x203d8
    17ed:	03 02 00 
    17f0:	0f 84 c4 00 00 00    	je     18ba <fibril_switch+0x1aa>
    17f6:	81 3d e0 03 02 00 dc 	cmpl   $0x203dc,0x203e0
    17fd:	03 02 00 
    1800:	0f 85 38 ff ff ff    	jne    173e <fibril_switch+0x2e>
    1806:	a1 f4 05 02 00       	mov    0x205f4,%eax
    180b:	39 05 f0 05 02 00    	cmp    %eax,0x205f0
    1811:	0f 8f 27 ff ff ff    	jg     173e <fibril_switch+0x2e>
    1817:	90                   	nop
    1818:	c7 04 24 d0 03 02 00 	movl   $0x203d0,(%esp)
    181f:	e8 2c 21 00 00       	call   3950 <futex_up>
    1824:	83 c4 24             	add    $0x24,%esp
    1827:	31 c0                	xor    %eax,%eax
    1829:	5b                   	pop    %ebx
    182a:	5d                   	pop    %ebp
    182b:	c3                   	ret    
    182c:	8d 74 26 00          	lea    0x0(%esi,%eiz,1),%esi
    1830:	8b 55 f4             	mov    -0xc(%ebp),%edx
    1833:	8b 4a 3c             	mov    0x3c(%edx),%ecx
    1836:	83 e1 fe             	and    $0xfffffffe,%ecx
    1839:	89 4a 3c             	mov    %ecx,0x3c(%edx)
    183c:	e9 50 ff ff ff       	jmp    1791 <fibril_switch+0x81>
    1841:	8d b4 26 00 00 00 00 	lea    0x0(%esi,%eiz,1),%esi
    1848:	8b 45 08             	mov    0x8(%ebp),%eax
    184b:	83 7d 08 01          	cmpl   $0x1,0x8(%ebp)
    184f:	0f 94 45 f2          	sete   -0xe(%ebp)
    1853:	83 7d 08 03          	cmpl   $0x3,0x8(%ebp)
    1857:	0f 94 45 f1          	sete   -0xf(%ebp)
    185b:	83 e0 fd             	and    $0xfffffffd,%eax
    185e:	48                   	dec    %eax
    185f:	0f 85 5d 01 00 00    	jne    19c2 <fibril_switch+0x2b2>
    1865:	81 3d e8 03 02 00 e4 	cmpl   $0x203e4,0x203e8
    186c:	03 02 00 
    186f:	75 30                	jne    18a1 <fibril_switch+0x191>
    1871:	8d b4 26 00 00 00 00 	lea    0x0(%esi,%eiz,1),%esi
    1878:	c7 04 24 d0 03 02 00 	movl   $0x203d0,(%esp)
    187f:	e8 cc 20 00 00       	call   3950 <futex_up>
    1884:	e8 37 b0 00 00       	call   c8c0 <async_create_manager>
    1889:	c7 04 24 d0 03 02 00 	movl   $0x203d0,(%esp)
    1890:	e8 5b 20 00 00       	call   38f0 <futex_down>
    1895:	81 3d e8 03 02 00 e4 	cmpl   $0x203e4,0x203e8
    189c:	03 02 00 
    189f:	74 d7                	je     1878 <fibril_switch+0x168>
    18a1:	c6 45 f3 01          	movb   $0x1,-0xd(%ebp)
    18a5:	e9 af fe ff ff       	jmp    1759 <fibril_switch+0x49>
    18aa:	8d b6 00 00 00 00    	lea    0x0(%esi),%esi
    18b0:	b8 01 00 00 00       	mov    $0x1,%eax
    18b5:	e9 1c ff ff ff       	jmp    17d6 <fibril_switch+0xc6>
    18ba:	81 3d e0 03 02 00 dc 	cmpl   $0x203dc,0x203e0
    18c1:	03 02 00 
    18c4:	0f 85 74 fe ff ff    	jne    173e <fibril_switch+0x2e>
    18ca:	e9 49 ff ff ff       	jmp    1818 <fibril_switch+0x108>
    18cf:	83 7d 08 02          	cmpl   $0x2,0x8(%ebp)
    18d3:	75 28                	jne    18fd <fibril_switch+0x1ed>
    18d5:	8b 45 f4             	mov    -0xc(%ebp),%eax
    18d8:	8b 55 f4             	mov    -0xc(%ebp),%edx
    18db:	ff 0d f0 05 02 00    	decl   0x205f0
    18e1:	c7 40 04 e4 03 02 00 	movl   $0x203e4,0x4(%eax)
    18e8:	a1 e4 03 02 00       	mov    0x203e4,%eax
    18ed:	89 02                	mov    %eax,(%edx)
    18ef:	a1 e4 03 02 00       	mov    0x203e4,%eax
    18f4:	89 15 e4 03 02 00    	mov    %edx,0x203e4
    18fa:	89 50 04             	mov    %edx,0x4(%eax)
    18fd:	80 7d f3 00          	cmpb   $0x0,-0xd(%ebp)
    1901:	74 70                	je     1973 <fibril_switch+0x263>
    1903:	8b 1d e8 03 02 00    	mov    0x203e8,%ebx
    1909:	81 fb e4 03 02 00    	cmp    $0x203e4,%ebx
    190f:	0f 95 c0             	setne  %al
    1912:	25 ff 00 00 00       	and    $0xff,%eax
    1917:	f7 d8                	neg    %eax
    1919:	21 c3                	and    %eax,%ebx
    191b:	65 83 3d f4 ff ff ff 	cmpl   $0x0,%gs:0xfffffff4
    1922:	00 
    1923:	74 0a                	je     192f <fibril_switch+0x21f>
    1925:	80 7d f2 00          	cmpb   $0x0,-0xe(%ebp)
    1929:	0f 85 b9 00 00 00    	jne    19e8 <fibril_switch+0x2d8>
    192f:	ff 05 f0 05 02 00    	incl   0x205f0
    1935:	80 7d f1 00          	cmpb   $0x0,-0xf(%ebp)
    1939:	75 7c                	jne    19b7 <fibril_switch+0x2a7>
    193b:	8b 13                	mov    (%ebx),%edx
    193d:	85 d2                	test   %edx,%edx
    193f:	74 0e                	je     194f <fibril_switch+0x23f>
    1941:	8b 43 04             	mov    0x4(%ebx),%eax
    1944:	85 c0                	test   %eax,%eax
    1946:	74 07                	je     194f <fibril_switch+0x23f>
    1948:	89 10                	mov    %edx,(%eax)
    194a:	8b 13                	mov    (%ebx),%edx
    194c:	89 42 04             	mov    %eax,0x4(%edx)
    194f:	c7 03 00 00 00 00    	movl   $0x0,(%ebx)
    1955:	c7 43 04 00 00 00 00 	movl   $0x0,0x4(%ebx)
    195c:	c7 04 24 d0 03 02 00 	movl   $0x203d0,(%esp)
    1963:	83 c3 08             	add    $0x8,%ebx
    1966:	e8 e5 1f 00 00       	call   3950 <futex_up>
    196b:	89 1c 24             	mov    %ebx,(%esp)
    196e:	e8 3e 3a 01 00       	call   153b1 <context_restore>
    1973:	8b 1d e0 03 02 00    	mov    0x203e0,%ebx
    1979:	81 fb dc 03 02 00    	cmp    $0x203dc,%ebx
    197f:	74 4a                	je     19cb <fibril_switch+0x2bb>
    1981:	ff 0d f4 05 02 00    	decl   0x205f4
    1987:	eb b2                	jmp    193b <fibril_switch+0x22b>
    1989:	83 7d 08 00          	cmpl   $0x0,0x8(%ebp)
    198d:	0f 85 3c ff ff ff    	jne    18cf <fibril_switch+0x1bf>
    1993:	8b 55 f4             	mov    -0xc(%ebp),%edx
    1996:	a1 d4 03 02 00       	mov    0x203d4,%eax
    199b:	89 02                	mov    %eax,(%edx)
    199d:	c7 42 04 d4 03 02 00 	movl   $0x203d4,0x4(%edx)
    19a4:	a1 d4 03 02 00       	mov    0x203d4,%eax
    19a9:	89 15 d4 03 02 00    	mov    %edx,0x203d4
    19af:	89 50 04             	mov    %edx,0x4(%eax)
    19b2:	e9 46 ff ff ff       	jmp    18fd <fibril_switch+0x1ed>
    19b7:	8b 55 f4             	mov    -0xc(%ebp),%edx
    19ba:	89 53 34             	mov    %edx,0x34(%ebx)
    19bd:	e9 79 ff ff ff       	jmp    193b <fibril_switch+0x22b>
    19c2:	c6 45 f3 00          	movb   $0x0,-0xd(%ebp)
    19c6:	e9 8e fd ff ff       	jmp    1759 <fibril_switch+0x49>
    19cb:	8b 1d d8 03 02 00    	mov    0x203d8,%ebx
    19d1:	81 fb d4 03 02 00    	cmp    $0x203d4,%ebx
    19d7:	0f 95 c0             	setne  %al
    19da:	25 ff 00 00 00       	and    $0xff,%eax
    19df:	f7 d8                	neg    %eax
    19e1:	21 c3                	and    %eax,%ebx
    19e3:	e9 53 ff ff ff       	jmp    193b <fibril_switch+0x22b>
    19e8:	8b 45 f4             	mov    -0xc(%ebp),%eax
    19eb:	ff 05 f4 05 02 00    	incl   0x205f4
    19f1:	83 48 3c 01          	orl    $0x1,0x3c(%eax)
    19f5:	ff 05 f0 05 02 00    	incl   0x205f0
    19fb:	e9 3b ff ff ff       	jmp    193b <fibril_switch+0x22b>

00001a00 <fibril_create>:
    1a00:	55                   	push   %ebp
    1a01:	89 e5                	mov    %esp,%ebp
    1a03:	53                   	push   %ebx
    1a04:	83 ec 24             	sub    $0x24,%esp
    1a07:	e8 64 17 00 00       	call   3170 <__make_tls>
    1a0c:	89 c3                	mov    %eax,%ebx
    1a0e:	85 c0                	test   %eax,%eax
    1a10:	0f 84 ea 00 00 00    	je     1b00 <fibril_create+0x100>
    1a16:	c7 04 24 44 00 00 00 	movl   $0x44,(%esp)
    1a1d:	e8 ce 90 00 00       	call   aaf0 <malloc>
    1a22:	89 45 f4             	mov    %eax,-0xc(%ebp)
    1a25:	85 c0                	test   %eax,%eax
    1a27:	0f 84 c5 00 00 00    	je     1af2 <fibril_create+0xf2>
    1a2d:	89 43 04             	mov    %eax,0x4(%ebx)
    1a30:	89 58 30             	mov    %ebx,0x30(%eax)
    1a33:	c7 40 2c 00 00 00 00 	movl   $0x0,0x2c(%eax)
    1a3a:	c7 40 28 00 00 00 00 	movl   $0x0,0x28(%eax)
    1a41:	c7 40 24 00 00 00 00 	movl   $0x0,0x24(%eax)
    1a48:	c7 40 34 00 00 00 00 	movl   $0x0,0x34(%eax)
    1a4f:	c7 40 38 00 00 00 00 	movl   $0x0,0x38(%eax)
    1a56:	c7 40 3c 00 00 00 00 	movl   $0x0,0x3c(%eax)
    1a5d:	c7 40 40 00 00 00 00 	movl   $0x0,0x40(%eax)
    1a64:	e8 e7 36 01 00       	call   15150 <stack_size_get>
    1a69:	c7 44 24 08 3b 00 00 	movl   $0x3b,0x8(%esp)
    1a70:	00 
    1a71:	89 44 24 04          	mov    %eax,0x4(%esp)
    1a75:	c7 04 24 ff ff ff ff 	movl   $0xffffffff,(%esp)
    1a7c:	89 45 f0             	mov    %eax,-0x10(%ebp)
    1a7f:	e8 2c 3f 01 00       	call   159b0 <as_area_create>
    1a84:	8b 55 f4             	mov    -0xc(%ebp),%edx
    1a87:	89 42 24             	mov    %eax,0x24(%edx)
    1a8a:	40                   	inc    %eax
    1a8b:	74 4b                	je     1ad8 <fibril_create+0xd8>
    1a8d:	8b 45 08             	mov    0x8(%ebp),%eax
    1a90:	89 42 2c             	mov    %eax,0x2c(%edx)
    1a93:	8b 45 0c             	mov    0xc(%ebp),%eax
    1a96:	89 42 28             	mov    %eax,0x28(%edx)
    1a99:	89 d0                	mov    %edx,%eax
    1a9b:	83 c0 08             	add    $0x8,%eax
    1a9e:	89 04 24             	mov    %eax,(%esp)
    1aa1:	e8 e6 38 01 00       	call   1538c <context_save>
    1aa6:	8b 45 f4             	mov    -0xc(%ebp),%eax
    1aa9:	8b 55 f0             	mov    -0x10(%ebp),%edx
    1aac:	c7 40 0c e0 16 00 00 	movl   $0x16e0,0xc(%eax)
    1ab3:	8b 40 24             	mov    0x24(%eax),%eax
    1ab6:	8d 44 10 f4          	lea    -0xc(%eax,%edx,1),%eax
    1aba:	8b 55 f4             	mov    -0xc(%ebp),%edx
    1abd:	89 42 08             	mov    %eax,0x8(%edx)
    1ac0:	8b 42 30             	mov    0x30(%edx),%eax
    1ac3:	89 42 20             	mov    %eax,0x20(%edx)
    1ac6:	c7 42 1c 00 00 00 00 	movl   $0x0,0x1c(%edx)
    1acd:	89 d0                	mov    %edx,%eax
    1acf:	83 c4 24             	add    $0x24,%esp
    1ad2:	5b                   	pop    %ebx
    1ad3:	5d                   	pop    %ebp
    1ad4:	c3                   	ret    
    1ad5:	8d 76 00             	lea    0x0(%esi),%esi
    1ad8:	8b 42 30             	mov    0x30(%edx),%eax
    1adb:	89 04 24             	mov    %eax,(%esp)
    1ade:	e8 0d 17 00 00       	call   31f0 <__free_tls>
    1ae3:	8b 45 f4             	mov    -0xc(%ebp),%eax
    1ae6:	89 04 24             	mov    %eax,(%esp)
    1ae9:	e8 12 91 00 00       	call   ac00 <free>
    1aee:	31 c0                	xor    %eax,%eax
    1af0:	eb dd                	jmp    1acf <fibril_create+0xcf>
    1af2:	89 1c 24             	mov    %ebx,(%esp)
    1af5:	e8 f6 16 00 00       	call   31f0 <__free_tls>
    1afa:	8d b6 00 00 00 00    	lea    0x0(%esi),%esi
    1b00:	31 c0                	xor    %eax,%eax
    1b02:	eb cb                	jmp    1acf <fibril_create+0xcf>
    1b04:	8d b6 00 00 00 00    	lea    0x0(%esi),%esi
    1b0a:	8d bf 00 00 00 00    	lea    0x0(%edi),%edi

00001b10 <fibril_destroy>:
    1b10:	55                   	push   %ebp
    1b11:	89 e5                	mov    %esp,%ebp
    1b13:	53                   	push   %ebx
    1b14:	83 ec 14             	sub    $0x14,%esp
    1b17:	8b 5d 08             	mov    0x8(%ebp),%ebx
    1b1a:	8b 43 24             	mov    0x24(%ebx),%eax
    1b1d:	89 04 24             	mov    %eax,(%esp)
    1b20:	e8 2b 3f 01 00       	call   15a50 <as_area_destroy>
    1b25:	8b 43 30             	mov    0x30(%ebx),%eax
    1b28:	89 04 24             	mov    %eax,(%esp)
    1b2b:	e8 c0 16 00 00       	call   31f0 <__free_tls>
    1b30:	89 5d 08             	mov    %ebx,0x8(%ebp)
    1b33:	83 c4 14             	add    $0x14,%esp
    1b36:	5b                   	pop    %ebx
    1b37:	5d                   	pop    %ebp
    1b38:	e9 c3 90 00 00       	jmp    ac00 <free>
    1b3d:	8d 76 00             	lea    0x0(%esi),%esi

00001b40 <fibril_add_ready>:
    1b40:	55                   	push   %ebp
    1b41:	89 e5                	mov    %esp,%ebp
    1b43:	53                   	push   %ebx
    1b44:	83 ec 14             	sub    $0x14,%esp
    1b47:	8b 5d 08             	mov    0x8(%ebp),%ebx
    1b4a:	c7 04 24 d0 03 02 00 	movl   $0x203d0,(%esp)
    1b51:	e8 9a 1d 00 00       	call   38f0 <futex_down>
    1b56:	f6 43 3c 01          	testb  $0x1,0x3c(%ebx)
    1b5a:	75 34                	jne    1b90 <fibril_add_ready+0x50>
    1b5c:	a1 d4 03 02 00       	mov    0x203d4,%eax
    1b61:	c7 43 04 d4 03 02 00 	movl   $0x203d4,0x4(%ebx)
    1b68:	89 03                	mov    %eax,(%ebx)
    1b6a:	a1 d4 03 02 00       	mov    0x203d4,%eax
    1b6f:	89 1d d4 03 02 00    	mov    %ebx,0x203d4
    1b75:	89 58 04             	mov    %ebx,0x4(%eax)
    1b78:	c7 45 08 d0 03 02 00 	movl   $0x203d0,0x8(%ebp)
    1b7f:	83 c4 14             	add    $0x14,%esp
    1b82:	5b                   	pop    %ebx
    1b83:	5d                   	pop    %ebp
    1b84:	e9 c7 1d 00 00       	jmp    3950 <futex_up>
    1b89:	8d b4 26 00 00 00 00 	lea    0x0(%esi,%eiz,1),%esi
    1b90:	a1 dc 03 02 00       	mov    0x203dc,%eax
    1b95:	c7 43 04 dc 03 02 00 	movl   $0x203dc,0x4(%ebx)
    1b9c:	89 03                	mov    %eax,(%ebx)
    1b9e:	a1 dc 03 02 00       	mov    0x203dc,%eax
    1ba3:	89 1d dc 03 02 00    	mov    %ebx,0x203dc
    1ba9:	89 58 04             	mov    %ebx,0x4(%eax)
    1bac:	eb ca                	jmp    1b78 <fibril_add_ready+0x38>
    1bae:	66 90                	xchg   %ax,%ax

00001bb0 <fibril_add_manager>:
    1bb0:	55                   	push   %ebp
    1bb1:	89 e5                	mov    %esp,%ebp
    1bb3:	53                   	push   %ebx
    1bb4:	83 ec 14             	sub    $0x14,%esp
    1bb7:	8b 5d 08             	mov    0x8(%ebp),%ebx
    1bba:	c7 04 24 d0 03 02 00 	movl   $0x203d0,(%esp)
    1bc1:	e8 2a 1d 00 00       	call   38f0 <futex_down>
    1bc6:	a1 e4 03 02 00       	mov    0x203e4,%eax
    1bcb:	89 03                	mov    %eax,(%ebx)
    1bcd:	c7 43 04 e4 03 02 00 	movl   $0x203e4,0x4(%ebx)
    1bd4:	a1 e4 03 02 00       	mov    0x203e4,%eax
    1bd9:	89 1d e4 03 02 00    	mov    %ebx,0x203e4
    1bdf:	89 58 04             	mov    %ebx,0x4(%eax)
    1be2:	c7 45 08 d0 03 02 00 	movl   $0x203d0,0x8(%ebp)
    1be9:	83 c4 14             	add    $0x14,%esp
    1bec:	5b                   	pop    %ebx
    1bed:	5d                   	pop    %ebp
    1bee:	e9 5d 1d 00 00       	jmp    3950 <futex_up>
    1bf3:	8d b6 00 00 00 00    	lea    0x0(%esi),%esi
    1bf9:	8d bc 27 00 00 00 00 	lea    0x0(%edi,%eiz,1),%edi

00001c00 <fibril_remove_manager>:
    1c00:	55                   	push   %ebp
    1c01:	89 e5                	mov    %esp,%ebp
    1c03:	83 ec 18             	sub    $0x18,%esp
    1c06:	c7 04 24 d0 03 02 00 	movl   $0x203d0,(%esp)
    1c0d:	e8 de 1c 00 00       	call   38f0 <futex_down>
    1c12:	a1 e8 03 02 00       	mov    0x203e8,%eax
    1c17:	3d e4 03 02 00       	cmp    $0x203e4,%eax
    1c1c:	74 21                	je     1c3f <fibril_remove_manager+0x3f>
    1c1e:	8b 08                	mov    (%eax),%ecx
    1c20:	85 c9                	test   %ecx,%ecx
    1c22:	74 0e                	je     1c32 <fibril_remove_manager+0x32>
    1c24:	8b 50 04             	mov    0x4(%eax),%edx
    1c27:	85 d2                	test   %edx,%edx
    1c29:	74 07                	je     1c32 <fibril_remove_manager+0x32>
    1c2b:	89 0a                	mov    %ecx,(%edx)
    1c2d:	8b 08                	mov    (%eax),%ecx
    1c2f:	89 51 04             	mov    %edx,0x4(%ecx)
    1c32:	c7 00 00 00 00 00    	movl   $0x0,(%eax)
    1c38:	c7 40 04 00 00 00 00 	movl   $0x0,0x4(%eax)
    1c3f:	c7 04 24 d0 03 02 00 	movl   $0x203d0,(%esp)
    1c46:	e8 05 1d 00 00       	call   3950 <futex_up>
    1c4b:	c9                   	leave  
    1c4c:	c3                   	ret    
    1c4d:	8d 76 00             	lea    0x0(%esi),%esi

00001c50 <fibril_get_id>:
    1c50:	55                   	push   %ebp
    1c51:	89 e5                	mov    %esp,%ebp
    1c53:	5d                   	pop    %ebp
    1c54:	65 a1 00 00 00 00    	mov    %gs:0x0,%eax
    1c5a:	8b 40 04             	mov    0x4(%eax),%eax
    1c5d:	c3                   	ret    
    1c5e:	66 90                	xchg   %ax,%ax

00001c60 <fibril_inc_sercount>:
    1c60:	65 a1 f4 ff ff ff    	mov    %gs:0xfffffff4,%eax
    1c66:	55                   	push   %ebp
    1c67:	40                   	inc    %eax
    1c68:	89 e5                	mov    %esp,%ebp
    1c6a:	65 a3 f4 ff ff ff    	mov    %eax,%gs:0xfffffff4
    1c70:	5d                   	pop    %ebp
    1c71:	c3                   	ret    
    1c72:	8d b4 26 00 00 00 00 	lea    0x0(%esi,%eiz,1),%esi
    1c79:	8d bc 27 00 00 00 00 	lea    0x0(%edi,%eiz,1),%edi

00001c80 <fibril_dec_sercount>:
    1c80:	65 a1 f4 ff ff ff    	mov    %gs:0xfffffff4,%eax
    1c86:	55                   	push   %ebp
    1c87:	48                   	dec    %eax
    1c88:	89 e5                	mov    %esp,%ebp
    1c8a:	65 a3 f4 ff ff ff    	mov    %eax,%gs:0xfffffff4
    1c90:	5d                   	pop    %ebp
    1c91:	c3                   	ret    
    1c92:	8d b4 26 00 00 00 00 	lea    0x0(%esi,%eiz,1),%esi
    1c99:	8d bc 27 00 00 00 00 	lea    0x0(%edi,%eiz,1),%edi

00001ca0 <fibril_get_sercount>:
    1ca0:	55                   	push   %ebp
    1ca1:	65 a1 f4 ff ff ff    	mov    %gs:0xfffffff4,%eax
    1ca7:	89 e5                	mov    %esp,%ebp
    1ca9:	5d                   	pop    %ebp
    1caa:	c3                   	ret    
    1cab:	66 90                	xchg   %ax,%ax
    1cad:	66 90                	xchg   %ax,%ax
    1caf:	90                   	nop

00001cb0 <print_deadlock>:
    1cb0:	55                   	push   %ebp
    1cb1:	89 e5                	mov    %esp,%ebp
    1cb3:	56                   	push   %esi
    1cb4:	53                   	push   %ebx
    1cb5:	89 c3                	mov    %eax,%ebx
    1cb7:	83 ec 10             	sub    $0x10,%esp
    1cba:	e8 91 ff ff ff       	call   1c50 <fibril_get_id>
    1cbf:	c7 04 24 b7 da 01 00 	movl   $0x1dab7,(%esp)
    1cc6:	89 c6                	mov    %eax,%esi
    1cc8:	e8 a3 41 00 00       	call   5e70 <printf>
    1ccd:	e8 5e 35 01 00       	call   15230 <stacktrace_print>
    1cd2:	89 5c 24 08          	mov    %ebx,0x8(%esp)
    1cd6:	89 74 24 04          	mov    %esi,0x4(%esp)
    1cda:	c7 04 24 40 db 01 00 	movl   $0x1db40,(%esp)
    1ce1:	e8 8a 41 00 00       	call   5e70 <printf>
    1ce6:	85 db                	test   %ebx,%ebx
    1ce8:	75 54                	jne    1d3e <print_deadlock+0x8e>
    1cea:	eb 58                	jmp    1d44 <print_deadlock+0x94>
    1cec:	8d 74 26 00          	lea    0x0(%esi,%eiz,1),%esi
    1cf0:	89 44 24 08          	mov    %eax,0x8(%esp)
    1cf4:	89 5c 24 04          	mov    %ebx,0x4(%esp)
    1cf8:	c7 04 24 64 db 01 00 	movl   $0x1db64,(%esp)
    1cff:	e8 6c 41 00 00       	call   5e70 <printf>
    1d04:	8b 13                	mov    (%ebx),%edx
    1d06:	39 f2                	cmp    %esi,%edx
    1d08:	74 3a                	je     1d44 <print_deadlock+0x94>
    1d0a:	8b 42 0c             	mov    0xc(%edx),%eax
    1d0d:	89 44 24 04          	mov    %eax,0x4(%esp)
    1d11:	8b 42 1c             	mov    0x1c(%edx),%eax
    1d14:	89 04 24             	mov    %eax,(%esp)
    1d17:	e8 94 34 01 00       	call   151b0 <stacktrace_print_fp_pc>
    1d1c:	8b 03                	mov    (%ebx),%eax
    1d1e:	8b 50 40             	mov    0x40(%eax),%edx
    1d21:	89 44 24 04          	mov    %eax,0x4(%esp)
    1d25:	89 54 24 08          	mov    %edx,0x8(%esp)
    1d29:	c7 04 24 40 db 01 00 	movl   $0x1db40,(%esp)
    1d30:	e8 3b 41 00 00       	call   5e70 <printf>
    1d35:	8b 03                	mov    (%ebx),%eax
    1d37:	8b 58 40             	mov    0x40(%eax),%ebx
    1d3a:	85 db                	test   %ebx,%ebx
    1d3c:	74 06                	je     1d44 <print_deadlock+0x94>
    1d3e:	8b 03                	mov    (%ebx),%eax
    1d40:	85 c0                	test   %eax,%eax
    1d42:	75 ac                	jne    1cf0 <print_deadlock+0x40>
    1d44:	83 c4 10             	add    $0x10,%esp
    1d47:	5b                   	pop    %ebx
    1d48:	5e                   	pop    %esi
    1d49:	5d                   	pop    %ebp
    1d4a:	c3                   	ret    
    1d4b:	90                   	nop
    1d4c:	8d 74 26 00          	lea    0x0(%esi,%eiz,1),%esi

00001d50 <_fibril_rwlock_common_unlock>:
    1d50:	55                   	push   %ebp
    1d51:	89 e5                	mov    %esp,%ebp
    1d53:	57                   	push   %edi
    1d54:	56                   	push   %esi
    1d55:	53                   	push   %ebx
    1d56:	83 ec 1c             	sub    $0x1c,%esp
    1d59:	89 c7                	mov    %eax,%edi
    1d5b:	c7 04 24 cc 04 02 00 	movl   $0x204cc,(%esp)
    1d62:	e8 89 1b 00 00       	call   38f0 <futex_down>
    1d67:	8b 47 08             	mov    0x8(%edi),%eax
    1d6a:	85 c0                	test   %eax,%eax
    1d6c:	74 12                	je     1d80 <_fibril_rwlock_common_unlock+0x30>
    1d6e:	48                   	dec    %eax
    1d6f:	89 47 08             	mov    %eax,0x8(%edi)
    1d72:	85 c0                	test   %eax,%eax
    1d74:	0f 85 06 01 00 00    	jne    1e80 <_fibril_rwlock_common_unlock+0x130>
    1d7a:	8b 47 04             	mov    0x4(%edi),%eax
    1d7d:	eb 08                	jmp    1d87 <_fibril_rwlock_common_unlock+0x37>
    1d7f:	90                   	nop
    1d80:	8b 47 04             	mov    0x4(%edi),%eax
    1d83:	48                   	dec    %eax
    1d84:	89 47 04             	mov    %eax,0x4(%edi)
    1d87:	85 c0                	test   %eax,%eax
    1d89:	0f 85 07 01 00 00    	jne    1e96 <_fibril_rwlock_common_unlock+0x146>
    1d8f:	c7 07 00 00 00 00    	movl   $0x0,(%edi)
    1d95:	8d 77 0c             	lea    0xc(%edi),%esi
    1d98:	8b 47 10             	mov    0x10(%edi),%eax
    1d9b:	39 f0                	cmp    %esi,%eax
    1d9d:	74 71                	je     1e10 <_fibril_rwlock_common_unlock+0xc0>
    1d9f:	8b 58 dc             	mov    -0x24(%eax),%ebx
    1da2:	8d 50 dc             	lea    -0x24(%eax),%edx
    1da5:	c7 43 40 00 00 00 00 	movl   $0x0,0x40(%ebx)
    1dac:	f6 43 3c 02          	testb  $0x2,0x3c(%ebx)
    1db0:	75 76                	jne    1e28 <_fibril_rwlock_common_unlock+0xd8>
    1db2:	8b 4a 24             	mov    0x24(%edx),%ecx
    1db5:	c6 42 04 01          	movb   $0x1,0x4(%edx)
    1db9:	c6 42 20 00          	movb   $0x0,0x20(%edx)
    1dbd:	85 c9                	test   %ecx,%ecx
    1dbf:	74 0f                	je     1dd0 <_fibril_rwlock_common_unlock+0x80>
    1dc1:	8b 42 28             	mov    0x28(%edx),%eax
    1dc4:	85 c0                	test   %eax,%eax
    1dc6:	74 08                	je     1dd0 <_fibril_rwlock_common_unlock+0x80>
    1dc8:	89 08                	mov    %ecx,(%eax)
    1dca:	8b 4a 24             	mov    0x24(%edx),%ecx
    1dcd:	89 41 04             	mov    %eax,0x4(%ecx)
    1dd0:	c7 42 24 00 00 00 00 	movl   $0x0,0x24(%edx)
    1dd7:	c7 42 28 00 00 00 00 	movl   $0x0,0x28(%edx)
    1dde:	89 1c 24             	mov    %ebx,(%esp)
    1de1:	e8 5a fd ff ff       	call   1b40 <fibril_add_ready>
    1de6:	8b 47 08             	mov    0x8(%edi),%eax
    1de9:	8d 50 01             	lea    0x1(%eax),%edx
    1dec:	85 c0                	test   %eax,%eax
    1dee:	89 57 08             	mov    %edx,0x8(%edi)
    1df1:	75 02                	jne    1df5 <_fibril_rwlock_common_unlock+0xa5>
    1df3:	89 1f                	mov    %ebx,(%edi)
    1df5:	a1 10 06 02 00       	mov    0x20610,%eax
    1dfa:	85 c0                	test   %eax,%eax
    1dfc:	74 9a                	je     1d98 <_fibril_rwlock_common_unlock+0x48>
    1dfe:	e8 1d c2 00 00       	call   e020 <async_poke>
    1e03:	8b 47 10             	mov    0x10(%edi),%eax
    1e06:	39 f0                	cmp    %esi,%eax
    1e08:	75 95                	jne    1d9f <_fibril_rwlock_common_unlock+0x4f>
    1e0a:	8d b6 00 00 00 00    	lea    0x0(%esi),%esi
    1e10:	c7 04 24 cc 04 02 00 	movl   $0x204cc,(%esp)
    1e17:	e8 34 1b 00 00       	call   3950 <futex_up>
    1e1c:	83 c4 1c             	add    $0x1c,%esp
    1e1f:	5b                   	pop    %ebx
    1e20:	5e                   	pop    %esi
    1e21:	5f                   	pop    %edi
    1e22:	5d                   	pop    %ebp
    1e23:	c3                   	ret    
    1e24:	8d 74 26 00          	lea    0x0(%esi,%eiz,1),%esi
    1e28:	8b 4f 08             	mov    0x8(%edi),%ecx
    1e2b:	85 c9                	test   %ecx,%ecx
    1e2d:	75 e1                	jne    1e10 <_fibril_rwlock_common_unlock+0xc0>
    1e2f:	8b 4a 24             	mov    0x24(%edx),%ecx
    1e32:	c6 42 04 01          	movb   $0x1,0x4(%edx)
    1e36:	c6 42 20 00          	movb   $0x0,0x20(%edx)
    1e3a:	85 c9                	test   %ecx,%ecx
    1e3c:	74 0f                	je     1e4d <_fibril_rwlock_common_unlock+0xfd>
    1e3e:	8b 42 28             	mov    0x28(%edx),%eax
    1e41:	85 c0                	test   %eax,%eax
    1e43:	74 08                	je     1e4d <_fibril_rwlock_common_unlock+0xfd>
    1e45:	89 08                	mov    %ecx,(%eax)
    1e47:	8b 4a 24             	mov    0x24(%edx),%ecx
    1e4a:	89 41 04             	mov    %eax,0x4(%ecx)
    1e4d:	c7 42 24 00 00 00 00 	movl   $0x0,0x24(%edx)
    1e54:	c7 42 28 00 00 00 00 	movl   $0x0,0x28(%edx)
    1e5b:	89 1c 24             	mov    %ebx,(%esp)
    1e5e:	e8 dd fc ff ff       	call   1b40 <fibril_add_ready>
    1e63:	8b 47 04             	mov    0x4(%edi),%eax
    1e66:	40                   	inc    %eax
    1e67:	89 1f                	mov    %ebx,(%edi)
    1e69:	89 47 04             	mov    %eax,0x4(%edi)
    1e6c:	a1 10 06 02 00       	mov    0x20610,%eax
    1e71:	85 c0                	test   %eax,%eax
    1e73:	74 9b                	je     1e10 <_fibril_rwlock_common_unlock+0xc0>
    1e75:	e8 a6 c1 00 00       	call   e020 <async_poke>
    1e7a:	eb 94                	jmp    1e10 <_fibril_rwlock_common_unlock+0xc0>
    1e7c:	8d 74 26 00          	lea    0x0(%esi,%eiz,1),%esi
    1e80:	8b 1f                	mov    (%edi),%ebx
    1e82:	e8 c9 fd ff ff       	call   1c50 <fibril_get_id>
    1e87:	39 c3                	cmp    %eax,%ebx
    1e89:	75 85                	jne    1e10 <_fibril_rwlock_common_unlock+0xc0>
    1e8b:	c7 07 00 00 00 00    	movl   $0x0,(%edi)
    1e91:	e9 7a ff ff ff       	jmp    1e10 <_fibril_rwlock_common_unlock+0xc0>
    1e96:	c7 44 24 08 11 01 00 	movl   $0x111,0x8(%esp)
    1e9d:	00 
    1e9e:	c7 44 24 04 cb da 01 	movl   $0x1dacb,0x4(%esp)
    1ea5:	00 
    1ea6:	c7 04 24 8c db 01 00 	movl   $0x1db8c,(%esp)
    1ead:	e8 1e 34 01 00       	call   152d0 <assert_abort>
    1eb2:	8d b4 26 00 00 00 00 	lea    0x0(%esi,%eiz,1),%esi
    1eb9:	8d bc 27 00 00 00 00 	lea    0x0(%edi,%eiz,1),%edi

00001ec0 <fibril_mutex_initialize>:
    1ec0:	55                   	push   %ebp
    1ec1:	89 e5                	mov    %esp,%ebp
    1ec3:	8b 45 08             	mov    0x8(%ebp),%eax
    1ec6:	8d 50 08             	lea    0x8(%eax),%edx
    1ec9:	c7 00 00 00 00 00    	movl   $0x0,(%eax)
    1ecf:	c7 40 04 01 00 00 00 	movl   $0x1,0x4(%eax)
    1ed6:	89 50 08             	mov    %edx,0x8(%eax)
    1ed9:	89 50 0c             	mov    %edx,0xc(%eax)
    1edc:	5d                   	pop    %ebp
    1edd:	c3                   	ret    
    1ede:	66 90                	xchg   %ax,%ax

00001ee0 <fibril_mutex_lock>:
    1ee0:	55                   	push   %ebp
    1ee1:	89 e5                	mov    %esp,%ebp
    1ee3:	57                   	push   %edi
    1ee4:	56                   	push   %esi
    1ee5:	53                   	push   %ebx
    1ee6:	83 ec 5c             	sub    $0x5c,%esp
    1ee9:	8b 75 08             	mov    0x8(%ebp),%esi
    1eec:	e8 5f fd ff ff       	call   1c50 <fibril_get_id>
    1ef1:	89 45 b4             	mov    %eax,-0x4c(%ebp)
    1ef4:	e8 a7 fd ff ff       	call   1ca0 <fibril_get_sercount>
    1ef9:	85 c0                	test   %eax,%eax
    1efb:	0f 85 a0 00 00 00    	jne    1fa1 <fibril_mutex_lock+0xc1>
    1f01:	c7 04 24 cc 04 02 00 	movl   $0x204cc,(%esp)
    1f08:	e8 e3 19 00 00       	call   38f0 <futex_down>
    1f0d:	8b 46 04             	mov    0x4(%esi),%eax
    1f10:	8d 50 ff             	lea    -0x1(%eax),%edx
    1f13:	85 c0                	test   %eax,%eax
    1f15:	89 56 04             	mov    %edx,0x4(%esi)
    1f18:	7e 1e                	jle    1f38 <fibril_mutex_lock+0x58>
    1f1a:	8b 45 b4             	mov    -0x4c(%ebp),%eax
    1f1d:	89 06                	mov    %eax,(%esi)
    1f1f:	c7 04 24 cc 04 02 00 	movl   $0x204cc,(%esp)
    1f26:	e8 25 1a 00 00       	call   3950 <futex_up>
    1f2b:	83 c4 5c             	add    $0x5c,%esp
    1f2e:	5b                   	pop    %ebx
    1f2f:	5e                   	pop    %esi
    1f30:	5f                   	pop    %edi
    1f31:	5d                   	pop    %ebp
    1f32:	c3                   	ret    
    1f33:	90                   	nop
    1f34:	8d 74 26 00          	lea    0x0(%esi,%eiz,1),%esi
    1f38:	8d 45 bc             	lea    -0x44(%ebp),%eax
    1f3b:	89 f3                	mov    %esi,%ebx
    1f3d:	89 04 24             	mov    %eax,(%esp)
    1f40:	e8 cb 9d 00 00       	call   bd10 <awaiter_initialize>
    1f45:	e8 06 fd ff ff       	call   1c50 <fibril_get_id>
    1f4a:	8b 56 08             	mov    0x8(%esi),%edx
    1f4d:	89 45 bc             	mov    %eax,-0x44(%ebp)
    1f50:	8d 46 08             	lea    0x8(%esi),%eax
    1f53:	89 45 e4             	mov    %eax,-0x1c(%ebp)
    1f56:	8d 45 e0             	lea    -0x20(%ebp),%eax
    1f59:	c6 45 dc 01          	movb   $0x1,-0x24(%ebp)
    1f5d:	89 55 e0             	mov    %edx,-0x20(%ebp)
    1f60:	89 42 04             	mov    %eax,0x4(%edx)
    1f63:	89 46 08             	mov    %eax,0x8(%esi)
    1f66:	66 90                	xchg   %ax,%ax
    1f68:	8b 3b                	mov    (%ebx),%edi
    1f6a:	85 ff                	test   %edi,%edi
    1f6c:	74 12                	je     1f80 <fibril_mutex_lock+0xa0>
    1f6e:	e8 dd fc ff ff       	call   1c50 <fibril_get_id>
    1f73:	39 c7                	cmp    %eax,%edi
    1f75:	74 23                	je     1f9a <fibril_mutex_lock+0xba>
    1f77:	8b 03                	mov    (%ebx),%eax
    1f79:	8b 58 40             	mov    0x40(%eax),%ebx
    1f7c:	85 db                	test   %ebx,%ebx
    1f7e:	75 e8                	jne    1f68 <fibril_mutex_lock+0x88>
    1f80:	8b 45 b4             	mov    -0x4c(%ebp),%eax
    1f83:	89 70 40             	mov    %esi,0x40(%eax)
    1f86:	c7 04 24 01 00 00 00 	movl   $0x1,(%esp)
    1f8d:	e8 7e f7 ff ff       	call   1710 <fibril_switch>
    1f92:	83 c4 5c             	add    $0x5c,%esp
    1f95:	5b                   	pop    %ebx
    1f96:	5e                   	pop    %esi
    1f97:	5f                   	pop    %edi
    1f98:	5d                   	pop    %ebp
    1f99:	c3                   	ret    
    1f9a:	89 d8                	mov    %ebx,%eax
    1f9c:	e8 0f fd ff ff       	call   1cb0 <print_deadlock>
    1fa1:	e8 ea f4 ff ff       	call   1490 <abort>
    1fa6:	8d 76 00             	lea    0x0(%esi),%esi
    1fa9:	8d bc 27 00 00 00 00 	lea    0x0(%edi,%eiz,1),%edi

00001fb0 <fibril_mutex_trylock>:
    1fb0:	55                   	push   %ebp
    1fb1:	89 e5                	mov    %esp,%ebp
    1fb3:	53                   	push   %ebx
    1fb4:	83 ec 14             	sub    $0x14,%esp
    1fb7:	8b 5d 08             	mov    0x8(%ebp),%ebx
    1fba:	c7 04 24 cc 04 02 00 	movl   $0x204cc,(%esp)
    1fc1:	e8 2a 19 00 00       	call   38f0 <futex_down>
    1fc6:	8b 43 04             	mov    0x4(%ebx),%eax
    1fc9:	85 c0                	test   %eax,%eax
    1fcb:	7e 23                	jle    1ff0 <fibril_mutex_trylock+0x40>
    1fcd:	48                   	dec    %eax
    1fce:	89 43 04             	mov    %eax,0x4(%ebx)
    1fd1:	e8 7a fc ff ff       	call   1c50 <fibril_get_id>
    1fd6:	89 03                	mov    %eax,(%ebx)
    1fd8:	b3 01                	mov    $0x1,%bl
    1fda:	c7 04 24 cc 04 02 00 	movl   $0x204cc,(%esp)
    1fe1:	e8 6a 19 00 00       	call   3950 <futex_up>
    1fe6:	83 c4 14             	add    $0x14,%esp
    1fe9:	88 d8                	mov    %bl,%al
    1feb:	5b                   	pop    %ebx
    1fec:	5d                   	pop    %ebp
    1fed:	c3                   	ret    
    1fee:	66 90                	xchg   %ax,%ax
    1ff0:	31 db                	xor    %ebx,%ebx
    1ff2:	eb e6                	jmp    1fda <fibril_mutex_trylock+0x2a>
    1ff4:	8d b6 00 00 00 00    	lea    0x0(%esi),%esi
    1ffa:	8d bf 00 00 00 00    	lea    0x0(%edi),%edi

00002000 <fibril_mutex_unlock>:
    2000:	55                   	push   %ebp
    2001:	89 e5                	mov    %esp,%ebp
    2003:	53                   	push   %ebx
    2004:	83 ec 14             	sub    $0x14,%esp
    2007:	8b 5d 08             	mov    0x8(%ebp),%ebx
    200a:	c7 04 24 cc 04 02 00 	movl   $0x204cc,(%esp)
    2011:	e8 da 18 00 00       	call   38f0 <futex_down>
    2016:	8b 43 04             	mov    0x4(%ebx),%eax
    2019:	85 c0                	test   %eax,%eax
    201b:	7e 2b                	jle    2048 <fibril_mutex_unlock+0x48>
    201d:	c7 04 24 cc 04 02 00 	movl   $0x204cc,(%esp)
    2024:	e8 27 19 00 00       	call   3950 <futex_up>
    2029:	c7 44 24 08 a9 00 00 	movl   $0xa9,0x8(%esp)
    2030:	00 
    2031:	c7 44 24 04 cb da 01 	movl   $0x1dacb,0x4(%esp)
    2038:	00 
    2039:	c7 04 24 ee da 01 00 	movl   $0x1daee,(%esp)
    2040:	e8 8b 32 01 00       	call   152d0 <assert_abort>
    2045:	8d 76 00             	lea    0x0(%esi),%esi
    2048:	c7 04 24 cc 04 02 00 	movl   $0x204cc,(%esp)
    204f:	e8 fc 18 00 00       	call   3950 <futex_up>
    2054:	c7 04 24 cc 04 02 00 	movl   $0x204cc,(%esp)
    205b:	e8 90 18 00 00       	call   38f0 <futex_down>
    2060:	8b 43 04             	mov    0x4(%ebx),%eax
    2063:	8d 50 01             	lea    0x1(%eax),%edx
    2066:	85 c0                	test   %eax,%eax
    2068:	89 53 04             	mov    %edx,0x4(%ebx)
    206b:	78 1b                	js     2088 <fibril_mutex_unlock+0x88>
    206d:	c7 03 00 00 00 00    	movl   $0x0,(%ebx)
    2073:	c7 45 08 cc 04 02 00 	movl   $0x204cc,0x8(%ebp)
    207a:	83 c4 14             	add    $0x14,%esp
    207d:	5b                   	pop    %ebx
    207e:	5d                   	pop    %ebp
    207f:	e9 cc 18 00 00       	jmp    3950 <futex_up>
    2084:	8d 74 26 00          	lea    0x0(%esi,%eiz,1),%esi
    2088:	8b 53 0c             	mov    0xc(%ebx),%edx
    208b:	8d 43 08             	lea    0x8(%ebx),%eax
    208e:	39 c2                	cmp    %eax,%edx
    2090:	74 57                	je     20e9 <fibril_mutex_unlock+0xe9>
    2092:	85 d2                	test   %edx,%edx
    2094:	74 53                	je     20e9 <fibril_mutex_unlock+0xe9>
    2096:	8d 42 dc             	lea    -0x24(%edx),%eax
    2099:	8b 52 dc             	mov    -0x24(%edx),%edx
    209c:	c6 40 04 01          	movb   $0x1,0x4(%eax)
    20a0:	c6 40 20 00          	movb   $0x0,0x20(%eax)
    20a4:	89 13                	mov    %edx,(%ebx)
    20a6:	8b 58 24             	mov    0x24(%eax),%ebx
    20a9:	c7 42 40 00 00 00 00 	movl   $0x0,0x40(%edx)
    20b0:	85 db                	test   %ebx,%ebx
    20b2:	74 0f                	je     20c3 <fibril_mutex_unlock+0xc3>
    20b4:	8b 48 28             	mov    0x28(%eax),%ecx
    20b7:	85 c9                	test   %ecx,%ecx
    20b9:	74 08                	je     20c3 <fibril_mutex_unlock+0xc3>
    20bb:	89 19                	mov    %ebx,(%ecx)
    20bd:	8b 58 24             	mov    0x24(%eax),%ebx
    20c0:	89 4b 04             	mov    %ecx,0x4(%ebx)
    20c3:	c7 40 24 00 00 00 00 	movl   $0x0,0x24(%eax)
    20ca:	c7 40 28 00 00 00 00 	movl   $0x0,0x28(%eax)
    20d1:	89 14 24             	mov    %edx,(%esp)
    20d4:	e8 67 fa ff ff       	call   1b40 <fibril_add_ready>
    20d9:	a1 10 06 02 00       	mov    0x20610,%eax
    20de:	85 c0                	test   %eax,%eax
    20e0:	74 91                	je     2073 <fibril_mutex_unlock+0x73>
    20e2:	e8 39 bf 00 00       	call   e020 <async_poke>
    20e7:	eb 8a                	jmp    2073 <fibril_mutex_unlock+0x73>
    20e9:	c7 44 24 08 96 00 00 	movl   $0x96,0x8(%esp)
    20f0:	00 
    20f1:	c7 44 24 04 cb da 01 	movl   $0x1dacb,0x4(%esp)
    20f8:	00 
    20f9:	c7 04 24 e2 da 01 00 	movl   $0x1dae2,(%esp)
    2100:	e8 cb 31 01 00       	call   152d0 <assert_abort>
    2105:	8d 74 26 00          	lea    0x0(%esi,%eiz,1),%esi
    2109:	8d bc 27 00 00 00 00 	lea    0x0(%edi,%eiz,1),%edi

00002110 <fibril_mutex_is_locked>:
    2110:	55                   	push   %ebp
    2111:	89 e5                	mov    %esp,%ebp
    2113:	53                   	push   %ebx
    2114:	83 ec 14             	sub    $0x14,%esp
    2117:	c7 04 24 cc 04 02 00 	movl   $0x204cc,(%esp)
    211e:	e8 cd 17 00 00       	call   38f0 <futex_down>
    2123:	8b 45 08             	mov    0x8(%ebp),%eax
    2126:	8b 40 04             	mov    0x4(%eax),%eax
    2129:	c7 04 24 cc 04 02 00 	movl   $0x204cc,(%esp)
    2130:	85 c0                	test   %eax,%eax
    2132:	0f 9e c3             	setle  %bl
    2135:	e8 16 18 00 00       	call   3950 <futex_up>
    213a:	83 c4 14             	add    $0x14,%esp
    213d:	88 d8                	mov    %bl,%al
    213f:	5b                   	pop    %ebx
    2140:	5d                   	pop    %ebp
    2141:	c3                   	ret    
    2142:	8d b4 26 00 00 00 00 	lea    0x0(%esi,%eiz,1),%esi
    2149:	8d bc 27 00 00 00 00 	lea    0x0(%edi,%eiz,1),%edi

00002150 <fibril_rwlock_initialize>:
    2150:	55                   	push   %ebp
    2151:	89 e5                	mov    %esp,%ebp
    2153:	8b 45 08             	mov    0x8(%ebp),%eax
    2156:	8d 50 0c             	lea    0xc(%eax),%edx
    2159:	c7 00 00 00 00 00    	movl   $0x0,(%eax)
    215f:	c7 40 04 00 00 00 00 	movl   $0x0,0x4(%eax)
    2166:	c7 40 08 00 00 00 00 	movl   $0x0,0x8(%eax)
    216d:	89 50 0c             	mov    %edx,0xc(%eax)
    2170:	89 50 10             	mov    %edx,0x10(%eax)
    2173:	5d                   	pop    %ebp
    2174:	c3                   	ret    
    2175:	8d 74 26 00          	lea    0x0(%esi,%eiz,1),%esi
    2179:	8d bc 27 00 00 00 00 	lea    0x0(%edi,%eiz,1),%edi

00002180 <fibril_rwlock_read_lock>:
    2180:	55                   	push   %ebp
    2181:	89 e5                	mov    %esp,%ebp
    2183:	57                   	push   %edi
    2184:	56                   	push   %esi
    2185:	53                   	push   %ebx
    2186:	83 ec 5c             	sub    $0x5c,%esp
    2189:	8b 75 08             	mov    0x8(%ebp),%esi
    218c:	e8 bf fa ff ff       	call   1c50 <fibril_get_id>
    2191:	89 45 b4             	mov    %eax,-0x4c(%ebp)
    2194:	e8 07 fb ff ff       	call   1ca0 <fibril_get_sercount>
    2199:	85 c0                	test   %eax,%eax
    219b:	0f 85 b0 00 00 00    	jne    2251 <fibril_rwlock_read_lock+0xd1>
    21a1:	c7 04 24 cc 04 02 00 	movl   $0x204cc,(%esp)
    21a8:	e8 43 17 00 00       	call   38f0 <futex_down>
    21ad:	8b 4e 04             	mov    0x4(%esi),%ecx
    21b0:	85 c9                	test   %ecx,%ecx
    21b2:	75 2c                	jne    21e0 <fibril_rwlock_read_lock+0x60>
    21b4:	8b 46 08             	mov    0x8(%esi),%eax
    21b7:	85 c0                	test   %eax,%eax
    21b9:	8d 50 01             	lea    0x1(%eax),%edx
    21bc:	89 56 08             	mov    %edx,0x8(%esi)
    21bf:	74 17                	je     21d8 <fibril_rwlock_read_lock+0x58>
    21c1:	c7 04 24 cc 04 02 00 	movl   $0x204cc,(%esp)
    21c8:	e8 83 17 00 00       	call   3950 <futex_up>
    21cd:	83 c4 5c             	add    $0x5c,%esp
    21d0:	5b                   	pop    %ebx
    21d1:	5e                   	pop    %esi
    21d2:	5f                   	pop    %edi
    21d3:	5d                   	pop    %ebp
    21d4:	c3                   	ret    
    21d5:	8d 76 00             	lea    0x0(%esi),%esi
    21d8:	8b 45 b4             	mov    -0x4c(%ebp),%eax
    21db:	89 06                	mov    %eax,(%esi)
    21dd:	eb e2                	jmp    21c1 <fibril_rwlock_read_lock+0x41>
    21df:	90                   	nop
    21e0:	8d 45 bc             	lea    -0x44(%ebp),%eax
    21e3:	89 f3                	mov    %esi,%ebx
    21e5:	89 04 24             	mov    %eax,(%esp)
    21e8:	e8 23 9b 00 00       	call   bd10 <awaiter_initialize>
    21ed:	8b 45 b4             	mov    -0x4c(%ebp),%eax
    21f0:	8b 50 3c             	mov    0x3c(%eax),%edx
    21f3:	89 45 bc             	mov    %eax,-0x44(%ebp)
    21f6:	83 e2 fd             	and    $0xfffffffd,%edx
    21f9:	c6 45 dc 01          	movb   $0x1,-0x24(%ebp)
    21fd:	89 50 3c             	mov    %edx,0x3c(%eax)
    2200:	8b 56 0c             	mov    0xc(%esi),%edx
    2203:	8d 46 0c             	lea    0xc(%esi),%eax
    2206:	89 55 e0             	mov    %edx,-0x20(%ebp)
    2209:	89 45 e4             	mov    %eax,-0x1c(%ebp)
    220c:	8d 45 e0             	lea    -0x20(%ebp),%eax
    220f:	89 42 04             	mov    %eax,0x4(%edx)
    2212:	89 46 0c             	mov    %eax,0xc(%esi)
    2215:	8d 76 00             	lea    0x0(%esi),%esi
    2218:	8b 3b                	mov    (%ebx),%edi
    221a:	85 ff                	test   %edi,%edi
    221c:	74 12                	je     2230 <fibril_rwlock_read_lock+0xb0>
    221e:	e8 2d fa ff ff       	call   1c50 <fibril_get_id>
    2223:	39 c7                	cmp    %eax,%edi
    2225:	74 23                	je     224a <fibril_rwlock_read_lock+0xca>
    2227:	8b 03                	mov    (%ebx),%eax
    2229:	8b 58 40             	mov    0x40(%eax),%ebx
    222c:	85 db                	test   %ebx,%ebx
    222e:	75 e8                	jne    2218 <fibril_rwlock_read_lock+0x98>
    2230:	8b 45 b4             	mov    -0x4c(%ebp),%eax
    2233:	89 70 40             	mov    %esi,0x40(%eax)
    2236:	c7 04 24 01 00 00 00 	movl   $0x1,(%esp)
    223d:	e8 ce f4 ff ff       	call   1710 <fibril_switch>
    2242:	83 c4 5c             	add    $0x5c,%esp
    2245:	5b                   	pop    %ebx
    2246:	5e                   	pop    %esi
    2247:	5f                   	pop    %edi
    2248:	5d                   	pop    %ebp
    2249:	c3                   	ret    
    224a:	89 d8                	mov    %ebx,%eax
    224c:	e8 5f fa ff ff       	call   1cb0 <print_deadlock>
    2251:	e8 3a f2 ff ff       	call   1490 <abort>
    2256:	8d 76 00             	lea    0x0(%esi),%esi
    2259:	8d bc 27 00 00 00 00 	lea    0x0(%edi,%eiz,1),%edi

00002260 <fibril_rwlock_write_lock>:
    2260:	55                   	push   %ebp
    2261:	89 e5                	mov    %esp,%ebp
    2263:	57                   	push   %edi
    2264:	56                   	push   %esi
    2265:	53                   	push   %ebx
    2266:	83 ec 5c             	sub    $0x5c,%esp
    2269:	8b 75 08             	mov    0x8(%ebp),%esi
    226c:	e8 df f9 ff ff       	call   1c50 <fibril_get_id>
    2271:	89 45 b4             	mov    %eax,-0x4c(%ebp)
    2274:	e8 27 fa ff ff       	call   1ca0 <fibril_get_sercount>
    2279:	85 c0                	test   %eax,%eax
    227b:	0f 85 ae 00 00 00    	jne    232f <fibril_rwlock_write_lock+0xcf>
    2281:	c7 04 24 cc 04 02 00 	movl   $0x204cc,(%esp)
    2288:	e8 63 16 00 00       	call   38f0 <futex_down>
    228d:	8b 7e 04             	mov    0x4(%esi),%edi
    2290:	85 ff                	test   %edi,%edi
    2292:	75 07                	jne    229b <fibril_rwlock_write_lock+0x3b>
    2294:	8b 5e 08             	mov    0x8(%esi),%ebx
    2297:	85 db                	test   %ebx,%ebx
    2299:	74 6d                	je     2308 <fibril_rwlock_write_lock+0xa8>
    229b:	8d 45 bc             	lea    -0x44(%ebp),%eax
    229e:	89 f3                	mov    %esi,%ebx
    22a0:	89 04 24             	mov    %eax,(%esp)
    22a3:	e8 68 9a 00 00       	call   bd10 <awaiter_initialize>
    22a8:	8b 45 b4             	mov    -0x4c(%ebp),%eax
    22ab:	8b 56 0c             	mov    0xc(%esi),%edx
    22ae:	89 45 bc             	mov    %eax,-0x44(%ebp)
    22b1:	83 48 3c 02          	orl    $0x2,0x3c(%eax)
    22b5:	8d 46 0c             	lea    0xc(%esi),%eax
    22b8:	c6 45 dc 01          	movb   $0x1,-0x24(%ebp)
    22bc:	89 45 e4             	mov    %eax,-0x1c(%ebp)
    22bf:	8d 45 e0             	lea    -0x20(%ebp),%eax
    22c2:	89 55 e0             	mov    %edx,-0x20(%ebp)
    22c5:	89 42 04             	mov    %eax,0x4(%edx)
    22c8:	89 46 0c             	mov    %eax,0xc(%esi)
    22cb:	90                   	nop
    22cc:	8d 74 26 00          	lea    0x0(%esi,%eiz,1),%esi
    22d0:	8b 3b                	mov    (%ebx),%edi
    22d2:	85 ff                	test   %edi,%edi
    22d4:	74 12                	je     22e8 <fibril_rwlock_write_lock+0x88>
    22d6:	e8 75 f9 ff ff       	call   1c50 <fibril_get_id>
    22db:	39 c7                	cmp    %eax,%edi
    22dd:	74 49                	je     2328 <fibril_rwlock_write_lock+0xc8>
    22df:	8b 03                	mov    (%ebx),%eax
    22e1:	8b 58 40             	mov    0x40(%eax),%ebx
    22e4:	85 db                	test   %ebx,%ebx
    22e6:	75 e8                	jne    22d0 <fibril_rwlock_write_lock+0x70>
    22e8:	8b 45 b4             	mov    -0x4c(%ebp),%eax
    22eb:	89 70 40             	mov    %esi,0x40(%eax)
    22ee:	c7 04 24 01 00 00 00 	movl   $0x1,(%esp)
    22f5:	e8 16 f4 ff ff       	call   1710 <fibril_switch>
    22fa:	83 c4 5c             	add    $0x5c,%esp
    22fd:	5b                   	pop    %ebx
    22fe:	5e                   	pop    %esi
    22ff:	5f                   	pop    %edi
    2300:	5d                   	pop    %ebp
    2301:	c3                   	ret    
    2302:	8d b6 00 00 00 00    	lea    0x0(%esi),%esi
    2308:	8b 45 b4             	mov    -0x4c(%ebp),%eax
    230b:	c7 46 04 01 00 00 00 	movl   $0x1,0x4(%esi)
    2312:	89 06                	mov    %eax,(%esi)
    2314:	c7 04 24 cc 04 02 00 	movl   $0x204cc,(%esp)
    231b:	e8 30 16 00 00       	call   3950 <futex_up>
    2320:	83 c4 5c             	add    $0x5c,%esp
    2323:	5b                   	pop    %ebx
    2324:	5e                   	pop    %esi
    2325:	5f                   	pop    %edi
    2326:	5d                   	pop    %ebp
    2327:	c3                   	ret    
    2328:	89 d8                	mov    %ebx,%eax
    232a:	e8 81 f9 ff ff       	call   1cb0 <print_deadlock>
    232f:	e8 5c f1 ff ff       	call   1490 <abort>
    2334:	8d b6 00 00 00 00    	lea    0x0(%esi),%esi
    233a:	8d bf 00 00 00 00    	lea    0x0(%edi),%edi

00002340 <fibril_rwlock_read_unlock>:
    2340:	55                   	push   %ebp
    2341:	89 e5                	mov    %esp,%ebp
    2343:	53                   	push   %ebx
    2344:	83 ec 14             	sub    $0x14,%esp
    2347:	8b 5d 08             	mov    0x8(%ebp),%ebx
    234a:	c7 04 24 cc 04 02 00 	movl   $0x204cc,(%esp)
    2351:	e8 9a 15 00 00       	call   38f0 <futex_down>
    2356:	8b 43 08             	mov    0x8(%ebx),%eax
    2359:	85 c0                	test   %eax,%eax
    235b:	c7 04 24 cc 04 02 00 	movl   $0x204cc,(%esp)
    2362:	74 14                	je     2378 <fibril_rwlock_read_unlock+0x38>
    2364:	e8 e7 15 00 00       	call   3950 <futex_up>
    2369:	83 c4 14             	add    $0x14,%esp
    236c:	89 d8                	mov    %ebx,%eax
    236e:	5b                   	pop    %ebx
    236f:	5d                   	pop    %ebp
    2370:	e9 db f9 ff ff       	jmp    1d50 <_fibril_rwlock_common_unlock>
    2375:	8d 76 00             	lea    0x0(%esi),%esi
    2378:	e8 d3 15 00 00       	call   3950 <futex_up>
    237d:	c7 44 24 08 3c 01 00 	movl   $0x13c,0x8(%esp)
    2384:	00 
    2385:	c7 44 24 04 cb da 01 	movl   $0x1dacb,0x4(%esp)
    238c:	00 
    238d:	c7 04 24 ac db 01 00 	movl   $0x1dbac,(%esp)
    2394:	e8 37 2f 01 00       	call   152d0 <assert_abort>
    2399:	8d b4 26 00 00 00 00 	lea    0x0(%esi,%eiz,1),%esi

000023a0 <fibril_rwlock_write_unlock>:
    23a0:	55                   	push   %ebp
    23a1:	89 e5                	mov    %esp,%ebp
    23a3:	53                   	push   %ebx
    23a4:	83 ec 14             	sub    $0x14,%esp
    23a7:	8b 5d 08             	mov    0x8(%ebp),%ebx
    23aa:	c7 04 24 cc 04 02 00 	movl   $0x204cc,(%esp)
    23b1:	e8 3a 15 00 00       	call   38f0 <futex_down>
    23b6:	8b 43 04             	mov    0x4(%ebx),%eax
    23b9:	85 c0                	test   %eax,%eax
    23bb:	74 1b                	je     23d8 <fibril_rwlock_write_unlock+0x38>
    23bd:	48                   	dec    %eax
    23be:	75 40                	jne    2400 <fibril_rwlock_write_unlock+0x60>
    23c0:	c7 04 24 cc 04 02 00 	movl   $0x204cc,(%esp)
    23c7:	e8 84 15 00 00       	call   3950 <futex_up>
    23cc:	83 c4 14             	add    $0x14,%esp
    23cf:	89 d8                	mov    %ebx,%eax
    23d1:	5b                   	pop    %ebx
    23d2:	5d                   	pop    %ebp
    23d3:	e9 78 f9 ff ff       	jmp    1d50 <_fibril_rwlock_common_unlock>
    23d8:	c7 04 24 cc 04 02 00 	movl   $0x204cc,(%esp)
    23df:	e8 6c 15 00 00       	call   3950 <futex_up>
    23e4:	c7 44 24 08 42 01 00 	movl   $0x142,0x8(%esp)
    23eb:	00 
    23ec:	c7 44 24 04 cb da 01 	movl   $0x1dacb,0x4(%esp)
    23f3:	00 
    23f4:	c7 04 24 d0 db 01 00 	movl   $0x1dbd0,(%esp)
    23fb:	e8 d0 2e 01 00       	call   152d0 <assert_abort>
    2400:	c7 44 24 08 58 01 00 	movl   $0x158,0x8(%esp)
    2407:	00 
    2408:	c7 44 24 04 cb da 01 	movl   $0x1dacb,0x4(%esp)
    240f:	00 
    2410:	c7 04 24 09 db 01 00 	movl   $0x1db09,(%esp)
    2417:	e8 b4 2e 01 00       	call   152d0 <assert_abort>
    241c:	8d 74 26 00          	lea    0x0(%esi,%eiz,1),%esi

00002420 <fibril_rwlock_is_read_locked>:
    2420:	55                   	push   %ebp
    2421:	89 e5                	mov    %esp,%ebp
    2423:	53                   	push   %ebx
    2424:	83 ec 14             	sub    $0x14,%esp
    2427:	c7 04 24 cc 04 02 00 	movl   $0x204cc,(%esp)
    242e:	e8 bd 14 00 00       	call   38f0 <futex_down>
    2433:	8b 45 08             	mov    0x8(%ebp),%eax
    2436:	8b 40 08             	mov    0x8(%eax),%eax
    2439:	c7 04 24 cc 04 02 00 	movl   $0x204cc,(%esp)
    2440:	85 c0                	test   %eax,%eax
    2442:	0f 95 c3             	setne  %bl
    2445:	e8 06 15 00 00       	call   3950 <futex_up>
    244a:	83 c4 14             	add    $0x14,%esp
    244d:	88 d8                	mov    %bl,%al
    244f:	5b                   	pop    %ebx
    2450:	5d                   	pop    %ebp
    2451:	c3                   	ret    
    2452:	8d b4 26 00 00 00 00 	lea    0x0(%esi,%eiz,1),%esi
    2459:	8d bc 27 00 00 00 00 	lea    0x0(%edi,%eiz,1),%edi

00002460 <fibril_rwlock_is_write_locked>:
    2460:	55                   	push   %ebp
    2461:	89 e5                	mov    %esp,%ebp
    2463:	53                   	push   %ebx
    2464:	83 ec 14             	sub    $0x14,%esp
    2467:	c7 04 24 cc 04 02 00 	movl   $0x204cc,(%esp)
    246e:	e8 7d 14 00 00       	call   38f0 <futex_down>
    2473:	8b 45 08             	mov    0x8(%ebp),%eax
    2476:	8b 40 04             	mov    0x4(%eax),%eax
    2479:	85 c0                	test   %eax,%eax
    247b:	74 1b                	je     2498 <fibril_rwlock_is_write_locked+0x38>
    247d:	48                   	dec    %eax
    247e:	75 1c                	jne    249c <fibril_rwlock_is_write_locked+0x3c>
    2480:	b3 01                	mov    $0x1,%bl
    2482:	c7 04 24 cc 04 02 00 	movl   $0x204cc,(%esp)
    2489:	e8 c2 14 00 00       	call   3950 <futex_up>
    248e:	83 c4 14             	add    $0x14,%esp
    2491:	88 d8                	mov    %bl,%al
    2493:	5b                   	pop    %ebx
    2494:	5d                   	pop    %ebp
    2495:	c3                   	ret    
    2496:	66 90                	xchg   %ax,%ax
    2498:	31 db                	xor    %ebx,%ebx
    249a:	eb e6                	jmp    2482 <fibril_rwlock_is_write_locked+0x22>
    249c:	c7 44 24 08 58 01 00 	movl   $0x158,0x8(%esp)
    24a3:	00 
    24a4:	c7 44 24 04 cb da 01 	movl   $0x1dacb,0x4(%esp)
    24ab:	00 
    24ac:	c7 04 24 09 db 01 00 	movl   $0x1db09,(%esp)
    24b3:	e8 18 2e 01 00       	call   152d0 <assert_abort>
    24b8:	90                   	nop
    24b9:	8d b4 26 00 00 00 00 	lea    0x0(%esi,%eiz,1),%esi

000024c0 <fibril_rwlock_is_locked>:
    24c0:	55                   	push   %ebp
    24c1:	89 e5                	mov    %esp,%ebp
    24c3:	53                   	push   %ebx
    24c4:	83 ec 14             	sub    $0x14,%esp
    24c7:	8b 5d 08             	mov    0x8(%ebp),%ebx
    24ca:	c7 04 24 cc 04 02 00 	movl   $0x204cc,(%esp)
    24d1:	e8 1a 14 00 00       	call   38f0 <futex_down>
    24d6:	8b 43 08             	mov    0x8(%ebx),%eax
    24d9:	85 c0                	test   %eax,%eax
    24db:	74 1b                	je     24f8 <fibril_rwlock_is_locked+0x38>
    24dd:	c7 04 24 cc 04 02 00 	movl   $0x204cc,(%esp)
    24e4:	e8 67 14 00 00       	call   3950 <futex_up>
    24e9:	b0 01                	mov    $0x1,%al
    24eb:	83 c4 14             	add    $0x14,%esp
    24ee:	5b                   	pop    %ebx
    24ef:	5d                   	pop    %ebp
    24f0:	c3                   	ret    
    24f1:	8d b4 26 00 00 00 00 	lea    0x0(%esi,%eiz,1),%esi
    24f8:	c7 04 24 cc 04 02 00 	movl   $0x204cc,(%esp)
    24ff:	e8 4c 14 00 00       	call   3950 <futex_up>
    2504:	c7 04 24 cc 04 02 00 	movl   $0x204cc,(%esp)
    250b:	e8 e0 13 00 00       	call   38f0 <futex_down>
    2510:	8b 43 04             	mov    0x4(%ebx),%eax
    2513:	85 c0                	test   %eax,%eax
    2515:	74 21                	je     2538 <fibril_rwlock_is_locked+0x78>
    2517:	48                   	dec    %eax
    2518:	74 c3                	je     24dd <fibril_rwlock_is_locked+0x1d>
    251a:	c7 44 24 08 58 01 00 	movl   $0x158,0x8(%esp)
    2521:	00 
    2522:	c7 44 24 04 cb da 01 	movl   $0x1dacb,0x4(%esp)
    2529:	00 
    252a:	c7 04 24 09 db 01 00 	movl   $0x1db09,(%esp)
    2531:	e8 9a 2d 01 00       	call   152d0 <assert_abort>
    2536:	66 90                	xchg   %ax,%ax
    2538:	c7 04 24 cc 04 02 00 	movl   $0x204cc,(%esp)
    253f:	e8 0c 14 00 00       	call   3950 <futex_up>
    2544:	31 c0                	xor    %eax,%eax
    2546:	eb a3                	jmp    24eb <fibril_rwlock_is_locked+0x2b>
    2548:	90                   	nop
    2549:	8d b4 26 00 00 00 00 	lea    0x0(%esi,%eiz,1),%esi

00002550 <fibril_condvar_initialize>:
    2550:	55                   	push   %ebp
    2551:	89 e5                	mov    %esp,%ebp
    2553:	8b 45 08             	mov    0x8(%ebp),%eax
    2556:	89 00                	mov    %eax,(%eax)
    2558:	89 40 04             	mov    %eax,0x4(%eax)
    255b:	5d                   	pop    %ebp
    255c:	c3                   	ret    
    255d:	8d 76 00             	lea    0x0(%esi),%esi

00002560 <fibril_condvar_wait_timeout>:
    2560:	55                   	push   %ebp
    2561:	89 e5                	mov    %esp,%ebp
    2563:	57                   	push   %edi
    2564:	56                   	push   %esi
    2565:	53                   	push   %ebx
    2566:	81 ec 8c 00 00 00    	sub    $0x8c,%esp
    256c:	8b 5d 0c             	mov    0xc(%ebp),%ebx
    256f:	8b 75 08             	mov    0x8(%ebp),%esi
    2572:	c7 04 24 cc 04 02 00 	movl   $0x204cc,(%esp)
    2579:	e8 72 13 00 00       	call   38f0 <futex_down>
    257e:	8b 53 04             	mov    0x4(%ebx),%edx
    2581:	85 d2                	test   %edx,%edx
    2583:	7e 2b                	jle    25b0 <fibril_condvar_wait_timeout+0x50>
    2585:	c7 04 24 cc 04 02 00 	movl   $0x204cc,(%esp)
    258c:	e8 bf 13 00 00       	call   3950 <futex_up>
    2591:	c7 44 24 08 71 01 00 	movl   $0x171,0x8(%esp)
    2598:	00 
    2599:	c7 44 24 04 cb da 01 	movl   $0x1dacb,0x4(%esp)
    25a0:	00 
    25a1:	c7 04 24 ee da 01 00 	movl   $0x1daee,(%esp)
    25a8:	e8 23 2d 01 00       	call   152d0 <assert_abort>
    25ad:	8d 76 00             	lea    0x0(%esi),%esi
    25b0:	c7 04 24 cc 04 02 00 	movl   $0x204cc,(%esp)
    25b7:	e8 94 13 00 00       	call   3950 <futex_up>
    25bc:	8b 45 10             	mov    0x10(%ebp),%eax
    25bf:	85 c0                	test   %eax,%eax
    25c1:	0f 88 21 01 00 00    	js     26e8 <fibril_condvar_wait_timeout+0x188>
    25c7:	8d 7d 90             	lea    -0x70(%ebp),%edi
    25ca:	89 3c 24             	mov    %edi,(%esp)
    25cd:	e8 3e 97 00 00       	call   bd10 <awaiter_initialize>
    25d2:	e8 79 f6 ff ff       	call   1c50 <fibril_get_id>
    25d7:	c7 04 24 cc 04 02 00 	movl   $0x204cc,(%esp)
    25de:	89 45 90             	mov    %eax,-0x70(%ebp)
    25e1:	8b 45 10             	mov    0x10(%ebp),%eax
    25e4:	85 c0                	test   %eax,%eax
    25e6:	c6 45 b0 01          	movb   $0x1,-0x50(%ebp)
    25ea:	0f 9f 45 98          	setg   -0x68(%ebp)
    25ee:	e8 fd 12 00 00       	call   38f0 <futex_down>
    25f3:	8b 45 10             	mov    0x10(%ebp),%eax
    25f6:	85 c0                	test   %eax,%eax
    25f8:	0f 85 fa 00 00 00    	jne    26f8 <fibril_condvar_wait_timeout+0x198>
    25fe:	8b 16                	mov    (%esi),%edx
    2600:	8d 45 b4             	lea    -0x4c(%ebp),%eax
    2603:	89 06                	mov    %eax,(%esi)
    2605:	89 75 b8             	mov    %esi,-0x48(%ebp)
    2608:	89 42 04             	mov    %eax,0x4(%edx)
    260b:	8b 43 04             	mov    0x4(%ebx),%eax
    260e:	89 55 b4             	mov    %edx,-0x4c(%ebp)
    2611:	85 c0                	test   %eax,%eax
    2613:	8d 50 01             	lea    0x1(%eax),%edx
    2616:	89 53 04             	mov    %edx,0x4(%ebx)
    2619:	0f 88 09 01 00 00    	js     2728 <fibril_condvar_wait_timeout+0x1c8>
    261f:	c7 03 00 00 00 00    	movl   $0x0,(%ebx)
    2625:	c7 04 24 01 00 00 00 	movl   $0x1,(%esp)
    262c:	e8 df f0 ff ff       	call   1710 <fibril_switch>
    2631:	e8 1a f6 ff ff       	call   1c50 <fibril_get_id>
    2636:	89 45 84             	mov    %eax,-0x7c(%ebp)
    2639:	e8 62 f6 ff ff       	call   1ca0 <fibril_get_sercount>
    263e:	85 c0                	test   %eax,%eax
    2640:	0f 85 b8 01 00 00    	jne    27fe <fibril_condvar_wait_timeout+0x29e>
    2646:	c7 04 24 cc 04 02 00 	movl   $0x204cc,(%esp)
    264d:	e8 9e 12 00 00       	call   38f0 <futex_down>
    2652:	8b 43 04             	mov    0x4(%ebx),%eax
    2655:	8d 50 ff             	lea    -0x1(%eax),%edx
    2658:	85 c0                	test   %eax,%eax
    265a:	89 53 04             	mov    %edx,0x4(%ebx)
    265d:	0f 8e 35 01 00 00    	jle    2798 <fibril_condvar_wait_timeout+0x238>
    2663:	8b 45 84             	mov    -0x7c(%ebp),%eax
    2666:	89 03                	mov    %eax,(%ebx)
    2668:	c7 04 24 cc 04 02 00 	movl   $0x204cc,(%esp)
    266f:	e8 dc 12 00 00       	call   3950 <futex_up>
    2674:	c7 04 24 cc 04 02 00 	movl   $0x204cc,(%esp)
    267b:	e8 70 12 00 00       	call   38f0 <futex_down>
    2680:	80 7d 98 00          	cmpb   $0x0,-0x68(%ebp)
    2684:	74 24                	je     26aa <fibril_condvar_wait_timeout+0x14a>
    2686:	8b 55 9c             	mov    -0x64(%ebp),%edx
    2689:	85 d2                	test   %edx,%edx
    268b:	74 0f                	je     269c <fibril_condvar_wait_timeout+0x13c>
    268d:	8b 45 a0             	mov    -0x60(%ebp),%eax
    2690:	85 c0                	test   %eax,%eax
    2692:	74 08                	je     269c <fibril_condvar_wait_timeout+0x13c>
    2694:	89 10                	mov    %edx,(%eax)
    2696:	8b 55 9c             	mov    -0x64(%ebp),%edx
    2699:	89 42 04             	mov    %eax,0x4(%edx)
    269c:	c7 45 9c 00 00 00 00 	movl   $0x0,-0x64(%ebp)
    26a3:	c7 45 a0 00 00 00 00 	movl   $0x0,-0x60(%ebp)
    26aa:	80 7d b0 00          	cmpb   $0x0,-0x50(%ebp)
    26ae:	74 24                	je     26d4 <fibril_condvar_wait_timeout+0x174>
    26b0:	8b 55 b4             	mov    -0x4c(%ebp),%edx
    26b3:	85 d2                	test   %edx,%edx
    26b5:	74 0f                	je     26c6 <fibril_condvar_wait_timeout+0x166>
    26b7:	8b 45 b8             	mov    -0x48(%ebp),%eax
    26ba:	85 c0                	test   %eax,%eax
    26bc:	74 08                	je     26c6 <fibril_condvar_wait_timeout+0x166>
    26be:	89 10                	mov    %edx,(%eax)
    26c0:	8b 55 b4             	mov    -0x4c(%ebp),%edx
    26c3:	89 42 04             	mov    %eax,0x4(%edx)
    26c6:	c7 45 b4 00 00 00 00 	movl   $0x0,-0x4c(%ebp)
    26cd:	c7 45 b8 00 00 00 00 	movl   $0x0,-0x48(%ebp)
    26d4:	c7 04 24 cc 04 02 00 	movl   $0x204cc,(%esp)
    26db:	e8 70 12 00 00       	call   3950 <futex_up>
    26e0:	31 c0                	xor    %eax,%eax
    26e2:	80 7d a4 00          	cmpb   $0x0,-0x5c(%ebp)
    26e6:	74 05                	je     26ed <fibril_condvar_wait_timeout+0x18d>
    26e8:	b8 f3 ff ff ff       	mov    $0xfffffff3,%eax
    26ed:	81 c4 8c 00 00 00    	add    $0x8c,%esp
    26f3:	5b                   	pop    %ebx
    26f4:	5e                   	pop    %esi
    26f5:	5f                   	pop    %edi
    26f6:	5d                   	pop    %ebp
    26f7:	c3                   	ret    
    26f8:	8d 55 a8             	lea    -0x58(%ebp),%edx
    26fb:	89 14 24             	mov    %edx,(%esp)
    26fe:	89 55 80             	mov    %edx,-0x80(%ebp)
    2701:	e8 7a f4 00 00       	call   11b80 <getuptime>
    2706:	8b 45 10             	mov    0x10(%ebp),%eax
    2709:	8b 55 80             	mov    -0x80(%ebp),%edx
    270c:	89 44 24 04          	mov    %eax,0x4(%esp)
    2710:	89 14 24             	mov    %edx,(%esp)
    2713:	e8 68 f3 00 00       	call   11a80 <tv_add>
    2718:	89 3c 24             	mov    %edi,(%esp)
    271b:	e8 10 97 00 00       	call   be30 <async_insert_timeout>
    2720:	e9 d9 fe ff ff       	jmp    25fe <fibril_condvar_wait_timeout+0x9e>
    2725:	8d 76 00             	lea    0x0(%esi),%esi
    2728:	8b 53 0c             	mov    0xc(%ebx),%edx
    272b:	8d 43 08             	lea    0x8(%ebx),%eax
    272e:	39 c2                	cmp    %eax,%edx
    2730:	0f 84 cd 00 00 00    	je     2803 <fibril_condvar_wait_timeout+0x2a3>
    2736:	85 d2                	test   %edx,%edx
    2738:	0f 84 c5 00 00 00    	je     2803 <fibril_condvar_wait_timeout+0x2a3>
    273e:	8d 42 dc             	lea    -0x24(%edx),%eax
    2741:	8b 52 dc             	mov    -0x24(%edx),%edx
    2744:	8b 70 24             	mov    0x24(%eax),%esi
    2747:	c6 40 04 01          	movb   $0x1,0x4(%eax)
    274b:	c6 40 20 00          	movb   $0x0,0x20(%eax)
    274f:	85 f6                	test   %esi,%esi
    2751:	89 13                	mov    %edx,(%ebx)
    2753:	c7 42 40 00 00 00 00 	movl   $0x0,0x40(%edx)
    275a:	74 0f                	je     276b <fibril_condvar_wait_timeout+0x20b>
    275c:	8b 48 28             	mov    0x28(%eax),%ecx
    275f:	85 c9                	test   %ecx,%ecx
    2761:	74 08                	je     276b <fibril_condvar_wait_timeout+0x20b>
    2763:	89 31                	mov    %esi,(%ecx)
    2765:	8b 70 24             	mov    0x24(%eax),%esi
    2768:	89 4e 04             	mov    %ecx,0x4(%esi)
    276b:	c7 40 24 00 00 00 00 	movl   $0x0,0x24(%eax)
    2772:	c7 40 28 00 00 00 00 	movl   $0x0,0x28(%eax)
    2779:	89 14 24             	mov    %edx,(%esp)
    277c:	e8 bf f3 ff ff       	call   1b40 <fibril_add_ready>
    2781:	a1 10 06 02 00       	mov    0x20610,%eax
    2786:	85 c0                	test   %eax,%eax
    2788:	0f 84 97 fe ff ff    	je     2625 <fibril_condvar_wait_timeout+0xc5>
    278e:	e8 8d b8 00 00       	call   e020 <async_poke>
    2793:	e9 8d fe ff ff       	jmp    2625 <fibril_condvar_wait_timeout+0xc5>
    2798:	8d 45 bc             	lea    -0x44(%ebp),%eax
    279b:	89 de                	mov    %ebx,%esi
    279d:	89 04 24             	mov    %eax,(%esp)
    27a0:	e8 6b 95 00 00       	call   bd10 <awaiter_initialize>
    27a5:	e8 a6 f4 ff ff       	call   1c50 <fibril_get_id>
    27aa:	8b 53 08             	mov    0x8(%ebx),%edx
    27ad:	89 45 bc             	mov    %eax,-0x44(%ebp)
    27b0:	8d 43 08             	lea    0x8(%ebx),%eax
    27b3:	89 45 e4             	mov    %eax,-0x1c(%ebp)
    27b6:	8d 45 e0             	lea    -0x20(%ebp),%eax
    27b9:	c6 45 dc 01          	movb   $0x1,-0x24(%ebp)
    27bd:	89 55 e0             	mov    %edx,-0x20(%ebp)
    27c0:	89 42 04             	mov    %eax,0x4(%edx)
    27c3:	89 43 08             	mov    %eax,0x8(%ebx)
    27c6:	66 90                	xchg   %ax,%ax
    27c8:	8b 3e                	mov    (%esi),%edi
    27ca:	85 ff                	test   %edi,%edi
    27cc:	74 12                	je     27e0 <fibril_condvar_wait_timeout+0x280>
    27ce:	e8 7d f4 ff ff       	call   1c50 <fibril_get_id>
    27d3:	39 c7                	cmp    %eax,%edi
    27d5:	74 20                	je     27f7 <fibril_condvar_wait_timeout+0x297>
    27d7:	8b 06                	mov    (%esi),%eax
    27d9:	8b 70 40             	mov    0x40(%eax),%esi
    27dc:	85 f6                	test   %esi,%esi
    27de:	75 e8                	jne    27c8 <fibril_condvar_wait_timeout+0x268>
    27e0:	8b 45 84             	mov    -0x7c(%ebp),%eax
    27e3:	89 58 40             	mov    %ebx,0x40(%eax)
    27e6:	c7 04 24 01 00 00 00 	movl   $0x1,(%esp)
    27ed:	e8 1e ef ff ff       	call   1710 <fibril_switch>
    27f2:	e9 7d fe ff ff       	jmp    2674 <fibril_condvar_wait_timeout+0x114>
    27f7:	89 f0                	mov    %esi,%eax
    27f9:	e8 b2 f4 ff ff       	call   1cb0 <print_deadlock>
    27fe:	e8 8d ec ff ff       	call   1490 <abort>
    2803:	c7 44 24 08 96 00 00 	movl   $0x96,0x8(%esp)
    280a:	00 
    280b:	c7 44 24 04 cb da 01 	movl   $0x1dacb,0x4(%esp)
    2812:	00 
    2813:	c7 04 24 e2 da 01 00 	movl   $0x1dae2,(%esp)
    281a:	e8 b1 2a 01 00       	call   152d0 <assert_abort>
    281f:	90                   	nop

00002820 <fibril_timer_func>:
    2820:	55                   	push   %ebp
    2821:	89 e5                	mov    %esp,%ebp
    2823:	57                   	push   %edi
    2824:	56                   	push   %esi
    2825:	53                   	push   %ebx
    2826:	83 ec 5c             	sub    $0x5c,%esp
    2829:	8b 5d 08             	mov    0x8(%ebp),%ebx
    282c:	e8 1f f4 ff ff       	call   1c50 <fibril_get_id>
    2831:	89 45 b4             	mov    %eax,-0x4c(%ebp)
    2834:	e8 67 f4 ff ff       	call   1ca0 <fibril_get_sercount>
    2839:	85 c0                	test   %eax,%eax
    283b:	0f 85 c9 02 00 00    	jne    2b0a <fibril_timer_func+0x2ea>
    2841:	c7 04 24 cc 04 02 00 	movl   $0x204cc,(%esp)
    2848:	e8 a3 10 00 00       	call   38f0 <futex_down>
    284d:	8b 43 04             	mov    0x4(%ebx),%eax
    2850:	8d 50 ff             	lea    -0x1(%eax),%edx
    2853:	85 c0                	test   %eax,%eax
    2855:	89 53 04             	mov    %edx,0x4(%ebx)
    2858:	0f 8e 3a 02 00 00    	jle    2a98 <fibril_timer_func+0x278>
    285e:	8b 45 b4             	mov    -0x4c(%ebp),%eax
    2861:	89 03                	mov    %eax,(%ebx)
    2863:	c7 04 24 cc 04 02 00 	movl   $0x204cc,(%esp)
    286a:	e8 e1 10 00 00       	call   3950 <futex_up>
    286f:	8d 73 10             	lea    0x10(%ebx),%esi
    2872:	8d b6 00 00 00 00    	lea    0x0(%esi),%esi
    2878:	8b 43 1c             	mov    0x1c(%ebx),%eax
    287b:	89 c2                	mov    %eax,%edx
    287d:	83 e2 fd             	and    $0xfffffffd,%edx
    2880:	4a                   	dec    %edx
    2881:	74 35                	je     28b8 <fibril_timer_func+0x98>
    2883:	c7 44 24 08 00 00 00 	movl   $0x0,0x8(%esp)
    288a:	00 
    288b:	89 5c 24 04          	mov    %ebx,0x4(%esp)
    288f:	89 34 24             	mov    %esi,(%esp)
    2892:	e8 c9 fc ff ff       	call   2560 <fibril_condvar_wait_timeout>
    2897:	85 c0                	test   %eax,%eax
    2899:	74 dd                	je     2878 <fibril_timer_func+0x58>
    289b:	c7 44 24 08 96 01 00 	movl   $0x196,0x8(%esp)
    28a2:	00 
    28a3:	c7 44 24 04 cb da 01 	movl   $0x1dacb,0x4(%esp)
    28aa:	00 
    28ab:	c7 04 24 1b db 01 00 	movl   $0x1db1b,(%esp)
    28b2:	e8 19 2a 01 00       	call   152d0 <assert_abort>
    28b7:	90                   	nop
    28b8:	83 f8 03             	cmp    $0x3,%eax
    28bb:	74 5b                	je     2918 <fibril_timer_func+0xf8>
    28bd:	8b 43 20             	mov    0x20(%ebx),%eax
    28c0:	89 5c 24 04          	mov    %ebx,0x4(%esp)
    28c4:	89 44 24 08          	mov    %eax,0x8(%esp)
    28c8:	89 34 24             	mov    %esi,(%esp)
    28cb:	e8 90 fc ff ff       	call   2560 <fibril_condvar_wait_timeout>
    28d0:	83 f8 f3             	cmp    $0xfffffff3,%eax
    28d3:	75 a3                	jne    2878 <fibril_timer_func+0x58>
    28d5:	c7 43 1c 02 00 00 00 	movl   $0x2,0x1c(%ebx)
    28dc:	c7 04 24 cc 04 02 00 	movl   $0x204cc,(%esp)
    28e3:	e8 08 10 00 00       	call   38f0 <futex_down>
    28e8:	8b 4b 04             	mov    0x4(%ebx),%ecx
    28eb:	85 c9                	test   %ecx,%ecx
    28ed:	7e 41                	jle    2930 <fibril_timer_func+0x110>
    28ef:	c7 04 24 cc 04 02 00 	movl   $0x204cc,(%esp)
    28f6:	e8 55 10 00 00       	call   3950 <futex_up>
    28fb:	c7 44 24 08 a9 00 00 	movl   $0xa9,0x8(%esp)
    2902:	00 
    2903:	c7 44 24 04 cb da 01 	movl   $0x1dacb,0x4(%esp)
    290a:	00 
    290b:	c7 04 24 ee da 01 00 	movl   $0x1daee,(%esp)
    2912:	e8 b9 29 01 00       	call   152d0 <assert_abort>
    2917:	90                   	nop
    2918:	89 1c 24             	mov    %ebx,(%esp)
    291b:	e8 e0 f6 ff ff       	call   2000 <fibril_mutex_unlock>
    2920:	83 c4 5c             	add    $0x5c,%esp
    2923:	31 c0                	xor    %eax,%eax
    2925:	5b                   	pop    %ebx
    2926:	5e                   	pop    %esi
    2927:	5f                   	pop    %edi
    2928:	5d                   	pop    %ebp
    2929:	c3                   	ret    
    292a:	8d b6 00 00 00 00    	lea    0x0(%esi),%esi
    2930:	c7 04 24 cc 04 02 00 	movl   $0x204cc,(%esp)
    2937:	e8 14 10 00 00       	call   3950 <futex_up>
    293c:	c7 04 24 cc 04 02 00 	movl   $0x204cc,(%esp)
    2943:	e8 a8 0f 00 00       	call   38f0 <futex_down>
    2948:	8b 43 04             	mov    0x4(%ebx),%eax
    294b:	8d 50 01             	lea    0x1(%eax),%edx
    294e:	85 c0                	test   %eax,%eax
    2950:	89 53 04             	mov    %edx,0x4(%ebx)
    2953:	78 63                	js     29b8 <fibril_timer_func+0x198>
    2955:	c7 03 00 00 00 00    	movl   $0x0,(%ebx)
    295b:	c7 04 24 cc 04 02 00 	movl   $0x204cc,(%esp)
    2962:	e8 e9 0f 00 00       	call   3950 <futex_up>
    2967:	8b 43 28             	mov    0x28(%ebx),%eax
    296a:	89 04 24             	mov    %eax,(%esp)
    296d:	ff 53 24             	call   *0x24(%ebx)
    2970:	e8 db f2 ff ff       	call   1c50 <fibril_get_id>
    2975:	89 45 b4             	mov    %eax,-0x4c(%ebp)
    2978:	e8 23 f3 ff ff       	call   1ca0 <fibril_get_sercount>
    297d:	85 c0                	test   %eax,%eax
    297f:	0f 85 85 01 00 00    	jne    2b0a <fibril_timer_func+0x2ea>
    2985:	c7 04 24 cc 04 02 00 	movl   $0x204cc,(%esp)
    298c:	e8 5f 0f 00 00       	call   38f0 <futex_down>
    2991:	8b 43 04             	mov    0x4(%ebx),%eax
    2994:	8d 50 ff             	lea    -0x1(%eax),%edx
    2997:	85 c0                	test   %eax,%eax
    2999:	89 53 04             	mov    %edx,0x4(%ebx)
    299c:	0f 8e 86 00 00 00    	jle    2a28 <fibril_timer_func+0x208>
    29a2:	8b 45 b4             	mov    -0x4c(%ebp),%eax
    29a5:	89 03                	mov    %eax,(%ebx)
    29a7:	c7 04 24 cc 04 02 00 	movl   $0x204cc,(%esp)
    29ae:	e8 9d 0f 00 00       	call   3950 <futex_up>
    29b3:	e9 c0 fe ff ff       	jmp    2878 <fibril_timer_func+0x58>
    29b8:	8b 53 0c             	mov    0xc(%ebx),%edx
    29bb:	8d 43 08             	lea    0x8(%ebx),%eax
    29be:	39 c2                	cmp    %eax,%edx
    29c0:	0f 84 49 01 00 00    	je     2b0f <fibril_timer_func+0x2ef>
    29c6:	85 d2                	test   %edx,%edx
    29c8:	0f 84 41 01 00 00    	je     2b0f <fibril_timer_func+0x2ef>
    29ce:	8d 42 dc             	lea    -0x24(%edx),%eax
    29d1:	8b 52 dc             	mov    -0x24(%edx),%edx
    29d4:	8b 78 24             	mov    0x24(%eax),%edi
    29d7:	c6 40 04 01          	movb   $0x1,0x4(%eax)
    29db:	c6 40 20 00          	movb   $0x0,0x20(%eax)
    29df:	85 ff                	test   %edi,%edi
    29e1:	89 13                	mov    %edx,(%ebx)
    29e3:	c7 42 40 00 00 00 00 	movl   $0x0,0x40(%edx)
    29ea:	74 0f                	je     29fb <fibril_timer_func+0x1db>
    29ec:	8b 48 28             	mov    0x28(%eax),%ecx
    29ef:	85 c9                	test   %ecx,%ecx
    29f1:	74 08                	je     29fb <fibril_timer_func+0x1db>
    29f3:	89 39                	mov    %edi,(%ecx)
    29f5:	8b 78 24             	mov    0x24(%eax),%edi
    29f8:	89 4f 04             	mov    %ecx,0x4(%edi)
    29fb:	c7 40 24 00 00 00 00 	movl   $0x0,0x24(%eax)
    2a02:	c7 40 28 00 00 00 00 	movl   $0x0,0x28(%eax)
    2a09:	89 14 24             	mov    %edx,(%esp)
    2a0c:	e8 2f f1 ff ff       	call   1b40 <fibril_add_ready>
    2a11:	a1 10 06 02 00       	mov    0x20610,%eax
    2a16:	85 c0                	test   %eax,%eax
    2a18:	0f 84 3d ff ff ff    	je     295b <fibril_timer_func+0x13b>
    2a1e:	e8 fd b5 00 00       	call   e020 <async_poke>
    2a23:	e9 33 ff ff ff       	jmp    295b <fibril_timer_func+0x13b>
    2a28:	8d 45 bc             	lea    -0x44(%ebp),%eax
    2a2b:	89 df                	mov    %ebx,%edi
    2a2d:	89 04 24             	mov    %eax,(%esp)
    2a30:	e8 db 92 00 00       	call   bd10 <awaiter_initialize>
    2a35:	e8 16 f2 ff ff       	call   1c50 <fibril_get_id>
    2a3a:	8b 53 08             	mov    0x8(%ebx),%edx
    2a3d:	89 45 bc             	mov    %eax,-0x44(%ebp)
    2a40:	8d 43 08             	lea    0x8(%ebx),%eax
    2a43:	89 45 e4             	mov    %eax,-0x1c(%ebp)
    2a46:	8d 45 e0             	lea    -0x20(%ebp),%eax
    2a49:	c6 45 dc 01          	movb   $0x1,-0x24(%ebp)
    2a4d:	89 55 e0             	mov    %edx,-0x20(%ebp)
    2a50:	89 42 04             	mov    %eax,0x4(%edx)
    2a53:	89 43 08             	mov    %eax,0x8(%ebx)
    2a56:	66 90                	xchg   %ax,%ax
    2a58:	8b 0f                	mov    (%edi),%ecx
    2a5a:	85 c9                	test   %ecx,%ecx
    2a5c:	74 1c                	je     2a7a <fibril_timer_func+0x25a>
    2a5e:	89 4d b0             	mov    %ecx,-0x50(%ebp)
    2a61:	e8 ea f1 ff ff       	call   1c50 <fibril_get_id>
    2a66:	8b 4d b0             	mov    -0x50(%ebp),%ecx
    2a69:	39 c1                	cmp    %eax,%ecx
    2a6b:	0f 84 86 00 00 00    	je     2af7 <fibril_timer_func+0x2d7>
    2a71:	8b 07                	mov    (%edi),%eax
    2a73:	8b 78 40             	mov    0x40(%eax),%edi
    2a76:	85 ff                	test   %edi,%edi
    2a78:	75 de                	jne    2a58 <fibril_timer_func+0x238>
    2a7a:	8b 45 b4             	mov    -0x4c(%ebp),%eax
    2a7d:	89 58 40             	mov    %ebx,0x40(%eax)
    2a80:	c7 04 24 01 00 00 00 	movl   $0x1,(%esp)
    2a87:	e8 84 ec ff ff       	call   1710 <fibril_switch>
    2a8c:	e9 e7 fd ff ff       	jmp    2878 <fibril_timer_func+0x58>
    2a91:	8d b4 26 00 00 00 00 	lea    0x0(%esi,%eiz,1),%esi
    2a98:	8d 45 bc             	lea    -0x44(%ebp),%eax
    2a9b:	89 de                	mov    %ebx,%esi
    2a9d:	89 04 24             	mov    %eax,(%esp)
    2aa0:	e8 6b 92 00 00       	call   bd10 <awaiter_initialize>
    2aa5:	e8 a6 f1 ff ff       	call   1c50 <fibril_get_id>
    2aaa:	8b 53 08             	mov    0x8(%ebx),%edx
    2aad:	89 45 bc             	mov    %eax,-0x44(%ebp)
    2ab0:	8d 43 08             	lea    0x8(%ebx),%eax
    2ab3:	89 45 e4             	mov    %eax,-0x1c(%ebp)
    2ab6:	8d 45 e0             	lea    -0x20(%ebp),%eax
    2ab9:	c6 45 dc 01          	movb   $0x1,-0x24(%ebp)
    2abd:	89 55 e0             	mov    %edx,-0x20(%ebp)
    2ac0:	89 42 04             	mov    %eax,0x4(%edx)
    2ac3:	89 43 08             	mov    %eax,0x8(%ebx)
    2ac6:	66 90                	xchg   %ax,%ax
    2ac8:	8b 3e                	mov    (%esi),%edi
    2aca:	85 ff                	test   %edi,%edi
    2acc:	74 12                	je     2ae0 <fibril_timer_func+0x2c0>
    2ace:	e8 7d f1 ff ff       	call   1c50 <fibril_get_id>
    2ad3:	39 c7                	cmp    %eax,%edi
    2ad5:	74 2c                	je     2b03 <fibril_timer_func+0x2e3>
    2ad7:	8b 06                	mov    (%esi),%eax
    2ad9:	8b 70 40             	mov    0x40(%eax),%esi
    2adc:	85 f6                	test   %esi,%esi
    2ade:	75 e8                	jne    2ac8 <fibril_timer_func+0x2a8>
    2ae0:	8b 45 b4             	mov    -0x4c(%ebp),%eax
    2ae3:	89 58 40             	mov    %ebx,0x40(%eax)
    2ae6:	c7 04 24 01 00 00 00 	movl   $0x1,(%esp)
    2aed:	e8 1e ec ff ff       	call   1710 <fibril_switch>
    2af2:	e9 78 fd ff ff       	jmp    286f <fibril_timer_func+0x4f>
    2af7:	89 f8                	mov    %edi,%eax
    2af9:	e8 b2 f1 ff ff       	call   1cb0 <print_deadlock>
    2afe:	e8 8d e9 ff ff       	call   1490 <abort>
    2b03:	89 f0                	mov    %esi,%eax
    2b05:	e8 a6 f1 ff ff       	call   1cb0 <print_deadlock>
    2b0a:	e8 81 e9 ff ff       	call   1490 <abort>
    2b0f:	c7 44 24 08 96 00 00 	movl   $0x96,0x8(%esp)
    2b16:	00 
    2b17:	c7 44 24 04 cb da 01 	movl   $0x1dacb,0x4(%esp)
    2b1e:	00 
    2b1f:	c7 04 24 e2 da 01 00 	movl   $0x1dae2,(%esp)
    2b26:	e8 a5 27 01 00       	call   152d0 <assert_abort>
    2b2b:	90                   	nop
    2b2c:	8d 74 26 00          	lea    0x0(%esi,%eiz,1),%esi

00002b30 <fibril_condvar_wait>:
    2b30:	55                   	push   %ebp
    2b31:	89 e5                	mov    %esp,%ebp
    2b33:	83 ec 18             	sub    $0x18,%esp
    2b36:	8b 45 0c             	mov    0xc(%ebp),%eax
    2b39:	c7 44 24 08 00 00 00 	movl   $0x0,0x8(%esp)
    2b40:	00 
    2b41:	89 44 24 04          	mov    %eax,0x4(%esp)
    2b45:	8b 45 08             	mov    0x8(%ebp),%eax
    2b48:	89 04 24             	mov    %eax,(%esp)
    2b4b:	e8 10 fa ff ff       	call   2560 <fibril_condvar_wait_timeout>
    2b50:	85 c0                	test   %eax,%eax
    2b52:	75 02                	jne    2b56 <fibril_condvar_wait+0x26>
    2b54:	c9                   	leave  
    2b55:	c3                   	ret    
    2b56:	c7 44 24 08 96 01 00 	movl   $0x196,0x8(%esp)
    2b5d:	00 
    2b5e:	c7 44 24 04 cb da 01 	movl   $0x1dacb,0x4(%esp)
    2b65:	00 
    2b66:	c7 04 24 1b db 01 00 	movl   $0x1db1b,(%esp)
    2b6d:	e8 5e 27 01 00       	call   152d0 <assert_abort>
    2b72:	8d b4 26 00 00 00 00 	lea    0x0(%esi,%eiz,1),%esi
    2b79:	8d bc 27 00 00 00 00 	lea    0x0(%edi,%eiz,1),%edi

00002b80 <fibril_condvar_signal>:
    2b80:	55                   	push   %ebp
    2b81:	89 e5                	mov    %esp,%ebp
    2b83:	53                   	push   %ebx
    2b84:	83 ec 14             	sub    $0x14,%esp
    2b87:	8b 5d 08             	mov    0x8(%ebp),%ebx
    2b8a:	c7 04 24 cc 04 02 00 	movl   $0x204cc,(%esp)
    2b91:	e8 5a 0d 00 00       	call   38f0 <futex_down>
    2b96:	66 90                	xchg   %ax,%ax
    2b98:	8b 43 04             	mov    0x4(%ebx),%eax
    2b9b:	39 d8                	cmp    %ebx,%eax
    2b9d:	74 48                	je     2be7 <fibril_condvar_signal+0x67>
    2b9f:	83 e8 24             	sub    $0x24,%eax
    2ba2:	8b 48 24             	mov    0x24(%eax),%ecx
    2ba5:	85 c9                	test   %ecx,%ecx
    2ba7:	74 0f                	je     2bb8 <fibril_condvar_signal+0x38>
    2ba9:	8b 50 28             	mov    0x28(%eax),%edx
    2bac:	85 d2                	test   %edx,%edx
    2bae:	74 08                	je     2bb8 <fibril_condvar_signal+0x38>
    2bb0:	89 0a                	mov    %ecx,(%edx)
    2bb2:	8b 48 24             	mov    0x24(%eax),%ecx
    2bb5:	89 51 04             	mov    %edx,0x4(%ecx)
    2bb8:	c7 40 24 00 00 00 00 	movl   $0x0,0x24(%eax)
    2bbf:	c7 40 28 00 00 00 00 	movl   $0x0,0x28(%eax)
    2bc6:	c6 40 20 00          	movb   $0x0,0x20(%eax)
    2bca:	80 78 04 00          	cmpb   $0x0,0x4(%eax)
    2bce:	75 c8                	jne    2b98 <fibril_condvar_signal+0x18>
    2bd0:	c6 40 04 01          	movb   $0x1,0x4(%eax)
    2bd4:	8b 00                	mov    (%eax),%eax
    2bd6:	89 04 24             	mov    %eax,(%esp)
    2bd9:	e8 62 ef ff ff       	call   1b40 <fibril_add_ready>
    2bde:	a1 10 06 02 00       	mov    0x20610,%eax
    2be3:	85 c0                	test   %eax,%eax
    2be5:	75 11                	jne    2bf8 <fibril_condvar_signal+0x78>
    2be7:	c7 45 08 cc 04 02 00 	movl   $0x204cc,0x8(%ebp)
    2bee:	83 c4 14             	add    $0x14,%esp
    2bf1:	5b                   	pop    %ebx
    2bf2:	5d                   	pop    %ebp
    2bf3:	e9 58 0d 00 00       	jmp    3950 <futex_up>
    2bf8:	e8 23 b4 00 00       	call   e020 <async_poke>
    2bfd:	eb e8                	jmp    2be7 <fibril_condvar_signal+0x67>
    2bff:	90                   	nop

00002c00 <fibril_condvar_broadcast>:
    2c00:	55                   	push   %ebp
    2c01:	89 e5                	mov    %esp,%ebp
    2c03:	56                   	push   %esi
    2c04:	53                   	push   %ebx
    2c05:	83 ec 10             	sub    $0x10,%esp
    2c08:	8b 75 08             	mov    0x8(%ebp),%esi
    2c0b:	c7 04 24 cc 04 02 00 	movl   $0x204cc,(%esp)
    2c12:	e8 d9 0c 00 00       	call   38f0 <futex_down>
    2c17:	90                   	nop
    2c18:	8b 56 04             	mov    0x4(%esi),%edx
    2c1b:	39 f2                	cmp    %esi,%edx
    2c1d:	74 59                	je     2c78 <fibril_condvar_broadcast+0x78>
    2c1f:	8d 42 dc             	lea    -0x24(%edx),%eax
    2c22:	8b 58 24             	mov    0x24(%eax),%ebx
    2c25:	85 db                	test   %ebx,%ebx
    2c27:	74 0f                	je     2c38 <fibril_condvar_broadcast+0x38>
    2c29:	8b 48 28             	mov    0x28(%eax),%ecx
    2c2c:	85 c9                	test   %ecx,%ecx
    2c2e:	74 08                	je     2c38 <fibril_condvar_broadcast+0x38>
    2c30:	89 19                	mov    %ebx,(%ecx)
    2c32:	8b 58 24             	mov    0x24(%eax),%ebx
    2c35:	89 4b 04             	mov    %ecx,0x4(%ebx)
    2c38:	c7 40 24 00 00 00 00 	movl   $0x0,0x24(%eax)
    2c3f:	c7 40 28 00 00 00 00 	movl   $0x0,0x28(%eax)
    2c46:	c6 40 20 00          	movb   $0x0,0x20(%eax)
    2c4a:	80 78 04 00          	cmpb   $0x0,0x4(%eax)
    2c4e:	75 c8                	jne    2c18 <fibril_condvar_broadcast+0x18>
    2c50:	c6 40 04 01          	movb   $0x1,0x4(%eax)
    2c54:	8b 42 dc             	mov    -0x24(%edx),%eax
    2c57:	89 04 24             	mov    %eax,(%esp)
    2c5a:	e8 e1 ee ff ff       	call   1b40 <fibril_add_ready>
    2c5f:	a1 10 06 02 00       	mov    0x20610,%eax
    2c64:	85 c0                	test   %eax,%eax
    2c66:	74 b0                	je     2c18 <fibril_condvar_broadcast+0x18>
    2c68:	e8 b3 b3 00 00       	call   e020 <async_poke>
    2c6d:	8b 56 04             	mov    0x4(%esi),%edx
    2c70:	39 f2                	cmp    %esi,%edx
    2c72:	75 ab                	jne    2c1f <fibril_condvar_broadcast+0x1f>
    2c74:	8d 74 26 00          	lea    0x0(%esi,%eiz,1),%esi
    2c78:	c7 45 08 cc 04 02 00 	movl   $0x204cc,0x8(%ebp)
    2c7f:	83 c4 10             	add    $0x10,%esp
    2c82:	5b                   	pop    %ebx
    2c83:	5e                   	pop    %esi
    2c84:	5d                   	pop    %ebp
    2c85:	e9 c6 0c 00 00       	jmp    3950 <futex_up>
    2c8a:	8d b6 00 00 00 00    	lea    0x0(%esi),%esi

00002c90 <fibril_timer_create>:
    2c90:	55                   	push   %ebp
    2c91:	89 e5                	mov    %esp,%ebp
    2c93:	53                   	push   %ebx
    2c94:	83 ec 14             	sub    $0x14,%esp
    2c97:	c7 44 24 04 2c 00 00 	movl   $0x2c,0x4(%esp)
    2c9e:	00 
    2c9f:	c7 04 24 01 00 00 00 	movl   $0x1,(%esp)
    2ca6:	e8 e5 7d 00 00       	call   aa90 <calloc>
    2cab:	89 c3                	mov    %eax,%ebx
    2cad:	85 c0                	test   %eax,%eax
    2caf:	74 45                	je     2cf6 <fibril_timer_create+0x66>
    2cb1:	89 44 24 04          	mov    %eax,0x4(%esp)
    2cb5:	c7 04 24 20 28 00 00 	movl   $0x2820,(%esp)
    2cbc:	e8 3f ed ff ff       	call   1a00 <fibril_create>
    2cc1:	85 c0                	test   %eax,%eax
    2cc3:	74 3b                	je     2d00 <fibril_timer_create+0x70>
    2cc5:	8d 53 08             	lea    0x8(%ebx),%edx
    2cc8:	c7 03 00 00 00 00    	movl   $0x0,(%ebx)
    2cce:	89 53 08             	mov    %edx,0x8(%ebx)
    2cd1:	89 53 0c             	mov    %edx,0xc(%ebx)
    2cd4:	8d 53 10             	lea    0x10(%ebx),%edx
    2cd7:	c7 43 04 01 00 00 00 	movl   $0x1,0x4(%ebx)
    2cde:	89 53 10             	mov    %edx,0x10(%ebx)
    2ce1:	89 53 14             	mov    %edx,0x14(%ebx)
    2ce4:	89 43 18             	mov    %eax,0x18(%ebx)
    2ce7:	c7 43 1c 00 00 00 00 	movl   $0x0,0x1c(%ebx)
    2cee:	89 04 24             	mov    %eax,(%esp)
    2cf1:	e8 4a ee ff ff       	call   1b40 <fibril_add_ready>
    2cf6:	83 c4 14             	add    $0x14,%esp
    2cf9:	89 d8                	mov    %ebx,%eax
    2cfb:	5b                   	pop    %ebx
    2cfc:	5d                   	pop    %ebp
    2cfd:	c3                   	ret    
    2cfe:	66 90                	xchg   %ax,%ax
    2d00:	89 1c 24             	mov    %ebx,(%esp)
    2d03:	31 db                	xor    %ebx,%ebx
    2d05:	e8 f6 7e 00 00       	call   ac00 <free>
    2d0a:	eb ea                	jmp    2cf6 <fibril_timer_create+0x66>
    2d0c:	8d 74 26 00          	lea    0x0(%esi,%eiz,1),%esi

00002d10 <fibril_timer_destroy>:
    2d10:	55                   	push   %ebp
    2d11:	89 e5                	mov    %esp,%ebp
    2d13:	57                   	push   %edi
    2d14:	56                   	push   %esi
    2d15:	53                   	push   %ebx
    2d16:	83 ec 5c             	sub    $0x5c,%esp
    2d19:	8b 5d 08             	mov    0x8(%ebp),%ebx
    2d1c:	e8 2f ef ff ff       	call   1c50 <fibril_get_id>
    2d21:	89 45 b4             	mov    %eax,-0x4c(%ebp)
    2d24:	e8 77 ef ff ff       	call   1ca0 <fibril_get_sercount>
    2d29:	85 c0                	test   %eax,%eax
    2d2b:	0f 85 35 01 00 00    	jne    2e66 <fibril_timer_destroy+0x156>
    2d31:	c7 04 24 cc 04 02 00 	movl   $0x204cc,(%esp)
    2d38:	e8 b3 0b 00 00       	call   38f0 <futex_down>
    2d3d:	8b 43 04             	mov    0x4(%ebx),%eax
    2d40:	8d 50 ff             	lea    -0x1(%eax),%edx
    2d43:	85 c0                	test   %eax,%eax
    2d45:	89 53 04             	mov    %edx,0x4(%ebx)
    2d48:	0f 8e ae 00 00 00    	jle    2dfc <fibril_timer_destroy+0xec>
    2d4e:	8b 45 b4             	mov    -0x4c(%ebp),%eax
    2d51:	89 03                	mov    %eax,(%ebx)
    2d53:	c7 04 24 cc 04 02 00 	movl   $0x204cc,(%esp)
    2d5a:	e8 f1 0b 00 00       	call   3950 <futex_up>
    2d5f:	83 7b 1c 01          	cmpl   $0x1,0x1c(%ebx)
    2d63:	0f 84 02 01 00 00    	je     2e6b <fibril_timer_destroy+0x15b>
    2d69:	c7 43 1c 03 00 00 00 	movl   $0x3,0x1c(%ebx)
    2d70:	c7 04 24 cc 04 02 00 	movl   $0x204cc,(%esp)
    2d77:	8d 73 10             	lea    0x10(%ebx),%esi
    2d7a:	e8 71 0b 00 00       	call   38f0 <futex_down>
    2d7f:	90                   	nop
    2d80:	8b 56 04             	mov    0x4(%esi),%edx
    2d83:	39 f2                	cmp    %esi,%edx
    2d85:	74 59                	je     2de0 <fibril_timer_destroy+0xd0>
    2d87:	8d 42 dc             	lea    -0x24(%edx),%eax
    2d8a:	8b 78 24             	mov    0x24(%eax),%edi
    2d8d:	85 ff                	test   %edi,%edi
    2d8f:	74 0f                	je     2da0 <fibril_timer_destroy+0x90>
    2d91:	8b 48 28             	mov    0x28(%eax),%ecx
    2d94:	85 c9                	test   %ecx,%ecx
    2d96:	74 08                	je     2da0 <fibril_timer_destroy+0x90>
    2d98:	89 39                	mov    %edi,(%ecx)
    2d9a:	8b 78 24             	mov    0x24(%eax),%edi
    2d9d:	89 4f 04             	mov    %ecx,0x4(%edi)
    2da0:	c7 40 24 00 00 00 00 	movl   $0x0,0x24(%eax)
    2da7:	c7 40 28 00 00 00 00 	movl   $0x0,0x28(%eax)
    2dae:	c6 40 20 00          	movb   $0x0,0x20(%eax)
    2db2:	80 78 04 00          	cmpb   $0x0,0x4(%eax)
    2db6:	75 c8                	jne    2d80 <fibril_timer_destroy+0x70>
    2db8:	c6 40 04 01          	movb   $0x1,0x4(%eax)
    2dbc:	8b 42 dc             	mov    -0x24(%edx),%eax
    2dbf:	89 04 24             	mov    %eax,(%esp)
    2dc2:	e8 79 ed ff ff       	call   1b40 <fibril_add_ready>
    2dc7:	a1 10 06 02 00       	mov    0x20610,%eax
    2dcc:	85 c0                	test   %eax,%eax
    2dce:	74 b0                	je     2d80 <fibril_timer_destroy+0x70>
    2dd0:	e8 4b b2 00 00       	call   e020 <async_poke>
    2dd5:	8b 56 04             	mov    0x4(%esi),%edx
    2dd8:	39 f2                	cmp    %esi,%edx
    2dda:	75 ab                	jne    2d87 <fibril_timer_destroy+0x77>
    2ddc:	8d 74 26 00          	lea    0x0(%esi,%eiz,1),%esi
    2de0:	c7 04 24 cc 04 02 00 	movl   $0x204cc,(%esp)
    2de7:	e8 64 0b 00 00       	call   3950 <futex_up>
    2dec:	89 1c 24             	mov    %ebx,(%esp)
    2def:	e8 0c f2 ff ff       	call   2000 <fibril_mutex_unlock>
    2df4:	83 c4 5c             	add    $0x5c,%esp
    2df7:	5b                   	pop    %ebx
    2df8:	5e                   	pop    %esi
    2df9:	5f                   	pop    %edi
    2dfa:	5d                   	pop    %ebp
    2dfb:	c3                   	ret    
    2dfc:	8d 45 bc             	lea    -0x44(%ebp),%eax
    2dff:	89 de                	mov    %ebx,%esi
    2e01:	89 04 24             	mov    %eax,(%esp)
    2e04:	e8 07 8f 00 00       	call   bd10 <awaiter_initialize>
    2e09:	e8 42 ee ff ff       	call   1c50 <fibril_get_id>
    2e0e:	8b 53 08             	mov    0x8(%ebx),%edx
    2e11:	89 45 bc             	mov    %eax,-0x44(%ebp)
    2e14:	8d 43 08             	lea    0x8(%ebx),%eax
    2e17:	89 45 e4             	mov    %eax,-0x1c(%ebp)
    2e1a:	8d 45 e0             	lea    -0x20(%ebp),%eax
    2e1d:	c6 45 dc 01          	movb   $0x1,-0x24(%ebp)
    2e21:	89 55 e0             	mov    %edx,-0x20(%ebp)
    2e24:	89 42 04             	mov    %eax,0x4(%edx)
    2e27:	89 43 08             	mov    %eax,0x8(%ebx)
    2e2a:	8d b6 00 00 00 00    	lea    0x0(%esi),%esi
    2e30:	8b 3e                	mov    (%esi),%edi
    2e32:	85 ff                	test   %edi,%edi
    2e34:	74 12                	je     2e48 <fibril_timer_destroy+0x138>
    2e36:	e8 15 ee ff ff       	call   1c50 <fibril_get_id>
    2e3b:	39 c7                	cmp    %eax,%edi
    2e3d:	74 20                	je     2e5f <fibril_timer_destroy+0x14f>
    2e3f:	8b 06                	mov    (%esi),%eax
    2e41:	8b 70 40             	mov    0x40(%eax),%esi
    2e44:	85 f6                	test   %esi,%esi
    2e46:	75 e8                	jne    2e30 <fibril_timer_destroy+0x120>
    2e48:	8b 45 b4             	mov    -0x4c(%ebp),%eax
    2e4b:	89 58 40             	mov    %ebx,0x40(%eax)
    2e4e:	c7 04 24 01 00 00 00 	movl   $0x1,(%esp)
    2e55:	e8 b6 e8 ff ff       	call   1710 <fibril_switch>
    2e5a:	e9 00 ff ff ff       	jmp    2d5f <fibril_timer_destroy+0x4f>
    2e5f:	89 f0                	mov    %esi,%eax
    2e61:	e8 4a ee ff ff       	call   1cb0 <print_deadlock>
    2e66:	e8 25 e6 ff ff       	call   1490 <abort>
    2e6b:	c7 44 24 08 04 02 00 	movl   $0x204,0x8(%esp)
    2e72:	00 
    2e73:	c7 44 24 04 cb da 01 	movl   $0x1dacb,0x4(%esp)
    2e7a:	00 
    2e7b:	c7 04 24 25 db 01 00 	movl   $0x1db25,(%esp)
    2e82:	e8 49 24 01 00       	call   152d0 <assert_abort>
    2e87:	89 f6                	mov    %esi,%esi
    2e89:	8d bc 27 00 00 00 00 	lea    0x0(%edi,%eiz,1),%edi

00002e90 <fibril_timer_set>:
    2e90:	55                   	push   %ebp
    2e91:	89 e5                	mov    %esp,%ebp
    2e93:	57                   	push   %edi
    2e94:	56                   	push   %esi
    2e95:	53                   	push   %ebx
    2e96:	83 ec 5c             	sub    $0x5c,%esp
    2e99:	8b 5d 08             	mov    0x8(%ebp),%ebx
    2e9c:	e8 af ed ff ff       	call   1c50 <fibril_get_id>
    2ea1:	89 45 b4             	mov    %eax,-0x4c(%ebp)
    2ea4:	e8 f7 ed ff ff       	call   1ca0 <fibril_get_sercount>
    2ea9:	85 c0                	test   %eax,%eax
    2eab:	0f 85 3d 01 00 00    	jne    2fee <fibril_timer_set+0x15e>
    2eb1:	c7 04 24 cc 04 02 00 	movl   $0x204cc,(%esp)
    2eb8:	e8 33 0a 00 00       	call   38f0 <futex_down>
    2ebd:	8b 43 04             	mov    0x4(%ebx),%eax
    2ec0:	8d 50 ff             	lea    -0x1(%eax),%edx
    2ec3:	85 c0                	test   %eax,%eax
    2ec5:	89 53 04             	mov    %edx,0x4(%ebx)
    2ec8:	0f 8e b6 00 00 00    	jle    2f84 <fibril_timer_set+0xf4>
    2ece:	8b 45 b4             	mov    -0x4c(%ebp),%eax
    2ed1:	89 03                	mov    %eax,(%ebx)
    2ed3:	c7 04 24 cc 04 02 00 	movl   $0x204cc,(%esp)
    2eda:	e8 71 0a 00 00       	call   3950 <futex_up>
    2edf:	8b 45 0c             	mov    0xc(%ebp),%eax
    2ee2:	c7 43 1c 01 00 00 00 	movl   $0x1,0x1c(%ebx)
    2ee9:	89 43 20             	mov    %eax,0x20(%ebx)
    2eec:	8b 45 10             	mov    0x10(%ebp),%eax
    2eef:	89 43 24             	mov    %eax,0x24(%ebx)
    2ef2:	8b 45 14             	mov    0x14(%ebp),%eax
    2ef5:	89 43 28             	mov    %eax,0x28(%ebx)
    2ef8:	c7 04 24 cc 04 02 00 	movl   $0x204cc,(%esp)
    2eff:	8d 73 10             	lea    0x10(%ebx),%esi
    2f02:	e8 e9 09 00 00       	call   38f0 <futex_down>
    2f07:	90                   	nop
    2f08:	8b 56 04             	mov    0x4(%esi),%edx
    2f0b:	39 f2                	cmp    %esi,%edx
    2f0d:	74 59                	je     2f68 <fibril_timer_set+0xd8>
    2f0f:	8d 42 dc             	lea    -0x24(%edx),%eax
    2f12:	8b 78 24             	mov    0x24(%eax),%edi
    2f15:	85 ff                	test   %edi,%edi
    2f17:	74 0f                	je     2f28 <fibril_timer_set+0x98>
    2f19:	8b 48 28             	mov    0x28(%eax),%ecx
    2f1c:	85 c9                	test   %ecx,%ecx
    2f1e:	74 08                	je     2f28 <fibril_timer_set+0x98>
    2f20:	89 39                	mov    %edi,(%ecx)
    2f22:	8b 78 24             	mov    0x24(%eax),%edi
    2f25:	89 4f 04             	mov    %ecx,0x4(%edi)
    2f28:	c7 40 24 00 00 00 00 	movl   $0x0,0x24(%eax)
    2f2f:	c7 40 28 00 00 00 00 	movl   $0x0,0x28(%eax)
    2f36:	c6 40 20 00          	movb   $0x0,0x20(%eax)
    2f3a:	80 78 04 00          	cmpb   $0x0,0x4(%eax)
    2f3e:	75 c8                	jne    2f08 <fibril_timer_set+0x78>
    2f40:	c6 40 04 01          	movb   $0x1,0x4(%eax)
    2f44:	8b 42 dc             	mov    -0x24(%edx),%eax
    2f47:	89 04 24             	mov    %eax,(%esp)
    2f4a:	e8 f1 eb ff ff       	call   1b40 <fibril_add_ready>
    2f4f:	a1 10 06 02 00       	mov    0x20610,%eax
    2f54:	85 c0                	test   %eax,%eax
    2f56:	74 b0                	je     2f08 <fibril_timer_set+0x78>
    2f58:	e8 c3 b0 00 00       	call   e020 <async_poke>
    2f5d:	8b 56 04             	mov    0x4(%esi),%edx
    2f60:	39 f2                	cmp    %esi,%edx
    2f62:	75 ab                	jne    2f0f <fibril_timer_set+0x7f>
    2f64:	8d 74 26 00          	lea    0x0(%esi,%eiz,1),%esi
    2f68:	c7 04 24 cc 04 02 00 	movl   $0x204cc,(%esp)
    2f6f:	e8 dc 09 00 00       	call   3950 <futex_up>
    2f74:	89 1c 24             	mov    %ebx,(%esp)
    2f77:	e8 84 f0 ff ff       	call   2000 <fibril_mutex_unlock>
    2f7c:	83 c4 5c             	add    $0x5c,%esp
    2f7f:	5b                   	pop    %ebx
    2f80:	5e                   	pop    %esi
    2f81:	5f                   	pop    %edi
    2f82:	5d                   	pop    %ebp
    2f83:	c3                   	ret    
    2f84:	8d 45 bc             	lea    -0x44(%ebp),%eax
    2f87:	89 de                	mov    %ebx,%esi
    2f89:	89 04 24             	mov    %eax,(%esp)
    2f8c:	e8 7f 8d 00 00       	call   bd10 <awaiter_initialize>
    2f91:	e8 ba ec ff ff       	call   1c50 <fibril_get_id>
    2f96:	8b 53 08             	mov    0x8(%ebx),%edx
    2f99:	89 45 bc             	mov    %eax,-0x44(%ebp)
    2f9c:	8d 43 08             	lea    0x8(%ebx),%eax
    2f9f:	89 45 e4             	mov    %eax,-0x1c(%ebp)
    2fa2:	8d 45 e0             	lea    -0x20(%ebp),%eax
    2fa5:	c6 45 dc 01          	movb   $0x1,-0x24(%ebp)
    2fa9:	89 55 e0             	mov    %edx,-0x20(%ebp)
    2fac:	89 42 04             	mov    %eax,0x4(%edx)
    2faf:	89 43 08             	mov    %eax,0x8(%ebx)
    2fb2:	8d b6 00 00 00 00    	lea    0x0(%esi),%esi
    2fb8:	8b 3e                	mov    (%esi),%edi
    2fba:	85 ff                	test   %edi,%edi
    2fbc:	74 12                	je     2fd0 <fibril_timer_set+0x140>
    2fbe:	e8 8d ec ff ff       	call   1c50 <fibril_get_id>
    2fc3:	39 c7                	cmp    %eax,%edi
    2fc5:	74 20                	je     2fe7 <fibril_timer_set+0x157>
    2fc7:	8b 06                	mov    (%esi),%eax
    2fc9:	8b 70 40             	mov    0x40(%eax),%esi
    2fcc:	85 f6                	test   %esi,%esi
    2fce:	75 e8                	jne    2fb8 <fibril_timer_set+0x128>
    2fd0:	8b 45 b4             	mov    -0x4c(%ebp),%eax
    2fd3:	89 58 40             	mov    %ebx,0x40(%eax)
    2fd6:	c7 04 24 01 00 00 00 	movl   $0x1,(%esp)
    2fdd:	e8 2e e7 ff ff       	call   1710 <fibril_switch>
    2fe2:	e9 f8 fe ff ff       	jmp    2edf <fibril_timer_set+0x4f>
    2fe7:	89 f0                	mov    %esi,%eax
    2fe9:	e8 c2 ec ff ff       	call   1cb0 <print_deadlock>
    2fee:	e8 9d e4 ff ff       	call   1490 <abort>
    2ff3:	8d b6 00 00 00 00    	lea    0x0(%esi),%esi
    2ff9:	8d bc 27 00 00 00 00 	lea    0x0(%edi,%eiz,1),%edi

00003000 <fibril_timer_clear>:
    3000:	55                   	push   %ebp
    3001:	89 e5                	mov    %esp,%ebp
    3003:	57                   	push   %edi
    3004:	56                   	push   %esi
    3005:	53                   	push   %ebx
    3006:	83 ec 5c             	sub    $0x5c,%esp
    3009:	8b 5d 08             	mov    0x8(%ebp),%ebx
    300c:	e8 3f ec ff ff       	call   1c50 <fibril_get_id>
    3011:	89 45 b4             	mov    %eax,-0x4c(%ebp)
    3014:	e8 87 ec ff ff       	call   1ca0 <fibril_get_sercount>
    3019:	85 c0                	test   %eax,%eax
    301b:	0f 85 45 01 00 00    	jne    3166 <fibril_timer_clear+0x166>
    3021:	c7 04 24 cc 04 02 00 	movl   $0x204cc,(%esp)
    3028:	e8 c3 08 00 00       	call   38f0 <futex_down>
    302d:	8b 43 04             	mov    0x4(%ebx),%eax
    3030:	8d 50 ff             	lea    -0x1(%eax),%edx
    3033:	85 c0                	test   %eax,%eax
    3035:	89 53 04             	mov    %edx,0x4(%ebx)
    3038:	0f 8e c1 00 00 00    	jle    30ff <fibril_timer_clear+0xff>
    303e:	8b 45 b4             	mov    -0x4c(%ebp),%eax
    3041:	89 03                	mov    %eax,(%ebx)
    3043:	c7 04 24 cc 04 02 00 	movl   $0x204cc,(%esp)
    304a:	e8 01 09 00 00       	call   3950 <futex_up>
    304f:	8b 43 1c             	mov    0x1c(%ebx),%eax
    3052:	c7 43 20 00 00 00 00 	movl   $0x0,0x20(%ebx)
    3059:	c7 43 1c 00 00 00 00 	movl   $0x0,0x1c(%ebx)
    3060:	c7 43 24 00 00 00 00 	movl   $0x0,0x24(%ebx)
    3067:	c7 43 28 00 00 00 00 	movl   $0x0,0x28(%ebx)
    306e:	c7 04 24 cc 04 02 00 	movl   $0x204cc,(%esp)
    3075:	89 45 b4             	mov    %eax,-0x4c(%ebp)
    3078:	8d 73 10             	lea    0x10(%ebx),%esi
    307b:	e8 70 08 00 00       	call   38f0 <futex_down>
    3080:	8b 56 04             	mov    0x4(%esi),%edx
    3083:	39 f2                	cmp    %esi,%edx
    3085:	74 59                	je     30e0 <fibril_timer_clear+0xe0>
    3087:	8d 42 dc             	lea    -0x24(%edx),%eax
    308a:	8b 78 24             	mov    0x24(%eax),%edi
    308d:	85 ff                	test   %edi,%edi
    308f:	74 0f                	je     30a0 <fibril_timer_clear+0xa0>
    3091:	8b 48 28             	mov    0x28(%eax),%ecx
    3094:	85 c9                	test   %ecx,%ecx
    3096:	74 08                	je     30a0 <fibril_timer_clear+0xa0>
    3098:	89 39                	mov    %edi,(%ecx)
    309a:	8b 78 24             	mov    0x24(%eax),%edi
    309d:	89 4f 04             	mov    %ecx,0x4(%edi)
    30a0:	c7 40 24 00 00 00 00 	movl   $0x0,0x24(%eax)
    30a7:	c7 40 28 00 00 00 00 	movl   $0x0,0x28(%eax)
    30ae:	c6 40 20 00          	movb   $0x0,0x20(%eax)
    30b2:	80 78 04 00          	cmpb   $0x0,0x4(%eax)
    30b6:	75 c8                	jne    3080 <fibril_timer_clear+0x80>
    30b8:	c6 40 04 01          	movb   $0x1,0x4(%eax)
    30bc:	8b 42 dc             	mov    -0x24(%edx),%eax
    30bf:	89 04 24             	mov    %eax,(%esp)
    30c2:	e8 79 ea ff ff       	call   1b40 <fibril_add_ready>
    30c7:	a1 10 06 02 00       	mov    0x20610,%eax
    30cc:	85 c0                	test   %eax,%eax
    30ce:	74 b0                	je     3080 <fibril_timer_clear+0x80>
    30d0:	e8 4b af 00 00       	call   e020 <async_poke>
    30d5:	8b 56 04             	mov    0x4(%esi),%edx
    30d8:	39 f2                	cmp    %esi,%edx
    30da:	75 ab                	jne    3087 <fibril_timer_clear+0x87>
    30dc:	8d 74 26 00          	lea    0x0(%esi,%eiz,1),%esi
    30e0:	c7 04 24 cc 04 02 00 	movl   $0x204cc,(%esp)
    30e7:	e8 64 08 00 00       	call   3950 <futex_up>
    30ec:	89 1c 24             	mov    %ebx,(%esp)
    30ef:	e8 0c ef ff ff       	call   2000 <fibril_mutex_unlock>
    30f4:	8b 45 b4             	mov    -0x4c(%ebp),%eax
    30f7:	83 c4 5c             	add    $0x5c,%esp
    30fa:	5b                   	pop    %ebx
    30fb:	5e                   	pop    %esi
    30fc:	5f                   	pop    %edi
    30fd:	5d                   	pop    %ebp
    30fe:	c3                   	ret    
    30ff:	8d 45 bc             	lea    -0x44(%ebp),%eax
    3102:	89 de                	mov    %ebx,%esi
    3104:	89 04 24             	mov    %eax,(%esp)
    3107:	e8 04 8c 00 00       	call   bd10 <awaiter_initialize>
    310c:	e8 3f eb ff ff       	call   1c50 <fibril_get_id>
    3111:	8b 53 08             	mov    0x8(%ebx),%edx
    3114:	89 45 bc             	mov    %eax,-0x44(%ebp)
    3117:	8d 43 08             	lea    0x8(%ebx),%eax
    311a:	89 45 e4             	mov    %eax,-0x1c(%ebp)
    311d:	8d 45 e0             	lea    -0x20(%ebp),%eax
    3120:	c6 45 dc 01          	movb   $0x1,-0x24(%ebp)
    3124:	89 55 e0             	mov    %edx,-0x20(%ebp)
    3127:	89 42 04             	mov    %eax,0x4(%edx)
    312a:	89 43 08             	mov    %eax,0x8(%ebx)
    312d:	8d 76 00             	lea    0x0(%esi),%esi
    3130:	8b 3e                	mov    (%esi),%edi
    3132:	85 ff                	test   %edi,%edi
    3134:	74 12                	je     3148 <fibril_timer_clear+0x148>
    3136:	e8 15 eb ff ff       	call   1c50 <fibril_get_id>
    313b:	39 c7                	cmp    %eax,%edi
    313d:	74 20                	je     315f <fibril_timer_clear+0x15f>
    313f:	8b 06                	mov    (%esi),%eax
    3141:	8b 70 40             	mov    0x40(%eax),%esi
    3144:	85 f6                	test   %esi,%esi
    3146:	75 e8                	jne    3130 <fibril_timer_clear+0x130>
    3148:	8b 45 b4             	mov    -0x4c(%ebp),%eax
    314b:	89 58 40             	mov    %ebx,0x40(%eax)
    314e:	c7 04 24 01 00 00 00 	movl   $0x1,(%esp)
    3155:	e8 b6 e5 ff ff       	call   1710 <fibril_switch>
    315a:	e9 f0 fe ff ff       	jmp    304f <fibril_timer_clear+0x4f>
    315f:	89 f0                	mov    %esi,%eax
    3161:	e8 4a eb ff ff       	call   1cb0 <print_deadlock>
    3166:	e8 25 e3 ff ff       	call   1490 <abort>
    316b:	90                   	nop
    316c:	66 90                	xchg   %ax,%ax
    316e:	66 90                	xchg   %ax,%ax

00003170 <__make_tls>:
    3170:	55                   	push   %ebp
    3171:	89 e5                	mov    %esp,%ebp
    3173:	56                   	push   %esi
    3174:	53                   	push   %ebx
    3175:	bb e4 05 02 00       	mov    $0x205e4,%ebx
    317a:	83 ec 20             	sub    $0x20,%esp
    317d:	89 d8                	mov    %ebx,%eax
    317f:	2d d8 05 02 00       	sub    $0x205d8,%eax
    3184:	89 44 24 04          	mov    %eax,0x4(%esp)
    3188:	8d 45 f4             	lea    -0xc(%ebp),%eax
    318b:	89 04 24             	mov    %eax,(%esp)
    318e:	e8 4d 22 01 00       	call   153e0 <__alloc_tls>
    3193:	89 c6                	mov    %eax,%esi
    3195:	85 c0                	test   %eax,%eax
    3197:	74 48                	je     31e1 <__make_tls+0x71>
    3199:	ba d8 05 02 00       	mov    $0x205d8,%edx
    319e:	8b 45 f4             	mov    -0xc(%ebp),%eax
    31a1:	81 ea d8 05 02 00    	sub    $0x205d8,%edx
    31a7:	c7 44 24 04 d8 05 02 	movl   $0x205d8,0x4(%esp)
    31ae:	00 
    31af:	89 54 24 08          	mov    %edx,0x8(%esp)
    31b3:	89 04 24             	mov    %eax,(%esp)
    31b6:	e8 e5 55 01 00       	call   187a0 <memcpy>
    31bb:	ba d8 05 02 00       	mov    $0x205d8,%edx
    31c0:	29 d3                	sub    %edx,%ebx
    31c2:	8b 45 f4             	mov    -0xc(%ebp),%eax
    31c5:	81 ea d8 05 02 00    	sub    $0x205d8,%edx
    31cb:	89 5c 24 08          	mov    %ebx,0x8(%esp)
    31cf:	01 c2                	add    %eax,%edx
    31d1:	c7 44 24 04 00 00 00 	movl   $0x0,0x4(%esp)
    31d8:	00 
    31d9:	89 14 24             	mov    %edx,(%esp)
    31dc:	e8 3f 54 01 00       	call   18620 <memset>
    31e1:	83 c4 20             	add    $0x20,%esp
    31e4:	89 f0                	mov    %esi,%eax
    31e6:	5b                   	pop    %ebx
    31e7:	5e                   	pop    %esi
    31e8:	5d                   	pop    %ebp
    31e9:	c3                   	ret    
    31ea:	8d b6 00 00 00 00    	lea    0x0(%esi),%esi

000031f0 <__free_tls>:
    31f0:	55                   	push   %ebp
    31f1:	b8 e4 05 02 00       	mov    $0x205e4,%eax
    31f6:	89 e5                	mov    %esp,%ebp
    31f8:	83 ec 18             	sub    $0x18,%esp
    31fb:	2d d8 05 02 00       	sub    $0x205d8,%eax
    3200:	89 44 24 04          	mov    %eax,0x4(%esp)
    3204:	8b 45 08             	mov    0x8(%ebp),%eax
    3207:	89 04 24             	mov    %eax,(%esp)
    320a:	e8 e1 21 01 00       	call   153f0 <__free_tls_arch>
    320f:	c9                   	leave  
    3210:	c3                   	ret    
    3211:	eb 0d                	jmp    3220 <tls_alloc_variant_2>
    3213:	90                   	nop
    3214:	90                   	nop
    3215:	90                   	nop
    3216:	90                   	nop
    3217:	90                   	nop
    3218:	90                   	nop
    3219:	90                   	nop
    321a:	90                   	nop
    321b:	90                   	nop
    321c:	90                   	nop
    321d:	90                   	nop
    321e:	90                   	nop
    321f:	90                   	nop

00003220 <tls_alloc_variant_2>:
    3220:	55                   	push   %ebp
    3221:	b8 04 00 00 00       	mov    $0x4,%eax
    3226:	89 e5                	mov    %esp,%ebp
    3228:	53                   	push   %ebx
    3229:	83 ec 14             	sub    $0x14,%esp
    322c:	8b 5d 0c             	mov    0xc(%ebp),%ebx
    322f:	f7 d8                	neg    %eax
    3231:	81 c3 03 00 00 00    	add    $0x3,%ebx
    3237:	c7 04 24 04 00 00 00 	movl   $0x4,(%esp)
    323e:	21 c3                	and    %eax,%ebx
    3240:	8d 43 08             	lea    0x8(%ebx),%eax
    3243:	89 44 24 04          	mov    %eax,0x4(%esp)
    3247:	e8 e4 78 00 00       	call   ab30 <memalign>
    324c:	8b 55 08             	mov    0x8(%ebp),%edx
    324f:	85 c0                	test   %eax,%eax
    3251:	89 02                	mov    %eax,(%edx)
    3253:	74 0b                	je     3260 <tls_alloc_variant_2+0x40>
    3255:	01 d8                	add    %ebx,%eax
    3257:	89 00                	mov    %eax,(%eax)
    3259:	83 c4 14             	add    $0x14,%esp
    325c:	5b                   	pop    %ebx
    325d:	5d                   	pop    %ebp
    325e:	c3                   	ret    
    325f:	90                   	nop
    3260:	31 c0                	xor    %eax,%eax
    3262:	eb f5                	jmp    3259 <tls_alloc_variant_2+0x39>
    3264:	8d b6 00 00 00 00    	lea    0x0(%esi),%esi
    326a:	8d bf 00 00 00 00    	lea    0x0(%edi),%edi

00003270 <tls_free_variant_2>:
    3270:	55                   	push   %ebp
    3271:	ba 04 00 00 00       	mov    $0x4,%edx
    3276:	89 e5                	mov    %esp,%ebp
    3278:	f7 da                	neg    %edx
    327a:	8b 45 0c             	mov    0xc(%ebp),%eax
    327d:	05 03 00 00 00       	add    $0x3,%eax
    3282:	21 d0                	and    %edx,%eax
    3284:	8b 55 08             	mov    0x8(%ebp),%edx
    3287:	29 c2                	sub    %eax,%edx
    3289:	89 55 08             	mov    %edx,0x8(%ebp)
    328c:	5d                   	pop    %ebp
    328d:	e9 6e 79 00 00       	jmp    ac00 <free>
    3292:	66 90                	xchg   %ax,%ax
    3294:	66 90                	xchg   %ax,%ax
    3296:	66 90                	xchg   %ax,%ax
    3298:	66 90                	xchg   %ax,%ax
    329a:	66 90                	xchg   %ax,%ax
    329c:	66 90                	xchg   %ax,%ax
    329e:	66 90                	xchg   %ax,%ax

000032a0 <task_get_id>:
    32a0:	55                   	push   %ebp
    32a1:	89 e5                	mov    %esp,%ebp
    32a3:	83 ec 38             	sub    $0x38,%esp
    32a6:	8d 45 f0             	lea    -0x10(%ebp),%eax
    32a9:	c7 44 24 18 07 00 00 	movl   $0x7,0x18(%esp)
    32b0:	00 
    32b1:	c7 44 24 14 00 00 00 	movl   $0x0,0x14(%esp)
    32b8:	00 
    32b9:	c7 44 24 10 00 00 00 	movl   $0x0,0x10(%esp)
    32c0:	00 
    32c1:	c7 44 24 0c 00 00 00 	movl   $0x0,0xc(%esp)
    32c8:	00 
    32c9:	c7 44 24 08 00 00 00 	movl   $0x0,0x8(%esp)
    32d0:	00 
    32d1:	c7 44 24 04 00 00 00 	movl   $0x0,0x4(%esp)
    32d8:	00 
    32d9:	89 04 24             	mov    %eax,(%esp)
    32dc:	ff 15 54 05 02 00    	call   *0x20554
    32e2:	8b 45 f0             	mov    -0x10(%ebp),%eax
    32e5:	8b 55 f4             	mov    -0xc(%ebp),%edx
    32e8:	c9                   	leave  
    32e9:	c3                   	ret    
    32ea:	8d b6 00 00 00 00    	lea    0x0(%esi),%esi

000032f0 <task_set_name>:
    32f0:	55                   	push   %ebp
    32f1:	89 e5                	mov    %esp,%ebp
    32f3:	56                   	push   %esi
    32f4:	53                   	push   %ebx
    32f5:	83 ec 20             	sub    $0x20,%esp
    32f8:	8b 5d 08             	mov    0x8(%ebp),%ebx
    32fb:	85 db                	test   %ebx,%ebx
    32fd:	74 46                	je     3345 <task_set_name+0x55>
    32ff:	89 1c 24             	mov    %ebx,(%esp)
    3302:	8b 35 54 05 02 00    	mov    0x20554,%esi
    3308:	e8 a3 62 01 00       	call   195b0 <str_size>
    330d:	89 1c 24             	mov    %ebx,(%esp)
    3310:	c7 44 24 18 08 00 00 	movl   $0x8,0x18(%esp)
    3317:	00 
    3318:	c7 44 24 14 00 00 00 	movl   $0x0,0x14(%esp)
    331f:	00 
    3320:	c7 44 24 10 00 00 00 	movl   $0x0,0x10(%esp)
    3327:	00 
    3328:	c7 44 24 0c 00 00 00 	movl   $0x0,0xc(%esp)
    332f:	00 
    3330:	c7 44 24 08 00 00 00 	movl   $0x0,0x8(%esp)
    3337:	00 
    3338:	89 44 24 04          	mov    %eax,0x4(%esp)
    333c:	ff d6                	call   *%esi
    333e:	83 c4 20             	add    $0x20,%esp
    3341:	5b                   	pop    %ebx
    3342:	5e                   	pop    %esi
    3343:	5d                   	pop    %ebp
    3344:	c3                   	ret    
    3345:	c7 44 24 08 49 00 00 	movl   $0x49,0x8(%esp)
    334c:	00 
    334d:	c7 44 24 04 f3 db 01 	movl   $0x1dbf3,0x4(%esp)
    3354:	00 
    3355:	c7 04 24 02 dc 01 00 	movl   $0x1dc02,(%esp)
    335c:	e8 6f 1f 01 00       	call   152d0 <assert_abort>
    3361:	eb 0d                	jmp    3370 <task_kill>
    3363:	90                   	nop
    3364:	90                   	nop
    3365:	90                   	nop
    3366:	90                   	nop
    3367:	90                   	nop
    3368:	90                   	nop
    3369:	90                   	nop
    336a:	90                   	nop
    336b:	90                   	nop
    336c:	90                   	nop
    336d:	90                   	nop
    336e:	90                   	nop
    336f:	90                   	nop

00003370 <task_kill>:
    3370:	55                   	push   %ebp
    3371:	89 e5                	mov    %esp,%ebp
    3373:	83 ec 38             	sub    $0x38,%esp
    3376:	8b 45 08             	mov    0x8(%ebp),%eax
    3379:	c7 44 24 18 09 00 00 	movl   $0x9,0x18(%esp)
    3380:	00 
    3381:	89 45 f0             	mov    %eax,-0x10(%ebp)
    3384:	8b 45 0c             	mov    0xc(%ebp),%eax
    3387:	89 45 f4             	mov    %eax,-0xc(%ebp)
    338a:	8d 45 f0             	lea    -0x10(%ebp),%eax
    338d:	c7 44 24 14 00 00 00 	movl   $0x0,0x14(%esp)
    3394:	00 
    3395:	c7 44 24 10 00 00 00 	movl   $0x0,0x10(%esp)
    339c:	00 
    339d:	c7 44 24 0c 00 00 00 	movl   $0x0,0xc(%esp)
    33a4:	00 
    33a5:	c7 44 24 08 00 00 00 	movl   $0x0,0x8(%esp)
    33ac:	00 
    33ad:	c7 44 24 04 00 00 00 	movl   $0x0,0x4(%esp)
    33b4:	00 
    33b5:	89 04 24             	mov    %eax,(%esp)
    33b8:	ff 15 54 05 02 00    	call   *0x20554
    33be:	c9                   	leave  
    33bf:	c3                   	ret    

000033c0 <task_spawnvf>:
    33c0:	55                   	push   %ebp
    33c1:	89 e5                	mov    %esp,%ebp
    33c3:	53                   	push   %ebx
    33c4:	83 ec 34             	sub    $0x34,%esp
    33c7:	e8 84 cb 00 00       	call   ff50 <loader_connect>
    33cc:	89 c3                	mov    %eax,%ebx
    33ce:	85 c0                	test   %eax,%eax
    33d0:	0f 84 a2 00 00 00    	je     3478 <task_spawnvf+0xb8>
    33d6:	8d 45 f0             	lea    -0x10(%ebp),%eax
    33d9:	89 1c 24             	mov    %ebx,(%esp)
    33dc:	89 44 24 04          	mov    %eax,0x4(%esp)
    33e0:	e8 cb cb 00 00       	call   ffb0 <loader_get_task_id>
    33e5:	85 c0                	test   %eax,%eax
    33e7:	74 17                	je     3400 <task_spawnvf+0x40>
    33e9:	89 1c 24             	mov    %ebx,(%esp)
    33ec:	89 45 e4             	mov    %eax,-0x1c(%ebp)
    33ef:	e8 ec d1 00 00       	call   105e0 <loader_abort>
    33f4:	8b 45 e4             	mov    -0x1c(%ebp),%eax
    33f7:	83 c4 34             	add    $0x34,%esp
    33fa:	5b                   	pop    %ebx
    33fb:	5d                   	pop    %ebp
    33fc:	c3                   	ret    
    33fd:	8d 76 00             	lea    0x0(%esi),%esi
    3400:	89 1c 24             	mov    %ebx,(%esp)
    3403:	e8 58 cc 00 00       	call   10060 <loader_set_cwd>
    3408:	85 c0                	test   %eax,%eax
    340a:	75 dd                	jne    33e9 <task_spawnvf+0x29>
    340c:	8b 45 0c             	mov    0xc(%ebp),%eax
    340f:	89 1c 24             	mov    %ebx,(%esp)
    3412:	89 44 24 04          	mov    %eax,0x4(%esp)
    3416:	e8 65 cd 00 00       	call   10180 <loader_set_pathname>
    341b:	85 c0                	test   %eax,%eax
    341d:	75 ca                	jne    33e9 <task_spawnvf+0x29>
    341f:	8b 45 10             	mov    0x10(%ebp),%eax
    3422:	89 1c 24             	mov    %ebx,(%esp)
    3425:	89 44 24 04          	mov    %eax,0x4(%esp)
    3429:	e8 32 ce 00 00       	call   10260 <loader_set_args>
    342e:	85 c0                	test   %eax,%eax
    3430:	75 b7                	jne    33e9 <task_spawnvf+0x29>
    3432:	8b 45 14             	mov    0x14(%ebp),%eax
    3435:	89 1c 24             	mov    %ebx,(%esp)
    3438:	89 44 24 04          	mov    %eax,0x4(%esp)
    343c:	e8 5f cf 00 00       	call   103a0 <loader_set_files>
    3441:	85 c0                	test   %eax,%eax
    3443:	75 a4                	jne    33e9 <task_spawnvf+0x29>
    3445:	89 1c 24             	mov    %ebx,(%esp)
    3448:	e8 63 d0 00 00       	call   104b0 <loader_load_program>
    344d:	85 c0                	test   %eax,%eax
    344f:	75 98                	jne    33e9 <task_spawnvf+0x29>
    3451:	89 1c 24             	mov    %ebx,(%esp)
    3454:	e8 e7 d0 00 00       	call   10540 <loader_run>
    3459:	85 c0                	test   %eax,%eax
    345b:	75 8c                	jne    33e9 <task_spawnvf+0x29>
    345d:	83 7d 08 00          	cmpl   $0x0,0x8(%ebp)
    3461:	74 94                	je     33f7 <task_spawnvf+0x37>
    3463:	8b 5d 08             	mov    0x8(%ebp),%ebx
    3466:	8b 55 f0             	mov    -0x10(%ebp),%edx
    3469:	8b 4d f4             	mov    -0xc(%ebp),%ecx
    346c:	89 13                	mov    %edx,(%ebx)
    346e:	89 4b 04             	mov    %ecx,0x4(%ebx)
    3471:	eb 84                	jmp    33f7 <task_spawnvf+0x37>
    3473:	90                   	nop
    3474:	8d 74 26 00          	lea    0x0(%esi,%eiz,1),%esi
    3478:	b8 fc ff ff ff       	mov    $0xfffffffc,%eax
    347d:	e9 75 ff ff ff       	jmp    33f7 <task_spawnvf+0x37>
    3482:	8d b4 26 00 00 00 00 	lea    0x0(%esi,%eiz,1),%esi
    3489:	8d bc 27 00 00 00 00 	lea    0x0(%edi,%eiz,1),%edi

00003490 <task_spawnv>:
    3490:	55                   	push   %ebp
    3491:	89 e5                	mov    %esp,%ebp
    3493:	53                   	push   %ebx
    3494:	83 ec 34             	sub    $0x34,%esp
    3497:	a1 00 06 02 00       	mov    0x20600,%eax
    349c:	85 c0                	test   %eax,%eax
    349e:	74 13                	je     34b3 <task_spawnv+0x23>
    34a0:	8d 5d dc             	lea    -0x24(%ebp),%ebx
    34a3:	89 04 24             	mov    %eax,(%esp)
    34a6:	89 5c 24 04          	mov    %ebx,0x4(%esp)
    34aa:	e8 71 29 00 00       	call   5e20 <fhandle>
    34af:	85 c0                	test   %eax,%eax
    34b1:	74 7d                	je     3530 <task_spawnv+0xa0>
    34b3:	31 c0                	xor    %eax,%eax
    34b5:	89 45 e8             	mov    %eax,-0x18(%ebp)
    34b8:	a1 fc 05 02 00       	mov    0x205fc,%eax
    34bd:	85 c0                	test   %eax,%eax
    34bf:	74 13                	je     34d4 <task_spawnv+0x44>
    34c1:	8d 5d e0             	lea    -0x20(%ebp),%ebx
    34c4:	89 04 24             	mov    %eax,(%esp)
    34c7:	89 5c 24 04          	mov    %ebx,0x4(%esp)
    34cb:	e8 50 29 00 00       	call   5e20 <fhandle>
    34d0:	85 c0                	test   %eax,%eax
    34d2:	74 54                	je     3528 <task_spawnv+0x98>
    34d4:	31 c0                	xor    %eax,%eax
    34d6:	89 45 ec             	mov    %eax,-0x14(%ebp)
    34d9:	a1 f8 05 02 00       	mov    0x205f8,%eax
    34de:	85 c0                	test   %eax,%eax
    34e0:	74 13                	je     34f5 <task_spawnv+0x65>
    34e2:	8d 5d e4             	lea    -0x1c(%ebp),%ebx
    34e5:	89 04 24             	mov    %eax,(%esp)
    34e8:	89 5c 24 04          	mov    %ebx,0x4(%esp)
    34ec:	e8 2f 29 00 00       	call   5e20 <fhandle>
    34f1:	85 c0                	test   %eax,%eax
    34f3:	74 43                	je     3538 <task_spawnv+0xa8>
    34f5:	31 c0                	xor    %eax,%eax
    34f7:	89 45 f0             	mov    %eax,-0x10(%ebp)
    34fa:	8d 45 e8             	lea    -0x18(%ebp),%eax
    34fd:	89 44 24 0c          	mov    %eax,0xc(%esp)
    3501:	8b 45 10             	mov    0x10(%ebp),%eax
    3504:	89 44 24 08          	mov    %eax,0x8(%esp)
    3508:	8b 45 0c             	mov    0xc(%ebp),%eax
    350b:	89 44 24 04          	mov    %eax,0x4(%esp)
    350f:	8b 45 08             	mov    0x8(%ebp),%eax
    3512:	89 04 24             	mov    %eax,(%esp)
    3515:	c7 45 f4 00 00 00 00 	movl   $0x0,-0xc(%ebp)
    351c:	e8 9f fe ff ff       	call   33c0 <task_spawnvf>
    3521:	83 c4 34             	add    $0x34,%esp
    3524:	5b                   	pop    %ebx
    3525:	5d                   	pop    %ebp
    3526:	c3                   	ret    
    3527:	90                   	nop
    3528:	89 d8                	mov    %ebx,%eax
    352a:	eb aa                	jmp    34d6 <task_spawnv+0x46>
    352c:	8d 74 26 00          	lea    0x0(%esi,%eiz,1),%esi
    3530:	89 d8                	mov    %ebx,%eax
    3532:	eb 81                	jmp    34b5 <task_spawnv+0x25>
    3534:	8d 74 26 00          	lea    0x0(%esi,%eiz,1),%esi
    3538:	89 d8                	mov    %ebx,%eax
    353a:	eb bb                	jmp    34f7 <task_spawnv+0x67>
    353c:	8d 74 26 00          	lea    0x0(%esi,%eiz,1),%esi

00003540 <task_spawn>:
    3540:	55                   	push   %ebp
    3541:	89 e5                	mov    %esp,%ebp
    3543:	56                   	push   %esi
    3544:	53                   	push   %ebx
    3545:	83 ec 40             	sub    $0x40,%esp
    3548:	8b 45 10             	mov    0x10(%ebp),%eax
    354b:	8b 75 14             	mov    0x14(%ebp),%esi
    354e:	c1 e0 02             	shl    $0x2,%eax
    3551:	89 04 24             	mov    %eax,(%esp)
    3554:	e8 97 75 00 00       	call   aaf0 <malloc>
    3559:	89 c3                	mov    %eax,%ebx
    355b:	85 c0                	test   %eax,%eax
    355d:	0f 84 c9 00 00 00    	je     362c <task_spawn+0xec>
    3563:	31 d2                	xor    %edx,%edx
    3565:	8d 76 00             	lea    0x0(%esi),%esi
    3568:	8b 0c 96             	mov    (%esi,%edx,4),%ecx
    356b:	89 0c 93             	mov    %ecx,(%ebx,%edx,4)
    356e:	42                   	inc    %edx
    356f:	85 c9                	test   %ecx,%ecx
    3571:	75 f5                	jne    3568 <task_spawn+0x28>
    3573:	a1 00 06 02 00       	mov    0x20600,%eax
    3578:	85 c0                	test   %eax,%eax
    357a:	74 17                	je     3593 <task_spawn+0x53>
    357c:	8d 75 dc             	lea    -0x24(%ebp),%esi
    357f:	89 04 24             	mov    %eax,(%esp)
    3582:	89 74 24 04          	mov    %esi,0x4(%esp)
    3586:	e8 95 28 00 00       	call   5e20 <fhandle>
    358b:	85 c0                	test   %eax,%eax
    358d:	0f 84 8d 00 00 00    	je     3620 <task_spawn+0xe0>
    3593:	31 c0                	xor    %eax,%eax
    3595:	89 45 e8             	mov    %eax,-0x18(%ebp)
    3598:	a1 fc 05 02 00       	mov    0x205fc,%eax
    359d:	85 c0                	test   %eax,%eax
    359f:	74 13                	je     35b4 <task_spawn+0x74>
    35a1:	8d 75 e0             	lea    -0x20(%ebp),%esi
    35a4:	89 04 24             	mov    %eax,(%esp)
    35a7:	89 74 24 04          	mov    %esi,0x4(%esp)
    35ab:	e8 70 28 00 00       	call   5e20 <fhandle>
    35b0:	85 c0                	test   %eax,%eax
    35b2:	74 64                	je     3618 <task_spawn+0xd8>
    35b4:	31 c0                	xor    %eax,%eax
    35b6:	89 45 ec             	mov    %eax,-0x14(%ebp)
    35b9:	a1 f8 05 02 00       	mov    0x205f8,%eax
    35be:	85 c0                	test   %eax,%eax
    35c0:	74 13                	je     35d5 <task_spawn+0x95>
    35c2:	8d 75 e4             	lea    -0x1c(%ebp),%esi
    35c5:	89 04 24             	mov    %eax,(%esp)
    35c8:	89 74 24 04          	mov    %esi,0x4(%esp)
    35cc:	e8 4f 28 00 00       	call   5e20 <fhandle>
    35d1:	85 c0                	test   %eax,%eax
    35d3:	74 53                	je     3628 <task_spawn+0xe8>
    35d5:	31 c0                	xor    %eax,%eax
    35d7:	89 45 f0             	mov    %eax,-0x10(%ebp)
    35da:	8d 45 e8             	lea    -0x18(%ebp),%eax
    35dd:	89 44 24 0c          	mov    %eax,0xc(%esp)
    35e1:	8b 45 0c             	mov    0xc(%ebp),%eax
    35e4:	89 44 24 04          	mov    %eax,0x4(%esp)
    35e8:	8b 45 08             	mov    0x8(%ebp),%eax
    35eb:	89 5c 24 08          	mov    %ebx,0x8(%esp)
    35ef:	89 04 24             	mov    %eax,(%esp)
    35f2:	c7 45 f4 00 00 00 00 	movl   $0x0,-0xc(%ebp)
    35f9:	e8 c2 fd ff ff       	call   33c0 <task_spawnvf>
    35fe:	89 1c 24             	mov    %ebx,(%esp)
    3601:	89 45 d4             	mov    %eax,-0x2c(%ebp)
    3604:	e8 f7 75 00 00       	call   ac00 <free>
    3609:	8b 45 d4             	mov    -0x2c(%ebp),%eax
    360c:	83 c4 40             	add    $0x40,%esp
    360f:	5b                   	pop    %ebx
    3610:	5e                   	pop    %esi
    3611:	5d                   	pop    %ebp
    3612:	c3                   	ret    
    3613:	90                   	nop
    3614:	8d 74 26 00          	lea    0x0(%esi,%eiz,1),%esi
    3618:	89 f0                	mov    %esi,%eax
    361a:	eb 9a                	jmp    35b6 <task_spawn+0x76>
    361c:	8d 74 26 00          	lea    0x0(%esi,%eiz,1),%esi
    3620:	89 f0                	mov    %esi,%eax
    3622:	e9 6e ff ff ff       	jmp    3595 <task_spawn+0x55>
    3627:	90                   	nop
    3628:	89 f0                	mov    %esi,%eax
    362a:	eb ab                	jmp    35d7 <task_spawn+0x97>
    362c:	b8 fe ff ff ff       	mov    $0xfffffffe,%eax
    3631:	eb d9                	jmp    360c <task_spawn+0xcc>
    3633:	8d b6 00 00 00 00    	lea    0x0(%esi),%esi
    3639:	8d bc 27 00 00 00 00 	lea    0x0(%edi,%eiz,1),%edi

00003640 <task_spawnl>:
    3640:	55                   	push   %ebp
    3641:	31 d2                	xor    %edx,%edx
    3643:	89 e5                	mov    %esp,%ebp
    3645:	56                   	push   %esi
    3646:	53                   	push   %ebx
    3647:	83 ec 40             	sub    $0x40,%esp
    364a:	8d 45 10             	lea    0x10(%ebp),%eax
    364d:	8d 76 00             	lea    0x0(%esi),%esi
    3650:	83 c0 04             	add    $0x4,%eax
    3653:	42                   	inc    %edx
    3654:	8b 48 fc             	mov    -0x4(%eax),%ecx
    3657:	85 c9                	test   %ecx,%ecx
    3659:	75 f5                	jne    3650 <task_spawnl+0x10>
    365b:	c1 e2 02             	shl    $0x2,%edx
    365e:	89 14 24             	mov    %edx,(%esp)
    3661:	e8 8a 74 00 00       	call   aaf0 <malloc>
    3666:	89 c3                	mov    %eax,%ebx
    3668:	85 c0                	test   %eax,%eax
    366a:	0f 84 cc 00 00 00    	je     373c <task_spawnl+0xfc>
    3670:	31 d2                	xor    %edx,%edx
    3672:	8d b6 00 00 00 00    	lea    0x0(%esi),%esi
    3678:	8b 4c 95 10          	mov    0x10(%ebp,%edx,4),%ecx
    367c:	89 0c 93             	mov    %ecx,(%ebx,%edx,4)
    367f:	42                   	inc    %edx
    3680:	85 c9                	test   %ecx,%ecx
    3682:	75 f4                	jne    3678 <task_spawnl+0x38>
    3684:	a1 00 06 02 00       	mov    0x20600,%eax
    3689:	85 c0                	test   %eax,%eax
    368b:	74 17                	je     36a4 <task_spawnl+0x64>
    368d:	8d 75 dc             	lea    -0x24(%ebp),%esi
    3690:	89 04 24             	mov    %eax,(%esp)
    3693:	89 74 24 04          	mov    %esi,0x4(%esp)
    3697:	e8 84 27 00 00       	call   5e20 <fhandle>
    369c:	85 c0                	test   %eax,%eax
    369e:	0f 84 8c 00 00 00    	je     3730 <task_spawnl+0xf0>
    36a4:	31 c0                	xor    %eax,%eax
    36a6:	89 45 e8             	mov    %eax,-0x18(%ebp)
    36a9:	a1 fc 05 02 00       	mov    0x205fc,%eax
    36ae:	85 c0                	test   %eax,%eax
    36b0:	74 13                	je     36c5 <task_spawnl+0x85>
    36b2:	8d 75 e0             	lea    -0x20(%ebp),%esi
    36b5:	89 04 24             	mov    %eax,(%esp)
    36b8:	89 74 24 04          	mov    %esi,0x4(%esp)
    36bc:	e8 5f 27 00 00       	call   5e20 <fhandle>
    36c1:	85 c0                	test   %eax,%eax
    36c3:	74 63                	je     3728 <task_spawnl+0xe8>
    36c5:	31 c0                	xor    %eax,%eax
    36c7:	89 45 ec             	mov    %eax,-0x14(%ebp)
    36ca:	a1 f8 05 02 00       	mov    0x205f8,%eax
    36cf:	85 c0                	test   %eax,%eax
    36d1:	74 13                	je     36e6 <task_spawnl+0xa6>
    36d3:	8d 75 e4             	lea    -0x1c(%ebp),%esi
    36d6:	89 04 24             	mov    %eax,(%esp)
    36d9:	89 74 24 04          	mov    %esi,0x4(%esp)
    36dd:	e8 3e 27 00 00       	call   5e20 <fhandle>
    36e2:	85 c0                	test   %eax,%eax
    36e4:	74 52                	je     3738 <task_spawnl+0xf8>
    36e6:	31 c0                	xor    %eax,%eax
    36e8:	89 45 f0             	mov    %eax,-0x10(%ebp)
    36eb:	8d 45 e8             	lea    -0x18(%ebp),%eax
    36ee:	89 44 24 0c          	mov    %eax,0xc(%esp)
    36f2:	8b 45 0c             	mov    0xc(%ebp),%eax
    36f5:	89 44 24 04          	mov    %eax,0x4(%esp)
    36f9:	8b 45 08             	mov    0x8(%ebp),%eax
    36fc:	89 5c 24 08          	mov    %ebx,0x8(%esp)
    3700:	89 04 24             	mov    %eax,(%esp)
    3703:	c7 45 f4 00 00 00 00 	movl   $0x0,-0xc(%ebp)
    370a:	e8 b1 fc ff ff       	call   33c0 <task_spawnvf>
    370f:	89 1c 24             	mov    %ebx,(%esp)
    3712:	89 45 d4             	mov    %eax,-0x2c(%ebp)
    3715:	e8 e6 74 00 00       	call   ac00 <free>
    371a:	8b 45 d4             	mov    -0x2c(%ebp),%eax
    371d:	83 c4 40             	add    $0x40,%esp
    3720:	5b                   	pop    %ebx
    3721:	5e                   	pop    %esi
    3722:	5d                   	pop    %ebp
    3723:	c3                   	ret    
    3724:	8d 74 26 00          	lea    0x0(%esi,%eiz,1),%esi
    3728:	89 f0                	mov    %esi,%eax
    372a:	eb 9b                	jmp    36c7 <task_spawnl+0x87>
    372c:	8d 74 26 00          	lea    0x0(%esi,%eiz,1),%esi
    3730:	89 f0                	mov    %esi,%eax
    3732:	e9 6f ff ff ff       	jmp    36a6 <task_spawnl+0x66>
    3737:	90                   	nop
    3738:	89 f0                	mov    %esi,%eax
    373a:	eb ac                	jmp    36e8 <task_spawnl+0xa8>
    373c:	b8 fe ff ff ff       	mov    $0xfffffffe,%eax
    3741:	eb da                	jmp    371d <task_spawnl+0xdd>
    3743:	8d b6 00 00 00 00    	lea    0x0(%esi),%esi
    3749:	8d bc 27 00 00 00 00 	lea    0x0(%edi,%eiz,1),%edi

00003750 <task_wait>:
    3750:	55                   	push   %ebp
    3751:	89 e5                	mov    %esp,%ebp
    3753:	57                   	push   %edi
    3754:	56                   	push   %esi
    3755:	53                   	push   %ebx
    3756:	83 ec 5c             	sub    $0x5c,%esp
    3759:	8b 45 10             	mov    0x10(%ebp),%eax
    375c:	8b 75 08             	mov    0x8(%ebp),%esi
    375f:	8b 5d 0c             	mov    0xc(%ebp),%ebx
    3762:	85 c0                	test   %eax,%eax
    3764:	0f 84 8e 00 00 00    	je     37f8 <task_wait+0xa8>
    376a:	8b 7d 14             	mov    0x14(%ebp),%edi
    376d:	85 ff                	test   %edi,%edi
    376f:	0f 84 9f 00 00 00    	je     3814 <task_wait+0xc4>
    3775:	a1 dc 05 02 00       	mov    0x205dc,%eax
    377a:	89 04 24             	mov    %eax,(%esp)
    377d:	e8 ae a8 00 00       	call   e030 <async_exchange_begin>
    3782:	89 5c 24 0c          	mov    %ebx,0xc(%esp)
    3786:	89 c7                	mov    %eax,%edi
    3788:	8d 45 e4             	lea    -0x1c(%ebp),%eax
    378b:	89 44 24 1c          	mov    %eax,0x1c(%esp)
    378f:	8d 45 e0             	lea    -0x20(%ebp),%eax
    3792:	89 74 24 08          	mov    %esi,0x8(%esp)
    3796:	89 3c 24             	mov    %edi,(%esp)
    3799:	c7 44 24 28 00 00 00 	movl   $0x0,0x28(%esp)
    37a0:	00 
    37a1:	c7 44 24 24 00 00 00 	movl   $0x0,0x24(%esp)
    37a8:	00 
    37a9:	c7 44 24 20 00 00 00 	movl   $0x0,0x20(%esp)
    37b0:	00 
    37b1:	89 44 24 18          	mov    %eax,0x18(%esp)
    37b5:	c7 44 24 14 00 00 00 	movl   $0x0,0x14(%esp)
    37bc:	00 
    37bd:	c7 44 24 10 00 00 00 	movl   $0x0,0x10(%esp)
    37c4:	00 
    37c5:	c7 44 24 04 01 04 00 	movl   $0x401,0x4(%esp)
    37cc:	00 
    37cd:	e8 0e 98 00 00       	call   cfe0 <async_req_fast>
    37d2:	89 3c 24             	mov    %edi,(%esp)
    37d5:	89 45 d4             	mov    %eax,-0x2c(%ebp)
    37d8:	e8 c3 ab 00 00       	call   e3a0 <async_exchange_end>
    37dd:	8b 4d 10             	mov    0x10(%ebp),%ecx
    37e0:	8b 55 e0             	mov    -0x20(%ebp),%edx
    37e3:	8b 45 d4             	mov    -0x2c(%ebp),%eax
    37e6:	89 11                	mov    %edx,(%ecx)
    37e8:	8b 4d 14             	mov    0x14(%ebp),%ecx
    37eb:	8b 55 e4             	mov    -0x1c(%ebp),%edx
    37ee:	89 11                	mov    %edx,(%ecx)
    37f0:	83 c4 5c             	add    $0x5c,%esp
    37f3:	5b                   	pop    %ebx
    37f4:	5e                   	pop    %esi
    37f5:	5f                   	pop    %edi
    37f6:	5d                   	pop    %ebp
    37f7:	c3                   	ret    
    37f8:	c7 44 24 08 10 01 00 	movl   $0x110,0x8(%esp)
    37ff:	00 
    3800:	c7 44 24 04 f3 db 01 	movl   $0x1dbf3,0x4(%esp)
    3807:	00 
    3808:	c7 04 24 07 dc 01 00 	movl   $0x1dc07,(%esp)
    380f:	e8 bc 1a 01 00       	call   152d0 <assert_abort>
    3814:	c7 44 24 08 11 01 00 	movl   $0x111,0x8(%esp)
    381b:	00 
    381c:	c7 44 24 04 f3 db 01 	movl   $0x1dbf3,0x4(%esp)
    3823:	00 
    3824:	c7 04 24 0d dc 01 00 	movl   $0x1dc0d,(%esp)
    382b:	e8 a0 1a 01 00       	call   152d0 <assert_abort>

00003830 <task_retval>:
    3830:	55                   	push   %ebp
    3831:	89 e5                	mov    %esp,%ebp
    3833:	53                   	push   %ebx
    3834:	83 ec 44             	sub    $0x44,%esp
    3837:	a1 dc 05 02 00       	mov    0x205dc,%eax
    383c:	89 04 24             	mov    %eax,(%esp)
    383f:	e8 ec a7 00 00       	call   e030 <async_exchange_begin>
    3844:	c7 44 24 28 00 00 00 	movl   $0x0,0x28(%esp)
    384b:	00 
    384c:	89 c3                	mov    %eax,%ebx
    384e:	8b 45 08             	mov    0x8(%ebp),%eax
    3851:	89 1c 24             	mov    %ebx,(%esp)
    3854:	c7 44 24 24 00 00 00 	movl   $0x0,0x24(%esp)
    385b:	00 
    385c:	c7 44 24 20 00 00 00 	movl   $0x0,0x20(%esp)
    3863:	00 
    3864:	c7 44 24 1c 00 00 00 	movl   $0x0,0x1c(%esp)
    386b:	00 
    386c:	c7 44 24 18 00 00 00 	movl   $0x0,0x18(%esp)
    3873:	00 
    3874:	c7 44 24 14 00 00 00 	movl   $0x0,0x14(%esp)
    387b:	00 
    387c:	c7 44 24 10 00 00 00 	movl   $0x0,0x10(%esp)
    3883:	00 
    3884:	c7 44 24 0c 00 00 00 	movl   $0x0,0xc(%esp)
    388b:	00 
    388c:	89 44 24 08          	mov    %eax,0x8(%esp)
    3890:	c7 44 24 04 03 04 00 	movl   $0x403,0x4(%esp)
    3897:	00 
    3898:	e8 43 97 00 00       	call   cfe0 <async_req_fast>
    389d:	89 1c 24             	mov    %ebx,(%esp)
    38a0:	89 45 f4             	mov    %eax,-0xc(%ebp)
    38a3:	e8 f8 aa 00 00       	call   e3a0 <async_exchange_end>
    38a8:	8b 45 f4             	mov    -0xc(%ebp),%eax
    38ab:	83 c4 44             	add    $0x44,%esp
    38ae:	5b                   	pop    %ebx
    38af:	5d                   	pop    %ebp
    38b0:	c3                   	ret    
    38b1:	66 90                	xchg   %ax,%ax
    38b3:	66 90                	xchg   %ax,%ax
    38b5:	66 90                	xchg   %ax,%ax
    38b7:	66 90                	xchg   %ax,%ax
    38b9:	66 90                	xchg   %ax,%ax
    38bb:	66 90                	xchg   %ax,%ax
    38bd:	66 90                	xchg   %ax,%ax
    38bf:	90                   	nop

000038c0 <futex_initialize>:
    38c0:	55                   	push   %ebp
    38c1:	89 e5                	mov    %esp,%ebp
    38c3:	8b 45 08             	mov    0x8(%ebp),%eax
    38c6:	8b 55 0c             	mov    0xc(%ebp),%edx
    38c9:	89 10                	mov    %edx,(%eax)
    38cb:	5d                   	pop    %ebp
    38cc:	c3                   	ret    
    38cd:	8d 76 00             	lea    0x0(%esi),%esi

000038d0 <futex_trydown>:
    38d0:	55                   	push   %ebp
    38d1:	31 c9                	xor    %ecx,%ecx
    38d3:	89 e5                	mov    %esp,%ebp
    38d5:	b8 01 00 00 00       	mov    $0x1,%eax
    38da:	8b 55 08             	mov    0x8(%ebp),%edx
    38dd:	f0 0f b1 0a          	lock cmpxchg %ecx,(%edx)
    38e1:	0f 94 c0             	sete   %al
    38e4:	25 ff 00 00 00       	and    $0xff,%eax
    38e9:	5d                   	pop    %ebp
    38ea:	c3                   	ret    
    38eb:	90                   	nop
    38ec:	8d 74 26 00          	lea    0x0(%esi,%eiz,1),%esi

000038f0 <futex_down>:
    38f0:	55                   	push   %ebp
    38f1:	83 ca ff             	or     $0xffffffff,%edx
    38f4:	89 e5                	mov    %esp,%ebp
    38f6:	83 ec 28             	sub    $0x28,%esp
    38f9:	8b 4d 08             	mov    0x8(%ebp),%ecx
    38fc:	f0 0f c1 11          	lock xadd %edx,(%ecx)
    3900:	31 c0                	xor    %eax,%eax
    3902:	4a                   	dec    %edx
    3903:	78 03                	js     3908 <futex_down+0x18>
    3905:	c9                   	leave  
    3906:	c3                   	ret    
    3907:	90                   	nop
    3908:	c7 44 24 18 0c 00 00 	movl   $0xc,0x18(%esp)
    390f:	00 
    3910:	c7 44 24 14 00 00 00 	movl   $0x0,0x14(%esp)
    3917:	00 
    3918:	c7 44 24 10 00 00 00 	movl   $0x0,0x10(%esp)
    391f:	00 
    3920:	c7 44 24 0c 00 00 00 	movl   $0x0,0xc(%esp)
    3927:	00 
    3928:	c7 44 24 08 00 00 00 	movl   $0x0,0x8(%esp)
    392f:	00 
    3930:	c7 44 24 04 00 00 00 	movl   $0x0,0x4(%esp)
    3937:	00 
    3938:	89 0c 24             	mov    %ecx,(%esp)
    393b:	ff 15 54 05 02 00    	call   *0x20554
    3941:	c9                   	leave  
    3942:	c3                   	ret    
    3943:	8d b6 00 00 00 00    	lea    0x0(%esi),%esi
    3949:	8d bc 27 00 00 00 00 	lea    0x0(%edi,%eiz,1),%edi

00003950 <futex_up>:
    3950:	55                   	push   %ebp
    3951:	ba 01 00 00 00       	mov    $0x1,%edx
    3956:	89 e5                	mov    %esp,%ebp
    3958:	83 ec 28             	sub    $0x28,%esp
    395b:	8b 4d 08             	mov    0x8(%ebp),%ecx
    395e:	f0 0f c1 11          	lock xadd %edx,(%ecx)
    3962:	31 c0                	xor    %eax,%eax
    3964:	85 d2                	test   %edx,%edx
    3966:	78 08                	js     3970 <futex_up+0x20>
    3968:	c9                   	leave  
    3969:	c3                   	ret    
    396a:	8d b6 00 00 00 00    	lea    0x0(%esi),%esi
    3970:	c7 44 24 18 0d 00 00 	movl   $0xd,0x18(%esp)
    3977:	00 
    3978:	c7 44 24 14 00 00 00 	movl   $0x0,0x14(%esp)
    397f:	00 
    3980:	c7 44 24 10 00 00 00 	movl   $0x0,0x10(%esp)
    3987:	00 
    3988:	c7 44 24 0c 00 00 00 	movl   $0x0,0xc(%esp)
    398f:	00 
    3990:	c7 44 24 08 00 00 00 	movl   $0x0,0x8(%esp)
    3997:	00 
    3998:	c7 44 24 04 00 00 00 	movl   $0x0,0x4(%esp)
    399f:	00 
    39a0:	89 0c 24             	mov    %ecx,(%esp)
    39a3:	ff 15 54 05 02 00    	call   *0x20554
    39a9:	c9                   	leave  
    39aa:	c3                   	ret    
    39ab:	66 90                	xchg   %ax,%ax
    39ad:	66 90                	xchg   %ax,%ax
    39af:	90                   	nop

000039b0 <_fwrite>:
    39b0:	55                   	push   %ebp
    39b1:	89 e5                	mov    %esp,%ebp
    39b3:	57                   	push   %edi
    39b4:	56                   	push   %esi
    39b5:	53                   	push   %ebx
    39b6:	83 ec 2c             	sub    $0x2c,%esp
    39b9:	89 45 e4             	mov    %eax,-0x1c(%ebp)
    39bc:	89 55 e0             	mov    %edx,-0x20(%ebp)
    39bf:	8b 7d 08             	mov    0x8(%ebp),%edi
    39c2:	85 c9                	test   %ecx,%ecx
    39c4:	0f 84 9e 00 00 00    	je     3a68 <_fwrite+0xb8>
    39ca:	85 d2                	test   %edx,%edx
    39cc:	0f 84 96 00 00 00    	je     3a68 <_fwrite+0xb8>
    39d2:	89 d6                	mov    %edx,%esi
    39d4:	0f af f1             	imul   %ecx,%esi
    39d7:	85 f6                	test   %esi,%esi
    39d9:	0f 84 93 00 00 00    	je     3a72 <_fwrite+0xc2>
    39df:	8b 4f 0c             	mov    0xc(%edi),%ecx
    39e2:	85 c9                	test   %ecx,%ecx
    39e4:	0f 85 88 00 00 00    	jne    3a72 <_fwrite+0xc2>
    39ea:	31 db                	xor    %ebx,%ebx
    39ec:	eb 26                	jmp    3a14 <_fwrite+0x64>
    39ee:	66 90                	xchg   %ax,%ax
    39f0:	8b 45 e4             	mov    -0x1c(%ebp),%eax
    39f3:	89 74 24 04          	mov    %esi,0x4(%esp)
    39f7:	01 d8                	add    %ebx,%eax
    39f9:	89 04 24             	mov    %eax,(%esp)
    39fc:	e8 9f 25 00 00       	call   5fa0 <klog_write>
    3a01:	85 c0                	test   %eax,%eax
    3a03:	7e 32                	jle    3a37 <_fwrite+0x87>
    3a05:	29 c6                	sub    %eax,%esi
    3a07:	01 c3                	add    %eax,%ebx
    3a09:	85 f6                	test   %esi,%esi
    3a0b:	74 3b                	je     3a48 <_fwrite+0x98>
    3a0d:	8b 47 0c             	mov    0xc(%edi),%eax
    3a10:	85 c0                	test   %eax,%eax
    3a12:	75 34                	jne    3a48 <_fwrite+0x98>
    3a14:	8b 57 14             	mov    0x14(%edi),%edx
    3a17:	85 d2                	test   %edx,%edx
    3a19:	75 d5                	jne    39f0 <_fwrite+0x40>
    3a1b:	8b 45 e4             	mov    -0x1c(%ebp),%eax
    3a1e:	89 74 24 08          	mov    %esi,0x8(%esp)
    3a22:	01 d8                	add    %ebx,%eax
    3a24:	89 44 24 04          	mov    %eax,0x4(%esp)
    3a28:	8b 47 08             	mov    0x8(%edi),%eax
    3a2b:	89 04 24             	mov    %eax,(%esp)
    3a2e:	e8 cd fb 00 00       	call   13600 <write>
    3a33:	85 c0                	test   %eax,%eax
    3a35:	7f ce                	jg     3a05 <_fwrite+0x55>
    3a37:	c7 47 0c 01 00 00 00 	movl   $0x1,0xc(%edi)
    3a3e:	85 f6                	test   %esi,%esi
    3a40:	75 cb                	jne    3a0d <_fwrite+0x5d>
    3a42:	8d b6 00 00 00 00    	lea    0x0(%esi),%esi
    3a48:	89 d8                	mov    %ebx,%eax
    3a4a:	85 db                	test   %ebx,%ebx
    3a4c:	74 09                	je     3a57 <_fwrite+0xa7>
    3a4e:	c7 47 1c 01 00 00 00 	movl   $0x1,0x1c(%edi)
    3a55:	89 d8                	mov    %ebx,%eax
    3a57:	31 d2                	xor    %edx,%edx
    3a59:	f7 75 e0             	divl   -0x20(%ebp)
    3a5c:	83 c4 2c             	add    $0x2c,%esp
    3a5f:	5b                   	pop    %ebx
    3a60:	5e                   	pop    %esi
    3a61:	5f                   	pop    %edi
    3a62:	5d                   	pop    %ebp
    3a63:	c3                   	ret    
    3a64:	8d 74 26 00          	lea    0x0(%esi,%eiz,1),%esi
    3a68:	83 c4 2c             	add    $0x2c,%esp
    3a6b:	31 c0                	xor    %eax,%eax
    3a6d:	5b                   	pop    %ebx
    3a6e:	5e                   	pop    %esi
    3a6f:	5f                   	pop    %edi
    3a70:	5d                   	pop    %ebp
    3a71:	c3                   	ret    
    3a72:	31 c0                	xor    %eax,%eax
    3a74:	eb e1                	jmp    3a57 <_fwrite+0xa7>
    3a76:	8d 76 00             	lea    0x0(%esi),%esi
    3a79:	8d bc 27 00 00 00 00 	lea    0x0(%edi,%eiz,1),%edi

00003a80 <__stdio_init>:
    3a80:	55                   	push   %ebp
    3a81:	89 e5                	mov    %esp,%ebp
    3a83:	56                   	push   %esi
    3a84:	53                   	push   %ebx
    3a85:	83 ec 10             	sub    $0x10,%esp
    3a88:	8b 75 08             	mov    0x8(%ebp),%esi
    3a8b:	85 f6                	test   %esi,%esi
    3a8d:	0f 8e e5 01 00 00    	jle    3c78 <__stdio_init+0x1f8>
    3a93:	c7 04 24 38 00 00 00 	movl   $0x38,(%esp)
    3a9a:	e8 51 70 00 00       	call   aaf0 <malloc>
    3a9f:	89 c3                	mov    %eax,%ebx
    3aa1:	85 c0                	test   %eax,%eax
    3aa3:	0f 84 37 02 00 00    	je     3ce0 <__stdio_init+0x260>
    3aa9:	c7 40 08 00 00 00 00 	movl   $0x0,0x8(%eax)
    3ab0:	c7 40 0c 00 00 00 00 	movl   $0x0,0xc(%eax)
    3ab7:	c7 40 10 00 00 00 00 	movl   $0x0,0x10(%eax)
    3abe:	c7 40 14 00 00 00 00 	movl   $0x0,0x14(%eax)
    3ac5:	c7 40 18 00 00 00 00 	movl   $0x0,0x18(%eax)
    3acc:	c7 40 1c 00 00 00 00 	movl   $0x0,0x1c(%eax)
    3ad3:	c7 40 20 00 00 00 00 	movl   $0x0,0x20(%eax)
    3ada:	c7 40 24 00 00 00 00 	movl   $0x0,0x24(%eax)
    3ae1:	c7 40 28 00 00 00 00 	movl   $0x0,0x28(%eax)
    3ae8:	c7 40 30 00 00 00 00 	movl   $0x0,0x30(%eax)
    3aef:	c7 40 34 00 00 00 00 	movl   $0x0,0x34(%eax)
    3af6:	c7 40 2c 00 00 00 00 	movl   $0x0,0x2c(%eax)
    3afd:	c7 40 04 38 04 02 00 	movl   $0x20438,0x4(%eax)
    3b04:	a1 38 04 02 00       	mov    0x20438,%eax
    3b09:	89 03                	mov    %eax,(%ebx)
    3b0b:	89 1d 38 04 02 00    	mov    %ebx,0x20438
    3b11:	89 58 04             	mov    %ebx,0x4(%eax)
    3b14:	89 1d 00 06 02 00    	mov    %ebx,0x20600
    3b1a:	83 fe 01             	cmp    $0x1,%esi
    3b1d:	0f 84 dd 01 00 00    	je     3d00 <__stdio_init+0x280>
    3b23:	c7 04 24 38 00 00 00 	movl   $0x38,(%esp)
    3b2a:	e8 c1 6f 00 00       	call   aaf0 <malloc>
    3b2f:	89 c3                	mov    %eax,%ebx
    3b31:	85 c0                	test   %eax,%eax
    3b33:	0f 84 b7 01 00 00    	je     3cf0 <__stdio_init+0x270>
    3b39:	c7 40 08 01 00 00 00 	movl   $0x1,0x8(%eax)
    3b40:	c7 40 0c 00 00 00 00 	movl   $0x0,0xc(%eax)
    3b47:	c7 40 10 00 00 00 00 	movl   $0x0,0x10(%eax)
    3b4e:	c7 40 14 00 00 00 00 	movl   $0x0,0x14(%eax)
    3b55:	c7 40 18 00 00 00 00 	movl   $0x0,0x18(%eax)
    3b5c:	c7 40 1c 00 00 00 00 	movl   $0x0,0x1c(%eax)
    3b63:	c7 40 20 01 00 00 00 	movl   $0x1,0x20(%eax)
    3b6a:	c7 40 24 00 00 00 00 	movl   $0x0,0x24(%eax)
    3b71:	c7 40 28 00 10 00 00 	movl   $0x1000,0x28(%eax)
    3b78:	c7 40 30 00 00 00 00 	movl   $0x0,0x30(%eax)
    3b7f:	c7 40 34 00 00 00 00 	movl   $0x0,0x34(%eax)
    3b86:	c7 40 2c 00 00 00 00 	movl   $0x0,0x2c(%eax)
    3b8d:	c7 40 04 38 04 02 00 	movl   $0x20438,0x4(%eax)
    3b94:	a1 38 04 02 00       	mov    0x20438,%eax
    3b99:	89 03                	mov    %eax,(%ebx)
    3b9b:	89 1d 38 04 02 00    	mov    %ebx,0x20438
    3ba1:	89 58 04             	mov    %ebx,0x4(%eax)
    3ba4:	89 1d fc 05 02 00    	mov    %ebx,0x205fc
    3baa:	a1 38 04 02 00       	mov    0x20438,%eax
    3baf:	83 fe 02             	cmp    $0x2,%esi
    3bb2:	75 34                	jne    3be8 <__stdio_init+0x168>
    3bb4:	c7 05 84 04 02 00 38 	movl   $0x20438,0x20484
    3bbb:	04 02 00 
    3bbe:	c7 05 f8 05 02 00 80 	movl   $0x20480,0x205f8
    3bc5:	04 02 00 
    3bc8:	c7 40 04 80 04 02 00 	movl   $0x20480,0x4(%eax)
    3bcf:	a3 80 04 02 00       	mov    %eax,0x20480
    3bd4:	c7 05 38 04 02 00 80 	movl   $0x20480,0x20438
    3bdb:	04 02 00 
    3bde:	83 c4 10             	add    $0x10,%esp
    3be1:	5b                   	pop    %ebx
    3be2:	5e                   	pop    %esi
    3be3:	5d                   	pop    %ebp
    3be4:	c3                   	ret    
    3be5:	8d 76 00             	lea    0x0(%esi),%esi
    3be8:	c7 04 24 38 00 00 00 	movl   $0x38,(%esp)
    3bef:	e8 fc 6e 00 00       	call   aaf0 <malloc>
    3bf4:	89 c3                	mov    %eax,%ebx
    3bf6:	85 c0                	test   %eax,%eax
    3bf8:	0f 84 ce 00 00 00    	je     3ccc <__stdio_init+0x24c>
    3bfe:	c7 40 08 02 00 00 00 	movl   $0x2,0x8(%eax)
    3c05:	c7 40 0c 00 00 00 00 	movl   $0x0,0xc(%eax)
    3c0c:	c7 40 10 00 00 00 00 	movl   $0x0,0x10(%eax)
    3c13:	c7 40 14 00 00 00 00 	movl   $0x0,0x14(%eax)
    3c1a:	c7 40 18 00 00 00 00 	movl   $0x0,0x18(%eax)
    3c21:	c7 40 1c 00 00 00 00 	movl   $0x0,0x1c(%eax)
    3c28:	c7 40 20 00 00 00 00 	movl   $0x0,0x20(%eax)
    3c2f:	c7 40 24 00 00 00 00 	movl   $0x0,0x24(%eax)
    3c36:	c7 40 28 00 00 00 00 	movl   $0x0,0x28(%eax)
    3c3d:	c7 40 30 00 00 00 00 	movl   $0x0,0x30(%eax)
    3c44:	c7 40 34 00 00 00 00 	movl   $0x0,0x34(%eax)
    3c4b:	c7 40 2c 00 00 00 00 	movl   $0x0,0x2c(%eax)
    3c52:	c7 40 04 38 04 02 00 	movl   $0x20438,0x4(%eax)
    3c59:	a1 38 04 02 00       	mov    0x20438,%eax
    3c5e:	89 03                	mov    %eax,(%ebx)
    3c60:	89 1d 38 04 02 00    	mov    %ebx,0x20438
    3c66:	89 58 04             	mov    %ebx,0x4(%eax)
    3c69:	89 1d f8 05 02 00    	mov    %ebx,0x205f8
    3c6f:	83 c4 10             	add    $0x10,%esp
    3c72:	5b                   	pop    %ebx
    3c73:	5e                   	pop    %esi
    3c74:	5d                   	pop    %ebp
    3c75:	c3                   	ret    
    3c76:	66 90                	xchg   %ax,%ax
    3c78:	a1 38 04 02 00       	mov    0x20438,%eax
    3c7d:	c7 05 04 04 02 00 38 	movl   $0x20438,0x20404
    3c84:	04 02 00 
    3c87:	a3 00 04 02 00       	mov    %eax,0x20400
    3c8c:	c7 05 00 06 02 00 00 	movl   $0x20400,0x20600
    3c93:	04 02 00 
    3c96:	c7 40 04 00 04 02 00 	movl   $0x20400,0x4(%eax)
    3c9d:	b8 00 04 02 00       	mov    $0x20400,%eax
    3ca2:	c7 05 44 04 02 00 38 	movl   $0x20438,0x20444
    3ca9:	04 02 00 
    3cac:	a3 40 04 02 00       	mov    %eax,0x20440
    3cb1:	c7 40 04 40 04 02 00 	movl   $0x20440,0x4(%eax)
    3cb8:	c7 05 fc 05 02 00 40 	movl   $0x20440,0x205fc
    3cbf:	04 02 00 
    3cc2:	b8 40 04 02 00       	mov    $0x20440,%eax
    3cc7:	e9 e8 fe ff ff       	jmp    3bb4 <__stdio_init+0x134>
    3ccc:	e8 cf 1f 01 00       	call   15ca0 <__errno>
    3cd1:	c7 00 fe ff ff ff    	movl   $0xfffffffe,(%eax)
    3cd7:	eb 90                	jmp    3c69 <__stdio_init+0x1e9>
    3cd9:	8d b4 26 00 00 00 00 	lea    0x0(%esi,%eiz,1),%esi
    3ce0:	e8 bb 1f 01 00       	call   15ca0 <__errno>
    3ce5:	c7 00 fe ff ff ff    	movl   $0xfffffffe,(%eax)
    3ceb:	e9 24 fe ff ff       	jmp    3b14 <__stdio_init+0x94>
    3cf0:	e8 ab 1f 01 00       	call   15ca0 <__errno>
    3cf5:	c7 00 fe ff ff ff    	movl   $0xfffffffe,(%eax)
    3cfb:	e9 a4 fe ff ff       	jmp    3ba4 <__stdio_init+0x124>
    3d00:	a1 38 04 02 00       	mov    0x20438,%eax
    3d05:	eb 9b                	jmp    3ca2 <__stdio_init+0x222>
    3d07:	89 f6                	mov    %esi,%esi
    3d09:	8d bc 27 00 00 00 00 	lea    0x0(%edi,%eiz,1),%edi

00003d10 <__stdio_done>:
    3d10:	55                   	push   %ebp
    3d11:	89 e5                	mov    %esp,%ebp
    3d13:	57                   	push   %edi
    3d14:	56                   	push   %esi
    3d15:	53                   	push   %ebx
    3d16:	83 ec 2c             	sub    $0x2c,%esp
    3d19:	8d b4 26 00 00 00 00 	lea    0x0(%esi,%eiz,1),%esi
    3d20:	8b 1d 3c 04 02 00    	mov    0x2043c,%ebx
    3d26:	81 fb 38 04 02 00    	cmp    $0x20438,%ebx
    3d2c:	0f 84 e7 00 00 00    	je     3e19 <__stdio_done+0x109>
    3d32:	8b 43 24             	mov    0x24(%ebx),%eax
    3d35:	85 c0                	test   %eax,%eax
    3d37:	74 3b                	je     3d74 <__stdio_done+0x64>
    3d39:	8b 4b 20             	mov    0x20(%ebx),%ecx
    3d3c:	85 c9                	test   %ecx,%ecx
    3d3e:	74 34                	je     3d74 <__stdio_done+0x64>
    3d40:	8b 53 0c             	mov    0xc(%ebx),%edx
    3d43:	85 d2                	test   %edx,%edx
    3d45:	75 2d                	jne    3d74 <__stdio_done+0x64>
    3d47:	8b 4b 30             	mov    0x30(%ebx),%ecx
    3d4a:	89 cf                	mov    %ecx,%edi
    3d4c:	2b 7b 34             	sub    0x34(%ebx),%edi
    3d4f:	74 16                	je     3d67 <__stdio_done+0x57>
    3d51:	8b 43 2c             	mov    0x2c(%ebx),%eax
    3d54:	83 f8 02             	cmp    $0x2,%eax
    3d57:	0f 84 db 00 00 00    	je     3e38 <__stdio_done+0x128>
    3d5d:	48                   	dec    %eax
    3d5e:	0f 84 04 01 00 00    	je     3e68 <__stdio_done+0x158>
    3d64:	8b 43 24             	mov    0x24(%ebx),%eax
    3d67:	89 43 30             	mov    %eax,0x30(%ebx)
    3d6a:	89 43 34             	mov    %eax,0x34(%ebx)
    3d6d:	c7 43 2c 00 00 00 00 	movl   $0x0,0x2c(%ebx)
    3d74:	8b 7b 14             	mov    0x14(%ebx),%edi
    3d77:	85 ff                	test   %edi,%edi
    3d79:	0f 85 a9 00 00 00    	jne    3e28 <__stdio_done+0x118>
    3d7f:	8b 43 08             	mov    0x8(%ebx),%eax
    3d82:	85 c0                	test   %eax,%eax
    3d84:	78 16                	js     3d9c <__stdio_done+0x8c>
    3d86:	8b 73 1c             	mov    0x1c(%ebx),%esi
    3d89:	85 f6                	test   %esi,%esi
    3d8b:	74 0f                	je     3d9c <__stdio_done+0x8c>
    3d8d:	c7 43 1c 00 00 00 00 	movl   $0x0,0x1c(%ebx)
    3d94:	89 04 24             	mov    %eax,(%esp)
    3d97:	e8 44 fc 00 00       	call   139e0 <fsync>
    3d9c:	8b 43 18             	mov    0x18(%ebx),%eax
    3d9f:	85 c0                	test   %eax,%eax
    3da1:	74 08                	je     3dab <__stdio_done+0x9b>
    3da3:	89 04 24             	mov    %eax,(%esp)
    3da6:	e8 85 a1 00 00       	call   df30 <async_hangup>
    3dab:	8b 43 08             	mov    0x8(%ebx),%eax
    3dae:	85 c0                	test   %eax,%eax
    3db0:	78 08                	js     3dba <__stdio_done+0xaa>
    3db2:	89 04 24             	mov    %eax,(%esp)
    3db5:	e8 56 f6 00 00       	call   13410 <close>
    3dba:	8b 13                	mov    (%ebx),%edx
    3dbc:	85 d2                	test   %edx,%edx
    3dbe:	74 0e                	je     3dce <__stdio_done+0xbe>
    3dc0:	8b 43 04             	mov    0x4(%ebx),%eax
    3dc3:	85 c0                	test   %eax,%eax
    3dc5:	74 07                	je     3dce <__stdio_done+0xbe>
    3dc7:	89 10                	mov    %edx,(%eax)
    3dc9:	8b 13                	mov    (%ebx),%edx
    3dcb:	89 42 04             	mov    %eax,0x4(%edx)
    3dce:	c7 03 00 00 00 00    	movl   $0x0,(%ebx)
    3dd4:	c7 43 04 00 00 00 00 	movl   $0x0,0x4(%ebx)
    3ddb:	81 fb 00 04 02 00    	cmp    $0x20400,%ebx
    3de1:	0f 84 39 ff ff ff    	je     3d20 <__stdio_done+0x10>
    3de7:	81 fb 40 04 02 00    	cmp    $0x20440,%ebx
    3ded:	0f 84 2d ff ff ff    	je     3d20 <__stdio_done+0x10>
    3df3:	81 fb 80 04 02 00    	cmp    $0x20480,%ebx
    3df9:	0f 84 21 ff ff ff    	je     3d20 <__stdio_done+0x10>
    3dff:	89 1c 24             	mov    %ebx,(%esp)
    3e02:	e8 f9 6d 00 00       	call   ac00 <free>
    3e07:	8b 1d 3c 04 02 00    	mov    0x2043c,%ebx
    3e0d:	81 fb 38 04 02 00    	cmp    $0x20438,%ebx
    3e13:	0f 85 19 ff ff ff    	jne    3d32 <__stdio_done+0x22>
    3e19:	83 c4 2c             	add    $0x2c,%esp
    3e1c:	5b                   	pop    %ebx
    3e1d:	5e                   	pop    %esi
    3e1e:	5f                   	pop    %edi
    3e1f:	5d                   	pop    %ebp
    3e20:	c3                   	ret    
    3e21:	8d b4 26 00 00 00 00 	lea    0x0(%esi,%eiz,1),%esi
    3e28:	e8 c3 21 00 00       	call   5ff0 <klog_update>
    3e2d:	e9 6a ff ff ff       	jmp    3d9c <__stdio_done+0x8c>
    3e32:	8d b6 00 00 00 00    	lea    0x0(%esi),%esi
    3e38:	89 f8                	mov    %edi,%eax
    3e3a:	c7 44 24 0c 01 00 00 	movl   $0x1,0xc(%esp)
    3e41:	00 
    3e42:	f7 d8                	neg    %eax
    3e44:	89 c2                	mov    %eax,%edx
    3e46:	89 44 24 04          	mov    %eax,0x4(%esp)
    3e4a:	c1 fa 1f             	sar    $0x1f,%edx
    3e4d:	89 54 24 08          	mov    %edx,0x8(%esp)
    3e51:	8b 43 08             	mov    0x8(%ebx),%eax
    3e54:	89 04 24             	mov    %eax,(%esp)
    3e57:	e8 64 fc 00 00       	call   13ac0 <lseek>
    3e5c:	8b 43 2c             	mov    0x2c(%ebx),%eax
    3e5f:	48                   	dec    %eax
    3e60:	0f 85 fe fe ff ff    	jne    3d64 <__stdio_done+0x54>
    3e66:	66 90                	xchg   %ax,%ax
    3e68:	8b 53 34             	mov    0x34(%ebx),%edx
    3e6b:	31 f6                	xor    %esi,%esi
    3e6d:	89 55 e4             	mov    %edx,-0x1c(%ebp)
    3e70:	eb 23                	jmp    3e95 <__stdio_done+0x185>
    3e72:	8d b6 00 00 00 00    	lea    0x0(%esi),%esi
    3e78:	8b 45 e4             	mov    -0x1c(%ebp),%eax
    3e7b:	89 7c 24 04          	mov    %edi,0x4(%esp)
    3e7f:	01 f0                	add    %esi,%eax
    3e81:	89 04 24             	mov    %eax,(%esp)
    3e84:	e8 17 21 00 00       	call   5fa0 <klog_write>
    3e89:	85 c0                	test   %eax,%eax
    3e8b:	7e 32                	jle    3ebf <__stdio_done+0x1af>
    3e8d:	29 c7                	sub    %eax,%edi
    3e8f:	01 c6                	add    %eax,%esi
    3e91:	85 ff                	test   %edi,%edi
    3e93:	74 33                	je     3ec8 <__stdio_done+0x1b8>
    3e95:	8b 43 0c             	mov    0xc(%ebx),%eax
    3e98:	85 c0                	test   %eax,%eax
    3e9a:	75 2c                	jne    3ec8 <__stdio_done+0x1b8>
    3e9c:	8b 43 14             	mov    0x14(%ebx),%eax
    3e9f:	85 c0                	test   %eax,%eax
    3ea1:	75 d5                	jne    3e78 <__stdio_done+0x168>
    3ea3:	8b 45 e4             	mov    -0x1c(%ebp),%eax
    3ea6:	89 7c 24 08          	mov    %edi,0x8(%esp)
    3eaa:	01 f0                	add    %esi,%eax
    3eac:	89 44 24 04          	mov    %eax,0x4(%esp)
    3eb0:	8b 43 08             	mov    0x8(%ebx),%eax
    3eb3:	89 04 24             	mov    %eax,(%esp)
    3eb6:	e8 45 f7 00 00       	call   13600 <write>
    3ebb:	85 c0                	test   %eax,%eax
    3ebd:	7f ce                	jg     3e8d <__stdio_done+0x17d>
    3ebf:	c7 43 0c 01 00 00 00 	movl   $0x1,0xc(%ebx)
    3ec6:	eb c9                	jmp    3e91 <__stdio_done+0x181>
    3ec8:	85 f6                	test   %esi,%esi
    3eca:	0f 84 94 fe ff ff    	je     3d64 <__stdio_done+0x54>
    3ed0:	c7 43 1c 01 00 00 00 	movl   $0x1,0x1c(%ebx)
    3ed7:	e9 88 fe ff ff       	jmp    3d64 <__stdio_done+0x54>
    3edc:	8d 74 26 00          	lea    0x0(%esi,%eiz,1),%esi

00003ee0 <setvbuf>:
    3ee0:	55                   	push   %ebp
    3ee1:	89 e5                	mov    %esp,%ebp
    3ee3:	8b 45 08             	mov    0x8(%ebp),%eax
    3ee6:	8b 4d 10             	mov    0x10(%ebp),%ecx
    3ee9:	8b 55 0c             	mov    0xc(%ebp),%edx
    3eec:	89 48 20             	mov    %ecx,0x20(%eax)
    3eef:	8b 4d 14             	mov    0x14(%ebp),%ecx
    3ef2:	89 50 24             	mov    %edx,0x24(%eax)
    3ef5:	89 48 28             	mov    %ecx,0x28(%eax)
    3ef8:	89 50 30             	mov    %edx,0x30(%eax)
    3efb:	89 50 34             	mov    %edx,0x34(%eax)
    3efe:	c7 40 2c 00 00 00 00 	movl   $0x0,0x2c(%eax)
    3f05:	5d                   	pop    %ebp
    3f06:	c3                   	ret    
    3f07:	89 f6                	mov    %esi,%esi
    3f09:	8d bc 27 00 00 00 00 	lea    0x0(%edi,%eiz,1),%edi

00003f10 <fopen>:
    3f10:	55                   	push   %ebp
    3f11:	89 e5                	mov    %esp,%ebp
    3f13:	56                   	push   %esi
    3f14:	53                   	push   %ebx
    3f15:	83 ec 10             	sub    $0x10,%esp
    3f18:	8b 45 0c             	mov    0xc(%ebp),%eax
    3f1b:	8a 08                	mov    (%eax),%cl
    3f1d:	84 c9                	test   %cl,%cl
    3f1f:	0f 84 0b 01 00 00    	je     4030 <fopen+0x120>
    3f25:	8a 50 01             	mov    0x1(%eax),%dl
    3f28:	80 fa 74             	cmp    $0x74,%dl
    3f2b:	0f 85 17 01 00 00    	jne    4048 <fopen+0x138>
    3f31:	8a 50 02             	mov    0x2(%eax),%dl
    3f34:	8d 58 02             	lea    0x2(%eax),%ebx
    3f37:	31 c0                	xor    %eax,%eax
    3f39:	80 fa 2b             	cmp    $0x2b,%dl
    3f3c:	0f 84 1d 01 00 00    	je     405f <fopen+0x14f>
    3f42:	84 d2                	test   %dl,%dl
    3f44:	0f 85 e6 00 00 00    	jne    4030 <fopen+0x120>
    3f4a:	80 f9 72             	cmp    $0x72,%cl
    3f4d:	0f 84 6d 01 00 00    	je     40c0 <fopen+0x1b0>
    3f53:	80 f9 77             	cmp    $0x77,%cl
    3f56:	0f 84 14 01 00 00    	je     4070 <fopen+0x160>
    3f5c:	80 f9 61             	cmp    $0x61,%cl
    3f5f:	0f 85 cb 00 00 00    	jne    4030 <fopen+0x120>
    3f65:	be 49 00 00 00       	mov    $0x49,%esi
    3f6a:	84 c0                	test   %al,%al
    3f6c:	0f 85 5e 01 00 00    	jne    40d0 <fopen+0x1c0>
    3f72:	c7 04 24 38 00 00 00 	movl   $0x38,(%esp)
    3f79:	e8 72 6b 00 00       	call   aaf0 <malloc>
    3f7e:	89 c3                	mov    %eax,%ebx
    3f80:	85 c0                	test   %eax,%eax
    3f82:	0f 84 58 01 00 00    	je     40e0 <fopen+0x1d0>
    3f88:	8b 45 08             	mov    0x8(%ebp),%eax
    3f8b:	c7 44 24 08 b6 01 00 	movl   $0x1b6,0x8(%esp)
    3f92:	00 
    3f93:	89 74 24 04          	mov    %esi,0x4(%esp)
    3f97:	89 04 24             	mov    %eax,(%esp)
    3f9a:	e8 31 f3 00 00       	call   132d0 <open>
    3f9f:	89 43 08             	mov    %eax,0x8(%ebx)
    3fa2:	85 c0                	test   %eax,%eax
    3fa4:	0f 88 46 01 00 00    	js     40f0 <fopen+0x1e0>
    3faa:	c7 43 0c 00 00 00 00 	movl   $0x0,0xc(%ebx)
    3fb1:	c7 43 10 00 00 00 00 	movl   $0x0,0x10(%ebx)
    3fb8:	c7 43 14 00 00 00 00 	movl   $0x0,0x14(%ebx)
    3fbf:	c7 43 18 00 00 00 00 	movl   $0x0,0x18(%ebx)
    3fc6:	c7 43 1c 00 00 00 00 	movl   $0x0,0x1c(%ebx)
    3fcd:	83 f8 01             	cmp    $0x1,%eax
    3fd0:	0f 84 aa 00 00 00    	je     4080 <fopen+0x170>
    3fd6:	83 f8 02             	cmp    $0x2,%eax
    3fd9:	74 08                	je     3fe3 <fopen+0xd3>
    3fdb:	85 c0                	test   %eax,%eax
    3fdd:	0f 85 cd 00 00 00    	jne    40b0 <fopen+0x1a0>
    3fe3:	c7 43 20 00 00 00 00 	movl   $0x0,0x20(%ebx)
    3fea:	c7 43 24 00 00 00 00 	movl   $0x0,0x24(%ebx)
    3ff1:	c7 43 28 00 00 00 00 	movl   $0x0,0x28(%ebx)
    3ff8:	c7 43 30 00 00 00 00 	movl   $0x0,0x30(%ebx)
    3fff:	c7 43 34 00 00 00 00 	movl   $0x0,0x34(%ebx)
    4006:	c7 43 2c 00 00 00 00 	movl   $0x0,0x2c(%ebx)
    400d:	a1 38 04 02 00       	mov    0x20438,%eax
    4012:	c7 43 04 38 04 02 00 	movl   $0x20438,0x4(%ebx)
    4019:	89 03                	mov    %eax,(%ebx)
    401b:	89 1d 38 04 02 00    	mov    %ebx,0x20438
    4021:	89 58 04             	mov    %ebx,0x4(%eax)
    4024:	83 c4 10             	add    $0x10,%esp
    4027:	89 d8                	mov    %ebx,%eax
    4029:	5b                   	pop    %ebx
    402a:	5e                   	pop    %esi
    402b:	5d                   	pop    %ebp
    402c:	c3                   	ret    
    402d:	8d 76 00             	lea    0x0(%esi),%esi
    4030:	e8 6b 1c 01 00       	call   15ca0 <__errno>
    4035:	c7 00 f2 ff ff ff    	movl   $0xfffffff2,(%eax)
    403b:	31 db                	xor    %ebx,%ebx
    403d:	83 c4 10             	add    $0x10,%esp
    4040:	89 d8                	mov    %ebx,%eax
    4042:	5b                   	pop    %ebx
    4043:	5e                   	pop    %esi
    4044:	5d                   	pop    %ebp
    4045:	c3                   	ret    
    4046:	66 90                	xchg   %ax,%ax
    4048:	8d 58 01             	lea    0x1(%eax),%ebx
    404b:	80 fa 62             	cmp    $0x62,%dl
    404e:	0f 84 dd fe ff ff    	je     3f31 <fopen+0x21>
    4054:	31 c0                	xor    %eax,%eax
    4056:	80 fa 2b             	cmp    $0x2b,%dl
    4059:	0f 85 e3 fe ff ff    	jne    3f42 <fopen+0x32>
    405f:	8a 53 01             	mov    0x1(%ebx),%dl
    4062:	b0 01                	mov    $0x1,%al
    4064:	e9 d9 fe ff ff       	jmp    3f42 <fopen+0x32>
    4069:	8d b4 26 00 00 00 00 	lea    0x0(%esi,%eiz,1),%esi
    4070:	3c 01                	cmp    $0x1,%al
    4072:	19 f6                	sbb    %esi,%esi
    4074:	83 e6 20             	and    $0x20,%esi
    4077:	83 c6 25             	add    $0x25,%esi
    407a:	e9 f3 fe ff ff       	jmp    3f72 <fopen+0x62>
    407f:	90                   	nop
    4080:	c7 43 20 01 00 00 00 	movl   $0x1,0x20(%ebx)
    4087:	c7 43 24 00 00 00 00 	movl   $0x0,0x24(%ebx)
    408e:	c7 43 28 00 10 00 00 	movl   $0x1000,0x28(%ebx)
    4095:	c7 43 30 00 00 00 00 	movl   $0x0,0x30(%ebx)
    409c:	c7 43 34 00 00 00 00 	movl   $0x0,0x34(%ebx)
    40a3:	c7 43 2c 00 00 00 00 	movl   $0x0,0x2c(%ebx)
    40aa:	e9 5e ff ff ff       	jmp    400d <fopen+0xfd>
    40af:	90                   	nop
    40b0:	c7 43 20 02 00 00 00 	movl   $0x2,0x20(%ebx)
    40b7:	eb ce                	jmp    4087 <fopen+0x177>
    40b9:	8d b4 26 00 00 00 00 	lea    0x0(%esi,%eiz,1),%esi
    40c0:	3c 01                	cmp    $0x1,%al
    40c2:	19 f6                	sbb    %esi,%esi
    40c4:	83 e6 f0             	and    $0xfffffff0,%esi
    40c7:	83 c6 20             	add    $0x20,%esi
    40ca:	e9 a3 fe ff ff       	jmp    3f72 <fopen+0x62>
    40cf:	90                   	nop
    40d0:	e8 cb 1b 01 00       	call   15ca0 <__errno>
    40d5:	c7 00 f5 ff ff ff    	movl   $0xfffffff5,(%eax)
    40db:	e9 5b ff ff ff       	jmp    403b <fopen+0x12b>
    40e0:	e8 bb 1b 01 00       	call   15ca0 <__errno>
    40e5:	c7 00 fe ff ff ff    	movl   $0xfffffffe,(%eax)
    40eb:	e9 4d ff ff ff       	jmp    403d <fopen+0x12d>
    40f0:	89 1c 24             	mov    %ebx,(%esp)
    40f3:	31 db                	xor    %ebx,%ebx
    40f5:	e8 06 6b 00 00       	call   ac00 <free>
    40fa:	e9 3e ff ff ff       	jmp    403d <fopen+0x12d>
    40ff:	90                   	nop

00004100 <fdopen>:
    4100:	55                   	push   %ebp
    4101:	89 e5                	mov    %esp,%ebp
    4103:	56                   	push   %esi
    4104:	53                   	push   %ebx
    4105:	83 ec 10             	sub    $0x10,%esp
    4108:	8b 75 08             	mov    0x8(%ebp),%esi
    410b:	c7 04 24 38 00 00 00 	movl   $0x38,(%esp)
    4112:	e8 d9 69 00 00       	call   aaf0 <malloc>
    4117:	89 c3                	mov    %eax,%ebx
    4119:	85 c0                	test   %eax,%eax
    411b:	0f 84 c7 00 00 00    	je     41e8 <fdopen+0xe8>
    4121:	89 70 08             	mov    %esi,0x8(%eax)
    4124:	c7 40 0c 00 00 00 00 	movl   $0x0,0xc(%eax)
    412b:	c7 40 10 00 00 00 00 	movl   $0x0,0x10(%eax)
    4132:	c7 40 14 00 00 00 00 	movl   $0x0,0x14(%eax)
    4139:	c7 40 18 00 00 00 00 	movl   $0x0,0x18(%eax)
    4140:	c7 40 1c 00 00 00 00 	movl   $0x0,0x1c(%eax)
    4147:	83 fe 01             	cmp    $0x1,%esi
    414a:	0f 84 88 00 00 00    	je     41d8 <fdopen+0xd8>
    4150:	83 fe 02             	cmp    $0x2,%esi
    4153:	74 04                	je     4159 <fdopen+0x59>
    4155:	85 f6                	test   %esi,%esi
    4157:	75 4f                	jne    41a8 <fdopen+0xa8>
    4159:	c7 43 20 00 00 00 00 	movl   $0x0,0x20(%ebx)
    4160:	c7 43 24 00 00 00 00 	movl   $0x0,0x24(%ebx)
    4167:	c7 43 28 00 00 00 00 	movl   $0x0,0x28(%ebx)
    416e:	c7 43 30 00 00 00 00 	movl   $0x0,0x30(%ebx)
    4175:	c7 43 34 00 00 00 00 	movl   $0x0,0x34(%ebx)
    417c:	c7 43 2c 00 00 00 00 	movl   $0x0,0x2c(%ebx)
    4183:	a1 38 04 02 00       	mov    0x20438,%eax
    4188:	c7 43 04 38 04 02 00 	movl   $0x20438,0x4(%ebx)
    418f:	89 03                	mov    %eax,(%ebx)
    4191:	89 1d 38 04 02 00    	mov    %ebx,0x20438
    4197:	89 58 04             	mov    %ebx,0x4(%eax)
    419a:	83 c4 10             	add    $0x10,%esp
    419d:	89 d8                	mov    %ebx,%eax
    419f:	5b                   	pop    %ebx
    41a0:	5e                   	pop    %esi
    41a1:	5d                   	pop    %ebp
    41a2:	c3                   	ret    
    41a3:	90                   	nop
    41a4:	8d 74 26 00          	lea    0x0(%esi,%eiz,1),%esi
    41a8:	c7 40 20 02 00 00 00 	movl   $0x2,0x20(%eax)
    41af:	c7 43 24 00 00 00 00 	movl   $0x0,0x24(%ebx)
    41b6:	c7 43 28 00 10 00 00 	movl   $0x1000,0x28(%ebx)
    41bd:	c7 43 30 00 00 00 00 	movl   $0x0,0x30(%ebx)
    41c4:	c7 43 34 00 00 00 00 	movl   $0x0,0x34(%ebx)
    41cb:	c7 43 2c 00 00 00 00 	movl   $0x0,0x2c(%ebx)
    41d2:	eb af                	jmp    4183 <fdopen+0x83>
    41d4:	8d 74 26 00          	lea    0x0(%esi,%eiz,1),%esi
    41d8:	c7 40 20 01 00 00 00 	movl   $0x1,0x20(%eax)
    41df:	eb ce                	jmp    41af <fdopen+0xaf>
    41e1:	8d b4 26 00 00 00 00 	lea    0x0(%esi,%eiz,1),%esi
    41e8:	e8 b3 1a 01 00       	call   15ca0 <__errno>
    41ed:	c7 00 fe ff ff ff    	movl   $0xfffffffe,(%eax)
    41f3:	eb a5                	jmp    419a <fdopen+0x9a>
    41f5:	8d 74 26 00          	lea    0x0(%esi,%eiz,1),%esi
    41f9:	8d bc 27 00 00 00 00 	lea    0x0(%edi,%eiz,1),%edi

00004200 <fclose>:
    4200:	55                   	push   %ebp
    4201:	89 e5                	mov    %esp,%ebp
    4203:	57                   	push   %edi
    4204:	56                   	push   %esi
    4205:	53                   	push   %ebx
    4206:	83 ec 2c             	sub    $0x2c,%esp
    4209:	8b 5d 08             	mov    0x8(%ebp),%ebx
    420c:	8b 43 24             	mov    0x24(%ebx),%eax
    420f:	85 c0                	test   %eax,%eax
    4211:	74 3b                	je     424e <fclose+0x4e>
    4213:	8b 4b 20             	mov    0x20(%ebx),%ecx
    4216:	85 c9                	test   %ecx,%ecx
    4218:	74 34                	je     424e <fclose+0x4e>
    421a:	8b 53 0c             	mov    0xc(%ebx),%edx
    421d:	85 d2                	test   %edx,%edx
    421f:	75 2d                	jne    424e <fclose+0x4e>
    4221:	8b 4b 30             	mov    0x30(%ebx),%ecx
    4224:	89 cf                	mov    %ecx,%edi
    4226:	2b 7b 34             	sub    0x34(%ebx),%edi
    4229:	74 16                	je     4241 <fclose+0x41>
    422b:	8b 43 2c             	mov    0x2c(%ebx),%eax
    422e:	83 f8 02             	cmp    $0x2,%eax
    4231:	0f 84 c9 00 00 00    	je     4300 <fclose+0x100>
    4237:	48                   	dec    %eax
    4238:	0f 84 f2 00 00 00    	je     4330 <fclose+0x130>
    423e:	8b 43 24             	mov    0x24(%ebx),%eax
    4241:	89 43 30             	mov    %eax,0x30(%ebx)
    4244:	89 43 34             	mov    %eax,0x34(%ebx)
    4247:	c7 43 2c 00 00 00 00 	movl   $0x0,0x2c(%ebx)
    424e:	8b 7b 14             	mov    0x14(%ebx),%edi
    4251:	85 ff                	test   %edi,%edi
    4253:	0f 85 97 00 00 00    	jne    42f0 <fclose+0xf0>
    4259:	8b 43 08             	mov    0x8(%ebx),%eax
    425c:	85 c0                	test   %eax,%eax
    425e:	78 16                	js     4276 <fclose+0x76>
    4260:	8b 73 1c             	mov    0x1c(%ebx),%esi
    4263:	85 f6                	test   %esi,%esi
    4265:	74 0f                	je     4276 <fclose+0x76>
    4267:	c7 43 1c 00 00 00 00 	movl   $0x0,0x1c(%ebx)
    426e:	89 04 24             	mov    %eax,(%esp)
    4271:	e8 6a f7 00 00       	call   139e0 <fsync>
    4276:	8b 43 18             	mov    0x18(%ebx),%eax
    4279:	85 c0                	test   %eax,%eax
    427b:	74 08                	je     4285 <fclose+0x85>
    427d:	89 04 24             	mov    %eax,(%esp)
    4280:	e8 ab 9c 00 00       	call   df30 <async_hangup>
    4285:	8b 43 08             	mov    0x8(%ebx),%eax
    4288:	31 f6                	xor    %esi,%esi
    428a:	85 c0                	test   %eax,%eax
    428c:	78 0a                	js     4298 <fclose+0x98>
    428e:	89 04 24             	mov    %eax,(%esp)
    4291:	e8 7a f1 00 00       	call   13410 <close>
    4296:	89 c6                	mov    %eax,%esi
    4298:	8b 0b                	mov    (%ebx),%ecx
    429a:	85 c9                	test   %ecx,%ecx
    429c:	74 0e                	je     42ac <fclose+0xac>
    429e:	8b 53 04             	mov    0x4(%ebx),%edx
    42a1:	85 d2                	test   %edx,%edx
    42a3:	74 07                	je     42ac <fclose+0xac>
    42a5:	89 0a                	mov    %ecx,(%edx)
    42a7:	8b 03                	mov    (%ebx),%eax
    42a9:	89 50 04             	mov    %edx,0x4(%eax)
    42ac:	c7 03 00 00 00 00    	movl   $0x0,(%ebx)
    42b2:	c7 43 04 00 00 00 00 	movl   $0x0,0x4(%ebx)
    42b9:	81 fb 00 04 02 00    	cmp    $0x20400,%ebx
    42bf:	74 18                	je     42d9 <fclose+0xd9>
    42c1:	81 fb 40 04 02 00    	cmp    $0x20440,%ebx
    42c7:	74 10                	je     42d9 <fclose+0xd9>
    42c9:	81 fb 80 04 02 00    	cmp    $0x20480,%ebx
    42cf:	74 08                	je     42d9 <fclose+0xd9>
    42d1:	89 1c 24             	mov    %ebx,(%esp)
    42d4:	e8 27 69 00 00       	call   ac00 <free>
    42d9:	83 fe 01             	cmp    $0x1,%esi
    42dc:	19 c0                	sbb    %eax,%eax
    42de:	83 c4 2c             	add    $0x2c,%esp
    42e1:	83 f0 ff             	xor    $0xffffffff,%eax
    42e4:	5b                   	pop    %ebx
    42e5:	5e                   	pop    %esi
    42e6:	5f                   	pop    %edi
    42e7:	5d                   	pop    %ebp
    42e8:	c3                   	ret    
    42e9:	8d b4 26 00 00 00 00 	lea    0x0(%esi,%eiz,1),%esi
    42f0:	e8 fb 1c 00 00       	call   5ff0 <klog_update>
    42f5:	e9 7c ff ff ff       	jmp    4276 <fclose+0x76>
    42fa:	8d b6 00 00 00 00    	lea    0x0(%esi),%esi
    4300:	89 f8                	mov    %edi,%eax
    4302:	c7 44 24 0c 01 00 00 	movl   $0x1,0xc(%esp)
    4309:	00 
    430a:	f7 d8                	neg    %eax
    430c:	89 c2                	mov    %eax,%edx
    430e:	89 44 24 04          	mov    %eax,0x4(%esp)
    4312:	c1 fa 1f             	sar    $0x1f,%edx
    4315:	89 54 24 08          	mov    %edx,0x8(%esp)
    4319:	8b 43 08             	mov    0x8(%ebx),%eax
    431c:	89 04 24             	mov    %eax,(%esp)
    431f:	e8 9c f7 00 00       	call   13ac0 <lseek>
    4324:	8b 43 2c             	mov    0x2c(%ebx),%eax
    4327:	e9 0b ff ff ff       	jmp    4237 <fclose+0x37>
    432c:	8d 74 26 00          	lea    0x0(%esi,%eiz,1),%esi
    4330:	8b 53 34             	mov    0x34(%ebx),%edx
    4333:	31 f6                	xor    %esi,%esi
    4335:	89 55 e4             	mov    %edx,-0x1c(%ebp)
    4338:	eb 23                	jmp    435d <fclose+0x15d>
    433a:	8d b6 00 00 00 00    	lea    0x0(%esi),%esi
    4340:	8b 45 e4             	mov    -0x1c(%ebp),%eax
    4343:	89 7c 24 04          	mov    %edi,0x4(%esp)
    4347:	01 f0                	add    %esi,%eax
    4349:	89 04 24             	mov    %eax,(%esp)
    434c:	e8 4f 1c 00 00       	call   5fa0 <klog_write>
    4351:	85 c0                	test   %eax,%eax
    4353:	7e 33                	jle    4388 <fclose+0x188>
    4355:	29 c7                	sub    %eax,%edi
    4357:	01 c6                	add    %eax,%esi
    4359:	85 ff                	test   %edi,%edi
    435b:	74 3b                	je     4398 <fclose+0x198>
    435d:	8b 43 0c             	mov    0xc(%ebx),%eax
    4360:	85 c0                	test   %eax,%eax
    4362:	75 34                	jne    4398 <fclose+0x198>
    4364:	8b 43 14             	mov    0x14(%ebx),%eax
    4367:	85 c0                	test   %eax,%eax
    4369:	75 d5                	jne    4340 <fclose+0x140>
    436b:	8b 45 e4             	mov    -0x1c(%ebp),%eax
    436e:	89 7c 24 08          	mov    %edi,0x8(%esp)
    4372:	01 f0                	add    %esi,%eax
    4374:	89 44 24 04          	mov    %eax,0x4(%esp)
    4378:	8b 43 08             	mov    0x8(%ebx),%eax
    437b:	89 04 24             	mov    %eax,(%esp)
    437e:	e8 7d f2 00 00       	call   13600 <write>
    4383:	eb cc                	jmp    4351 <fclose+0x151>
    4385:	8d 76 00             	lea    0x0(%esi),%esi
    4388:	c7 43 0c 01 00 00 00 	movl   $0x1,0xc(%ebx)
    438f:	eb c8                	jmp    4359 <fclose+0x159>
    4391:	8d b4 26 00 00 00 00 	lea    0x0(%esi,%eiz,1),%esi
    4398:	85 f6                	test   %esi,%esi
    439a:	0f 84 9e fe ff ff    	je     423e <fclose+0x3e>
    43a0:	c7 43 1c 01 00 00 00 	movl   $0x1,0x1c(%ebx)
    43a7:	e9 92 fe ff ff       	jmp    423e <fclose+0x3e>
    43ac:	8d 74 26 00          	lea    0x0(%esi,%eiz,1),%esi

000043b0 <fread>:
    43b0:	55                   	push   %ebp
    43b1:	89 e5                	mov    %esp,%ebp
    43b3:	57                   	push   %edi
    43b4:	56                   	push   %esi
    43b5:	53                   	push   %ebx
    43b6:	83 ec 2c             	sub    $0x2c,%esp
    43b9:	8b 7d 10             	mov    0x10(%ebp),%edi
    43bc:	8b 5d 14             	mov    0x14(%ebp),%ebx
    43bf:	85 ff                	test   %edi,%edi
    43c1:	0f 84 c9 00 00 00    	je     4490 <fread+0xe0>
    43c7:	8b 45 0c             	mov    0xc(%ebp),%eax
    43ca:	85 c0                	test   %eax,%eax
    43cc:	0f 84 be 00 00 00    	je     4490 <fread+0xe0>
    43d2:	8b 43 20             	mov    0x20(%ebx),%eax
    43d5:	85 c0                	test   %eax,%eax
    43d7:	0f 84 08 01 00 00    	je     44e5 <fread+0x135>
    43dd:	83 7b 2c 01          	cmpl   $0x1,0x2c(%ebx)
    43e1:	8b 53 24             	mov    0x24(%ebx),%edx
    43e4:	0f 84 69 01 00 00    	je     4553 <fread+0x1a3>
    43ea:	85 d2                	test   %edx,%edx
    43ec:	0f 84 b0 01 00 00    	je     45a2 <fread+0x1f2>
    43f2:	8b 43 0c             	mov    0xc(%ebx),%eax
    43f5:	8b 75 0c             	mov    0xc(%ebp),%esi
    43f8:	0f af fe             	imul   %esi,%edi
    43fb:	85 c0                	test   %eax,%eax
    43fd:	0f 85 93 01 00 00    	jne    4596 <fread+0x1e6>
    4403:	8b 4b 10             	mov    0x10(%ebx),%ecx
    4406:	85 c9                	test   %ecx,%ecx
    4408:	0f 85 88 01 00 00    	jne    4596 <fread+0x1e6>
    440e:	85 ff                	test   %edi,%edi
    4410:	0f 84 80 01 00 00    	je     4596 <fread+0x1e6>
    4416:	8b 53 34             	mov    0x34(%ebx),%edx
    4419:	8b 75 08             	mov    0x8(%ebp),%esi
    441c:	c7 45 e4 00 00 00 00 	movl   $0x0,-0x1c(%ebp)
    4423:	90                   	nop
    4424:	8d 74 26 00          	lea    0x0(%esi,%eiz,1),%esi
    4428:	39 53 30             	cmp    %edx,0x30(%ebx)
    442b:	74 72                	je     449f <fread+0xef>
    442d:	8b 43 10             	mov    0x10(%ebx),%eax
    4430:	85 c0                	test   %eax,%eax
    4432:	75 4c                	jne    4480 <fread+0xd0>
    4434:	8b 53 34             	mov    0x34(%ebx),%edx
    4437:	8b 43 30             	mov    0x30(%ebx),%eax
    443a:	29 d0                	sub    %edx,%eax
    443c:	89 f9                	mov    %edi,%ecx
    443e:	39 c7                	cmp    %eax,%edi
    4440:	76 02                	jbe    4444 <fread+0x94>
    4442:	89 c1                	mov    %eax,%ecx
    4444:	85 c9                	test   %ecx,%ecx
    4446:	74 52                	je     449a <fread+0xea>
    4448:	31 c0                	xor    %eax,%eax
    444a:	eb 07                	jmp    4453 <fread+0xa3>
    444c:	8d 74 26 00          	lea    0x0(%esi,%eiz,1),%esi
    4450:	8b 53 34             	mov    0x34(%ebx),%edx
    4453:	8a 14 02             	mov    (%edx,%eax,1),%dl
    4456:	88 14 06             	mov    %dl,(%esi,%eax,1)
    4459:	40                   	inc    %eax
    445a:	39 c8                	cmp    %ecx,%eax
    445c:	75 f2                	jne    4450 <fread+0xa0>
    445e:	8b 53 34             	mov    0x34(%ebx),%edx
    4461:	8b 4b 0c             	mov    0xc(%ebx),%ecx
    4464:	01 c2                	add    %eax,%edx
    4466:	01 c6                	add    %eax,%esi
    4468:	29 c7                	sub    %eax,%edi
    446a:	01 45 e4             	add    %eax,-0x1c(%ebp)
    446d:	89 53 34             	mov    %edx,0x34(%ebx)
    4470:	85 c9                	test   %ecx,%ecx
    4472:	75 0c                	jne    4480 <fread+0xd0>
    4474:	8b 43 10             	mov    0x10(%ebx),%eax
    4477:	85 c0                	test   %eax,%eax
    4479:	75 05                	jne    4480 <fread+0xd0>
    447b:	85 ff                	test   %edi,%edi
    447d:	75 a9                	jne    4428 <fread+0x78>
    447f:	90                   	nop
    4480:	8b 45 e4             	mov    -0x1c(%ebp),%eax
    4483:	31 d2                	xor    %edx,%edx
    4485:	f7 75 0c             	divl   0xc(%ebp)
    4488:	83 c4 2c             	add    $0x2c,%esp
    448b:	5b                   	pop    %ebx
    448c:	5e                   	pop    %esi
    448d:	5f                   	pop    %edi
    448e:	5d                   	pop    %ebp
    448f:	c3                   	ret    
    4490:	31 c0                	xor    %eax,%eax
    4492:	83 c4 2c             	add    $0x2c,%esp
    4495:	5b                   	pop    %ebx
    4496:	5e                   	pop    %esi
    4497:	5f                   	pop    %edi
    4498:	5d                   	pop    %ebp
    4499:	c3                   	ret    
    449a:	89 53 34             	mov    %edx,0x34(%ebx)
    449d:	eb d5                	jmp    4474 <fread+0xc4>
    449f:	8b 43 24             	mov    0x24(%ebx),%eax
    44a2:	8b 53 28             	mov    0x28(%ebx),%edx
    44a5:	89 43 34             	mov    %eax,0x34(%ebx)
    44a8:	89 43 30             	mov    %eax,0x30(%ebx)
    44ab:	89 54 24 08          	mov    %edx,0x8(%esp)
    44af:	89 44 24 04          	mov    %eax,0x4(%esp)
    44b3:	8b 43 08             	mov    0x8(%ebx),%eax
    44b6:	89 04 24             	mov    %eax,(%esp)
    44b9:	e8 32 f0 00 00       	call   134f0 <read>
    44be:	83 f8 00             	cmp    $0x0,%eax
    44c1:	0f 8c c3 00 00 00    	jl     458a <fread+0x1da>
    44c7:	74 6f                	je     4538 <fread+0x188>
    44c9:	8b 53 30             	mov    0x30(%ebx),%edx
    44cc:	c7 43 2c 02 00 00 00 	movl   $0x2,0x2c(%ebx)
    44d3:	01 c2                	add    %eax,%edx
    44d5:	8b 4b 0c             	mov    0xc(%ebx),%ecx
    44d8:	89 53 30             	mov    %edx,0x30(%ebx)
    44db:	85 c9                	test   %ecx,%ecx
    44dd:	0f 84 4a ff ff ff    	je     442d <fread+0x7d>
    44e3:	eb 9b                	jmp    4480 <fread+0xd0>
    44e5:	8b 45 0c             	mov    0xc(%ebp),%eax
    44e8:	31 f6                	xor    %esi,%esi
    44ea:	0f af f8             	imul   %eax,%edi
    44ed:	8d 76 00             	lea    0x0(%esi),%esi
    44f0:	85 ff                	test   %edi,%edi
    44f2:	74 38                	je     452c <fread+0x17c>
    44f4:	8b 43 0c             	mov    0xc(%ebx),%eax
    44f7:	85 c0                	test   %eax,%eax
    44f9:	75 31                	jne    452c <fread+0x17c>
    44fb:	8b 43 10             	mov    0x10(%ebx),%eax
    44fe:	85 c0                	test   %eax,%eax
    4500:	75 2a                	jne    452c <fread+0x17c>
    4502:	8b 45 08             	mov    0x8(%ebp),%eax
    4505:	89 7c 24 08          	mov    %edi,0x8(%esp)
    4509:	01 f0                	add    %esi,%eax
    450b:	89 44 24 04          	mov    %eax,0x4(%esp)
    450f:	8b 43 08             	mov    0x8(%ebx),%eax
    4512:	89 04 24             	mov    %eax,(%esp)
    4515:	e8 d6 ef 00 00       	call   134f0 <read>
    451a:	83 f8 00             	cmp    $0x0,%eax
    451d:	7c 2b                	jl     454a <fread+0x19a>
    451f:	75 23                	jne    4544 <fread+0x194>
    4521:	c7 43 10 01 00 00 00 	movl   $0x1,0x10(%ebx)
    4528:	85 ff                	test   %edi,%edi
    452a:	75 c8                	jne    44f4 <fread+0x144>
    452c:	89 f0                	mov    %esi,%eax
    452e:	31 d2                	xor    %edx,%edx
    4530:	f7 75 0c             	divl   0xc(%ebp)
    4533:	e9 5a ff ff ff       	jmp    4492 <fread+0xe2>
    4538:	c7 43 10 01 00 00 00 	movl   $0x1,0x10(%ebx)
    453f:	8b 4b 0c             	mov    0xc(%ebx),%ecx
    4542:	eb 97                	jmp    44db <fread+0x12b>
    4544:	29 c7                	sub    %eax,%edi
    4546:	01 c6                	add    %eax,%esi
    4548:	eb a6                	jmp    44f0 <fread+0x140>
    454a:	c7 43 0c 01 00 00 00 	movl   $0x1,0xc(%ebx)
    4551:	eb 9d                	jmp    44f0 <fread+0x140>
    4553:	85 d2                	test   %edx,%edx
    4555:	74 4b                	je     45a2 <fread+0x1f2>
    4557:	8b 43 0c             	mov    0xc(%ebx),%eax
    455a:	85 c0                	test   %eax,%eax
    455c:	75 38                	jne    4596 <fread+0x1e6>
    455e:	8b 43 34             	mov    0x34(%ebx),%eax
    4561:	8b 4b 30             	mov    0x30(%ebx),%ecx
    4564:	29 c1                	sub    %eax,%ecx
    4566:	74 10                	je     4578 <fread+0x1c8>
    4568:	ba 01 00 00 00       	mov    $0x1,%edx
    456d:	89 1c 24             	mov    %ebx,(%esp)
    4570:	e8 3b f4 ff ff       	call   39b0 <_fwrite>
    4575:	8b 53 24             	mov    0x24(%ebx),%edx
    4578:	89 53 30             	mov    %edx,0x30(%ebx)
    457b:	89 53 34             	mov    %edx,0x34(%ebx)
    457e:	c7 43 2c 00 00 00 00 	movl   $0x0,0x2c(%ebx)
    4585:	e9 60 fe ff ff       	jmp    43ea <fread+0x3a>
    458a:	c7 43 0c 01 00 00 00 	movl   $0x1,0xc(%ebx)
    4591:	e9 ea fe ff ff       	jmp    4480 <fread+0xd0>
    4596:	c7 45 e4 00 00 00 00 	movl   $0x0,-0x1c(%ebp)
    459d:	e9 de fe ff ff       	jmp    4480 <fread+0xd0>
    45a2:	8b 43 28             	mov    0x28(%ebx),%eax
    45a5:	89 04 24             	mov    %eax,(%esp)
    45a8:	e8 43 65 00 00       	call   aaf0 <malloc>
    45ad:	89 43 24             	mov    %eax,0x24(%ebx)
    45b0:	85 c0                	test   %eax,%eax
    45b2:	74 0b                	je     45bf <fread+0x20f>
    45b4:	89 43 30             	mov    %eax,0x30(%ebx)
    45b7:	89 43 34             	mov    %eax,0x34(%ebx)
    45ba:	e9 33 fe ff ff       	jmp    43f2 <fread+0x42>
    45bf:	e8 dc 16 01 00       	call   15ca0 <__errno>
    45c4:	c7 00 fe ff ff ff    	movl   $0xfffffffe,(%eax)
    45ca:	31 c0                	xor    %eax,%eax
    45cc:	e9 c1 fe ff ff       	jmp    4492 <fread+0xe2>
    45d1:	eb 0d                	jmp    45e0 <fgetc>
    45d3:	90                   	nop
    45d4:	90                   	nop
    45d5:	90                   	nop
    45d6:	90                   	nop
    45d7:	90                   	nop
    45d8:	90                   	nop
    45d9:	90                   	nop
    45da:	90                   	nop
    45db:	90                   	nop
    45dc:	90                   	nop
    45dd:	90                   	nop
    45de:	90                   	nop
    45df:	90                   	nop

000045e0 <fgetc>:
    45e0:	55                   	push   %ebp
    45e1:	89 e5                	mov    %esp,%ebp
    45e3:	57                   	push   %edi
    45e4:	56                   	push   %esi
    45e5:	53                   	push   %ebx
    45e6:	83 ec 3c             	sub    $0x3c,%esp
    45e9:	8b 1d fc 05 02 00    	mov    0x205fc,%ebx
    45ef:	85 db                	test   %ebx,%ebx
    45f1:	74 6a                	je     465d <fgetc+0x7d>
    45f3:	8b 43 24             	mov    0x24(%ebx),%eax
    45f6:	85 c0                	test   %eax,%eax
    45f8:	74 3b                	je     4635 <fgetc+0x55>
    45fa:	8b 4b 20             	mov    0x20(%ebx),%ecx
    45fd:	85 c9                	test   %ecx,%ecx
    45ff:	74 34                	je     4635 <fgetc+0x55>
    4601:	8b 53 0c             	mov    0xc(%ebx),%edx
    4604:	85 d2                	test   %edx,%edx
    4606:	75 2d                	jne    4635 <fgetc+0x55>
    4608:	8b 4b 30             	mov    0x30(%ebx),%ecx
    460b:	89 cf                	mov    %ecx,%edi
    460d:	2b 7b 34             	sub    0x34(%ebx),%edi
    4610:	74 16                	je     4628 <fgetc+0x48>
    4612:	8b 43 2c             	mov    0x2c(%ebx),%eax
    4615:	83 f8 02             	cmp    $0x2,%eax
    4618:	0f 84 eb 01 00 00    	je     4809 <fgetc+0x229>
    461e:	48                   	dec    %eax
    461f:	0f 84 88 01 00 00    	je     47ad <fgetc+0x1cd>
    4625:	8b 43 24             	mov    0x24(%ebx),%eax
    4628:	89 43 30             	mov    %eax,0x30(%ebx)
    462b:	89 43 34             	mov    %eax,0x34(%ebx)
    462e:	c7 43 2c 00 00 00 00 	movl   $0x0,0x2c(%ebx)
    4635:	8b 7b 14             	mov    0x14(%ebx),%edi
    4638:	85 ff                	test   %edi,%edi
    463a:	0f 85 c8 00 00 00    	jne    4708 <fgetc+0x128>
    4640:	8b 43 08             	mov    0x8(%ebx),%eax
    4643:	85 c0                	test   %eax,%eax
    4645:	78 16                	js     465d <fgetc+0x7d>
    4647:	8b 73 1c             	mov    0x1c(%ebx),%esi
    464a:	85 f6                	test   %esi,%esi
    464c:	74 0f                	je     465d <fgetc+0x7d>
    464e:	c7 43 1c 00 00 00 00 	movl   $0x0,0x1c(%ebx)
    4655:	89 04 24             	mov    %eax,(%esp)
    4658:	e8 83 f3 00 00       	call   139e0 <fsync>
    465d:	8b 1d f8 05 02 00    	mov    0x205f8,%ebx
    4663:	85 db                	test   %ebx,%ebx
    4665:	74 66                	je     46cd <fgetc+0xed>
    4667:	8b 43 24             	mov    0x24(%ebx),%eax
    466a:	85 c0                	test   %eax,%eax
    466c:	74 3b                	je     46a9 <fgetc+0xc9>
    466e:	8b 4b 20             	mov    0x20(%ebx),%ecx
    4671:	85 c9                	test   %ecx,%ecx
    4673:	74 34                	je     46a9 <fgetc+0xc9>
    4675:	8b 53 0c             	mov    0xc(%ebx),%edx
    4678:	85 d2                	test   %edx,%edx
    467a:	75 2d                	jne    46a9 <fgetc+0xc9>
    467c:	8b 4b 30             	mov    0x30(%ebx),%ecx
    467f:	89 cf                	mov    %ecx,%edi
    4681:	2b 7b 34             	sub    0x34(%ebx),%edi
    4684:	74 16                	je     469c <fgetc+0xbc>
    4686:	8b 43 2c             	mov    0x2c(%ebx),%eax
    4689:	83 f8 02             	cmp    $0x2,%eax
    468c:	0f 84 ef 00 00 00    	je     4781 <fgetc+0x1a1>
    4692:	48                   	dec    %eax
    4693:	0f 84 84 00 00 00    	je     471d <fgetc+0x13d>
    4699:	8b 43 24             	mov    0x24(%ebx),%eax
    469c:	89 43 30             	mov    %eax,0x30(%ebx)
    469f:	89 43 34             	mov    %eax,0x34(%ebx)
    46a2:	c7 43 2c 00 00 00 00 	movl   $0x0,0x2c(%ebx)
    46a9:	8b 4b 14             	mov    0x14(%ebx),%ecx
    46ac:	85 c9                	test   %ecx,%ecx
    46ae:	75 50                	jne    4700 <fgetc+0x120>
    46b0:	8b 43 08             	mov    0x8(%ebx),%eax
    46b3:	85 c0                	test   %eax,%eax
    46b5:	78 16                	js     46cd <fgetc+0xed>
    46b7:	8b 53 1c             	mov    0x1c(%ebx),%edx
    46ba:	85 d2                	test   %edx,%edx
    46bc:	74 0f                	je     46cd <fgetc+0xed>
    46be:	c7 43 1c 00 00 00 00 	movl   $0x0,0x1c(%ebx)
    46c5:	89 04 24             	mov    %eax,(%esp)
    46c8:	e8 13 f3 00 00       	call   139e0 <fsync>
    46cd:	8b 45 08             	mov    0x8(%ebp),%eax
    46d0:	c7 44 24 08 01 00 00 	movl   $0x1,0x8(%esp)
    46d7:	00 
    46d8:	89 44 24 0c          	mov    %eax,0xc(%esp)
    46dc:	8d 45 e4             	lea    -0x1c(%ebp),%eax
    46df:	c7 44 24 04 01 00 00 	movl   $0x1,0x4(%esp)
    46e6:	00 
    46e7:	89 04 24             	mov    %eax,(%esp)
    46ea:	e8 c1 fc ff ff       	call   43b0 <fread>
    46ef:	85 c0                	test   %eax,%eax
    46f1:	74 25                	je     4718 <fgetc+0x138>
    46f3:	0f be 45 e4          	movsbl -0x1c(%ebp),%eax
    46f7:	83 c4 3c             	add    $0x3c,%esp
    46fa:	5b                   	pop    %ebx
    46fb:	5e                   	pop    %esi
    46fc:	5f                   	pop    %edi
    46fd:	5d                   	pop    %ebp
    46fe:	c3                   	ret    
    46ff:	90                   	nop
    4700:	e8 eb 18 00 00       	call   5ff0 <klog_update>
    4705:	eb c6                	jmp    46cd <fgetc+0xed>
    4707:	90                   	nop
    4708:	e8 e3 18 00 00       	call   5ff0 <klog_update>
    470d:	e9 4b ff ff ff       	jmp    465d <fgetc+0x7d>
    4712:	8d b6 00 00 00 00    	lea    0x0(%esi),%esi
    4718:	83 c8 ff             	or     $0xffffffff,%eax
    471b:	eb da                	jmp    46f7 <fgetc+0x117>
    471d:	8b 53 34             	mov    0x34(%ebx),%edx
    4720:	31 f6                	xor    %esi,%esi
    4722:	89 55 d4             	mov    %edx,-0x2c(%ebp)
    4725:	eb 22                	jmp    4749 <fgetc+0x169>
    4727:	90                   	nop
    4728:	8b 45 d4             	mov    -0x2c(%ebp),%eax
    472b:	89 7c 24 04          	mov    %edi,0x4(%esp)
    472f:	01 f0                	add    %esi,%eax
    4731:	89 04 24             	mov    %eax,(%esp)
    4734:	e8 67 18 00 00       	call   5fa0 <klog_write>
    4739:	85 c0                	test   %eax,%eax
    473b:	7e 3b                	jle    4778 <fgetc+0x198>
    473d:	29 c7                	sub    %eax,%edi
    473f:	01 c6                	add    %eax,%esi
    4741:	85 ff                	test   %edi,%edi
    4743:	0f 84 00 01 00 00    	je     4849 <fgetc+0x269>
    4749:	8b 43 0c             	mov    0xc(%ebx),%eax
    474c:	85 c0                	test   %eax,%eax
    474e:	0f 85 f5 00 00 00    	jne    4849 <fgetc+0x269>
    4754:	8b 43 14             	mov    0x14(%ebx),%eax
    4757:	85 c0                	test   %eax,%eax
    4759:	75 cd                	jne    4728 <fgetc+0x148>
    475b:	8b 45 d4             	mov    -0x2c(%ebp),%eax
    475e:	89 7c 24 08          	mov    %edi,0x8(%esp)
    4762:	01 f0                	add    %esi,%eax
    4764:	89 44 24 04          	mov    %eax,0x4(%esp)
    4768:	8b 43 08             	mov    0x8(%ebx),%eax
    476b:	89 04 24             	mov    %eax,(%esp)
    476e:	e8 8d ee 00 00       	call   13600 <write>
    4773:	eb c4                	jmp    4739 <fgetc+0x159>
    4775:	8d 76 00             	lea    0x0(%esi),%esi
    4778:	c7 43 0c 01 00 00 00 	movl   $0x1,0xc(%ebx)
    477f:	eb c0                	jmp    4741 <fgetc+0x161>
    4781:	89 f8                	mov    %edi,%eax
    4783:	c7 44 24 0c 01 00 00 	movl   $0x1,0xc(%esp)
    478a:	00 
    478b:	f7 d8                	neg    %eax
    478d:	89 c2                	mov    %eax,%edx
    478f:	89 44 24 04          	mov    %eax,0x4(%esp)
    4793:	c1 fa 1f             	sar    $0x1f,%edx
    4796:	89 54 24 08          	mov    %edx,0x8(%esp)
    479a:	8b 43 08             	mov    0x8(%ebx),%eax
    479d:	89 04 24             	mov    %eax,(%esp)
    47a0:	e8 1b f3 00 00       	call   13ac0 <lseek>
    47a5:	8b 43 2c             	mov    0x2c(%ebx),%eax
    47a8:	e9 e5 fe ff ff       	jmp    4692 <fgetc+0xb2>
    47ad:	8b 53 34             	mov    0x34(%ebx),%edx
    47b0:	31 f6                	xor    %esi,%esi
    47b2:	89 55 d4             	mov    %edx,-0x2c(%ebp)
    47b5:	eb 1e                	jmp    47d5 <fgetc+0x1f5>
    47b7:	90                   	nop
    47b8:	8b 45 d4             	mov    -0x2c(%ebp),%eax
    47bb:	89 7c 24 04          	mov    %edi,0x4(%esp)
    47bf:	01 f0                	add    %esi,%eax
    47c1:	89 04 24             	mov    %eax,(%esp)
    47c4:	e8 d7 17 00 00       	call   5fa0 <klog_write>
    47c9:	85 c0                	test   %eax,%eax
    47cb:	7e 33                	jle    4800 <fgetc+0x220>
    47cd:	29 c7                	sub    %eax,%edi
    47cf:	01 c6                	add    %eax,%esi
    47d1:	85 ff                	test   %edi,%edi
    47d3:	74 60                	je     4835 <fgetc+0x255>
    47d5:	8b 43 0c             	mov    0xc(%ebx),%eax
    47d8:	85 c0                	test   %eax,%eax
    47da:	75 59                	jne    4835 <fgetc+0x255>
    47dc:	8b 43 14             	mov    0x14(%ebx),%eax
    47df:	85 c0                	test   %eax,%eax
    47e1:	75 d5                	jne    47b8 <fgetc+0x1d8>
    47e3:	8b 45 d4             	mov    -0x2c(%ebp),%eax
    47e6:	89 7c 24 08          	mov    %edi,0x8(%esp)
    47ea:	01 f0                	add    %esi,%eax
    47ec:	89 44 24 04          	mov    %eax,0x4(%esp)
    47f0:	8b 43 08             	mov    0x8(%ebx),%eax
    47f3:	89 04 24             	mov    %eax,(%esp)
    47f6:	e8 05 ee 00 00       	call   13600 <write>
    47fb:	eb cc                	jmp    47c9 <fgetc+0x1e9>
    47fd:	8d 76 00             	lea    0x0(%esi),%esi
    4800:	c7 43 0c 01 00 00 00 	movl   $0x1,0xc(%ebx)
    4807:	eb c8                	jmp    47d1 <fgetc+0x1f1>
    4809:	89 f8                	mov    %edi,%eax
    480b:	c7 44 24 0c 01 00 00 	movl   $0x1,0xc(%esp)
    4812:	00 
    4813:	f7 d8                	neg    %eax
    4815:	89 c2                	mov    %eax,%edx
    4817:	89 44 24 04          	mov    %eax,0x4(%esp)
    481b:	c1 fa 1f             	sar    $0x1f,%edx
    481e:	89 54 24 08          	mov    %edx,0x8(%esp)
    4822:	8b 43 08             	mov    0x8(%ebx),%eax
    4825:	89 04 24             	mov    %eax,(%esp)
    4828:	e8 93 f2 00 00       	call   13ac0 <lseek>
    482d:	8b 43 2c             	mov    0x2c(%ebx),%eax
    4830:	e9 e9 fd ff ff       	jmp    461e <fgetc+0x3e>
    4835:	85 f6                	test   %esi,%esi
    4837:	0f 84 e8 fd ff ff    	je     4625 <fgetc+0x45>
    483d:	c7 43 1c 01 00 00 00 	movl   $0x1,0x1c(%ebx)
    4844:	e9 dc fd ff ff       	jmp    4625 <fgetc+0x45>
    4849:	85 f6                	test   %esi,%esi
    484b:	0f 84 48 fe ff ff    	je     4699 <fgetc+0xb9>
    4851:	c7 43 1c 01 00 00 00 	movl   $0x1,0x1c(%ebx)
    4858:	e9 3c fe ff ff       	jmp    4699 <fgetc+0xb9>
    485d:	8d 76 00             	lea    0x0(%esi),%esi

00004860 <fgets>:
    4860:	55                   	push   %ebp
    4861:	89 e5                	mov    %esp,%ebp
    4863:	57                   	push   %edi
    4864:	56                   	push   %esi
    4865:	53                   	push   %ebx
    4866:	83 ec 4c             	sub    $0x4c,%esp
    4869:	31 f6                	xor    %esi,%esi
    486b:	8b 45 0c             	mov    0xc(%ebp),%eax
    486e:	8d 7d e4             	lea    -0x1c(%ebp),%edi
    4871:	48                   	dec    %eax
    4872:	89 45 d4             	mov    %eax,-0x2c(%ebp)
    4875:	e9 cf 00 00 00       	jmp    4949 <fgets+0xe9>
    487a:	8d b6 00 00 00 00    	lea    0x0(%esi),%esi
    4880:	8b 43 08             	mov    0x8(%ebx),%eax
    4883:	85 c0                	test   %eax,%eax
    4885:	78 16                	js     489d <fgets+0x3d>
    4887:	8b 53 1c             	mov    0x1c(%ebx),%edx
    488a:	85 d2                	test   %edx,%edx
    488c:	74 0f                	je     489d <fgets+0x3d>
    488e:	c7 43 1c 00 00 00 00 	movl   $0x0,0x1c(%ebx)
    4895:	89 04 24             	mov    %eax,(%esp)
    4898:	e8 43 f1 00 00       	call   139e0 <fsync>
    489d:	8b 1d f8 05 02 00    	mov    0x205f8,%ebx
    48a3:	85 db                	test   %ebx,%ebx
    48a5:	74 68                	je     490f <fgets+0xaf>
    48a7:	8b 43 24             	mov    0x24(%ebx),%eax
    48aa:	85 c0                	test   %eax,%eax
    48ac:	74 39                	je     48e7 <fgets+0x87>
    48ae:	8b 4b 20             	mov    0x20(%ebx),%ecx
    48b1:	85 c9                	test   %ecx,%ecx
    48b3:	74 32                	je     48e7 <fgets+0x87>
    48b5:	8b 53 0c             	mov    0xc(%ebx),%edx
    48b8:	85 d2                	test   %edx,%edx
    48ba:	75 2b                	jne    48e7 <fgets+0x87>
    48bc:	8b 4b 30             	mov    0x30(%ebx),%ecx
    48bf:	2b 4b 34             	sub    0x34(%ebx),%ecx
    48c2:	74 16                	je     48da <fgets+0x7a>
    48c4:	8b 43 2c             	mov    0x2c(%ebx),%eax
    48c7:	83 f8 02             	cmp    $0x2,%eax
    48ca:	0f 84 e0 01 00 00    	je     4ab0 <fgets+0x250>
    48d0:	48                   	dec    %eax
    48d1:	0f 84 11 02 00 00    	je     4ae8 <fgets+0x288>
    48d7:	8b 43 24             	mov    0x24(%ebx),%eax
    48da:	89 43 30             	mov    %eax,0x30(%ebx)
    48dd:	89 43 34             	mov    %eax,0x34(%ebx)
    48e0:	c7 43 2c 00 00 00 00 	movl   $0x0,0x2c(%ebx)
    48e7:	8b 4b 14             	mov    0x14(%ebx),%ecx
    48ea:	85 c9                	test   %ecx,%ecx
    48ec:	0f 85 de 00 00 00    	jne    49d0 <fgets+0x170>
    48f2:	8b 43 08             	mov    0x8(%ebx),%eax
    48f5:	85 c0                	test   %eax,%eax
    48f7:	78 16                	js     490f <fgets+0xaf>
    48f9:	8b 53 1c             	mov    0x1c(%ebx),%edx
    48fc:	85 d2                	test   %edx,%edx
    48fe:	74 0f                	je     490f <fgets+0xaf>
    4900:	c7 43 1c 00 00 00 00 	movl   $0x0,0x1c(%ebx)
    4907:	89 04 24             	mov    %eax,(%esp)
    490a:	e8 d1 f0 00 00       	call   139e0 <fsync>
    490f:	8b 4d 10             	mov    0x10(%ebp),%ecx
    4912:	c7 44 24 08 01 00 00 	movl   $0x1,0x8(%esp)
    4919:	00 
    491a:	89 4c 24 0c          	mov    %ecx,0xc(%esp)
    491e:	c7 44 24 04 01 00 00 	movl   $0x1,0x4(%esp)
    4925:	00 
    4926:	89 3c 24             	mov    %edi,(%esp)
    4929:	e8 82 fa ff ff       	call   43b0 <fread>
    492e:	85 c0                	test   %eax,%eax
    4930:	74 7e                	je     49b0 <fgets+0x150>
    4932:	8a 45 e4             	mov    -0x1c(%ebp),%al
    4935:	0f be d0             	movsbl %al,%edx
    4938:	83 fa ff             	cmp    $0xffffffff,%edx
    493b:	74 73                	je     49b0 <fgets+0x150>
    493d:	8b 4d 08             	mov    0x8(%ebp),%ecx
    4940:	88 04 31             	mov    %al,(%ecx,%esi,1)
    4943:	46                   	inc    %esi
    4944:	83 fa 0a             	cmp    $0xa,%edx
    4947:	74 67                	je     49b0 <fgets+0x150>
    4949:	3b 75 d4             	cmp    -0x2c(%ebp),%esi
    494c:	7d 62                	jge    49b0 <fgets+0x150>
    494e:	8b 1d fc 05 02 00    	mov    0x205fc,%ebx
    4954:	85 db                	test   %ebx,%ebx
    4956:	0f 84 41 ff ff ff    	je     489d <fgets+0x3d>
    495c:	8b 43 24             	mov    0x24(%ebx),%eax
    495f:	85 c0                	test   %eax,%eax
    4961:	74 35                	je     4998 <fgets+0x138>
    4963:	8b 4b 20             	mov    0x20(%ebx),%ecx
    4966:	85 c9                	test   %ecx,%ecx
    4968:	74 2e                	je     4998 <fgets+0x138>
    496a:	8b 53 0c             	mov    0xc(%ebx),%edx
    496d:	85 d2                	test   %edx,%edx
    496f:	75 27                	jne    4998 <fgets+0x138>
    4971:	8b 4b 30             	mov    0x30(%ebx),%ecx
    4974:	2b 4b 34             	sub    0x34(%ebx),%ecx
    4977:	74 12                	je     498b <fgets+0x12b>
    4979:	8b 43 2c             	mov    0x2c(%ebx),%eax
    497c:	83 f8 02             	cmp    $0x2,%eax
    497f:	74 77                	je     49f8 <fgets+0x198>
    4981:	48                   	dec    %eax
    4982:	0f 84 a8 00 00 00    	je     4a30 <fgets+0x1d0>
    4988:	8b 43 24             	mov    0x24(%ebx),%eax
    498b:	89 43 30             	mov    %eax,0x30(%ebx)
    498e:	89 43 34             	mov    %eax,0x34(%ebx)
    4991:	c7 43 2c 00 00 00 00 	movl   $0x0,0x2c(%ebx)
    4998:	8b 4b 14             	mov    0x14(%ebx),%ecx
    499b:	85 c9                	test   %ecx,%ecx
    499d:	0f 84 dd fe ff ff    	je     4880 <fgets+0x20>
    49a3:	e8 48 16 00 00       	call   5ff0 <klog_update>
    49a8:	e9 f0 fe ff ff       	jmp    489d <fgets+0x3d>
    49ad:	8d 76 00             	lea    0x0(%esi),%esi
    49b0:	8b 4d 10             	mov    0x10(%ebp),%ecx
    49b3:	8b 59 0c             	mov    0xc(%ecx),%ebx
    49b6:	85 db                	test   %ebx,%ebx
    49b8:	75 26                	jne    49e0 <fgets+0x180>
    49ba:	85 f6                	test   %esi,%esi
    49bc:	74 22                	je     49e0 <fgets+0x180>
    49be:	8b 45 08             	mov    0x8(%ebp),%eax
    49c1:	c6 04 30 00          	movb   $0x0,(%eax,%esi,1)
    49c5:	83 c4 4c             	add    $0x4c,%esp
    49c8:	5b                   	pop    %ebx
    49c9:	5e                   	pop    %esi
    49ca:	5f                   	pop    %edi
    49cb:	5d                   	pop    %ebp
    49cc:	c3                   	ret    
    49cd:	8d 76 00             	lea    0x0(%esi),%esi
    49d0:	e8 1b 16 00 00       	call   5ff0 <klog_update>
    49d5:	e9 35 ff ff ff       	jmp    490f <fgets+0xaf>
    49da:	8d b6 00 00 00 00    	lea    0x0(%esi),%esi
    49e0:	c7 45 08 00 00 00 00 	movl   $0x0,0x8(%ebp)
    49e7:	8b 45 08             	mov    0x8(%ebp),%eax
    49ea:	83 c4 4c             	add    $0x4c,%esp
    49ed:	5b                   	pop    %ebx
    49ee:	5e                   	pop    %esi
    49ef:	5f                   	pop    %edi
    49f0:	5d                   	pop    %ebp
    49f1:	c3                   	ret    
    49f2:	8d b6 00 00 00 00    	lea    0x0(%esi),%esi
    49f8:	89 c8                	mov    %ecx,%eax
    49fa:	c7 44 24 0c 01 00 00 	movl   $0x1,0xc(%esp)
    4a01:	00 
    4a02:	f7 d8                	neg    %eax
    4a04:	89 c2                	mov    %eax,%edx
    4a06:	89 44 24 04          	mov    %eax,0x4(%esp)
    4a0a:	c1 fa 1f             	sar    $0x1f,%edx
    4a0d:	89 54 24 08          	mov    %edx,0x8(%esp)
    4a11:	8b 43 08             	mov    0x8(%ebx),%eax
    4a14:	89 4d c4             	mov    %ecx,-0x3c(%ebp)
    4a17:	89 04 24             	mov    %eax,(%esp)
    4a1a:	e8 a1 f0 00 00       	call   13ac0 <lseek>
    4a1f:	8b 43 2c             	mov    0x2c(%ebx),%eax
    4a22:	8b 4d c4             	mov    -0x3c(%ebp),%ecx
    4a25:	e9 57 ff ff ff       	jmp    4981 <fgets+0x121>
    4a2a:	8d b6 00 00 00 00    	lea    0x0(%esi),%esi
    4a30:	8b 53 34             	mov    0x34(%ebx),%edx
    4a33:	89 75 c8             	mov    %esi,-0x38(%ebp)
    4a36:	89 55 cc             	mov    %edx,-0x34(%ebp)
    4a39:	c7 45 d0 00 00 00 00 	movl   $0x0,-0x30(%ebp)
    4a40:	89 ce                	mov    %ecx,%esi
    4a42:	eb 2e                	jmp    4a72 <fgets+0x212>
    4a44:	8d 74 26 00          	lea    0x0(%esi,%eiz,1),%esi
    4a48:	8b 45 cc             	mov    -0x34(%ebp),%eax
    4a4b:	8b 55 d0             	mov    -0x30(%ebp),%edx
    4a4e:	01 d0                	add    %edx,%eax
    4a50:	89 74 24 04          	mov    %esi,0x4(%esp)
    4a54:	89 04 24             	mov    %eax,(%esp)
    4a57:	e8 44 15 00 00       	call   5fa0 <klog_write>
    4a5c:	85 c0                	test   %eax,%eax
    4a5e:	7e 43                	jle    4aa3 <fgets+0x243>
    4a60:	8b 55 d0             	mov    -0x30(%ebp),%edx
    4a63:	29 c6                	sub    %eax,%esi
    4a65:	01 c2                	add    %eax,%edx
    4a67:	89 55 d0             	mov    %edx,-0x30(%ebp)
    4a6a:	85 f6                	test   %esi,%esi
    4a6c:	0f 84 04 01 00 00    	je     4b76 <fgets+0x316>
    4a72:	8b 43 0c             	mov    0xc(%ebx),%eax
    4a75:	85 c0                	test   %eax,%eax
    4a77:	0f 85 f9 00 00 00    	jne    4b76 <fgets+0x316>
    4a7d:	8b 4b 14             	mov    0x14(%ebx),%ecx
    4a80:	85 c9                	test   %ecx,%ecx
    4a82:	75 c4                	jne    4a48 <fgets+0x1e8>
    4a84:	8b 45 cc             	mov    -0x34(%ebp),%eax
    4a87:	8b 4d d0             	mov    -0x30(%ebp),%ecx
    4a8a:	01 c8                	add    %ecx,%eax
    4a8c:	89 74 24 08          	mov    %esi,0x8(%esp)
    4a90:	89 44 24 04          	mov    %eax,0x4(%esp)
    4a94:	8b 43 08             	mov    0x8(%ebx),%eax
    4a97:	89 04 24             	mov    %eax,(%esp)
    4a9a:	e8 61 eb 00 00       	call   13600 <write>
    4a9f:	85 c0                	test   %eax,%eax
    4aa1:	7f bd                	jg     4a60 <fgets+0x200>
    4aa3:	c7 43 0c 01 00 00 00 	movl   $0x1,0xc(%ebx)
    4aaa:	eb be                	jmp    4a6a <fgets+0x20a>
    4aac:	8d 74 26 00          	lea    0x0(%esi,%eiz,1),%esi
    4ab0:	89 c8                	mov    %ecx,%eax
    4ab2:	c7 44 24 0c 01 00 00 	movl   $0x1,0xc(%esp)
    4ab9:	00 
    4aba:	f7 d8                	neg    %eax
    4abc:	89 c2                	mov    %eax,%edx
    4abe:	89 44 24 04          	mov    %eax,0x4(%esp)
    4ac2:	c1 fa 1f             	sar    $0x1f,%edx
    4ac5:	89 54 24 08          	mov    %edx,0x8(%esp)
    4ac9:	8b 43 08             	mov    0x8(%ebx),%eax
    4acc:	89 4d c4             	mov    %ecx,-0x3c(%ebp)
    4acf:	89 04 24             	mov    %eax,(%esp)
    4ad2:	e8 e9 ef 00 00       	call   13ac0 <lseek>
    4ad7:	8b 43 2c             	mov    0x2c(%ebx),%eax
    4ada:	8b 4d c4             	mov    -0x3c(%ebp),%ecx
    4add:	e9 ee fd ff ff       	jmp    48d0 <fgets+0x70>
    4ae2:	8d b6 00 00 00 00    	lea    0x0(%esi),%esi
    4ae8:	8b 53 34             	mov    0x34(%ebx),%edx
    4aeb:	89 75 c8             	mov    %esi,-0x38(%ebp)
    4aee:	89 55 cc             	mov    %edx,-0x34(%ebp)
    4af1:	c7 45 d0 00 00 00 00 	movl   $0x0,-0x30(%ebp)
    4af8:	89 ce                	mov    %ecx,%esi
    4afa:	eb 2a                	jmp    4b26 <fgets+0x2c6>
    4afc:	8d 74 26 00          	lea    0x0(%esi,%eiz,1),%esi
    4b00:	8b 45 cc             	mov    -0x34(%ebp),%eax
    4b03:	8b 55 d0             	mov    -0x30(%ebp),%edx
    4b06:	01 d0                	add    %edx,%eax
    4b08:	89 74 24 04          	mov    %esi,0x4(%esp)
    4b0c:	89 04 24             	mov    %eax,(%esp)
    4b0f:	e8 8c 14 00 00       	call   5fa0 <klog_write>
    4b14:	85 c0                	test   %eax,%eax
    4b16:	7e 3b                	jle    4b53 <fgets+0x2f3>
    4b18:	8b 55 d0             	mov    -0x30(%ebp),%edx
    4b1b:	29 c6                	sub    %eax,%esi
    4b1d:	01 c2                	add    %eax,%edx
    4b1f:	89 55 d0             	mov    %edx,-0x30(%ebp)
    4b22:	85 f6                	test   %esi,%esi
    4b24:	74 36                	je     4b5c <fgets+0x2fc>
    4b26:	8b 43 0c             	mov    0xc(%ebx),%eax
    4b29:	85 c0                	test   %eax,%eax
    4b2b:	75 2f                	jne    4b5c <fgets+0x2fc>
    4b2d:	8b 4b 14             	mov    0x14(%ebx),%ecx
    4b30:	85 c9                	test   %ecx,%ecx
    4b32:	75 cc                	jne    4b00 <fgets+0x2a0>
    4b34:	8b 45 cc             	mov    -0x34(%ebp),%eax
    4b37:	8b 4d d0             	mov    -0x30(%ebp),%ecx
    4b3a:	01 c8                	add    %ecx,%eax
    4b3c:	89 74 24 08          	mov    %esi,0x8(%esp)
    4b40:	89 44 24 04          	mov    %eax,0x4(%esp)
    4b44:	8b 43 08             	mov    0x8(%ebx),%eax
    4b47:	89 04 24             	mov    %eax,(%esp)
    4b4a:	e8 b1 ea 00 00       	call   13600 <write>
    4b4f:	85 c0                	test   %eax,%eax
    4b51:	7f c5                	jg     4b18 <fgets+0x2b8>
    4b53:	c7 43 0c 01 00 00 00 	movl   $0x1,0xc(%ebx)
    4b5a:	eb c6                	jmp    4b22 <fgets+0x2c2>
    4b5c:	8b 45 d0             	mov    -0x30(%ebp),%eax
    4b5f:	8b 75 c8             	mov    -0x38(%ebp),%esi
    4b62:	85 c0                	test   %eax,%eax
    4b64:	0f 84 6d fd ff ff    	je     48d7 <fgets+0x77>
    4b6a:	c7 43 1c 01 00 00 00 	movl   $0x1,0x1c(%ebx)
    4b71:	e9 61 fd ff ff       	jmp    48d7 <fgets+0x77>
    4b76:	8b 45 d0             	mov    -0x30(%ebp),%eax
    4b79:	8b 75 c8             	mov    -0x38(%ebp),%esi
    4b7c:	85 c0                	test   %eax,%eax
    4b7e:	0f 84 04 fe ff ff    	je     4988 <fgets+0x128>
    4b84:	c7 43 1c 01 00 00 00 	movl   $0x1,0x1c(%ebx)
    4b8b:	e9 f8 fd ff ff       	jmp    4988 <fgets+0x128>

00004b90 <getchar>:
    4b90:	55                   	push   %ebp
    4b91:	89 e5                	mov    %esp,%ebp
    4b93:	57                   	push   %edi
    4b94:	56                   	push   %esi
    4b95:	53                   	push   %ebx
    4b96:	83 ec 3c             	sub    $0x3c,%esp
    4b99:	8b 1d fc 05 02 00    	mov    0x205fc,%ebx
    4b9f:	8b 35 00 06 02 00    	mov    0x20600,%esi
    4ba5:	85 db                	test   %ebx,%ebx
    4ba7:	74 6a                	je     4c13 <getchar+0x83>
    4ba9:	8b 43 24             	mov    0x24(%ebx),%eax
    4bac:	85 c0                	test   %eax,%eax
    4bae:	74 3b                	je     4beb <getchar+0x5b>
    4bb0:	8b 53 20             	mov    0x20(%ebx),%edx
    4bb3:	85 d2                	test   %edx,%edx
    4bb5:	74 34                	je     4beb <getchar+0x5b>
    4bb7:	8b 7b 0c             	mov    0xc(%ebx),%edi
    4bba:	85 ff                	test   %edi,%edi
    4bbc:	75 2d                	jne    4beb <getchar+0x5b>
    4bbe:	8b 4b 30             	mov    0x30(%ebx),%ecx
    4bc1:	89 cf                	mov    %ecx,%edi
    4bc3:	2b 7b 34             	sub    0x34(%ebx),%edi
    4bc6:	74 16                	je     4bde <getchar+0x4e>
    4bc8:	8b 43 2c             	mov    0x2c(%ebx),%eax
    4bcb:	83 f8 02             	cmp    $0x2,%eax
    4bce:	0f 84 1d 02 00 00    	je     4df1 <getchar+0x261>
    4bd4:	48                   	dec    %eax
    4bd5:	0f 84 a2 01 00 00    	je     4d7d <getchar+0x1ed>
    4bdb:	8b 43 24             	mov    0x24(%ebx),%eax
    4bde:	89 43 30             	mov    %eax,0x30(%ebx)
    4be1:	89 43 34             	mov    %eax,0x34(%ebx)
    4be4:	c7 43 2c 00 00 00 00 	movl   $0x0,0x2c(%ebx)
    4beb:	8b 7b 14             	mov    0x14(%ebx),%edi
    4bee:	85 ff                	test   %edi,%edi
    4bf0:	0f 85 ca 00 00 00    	jne    4cc0 <getchar+0x130>
    4bf6:	8b 43 08             	mov    0x8(%ebx),%eax
    4bf9:	85 c0                	test   %eax,%eax
    4bfb:	78 16                	js     4c13 <getchar+0x83>
    4bfd:	8b 4b 1c             	mov    0x1c(%ebx),%ecx
    4c00:	85 c9                	test   %ecx,%ecx
    4c02:	74 0f                	je     4c13 <getchar+0x83>
    4c04:	c7 43 1c 00 00 00 00 	movl   $0x0,0x1c(%ebx)
    4c0b:	89 04 24             	mov    %eax,(%esp)
    4c0e:	e8 cd ed 00 00       	call   139e0 <fsync>
    4c13:	8b 1d f8 05 02 00    	mov    0x205f8,%ebx
    4c19:	85 db                	test   %ebx,%ebx
    4c1b:	74 66                	je     4c83 <getchar+0xf3>
    4c1d:	8b 43 24             	mov    0x24(%ebx),%eax
    4c20:	85 c0                	test   %eax,%eax
    4c22:	74 3b                	je     4c5f <getchar+0xcf>
    4c24:	8b 53 20             	mov    0x20(%ebx),%edx
    4c27:	85 d2                	test   %edx,%edx
    4c29:	74 34                	je     4c5f <getchar+0xcf>
    4c2b:	8b 7b 0c             	mov    0xc(%ebx),%edi
    4c2e:	85 ff                	test   %edi,%edi
    4c30:	75 2d                	jne    4c5f <getchar+0xcf>
    4c32:	8b 4b 30             	mov    0x30(%ebx),%ecx
    4c35:	89 cf                	mov    %ecx,%edi
    4c37:	2b 7b 34             	sub    0x34(%ebx),%edi
    4c3a:	74 16                	je     4c52 <getchar+0xc2>
    4c3c:	8b 43 2c             	mov    0x2c(%ebx),%eax
    4c3f:	83 f8 02             	cmp    $0x2,%eax
    4c42:	0f 84 09 01 00 00    	je     4d51 <getchar+0x1c1>
    4c48:	48                   	dec    %eax
    4c49:	0f 84 86 00 00 00    	je     4cd5 <getchar+0x145>
    4c4f:	8b 43 24             	mov    0x24(%ebx),%eax
    4c52:	89 43 30             	mov    %eax,0x30(%ebx)
    4c55:	89 43 34             	mov    %eax,0x34(%ebx)
    4c58:	c7 43 2c 00 00 00 00 	movl   $0x0,0x2c(%ebx)
    4c5f:	8b 43 14             	mov    0x14(%ebx),%eax
    4c62:	85 c0                	test   %eax,%eax
    4c64:	75 52                	jne    4cb8 <getchar+0x128>
    4c66:	8b 43 08             	mov    0x8(%ebx),%eax
    4c69:	85 c0                	test   %eax,%eax
    4c6b:	78 16                	js     4c83 <getchar+0xf3>
    4c6d:	8b 7b 1c             	mov    0x1c(%ebx),%edi
    4c70:	85 ff                	test   %edi,%edi
    4c72:	74 0f                	je     4c83 <getchar+0xf3>
    4c74:	c7 43 1c 00 00 00 00 	movl   $0x0,0x1c(%ebx)
    4c7b:	89 04 24             	mov    %eax,(%esp)
    4c7e:	e8 5d ed 00 00       	call   139e0 <fsync>
    4c83:	8d 45 e4             	lea    -0x1c(%ebp),%eax
    4c86:	89 74 24 0c          	mov    %esi,0xc(%esp)
    4c8a:	c7 44 24 08 01 00 00 	movl   $0x1,0x8(%esp)
    4c91:	00 
    4c92:	c7 44 24 04 01 00 00 	movl   $0x1,0x4(%esp)
    4c99:	00 
    4c9a:	89 04 24             	mov    %eax,(%esp)
    4c9d:	e8 0e f7 ff ff       	call   43b0 <fread>
    4ca2:	85 c0                	test   %eax,%eax
    4ca4:	74 2a                	je     4cd0 <getchar+0x140>
    4ca6:	0f be 45 e4          	movsbl -0x1c(%ebp),%eax
    4caa:	83 c4 3c             	add    $0x3c,%esp
    4cad:	5b                   	pop    %ebx
    4cae:	5e                   	pop    %esi
    4caf:	5f                   	pop    %edi
    4cb0:	5d                   	pop    %ebp
    4cb1:	c3                   	ret    
    4cb2:	8d b6 00 00 00 00    	lea    0x0(%esi),%esi
    4cb8:	e8 33 13 00 00       	call   5ff0 <klog_update>
    4cbd:	eb c4                	jmp    4c83 <getchar+0xf3>
    4cbf:	90                   	nop
    4cc0:	e8 2b 13 00 00       	call   5ff0 <klog_update>
    4cc5:	e9 49 ff ff ff       	jmp    4c13 <getchar+0x83>
    4cca:	8d b6 00 00 00 00    	lea    0x0(%esi),%esi
    4cd0:	83 c8 ff             	or     $0xffffffff,%eax
    4cd3:	eb d5                	jmp    4caa <getchar+0x11a>
    4cd5:	8b 53 34             	mov    0x34(%ebx),%edx
    4cd8:	c7 45 d4 00 00 00 00 	movl   $0x0,-0x2c(%ebp)
    4cdf:	89 55 d0             	mov    %edx,-0x30(%ebp)
    4ce2:	eb 2e                	jmp    4d12 <getchar+0x182>
    4ce4:	8d 74 26 00          	lea    0x0(%esi,%eiz,1),%esi
    4ce8:	8b 45 d0             	mov    -0x30(%ebp),%eax
    4ceb:	8b 55 d4             	mov    -0x2c(%ebp),%edx
    4cee:	01 d0                	add    %edx,%eax
    4cf0:	89 7c 24 04          	mov    %edi,0x4(%esp)
    4cf4:	89 04 24             	mov    %eax,(%esp)
    4cf7:	e8 a4 12 00 00       	call   5fa0 <klog_write>
    4cfc:	85 c0                	test   %eax,%eax
    4cfe:	7e 48                	jle    4d48 <getchar+0x1b8>
    4d00:	8b 55 d4             	mov    -0x2c(%ebp),%edx
    4d03:	29 c7                	sub    %eax,%edi
    4d05:	01 c2                	add    %eax,%edx
    4d07:	89 55 d4             	mov    %edx,-0x2c(%ebp)
    4d0a:	85 ff                	test   %edi,%edi
    4d0c:	0f 84 22 01 00 00    	je     4e34 <getchar+0x2a4>
    4d12:	8b 43 0c             	mov    0xc(%ebx),%eax
    4d15:	85 c0                	test   %eax,%eax
    4d17:	0f 85 17 01 00 00    	jne    4e34 <getchar+0x2a4>
    4d1d:	8b 4b 14             	mov    0x14(%ebx),%ecx
    4d20:	85 c9                	test   %ecx,%ecx
    4d22:	75 c4                	jne    4ce8 <getchar+0x158>
    4d24:	8b 45 d0             	mov    -0x30(%ebp),%eax
    4d27:	8b 4d d4             	mov    -0x2c(%ebp),%ecx
    4d2a:	01 c8                	add    %ecx,%eax
    4d2c:	89 7c 24 08          	mov    %edi,0x8(%esp)
    4d30:	89 44 24 04          	mov    %eax,0x4(%esp)
    4d34:	8b 43 08             	mov    0x8(%ebx),%eax
    4d37:	89 04 24             	mov    %eax,(%esp)
    4d3a:	e8 c1 e8 00 00       	call   13600 <write>
    4d3f:	eb bb                	jmp    4cfc <getchar+0x16c>
    4d41:	8d b4 26 00 00 00 00 	lea    0x0(%esi,%eiz,1),%esi
    4d48:	c7 43 0c 01 00 00 00 	movl   $0x1,0xc(%ebx)
    4d4f:	eb b9                	jmp    4d0a <getchar+0x17a>
    4d51:	89 f8                	mov    %edi,%eax
    4d53:	c7 44 24 0c 01 00 00 	movl   $0x1,0xc(%esp)
    4d5a:	00 
    4d5b:	f7 d8                	neg    %eax
    4d5d:	89 c2                	mov    %eax,%edx
    4d5f:	89 44 24 04          	mov    %eax,0x4(%esp)
    4d63:	c1 fa 1f             	sar    $0x1f,%edx
    4d66:	89 54 24 08          	mov    %edx,0x8(%esp)
    4d6a:	8b 43 08             	mov    0x8(%ebx),%eax
    4d6d:	89 04 24             	mov    %eax,(%esp)
    4d70:	e8 4b ed 00 00       	call   13ac0 <lseek>
    4d75:	8b 43 2c             	mov    0x2c(%ebx),%eax
    4d78:	e9 cb fe ff ff       	jmp    4c48 <getchar+0xb8>
    4d7d:	8b 53 34             	mov    0x34(%ebx),%edx
    4d80:	c7 45 d4 00 00 00 00 	movl   $0x0,-0x2c(%ebp)
    4d87:	89 55 d0             	mov    %edx,-0x30(%ebp)
    4d8a:	eb 2a                	jmp    4db6 <getchar+0x226>
    4d8c:	8d 74 26 00          	lea    0x0(%esi,%eiz,1),%esi
    4d90:	8b 45 d0             	mov    -0x30(%ebp),%eax
    4d93:	8b 55 d4             	mov    -0x2c(%ebp),%edx
    4d96:	01 d0                	add    %edx,%eax
    4d98:	89 7c 24 04          	mov    %edi,0x4(%esp)
    4d9c:	89 04 24             	mov    %eax,(%esp)
    4d9f:	e8 fc 11 00 00       	call   5fa0 <klog_write>
    4da4:	85 c0                	test   %eax,%eax
    4da6:	7e 40                	jle    4de8 <getchar+0x258>
    4da8:	8b 55 d4             	mov    -0x2c(%ebp),%edx
    4dab:	29 c7                	sub    %eax,%edi
    4dad:	01 c2                	add    %eax,%edx
    4daf:	89 55 d4             	mov    %edx,-0x2c(%ebp)
    4db2:	85 ff                	test   %edi,%edi
    4db4:	74 67                	je     4e1d <getchar+0x28d>
    4db6:	8b 43 0c             	mov    0xc(%ebx),%eax
    4db9:	85 c0                	test   %eax,%eax
    4dbb:	75 60                	jne    4e1d <getchar+0x28d>
    4dbd:	8b 4b 14             	mov    0x14(%ebx),%ecx
    4dc0:	85 c9                	test   %ecx,%ecx
    4dc2:	75 cc                	jne    4d90 <getchar+0x200>
    4dc4:	8b 45 d0             	mov    -0x30(%ebp),%eax
    4dc7:	8b 4d d4             	mov    -0x2c(%ebp),%ecx
    4dca:	01 c8                	add    %ecx,%eax
    4dcc:	89 7c 24 08          	mov    %edi,0x8(%esp)
    4dd0:	89 44 24 04          	mov    %eax,0x4(%esp)
    4dd4:	8b 43 08             	mov    0x8(%ebx),%eax
    4dd7:	89 04 24             	mov    %eax,(%esp)
    4dda:	e8 21 e8 00 00       	call   13600 <write>
    4ddf:	eb c3                	jmp    4da4 <getchar+0x214>
    4de1:	8d b4 26 00 00 00 00 	lea    0x0(%esi,%eiz,1),%esi
    4de8:	c7 43 0c 01 00 00 00 	movl   $0x1,0xc(%ebx)
    4def:	eb c1                	jmp    4db2 <getchar+0x222>
    4df1:	89 f8                	mov    %edi,%eax
    4df3:	c7 44 24 0c 01 00 00 	movl   $0x1,0xc(%esp)
    4dfa:	00 
    4dfb:	f7 d8                	neg    %eax
    4dfd:	89 c2                	mov    %eax,%edx
    4dff:	89 44 24 04          	mov    %eax,0x4(%esp)
    4e03:	c1 fa 1f             	sar    $0x1f,%edx
    4e06:	89 54 24 08          	mov    %edx,0x8(%esp)
    4e0a:	8b 43 08             	mov    0x8(%ebx),%eax
    4e0d:	89 04 24             	mov    %eax,(%esp)
    4e10:	e8 ab ec 00 00       	call   13ac0 <lseek>
    4e15:	8b 43 2c             	mov    0x2c(%ebx),%eax
    4e18:	e9 b7 fd ff ff       	jmp    4bd4 <getchar+0x44>
    4e1d:	8b 45 d4             	mov    -0x2c(%ebp),%eax
    4e20:	85 c0                	test   %eax,%eax
    4e22:	0f 84 b3 fd ff ff    	je     4bdb <getchar+0x4b>
    4e28:	c7 43 1c 01 00 00 00 	movl   $0x1,0x1c(%ebx)
    4e2f:	e9 a7 fd ff ff       	jmp    4bdb <getchar+0x4b>
    4e34:	8b 45 d4             	mov    -0x2c(%ebp),%eax
    4e37:	85 c0                	test   %eax,%eax
    4e39:	0f 84 10 fe ff ff    	je     4c4f <getchar+0xbf>
    4e3f:	c7 43 1c 01 00 00 00 	movl   $0x1,0x1c(%ebx)
    4e46:	e9 04 fe ff ff       	jmp    4c4f <getchar+0xbf>
    4e4b:	90                   	nop
    4e4c:	8d 74 26 00          	lea    0x0(%esi,%eiz,1),%esi

00004e50 <fseek>:
    4e50:	55                   	push   %ebp
    4e51:	89 e5                	mov    %esp,%ebp
    4e53:	57                   	push   %edi
    4e54:	56                   	push   %esi
    4e55:	53                   	push   %ebx
    4e56:	83 ec 3c             	sub    $0x3c,%esp
    4e59:	8b 5d 08             	mov    0x8(%ebp),%ebx
    4e5c:	8b 75 0c             	mov    0xc(%ebp),%esi
    4e5f:	8b 7d 10             	mov    0x10(%ebp),%edi
    4e62:	8b 43 24             	mov    0x24(%ebx),%eax
    4e65:	85 c0                	test   %eax,%eax
    4e67:	74 31                	je     4e9a <fseek+0x4a>
    4e69:	8b 4b 20             	mov    0x20(%ebx),%ecx
    4e6c:	85 c9                	test   %ecx,%ecx
    4e6e:	74 2a                	je     4e9a <fseek+0x4a>
    4e70:	8b 53 0c             	mov    0xc(%ebx),%edx
    4e73:	85 d2                	test   %edx,%edx
    4e75:	75 23                	jne    4e9a <fseek+0x4a>
    4e77:	8b 4b 30             	mov    0x30(%ebx),%ecx
    4e7a:	2b 4b 34             	sub    0x34(%ebx),%ecx
    4e7d:	74 0e                	je     4e8d <fseek+0x3d>
    4e7f:	8b 43 2c             	mov    0x2c(%ebx),%eax
    4e82:	83 f8 02             	cmp    $0x2,%eax
    4e85:	74 49                	je     4ed0 <fseek+0x80>
    4e87:	48                   	dec    %eax
    4e88:	74 76                	je     4f00 <fseek+0xb0>
    4e8a:	8b 43 24             	mov    0x24(%ebx),%eax
    4e8d:	89 43 30             	mov    %eax,0x30(%ebx)
    4e90:	89 43 34             	mov    %eax,0x34(%ebx)
    4e93:	c7 43 2c 00 00 00 00 	movl   $0x0,0x2c(%ebx)
    4e9a:	8b 45 14             	mov    0x14(%ebp),%eax
    4e9d:	89 74 24 04          	mov    %esi,0x4(%esp)
    4ea1:	89 44 24 0c          	mov    %eax,0xc(%esp)
    4ea5:	89 7c 24 08          	mov    %edi,0x8(%esp)
    4ea9:	8b 43 08             	mov    0x8(%ebx),%eax
    4eac:	89 04 24             	mov    %eax,(%esp)
    4eaf:	e8 0c ec 00 00       	call   13ac0 <lseek>
    4eb4:	21 d0                	and    %edx,%eax
    4eb6:	40                   	inc    %eax
    4eb7:	0f 84 ac 00 00 00    	je     4f69 <fseek+0x119>
    4ebd:	c7 43 10 00 00 00 00 	movl   $0x0,0x10(%ebx)
    4ec4:	31 c0                	xor    %eax,%eax
    4ec6:	83 c4 3c             	add    $0x3c,%esp
    4ec9:	5b                   	pop    %ebx
    4eca:	5e                   	pop    %esi
    4ecb:	5f                   	pop    %edi
    4ecc:	5d                   	pop    %ebp
    4ecd:	c3                   	ret    
    4ece:	66 90                	xchg   %ax,%ax
    4ed0:	89 c8                	mov    %ecx,%eax
    4ed2:	c7 44 24 0c 01 00 00 	movl   $0x1,0xc(%esp)
    4ed9:	00 
    4eda:	f7 d8                	neg    %eax
    4edc:	89 c2                	mov    %eax,%edx
    4ede:	89 44 24 04          	mov    %eax,0x4(%esp)
    4ee2:	c1 fa 1f             	sar    $0x1f,%edx
    4ee5:	89 54 24 08          	mov    %edx,0x8(%esp)
