
pciintel:     file format elf32-i386


Disassembly of section .init:

00001094 <__entry>:
    1094:	66 8c d0             	mov    %ss,%ax
    1097:	8e d8                	mov    %eax,%ds
    1099:	8e c0                	mov    %eax,%es
    109b:	8e e0                	mov    %eax,%fs
    109d:	b8 01 00 00 00       	mov    $0x1,%eax
    10a2:	0f a2                	cpuid  
    10a4:	0f ba e2 0b          	bt     $0xb,%edx
    10a8:	73 0c                	jae    10b6 <__entry+0x22>
    10aa:	8d 05 70 af 02 00    	lea    0x2af70,%eax
    10b0:	c7 00 07 34 02 00    	movl   $0x23407,(%eax)
    10b6:	6a 00                	push   $0x0
    10b8:	89 e5                	mov    %esp,%ebp
    10ba:	57                   	push   %edi
    10bb:	e8 b0 7a 00 00       	call   8b70 <__main>

Disassembly of section .text:

000010c0 <pci_fun_offline>:
    10c0:	55                   	push   %ebp
    10c1:	89 e5                	mov    %esp,%ebp
    10c3:	53                   	push   %ebx
    10c4:	83 ec 14             	sub    $0x14,%esp
    10c7:	8b 5d 08             	mov    0x8(%ebp),%ebx
    10ca:	c7 44 24 04 62 76 02 	movl   $0x27662,0x4(%esp)
    10d1:	00 
    10d2:	c7 04 24 04 00 00 00 	movl   $0x4,(%esp)
    10d9:	e8 22 35 00 00       	call   4600 <ddf_msg>
    10de:	89 5d 08             	mov    %ebx,0x8(%ebp)
    10e1:	83 c4 14             	add    $0x14,%esp
    10e4:	5b                   	pop    %ebx
    10e5:	5d                   	pop    %ebp
    10e6:	e9 35 2f 00 00       	jmp    4020 <ddf_fun_offline>
    10eb:	90                   	nop
    10ec:	8d 74 26 00          	lea    0x0(%esi,%eiz,1),%esi

000010f0 <pci_fun_online>:
    10f0:	55                   	push   %ebp
    10f1:	89 e5                	mov    %esp,%ebp
    10f3:	53                   	push   %ebx
    10f4:	83 ec 14             	sub    $0x14,%esp
    10f7:	8b 5d 08             	mov    0x8(%ebp),%ebx
    10fa:	c7 44 24 04 74 76 02 	movl   $0x27674,0x4(%esp)
    1101:	00 
    1102:	c7 04 24 04 00 00 00 	movl   $0x4,(%esp)
    1109:	e8 f2 34 00 00       	call   4600 <ddf_msg>
    110e:	89 5d 08             	mov    %ebx,0x8(%ebp)
    1111:	83 c4 14             	add    $0x14,%esp
    1114:	5b                   	pop    %ebx
    1115:	5d                   	pop    %ebp
    1116:	e9 c5 2e 00 00       	jmp    3fe0 <ddf_fun_online>
    111b:	90                   	nop
    111c:	8d 74 26 00          	lea    0x0(%esi,%eiz,1),%esi

00001120 <pciintel_get_resources>:
    1120:	55                   	push   %ebp
    1121:	89 e5                	mov    %esp,%ebp
    1123:	83 ec 18             	sub    $0x18,%esp
    1126:	8b 45 08             	mov    0x8(%ebp),%eax
    1129:	89 04 24             	mov    %eax,(%esp)
    112c:	e8 cf 2b 00 00       	call   3d00 <ddf_fun_data_get>
    1131:	85 c0                	test   %eax,%eax
    1133:	74 0b                	je     1140 <pciintel_get_resources+0x20>
    1135:	83 c0 20             	add    $0x20,%eax
    1138:	c9                   	leave  
    1139:	c3                   	ret    
    113a:	8d b6 00 00 00 00    	lea    0x0(%esi),%esi
    1140:	31 c0                	xor    %eax,%eax
    1142:	c9                   	leave  
    1143:	c3                   	ret    
    1144:	8d b6 00 00 00 00    	lea    0x0(%esi),%esi
    114a:	8d bf 00 00 00 00    	lea    0x0(%edi),%edi

00001150 <pciintel_enable_interrupt>:
    1150:	55                   	push   %ebp
    1151:	89 e5                	mov    %esp,%ebp
    1153:	57                   	push   %edi
    1154:	56                   	push   %esi
    1155:	53                   	push   %ebx
    1156:	83 ec 5c             	sub    $0x5c,%esp
    1159:	8b 45 08             	mov    0x8(%ebp),%eax
    115c:	85 c0                	test   %eax,%eax
    115e:	0f 84 71 01 00 00    	je     12d5 <pciintel_enable_interrupt+0x185>
    1164:	89 04 24             	mov    %eax,(%esp)
    1167:	e8 94 2b 00 00       	call   3d00 <ddf_fun_data_get>
    116c:	c7 04 24 8b 76 02 00 	movl   $0x2768b,(%esp)
    1173:	89 c7                	mov    %eax,%edi
    1175:	8d 45 e0             	lea    -0x20(%ebp),%eax
    1178:	89 44 24 04          	mov    %eax,0x4(%esp)
    117c:	e8 4f 7d 01 00       	call   18ed0 <sysinfo_get_value>
    1181:	85 c0                	test   %eax,%eax
    1183:	0f 85 07 01 00 00    	jne    1290 <pciintel_enable_interrupt+0x140>
    1189:	8b 75 e0             	mov    -0x20(%ebp),%esi
    118c:	85 f6                	test   %esi,%esi
    118e:	0f 84 fc 00 00 00    	je     1290 <pciintel_enable_interrupt+0x140>
    1194:	c7 44 24 0c 00 00 00 	movl   $0x0,0xc(%esp)
    119b:	00 
    119c:	c7 44 24 08 00 00 00 	movl   $0x0,0x8(%esp)
    11a3:	00 
    11a4:	c7 44 24 04 69 72 63 	movl   $0x20637269,0x4(%esp)
    11ab:	20 
    11ac:	c7 04 24 02 00 00 00 	movl   $0x2,(%esp)
    11b3:	e8 28 80 01 00       	call   191e0 <service_connect_blocking>
    11b8:	89 45 d4             	mov    %eax,-0x2c(%ebp)
    11bb:	85 c0                	test   %eax,%eax
    11bd:	0f 84 e4 00 00 00    	je     12a7 <pciintel_enable_interrupt+0x157>
    11c3:	8b 47 20             	mov    0x20(%edi),%eax
    11c6:	31 db                	xor    %ebx,%ebx
    11c8:	85 c0                	test   %eax,%eax
    11ca:	75 15                	jne    11e1 <pciintel_enable_interrupt+0x91>
    11cc:	e9 a7 00 00 00       	jmp    1278 <pciintel_enable_interrupt+0x128>
    11d1:	8d b4 26 00 00 00 00 	lea    0x0(%esi,%eiz,1),%esi
    11d8:	43                   	inc    %ebx
    11d9:	39 c3                	cmp    %eax,%ebx
    11db:	0f 83 97 00 00 00    	jae    1278 <pciintel_enable_interrupt+0x128>
    11e1:	8d 0c 9b             	lea    (%ebx,%ebx,4),%ecx
    11e4:	8b 57 24             	mov    0x24(%edi),%edx
    11e7:	8d 14 8a             	lea    (%edx,%ecx,4),%edx
    11ea:	8b 0a                	mov    (%edx),%ecx
    11ec:	85 c9                	test   %ecx,%ecx
    11ee:	75 e8                	jne    11d8 <pciintel_enable_interrupt+0x88>
    11f0:	8b 45 d4             	mov    -0x2c(%ebp),%eax
    11f3:	8b 4a 04             	mov    0x4(%edx),%ecx
    11f6:	89 04 24             	mov    %eax,(%esp)
    11f9:	89 4d d0             	mov    %ecx,-0x30(%ebp)
    11fc:	e8 8f ac 01 00       	call   1be90 <async_exchange_begin>
    1201:	8b 4d d0             	mov    -0x30(%ebp),%ecx
    1204:	89 4c 24 08          	mov    %ecx,0x8(%esp)
    1208:	c7 44 24 28 00 00 00 	movl   $0x0,0x28(%esp)
    120f:	00 
    1210:	c7 44 24 24 00 00 00 	movl   $0x0,0x24(%esp)
    1217:	00 
    1218:	c7 44 24 20 00 00 00 	movl   $0x0,0x20(%esp)
    121f:	00 
    1220:	c7 44 24 1c 00 00 00 	movl   $0x0,0x1c(%esp)
    1227:	00 
    1228:	c7 44 24 18 00 00 00 	movl   $0x0,0x18(%esp)
    122f:	00 
    1230:	c7 44 24 14 00 00 00 	movl   $0x0,0x14(%esp)
    1237:	00 
    1238:	c7 44 24 10 00 00 00 	movl   $0x0,0x10(%esp)
    123f:	00 
    1240:	c7 44 24 0c 00 00 00 	movl   $0x0,0xc(%esp)
    1247:	00 
    1248:	c7 44 24 04 00 04 00 	movl   $0x400,0x4(%esp)
    124f:	00 
    1250:	89 04 24             	mov    %eax,(%esp)
    1253:	89 c6                	mov    %eax,%esi
    1255:	e8 e6 9b 01 00       	call   1ae40 <async_req_fast>
    125a:	89 34 24             	mov    %esi,(%esp)
    125d:	89 45 d0             	mov    %eax,-0x30(%ebp)
    1260:	e8 9b af 01 00       	call   1c200 <async_exchange_end>
    1265:	8b 45 d0             	mov    -0x30(%ebp),%eax
    1268:	85 c0                	test   %eax,%eax
    126a:	75 5c                	jne    12c8 <pciintel_enable_interrupt+0x178>
    126c:	8b 47 20             	mov    0x20(%edi),%eax
    126f:	43                   	inc    %ebx
    1270:	39 c3                	cmp    %eax,%ebx
    1272:	0f 82 69 ff ff ff    	jb     11e1 <pciintel_enable_interrupt+0x91>
    1278:	8b 45 d4             	mov    -0x2c(%ebp),%eax
    127b:	89 04 24             	mov    %eax,(%esp)
    127e:	e8 0d ab 01 00       	call   1bd90 <async_hangup>
    1283:	83 c4 5c             	add    $0x5c,%esp
    1286:	b0 01                	mov    $0x1,%al
    1288:	5b                   	pop    %ebx
    1289:	5e                   	pop    %esi
    128a:	5f                   	pop    %edi
    128b:	5d                   	pop    %ebp
    128c:	c3                   	ret    
    128d:	8d 76 00             	lea    0x0(%esi),%esi
    1290:	8d 45 e4             	lea    -0x1c(%ebp),%eax
    1293:	c7 04 24 90 76 02 00 	movl   $0x27690,(%esp)
    129a:	89 44 24 04          	mov    %eax,0x4(%esp)
    129e:	e8 2d 7c 01 00       	call   18ed0 <sysinfo_get_value>
    12a3:	85 c0                	test   %eax,%eax
    12a5:	74 11                	je     12b8 <pciintel_enable_interrupt+0x168>
    12a7:	83 c4 5c             	add    $0x5c,%esp
    12aa:	31 c0                	xor    %eax,%eax
    12ac:	5b                   	pop    %ebx
    12ad:	5e                   	pop    %esi
    12ae:	5f                   	pop    %edi
    12af:	5d                   	pop    %ebp
    12b0:	c3                   	ret    
    12b1:	8d b4 26 00 00 00 00 	lea    0x0(%esi,%eiz,1),%esi
    12b8:	8b 5d e4             	mov    -0x1c(%ebp),%ebx
    12bb:	85 db                	test   %ebx,%ebx
    12bd:	0f 85 d1 fe ff ff    	jne    1194 <pciintel_enable_interrupt+0x44>
    12c3:	eb e2                	jmp    12a7 <pciintel_enable_interrupt+0x157>
    12c5:	8d 76 00             	lea    0x0(%esi),%esi
    12c8:	8b 45 d4             	mov    -0x2c(%ebp),%eax
    12cb:	89 04 24             	mov    %eax,(%esp)
    12ce:	e8 bd aa 01 00       	call   1bd90 <async_hangup>
    12d3:	eb d2                	jmp    12a7 <pciintel_enable_interrupt+0x157>
    12d5:	c7 44 24 08 68 00 00 	movl   $0x68,0x8(%esp)
    12dc:	00 
    12dd:	c7 44 24 04 e2 7e 02 	movl   $0x27ee2,0x4(%esp)
    12e4:	00 
    12e5:	c7 04 24 85 76 02 00 	movl   $0x27685,(%esp)
    12ec:	e8 bf 1e 02 00       	call   231b0 <assert_abort>
    12f1:	eb 0d                	jmp    1300 <pci_config_space_read_8>
    12f3:	90                   	nop
    12f4:	90                   	nop
    12f5:	90                   	nop
    12f6:	90                   	nop
    12f7:	90                   	nop
    12f8:	90                   	nop
    12f9:	90                   	nop
    12fa:	90                   	nop
    12fb:	90                   	nop
    12fc:	90                   	nop
    12fd:	90                   	nop
    12fe:	90                   	nop
    12ff:	90                   	nop

00001300 <pci_config_space_read_8>:
    1300:	55                   	push   %ebp
    1301:	89 e5                	mov    %esp,%ebp
    1303:	57                   	push   %edi
    1304:	56                   	push   %esi
    1305:	53                   	push   %ebx
    1306:	83 ec 2c             	sub    $0x2c,%esp
    1309:	81 7d 0c ff 00 00 00 	cmpl   $0xff,0xc(%ebp)
    1310:	0f 87 82 00 00 00    	ja     1398 <pci_config_space_read_8+0x98>
    1316:	8b 45 08             	mov    0x8(%ebp),%eax
    1319:	89 04 24             	mov    %eax,(%esp)
    131c:	e8 df 29 00 00       	call   3d00 <ddf_fun_data_get>
    1321:	89 c3                	mov    %eax,%ebx
    1323:	8b 38                	mov    (%eax),%edi
    1325:	8d 4f 14             	lea    0x14(%edi),%ecx
    1328:	89 0c 24             	mov    %ecx,(%esp)
    132b:	89 4d e4             	mov    %ecx,-0x1c(%ebp)
    132e:	e8 2d df 00 00       	call   f260 <fibril_mutex_lock>
    1333:	8b 75 0c             	mov    0xc(%ebp),%esi
    1336:	8b 47 0c             	mov    0xc(%edi),%eax
    1339:	83 e6 03             	and    $0x3,%esi
    133c:	8b 53 08             	mov    0x8(%ebx),%edx
    133f:	01 c6                	add    %eax,%esi
    1341:	c1 e2 10             	shl    $0x10,%edx
    1344:	8b 43 0c             	mov    0xc(%ebx),%eax
    1347:	c1 e0 0b             	shl    $0xb,%eax
    134a:	09 c2                	or     %eax,%edx
    134c:	8b 43 10             	mov    0x10(%ebx),%eax
    134f:	c1 e0 08             	shl    $0x8,%eax
    1352:	81 ca 00 00 00 80    	or     $0x80000000,%edx
    1358:	09 c2                	or     %eax,%edx
    135a:	8b 45 0c             	mov    0xc(%ebp),%eax
    135d:	83 e0 fc             	and    $0xfffffffc,%eax
    1360:	09 c2                	or     %eax,%edx
    1362:	89 54 24 04          	mov    %edx,0x4(%esp)
    1366:	8b 47 10             	mov    0x10(%edi),%eax
    1369:	89 04 24             	mov    %eax,(%esp)
    136c:	e8 1f 7c 00 00       	call   8f90 <pio_write_32>
    1371:	89 34 24             	mov    %esi,(%esp)
    1374:	e8 67 7c 00 00       	call   8fe0 <pio_read_8>
    1379:	8b 4d e4             	mov    -0x1c(%ebp),%ecx
    137c:	89 0c 24             	mov    %ecx,(%esp)
    137f:	88 c3                	mov    %al,%bl
    1381:	e8 fa df 00 00       	call   f380 <fibril_mutex_unlock>
    1386:	8b 55 10             	mov    0x10(%ebp),%edx
    1389:	31 c0                	xor    %eax,%eax
    138b:	88 1a                	mov    %bl,(%edx)
    138d:	83 c4 2c             	add    $0x2c,%esp
    1390:	5b                   	pop    %ebx
    1391:	5e                   	pop    %esi
    1392:	5f                   	pop    %edi
    1393:	5d                   	pop    %ebp
    1394:	c3                   	ret    
    1395:	8d 76 00             	lea    0x0(%esi),%esi
    1398:	b8 f2 ff ff ff       	mov    $0xfffffff2,%eax
    139d:	eb ee                	jmp    138d <pci_config_space_read_8+0x8d>
    139f:	90                   	nop

000013a0 <pci_config_space_write_32>:
    13a0:	55                   	push   %ebp
    13a1:	89 e5                	mov    %esp,%ebp
    13a3:	57                   	push   %edi
    13a4:	56                   	push   %esi
    13a5:	53                   	push   %ebx
    13a6:	83 ec 2c             	sub    $0x2c,%esp
    13a9:	81 7d 0c fc 00 00 00 	cmpl   $0xfc,0xc(%ebp)
    13b0:	0f 87 82 00 00 00    	ja     1438 <pci_config_space_write_32+0x98>
    13b6:	8b 45 08             	mov    0x8(%ebp),%eax
    13b9:	89 04 24             	mov    %eax,(%esp)
    13bc:	e8 3f 29 00 00       	call   3d00 <ddf_fun_data_get>
    13c1:	89 c3                	mov    %eax,%ebx
    13c3:	8b 38                	mov    (%eax),%edi
    13c5:	8d 4f 14             	lea    0x14(%edi),%ecx
    13c8:	89 0c 24             	mov    %ecx,(%esp)
    13cb:	89 4d e4             	mov    %ecx,-0x1c(%ebp)
    13ce:	e8 8d de 00 00       	call   f260 <fibril_mutex_lock>
    13d3:	8b 75 0c             	mov    0xc(%ebp),%esi
    13d6:	8b 47 0c             	mov    0xc(%edi),%eax
    13d9:	83 e6 03             	and    $0x3,%esi
    13dc:	8b 53 08             	mov    0x8(%ebx),%edx
    13df:	01 c6                	add    %eax,%esi
    13e1:	c1 e2 10             	shl    $0x10,%edx
    13e4:	8b 43 0c             	mov    0xc(%ebx),%eax
    13e7:	c1 e0 0b             	shl    $0xb,%eax
    13ea:	09 c2                	or     %eax,%edx
    13ec:	8b 43 10             	mov    0x10(%ebx),%eax
    13ef:	c1 e0 08             	shl    $0x8,%eax
    13f2:	81 ca 00 00 00 80    	or     $0x80000000,%edx
    13f8:	09 c2                	or     %eax,%edx
    13fa:	8b 45 0c             	mov    0xc(%ebp),%eax
    13fd:	83 e0 fc             	and    $0xfffffffc,%eax
    1400:	09 c2                	or     %eax,%edx
    1402:	89 54 24 04          	mov    %edx,0x4(%esp)
    1406:	8b 47 10             	mov    0x10(%edi),%eax
    1409:	89 04 24             	mov    %eax,(%esp)
    140c:	e8 7f 7b 00 00       	call   8f90 <pio_write_32>
    1411:	8b 45 10             	mov    0x10(%ebp),%eax
    1414:	89 44 24 04          	mov    %eax,0x4(%esp)
    1418:	89 34 24             	mov    %esi,(%esp)
    141b:	e8 70 7b 00 00       	call   8f90 <pio_write_32>
    1420:	8b 4d e4             	mov    -0x1c(%ebp),%ecx
    1423:	89 0c 24             	mov    %ecx,(%esp)
    1426:	e8 55 df 00 00       	call   f380 <fibril_mutex_unlock>
    142b:	31 c0                	xor    %eax,%eax
    142d:	83 c4 2c             	add    $0x2c,%esp
    1430:	5b                   	pop    %ebx
    1431:	5e                   	pop    %esi
    1432:	5f                   	pop    %edi
    1433:	5d                   	pop    %ebp
    1434:	c3                   	ret    
    1435:	8d 76 00             	lea    0x0(%esi),%esi
    1438:	b8 f2 ff ff ff       	mov    $0xfffffff2,%eax
    143d:	eb ee                	jmp    142d <pci_config_space_write_32+0x8d>
    143f:	90                   	nop

00001440 <pci_config_space_write_8>:
    1440:	55                   	push   %ebp
    1441:	89 e5                	mov    %esp,%ebp
    1443:	57                   	push   %edi
    1444:	56                   	push   %esi
    1445:	53                   	push   %ebx
    1446:	83 ec 2c             	sub    $0x2c,%esp
    1449:	8a 45 10             	mov    0x10(%ebp),%al
    144c:	88 45 e7             	mov    %al,-0x19(%ebp)
    144f:	81 7d 0c ff 00 00 00 	cmpl   $0xff,0xc(%ebp)
    1456:	0f 87 84 00 00 00    	ja     14e0 <pci_config_space_write_8+0xa0>
    145c:	8b 45 08             	mov    0x8(%ebp),%eax
    145f:	89 04 24             	mov    %eax,(%esp)
    1462:	e8 99 28 00 00       	call   3d00 <ddf_fun_data_get>
    1467:	89 c3                	mov    %eax,%ebx
    1469:	8b 38                	mov    (%eax),%edi
    146b:	8d 4f 14             	lea    0x14(%edi),%ecx
    146e:	89 0c 24             	mov    %ecx,(%esp)
    1471:	89 4d e0             	mov    %ecx,-0x20(%ebp)
    1474:	e8 e7 dd 00 00       	call   f260 <fibril_mutex_lock>
    1479:	8b 75 0c             	mov    0xc(%ebp),%esi
    147c:	8b 47 0c             	mov    0xc(%edi),%eax
    147f:	83 e6 03             	and    $0x3,%esi
    1482:	8b 53 08             	mov    0x8(%ebx),%edx
    1485:	01 c6                	add    %eax,%esi
    1487:	c1 e2 10             	shl    $0x10,%edx
    148a:	8b 43 0c             	mov    0xc(%ebx),%eax
    148d:	c1 e0 0b             	shl    $0xb,%eax
    1490:	09 c2                	or     %eax,%edx
    1492:	8b 43 10             	mov    0x10(%ebx),%eax
    1495:	c1 e0 08             	shl    $0x8,%eax
    1498:	81 ca 00 00 00 80    	or     $0x80000000,%edx
    149e:	09 c2                	or     %eax,%edx
    14a0:	8b 45 0c             	mov    0xc(%ebp),%eax
    14a3:	83 e0 fc             	and    $0xfffffffc,%eax
    14a6:	09 c2                	or     %eax,%edx
    14a8:	89 54 24 04          	mov    %edx,0x4(%esp)
    14ac:	8b 47 10             	mov    0x10(%edi),%eax
    14af:	89 04 24             	mov    %eax,(%esp)
    14b2:	e8 d9 7a 00 00       	call   8f90 <pio_write_32>
    14b7:	31 c0                	xor    %eax,%eax
    14b9:	8a 45 e7             	mov    -0x19(%ebp),%al
    14bc:	89 34 24             	mov    %esi,(%esp)
    14bf:	89 44 24 04          	mov    %eax,0x4(%esp)
    14c3:	e8 28 7a 00 00       	call   8ef0 <pio_write_8>
    14c8:	8b 4d e0             	mov    -0x20(%ebp),%ecx
    14cb:	89 0c 24             	mov    %ecx,(%esp)
    14ce:	e8 ad de 00 00       	call   f380 <fibril_mutex_unlock>
    14d3:	31 c0                	xor    %eax,%eax
    14d5:	83 c4 2c             	add    $0x2c,%esp
    14d8:	5b                   	pop    %ebx
    14d9:	5e                   	pop    %esi
    14da:	5f                   	pop    %edi
    14db:	5d                   	pop    %ebp
    14dc:	c3                   	ret    
    14dd:	8d 76 00             	lea    0x0(%esi),%esi
    14e0:	b8 f2 ff ff ff       	mov    $0xfffffff2,%eax
    14e5:	eb ee                	jmp    14d5 <pci_config_space_write_8+0x95>
    14e7:	89 f6                	mov    %esi,%esi
    14e9:	8d bc 27 00 00 00 00 	lea    0x0(%edi,%eiz,1),%edi

000014f0 <pci_config_space_write_16>:
    14f0:	55                   	push   %ebp
    14f1:	89 e5                	mov    %esp,%ebp
    14f3:	57                   	push   %edi
    14f4:	56                   	push   %esi
    14f5:	53                   	push   %ebx
    14f6:	83 ec 2c             	sub    $0x2c,%esp
    14f9:	8b 75 10             	mov    0x10(%ebp),%esi
    14fc:	81 7d 0c fe 00 00 00 	cmpl   $0xfe,0xc(%ebp)
    1503:	0f 87 97 00 00 00    	ja     15a0 <pci_config_space_write_16+0xb0>
    1509:	8b 45 08             	mov    0x8(%ebp),%eax
    150c:	89 04 24             	mov    %eax,(%esp)
    150f:	e8 ec 27 00 00       	call   3d00 <ddf_fun_data_get>
    1514:	89 c3                	mov    %eax,%ebx
    1516:	8b 38                	mov    (%eax),%edi
    1518:	8d 47 14             	lea    0x14(%edi),%eax
    151b:	89 04 24             	mov    %eax,(%esp)
    151e:	89 45 e0             	mov    %eax,-0x20(%ebp)
    1521:	e8 3a dd 00 00       	call   f260 <fibril_mutex_lock>
    1526:	8b 45 0c             	mov    0xc(%ebp),%eax
    1529:	83 e0 03             	and    $0x3,%eax
    152c:	89 45 e4             	mov    %eax,-0x1c(%ebp)
    152f:	8b 47 0c             	mov    0xc(%edi),%eax
    1532:	8b 55 e4             	mov    -0x1c(%ebp),%edx
    1535:	01 c2                	add    %eax,%edx
    1537:	8b 43 0c             	mov    0xc(%ebx),%eax
    153a:	c1 e0 0b             	shl    $0xb,%eax
    153d:	89 55 e4             	mov    %edx,-0x1c(%ebp)
    1540:	8b 53 08             	mov    0x8(%ebx),%edx
    1543:	c1 e2 10             	shl    $0x10,%edx
    1546:	09 c2                	or     %eax,%edx
    1548:	8b 43 10             	mov    0x10(%ebx),%eax
    154b:	c1 e0 08             	shl    $0x8,%eax
    154e:	81 ca 00 00 00 80    	or     $0x80000000,%edx
    1554:	09 c2                	or     %eax,%edx
    1556:	8b 45 0c             	mov    0xc(%ebp),%eax
    1559:	83 e0 fc             	and    $0xfffffffc,%eax
    155c:	09 c2                	or     %eax,%edx
    155e:	89 54 24 04          	mov    %edx,0x4(%esp)
    1562:	8b 47 10             	mov    0x10(%edi),%eax
    1565:	89 04 24             	mov    %eax,(%esp)
    1568:	e8 23 7a 00 00       	call   8f90 <pio_write_32>
    156d:	89 f1                	mov    %esi,%ecx
    156f:	81 e1 ff ff 00 00    	and    $0xffff,%ecx
    1575:	8b 45 e4             	mov    -0x1c(%ebp),%eax
    1578:	89 4c 24 04          	mov    %ecx,0x4(%esp)
    157c:	89 04 24             	mov    %eax,(%esp)
    157f:	e8 bc 79 00 00       	call   8f40 <pio_write_16>
    1584:	8b 45 e0             	mov    -0x20(%ebp),%eax
    1587:	89 04 24             	mov    %eax,(%esp)
    158a:	e8 f1 dd 00 00       	call   f380 <fibril_mutex_unlock>
    158f:	31 c0                	xor    %eax,%eax
    1591:	83 c4 2c             	add    $0x2c,%esp
    1594:	5b                   	pop    %ebx
    1595:	5e                   	pop    %esi
    1596:	5f                   	pop    %edi
    1597:	5d                   	pop    %ebp
    1598:	c3                   	ret    
    1599:	8d b4 26 00 00 00 00 	lea    0x0(%esi,%eiz,1),%esi
    15a0:	b8 f2 ff ff ff       	mov    $0xfffffff2,%eax
    15a5:	eb ea                	jmp    1591 <pci_config_space_write_16+0xa1>
    15a7:	89 f6                	mov    %esi,%esi
    15a9:	8d bc 27 00 00 00 00 	lea    0x0(%edi,%eiz,1),%edi

000015b0 <pci_config_space_read_32>:
    15b0:	55                   	push   %ebp
    15b1:	89 e5                	mov    %esp,%ebp
    15b3:	57                   	push   %edi
    15b4:	56                   	push   %esi
    15b5:	53                   	push   %ebx
    15b6:	83 ec 2c             	sub    $0x2c,%esp
    15b9:	81 7d 0c fc 00 00 00 	cmpl   $0xfc,0xc(%ebp)
    15c0:	0f 87 82 00 00 00    	ja     1648 <pci_config_space_read_32+0x98>
    15c6:	8b 45 08             	mov    0x8(%ebp),%eax
    15c9:	89 04 24             	mov    %eax,(%esp)
    15cc:	e8 2f 27 00 00       	call   3d00 <ddf_fun_data_get>
    15d1:	89 c3                	mov    %eax,%ebx
    15d3:	8b 38                	mov    (%eax),%edi
    15d5:	8d 4f 14             	lea    0x14(%edi),%ecx
    15d8:	89 0c 24             	mov    %ecx,(%esp)
    15db:	89 4d e4             	mov    %ecx,-0x1c(%ebp)
    15de:	e8 7d dc 00 00       	call   f260 <fibril_mutex_lock>
    15e3:	8b 53 08             	mov    0x8(%ebx),%edx
    15e6:	8b 43 0c             	mov    0xc(%ebx),%eax
    15e9:	8b 4f 0c             	mov    0xc(%edi),%ecx
    15ec:	c1 e0 0b             	shl    $0xb,%eax
    15ef:	8b 75 0c             	mov    0xc(%ebp),%esi
    15f2:	c1 e2 10             	shl    $0x10,%edx
    15f5:	83 e6 03             	and    $0x3,%esi
    15f8:	09 c2                	or     %eax,%edx
    15fa:	8b 43 10             	mov    0x10(%ebx),%eax
    15fd:	c1 e0 08             	shl    $0x8,%eax
    1600:	81 ca 00 00 00 80    	or     $0x80000000,%edx
    1606:	09 c2                	or     %eax,%edx
    1608:	8b 45 0c             	mov    0xc(%ebp),%eax
    160b:	83 e0 fc             	and    $0xfffffffc,%eax
    160e:	01 ce                	add    %ecx,%esi
    1610:	09 c2                	or     %eax,%edx
    1612:	89 54 24 04          	mov    %edx,0x4(%esp)
    1616:	8b 47 10             	mov    0x10(%edi),%eax
    1619:	89 04 24             	mov    %eax,(%esp)
    161c:	e8 6f 79 00 00       	call   8f90 <pio_write_32>
    1621:	89 34 24             	mov    %esi,(%esp)
    1624:	e8 37 7a 00 00       	call   9060 <pio_read_32>
    1629:	8b 4d e4             	mov    -0x1c(%ebp),%ecx
    162c:	89 0c 24             	mov    %ecx,(%esp)
    162f:	89 c3                	mov    %eax,%ebx
    1631:	e8 4a dd 00 00       	call   f380 <fibril_mutex_unlock>
    1636:	8b 55 10             	mov    0x10(%ebp),%edx
    1639:	31 c0                	xor    %eax,%eax
    163b:	89 1a                	mov    %ebx,(%edx)
    163d:	83 c4 2c             	add    $0x2c,%esp
    1640:	5b                   	pop    %ebx
    1641:	5e                   	pop    %esi
    1642:	5f                   	pop    %edi
    1643:	5d                   	pop    %ebp
    1644:	c3                   	ret    
    1645:	8d 76 00             	lea    0x0(%esi),%esi
    1648:	b8 f2 ff ff ff       	mov    $0xfffffff2,%eax
    164d:	eb ee                	jmp    163d <pci_config_space_read_32+0x8d>
    164f:	90                   	nop

00001650 <pci_config_space_read_16>:
    1650:	55                   	push   %ebp
    1651:	89 e5                	mov    %esp,%ebp
    1653:	57                   	push   %edi
    1654:	56                   	push   %esi
    1655:	53                   	push   %ebx
    1656:	83 ec 2c             	sub    $0x2c,%esp
    1659:	81 7d 0c fe 00 00 00 	cmpl   $0xfe,0xc(%ebp)
    1660:	0f 87 82 00 00 00    	ja     16e8 <pci_config_space_read_16+0x98>
    1666:	8b 45 08             	mov    0x8(%ebp),%eax
    1669:	89 04 24             	mov    %eax,(%esp)
    166c:	e8 8f 26 00 00       	call   3d00 <ddf_fun_data_get>
    1671:	89 c3                	mov    %eax,%ebx
    1673:	8b 38                	mov    (%eax),%edi
    1675:	8d 4f 14             	lea    0x14(%edi),%ecx
    1678:	89 0c 24             	mov    %ecx,(%esp)
    167b:	89 4d e4             	mov    %ecx,-0x1c(%ebp)
    167e:	e8 dd db 00 00       	call   f260 <fibril_mutex_lock>
    1683:	8b 75 0c             	mov    0xc(%ebp),%esi
    1686:	8b 47 0c             	mov    0xc(%edi),%eax
    1689:	83 e6 03             	and    $0x3,%esi
    168c:	8b 53 08             	mov    0x8(%ebx),%edx
    168f:	01 c6                	add    %eax,%esi
    1691:	c1 e2 10             	shl    $0x10,%edx
    1694:	8b 43 0c             	mov    0xc(%ebx),%eax
    1697:	c1 e0 0b             	shl    $0xb,%eax
    169a:	09 c2                	or     %eax,%edx
    169c:	8b 43 10             	mov    0x10(%ebx),%eax
    169f:	c1 e0 08             	shl    $0x8,%eax
    16a2:	81 ca 00 00 00 80    	or     $0x80000000,%edx
    16a8:	09 c2                	or     %eax,%edx
    16aa:	8b 45 0c             	mov    0xc(%ebp),%eax
    16ad:	83 e0 fc             	and    $0xfffffffc,%eax
    16b0:	09 c2                	or     %eax,%edx
    16b2:	89 54 24 04          	mov    %edx,0x4(%esp)
    16b6:	8b 47 10             	mov    0x10(%edi),%eax
    16b9:	89 04 24             	mov    %eax,(%esp)
    16bc:	e8 cf 78 00 00       	call   8f90 <pio_write_32>
    16c1:	89 34 24             	mov    %esi,(%esp)
    16c4:	e8 57 79 00 00       	call   9020 <pio_read_16>
    16c9:	8b 4d e4             	mov    -0x1c(%ebp),%ecx
    16cc:	89 0c 24             	mov    %ecx,(%esp)
    16cf:	89 c3                	mov    %eax,%ebx
    16d1:	e8 aa dc 00 00       	call   f380 <fibril_mutex_unlock>
    16d6:	8b 55 10             	mov    0x10(%ebp),%edx
    16d9:	31 c0                	xor    %eax,%eax
    16db:	66 89 1a             	mov    %bx,(%edx)
    16de:	83 c4 2c             	add    $0x2c,%esp
    16e1:	5b                   	pop    %ebx
    16e2:	5e                   	pop    %esi
    16e3:	5f                   	pop    %edi
    16e4:	5d                   	pop    %ebp
    16e5:	c3                   	ret    
    16e6:	66 90                	xchg   %ax,%ax
    16e8:	b8 f2 ff ff ff       	mov    $0xfffffff2,%eax
    16ed:	eb ef                	jmp    16de <pci_config_space_read_16+0x8e>
    16ef:	90                   	nop

000016f0 <pci_conf_read_8>:
    16f0:	55                   	push   %ebp
    16f1:	89 e5                	mov    %esp,%ebp
    16f3:	57                   	push   %edi
    16f4:	56                   	push   %esi
    16f5:	53                   	push   %ebx
    16f6:	83 ec 2c             	sub    $0x2c,%esp
    16f9:	8b 5d 08             	mov    0x8(%ebp),%ebx
    16fc:	8b 3b                	mov    (%ebx),%edi
    16fe:	8d 57 14             	lea    0x14(%edi),%edx
    1701:	89 14 24             	mov    %edx,(%esp)
    1704:	89 55 e4             	mov    %edx,-0x1c(%ebp)
    1707:	e8 54 db 00 00       	call   f260 <fibril_mutex_lock>
    170c:	8b 75 0c             	mov    0xc(%ebp),%esi
    170f:	8b 47 0c             	mov    0xc(%edi),%eax
    1712:	83 e6 03             	and    $0x3,%esi
    1715:	8b 4b 0c             	mov    0xc(%ebx),%ecx
    1718:	01 c6                	add    %eax,%esi
    171a:	c1 e1 0b             	shl    $0xb,%ecx
    171d:	8b 43 08             	mov    0x8(%ebx),%eax
    1720:	c1 e0 10             	shl    $0x10,%eax
    1723:	09 c8                	or     %ecx,%eax
    1725:	8b 4b 10             	mov    0x10(%ebx),%ecx
    1728:	c1 e1 08             	shl    $0x8,%ecx
    172b:	0d 00 00 00 80       	or     $0x80000000,%eax
    1730:	09 c8                	or     %ecx,%eax
    1732:	8b 4d 0c             	mov    0xc(%ebp),%ecx
    1735:	83 e1 fc             	and    $0xfffffffc,%ecx
    1738:	09 c8                	or     %ecx,%eax
    173a:	89 44 24 04          	mov    %eax,0x4(%esp)
    173e:	8b 47 10             	mov    0x10(%edi),%eax
    1741:	89 04 24             	mov    %eax,(%esp)
    1744:	e8 47 78 00 00       	call   8f90 <pio_write_32>
    1749:	89 34 24             	mov    %esi,(%esp)
    174c:	e8 8f 78 00 00       	call   8fe0 <pio_read_8>
    1751:	8b 55 e4             	mov    -0x1c(%ebp),%edx
    1754:	89 14 24             	mov    %edx,(%esp)
    1757:	88 45 e4             	mov    %al,-0x1c(%ebp)
    175a:	e8 21 dc 00 00       	call   f380 <fibril_mutex_unlock>
    175f:	8a 45 e4             	mov    -0x1c(%ebp),%al
    1762:	83 c4 2c             	add    $0x2c,%esp
    1765:	5b                   	pop    %ebx
    1766:	5e                   	pop    %esi
    1767:	5f                   	pop    %edi
    1768:	5d                   	pop    %ebp
    1769:	c3                   	ret    
    176a:	8d b6 00 00 00 00    	lea    0x0(%esi),%esi

00001770 <pci_conf_read_16>:
    1770:	55                   	push   %ebp
    1771:	89 e5                	mov    %esp,%ebp
    1773:	57                   	push   %edi
    1774:	56                   	push   %esi
    1775:	53                   	push   %ebx
    1776:	83 ec 2c             	sub    $0x2c,%esp
    1779:	8b 5d 08             	mov    0x8(%ebp),%ebx
    177c:	8b 3b                	mov    (%ebx),%edi
    177e:	8d 57 14             	lea    0x14(%edi),%edx
    1781:	89 14 24             	mov    %edx,(%esp)
    1784:	89 55 e4             	mov    %edx,-0x1c(%ebp)
    1787:	e8 d4 da 00 00       	call   f260 <fibril_mutex_lock>
    178c:	8b 75 0c             	mov    0xc(%ebp),%esi
    178f:	8b 47 0c             	mov    0xc(%edi),%eax
    1792:	83 e6 03             	and    $0x3,%esi
    1795:	8b 4b 0c             	mov    0xc(%ebx),%ecx
    1798:	01 c6                	add    %eax,%esi
    179a:	c1 e1 0b             	shl    $0xb,%ecx
    179d:	8b 43 08             	mov    0x8(%ebx),%eax
    17a0:	c1 e0 10             	shl    $0x10,%eax
    17a3:	09 c8                	or     %ecx,%eax
    17a5:	8b 4b 10             	mov    0x10(%ebx),%ecx
    17a8:	c1 e1 08             	shl    $0x8,%ecx
    17ab:	0d 00 00 00 80       	or     $0x80000000,%eax
    17b0:	09 c8                	or     %ecx,%eax
    17b2:	8b 4d 0c             	mov    0xc(%ebp),%ecx
    17b5:	83 e1 fc             	and    $0xfffffffc,%ecx
    17b8:	09 c8                	or     %ecx,%eax
    17ba:	89 44 24 04          	mov    %eax,0x4(%esp)
    17be:	8b 47 10             	mov    0x10(%edi),%eax
    17c1:	89 04 24             	mov    %eax,(%esp)
    17c4:	e8 c7 77 00 00       	call   8f90 <pio_write_32>
    17c9:	89 34 24             	mov    %esi,(%esp)
    17cc:	e8 4f 78 00 00       	call   9020 <pio_read_16>
    17d1:	8b 55 e4             	mov    -0x1c(%ebp),%edx
    17d4:	89 14 24             	mov    %edx,(%esp)
    17d7:	89 c3                	mov    %eax,%ebx
    17d9:	e8 a2 db 00 00       	call   f380 <fibril_mutex_unlock>
    17de:	83 c4 2c             	add    $0x2c,%esp
    17e1:	89 d8                	mov    %ebx,%eax
    17e3:	5b                   	pop    %ebx
    17e4:	5e                   	pop    %esi
    17e5:	5f                   	pop    %edi
    17e6:	5d                   	pop    %ebp
    17e7:	c3                   	ret    
    17e8:	90                   	nop
    17e9:	8d b4 26 00 00 00 00 	lea    0x0(%esi,%eiz,1),%esi

000017f0 <pci_conf_read_32>:
    17f0:	55                   	push   %ebp
    17f1:	89 e5                	mov    %esp,%ebp
    17f3:	57                   	push   %edi
    17f4:	56                   	push   %esi
    17f5:	53                   	push   %ebx
    17f6:	83 ec 2c             	sub    $0x2c,%esp
    17f9:	8b 5d 08             	mov    0x8(%ebp),%ebx
    17fc:	8b 3b                	mov    (%ebx),%edi
    17fe:	8d 57 14             	lea    0x14(%edi),%edx
    1801:	89 14 24             	mov    %edx,(%esp)
    1804:	89 55 e4             	mov    %edx,-0x1c(%ebp)
    1807:	e8 54 da 00 00       	call   f260 <fibril_mutex_lock>
    180c:	8b 75 0c             	mov    0xc(%ebp),%esi
    180f:	8b 47 0c             	mov    0xc(%edi),%eax
    1812:	83 e6 03             	and    $0x3,%esi
    1815:	8b 4b 0c             	mov    0xc(%ebx),%ecx
    1818:	01 c6                	add    %eax,%esi
    181a:	c1 e1 0b             	shl    $0xb,%ecx
    181d:	8b 43 08             	mov    0x8(%ebx),%eax
    1820:	c1 e0 10             	shl    $0x10,%eax
    1823:	09 c8                	or     %ecx,%eax
    1825:	8b 4b 10             	mov    0x10(%ebx),%ecx
    1828:	c1 e1 08             	shl    $0x8,%ecx
    182b:	0d 00 00 00 80       	or     $0x80000000,%eax
    1830:	09 c8                	or     %ecx,%eax
    1832:	8b 4d 0c             	mov    0xc(%ebp),%ecx
    1835:	83 e1 fc             	and    $0xfffffffc,%ecx
    1838:	09 c8                	or     %ecx,%eax
    183a:	89 44 24 04          	mov    %eax,0x4(%esp)
    183e:	8b 47 10             	mov    0x10(%edi),%eax
    1841:	89 04 24             	mov    %eax,(%esp)
    1844:	e8 47 77 00 00       	call   8f90 <pio_write_32>
    1849:	89 34 24             	mov    %esi,(%esp)
    184c:	e8 0f 78 00 00       	call   9060 <pio_read_32>
    1851:	8b 55 e4             	mov    -0x1c(%ebp),%edx
    1854:	89 14 24             	mov    %edx,(%esp)
    1857:	89 45 e4             	mov    %eax,-0x1c(%ebp)
    185a:	e8 21 db 00 00       	call   f380 <fibril_mutex_unlock>
    185f:	8b 45 e4             	mov    -0x1c(%ebp),%eax
    1862:	83 c4 2c             	add    $0x2c,%esp
    1865:	5b                   	pop    %ebx
    1866:	5e                   	pop    %esi
    1867:	5f                   	pop    %edi
    1868:	5d                   	pop    %ebp
    1869:	c3                   	ret    
    186a:	8d b6 00 00 00 00    	lea    0x0(%esi),%esi

00001870 <pci_conf_write_8>:
    1870:	55                   	push   %ebp
    1871:	89 e5                	mov    %esp,%ebp
    1873:	57                   	push   %edi
    1874:	56                   	push   %esi
    1875:	53                   	push   %ebx
    1876:	83 ec 2c             	sub    $0x2c,%esp
    1879:	8b 5d 08             	mov    0x8(%ebp),%ebx
    187c:	8b 45 0c             	mov    0xc(%ebp),%eax
    187f:	89 45 e4             	mov    %eax,-0x1c(%ebp)
    1882:	8a 45 10             	mov    0x10(%ebp),%al
    1885:	8b 3b                	mov    (%ebx),%edi
    1887:	88 45 e3             	mov    %al,-0x1d(%ebp)
    188a:	8d 4f 14             	lea    0x14(%edi),%ecx
    188d:	89 0c 24             	mov    %ecx,(%esp)
    1890:	89 4d dc             	mov    %ecx,-0x24(%ebp)
    1893:	e8 c8 d9 00 00       	call   f260 <fibril_mutex_lock>
    1898:	8b 75 e4             	mov    -0x1c(%ebp),%esi
    189b:	8b 47 0c             	mov    0xc(%edi),%eax
    189e:	83 e6 03             	and    $0x3,%esi
    18a1:	8b 53 0c             	mov    0xc(%ebx),%edx
    18a4:	01 c6                	add    %eax,%esi
    18a6:	c1 e2 0b             	shl    $0xb,%edx
    18a9:	8b 43 08             	mov    0x8(%ebx),%eax
    18ac:	c1 e0 10             	shl    $0x10,%eax
    18af:	09 d0                	or     %edx,%eax
    18b1:	8b 53 10             	mov    0x10(%ebx),%edx
    18b4:	c1 e2 08             	shl    $0x8,%edx
    18b7:	0d 00 00 00 80       	or     $0x80000000,%eax
    18bc:	09 d0                	or     %edx,%eax
    18be:	8b 55 e4             	mov    -0x1c(%ebp),%edx
    18c1:	83 e2 fc             	and    $0xfffffffc,%edx
    18c4:	09 d0                	or     %edx,%eax
    18c6:	89 44 24 04          	mov    %eax,0x4(%esp)
    18ca:	8b 47 10             	mov    0x10(%edi),%eax
    18cd:	89 04 24             	mov    %eax,(%esp)
    18d0:	e8 bb 76 00 00       	call   8f90 <pio_write_32>
    18d5:	31 c0                	xor    %eax,%eax
    18d7:	8a 45 e3             	mov    -0x1d(%ebp),%al
    18da:	89 34 24             	mov    %esi,(%esp)
    18dd:	89 44 24 04          	mov    %eax,0x4(%esp)
    18e1:	e8 0a 76 00 00       	call   8ef0 <pio_write_8>
    18e6:	8b 4d dc             	mov    -0x24(%ebp),%ecx
    18e9:	89 4d 08             	mov    %ecx,0x8(%ebp)
    18ec:	83 c4 2c             	add    $0x2c,%esp
    18ef:	5b                   	pop    %ebx
    18f0:	5e                   	pop    %esi
    18f1:	5f                   	pop    %edi
    18f2:	5d                   	pop    %ebp
    18f3:	e9 88 da 00 00       	jmp    f380 <fibril_mutex_unlock>
    18f8:	90                   	nop
    18f9:	8d b4 26 00 00 00 00 	lea    0x0(%esi,%eiz,1),%esi

00001900 <pci_conf_write_16>:
    1900:	55                   	push   %ebp
    1901:	89 e5                	mov    %esp,%ebp
    1903:	57                   	push   %edi
    1904:	56                   	push   %esi
    1905:	53                   	push   %ebx
    1906:	83 ec 2c             	sub    $0x2c,%esp
    1909:	8b 5d 08             	mov    0x8(%ebp),%ebx
    190c:	8b 45 0c             	mov    0xc(%ebp),%eax
    190f:	89 45 dc             	mov    %eax,-0x24(%ebp)
    1912:	8b 75 10             	mov    0x10(%ebp),%esi
    1915:	8b 3b                	mov    (%ebx),%edi
    1917:	8d 47 14             	lea    0x14(%edi),%eax
    191a:	89 04 24             	mov    %eax,(%esp)
    191d:	89 45 e0             	mov    %eax,-0x20(%ebp)
    1920:	e8 3b d9 00 00       	call   f260 <fibril_mutex_lock>
    1925:	8b 45 dc             	mov    -0x24(%ebp),%eax
    1928:	83 e0 03             	and    $0x3,%eax
    192b:	89 45 e4             	mov    %eax,-0x1c(%ebp)
    192e:	8b 47 0c             	mov    0xc(%edi),%eax
    1931:	8b 55 e4             	mov    -0x1c(%ebp),%edx
    1934:	01 c2                	add    %eax,%edx
    1936:	8b 43 08             	mov    0x8(%ebx),%eax
    1939:	c1 e0 10             	shl    $0x10,%eax
    193c:	89 55 e4             	mov    %edx,-0x1c(%ebp)
    193f:	8b 53 0c             	mov    0xc(%ebx),%edx
    1942:	c1 e2 0b             	shl    $0xb,%edx
    1945:	09 d0                	or     %edx,%eax
    1947:	8b 53 10             	mov    0x10(%ebx),%edx
    194a:	c1 e2 08             	shl    $0x8,%edx
    194d:	0d 00 00 00 80       	or     $0x80000000,%eax
    1952:	09 d0                	or     %edx,%eax
    1954:	8b 55 dc             	mov    -0x24(%ebp),%edx
    1957:	83 e2 fc             	and    $0xfffffffc,%edx
    195a:	09 d0                	or     %edx,%eax
    195c:	89 44 24 04          	mov    %eax,0x4(%esp)
    1960:	8b 47 10             	mov    0x10(%edi),%eax
    1963:	89 04 24             	mov    %eax,(%esp)
    1966:	e8 25 76 00 00       	call   8f90 <pio_write_32>
    196b:	89 f1                	mov    %esi,%ecx
    196d:	8b 45 e4             	mov    -0x1c(%ebp),%eax
    1970:	81 e1 ff ff 00 00    	and    $0xffff,%ecx
    1976:	89 04 24             	mov    %eax,(%esp)
    1979:	89 4c 24 04          	mov    %ecx,0x4(%esp)
    197d:	e8 be 75 00 00       	call   8f40 <pio_write_16>
    1982:	8b 45 e0             	mov    -0x20(%ebp),%eax
    1985:	89 45 08             	mov    %eax,0x8(%ebp)
    1988:	83 c4 2c             	add    $0x2c,%esp
    198b:	5b                   	pop    %ebx
    198c:	5e                   	pop    %esi
    198d:	5f                   	pop    %edi
    198e:	5d                   	pop    %ebp
    198f:	e9 ec d9 00 00       	jmp    f380 <fibril_mutex_unlock>
    1994:	8d b6 00 00 00 00    	lea    0x0(%esi),%esi
    199a:	8d bf 00 00 00 00    	lea    0x0(%edi),%edi

000019a0 <pci_conf_write_32>:
    19a0:	55                   	push   %ebp
    19a1:	89 e5                	mov    %esp,%ebp
    19a3:	57                   	push   %edi
    19a4:	56                   	push   %esi
    19a5:	53                   	push   %ebx
    19a6:	83 ec 2c             	sub    $0x2c,%esp
    19a9:	8b 5d 08             	mov    0x8(%ebp),%ebx
    19ac:	8b 45 0c             	mov    0xc(%ebp),%eax
    19af:	89 45 e4             	mov    %eax,-0x1c(%ebp)
    19b2:	8b 45 10             	mov    0x10(%ebp),%eax
    19b5:	8b 3b                	mov    (%ebx),%edi
    19b7:	89 45 e0             	mov    %eax,-0x20(%ebp)
    19ba:	8d 4f 14             	lea    0x14(%edi),%ecx
    19bd:	89 0c 24             	mov    %ecx,(%esp)
    19c0:	89 4d dc             	mov    %ecx,-0x24(%ebp)
    19c3:	e8 98 d8 00 00       	call   f260 <fibril_mutex_lock>
    19c8:	8b 43 08             	mov    0x8(%ebx),%eax
    19cb:	8b 53 0c             	mov    0xc(%ebx),%edx
    19ce:	8b 4f 0c             	mov    0xc(%edi),%ecx
    19d1:	c1 e2 0b             	shl    $0xb,%edx
    19d4:	8b 75 e4             	mov    -0x1c(%ebp),%esi
    19d7:	c1 e0 10             	shl    $0x10,%eax
    19da:	83 e6 03             	and    $0x3,%esi
    19dd:	09 d0                	or     %edx,%eax
    19df:	8b 53 10             	mov    0x10(%ebx),%edx
    19e2:	c1 e2 08             	shl    $0x8,%edx
    19e5:	0d 00 00 00 80       	or     $0x80000000,%eax
    19ea:	09 d0                	or     %edx,%eax
    19ec:	8b 55 e4             	mov    -0x1c(%ebp),%edx
    19ef:	83 e2 fc             	and    $0xfffffffc,%edx
    19f2:	01 ce                	add    %ecx,%esi
    19f4:	09 d0                	or     %edx,%eax
    19f6:	89 44 24 04          	mov    %eax,0x4(%esp)
    19fa:	8b 47 10             	mov    0x10(%edi),%eax
    19fd:	89 04 24             	mov    %eax,(%esp)
    1a00:	e8 8b 75 00 00       	call   8f90 <pio_write_32>
    1a05:	8b 45 e0             	mov    -0x20(%ebp),%eax
    1a08:	89 34 24             	mov    %esi,(%esp)
    1a0b:	89 44 24 04          	mov    %eax,0x4(%esp)
    1a0f:	e8 7c 75 00 00       	call   8f90 <pio_write_32>
    1a14:	8b 4d dc             	mov    -0x24(%ebp),%ecx
    1a17:	89 4d 08             	mov    %ecx,0x8(%ebp)
    1a1a:	83 c4 2c             	add    $0x2c,%esp
    1a1d:	5b                   	pop    %ebx
    1a1e:	5e                   	pop    %esi
    1a1f:	5f                   	pop    %edi
    1a20:	5d                   	pop    %ebp
    1a21:	e9 5a d9 00 00       	jmp    f380 <fibril_mutex_unlock>
    1a26:	8d 76 00             	lea    0x0(%esi),%esi
    1a29:	8d bc 27 00 00 00 00 	lea    0x0(%edi,%eiz,1),%edi

00001a30 <pci_fun_create_match_ids>:
    1a30:	55                   	push   %ebp
    1a31:	89 e5                	mov    %esp,%ebp
    1a33:	56                   	push   %esi
    1a34:	53                   	push   %ebx
    1a35:	83 ec 60             	sub    $0x60,%esp
    1a38:	8d 75 c6             	lea    -0x3a(%ebp),%esi
    1a3b:	8b 5d 08             	mov    0x8(%ebp),%ebx
    1a3e:	8b 43 18             	mov    0x18(%ebx),%eax
    1a41:	89 44 24 10          	mov    %eax,0x10(%esp)
    1a45:	8b 43 14             	mov    0x14(%ebx),%eax
    1a48:	c7 44 24 08 96 76 02 	movl   $0x27696,0x8(%esp)
    1a4f:	00 
    1a50:	89 44 24 0c          	mov    %eax,0xc(%esp)
    1a54:	c7 44 24 04 32 00 00 	movl   $0x32,0x4(%esp)
    1a5b:	00 
    1a5c:	89 34 24             	mov    %esi,(%esp)
    1a5f:	e8 9c 1f 01 00       	call   13a00 <snprintf>
    1a64:	85 c0                	test   %eax,%eax
    1a66:	0f 88 34 02 00 00    	js     1ca0 <pci_fun_create_match_ids+0x270>
    1a6c:	c7 44 24 08 5a 00 00 	movl   $0x5a,0x8(%esp)
    1a73:	00 
    1a74:	89 74 24 04          	mov    %esi,0x4(%esp)
    1a78:	8b 43 04             	mov    0x4(%ebx),%eax
    1a7b:	89 04 24             	mov    %eax,(%esp)
    1a7e:	e8 dd 25 00 00       	call   4060 <ddf_fun_add_match_id>
    1a83:	85 c0                	test   %eax,%eax
    1a85:	0f 85 ed 01 00 00    	jne    1c78 <pci_fun_create_match_ids+0x248>
    1a8b:	31 c0                	xor    %eax,%eax
    1a8d:	8a 43 1f             	mov    0x1f(%ebx),%al
    1a90:	89 44 24 18          	mov    %eax,0x18(%esp)
    1a94:	31 c0                	xor    %eax,%eax
    1a96:	8a 43 1e             	mov    0x1e(%ebx),%al
    1a99:	89 44 24 14          	mov    %eax,0x14(%esp)
    1a9d:	31 c0                	xor    %eax,%eax
    1a9f:	8a 43 1d             	mov    0x1d(%ebx),%al
    1aa2:	89 44 24 10          	mov    %eax,0x10(%esp)
    1aa6:	31 c0                	xor    %eax,%eax
    1aa8:	8a 43 1c             	mov    0x1c(%ebx),%al
    1aab:	c7 44 24 08 44 78 02 	movl   $0x27844,0x8(%esp)
    1ab2:	00 
    1ab3:	89 44 24 0c          	mov    %eax,0xc(%esp)
    1ab7:	c7 44 24 04 32 00 00 	movl   $0x32,0x4(%esp)
    1abe:	00 
    1abf:	89 34 24             	mov    %esi,(%esp)
    1ac2:	e8 39 1f 01 00       	call   13a00 <snprintf>
    1ac7:	85 c0                	test   %eax,%eax
    1ac9:	0f 88 f9 01 00 00    	js     1cc8 <pci_fun_create_match_ids+0x298>
    1acf:	c7 44 24 08 46 00 00 	movl   $0x46,0x8(%esp)
    1ad6:	00 
    1ad7:	89 74 24 04          	mov    %esi,0x4(%esp)
    1adb:	8b 43 04             	mov    0x4(%ebx),%eax
    1ade:	89 04 24             	mov    %eax,(%esp)
    1ae1:	e8 7a 25 00 00       	call   4060 <ddf_fun_add_match_id>
    1ae6:	85 c0                	test   %eax,%eax
    1ae8:	0f 85 62 01 00 00    	jne    1c50 <pci_fun_create_match_ids+0x220>
    1aee:	31 c0                	xor    %eax,%eax
    1af0:	8a 43 1e             	mov    0x1e(%ebx),%al
    1af3:	89 44 24 14          	mov    %eax,0x14(%esp)
    1af7:	31 c0                	xor    %eax,%eax
    1af9:	8a 43 1d             	mov    0x1d(%ebx),%al
    1afc:	89 44 24 10          	mov    %eax,0x10(%esp)
    1b00:	31 c0                	xor    %eax,%eax
    1b02:	8a 43 1c             	mov    0x1c(%ebx),%al
    1b05:	c7 44 24 08 7c 78 02 	movl   $0x2787c,0x8(%esp)
    1b0c:	00 
    1b0d:	89 44 24 0c          	mov    %eax,0xc(%esp)
    1b11:	c7 44 24 04 32 00 00 	movl   $0x32,0x4(%esp)
    1b18:	00 
    1b19:	89 34 24             	mov    %esi,(%esp)
    1b1c:	e8 df 1e 01 00       	call   13a00 <snprintf>
    1b21:	85 c0                	test   %eax,%eax
    1b23:	0f 88 c7 01 00 00    	js     1cf0 <pci_fun_create_match_ids+0x2c0>
    1b29:	c7 44 24 08 3c 00 00 	movl   $0x3c,0x8(%esp)
    1b30:	00 
    1b31:	89 74 24 04          	mov    %esi,0x4(%esp)
    1b35:	8b 43 04             	mov    0x4(%ebx),%eax
    1b38:	89 04 24             	mov    %eax,(%esp)
    1b3b:	e8 20 25 00 00       	call   4060 <ddf_fun_add_match_id>
    1b40:	85 c0                	test   %eax,%eax
    1b42:	0f 85 e0 00 00 00    	jne    1c28 <pci_fun_create_match_ids+0x1f8>
    1b48:	31 c0                	xor    %eax,%eax
    1b4a:	8a 43 1d             	mov    0x1d(%ebx),%al
    1b4d:	89 44 24 10          	mov    %eax,0x10(%esp)
    1b51:	31 c0                	xor    %eax,%eax
    1b53:	8a 43 1c             	mov    0x1c(%ebx),%al
    1b56:	c7 44 24 08 c7 76 02 	movl   $0x276c7,0x8(%esp)
    1b5d:	00 
    1b5e:	89 44 24 0c          	mov    %eax,0xc(%esp)
    1b62:	c7 44 24 04 32 00 00 	movl   $0x32,0x4(%esp)
    1b69:	00 
    1b6a:	89 34 24             	mov    %esi,(%esp)
    1b6d:	e8 8e 1e 01 00       	call   13a00 <snprintf>
    1b72:	85 c0                	test   %eax,%eax
    1b74:	0f 88 9e 01 00 00    	js     1d18 <pci_fun_create_match_ids+0x2e8>
    1b7a:	c7 44 24 08 32 00 00 	movl   $0x32,0x8(%esp)
    1b81:	00 
    1b82:	89 74 24 04          	mov    %esi,0x4(%esp)
    1b86:	8b 43 04             	mov    0x4(%ebx),%eax
    1b89:	89 04 24             	mov    %eax,(%esp)
    1b8c:	e8 cf 24 00 00       	call   4060 <ddf_fun_add_match_id>
    1b91:	85 c0                	test   %eax,%eax
    1b93:	75 6b                	jne    1c00 <pci_fun_create_match_ids+0x1d0>
    1b95:	31 c0                	xor    %eax,%eax
    1b97:	8a 43 1c             	mov    0x1c(%ebx),%al
    1b9a:	c7 44 24 08 e4 76 02 	movl   $0x276e4,0x8(%esp)
    1ba1:	00 
    1ba2:	89 44 24 0c          	mov    %eax,0xc(%esp)
    1ba6:	c7 44 24 04 32 00 00 	movl   $0x32,0x4(%esp)
    1bad:	00 
    1bae:	89 34 24             	mov    %esi,(%esp)
    1bb1:	e8 4a 1e 01 00       	call   13a00 <snprintf>
    1bb6:	85 c0                	test   %eax,%eax
    1bb8:	0f 88 82 01 00 00    	js     1d40 <pci_fun_create_match_ids+0x310>
    1bbe:	c7 44 24 08 28 00 00 	movl   $0x28,0x8(%esp)
    1bc5:	00 
    1bc6:	89 74 24 04          	mov    %esi,0x4(%esp)
    1bca:	8b 43 04             	mov    0x4(%ebx),%eax
    1bcd:	89 04 24             	mov    %eax,(%esp)
    1bd0:	e8 8b 24 00 00       	call   4060 <ddf_fun_add_match_id>
    1bd5:	85 c0                	test   %eax,%eax
    1bd7:	74 20                	je     1bf9 <pci_fun_create_match_ids+0x1c9>
    1bd9:	89 04 24             	mov    %eax,(%esp)
    1bdc:	e8 8f cc 00 00       	call   e870 <str_error>
    1be1:	c7 44 24 04 ac 76 02 	movl   $0x276ac,0x4(%esp)
    1be8:	00 
    1be9:	89 44 24 08          	mov    %eax,0x8(%esp)
    1bed:	c7 04 24 01 00 00 00 	movl   $0x1,(%esp)
    1bf4:	e8 07 2a 00 00       	call   4600 <ddf_msg>
    1bf9:	83 c4 60             	add    $0x60,%esp
    1bfc:	5b                   	pop    %ebx
    1bfd:	5e                   	pop    %esi
    1bfe:	5d                   	pop    %ebp
    1bff:	c3                   	ret    
    1c00:	89 04 24             	mov    %eax,(%esp)
    1c03:	e8 68 cc 00 00       	call   e870 <str_error>
    1c08:	c7 44 24 04 ac 76 02 	movl   $0x276ac,0x4(%esp)
    1c0f:	00 
    1c10:	89 44 24 08          	mov    %eax,0x8(%esp)
    1c14:	c7 04 24 01 00 00 00 	movl   $0x1,(%esp)
    1c1b:	e8 e0 29 00 00       	call   4600 <ddf_msg>
    1c20:	e9 70 ff ff ff       	jmp    1b95 <pci_fun_create_match_ids+0x165>
    1c25:	8d 76 00             	lea    0x0(%esi),%esi
    1c28:	89 04 24             	mov    %eax,(%esp)
    1c2b:	e8 40 cc 00 00       	call   e870 <str_error>
    1c30:	c7 44 24 04 ac 76 02 	movl   $0x276ac,0x4(%esp)
    1c37:	00 
    1c38:	89 44 24 08          	mov    %eax,0x8(%esp)
    1c3c:	c7 04 24 01 00 00 00 	movl   $0x1,(%esp)
    1c43:	e8 b8 29 00 00       	call   4600 <ddf_msg>
    1c48:	e9 fb fe ff ff       	jmp    1b48 <pci_fun_create_match_ids+0x118>
    1c4d:	8d 76 00             	lea    0x0(%esi),%esi
    1c50:	89 04 24             	mov    %eax,(%esp)
    1c53:	e8 18 cc 00 00       	call   e870 <str_error>
    1c58:	c7 44 24 04 ac 76 02 	movl   $0x276ac,0x4(%esp)
    1c5f:	00 
    1c60:	89 44 24 08          	mov    %eax,0x8(%esp)
    1c64:	c7 04 24 01 00 00 00 	movl   $0x1,(%esp)
    1c6b:	e8 90 29 00 00       	call   4600 <ddf_msg>
    1c70:	e9 79 fe ff ff       	jmp    1aee <pci_fun_create_match_ids+0xbe>
    1c75:	8d 76 00             	lea    0x0(%esi),%esi
    1c78:	89 04 24             	mov    %eax,(%esp)
    1c7b:	e8 f0 cb 00 00       	call   e870 <str_error>
    1c80:	c7 44 24 04 ac 76 02 	movl   $0x276ac,0x4(%esp)
    1c87:	00 
    1c88:	89 44 24 08          	mov    %eax,0x8(%esp)
    1c8c:	c7 04 24 01 00 00 00 	movl   $0x1,(%esp)
    1c93:	e8 68 29 00 00       	call   4600 <ddf_msg>
    1c98:	e9 ee fd ff ff       	jmp    1a8b <pci_fun_create_match_ids+0x5b>
    1c9d:	8d 76 00             	lea    0x0(%esi),%esi
    1ca0:	89 04 24             	mov    %eax,(%esp)
    1ca3:	e8 c8 cb 00 00       	call   e870 <str_error>
    1ca8:	c7 44 24 04 20 78 02 	movl   $0x27820,0x4(%esp)
    1caf:	00 
    1cb0:	89 44 24 08          	mov    %eax,0x8(%esp)
    1cb4:	c7 04 24 01 00 00 00 	movl   $0x1,(%esp)
    1cbb:	e8 40 29 00 00       	call   4600 <ddf_msg>
    1cc0:	e9 a7 fd ff ff       	jmp    1a6c <pci_fun_create_match_ids+0x3c>
    1cc5:	8d 76 00             	lea    0x0(%esi),%esi
    1cc8:	89 04 24             	mov    %eax,(%esp)
    1ccb:	e8 a0 cb 00 00       	call   e870 <str_error>
    1cd0:	c7 44 24 04 20 78 02 	movl   $0x27820,0x4(%esp)
    1cd7:	00 
    1cd8:	89 44 24 08          	mov    %eax,0x8(%esp)
    1cdc:	c7 04 24 01 00 00 00 	movl   $0x1,(%esp)
    1ce3:	e8 18 29 00 00       	call   4600 <ddf_msg>
    1ce8:	e9 e2 fd ff ff       	jmp    1acf <pci_fun_create_match_ids+0x9f>
    1ced:	8d 76 00             	lea    0x0(%esi),%esi
    1cf0:	89 04 24             	mov    %eax,(%esp)
    1cf3:	e8 78 cb 00 00       	call   e870 <str_error>
    1cf8:	c7 44 24 04 20 78 02 	movl   $0x27820,0x4(%esp)
    1cff:	00 
    1d00:	89 44 24 08          	mov    %eax,0x8(%esp)
    1d04:	c7 04 24 01 00 00 00 	movl   $0x1,(%esp)
    1d0b:	e8 f0 28 00 00       	call   4600 <ddf_msg>
    1d10:	e9 14 fe ff ff       	jmp    1b29 <pci_fun_create_match_ids+0xf9>
    1d15:	8d 76 00             	lea    0x0(%esi),%esi
    1d18:	89 04 24             	mov    %eax,(%esp)
    1d1b:	e8 50 cb 00 00       	call   e870 <str_error>
    1d20:	c7 44 24 04 20 78 02 	movl   $0x27820,0x4(%esp)
    1d27:	00 
    1d28:	89 44 24 08          	mov    %eax,0x8(%esp)
    1d2c:	c7 04 24 01 00 00 00 	movl   $0x1,(%esp)
    1d33:	e8 c8 28 00 00       	call   4600 <ddf_msg>
    1d38:	e9 3d fe ff ff       	jmp    1b7a <pci_fun_create_match_ids+0x14a>
    1d3d:	8d 76 00             	lea    0x0(%esi),%esi
    1d40:	89 04 24             	mov    %eax,(%esp)
    1d43:	e8 28 cb 00 00       	call   e870 <str_error>
    1d48:	c7 44 24 04 20 78 02 	movl   $0x27820,0x4(%esp)
    1d4f:	00 
    1d50:	89 44 24 08          	mov    %eax,0x8(%esp)
    1d54:	c7 04 24 01 00 00 00 	movl   $0x1,(%esp)
    1d5b:	e8 a0 28 00 00       	call   4600 <ddf_msg>
    1d60:	e9 59 fe ff ff       	jmp    1bbe <pci_fun_create_match_ids+0x18e>
    1d65:	8d 74 26 00          	lea    0x0(%esi,%eiz,1),%esi
    1d69:	8d bc 27 00 00 00 00 	lea    0x0(%edi,%eiz,1),%edi

00001d70 <pci_add_range>:
    1d70:	55                   	push   %ebp
    1d71:	89 e5                	mov    %esp,%ebp
    1d73:	57                   	push   %edi
    1d74:	56                   	push   %esi
    1d75:	53                   	push   %ebx
    1d76:	83 ec 2c             	sub    $0x2c,%esp
    1d79:	8b 5d 08             	mov    0x8(%ebp),%ebx
    1d7c:	8a 4d 18             	mov    0x18(%ebp),%cl
    1d7f:	88 4d e7             	mov    %cl,-0x19(%ebp)
    1d82:	8b 45 0c             	mov    0xc(%ebp),%eax
    1d85:	8b 73 24             	mov    0x24(%ebx),%esi
    1d88:	8b 55 10             	mov    0x10(%ebp),%edx
    1d8b:	8b 4b 20             	mov    0x20(%ebx),%ecx
    1d8e:	85 f6                	test   %esi,%esi
    1d90:	74 5a                	je     1dec <pci_add_range+0x7c>
    1d92:	83 f9 07             	cmp    $0x7,%ecx
    1d95:	77 39                	ja     1dd0 <pci_add_range+0x60>
    1d97:	8d 3c 89             	lea    (%ecx,%ecx,4),%edi
    1d9a:	80 7d e7 00          	cmpb   $0x0,-0x19(%ebp)
    1d9e:	8d 34 be             	lea    (%esi,%edi,4),%esi
    1da1:	75 25                	jne    1dc8 <pci_add_range+0x58>
    1da3:	c7 06 02 00 00 00    	movl   $0x2,(%esi)
    1da9:	89 46 04             	mov    %eax,0x4(%esi)
    1dac:	89 56 08             	mov    %edx,0x8(%esi)
    1daf:	8b 45 14             	mov    0x14(%ebp),%eax
    1db2:	41                   	inc    %ecx
    1db3:	89 46 10             	mov    %eax,0x10(%esi)
    1db6:	c7 46 0c 00 00 00 00 	movl   $0x0,0xc(%esi)
    1dbd:	89 4b 20             	mov    %ecx,0x20(%ebx)
    1dc0:	83 c4 2c             	add    $0x2c,%esp
    1dc3:	5b                   	pop    %ebx
    1dc4:	5e                   	pop    %esi
    1dc5:	5f                   	pop    %edi
    1dc6:	5d                   	pop    %ebp
    1dc7:	c3                   	ret    
    1dc8:	c7 06 01 00 00 00    	movl   $0x1,(%esi)
    1dce:	eb d9                	jmp    1da9 <pci_add_range+0x39>
    1dd0:	c7 44 24 08 97 01 00 	movl   $0x197,0x8(%esp)
    1dd7:	00 
    1dd8:	c7 44 24 04 e2 7e 02 	movl   $0x27ee2,0x4(%esp)
    1ddf:	00 
    1de0:	c7 04 24 08 77 02 00 	movl   $0x27708,(%esp)
    1de7:	e8 c4 13 02 00       	call   231b0 <assert_abort>
    1dec:	c7 44 24 08 96 01 00 	movl   $0x196,0x8(%esp)
    1df3:	00 
    1df4:	c7 44 24 04 e2 7e 02 	movl   $0x27ee2,0x4(%esp)
    1dfb:	00 
    1dfc:	c7 04 24 f3 76 02 00 	movl   $0x276f3,(%esp)
    1e03:	e8 a8 13 02 00       	call   231b0 <assert_abort>
    1e08:	90                   	nop
    1e09:	8d b4 26 00 00 00 00 	lea    0x0(%esi,%eiz,1),%esi

00001e10 <pci_read_bar>:
    1e10:	55                   	push   %ebp
    1e11:	89 e5                	mov    %esp,%ebp
    1e13:	57                   	push   %edi
    1e14:	56                   	push   %esi
    1e15:	53                   	push   %ebx
    1e16:	83 ec 4c             	sub    $0x4c,%esp
    1e19:	8b 5d 08             	mov    0x8(%ebp),%ebx
    1e1c:	8b 33                	mov    (%ebx),%esi
    1e1e:	8d 7e 14             	lea    0x14(%esi),%edi
    1e21:	89 3c 24             	mov    %edi,(%esp)
    1e24:	e8 37 d4 00 00       	call   f260 <fibril_mutex_lock>
    1e29:	8b 4d 0c             	mov    0xc(%ebp),%ecx
    1e2c:	8b 46 0c             	mov    0xc(%esi),%eax
    1e2f:	83 e1 03             	and    $0x3,%ecx
    1e32:	89 4d d8             	mov    %ecx,-0x28(%ebp)
    1e35:	01 c1                	add    %eax,%ecx
    1e37:	89 4d e0             	mov    %ecx,-0x20(%ebp)
    1e3a:	8b 43 08             	mov    0x8(%ebx),%eax
    1e3d:	8b 4b 0c             	mov    0xc(%ebx),%ecx
    1e40:	8b 55 0c             	mov    0xc(%ebp),%edx
    1e43:	c1 e1 0b             	shl    $0xb,%ecx
    1e46:	83 e2 fc             	and    $0xfffffffc,%edx
    1e49:	c1 e0 10             	shl    $0x10,%eax
    1e4c:	89 55 e4             	mov    %edx,-0x1c(%ebp)
    1e4f:	09 c8                	or     %ecx,%eax
    1e51:	8b 4b 10             	mov    0x10(%ebx),%ecx
    1e54:	c1 e1 08             	shl    $0x8,%ecx
    1e57:	0d 00 00 00 80       	or     $0x80000000,%eax
    1e5c:	09 c8                	or     %ecx,%eax
    1e5e:	09 d0                	or     %edx,%eax
    1e60:	89 44 24 04          	mov    %eax,0x4(%esp)
    1e64:	8b 46 10             	mov    0x10(%esi),%eax
    1e67:	89 04 24             	mov    %eax,(%esp)
    1e6a:	e8 21 71 00 00       	call   8f90 <pio_write_32>
    1e6f:	8b 45 e0             	mov    -0x20(%ebp),%eax
    1e72:	89 04 24             	mov    %eax,(%esp)
    1e75:	e8 e6 71 00 00       	call   9060 <pio_read_32>
    1e7a:	89 3c 24             	mov    %edi,(%esp)
    1e7d:	89 45 e0             	mov    %eax,-0x20(%ebp)
    1e80:	e8 fb d4 00 00       	call   f380 <fibril_mutex_unlock>
    1e85:	8a 55 e0             	mov    -0x20(%ebp),%dl
    1e88:	83 e2 01             	and    $0x1,%edx
    1e8b:	88 55 d2             	mov    %dl,-0x2e(%ebp)
    1e8e:	0f 85 44 02 00 00    	jne    20d8 <pci_read_bar+0x2c8>
    1e94:	8b 45 e0             	mov    -0x20(%ebp),%eax
    1e97:	d1 e8                	shr    %eax
    1e99:	83 e0 03             	and    $0x3,%eax
    1e9c:	0f 85 16 02 00 00    	jne    20b8 <pci_read_bar+0x2a8>
    1ea2:	c6 45 d3 00          	movb   $0x0,-0x2d(%ebp)
    1ea6:	c7 45 d4 f0 ff ff ff 	movl   $0xfffffff0,-0x2c(%ebp)
    1ead:	8b 3b                	mov    (%ebx),%edi
    1eaf:	8d 77 14             	lea    0x14(%edi),%esi
    1eb2:	89 34 24             	mov    %esi,(%esp)
    1eb5:	e8 a6 d3 00 00       	call   f260 <fibril_mutex_lock>
    1eba:	8b 47 0c             	mov    0xc(%edi),%eax
    1ebd:	8b 4d d8             	mov    -0x28(%ebp),%ecx
    1ec0:	8b 53 0c             	mov    0xc(%ebx),%edx
    1ec3:	c1 e2 0b             	shl    $0xb,%edx
    1ec6:	01 c1                	add    %eax,%ecx
    1ec8:	8b 43 08             	mov    0x8(%ebx),%eax
    1ecb:	89 4d dc             	mov    %ecx,-0x24(%ebp)
    1ece:	c1 e0 10             	shl    $0x10,%eax
    1ed1:	09 d0                	or     %edx,%eax
    1ed3:	8b 53 10             	mov    0x10(%ebx),%edx
    1ed6:	c1 e2 08             	shl    $0x8,%edx
    1ed9:	0d 00 00 00 80       	or     $0x80000000,%eax
    1ede:	09 d0                	or     %edx,%eax
    1ee0:	8b 55 e4             	mov    -0x1c(%ebp),%edx
    1ee3:	09 d0                	or     %edx,%eax
    1ee5:	89 44 24 04          	mov    %eax,0x4(%esp)
    1ee9:	8b 47 10             	mov    0x10(%edi),%eax
    1eec:	89 04 24             	mov    %eax,(%esp)
    1eef:	e8 9c 70 00 00       	call   8f90 <pio_write_32>
    1ef4:	8b 45 dc             	mov    -0x24(%ebp),%eax
    1ef7:	89 04 24             	mov    %eax,(%esp)
    1efa:	c7 44 24 04 ff ff ff 	movl   $0xffffffff,0x4(%esp)
    1f01:	ff 
    1f02:	e8 89 70 00 00       	call   8f90 <pio_write_32>
    1f07:	89 34 24             	mov    %esi,(%esp)
    1f0a:	e8 71 d4 00 00       	call   f380 <fibril_mutex_unlock>
    1f0f:	8b 3b                	mov    (%ebx),%edi
    1f11:	8d 77 14             	lea    0x14(%edi),%esi
    1f14:	89 34 24             	mov    %esi,(%esp)
    1f17:	e8 44 d3 00 00       	call   f260 <fibril_mutex_lock>
    1f1c:	8b 4f 0c             	mov    0xc(%edi),%ecx
    1f1f:	8b 55 d8             	mov    -0x28(%ebp),%edx
    1f22:	8b 43 08             	mov    0x8(%ebx),%eax
    1f25:	c1 e0 10             	shl    $0x10,%eax
    1f28:	01 ca                	add    %ecx,%edx
    1f2a:	8b 4b 0c             	mov    0xc(%ebx),%ecx
    1f2d:	89 55 dc             	mov    %edx,-0x24(%ebp)
    1f30:	c1 e1 0b             	shl    $0xb,%ecx
    1f33:	8b 55 e4             	mov    -0x1c(%ebp),%edx
    1f36:	09 c8                	or     %ecx,%eax
    1f38:	8b 4b 10             	mov    0x10(%ebx),%ecx
    1f3b:	c1 e1 08             	shl    $0x8,%ecx
    1f3e:	0d 00 00 00 80       	or     $0x80000000,%eax
    1f43:	09 c8                	or     %ecx,%eax
    1f45:	09 d0                	or     %edx,%eax
    1f47:	89 44 24 04          	mov    %eax,0x4(%esp)
    1f4b:	8b 47 10             	mov    0x10(%edi),%eax
    1f4e:	89 04 24             	mov    %eax,(%esp)
    1f51:	e8 3a 70 00 00       	call   8f90 <pio_write_32>
    1f56:	8b 4d dc             	mov    -0x24(%ebp),%ecx
    1f59:	89 0c 24             	mov    %ecx,(%esp)
    1f5c:	e8 ff 70 00 00       	call   9060 <pio_read_32>
    1f61:	89 34 24             	mov    %esi,(%esp)
    1f64:	89 45 dc             	mov    %eax,-0x24(%ebp)
    1f67:	e8 14 d4 00 00       	call   f380 <fibril_mutex_unlock>
    1f6c:	8b 3b                	mov    (%ebx),%edi
    1f6e:	8b 55 d4             	mov    -0x2c(%ebp),%edx
    1f71:	8b 4d dc             	mov    -0x24(%ebp),%ecx
    1f74:	8d 77 14             	lea    0x14(%edi),%esi
    1f77:	21 d1                	and    %edx,%ecx
    1f79:	89 34 24             	mov    %esi,(%esp)
    1f7c:	89 4d dc             	mov    %ecx,-0x24(%ebp)
    1f7f:	e8 dc d2 00 00       	call   f260 <fibril_mutex_lock>
    1f84:	8b 47 0c             	mov    0xc(%edi),%eax
    1f87:	8b 4d d8             	mov    -0x28(%ebp),%ecx
    1f8a:	8b 53 0c             	mov    0xc(%ebx),%edx
    1f8d:	c1 e2 0b             	shl    $0xb,%edx
    1f90:	01 c1                	add    %eax,%ecx
    1f92:	8b 43 08             	mov    0x8(%ebx),%eax
    1f95:	89 4d d4             	mov    %ecx,-0x2c(%ebp)
    1f98:	c1 e0 10             	shl    $0x10,%eax
    1f9b:	09 d0                	or     %edx,%eax
    1f9d:	8b 53 10             	mov    0x10(%ebx),%edx
    1fa0:	c1 e2 08             	shl    $0x8,%edx
    1fa3:	0d 00 00 00 80       	or     $0x80000000,%eax
    1fa8:	09 d0                	or     %edx,%eax
    1faa:	8b 55 e4             	mov    -0x1c(%ebp),%edx
    1fad:	09 d0                	or     %edx,%eax
    1faf:	89 44 24 04          	mov    %eax,0x4(%esp)
    1fb3:	8b 47 10             	mov    0x10(%edi),%eax
    1fb6:	89 04 24             	mov    %eax,(%esp)
    1fb9:	e8 d2 6f 00 00       	call   8f90 <pio_write_32>
    1fbe:	8b 45 e0             	mov    -0x20(%ebp),%eax
    1fc1:	8b 55 d4             	mov    -0x2c(%ebp),%edx
    1fc4:	89 44 24 04          	mov    %eax,0x4(%esp)
    1fc8:	89 14 24             	mov    %edx,(%esp)
    1fcb:	e8 c0 6f 00 00       	call   8f90 <pio_write_32>
    1fd0:	89 34 24             	mov    %esi,(%esp)
    1fd3:	e8 a8 d3 00 00       	call   f380 <fibril_mutex_unlock>
    1fd8:	8b 3b                	mov    (%ebx),%edi
    1fda:	8d 77 14             	lea    0x14(%edi),%esi
    1fdd:	89 34 24             	mov    %esi,(%esp)
    1fe0:	e8 7b d2 00 00       	call   f260 <fibril_mutex_lock>
    1fe5:	8b 47 0c             	mov    0xc(%edi),%eax
    1fe8:	8b 4d d8             	mov    -0x28(%ebp),%ecx
    1feb:	8b 53 0c             	mov    0xc(%ebx),%edx
    1fee:	c1 e2 0b             	shl    $0xb,%edx
    1ff1:	01 c1                	add    %eax,%ecx
    1ff3:	8b 43 08             	mov    0x8(%ebx),%eax
    1ff6:	c1 e0 10             	shl    $0x10,%eax
    1ff9:	09 d0                	or     %edx,%eax
    1ffb:	8b 53 10             	mov    0x10(%ebx),%edx
    1ffe:	c1 e2 08             	shl    $0x8,%edx
    2001:	0d 00 00 00 80       	or     $0x80000000,%eax
    2006:	09 d0                	or     %edx,%eax
    2008:	8b 55 e4             	mov    -0x1c(%ebp),%edx
    200b:	09 d0                	or     %edx,%eax
    200d:	89 44 24 04          	mov    %eax,0x4(%esp)
    2011:	8b 47 10             	mov    0x10(%edi),%eax
    2014:	89 4d cc             	mov    %ecx,-0x34(%ebp)
    2017:	89 04 24             	mov    %eax,(%esp)
    201a:	e8 71 6f 00 00       	call   8f90 <pio_write_32>
    201f:	8b 4d cc             	mov    -0x34(%ebp),%ecx
    2022:	89 0c 24             	mov    %ecx,(%esp)
    2025:	e8 36 70 00 00       	call   9060 <pio_read_32>
    202a:	89 34 24             	mov    %esi,(%esp)
    202d:	89 c7                	mov    %eax,%edi
    202f:	e8 4c d3 00 00       	call   f380 <fibril_mutex_unlock>
    2034:	8b 4d dc             	mov    -0x24(%ebp),%ecx
    2037:	8b 45 dc             	mov    -0x24(%ebp),%eax
    203a:	f7 d9                	neg    %ecx
    203c:	21 c1                	and    %eax,%ecx
    203e:	89 4d e4             	mov    %ecx,-0x1c(%ebp)
    2041:	80 7d d3 00          	cmpb   $0x0,-0x2d(%ebp)
    2045:	0f 85 e5 00 00 00    	jne    2130 <pci_read_bar+0x320>
    204b:	83 e7 f0             	and    $0xfffffff0,%edi
    204e:	31 f6                	xor    %esi,%esi
    2050:	89 f1                	mov    %esi,%ecx
    2052:	09 f9                	or     %edi,%ecx
    2054:	0f 85 9e 00 00 00    	jne    20f8 <pci_read_bar+0x2e8>
    205a:	8b 43 24             	mov    0x24(%ebx),%eax
    205d:	8b 53 20             	mov    0x20(%ebx),%edx
    2060:	85 c0                	test   %eax,%eax
    2062:	0f 84 41 01 00 00    	je     21a9 <pci_read_bar+0x399>
    2068:	83 fa 07             	cmp    $0x7,%edx
    206b:	0f 87 54 01 00 00    	ja     21c5 <pci_read_bar+0x3b5>
    2071:	8d 0c 92             	lea    (%edx,%edx,4),%ecx
    2074:	80 7d d2 00          	cmpb   $0x0,-0x2e(%ebp)
    2078:	8d 04 88             	lea    (%eax,%ecx,4),%eax
    207b:	75 53                	jne    20d0 <pci_read_bar+0x2c0>
    207d:	c7 00 02 00 00 00    	movl   $0x2,(%eax)
    2083:	89 78 04             	mov    %edi,0x4(%eax)
    2086:	89 70 08             	mov    %esi,0x8(%eax)
    2089:	8b 4d e4             	mov    -0x1c(%ebp),%ecx
    208c:	c7 40 0c 00 00 00 00 	movl   $0x0,0xc(%eax)
    2093:	89 48 10             	mov    %ecx,0x10(%eax)
    2096:	42                   	inc    %edx
    2097:	8b 45 0c             	mov    0xc(%ebp),%eax
    209a:	89 53 20             	mov    %edx,0x20(%ebx)
    209d:	83 c0 04             	add    $0x4,%eax
    20a0:	80 7d d3 00          	cmpb   $0x0,-0x2d(%ebp)
    20a4:	74 1d                	je     20c3 <pci_read_bar+0x2b3>
    20a6:	8b 45 0c             	mov    0xc(%ebp),%eax
    20a9:	83 c4 4c             	add    $0x4c,%esp
    20ac:	83 c0 08             	add    $0x8,%eax
    20af:	5b                   	pop    %ebx
    20b0:	5e                   	pop    %esi
    20b1:	5f                   	pop    %edi
    20b2:	5d                   	pop    %ebp
    20b3:	c3                   	ret    
    20b4:	8d 74 26 00          	lea    0x0(%esi,%eiz,1),%esi
    20b8:	83 f8 02             	cmp    $0x2,%eax
    20bb:	74 2b                	je     20e8 <pci_read_bar+0x2d8>
    20bd:	8b 45 0c             	mov    0xc(%ebp),%eax
    20c0:	83 c0 04             	add    $0x4,%eax
    20c3:	83 c4 4c             	add    $0x4c,%esp
    20c6:	5b                   	pop    %ebx
    20c7:	5e                   	pop    %esi
    20c8:	5f                   	pop    %edi
    20c9:	5d                   	pop    %ebp
    20ca:	c3                   	ret    
    20cb:	90                   	nop
    20cc:	8d 74 26 00          	lea    0x0(%esi,%eiz,1),%esi
    20d0:	c7 00 01 00 00 00    	movl   $0x1,(%eax)
    20d6:	eb ab                	jmp    2083 <pci_read_bar+0x273>
    20d8:	c6 45 d3 00          	movb   $0x0,-0x2d(%ebp)
    20dc:	c7 45 d4 fc ff ff ff 	movl   $0xfffffffc,-0x2c(%ebp)
    20e3:	e9 c5 fd ff ff       	jmp    1ead <pci_read_bar+0x9d>
    20e8:	c6 45 d3 01          	movb   $0x1,-0x2d(%ebp)
    20ec:	c7 45 d4 f0 ff ff ff 	movl   $0xfffffff0,-0x2c(%ebp)
    20f3:	e9 b5 fd ff ff       	jmp    1ead <pci_read_bar+0x9d>
    20f8:	8b 43 04             	mov    0x4(%ebx),%eax
    20fb:	89 04 24             	mov    %eax,(%esp)
    20fe:	e8 0d 1c 00 00       	call   3d10 <ddf_fun_get_name>
    2103:	8b 55 e4             	mov    -0x1c(%ebp),%edx
    2106:	89 54 24 14          	mov    %edx,0x14(%esp)
    210a:	89 7c 24 0c          	mov    %edi,0xc(%esp)
    210e:	89 74 24 10          	mov    %esi,0x10(%esp)
    2112:	89 44 24 08          	mov    %eax,0x8(%esp)
    2116:	c7 44 24 04 a8 78 02 	movl   $0x278a8,0x4(%esp)
    211d:	00 
    211e:	c7 04 24 04 00 00 00 	movl   $0x4,(%esp)
    2125:	e8 d6 24 00 00       	call   4600 <ddf_msg>
    212a:	e9 2b ff ff ff       	jmp    205a <pci_read_bar+0x24a>
    212f:	90                   	nop
    2130:	8b 33                	mov    (%ebx),%esi
    2132:	8b 55 0c             	mov    0xc(%ebp),%edx
    2135:	83 c2 04             	add    $0x4,%edx
    2138:	83 e7 f0             	and    $0xfffffff0,%edi
    213b:	8d 4e 14             	lea    0x14(%esi),%ecx
    213e:	89 55 d8             	mov    %edx,-0x28(%ebp)
    2141:	89 0c 24             	mov    %ecx,(%esp)
    2144:	89 4d e0             	mov    %ecx,-0x20(%ebp)
    2147:	e8 14 d1 00 00       	call   f260 <fibril_mutex_lock>
    214c:	8b 4d d8             	mov    -0x28(%ebp),%ecx
    214f:	8b 46 0c             	mov    0xc(%esi),%eax
    2152:	83 e1 03             	and    $0x3,%ecx
    2155:	8b 53 0c             	mov    0xc(%ebx),%edx
    2158:	01 c1                	add    %eax,%ecx
    215a:	c1 e2 0b             	shl    $0xb,%edx
    215d:	8b 43 08             	mov    0x8(%ebx),%eax
    2160:	c1 e0 10             	shl    $0x10,%eax
    2163:	09 d0                	or     %edx,%eax
    2165:	8b 53 10             	mov    0x10(%ebx),%edx
    2168:	c1 e2 08             	shl    $0x8,%edx
    216b:	0d 00 00 00 80       	or     $0x80000000,%eax
    2170:	09 d0                	or     %edx,%eax
    2172:	8b 55 d8             	mov    -0x28(%ebp),%edx
    2175:	83 e2 fc             	and    $0xfffffffc,%edx
    2178:	09 d0                	or     %edx,%eax
    217a:	89 44 24 04          	mov    %eax,0x4(%esp)
    217e:	8b 46 10             	mov    0x10(%esi),%eax
    2181:	89 4d cc             	mov    %ecx,-0x34(%ebp)
    2184:	89 04 24             	mov    %eax,(%esp)
    2187:	e8 04 6e 00 00       	call   8f90 <pio_write_32>
    218c:	8b 4d cc             	mov    -0x34(%ebp),%ecx
    218f:	89 0c 24             	mov    %ecx,(%esp)
    2192:	e8 c9 6e 00 00       	call   9060 <pio_read_32>
    2197:	8b 55 e0             	mov    -0x20(%ebp),%edx
    219a:	89 14 24             	mov    %edx,(%esp)
    219d:	89 c6                	mov    %eax,%esi
    219f:	e8 dc d1 00 00       	call   f380 <fibril_mutex_unlock>
    21a4:	e9 a7 fe ff ff       	jmp    2050 <pci_read_bar+0x240>
    21a9:	c7 44 24 08 96 01 00 	movl   $0x196,0x8(%esp)
    21b0:	00 
    21b1:	c7 44 24 04 e2 7e 02 	movl   $0x27ee2,0x4(%esp)
    21b8:	00 
    21b9:	c7 04 24 f3 76 02 00 	movl   $0x276f3,(%esp)
    21c0:	e8 eb 0f 02 00       	call   231b0 <assert_abort>
    21c5:	c7 44 24 08 97 01 00 	movl   $0x197,0x8(%esp)
    21cc:	00 
    21cd:	c7 44 24 04 e2 7e 02 	movl   $0x27ee2,0x4(%esp)
    21d4:	00 
    21d5:	c7 04 24 08 77 02 00 	movl   $0x27708,(%esp)
    21dc:	e8 cf 0f 02 00       	call   231b0 <assert_abort>
    21e1:	eb 0d                	jmp    21f0 <pci_add_interrupt>
    21e3:	90                   	nop
    21e4:	90                   	nop
    21e5:	90                   	nop
    21e6:	90                   	nop
    21e7:	90                   	nop
    21e8:	90                   	nop
    21e9:	90                   	nop
    21ea:	90                   	nop
    21eb:	90                   	nop
    21ec:	90                   	nop
    21ed:	90                   	nop
    21ee:	90                   	nop
    21ef:	90                   	nop

000021f0 <pci_add_interrupt>:
    21f0:	55                   	push   %ebp
    21f1:	89 e5                	mov    %esp,%ebp
    21f3:	56                   	push   %esi
    21f4:	53                   	push   %ebx
    21f5:	83 ec 10             	sub    $0x10,%esp
    21f8:	8b 45 08             	mov    0x8(%ebp),%eax
    21fb:	8b 5d 0c             	mov    0xc(%ebp),%ebx
    21fe:	8b 48 24             	mov    0x24(%eax),%ecx
    2201:	8b 50 20             	mov    0x20(%eax),%edx
    2204:	85 c9                	test   %ecx,%ecx
    2206:	74 46                	je     224e <pci_add_interrupt+0x5e>
    2208:	83 fa 07             	cmp    $0x7,%edx
    220b:	77 5d                	ja     226a <pci_add_interrupt+0x7a>
    220d:	8d 34 92             	lea    (%edx,%edx,4),%esi
    2210:	42                   	inc    %edx
    2211:	8d 0c b1             	lea    (%ecx,%esi,4),%ecx
    2214:	89 59 04             	mov    %ebx,0x4(%ecx)
    2217:	c7 01 00 00 00 00    	movl   $0x0,(%ecx)
    221d:	89 50 20             	mov    %edx,0x20(%eax)
    2220:	8b 40 04             	mov    0x4(%eax),%eax
    2223:	89 04 24             	mov    %eax,(%esp)
    2226:	e8 e5 1a 00 00       	call   3d10 <ddf_fun_get_name>
    222b:	89 5c 24 0c          	mov    %ebx,0xc(%esp)
    222f:	89 44 24 08          	mov    %eax,0x8(%esp)
    2233:	c7 44 24 04 34 77 02 	movl   $0x27734,0x4(%esp)
    223a:	00 
    223b:	c7 04 24 03 00 00 00 	movl   $0x3,(%esp)
    2242:	e8 b9 23 00 00       	call   4600 <ddf_msg>
    2247:	83 c4 10             	add    $0x10,%esp
    224a:	5b                   	pop    %ebx
    224b:	5e                   	pop    %esi
    224c:	5d                   	pop    %ebp
    224d:	c3                   	ret    
    224e:	c7 44 24 08 fc 01 00 	movl   $0x1fc,0x8(%esp)
    2255:	00 
    2256:	c7 44 24 04 e2 7e 02 	movl   $0x27ee2,0x4(%esp)
    225d:	00 
    225e:	c7 04 24 1f 77 02 00 	movl   $0x2771f,(%esp)
    2265:	e8 46 0f 02 00       	call   231b0 <assert_abort>
    226a:	c7 44 24 08 fd 01 00 	movl   $0x1fd,0x8(%esp)
    2271:	00 
    2272:	c7 44 24 04 e2 7e 02 	movl   $0x27ee2,0x4(%esp)
    2279:	00 
    227a:	c7 04 24 08 77 02 00 	movl   $0x27708,(%esp)
    2281:	e8 2a 0f 02 00       	call   231b0 <assert_abort>
    2286:	8d 76 00             	lea    0x0(%esi),%esi
    2289:	8d bc 27 00 00 00 00 	lea    0x0(%edi,%eiz,1),%edi

00002290 <pci_read_interrupt>:
    2290:	55                   	push   %ebp
    2291:	89 e5                	mov    %esp,%ebp
    2293:	57                   	push   %edi
    2294:	56                   	push   %esi
    2295:	53                   	push   %ebx
    2296:	83 ec 2c             	sub    $0x2c,%esp
    2299:	8b 5d 08             	mov    0x8(%ebp),%ebx
    229c:	8b 33                	mov    (%ebx),%esi
    229e:	8d 7e 14             	lea    0x14(%esi),%edi
    22a1:	89 3c 24             	mov    %edi,(%esp)
    22a4:	e8 b7 cf 00 00       	call   f260 <fibril_mutex_lock>
    22a9:	8b 43 08             	mov    0x8(%ebx),%eax
    22ac:	8b 53 0c             	mov    0xc(%ebx),%edx
    22af:	8b 4e 0c             	mov    0xc(%esi),%ecx
    22b2:	c1 e2 0b             	shl    $0xb,%edx
    22b5:	c1 e0 10             	shl    $0x10,%eax
    22b8:	09 d0                	or     %edx,%eax
    22ba:	8b 53 10             	mov    0x10(%ebx),%edx
    22bd:	c1 e2 08             	shl    $0x8,%edx
    22c0:	0d 3c 00 00 80       	or     $0x8000003c,%eax
    22c5:	09 d0                	or     %edx,%eax
    22c7:	89 44 24 04          	mov    %eax,0x4(%esp)
    22cb:	8b 46 10             	mov    0x10(%esi),%eax
    22ce:	89 4d e4             	mov    %ecx,-0x1c(%ebp)
    22d1:	89 04 24             	mov    %eax,(%esp)
    22d4:	e8 b7 6c 00 00       	call   8f90 <pio_write_32>
    22d9:	8b 4d e4             	mov    -0x1c(%ebp),%ecx
    22dc:	89 0c 24             	mov    %ecx,(%esp)
    22df:	e8 fc 6c 00 00       	call   8fe0 <pio_read_8>
    22e4:	89 3c 24             	mov    %edi,(%esp)
    22e7:	88 45 e4             	mov    %al,-0x1c(%ebp)
    22ea:	e8 91 d0 00 00       	call   f380 <fibril_mutex_unlock>
    22ef:	8a 45 e4             	mov    -0x1c(%ebp),%al
    22f2:	3c ff                	cmp    $0xff,%al
    22f4:	74 50                	je     2346 <pci_read_interrupt+0xb6>
    22f6:	25 ff 00 00 00       	and    $0xff,%eax
    22fb:	8b 53 20             	mov    0x20(%ebx),%edx
    22fe:	89 c6                	mov    %eax,%esi
    2300:	8b 43 24             	mov    0x24(%ebx),%eax
    2303:	85 c0                	test   %eax,%eax
    2305:	74 47                	je     234e <pci_read_interrupt+0xbe>
    2307:	83 fa 07             	cmp    $0x7,%edx
    230a:	77 5e                	ja     236a <pci_read_interrupt+0xda>
    230c:	8d 0c 92             	lea    (%edx,%edx,4),%ecx
    230f:	42                   	inc    %edx
    2310:	8d 04 88             	lea    (%eax,%ecx,4),%eax
    2313:	89 70 04             	mov    %esi,0x4(%eax)
    2316:	c7 00 00 00 00 00    	movl   $0x0,(%eax)
    231c:	8b 43 04             	mov    0x4(%ebx),%eax
    231f:	89 53 20             	mov    %edx,0x20(%ebx)
    2322:	89 04 24             	mov    %eax,(%esp)
    2325:	e8 e6 19 00 00       	call   3d10 <ddf_fun_get_name>
    232a:	89 74 24 0c          	mov    %esi,0xc(%esp)
    232e:	89 44 24 08          	mov    %eax,0x8(%esp)
    2332:	c7 44 24 04 34 77 02 	movl   $0x27734,0x4(%esp)
    2339:	00 
    233a:	c7 04 24 03 00 00 00 	movl   $0x3,(%esp)
    2341:	e8 ba 22 00 00       	call   4600 <ddf_msg>
    2346:	83 c4 2c             	add    $0x2c,%esp
    2349:	5b                   	pop    %ebx
    234a:	5e                   	pop    %esi
    234b:	5f                   	pop    %edi
    234c:	5d                   	pop    %ebp
    234d:	c3                   	ret    
    234e:	c7 44 24 08 fc 01 00 	movl   $0x1fc,0x8(%esp)
    2355:	00 
    2356:	c7 44 24 04 e2 7e 02 	movl   $0x27ee2,0x4(%esp)
    235d:	00 
    235e:	c7 04 24 1f 77 02 00 	movl   $0x2771f,(%esp)
    2365:	e8 46 0e 02 00       	call   231b0 <assert_abort>
    236a:	c7 44 24 08 fd 01 00 	movl   $0x1fd,0x8(%esp)
    2371:	00 
    2372:	c7 44 24 04 e2 7e 02 	movl   $0x27ee2,0x4(%esp)
    2379:	00 
    237a:	c7 04 24 08 77 02 00 	movl   $0x27708,(%esp)
    2381:	e8 2a 0e 02 00       	call   231b0 <assert_abort>
    2386:	8d 76 00             	lea    0x0(%esi),%esi
    2389:	8d bc 27 00 00 00 00 	lea    0x0(%edi,%eiz,1),%edi

00002390 <pci_bus_scan>:
    2390:	55                   	push   %ebp
    2391:	89 e5                	mov    %esp,%ebp
    2393:	57                   	push   %edi
    2394:	56                   	push   %esi
    2395:	53                   	push   %ebx
    2396:	83 ec 5c             	sub    $0x5c,%esp
    2399:	c7 45 cc 00 00 00 00 	movl   $0x0,-0x34(%ebp)
    23a0:	c6 45 cb 01          	movb   $0x1,-0x35(%ebp)
    23a4:	c7 45 d0 00 00 00 00 	movl   $0x0,-0x30(%ebp)
    23ab:	90                   	nop
    23ac:	8d 74 26 00          	lea    0x0(%esi,%eiz,1),%esi
    23b0:	8b 55 08             	mov    0x8(%ebp),%edx
    23b3:	c7 44 24 08 00 00 00 	movl   $0x0,0x8(%esp)
    23ba:	00 
    23bb:	c7 44 24 04 01 00 00 	movl   $0x1,0x4(%esp)
    23c2:	00 
    23c3:	8b 02                	mov    (%edx),%eax
    23c5:	89 04 24             	mov    %eax,(%esp)
    23c8:	e8 d3 17 00 00       	call   3ba0 <ddf_fun_create>
    23cd:	89 c3                	mov    %eax,%ebx
    23cf:	85 c0                	test   %eax,%eax
    23d1:	0f 84 e7 04 00 00    	je     28be <pci_bus_scan+0x52e>
    23d7:	c7 44 24 04 c8 00 00 	movl   $0xc8,0x4(%esp)
    23de:	00 
    23df:	89 04 24             	mov    %eax,(%esp)
    23e2:	e8 a9 18 00 00       	call   3c90 <ddf_fun_data_alloc>
    23e7:	89 c7                	mov    %eax,%edi
    23e9:	85 c0                	test   %eax,%eax
    23eb:	0f 84 cd 04 00 00    	je     28be <pci_bus_scan+0x52e>
    23f1:	8b 55 08             	mov    0x8(%ebp),%edx
    23f4:	89 58 04             	mov    %ebx,0x4(%eax)
    23f7:	89 10                	mov    %edx,(%eax)
    23f9:	8b 1f                	mov    (%edi),%ebx
    23fb:	8b 55 0c             	mov    0xc(%ebp),%edx
    23fe:	89 57 08             	mov    %edx,0x8(%edi)
    2401:	8b 55 cc             	mov    -0x34(%ebp),%edx
    2404:	8d 73 14             	lea    0x14(%ebx),%esi
    2407:	89 57 0c             	mov    %edx,0xc(%edi)
    240a:	8b 55 d0             	mov    -0x30(%ebp),%edx
    240d:	89 57 10             	mov    %edx,0x10(%edi)
    2410:	89 34 24             	mov    %esi,(%esp)
    2413:	e8 48 ce 00 00       	call   f260 <fibril_mutex_lock>
    2418:	8b 47 08             	mov    0x8(%edi),%eax
    241b:	8b 57 0c             	mov    0xc(%edi),%edx
    241e:	8b 4b 0c             	mov    0xc(%ebx),%ecx
    2421:	c1 e2 0b             	shl    $0xb,%edx
    2424:	c1 e0 10             	shl    $0x10,%eax
    2427:	09 d0                	or     %edx,%eax
    2429:	8b 57 10             	mov    0x10(%edi),%edx
    242c:	c1 e2 08             	shl    $0x8,%edx
    242f:	0d 00 00 00 80       	or     $0x80000000,%eax
    2434:	09 d0                	or     %edx,%eax
    2436:	89 44 24 04          	mov    %eax,0x4(%esp)
    243a:	8b 43 10             	mov    0x10(%ebx),%eax
    243d:	89 4d c4             	mov    %ecx,-0x3c(%ebp)
    2440:	89 04 24             	mov    %eax,(%esp)
    2443:	e8 48 6b 00 00       	call   8f90 <pio_write_32>
    2448:	8b 4d c4             	mov    -0x3c(%ebp),%ecx
    244b:	89 0c 24             	mov    %ecx,(%esp)
    244e:	e8 cd 6b 00 00       	call   9020 <pio_read_16>
    2453:	89 34 24             	mov    %esi,(%esp)
    2456:	89 c3                	mov    %eax,%ebx
    2458:	e8 23 cf 00 00       	call   f380 <fibril_mutex_unlock>
    245d:	8b 37                	mov    (%edi),%esi
    245f:	89 d8                	mov    %ebx,%eax
    2461:	25 ff ff 00 00       	and    $0xffff,%eax
    2466:	8d 56 14             	lea    0x14(%esi),%edx
    2469:	89 47 14             	mov    %eax,0x14(%edi)
    246c:	89 14 24             	mov    %edx,(%esp)
    246f:	89 55 c4             	mov    %edx,-0x3c(%ebp)
    2472:	e8 e9 cd 00 00       	call   f260 <fibril_mutex_lock>
    2477:	8b 47 08             	mov    0x8(%edi),%eax
    247a:	8b 4f 0c             	mov    0xc(%edi),%ecx
    247d:	8b 5e 0c             	mov    0xc(%esi),%ebx
    2480:	c1 e1 0b             	shl    $0xb,%ecx
    2483:	83 c3 02             	add    $0x2,%ebx
    2486:	c1 e0 10             	shl    $0x10,%eax
    2489:	09 c8                	or     %ecx,%eax
    248b:	8b 4f 10             	mov    0x10(%edi),%ecx
    248e:	c1 e1 08             	shl    $0x8,%ecx
    2491:	0d 00 00 00 80       	or     $0x80000000,%eax
    2496:	09 c8                	or     %ecx,%eax
    2498:	89 44 24 04          	mov    %eax,0x4(%esp)
    249c:	8b 46 10             	mov    0x10(%esi),%eax
    249f:	89 04 24             	mov    %eax,(%esp)
    24a2:	e8 e9 6a 00 00       	call   8f90 <pio_write_32>
    24a7:	89 1c 24             	mov    %ebx,(%esp)
    24aa:	e8 71 6b 00 00       	call   9020 <pio_read_16>
    24af:	8b 55 c4             	mov    -0x3c(%ebp),%edx
    24b2:	89 14 24             	mov    %edx,(%esp)
    24b5:	89 c3                	mov    %eax,%ebx
    24b7:	e8 c4 ce 00 00       	call   f380 <fibril_mutex_unlock>
    24bc:	8b 37                	mov    (%edi),%esi
    24be:	89 d8                	mov    %ebx,%eax
    24c0:	8d 56 14             	lea    0x14(%esi),%edx
    24c3:	25 ff ff 00 00       	and    $0xffff,%eax
    24c8:	89 47 18             	mov    %eax,0x18(%edi)
    24cb:	89 14 24             	mov    %edx,(%esp)
    24ce:	89 55 c4             	mov    %edx,-0x3c(%ebp)
    24d1:	e8 8a cd 00 00       	call   f260 <fibril_mutex_lock>
    24d6:	8b 47 08             	mov    0x8(%edi),%eax
    24d9:	8b 4f 0c             	mov    0xc(%edi),%ecx
    24dc:	c1 e1 0b             	shl    $0xb,%ecx
    24df:	8b 5e 0c             	mov    0xc(%esi),%ebx
    24e2:	c1 e0 10             	shl    $0x10,%eax
    24e5:	83 c3 03             	add    $0x3,%ebx
    24e8:	09 c8                	or     %ecx,%eax
    24ea:	8b 4f 10             	mov    0x10(%edi),%ecx
    24ed:	c1 e1 08             	shl    $0x8,%ecx
    24f0:	0d 08 00 00 80       	or     $0x80000008,%eax
    24f5:	09 c8                	or     %ecx,%eax
    24f7:	89 44 24 04          	mov    %eax,0x4(%esp)
    24fb:	8b 46 10             	mov    0x10(%esi),%eax
    24fe:	89 04 24             	mov    %eax,(%esp)
    2501:	e8 8a 6a 00 00       	call   8f90 <pio_write_32>
    2506:	89 1c 24             	mov    %ebx,(%esp)
    2509:	e8 d2 6a 00 00       	call   8fe0 <pio_read_8>
    250e:	8b 55 c4             	mov    -0x3c(%ebp),%edx
    2511:	89 14 24             	mov    %edx,(%esp)
    2514:	88 c3                	mov    %al,%bl
    2516:	e8 65 ce 00 00       	call   f380 <fibril_mutex_unlock>
    251b:	8b 37                	mov    (%edi),%esi
    251d:	8d 56 14             	lea    0x14(%esi),%edx
    2520:	88 5f 1c             	mov    %bl,0x1c(%edi)
    2523:	89 14 24             	mov    %edx,(%esp)
    2526:	89 55 c4             	mov    %edx,-0x3c(%ebp)
    2529:	e8 32 cd 00 00       	call   f260 <fibril_mutex_lock>
    252e:	8b 47 08             	mov    0x8(%edi),%eax
    2531:	8b 4f 0c             	mov    0xc(%edi),%ecx
    2534:	8b 5e 0c             	mov    0xc(%esi),%ebx
    2537:	c1 e1 0b             	shl    $0xb,%ecx
    253a:	83 c3 02             	add    $0x2,%ebx
    253d:	c1 e0 10             	shl    $0x10,%eax
    2540:	09 c8                	or     %ecx,%eax
    2542:	8b 4f 10             	mov    0x10(%edi),%ecx
    2545:	c1 e1 08             	shl    $0x8,%ecx
    2548:	0d 08 00 00 80       	or     $0x80000008,%eax
    254d:	09 c8                	or     %ecx,%eax
    254f:	89 44 24 04          	mov    %eax,0x4(%esp)
    2553:	8b 46 10             	mov    0x10(%esi),%eax
    2556:	89 04 24             	mov    %eax,(%esp)
    2559:	e8 32 6a 00 00       	call   8f90 <pio_write_32>
    255e:	89 1c 24             	mov    %ebx,(%esp)
    2561:	e8 7a 6a 00 00       	call   8fe0 <pio_read_8>
    2566:	8b 55 c4             	mov    -0x3c(%ebp),%edx
    2569:	89 14 24             	mov    %edx,(%esp)
    256c:	88 c3                	mov    %al,%bl
    256e:	e8 0d ce 00 00       	call   f380 <fibril_mutex_unlock>
    2573:	8b 37                	mov    (%edi),%esi
    2575:	8d 56 14             	lea    0x14(%esi),%edx
    2578:	88 5f 1d             	mov    %bl,0x1d(%edi)
    257b:	89 14 24             	mov    %edx,(%esp)
    257e:	89 55 c4             	mov    %edx,-0x3c(%ebp)
    2581:	e8 da cc 00 00       	call   f260 <fibril_mutex_lock>
    2586:	8b 47 08             	mov    0x8(%edi),%eax
    2589:	8b 4f 0c             	mov    0xc(%edi),%ecx
    258c:	8b 5e 0c             	mov    0xc(%esi),%ebx
    258f:	c1 e1 0b             	shl    $0xb,%ecx
    2592:	43                   	inc    %ebx
    2593:	c1 e0 10             	shl    $0x10,%eax
    2596:	09 c8                	or     %ecx,%eax
    2598:	8b 4f 10             	mov    0x10(%edi),%ecx
    259b:	c1 e1 08             	shl    $0x8,%ecx
    259e:	0d 08 00 00 80       	or     $0x80000008,%eax
    25a3:	09 c8                	or     %ecx,%eax
    25a5:	89 44 24 04          	mov    %eax,0x4(%esp)
    25a9:	8b 46 10             	mov    0x10(%esi),%eax
    25ac:	89 04 24             	mov    %eax,(%esp)
    25af:	e8 dc 69 00 00       	call   8f90 <pio_write_32>
    25b4:	89 1c 24             	mov    %ebx,(%esp)
    25b7:	e8 24 6a 00 00       	call   8fe0 <pio_read_8>
    25bc:	8b 55 c4             	mov    -0x3c(%ebp),%edx
    25bf:	88 c3                	mov    %al,%bl
    25c1:	89 14 24             	mov    %edx,(%esp)
    25c4:	e8 b7 cd 00 00       	call   f380 <fibril_mutex_unlock>
    25c9:	88 5f 1e             	mov    %bl,0x1e(%edi)
    25cc:	8b 1f                	mov    (%edi),%ebx
    25ce:	8d 73 14             	lea    0x14(%ebx),%esi
    25d1:	89 34 24             	mov    %esi,(%esp)
    25d4:	e8 87 cc 00 00       	call   f260 <fibril_mutex_lock>
    25d9:	8b 47 08             	mov    0x8(%edi),%eax
    25dc:	8b 57 0c             	mov    0xc(%edi),%edx
    25df:	8b 4b 0c             	mov    0xc(%ebx),%ecx
    25e2:	c1 e2 0b             	shl    $0xb,%edx
    25e5:	c1 e0 10             	shl    $0x10,%eax
    25e8:	09 d0                	or     %edx,%eax
    25ea:	8b 57 10             	mov    0x10(%edi),%edx
    25ed:	c1 e2 08             	shl    $0x8,%edx
    25f0:	0d 08 00 00 80       	or     $0x80000008,%eax
    25f5:	09 d0                	or     %edx,%eax
    25f7:	89 44 24 04          	mov    %eax,0x4(%esp)
    25fb:	8b 43 10             	mov    0x10(%ebx),%eax
    25fe:	89 4d c4             	mov    %ecx,-0x3c(%ebp)
    2601:	89 04 24             	mov    %eax,(%esp)
    2604:	e8 87 69 00 00       	call   8f90 <pio_write_32>
    2609:	8b 4d c4             	mov    -0x3c(%ebp),%ecx
    260c:	89 0c 24             	mov    %ecx,(%esp)
    260f:	e8 cc 69 00 00       	call   8fe0 <pio_read_8>
    2614:	89 34 24             	mov    %esi,(%esp)
    2617:	88 c3                	mov    %al,%bl
    2619:	e8 62 cd 00 00       	call   f380 <fibril_mutex_unlock>
    261e:	88 5f 1f             	mov    %bl,0x1f(%edi)
    2621:	81 7f 14 ff ff 00 00 	cmpl   $0xffff,0x14(%edi)
    2628:	0f 84 22 02 00 00    	je     2850 <pci_bus_scan+0x4c0>
    262e:	8b 37                	mov    (%edi),%esi
    2630:	8d 5e 14             	lea    0x14(%esi),%ebx
    2633:	89 1c 24             	mov    %ebx,(%esp)
    2636:	e8 25 cc 00 00       	call   f260 <fibril_mutex_lock>
    263b:	8b 46 0c             	mov    0xc(%esi),%eax
    263e:	83 c0 02             	add    $0x2,%eax
    2641:	8b 4f 0c             	mov    0xc(%edi),%ecx
    2644:	c1 e1 0b             	shl    $0xb,%ecx
    2647:	89 45 d4             	mov    %eax,-0x2c(%ebp)
    264a:	8b 47 08             	mov    0x8(%edi),%eax
    264d:	c1 e0 10             	shl    $0x10,%eax
    2650:	09 c8                	or     %ecx,%eax
    2652:	8b 4f 10             	mov    0x10(%edi),%ecx
    2655:	c1 e1 08             	shl    $0x8,%ecx
    2658:	0d 0c 00 00 80       	or     $0x8000000c,%eax
    265d:	09 c8                	or     %ecx,%eax
    265f:	89 44 24 04          	mov    %eax,0x4(%esp)
    2663:	8b 46 10             	mov    0x10(%esi),%eax
    2666:	89 04 24             	mov    %eax,(%esp)
    2669:	e8 22 69 00 00       	call   8f90 <pio_write_32>
    266e:	8b 55 d4             	mov    -0x2c(%ebp),%edx
    2671:	89 14 24             	mov    %edx,(%esp)
    2674:	e8 67 69 00 00       	call   8fe0 <pio_read_8>
    2679:	89 1c 24             	mov    %ebx,(%esp)
    267c:	88 45 d4             	mov    %al,-0x2c(%ebp)
    267f:	e8 fc cc 00 00       	call   f380 <fibril_mutex_unlock>
    2684:	8b 45 d0             	mov    -0x30(%ebp),%eax
    2687:	85 c0                	test   %eax,%eax
    2689:	75 08                	jne    2693 <pci_bus_scan+0x303>
    268b:	80 7d d4 00          	cmpb   $0x0,-0x2c(%ebp)
    268f:	0f 98 45 cb          	sets   -0x35(%ebp)
    2693:	8b 47 10             	mov    0x10(%edi),%eax
    2696:	c7 45 e4 00 00 00 00 	movl   $0x0,-0x1c(%ebp)
    269d:	89 44 24 10          	mov    %eax,0x10(%esp)
    26a1:	8b 47 0c             	mov    0xc(%edi),%eax
    26a4:	89 44 24 0c          	mov    %eax,0xc(%esp)
    26a8:	8b 47 08             	mov    0x8(%edi),%eax
    26ab:	c7 44 24 04 4d 77 02 	movl   $0x2774d,0x4(%esp)
    26b2:	00 
    26b3:	89 44 24 08          	mov    %eax,0x8(%esp)
    26b7:	8d 45 e4             	lea    -0x1c(%ebp),%eax
    26ba:	89 04 24             	mov    %eax,(%esp)
    26bd:	e8 8e e6 00 00       	call   10d50 <asprintf>
    26c2:	8b 5d e4             	mov    -0x1c(%ebp),%ebx
    26c5:	85 db                	test   %ebx,%ebx
    26c7:	0f 84 d7 02 00 00    	je     29a4 <pci_bus_scan+0x614>
    26cd:	89 5c 24 04          	mov    %ebx,0x4(%esp)
    26d1:	8b 47 04             	mov    0x4(%edi),%eax
    26d4:	89 04 24             	mov    %eax,(%esp)
    26d7:	e8 54 14 00 00       	call   3b30 <ddf_fun_set_name>
    26dc:	89 1c 24             	mov    %ebx,(%esp)
    26df:	89 c6                	mov    %eax,%esi
    26e1:	e8 0a 60 01 00       	call   186f0 <free>
    26e6:	85 f6                	test   %esi,%esi
    26e8:	0f 85 68 02 00 00    	jne    2956 <pci_bus_scan+0x5c6>
    26ee:	8d 47 28             	lea    0x28(%edi),%eax
    26f1:	89 47 24             	mov    %eax,0x24(%edi)
    26f4:	b8 10 00 00 00       	mov    $0x10,%eax
    26f9:	8d b4 26 00 00 00 00 	lea    0x0(%esi,%eiz,1),%esi
    2700:	89 44 24 04          	mov    %eax,0x4(%esp)
    2704:	89 3c 24             	mov    %edi,(%esp)
    2707:	e8 04 f7 ff ff       	call   1e10 <pci_read_bar>
    270c:	83 f8 24             	cmp    $0x24,%eax
    270f:	7e ef                	jle    2700 <pci_bus_scan+0x370>
    2711:	8b 1f                	mov    (%edi),%ebx
    2713:	8d 73 14             	lea    0x14(%ebx),%esi
    2716:	89 34 24             	mov    %esi,(%esp)
    2719:	e8 42 cb 00 00       	call   f260 <fibril_mutex_lock>
    271e:	8b 47 08             	mov    0x8(%edi),%eax
    2721:	8b 57 0c             	mov    0xc(%edi),%edx
    2724:	8b 4b 0c             	mov    0xc(%ebx),%ecx
    2727:	c1 e2 0b             	shl    $0xb,%edx
    272a:	c1 e0 10             	shl    $0x10,%eax
    272d:	09 d0                	or     %edx,%eax
    272f:	8b 57 10             	mov    0x10(%edi),%edx
    2732:	c1 e2 08             	shl    $0x8,%edx
    2735:	0d 3c 00 00 80       	or     $0x8000003c,%eax
    273a:	09 d0                	or     %edx,%eax
    273c:	89 44 24 04          	mov    %eax,0x4(%esp)
    2740:	8b 43 10             	mov    0x10(%ebx),%eax
    2743:	89 4d c4             	mov    %ecx,-0x3c(%ebp)
    2746:	89 04 24             	mov    %eax,(%esp)
    2749:	e8 42 68 00 00       	call   8f90 <pio_write_32>
    274e:	8b 4d c4             	mov    -0x3c(%ebp),%ecx
    2751:	89 0c 24             	mov    %ecx,(%esp)
    2754:	e8 87 68 00 00       	call   8fe0 <pio_read_8>
    2759:	89 34 24             	mov    %esi,(%esp)
    275c:	88 c3                	mov    %al,%bl
    275e:	e8 1d cc 00 00       	call   f380 <fibril_mutex_unlock>
    2763:	80 fb ff             	cmp    $0xff,%bl
    2766:	74 57                	je     27bf <pci_bus_scan+0x42f>
    2768:	8b 47 24             	mov    0x24(%edi),%eax
    276b:	81 e3 ff 00 00 00    	and    $0xff,%ebx
    2771:	8b 57 20             	mov    0x20(%edi),%edx
    2774:	85 c0                	test   %eax,%eax
    2776:	0f 84 50 02 00 00    	je     29cc <pci_bus_scan+0x63c>
    277c:	83 fa 07             	cmp    $0x7,%edx
    277f:	0f 87 2b 02 00 00    	ja     29b0 <pci_bus_scan+0x620>
    2785:	8d 0c 92             	lea    (%edx,%edx,4),%ecx
    2788:	42                   	inc    %edx
    2789:	8d 04 88             	lea    (%eax,%ecx,4),%eax
    278c:	89 58 04             	mov    %ebx,0x4(%eax)
    278f:	c7 00 00 00 00 00    	movl   $0x0,(%eax)
    2795:	8b 47 04             	mov    0x4(%edi),%eax
    2798:	89 57 20             	mov    %edx,0x20(%edi)
    279b:	89 04 24             	mov    %eax,(%esp)
    279e:	e8 6d 15 00 00       	call   3d10 <ddf_fun_get_name>
    27a3:	89 5c 24 0c          	mov    %ebx,0xc(%esp)
    27a7:	89 44 24 08          	mov    %eax,0x8(%esp)
    27ab:	c7 44 24 04 34 77 02 	movl   $0x27734,0x4(%esp)
    27b2:	00 
    27b3:	c7 04 24 03 00 00 00 	movl   $0x3,(%esp)
    27ba:	e8 41 1e 00 00       	call   4600 <ddf_msg>
    27bf:	c7 44 24 04 00 ab 02 	movl   $0x2ab00,0x4(%esp)
    27c6:	00 
    27c7:	8b 47 04             	mov    0x4(%edi),%eax
    27ca:	89 04 24             	mov    %eax,(%esp)
    27cd:	e8 5e 19 00 00       	call   4130 <ddf_fun_set_ops>
    27d2:	8b 47 04             	mov    0x4(%edi),%eax
    27d5:	89 04 24             	mov    %eax,(%esp)
    27d8:	e8 33 15 00 00       	call   3d10 <ddf_fun_get_name>
    27dd:	c7 44 24 04 89 77 02 	movl   $0x27789,0x4(%esp)
    27e4:	00 
    27e5:	89 44 24 08          	mov    %eax,0x8(%esp)
    27e9:	c7 04 24 04 00 00 00 	movl   $0x4,(%esp)
    27f0:	e8 0b 1e 00 00       	call   4600 <ddf_msg>
    27f5:	89 3c 24             	mov    %edi,(%esp)
    27f8:	e8 33 f2 ff ff       	call   1a30 <pci_fun_create_match_ids>
    27fd:	8b 47 04             	mov    0x4(%edi),%eax
    2800:	89 04 24             	mov    %eax,(%esp)
    2803:	e8 28 16 00 00       	call   3e30 <ddf_fun_bind>
    2808:	85 c0                	test   %eax,%eax
    280a:	0f 85 88 00 00 00    	jne    2898 <pci_bus_scan+0x508>
    2810:	8a 45 d4             	mov    -0x2c(%ebp),%al
    2813:	83 e0 7f             	and    $0x7f,%eax
    2816:	48                   	dec    %eax
    2817:	3c 01                	cmp    $0x1,%al
    2819:	0f 86 a6 00 00 00    	jbe    28c5 <pci_bus_scan+0x535>
    281f:	8b 45 d0             	mov    -0x30(%ebp),%eax
    2822:	40                   	inc    %eax
    2823:	89 45 d0             	mov    %eax,-0x30(%ebp)
    2826:	80 7d cb 00          	cmpb   $0x0,-0x35(%ebp)
    282a:	74 0a                	je     2836 <pci_bus_scan+0x4a6>
    282c:	83 7d d0 07          	cmpl   $0x7,-0x30(%ebp)
    2830:	0f 8e 7a fb ff ff    	jle    23b0 <pci_bus_scan+0x20>
    2836:	8b 45 cc             	mov    -0x34(%ebp),%eax
    2839:	40                   	inc    %eax
    283a:	89 45 cc             	mov    %eax,-0x34(%ebp)
    283d:	83 7d cc 20          	cmpl   $0x20,-0x34(%ebp)
    2841:	0f 85 59 fb ff ff    	jne    23a0 <pci_bus_scan+0x10>
    2847:	83 c4 5c             	add    $0x5c,%esp
    284a:	5b                   	pop    %ebx
    284b:	5e                   	pop    %esi
    284c:	5f                   	pop    %edi
    284d:	5d                   	pop    %ebp
    284e:	c3                   	ret    
    284f:	90                   	nop
    2850:	8b 47 24             	mov    0x24(%edi),%eax
    2853:	85 c0                	test   %eax,%eax
    2855:	74 0f                	je     2866 <pci_bus_scan+0x4d6>
    2857:	89 04 24             	mov    %eax,(%esp)
    285a:	e8 91 5e 01 00       	call   186f0 <free>
    285f:	c7 47 24 00 00 00 00 	movl   $0x0,0x24(%edi)
    2866:	8b 47 04             	mov    0x4(%edi),%eax
    2869:	c7 47 20 00 00 00 00 	movl   $0x0,0x20(%edi)
    2870:	85 c0                	test   %eax,%eax
    2872:	74 08                	je     287c <pci_bus_scan+0x4ec>
    2874:	89 04 24             	mov    %eax,(%esp)
    2877:	e8 a4 14 00 00       	call   3d20 <ddf_fun_destroy>
    287c:	8b 45 d0             	mov    -0x30(%ebp),%eax
    287f:	85 c0                	test   %eax,%eax
    2881:	75 9c                	jne    281f <pci_bus_scan+0x48f>
    2883:	8b 45 cc             	mov    -0x34(%ebp),%eax
    2886:	40                   	inc    %eax
    2887:	89 45 cc             	mov    %eax,-0x34(%ebp)
    288a:	83 7d cc 20          	cmpl   $0x20,-0x34(%ebp)
    288e:	0f 85 0c fb ff ff    	jne    23a0 <pci_bus_scan+0x10>
    2894:	eb b1                	jmp    2847 <pci_bus_scan+0x4b7>
    2896:	66 90                	xchg   %ax,%ax
    2898:	8b 47 04             	mov    0x4(%edi),%eax
    289b:	c7 47 24 00 00 00 00 	movl   $0x0,0x24(%edi)
    28a2:	c7 47 20 00 00 00 00 	movl   $0x0,0x20(%edi)
    28a9:	85 c0                	test   %eax,%eax
    28ab:	0f 84 6e ff ff ff    	je     281f <pci_bus_scan+0x48f>
    28b1:	89 04 24             	mov    %eax,(%esp)
    28b4:	e8 67 14 00 00       	call   3d20 <ddf_fun_destroy>
    28b9:	e9 61 ff ff ff       	jmp    281f <pci_bus_scan+0x48f>
    28be:	31 ff                	xor    %edi,%edi
    28c0:	e9 34 fb ff ff       	jmp    23f9 <pci_bus_scan+0x69>
    28c5:	8b 1f                	mov    (%edi),%ebx
    28c7:	8d 73 14             	lea    0x14(%ebx),%esi
    28ca:	89 34 24             	mov    %esi,(%esp)
    28cd:	e8 8e c9 00 00       	call   f260 <fibril_mutex_lock>
    28d2:	8b 53 0c             	mov    0xc(%ebx),%edx
    28d5:	42                   	inc    %edx
    28d6:	8b 47 08             	mov    0x8(%edi),%eax
    28d9:	c1 e0 10             	shl    $0x10,%eax
    28dc:	89 55 d4             	mov    %edx,-0x2c(%ebp)
    28df:	8b 57 0c             	mov    0xc(%edi),%edx
    28e2:	c1 e2 0b             	shl    $0xb,%edx
    28e5:	09 d0                	or     %edx,%eax
    28e7:	8b 57 10             	mov    0x10(%edi),%edx
    28ea:	c1 e2 08             	shl    $0x8,%edx
    28ed:	0d 18 00 00 80       	or     $0x80000018,%eax
    28f2:	09 d0                	or     %edx,%eax
    28f4:	89 44 24 04          	mov    %eax,0x4(%esp)
    28f8:	8b 43 10             	mov    0x10(%ebx),%eax
    28fb:	89 04 24             	mov    %eax,(%esp)
    28fe:	e8 8d 66 00 00       	call   8f90 <pio_write_32>
    2903:	8b 45 d4             	mov    -0x2c(%ebp),%eax
    2906:	89 04 24             	mov    %eax,(%esp)
    2909:	e8 d2 66 00 00       	call   8fe0 <pio_read_8>
    290e:	89 34 24             	mov    %esi,(%esp)
    2911:	88 c3                	mov    %al,%bl
    2913:	e8 68 ca 00 00       	call   f380 <fibril_mutex_unlock>
    2918:	8b 55 0c             	mov    0xc(%ebp),%edx
    291b:	81 e3 ff 00 00 00    	and    $0xff,%ebx
    2921:	89 54 24 08          	mov    %edx,0x8(%esp)
    2925:	c7 44 24 04 d0 78 02 	movl   $0x278d0,0x4(%esp)
    292c:	00 
    292d:	c7 04 24 04 00 00 00 	movl   $0x4,(%esp)
    2934:	e8 c7 1c 00 00       	call   4600 <ddf_msg>
    2939:	39 5d 0c             	cmp    %ebx,0xc(%ebp)
    293c:	0f 8d dd fe ff ff    	jge    281f <pci_bus_scan+0x48f>
    2942:	8b 55 08             	mov    0x8(%ebp),%edx
    2945:	89 5c 24 04          	mov    %ebx,0x4(%esp)
    2949:	89 14 24             	mov    %edx,(%esp)
    294c:	e8 3f fa ff ff       	call   2390 <pci_bus_scan>
    2951:	e9 c9 fe ff ff       	jmp    281f <pci_bus_scan+0x48f>
    2956:	89 fb                	mov    %edi,%ebx
    2958:	c7 44 24 04 6b 77 02 	movl   $0x2776b,0x4(%esp)
    295f:	00 
    2960:	c7 04 24 01 00 00 00 	movl   $0x1,(%esp)
    2967:	e8 94 1c 00 00       	call   4600 <ddf_msg>
    296c:	8b 43 24             	mov    0x24(%ebx),%eax
    296f:	85 c0                	test   %eax,%eax
    2971:	74 0f                	je     2982 <pci_bus_scan+0x5f2>
    2973:	89 04 24             	mov    %eax,(%esp)
    2976:	e8 75 5d 01 00       	call   186f0 <free>
    297b:	c7 43 24 00 00 00 00 	movl   $0x0,0x24(%ebx)
    2982:	8b 43 04             	mov    0x4(%ebx),%eax
    2985:	c7 43 20 00 00 00 00 	movl   $0x0,0x20(%ebx)
    298c:	85 c0                	test   %eax,%eax
    298e:	0f 84 b3 fe ff ff    	je     2847 <pci_bus_scan+0x4b7>
    2994:	89 04 24             	mov    %eax,(%esp)
    2997:	e8 84 13 00 00       	call   3d20 <ddf_fun_destroy>
    299c:	83 c4 5c             	add    $0x5c,%esp
    299f:	5b                   	pop    %ebx
    29a0:	5e                   	pop    %esi
    29a1:	5f                   	pop    %edi
    29a2:	5d                   	pop    %ebp
    29a3:	c3                   	ret    
    29a4:	89 fb                	mov    %edi,%ebx
    29a6:	c7 44 24 04 5c 77 02 	movl   $0x2775c,0x4(%esp)
    29ad:	00 
    29ae:	eb b0                	jmp    2960 <pci_bus_scan+0x5d0>
    29b0:	c7 44 24 08 fd 01 00 	movl   $0x1fd,0x8(%esp)
    29b7:	00 
    29b8:	c7 44 24 04 e2 7e 02 	movl   $0x27ee2,0x4(%esp)
    29bf:	00 
    29c0:	c7 04 24 08 77 02 00 	movl   $0x27708,(%esp)
    29c7:	e8 e4 07 02 00       	call   231b0 <assert_abort>
    29cc:	c7 44 24 08 fc 01 00 	movl   $0x1fc,0x8(%esp)
    29d3:	00 
    29d4:	c7 44 24 04 e2 7e 02 	movl   $0x27ee2,0x4(%esp)
    29db:	00 
    29dc:	c7 04 24 1f 77 02 00 	movl   $0x2771f,(%esp)
    29e3:	e8 c8 07 02 00       	call   231b0 <assert_abort>
    29e8:	90                   	nop
    29e9:	8d b4 26 00 00 00 00 	lea    0x0(%esi,%eiz,1),%esi

000029f0 <pci_dev_add>:
    29f0:	55                   	push   %ebp
    29f1:	89 e5                	mov    %esp,%ebp
    29f3:	56                   	push   %esi
    29f4:	53                   	push   %ebx
    29f5:	83 ec 30             	sub    $0x30,%esp
    29f8:	8b 75 08             	mov    0x8(%ebp),%esi
    29fb:	c7 44 24 04 a1 77 02 	movl   $0x277a1,0x4(%esp)
    2a02:	00 
    2a03:	c7 04 24 04 00 00 00 	movl   $0x4,(%esp)
    2a0a:	e8 f1 1b 00 00       	call   4600 <ddf_msg>
    2a0f:	c7 44 24 04 24 00 00 	movl   $0x24,0x4(%esp)
    2a16:	00 
    2a17:	89 34 24             	mov    %esi,(%esp)
    2a1a:	e8 f1 0f 00 00       	call   3a10 <ddf_dev_data_alloc>
    2a1f:	89 c3                	mov    %eax,%ebx
    2a21:	85 c0                	test   %eax,%eax
    2a23:	0f 84 ef 01 00 00    	je     2c18 <pci_dev_add+0x228>
    2a29:	8d 40 14             	lea    0x14(%eax),%eax
    2a2c:	89 04 24             	mov    %eax,(%esp)
    2a2f:	e8 0c c8 00 00       	call   f240 <fibril_mutex_initialize>
    2a34:	89 33                	mov    %esi,(%ebx)
    2a36:	c7 44 24 04 02 00 00 	movl   $0x2,0x4(%esp)
    2a3d:	00 
    2a3e:	89 34 24             	mov    %esi,(%esp)
    2a41:	e8 8a 10 00 00       	call   3ad0 <ddf_dev_parent_sess_create>
    2a46:	85 c0                	test   %eax,%eax
    2a48:	0f 84 ea 01 00 00    	je     2c38 <pci_dev_add+0x248>
    2a4e:	8d 55 f0             	lea    -0x10(%ebp),%edx
    2a51:	89 04 24             	mov    %eax,(%esp)
    2a54:	89 54 24 04          	mov    %edx,0x4(%esp)
    2a58:	e8 03 84 00 00       	call   ae60 <hw_res_get_resource_list>
    2a5d:	85 c0                	test   %eax,%eax
    2a5f:	0f 85 8b 01 00 00    	jne    2bf0 <pci_dev_add+0x200>
    2a65:	83 7d f0 01          	cmpl   $0x1,-0x10(%ebp)
    2a69:	0f 86 bf 02 00 00    	jbe    2d2e <pci_dev_add+0x33e>
    2a6f:	8b 45 f4             	mov    -0xc(%ebp),%eax
    2a72:	83 38 01             	cmpl   $0x1,(%eax)
    2a75:	0f 85 97 02 00 00    	jne    2d12 <pci_dev_add+0x322>
    2a7b:	83 78 10 03          	cmpl   $0x3,0x10(%eax)
    2a7f:	0f 86 71 02 00 00    	jbe    2cf6 <pci_dev_add+0x306>
    2a85:	83 78 14 01          	cmpl   $0x1,0x14(%eax)
    2a89:	0f 85 4b 02 00 00    	jne    2cda <pci_dev_add+0x2ea>
    2a8f:	83 78 24 03          	cmpl   $0x3,0x24(%eax)
    2a93:	0f 86 25 02 00 00    	jbe    2cbe <pci_dev_add+0x2ce>
    2a99:	8b 50 08             	mov    0x8(%eax),%edx
    2a9c:	8b 40 04             	mov    0x4(%eax),%eax
    2a9f:	89 44 24 08          	mov    %eax,0x8(%esp)
    2aa3:	89 54 24 0c          	mov    %edx,0xc(%esp)
    2aa7:	c7 44 24 04 c4 77 02 	movl   $0x277c4,0x4(%esp)
    2aae:	00 
    2aaf:	c7 04 24 04 00 00 00 	movl   $0x4,(%esp)
    2ab6:	e8 45 1b 00 00       	call   4600 <ddf_msg>
    2abb:	8b 45 f4             	mov    -0xc(%ebp),%eax
    2abe:	8b 50 18             	mov    0x18(%eax),%edx
    2ac1:	8b 48 1c             	mov    0x1c(%eax),%ecx
    2ac4:	89 4c 24 0c          	mov    %ecx,0xc(%esp)
    2ac8:	89 54 24 08          	mov    %edx,0x8(%esp)
    2acc:	c7 44 24 04 d6 77 02 	movl   $0x277d6,0x4(%esp)
    2ad3:	00 
    2ad4:	c7 04 24 04 00 00 00 	movl   $0x4,(%esp)
    2adb:	e8 20 1b 00 00       	call   4600 <ddf_msg>
    2ae0:	8b 55 f4             	mov    -0xc(%ebp),%edx
    2ae3:	8b 42 04             	mov    0x4(%edx),%eax
    2ae6:	89 43 04             	mov    %eax,0x4(%ebx)
    2ae9:	8b 52 18             	mov    0x18(%edx),%edx
    2aec:	89 53 08             	mov    %edx,0x8(%ebx)
    2aef:	8d 53 10             	lea    0x10(%ebx),%edx
    2af2:	89 54 24 08          	mov    %edx,0x8(%esp)
    2af6:	c7 44 24 04 04 00 00 	movl   $0x4,0x4(%esp)
    2afd:	00 
    2afe:	89 04 24             	mov    %eax,(%esp)
    2b01:	e8 fa 62 00 00       	call   8e00 <pio_enable>
    2b06:	85 c0                	test   %eax,%eax
    2b08:	74 5e                	je     2b68 <pci_dev_add+0x178>
    2b0a:	c7 44 24 04 54 7a 02 	movl   $0x27a54,0x4(%esp)
    2b11:	00 
    2b12:	c7 04 24 01 00 00 00 	movl   $0x1,(%esp)
    2b19:	e8 e2 1a 00 00       	call   4600 <ddf_msg>
    2b1e:	31 f6                	xor    %esi,%esi
    2b20:	b8 f4 ff ff ff       	mov    $0xfffffff4,%eax
    2b25:	8b 55 f4             	mov    -0xc(%ebp),%edx
    2b28:	85 d2                	test   %edx,%edx
    2b2a:	74 15                	je     2b41 <pci_dev_add+0x151>
    2b2c:	89 14 24             	mov    %edx,(%esp)
    2b2f:	89 45 e4             	mov    %eax,-0x1c(%ebp)
    2b32:	e8 b9 5b 01 00       	call   186f0 <free>
    2b37:	c7 45 f4 00 00 00 00 	movl   $0x0,-0xc(%ebp)
    2b3e:	8b 45 e4             	mov    -0x1c(%ebp),%eax
    2b41:	c7 45 f0 00 00 00 00 	movl   $0x0,-0x10(%ebp)
    2b48:	85 f6                	test   %esi,%esi
    2b4a:	74 0e                	je     2b5a <pci_dev_add+0x16a>
    2b4c:	89 34 24             	mov    %esi,(%esp)
    2b4f:	89 45 e4             	mov    %eax,-0x1c(%ebp)
    2b52:	e8 c9 11 00 00       	call   3d20 <ddf_fun_destroy>
    2b57:	8b 45 e4             	mov    -0x1c(%ebp),%eax
    2b5a:	83 c4 30             	add    $0x30,%esp
    2b5d:	5b                   	pop    %ebx
    2b5e:	5e                   	pop    %esi
    2b5f:	5d                   	pop    %ebp
    2b60:	c3                   	ret    
    2b61:	8d b4 26 00 00 00 00 	lea    0x0(%esi,%eiz,1),%esi
    2b68:	8d 43 0c             	lea    0xc(%ebx),%eax
    2b6b:	c7 44 24 04 04 00 00 	movl   $0x4,0x4(%esp)
    2b72:	00 
    2b73:	89 44 24 08          	mov    %eax,0x8(%esp)
    2b77:	8b 43 08             	mov    0x8(%ebx),%eax
    2b7a:	89 04 24             	mov    %eax,(%esp)
    2b7d:	e8 7e 62 00 00       	call   8e00 <pio_enable>
    2b82:	85 c0                	test   %eax,%eax
    2b84:	75 84                	jne    2b0a <pci_dev_add+0x11a>
    2b86:	c7 44 24 04 e8 77 02 	movl   $0x277e8,0x4(%esp)
    2b8d:	00 
    2b8e:	c7 04 24 04 00 00 00 	movl   $0x4,(%esp)
    2b95:	e8 66 1a 00 00       	call   4600 <ddf_msg>
    2b9a:	c7 44 24 08 00 78 02 	movl   $0x27800,0x8(%esp)
    2ba1:	00 
    2ba2:	c7 44 24 04 02 00 00 	movl   $0x2,0x4(%esp)
    2ba9:	00 
    2baa:	8b 03                	mov    (%ebx),%eax
    2bac:	89 04 24             	mov    %eax,(%esp)
    2baf:	e8 ec 0f 00 00       	call   3ba0 <ddf_fun_create>
    2bb4:	89 c6                	mov    %eax,%esi
    2bb6:	85 c0                	test   %eax,%eax
    2bb8:	0f 84 e2 00 00 00    	je     2ca0 <pci_dev_add+0x2b0>
    2bbe:	89 04 24             	mov    %eax,(%esp)
    2bc1:	e8 6a 12 00 00       	call   3e30 <ddf_fun_bind>
    2bc6:	85 c0                	test   %eax,%eax
    2bc8:	0f 84 8a 00 00 00    	je     2c58 <pci_dev_add+0x268>
    2bce:	c7 44 24 04 a0 7a 02 	movl   $0x27aa0,0x4(%esp)
    2bd5:	00 
    2bd6:	c7 04 24 01 00 00 00 	movl   $0x1,(%esp)
    2bdd:	89 45 e4             	mov    %eax,-0x1c(%ebp)
    2be0:	e8 1b 1a 00 00       	call   4600 <ddf_msg>
    2be5:	8b 45 e4             	mov    -0x1c(%ebp),%eax
    2be8:	e9 38 ff ff ff       	jmp    2b25 <pci_dev_add+0x135>
    2bed:	8d 76 00             	lea    0x0(%esi),%esi
    2bf0:	c7 44 24 04 5c 79 02 	movl   $0x2795c,0x4(%esp)
    2bf7:	00 
    2bf8:	c7 04 24 01 00 00 00 	movl   $0x1,(%esp)
    2bff:	89 45 e4             	mov    %eax,-0x1c(%ebp)
    2c02:	e8 f9 19 00 00       	call   4600 <ddf_msg>
    2c07:	8b 45 e4             	mov    -0x1c(%ebp),%eax
    2c0a:	83 c4 30             	add    $0x30,%esp
    2c0d:	5b                   	pop    %ebx
    2c0e:	5e                   	pop    %esi
    2c0f:	5d                   	pop    %ebp
    2c10:	c3                   	ret    
    2c11:	8d b4 26 00 00 00 00 	lea    0x0(%esi,%eiz,1),%esi
    2c18:	c7 44 24 04 08 79 02 	movl   $0x27908,0x4(%esp)
    2c1f:	00 
    2c20:	c7 04 24 01 00 00 00 	movl   $0x1,(%esp)
    2c27:	e8 d4 19 00 00       	call   4600 <ddf_msg>
    2c2c:	83 c4 30             	add    $0x30,%esp
    2c2f:	b8 fe ff ff ff       	mov    $0xfffffffe,%eax
    2c34:	5b                   	pop    %ebx
    2c35:	5e                   	pop    %esi
    2c36:	5d                   	pop    %ebp
    2c37:	c3                   	ret    
    2c38:	c7 44 24 04 28 79 02 	movl   $0x27928,0x4(%esp)
    2c3f:	00 
    2c40:	c7 04 24 01 00 00 00 	movl   $0x1,(%esp)
    2c47:	e8 b4 19 00 00       	call   4600 <ddf_msg>
    2c4c:	83 c4 30             	add    $0x30,%esp
    2c4f:	83 c8 ff             	or     $0xffffffff,%eax
    2c52:	5b                   	pop    %ebx
    2c53:	5e                   	pop    %esi
    2c54:	5d                   	pop    %ebp
    2c55:	c3                   	ret    
    2c56:	66 90                	xchg   %ax,%ax
    2c58:	c7 44 24 04 04 78 02 	movl   $0x27804,0x4(%esp)
    2c5f:	00 
    2c60:	c7 04 24 04 00 00 00 	movl   $0x4,(%esp)
    2c67:	89 45 e4             	mov    %eax,-0x1c(%ebp)
    2c6a:	e8 91 19 00 00       	call   4600 <ddf_msg>
    2c6f:	c7 44 24 04 00 00 00 	movl   $0x0,0x4(%esp)
    2c76:	00 
    2c77:	89 1c 24             	mov    %ebx,(%esp)
    2c7a:	e8 11 f7 ff ff       	call   2390 <pci_bus_scan>
    2c7f:	8b 55 f4             	mov    -0xc(%ebp),%edx
    2c82:	85 d2                	test   %edx,%edx
    2c84:	8b 45 e4             	mov    -0x1c(%ebp),%eax
    2c87:	0f 84 cd fe ff ff    	je     2b5a <pci_dev_add+0x16a>
    2c8d:	89 14 24             	mov    %edx,(%esp)
    2c90:	e8 5b 5a 01 00       	call   186f0 <free>
    2c95:	8b 45 e4             	mov    -0x1c(%ebp),%eax
    2c98:	e9 bd fe ff ff       	jmp    2b5a <pci_dev_add+0x16a>
    2c9d:	8d 76 00             	lea    0x0(%esi),%esi
    2ca0:	c7 44 24 04 7c 7a 02 	movl   $0x27a7c,0x4(%esp)
    2ca7:	00 
    2ca8:	c7 04 24 01 00 00 00 	movl   $0x1,(%esp)
    2caf:	e8 4c 19 00 00       	call   4600 <ddf_msg>
    2cb4:	b8 fe ff ff ff       	mov    $0xfffffffe,%eax
    2cb9:	e9 67 fe ff ff       	jmp    2b25 <pci_dev_add+0x135>
    2cbe:	c7 44 24 08 91 02 00 	movl   $0x291,0x8(%esp)
    2cc5:	00 
    2cc6:	c7 44 24 04 e2 7e 02 	movl   $0x27ee2,0x4(%esp)
    2ccd:	00 
    2cce:	c7 04 24 20 7a 02 00 	movl   $0x27a20,(%esp)
    2cd5:	e8 d6 04 02 00       	call   231b0 <assert_abort>
    2cda:	c7 44 24 08 90 02 00 	movl   $0x290,0x8(%esp)
    2ce1:	00 
    2ce2:	c7 44 24 04 e2 7e 02 	movl   $0x27ee2,0x4(%esp)
    2ce9:	00 
    2cea:	c7 04 24 f4 79 02 00 	movl   $0x279f4,(%esp)
    2cf1:	e8 ba 04 02 00       	call   231b0 <assert_abort>
    2cf6:	c7 44 24 08 8e 02 00 	movl   $0x28e,0x8(%esp)
    2cfd:	00 
    2cfe:	c7 44 24 04 e2 7e 02 	movl   $0x27ee2,0x4(%esp)
    2d05:	00 
    2d06:	c7 04 24 c0 79 02 00 	movl   $0x279c0,(%esp)
    2d0d:	e8 9e 04 02 00       	call   231b0 <assert_abort>
    2d12:	c7 44 24 08 8d 02 00 	movl   $0x28d,0x8(%esp)
    2d19:	00 
    2d1a:	c7 44 24 04 e2 7e 02 	movl   $0x27ee2,0x4(%esp)
    2d21:	00 
    2d22:	c7 04 24 94 79 02 00 	movl   $0x27994,(%esp)
    2d29:	e8 82 04 02 00       	call   231b0 <assert_abort>
    2d2e:	c7 44 24 08 8c 02 00 	movl   $0x28c,0x8(%esp)
    2d35:	00 
    2d36:	c7 44 24 04 e2 7e 02 	movl   $0x27ee2,0x4(%esp)
    2d3d:	00 
    2d3e:	c7 04 24 ad 77 02 00 	movl   $0x277ad,(%esp)
    2d45:	e8 66 04 02 00       	call   231b0 <assert_abort>
    2d4a:	8d b6 00 00 00 00    	lea    0x0(%esi),%esi

00002d50 <pci_fun_new>:
    2d50:	55                   	push   %ebp
    2d51:	89 e5                	mov    %esp,%ebp
    2d53:	56                   	push   %esi
    2d54:	53                   	push   %ebx
    2d55:	83 ec 10             	sub    $0x10,%esp
    2d58:	8b 75 08             	mov    0x8(%ebp),%esi
    2d5b:	c7 44 24 08 00 00 00 	movl   $0x0,0x8(%esp)
    2d62:	00 
    2d63:	c7 44 24 04 01 00 00 	movl   $0x1,0x4(%esp)
    2d6a:	00 
    2d6b:	8b 06                	mov    (%esi),%eax
    2d6d:	89 04 24             	mov    %eax,(%esp)
    2d70:	e8 2b 0e 00 00       	call   3ba0 <ddf_fun_create>
    2d75:	89 c3                	mov    %eax,%ebx
    2d77:	85 c0                	test   %eax,%eax
    2d79:	74 25                	je     2da0 <pci_fun_new+0x50>
    2d7b:	c7 44 24 04 c8 00 00 	movl   $0xc8,0x4(%esp)
    2d82:	00 
    2d83:	89 04 24             	mov    %eax,(%esp)
    2d86:	e8 05 0f 00 00       	call   3c90 <ddf_fun_data_alloc>
    2d8b:	85 c0                	test   %eax,%eax
    2d8d:	74 11                	je     2da0 <pci_fun_new+0x50>
    2d8f:	89 30                	mov    %esi,(%eax)
    2d91:	89 58 04             	mov    %ebx,0x4(%eax)
    2d94:	83 c4 10             	add    $0x10,%esp
    2d97:	5b                   	pop    %ebx
    2d98:	5e                   	pop    %esi
    2d99:	5d                   	pop    %ebp
    2d9a:	c3                   	ret    
    2d9b:	90                   	nop
    2d9c:	8d 74 26 00          	lea    0x0(%esi,%eiz,1),%esi
    2da0:	31 c0                	xor    %eax,%eax
    2da2:	eb f0                	jmp    2d94 <pci_fun_new+0x44>
    2da4:	8d b6 00 00 00 00    	lea    0x0(%esi),%esi
    2daa:	8d bf 00 00 00 00    	lea    0x0(%edi),%edi

00002db0 <pci_fun_init>:
    2db0:	55                   	push   %ebp
    2db1:	89 e5                	mov    %esp,%ebp
    2db3:	57                   	push   %edi
    2db4:	56                   	push   %esi
    2db5:	53                   	push   %ebx
    2db6:	83 ec 2c             	sub    $0x2c,%esp
    2db9:	8b 5d 08             	mov    0x8(%ebp),%ebx
    2dbc:	8b 45 0c             	mov    0xc(%ebp),%eax
    2dbf:	8b 33                	mov    (%ebx),%esi
    2dc1:	89 43 08             	mov    %eax,0x8(%ebx)
    2dc4:	8b 45 10             	mov    0x10(%ebp),%eax
    2dc7:	89 43 0c             	mov    %eax,0xc(%ebx)
    2dca:	8d 7e 14             	lea    0x14(%esi),%edi
    2dcd:	8b 45 14             	mov    0x14(%ebp),%eax
    2dd0:	89 43 10             	mov    %eax,0x10(%ebx)
    2dd3:	89 3c 24             	mov    %edi,(%esp)
    2dd6:	e8 85 c4 00 00       	call   f260 <fibril_mutex_lock>
    2ddb:	8b 43 08             	mov    0x8(%ebx),%eax
    2dde:	8b 53 0c             	mov    0xc(%ebx),%edx
    2de1:	8b 4e 0c             	mov    0xc(%esi),%ecx
    2de4:	c1 e2 0b             	shl    $0xb,%edx
    2de7:	c1 e0 10             	shl    $0x10,%eax
    2dea:	09 d0                	or     %edx,%eax
    2dec:	8b 53 10             	mov    0x10(%ebx),%edx
    2def:	c1 e2 08             	shl    $0x8,%edx
    2df2:	0d 00 00 00 80       	or     $0x80000000,%eax
    2df7:	09 d0                	or     %edx,%eax
    2df9:	89 44 24 04          	mov    %eax,0x4(%esp)
    2dfd:	8b 46 10             	mov    0x10(%esi),%eax
    2e00:	89 4d e0             	mov    %ecx,-0x20(%ebp)
    2e03:	89 04 24             	mov    %eax,(%esp)
    2e06:	e8 85 61 00 00       	call   8f90 <pio_write_32>
    2e0b:	8b 4d e0             	mov    -0x20(%ebp),%ecx
    2e0e:	89 0c 24             	mov    %ecx,(%esp)
    2e11:	e8 0a 62 00 00       	call   9020 <pio_read_16>
    2e16:	89 3c 24             	mov    %edi,(%esp)
    2e19:	89 c6                	mov    %eax,%esi
    2e1b:	e8 60 c5 00 00       	call   f380 <fibril_mutex_unlock>
    2e20:	8b 3b                	mov    (%ebx),%edi
    2e22:	89 f0                	mov    %esi,%eax
    2e24:	25 ff ff 00 00       	and    $0xffff,%eax
    2e29:	8d 57 14             	lea    0x14(%edi),%edx
    2e2c:	89 43 14             	mov    %eax,0x14(%ebx)
    2e2f:	89 14 24             	mov    %edx,(%esp)
    2e32:	89 55 e0             	mov    %edx,-0x20(%ebp)
    2e35:	e8 26 c4 00 00       	call   f260 <fibril_mutex_lock>
    2e3a:	8b 43 08             	mov    0x8(%ebx),%eax
    2e3d:	8b 4b 0c             	mov    0xc(%ebx),%ecx
    2e40:	8b 77 0c             	mov    0xc(%edi),%esi
    2e43:	c1 e1 0b             	shl    $0xb,%ecx
    2e46:	83 c6 02             	add    $0x2,%esi
    2e49:	c1 e0 10             	shl    $0x10,%eax
    2e4c:	09 c8                	or     %ecx,%eax
    2e4e:	8b 4b 10             	mov    0x10(%ebx),%ecx
    2e51:	c1 e1 08             	shl    $0x8,%ecx
    2e54:	0d 00 00 00 80       	or     $0x80000000,%eax
    2e59:	09 c8                	or     %ecx,%eax
    2e5b:	89 44 24 04          	mov    %eax,0x4(%esp)
    2e5f:	8b 47 10             	mov    0x10(%edi),%eax
    2e62:	89 04 24             	mov    %eax,(%esp)
    2e65:	e8 26 61 00 00       	call   8f90 <pio_write_32>
    2e6a:	89 34 24             	mov    %esi,(%esp)
    2e6d:	e8 ae 61 00 00       	call   9020 <pio_read_16>
    2e72:	8b 55 e0             	mov    -0x20(%ebp),%edx
    2e75:	89 14 24             	mov    %edx,(%esp)
    2e78:	89 c6                	mov    %eax,%esi
    2e7a:	e8 01 c5 00 00       	call   f380 <fibril_mutex_unlock>
    2e7f:	8b 3b                	mov    (%ebx),%edi
    2e81:	89 f0                	mov    %esi,%eax
    2e83:	8d 77 14             	lea    0x14(%edi),%esi
    2e86:	25 ff ff 00 00       	and    $0xffff,%eax
    2e8b:	89 43 18             	mov    %eax,0x18(%ebx)
    2e8e:	89 34 24             	mov    %esi,(%esp)
    2e91:	e8 ca c3 00 00       	call   f260 <fibril_mutex_lock>
    2e96:	8b 47 0c             	mov    0xc(%edi),%eax
    2e99:	83 c0 03             	add    $0x3,%eax
    2e9c:	8b 4b 0c             	mov    0xc(%ebx),%ecx
    2e9f:	c1 e1 0b             	shl    $0xb,%ecx
    2ea2:	89 45 e4             	mov    %eax,-0x1c(%ebp)
    2ea5:	8b 43 08             	mov    0x8(%ebx),%eax
    2ea8:	c1 e0 10             	shl    $0x10,%eax
    2eab:	09 c8                	or     %ecx,%eax
    2ead:	8b 4b 10             	mov    0x10(%ebx),%ecx
    2eb0:	c1 e1 08             	shl    $0x8,%ecx
    2eb3:	0d 08 00 00 80       	or     $0x80000008,%eax
    2eb8:	09 c8                	or     %ecx,%eax
    2eba:	89 44 24 04          	mov    %eax,0x4(%esp)
    2ebe:	8b 47 10             	mov    0x10(%edi),%eax
    2ec1:	89 04 24             	mov    %eax,(%esp)
    2ec4:	e8 c7 60 00 00       	call   8f90 <pio_write_32>
    2ec9:	8b 45 e4             	mov    -0x1c(%ebp),%eax
    2ecc:	89 04 24             	mov    %eax,(%esp)
    2ecf:	e8 0c 61 00 00       	call   8fe0 <pio_read_8>
    2ed4:	89 34 24             	mov    %esi,(%esp)
    2ed7:	88 45 e0             	mov    %al,-0x20(%ebp)
    2eda:	e8 a1 c4 00 00       	call   f380 <fibril_mutex_unlock>
    2edf:	8b 3b                	mov    (%ebx),%edi
    2ee1:	8a 45 e0             	mov    -0x20(%ebp),%al
    2ee4:	88 43 1c             	mov    %al,0x1c(%ebx)
    2ee7:	8d 77 14             	lea    0x14(%edi),%esi
    2eea:	89 34 24             	mov    %esi,(%esp)
    2eed:	e8 6e c3 00 00       	call   f260 <fibril_mutex_lock>
    2ef2:	8b 47 0c             	mov    0xc(%edi),%eax
    2ef5:	83 c0 02             	add    $0x2,%eax
    2ef8:	8b 4b 0c             	mov    0xc(%ebx),%ecx
    2efb:	c1 e1 0b             	shl    $0xb,%ecx
    2efe:	89 45 e4             	mov    %eax,-0x1c(%ebp)
    2f01:	8b 43 08             	mov    0x8(%ebx),%eax
    2f04:	c1 e0 10             	shl    $0x10,%eax
    2f07:	09 c8                	or     %ecx,%eax
    2f09:	8b 4b 10             	mov    0x10(%ebx),%ecx
    2f0c:	c1 e1 08             	shl    $0x8,%ecx
    2f0f:	0d 08 00 00 80       	or     $0x80000008,%eax
    2f14:	09 c8                	or     %ecx,%eax
    2f16:	89 44 24 04          	mov    %eax,0x4(%esp)
    2f1a:	8b 47 10             	mov    0x10(%edi),%eax
    2f1d:	89 04 24             	mov    %eax,(%esp)
    2f20:	e8 6b 60 00 00       	call   8f90 <pio_write_32>
    2f25:	8b 45 e4             	mov    -0x1c(%ebp),%eax
    2f28:	89 04 24             	mov    %eax,(%esp)
    2f2b:	e8 b0 60 00 00       	call   8fe0 <pio_read_8>
    2f30:	89 34 24             	mov    %esi,(%esp)
    2f33:	88 45 e0             	mov    %al,-0x20(%ebp)
    2f36:	e8 45 c4 00 00       	call   f380 <fibril_mutex_unlock>
    2f3b:	8b 3b                	mov    (%ebx),%edi
    2f3d:	8a 45 e0             	mov    -0x20(%ebp),%al
    2f40:	88 43 1d             	mov    %al,0x1d(%ebx)
    2f43:	8d 77 14             	lea    0x14(%edi),%esi
    2f46:	89 34 24             	mov    %esi,(%esp)
    2f49:	e8 12 c3 00 00       	call   f260 <fibril_mutex_lock>
    2f4e:	8b 47 0c             	mov    0xc(%edi),%eax
    2f51:	40                   	inc    %eax
    2f52:	8b 4b 0c             	mov    0xc(%ebx),%ecx
    2f55:	c1 e1 0b             	shl    $0xb,%ecx
    2f58:	89 45 e4             	mov    %eax,-0x1c(%ebp)
    2f5b:	8b 43 08             	mov    0x8(%ebx),%eax
    2f5e:	c1 e0 10             	shl    $0x10,%eax
    2f61:	09 c8                	or     %ecx,%eax
    2f63:	8b 4b 10             	mov    0x10(%ebx),%ecx
    2f66:	c1 e1 08             	shl    $0x8,%ecx
    2f69:	0d 08 00 00 80       	or     $0x80000008,%eax
    2f6e:	09 c8                	or     %ecx,%eax
    2f70:	89 44 24 04          	mov    %eax,0x4(%esp)
    2f74:	8b 47 10             	mov    0x10(%edi),%eax
    2f77:	89 04 24             	mov    %eax,(%esp)
    2f7a:	e8 11 60 00 00       	call   8f90 <pio_write_32>
    2f7f:	8b 45 e4             	mov    -0x1c(%ebp),%eax
    2f82:	89 04 24             	mov    %eax,(%esp)
    2f85:	e8 56 60 00 00       	call   8fe0 <pio_read_8>
    2f8a:	89 34 24             	mov    %esi,(%esp)
    2f8d:	88 45 e0             	mov    %al,-0x20(%ebp)
    2f90:	e8 eb c3 00 00       	call   f380 <fibril_mutex_unlock>
    2f95:	8b 33                	mov    (%ebx),%esi
    2f97:	8a 45 e0             	mov    -0x20(%ebp),%al
    2f9a:	88 43 1e             	mov    %al,0x1e(%ebx)
    2f9d:	8d 7e 14             	lea    0x14(%esi),%edi
    2fa0:	89 3c 24             	mov    %edi,(%esp)
    2fa3:	e8 b8 c2 00 00       	call   f260 <fibril_mutex_lock>
    2fa8:	8b 43 08             	mov    0x8(%ebx),%eax
    2fab:	8b 53 0c             	mov    0xc(%ebx),%edx
    2fae:	8b 4e 0c             	mov    0xc(%esi),%ecx
    2fb1:	c1 e2 0b             	shl    $0xb,%edx
    2fb4:	c1 e0 10             	shl    $0x10,%eax
    2fb7:	09 d0                	or     %edx,%eax
    2fb9:	8b 53 10             	mov    0x10(%ebx),%edx
    2fbc:	c1 e2 08             	shl    $0x8,%edx
    2fbf:	0d 08 00 00 80       	or     $0x80000008,%eax
    2fc4:	09 d0                	or     %edx,%eax
    2fc6:	89 44 24 04          	mov    %eax,0x4(%esp)
    2fca:	8b 46 10             	mov    0x10(%esi),%eax
    2fcd:	89 4d e0             	mov    %ecx,-0x20(%ebp)
    2fd0:	89 04 24             	mov    %eax,(%esp)
    2fd3:	e8 b8 5f 00 00       	call   8f90 <pio_write_32>
    2fd8:	8b 4d e0             	mov    -0x20(%ebp),%ecx
    2fdb:	89 0c 24             	mov    %ecx,(%esp)
    2fde:	e8 fd 5f 00 00       	call   8fe0 <pio_read_8>
    2fe3:	89 3c 24             	mov    %edi,(%esp)
    2fe6:	88 45 e0             	mov    %al,-0x20(%ebp)
    2fe9:	e8 92 c3 00 00       	call   f380 <fibril_mutex_unlock>
    2fee:	8a 45 e0             	mov    -0x20(%ebp),%al
    2ff1:	88 43 1f             	mov    %al,0x1f(%ebx)
    2ff4:	83 c4 2c             	add    $0x2c,%esp
    2ff7:	5b                   	pop    %ebx
    2ff8:	5e                   	pop    %esi
    2ff9:	5f                   	pop    %edi
    2ffa:	5d                   	pop    %ebp
    2ffb:	c3                   	ret    
    2ffc:	8d 74 26 00          	lea    0x0(%esi,%eiz,1),%esi

00003000 <pci_fun_delete>:
    3000:	55                   	push   %ebp
    3001:	89 e5                	mov    %esp,%ebp
    3003:	53                   	push   %ebx
    3004:	83 ec 14             	sub    $0x14,%esp
    3007:	8b 5d 08             	mov    0x8(%ebp),%ebx
    300a:	8b 43 24             	mov    0x24(%ebx),%eax
    300d:	85 c0                	test   %eax,%eax
    300f:	74 0f                	je     3020 <pci_fun_delete+0x20>
    3011:	89 04 24             	mov    %eax,(%esp)
    3014:	e8 d7 56 01 00       	call   186f0 <free>
    3019:	c7 43 24 00 00 00 00 	movl   $0x0,0x24(%ebx)
    3020:	8b 43 04             	mov    0x4(%ebx),%eax
    3023:	c7 43 20 00 00 00 00 	movl   $0x0,0x20(%ebx)
    302a:	85 c0                	test   %eax,%eax
    302c:	74 12                	je     3040 <pci_fun_delete+0x40>
    302e:	89 45 08             	mov    %eax,0x8(%ebp)
    3031:	83 c4 14             	add    $0x14,%esp
    3034:	5b                   	pop    %ebx
    3035:	5d                   	pop    %ebp
    3036:	e9 e5 0c 00 00       	jmp    3d20 <ddf_fun_destroy>
    303b:	90                   	nop
    303c:	8d 74 26 00          	lea    0x0(%esi,%eiz,1),%esi
    3040:	83 c4 14             	add    $0x14,%esp
    3043:	5b                   	pop    %ebx
    3044:	5d                   	pop    %ebp
    3045:	c3                   	ret    
    3046:	8d 76 00             	lea    0x0(%esi),%esi
    3049:	8d bc 27 00 00 00 00 	lea    0x0(%edi,%eiz,1),%edi

00003050 <pci_fun_create_name>:
    3050:	55                   	push   %ebp
    3051:	89 e5                	mov    %esp,%ebp
    3053:	83 ec 38             	sub    $0x38,%esp
    3056:	8b 45 08             	mov    0x8(%ebp),%eax
    3059:	c7 45 f4 00 00 00 00 	movl   $0x0,-0xc(%ebp)
    3060:	8b 50 10             	mov    0x10(%eax),%edx
    3063:	89 54 24 10          	mov    %edx,0x10(%esp)
    3067:	8b 50 0c             	mov    0xc(%eax),%edx
    306a:	89 54 24 0c          	mov    %edx,0xc(%esp)
    306e:	8b 40 08             	mov    0x8(%eax),%eax
    3071:	c7 44 24 04 4d 77 02 	movl   $0x2774d,0x4(%esp)
    3078:	00 
    3079:	89 44 24 08          	mov    %eax,0x8(%esp)
    307d:	8d 45 f4             	lea    -0xc(%ebp),%eax
    3080:	89 04 24             	mov    %eax,(%esp)
    3083:	e8 c8 dc 00 00       	call   10d50 <asprintf>
    3088:	8b 45 f4             	mov    -0xc(%ebp),%eax
    308b:	c9                   	leave  
    308c:	c3                   	ret    
    308d:	8d 76 00             	lea    0x0(%esi),%esi

00003090 <pci_alloc_resource_list>:
    3090:	55                   	push   %ebp
    3091:	89 e5                	mov    %esp,%ebp
    3093:	8b 45 08             	mov    0x8(%ebp),%eax
    3096:	8d 50 28             	lea    0x28(%eax),%edx
    3099:	89 50 24             	mov    %edx,0x24(%eax)
    309c:	b0 01                	mov    $0x1,%al
    309e:	5d                   	pop    %ebp
    309f:	c3                   	ret    

000030a0 <pci_clean_resource_list>:
    30a0:	55                   	push   %ebp
    30a1:	89 e5                	mov    %esp,%ebp
    30a3:	8b 45 08             	mov    0x8(%ebp),%eax
    30a6:	c7 40 24 00 00 00 00 	movl   $0x0,0x24(%eax)
    30ad:	5d                   	pop    %ebp
    30ae:	c3                   	ret    
    30af:	90                   	nop

000030b0 <pci_read_bars>:
    30b0:	55                   	push   %ebp
    30b1:	b8 10 00 00 00       	mov    $0x10,%eax
    30b6:	89 e5                	mov    %esp,%ebp
    30b8:	53                   	push   %ebx
    30b9:	83 ec 14             	sub    $0x14,%esp
    30bc:	8b 5d 08             	mov    0x8(%ebp),%ebx
    30bf:	90                   	nop
    30c0:	89 44 24 04          	mov    %eax,0x4(%esp)
    30c4:	89 1c 24             	mov    %ebx,(%esp)
    30c7:	e8 44 ed ff ff       	call   1e10 <pci_read_bar>
    30cc:	83 f8 24             	cmp    $0x24,%eax
    30cf:	7e ef                	jle    30c0 <pci_read_bars+0x10>
    30d1:	83 c4 14             	add    $0x14,%esp
    30d4:	5b                   	pop    %ebx
    30d5:	5d                   	pop    %ebp
    30d6:	c3                   	ret    
    30d7:	89 f6                	mov    %esi,%esi
    30d9:	8d bc 27 00 00 00 00 	lea    0x0(%edi,%eiz,1),%edi

000030e0 <pci_bar_mask_to_size>:
    30e0:	55                   	push   %ebp
    30e1:	89 e5                	mov    %esp,%ebp
    30e3:	8b 55 08             	mov    0x8(%ebp),%edx
    30e6:	5d                   	pop    %ebp
    30e7:	89 d0                	mov    %edx,%eax
    30e9:	f7 d8                	neg    %eax
    30eb:	21 d0                	and    %edx,%eax
    30ed:	c3                   	ret    
    30ee:	66 90                	xchg   %ax,%ax

000030f0 <main>:
    30f0:	55                   	push   %ebp
    30f1:	89 e5                	mov    %esp,%ebp
    30f3:	83 e4 f0             	and    $0xfffffff0,%esp
    30f6:	83 ec 10             	sub    $0x10,%esp
    30f9:	c7 04 24 c4 7a 02 00 	movl   $0x27ac4,(%esp)
    3100:	e8 8b 01 01 00       	call   13290 <printf>
    3105:	c7 04 24 15 78 02 00 	movl   $0x27815,(%esp)
    310c:	e8 df 14 00 00       	call   45f0 <ddf_log_init>
    3111:	c7 04 24 5c ab 02 00 	movl   $0x2ab5c,(%esp)
    3118:	c7 05 08 ab 02 00 38 	movl   $0x2ab38,0x2ab08
    311f:	ab 02 00 
    3122:	c7 05 18 ab 02 00 44 	movl   $0x2ab44,0x2ab18
    3129:	ab 02 00 
    312c:	e8 df 10 00 00       	call   4210 <ddf_driver_main>
    3131:	c9                   	leave  
    3132:	c3                   	ret    
    3133:	66 90                	xchg   %ax,%ax
    3135:	66 90                	xchg   %ax,%ax
    3137:	66 90                	xchg   %ax,%ax
    3139:	66 90                	xchg   %ax,%ax
    313b:	66 90                	xchg   %ax,%ax
    313d:	66 90                	xchg   %ax,%ax
    313f:	90                   	nop

00003140 <driver_connection_gen.isra.8>:
    3140:	55                   	push   %ebp
    3141:	89 e5                	mov    %esp,%ebp
    3143:	57                   	push   %edi
    3144:	56                   	push   %esi
    3145:	53                   	push   %ebx
    3146:	83 ec 5c             	sub    $0x5c,%esp
    3149:	89 c6                	mov    %eax,%esi
    314b:	8b 7a 08             	mov    0x8(%edx),%edi
    314e:	89 55 a8             	mov    %edx,-0x58(%ebp)
    3151:	c7 04 24 78 ab 02 00 	movl   $0x2ab78,(%esp)
    3158:	e8 03 c1 00 00       	call   f260 <fibril_mutex_lock>
    315d:	c7 04 24 78 ab 02 00 	movl   $0x2ab78,(%esp)
    3164:	e8 27 c3 00 00       	call   f490 <fibril_mutex_is_locked>
    3169:	8b 55 a8             	mov    -0x58(%ebp),%edx
    316c:	84 c0                	test   %al,%al
    316e:	0f 84 a6 02 00 00    	je     341a <driver_connection_gen.isra.8+0x2da>
    3174:	a1 8c ab 02 00       	mov    0x2ab8c,%eax
    3179:	3d 88 ab 02 00       	cmp    $0x2ab88,%eax
    317e:	75 12                	jne    3192 <driver_connection_gen.isra.8+0x52>
    3180:	eb 46                	jmp    31c8 <driver_connection_gen.isra.8+0x88>
    3182:	8d b6 00 00 00 00    	lea    0x0(%esi),%esi
    3188:	8b 40 04             	mov    0x4(%eax),%eax
    318b:	3d 88 ab 02 00       	cmp    $0x2ab88,%eax
    3190:	74 36                	je     31c8 <driver_connection_gen.isra.8+0x88>
    3192:	8d 58 d4             	lea    -0x2c(%eax),%ebx
    3195:	3b 7b 04             	cmp    0x4(%ebx),%edi
    3198:	75 ee                	jne    3188 <driver_connection_gen.isra.8+0x48>
    319a:	c7 04 24 78 ab 02 00 	movl   $0x2ab78,(%esp)
    31a1:	89 55 a8             	mov    %edx,-0x58(%ebp)
    31a4:	e8 d7 c1 00 00       	call   f380 <fibril_mutex_unlock>
    31a9:	8b 43 28             	mov    0x28(%ebx),%eax
    31ac:	85 c0                	test   %eax,%eax
    31ae:	8b 55 a8             	mov    -0x58(%ebp),%edx
    31b1:	74 55                	je     3208 <driver_connection_gen.isra.8+0xc8>
    31b3:	89 5c 24 08          	mov    %ebx,0x8(%esp)
    31b7:	89 34 24             	mov    %esi,(%esp)
    31ba:	89 54 24 04          	mov    %edx,0x4(%esp)
    31be:	ff d0                	call   *%eax
    31c0:	83 c4 5c             	add    $0x5c,%esp
    31c3:	5b                   	pop    %ebx
    31c4:	5e                   	pop    %esi
    31c5:	5f                   	pop    %edi
    31c6:	5d                   	pop    %ebp
    31c7:	c3                   	ret    
    31c8:	c7 04 24 78 ab 02 00 	movl   $0x2ab78,(%esp)
    31cf:	e8 ac c1 00 00       	call   f380 <fibril_mutex_unlock>
    31d4:	a1 e0 af 02 00       	mov    0x2afe0,%eax
    31d9:	89 7c 24 08          	mov    %edi,0x8(%esp)
    31dd:	8b 00                	mov    (%eax),%eax
    31df:	c7 04 24 40 7d 02 00 	movl   $0x27d40,(%esp)
    31e6:	89 44 24 04          	mov    %eax,0x4(%esp)
    31ea:	e8 a1 00 01 00       	call   13290 <printf>
    31ef:	c7 44 24 04 ff ff ff 	movl   $0xffffffff,0x4(%esp)
    31f6:	ff 
    31f7:	89 34 24             	mov    %esi,(%esp)
    31fa:	e8 91 82 01 00       	call   1b490 <async_answer_0>
    31ff:	83 c4 5c             	add    $0x5c,%esp
    3202:	5b                   	pop    %ebx
    3203:	5e                   	pop    %esi
    3204:	5f                   	pop    %edi
    3205:	5d                   	pop    %ebp
    3206:	c3                   	ret    
    3207:	90                   	nop
    3208:	8b 43 24             	mov    0x24(%ebx),%eax
    320b:	85 c0                	test   %eax,%eax
    320d:	0f 84 cd 01 00 00    	je     33e0 <driver_connection_gen.isra.8+0x2a0>
    3213:	8b 00                	mov    (%eax),%eax
    3215:	85 c0                	test   %eax,%eax
    3217:	0f 84 c3 01 00 00    	je     33e0 <driver_connection_gen.isra.8+0x2a0>
    321d:	89 1c 24             	mov    %ebx,(%esp)
    3220:	ff d0                	call   *%eax
    3222:	89 34 24             	mov    %esi,(%esp)
    3225:	89 44 24 04          	mov    %eax,0x4(%esp)
    3229:	89 45 a8             	mov    %eax,-0x58(%ebp)
    322c:	e8 5f 82 01 00       	call   1b490 <async_answer_0>
    3231:	8b 55 a8             	mov    -0x58(%ebp),%edx
    3234:	85 d2                	test   %edx,%edx
    3236:	75 c7                	jne    31ff <driver_connection_gen.isra.8+0xbf>
    3238:	8d 55 c4             	lea    -0x3c(%ebp),%edx
    323b:	89 7d ac             	mov    %edi,-0x54(%ebp)
    323e:	89 55 b4             	mov    %edx,-0x4c(%ebp)
    3241:	8d b4 26 00 00 00 00 	lea    0x0(%esi,%eiz,1),%esi
    3248:	c7 44 24 04 00 00 00 	movl   $0x0,0x4(%esp)
    324f:	00 
    3250:	89 14 24             	mov    %edx,(%esp)
    3253:	e8 08 6c 01 00       	call   19e60 <async_get_call_timeout>
    3258:	8b 75 c4             	mov    -0x3c(%ebp),%esi
    325b:	89 c7                	mov    %eax,%edi
    325d:	85 f6                	test   %esi,%esi
    325f:	0f 84 eb 00 00 00    	je     3350 <driver_connection_gen.isra.8+0x210>
    3265:	81 ee 00 04 00 00    	sub    $0x400,%esi
    326b:	89 34 24             	mov    %esi,(%esp)
    326e:	e8 8d 10 00 00       	call   4300 <is_valid_iface_idx>
    3273:	84 c0                	test   %al,%al
    3275:	75 31                	jne    32a8 <driver_connection_gen.isra.8+0x168>
    3277:	8b 43 24             	mov    0x24(%ebx),%eax
    327a:	85 c0                	test   %eax,%eax
    327c:	0f 84 96 00 00 00    	je     3318 <driver_connection_gen.isra.8+0x1d8>
    3282:	8b 40 34             	mov    0x34(%eax),%eax
    3285:	85 c0                	test   %eax,%eax
    3287:	0f 84 8b 00 00 00    	je     3318 <driver_connection_gen.isra.8+0x1d8>
    328d:	8b 55 b4             	mov    -0x4c(%ebp),%edx
    3290:	89 7c 24 04          	mov    %edi,0x4(%esp)
    3294:	89 54 24 08          	mov    %edx,0x8(%esp)
    3298:	89 1c 24             	mov    %ebx,(%esp)
    329b:	ff d0                	call   *%eax
    329d:	8b 55 b4             	mov    -0x4c(%ebp),%edx
    32a0:	eb a6                	jmp    3248 <driver_connection_gen.isra.8+0x108>
    32a2:	8d b6 00 00 00 00    	lea    0x0(%esi),%esi
    32a8:	89 34 24             	mov    %esi,(%esp)
    32ab:	e8 50 10 00 00       	call   4300 <is_valid_iface_idx>
    32b0:	84 c0                	test   %al,%al
    32b2:	0f 84 46 01 00 00    	je     33fe <driver_connection_gen.isra.8+0x2be>
    32b8:	8b 43 24             	mov    0x24(%ebx),%eax
    32bb:	85 c0                	test   %eax,%eax
    32bd:	0f 84 bd 00 00 00    	je     3380 <driver_connection_gen.isra.8+0x240>
    32c3:	8b 44 b0 08          	mov    0x8(%eax,%esi,4),%eax
    32c7:	89 45 b0             	mov    %eax,-0x50(%ebp)
    32ca:	85 c0                	test   %eax,%eax
    32cc:	0f 84 ae 00 00 00    	je     3380 <driver_connection_gen.isra.8+0x240>
    32d2:	89 34 24             	mov    %esi,(%esp)
    32d5:	e8 c6 0f 00 00       	call   42a0 <get_remote_iface>
    32da:	85 c0                	test   %eax,%eax
    32dc:	0f 84 54 01 00 00    	je     3436 <driver_connection_gen.isra.8+0x2f6>
    32e2:	8b 55 c8             	mov    -0x38(%ebp),%edx
    32e5:	89 04 24             	mov    %eax,(%esp)
    32e8:	89 54 24 04          	mov    %edx,0x4(%esp)
    32ec:	e8 ef 0f 00 00       	call   42e0 <get_remote_method>
    32f1:	85 c0                	test   %eax,%eax
    32f3:	0f 84 b7 00 00 00    	je     33b0 <driver_connection_gen.isra.8+0x270>
    32f9:	8b 55 b4             	mov    -0x4c(%ebp),%edx
    32fc:	89 7c 24 08          	mov    %edi,0x8(%esp)
    3300:	89 54 24 0c          	mov    %edx,0xc(%esp)
    3304:	8b 55 b0             	mov    -0x50(%ebp),%edx
    3307:	89 54 24 04          	mov    %edx,0x4(%esp)
    330b:	89 1c 24             	mov    %ebx,(%esp)
    330e:	ff d0                	call   *%eax
    3310:	8b 55 b4             	mov    -0x4c(%ebp),%edx
    3313:	e9 30 ff ff ff       	jmp    3248 <driver_connection_gen.isra.8+0x108>
    3318:	a1 e0 af 02 00       	mov    0x2afe0,%eax
    331d:	89 74 24 08          	mov    %esi,0x8(%esp)
    3321:	8b 00                	mov    (%eax),%eax
    3323:	c7 04 24 6c 7c 02 00 	movl   $0x27c6c,(%esp)
    332a:	89 44 24 04          	mov    %eax,0x4(%esp)
    332e:	e8 5d ff 00 00       	call   13290 <printf>
    3333:	c7 44 24 04 f5 ff ff 	movl   $0xfffffff5,0x4(%esp)
    333a:	ff 
    333b:	89 3c 24             	mov    %edi,(%esp)
    333e:	e8 4d 81 01 00       	call   1b490 <async_answer_0>
    3343:	8b 55 b4             	mov    -0x4c(%ebp),%edx
    3346:	e9 fd fe ff ff       	jmp    3248 <driver_connection_gen.isra.8+0x108>
    334b:	90                   	nop
    334c:	8d 74 26 00          	lea    0x0(%esi,%eiz,1),%esi
    3350:	8b 43 24             	mov    0x24(%ebx),%eax
    3353:	85 c0                	test   %eax,%eax
    3355:	74 0c                	je     3363 <driver_connection_gen.isra.8+0x223>
    3357:	8b 40 04             	mov    0x4(%eax),%eax
    335a:	85 c0                	test   %eax,%eax
    335c:	74 05                	je     3363 <driver_connection_gen.isra.8+0x223>
    335e:	89 1c 24             	mov    %ebx,(%esp)
    3361:	ff d0                	call   *%eax
    3363:	89 3c 24             	mov    %edi,(%esp)
    3366:	c7 44 24 04 00 00 00 	movl   $0x0,0x4(%esp)
    336d:	00 
    336e:	e8 1d 81 01 00       	call   1b490 <async_answer_0>
    3373:	83 c4 5c             	add    $0x5c,%esp
    3376:	5b                   	pop    %ebx
    3377:	5e                   	pop    %esi
    3378:	5f                   	pop    %edi
    3379:	5d                   	pop    %ebp
    337a:	c3                   	ret    
    337b:	90                   	nop
    337c:	8d 74 26 00          	lea    0x0(%esi,%eiz,1),%esi
    3380:	a1 e0 af 02 00       	mov    0x2afe0,%eax
    3385:	8b 00                	mov    (%eax),%eax
    3387:	c7 04 24 a8 7c 02 00 	movl   $0x27ca8,(%esp)
    338e:	89 44 24 04          	mov    %eax,0x4(%esp)
    3392:	e8 f9 fe 00 00       	call   13290 <printf>
    3397:	8b 55 ac             	mov    -0x54(%ebp),%edx
    339a:	89 74 24 08          	mov    %esi,0x8(%esp)
    339e:	89 54 24 04          	mov    %edx,0x4(%esp)
    33a2:	c7 04 24 cc 7c 02 00 	movl   $0x27ccc,(%esp)
    33a9:	eb 83                	jmp    332e <driver_connection_gen.isra.8+0x1ee>
    33ab:	90                   	nop
    33ac:	8d 74 26 00          	lea    0x0(%esi,%eiz,1),%esi
    33b0:	a1 e0 af 02 00       	mov    0x2afe0,%eax
    33b5:	8b 00                	mov    (%eax),%eax
    33b7:	c7 04 24 04 7d 02 00 	movl   $0x27d04,(%esp)
    33be:	89 44 24 04          	mov    %eax,0x4(%esp)
    33c2:	e8 c9 fe 00 00       	call   13290 <printf>
    33c7:	c7 44 24 04 f5 ff ff 	movl   $0xfffffff5,0x4(%esp)
    33ce:	ff 
    33cf:	89 3c 24             	mov    %edi,(%esp)
    33d2:	e8 b9 80 01 00       	call   1b490 <async_answer_0>
    33d7:	8b 55 b4             	mov    -0x4c(%ebp),%edx
    33da:	e9 69 fe ff ff       	jmp    3248 <driver_connection_gen.isra.8+0x108>
    33df:	90                   	nop
    33e0:	c7 44 24 04 00 00 00 	movl   $0x0,0x4(%esp)
    33e7:	00 
    33e8:	89 34 24             	mov    %esi,(%esp)
    33eb:	e8 a0 80 01 00       	call   1b490 <async_answer_0>
    33f0:	8d 55 c4             	lea    -0x3c(%ebp),%edx
    33f3:	89 55 b4             	mov    %edx,-0x4c(%ebp)
    33f6:	89 7d ac             	mov    %edi,-0x54(%ebp)
    33f9:	e9 4a fe ff ff       	jmp    3248 <driver_connection_gen.isra.8+0x108>
    33fe:	c7 44 24 08 1e 03 00 	movl   $0x31e,0x8(%esp)
    3405:	00 
    3406:	c7 44 24 04 f8 7a 02 	movl   $0x27af8,0x4(%esp)
    340d:	00 
    340e:	c7 04 24 09 7b 02 00 	movl   $0x27b09,(%esp)
    3415:	e8 96 fd 01 00       	call   231b0 <assert_abort>
    341a:	c7 44 24 08 75 00 00 	movl   $0x75,0x8(%esp)
    3421:	00 
    3422:	c7 44 24 04 f8 7a 02 	movl   $0x27af8,0x4(%esp)
    3429:	00 
    342a:	c7 04 24 40 7c 02 00 	movl   $0x27c40,(%esp)
    3431:	e8 7a fd 01 00       	call   231b0 <assert_abort>
    3436:	c7 44 24 08 a6 01 00 	movl   $0x1a6,0x8(%esp)
    343d:	00 
    343e:	c7 44 24 04 f8 7a 02 	movl   $0x27af8,0x4(%esp)
    3445:	00 
    3446:	c7 04 24 21 7b 02 00 	movl   $0x27b21,(%esp)
    344d:	e8 5e fd 01 00       	call   231b0 <assert_abort>
    3452:	8d b4 26 00 00 00 00 	lea    0x0(%esi,%eiz,1),%esi
    3459:	8d bc 27 00 00 00 00 	lea    0x0(%edi,%eiz,1),%edi

00003460 <driver_connection>:
    3460:	55                   	push   %ebp
    3461:	89 e5                	mov    %esp,%ebp
    3463:	57                   	push   %edi
    3464:	56                   	push   %esi
    3465:	53                   	push   %ebx
    3466:	83 ec 6c             	sub    $0x6c,%esp
    3469:	8b 45 08             	mov    0x8(%ebp),%eax
    346c:	85 c0                	test   %eax,%eax
    346e:	75 58                	jne    34c8 <driver_connection+0x68>
    3470:	c7 44 24 04 00 00 00 	movl   $0x0,0x4(%esp)
    3477:	00 
    3478:	89 04 24             	mov    %eax,(%esp)
    347b:	e8 10 80 01 00       	call   1b490 <async_answer_0>
    3480:	8d 45 c4             	lea    -0x3c(%ebp),%eax
    3483:	c7 44 24 04 00 00 00 	movl   $0x0,0x4(%esp)
    348a:	00 
    348b:	89 04 24             	mov    %eax,(%esp)
    348e:	e8 cd 69 01 00       	call   19e60 <async_get_call_timeout>
    3493:	89 c6                	mov    %eax,%esi
    3495:	8b 45 c4             	mov    -0x3c(%ebp),%eax
    3498:	85 c0                	test   %eax,%eax
    349a:	74 3e                	je     34da <driver_connection+0x7a>
    349c:	2d 00 04 00 00       	sub    $0x400,%eax
    34a1:	83 f8 04             	cmp    $0x4,%eax
    34a4:	76 12                	jbe    34b8 <driver_connection+0x58>
    34a6:	c7 44 24 04 f5 ff ff 	movl   $0xfffffff5,0x4(%esp)
    34ad:	ff 
    34ae:	89 34 24             	mov    %esi,(%esp)
    34b1:	e8 da 7f 01 00       	call   1b490 <async_answer_0>
    34b6:	eb c8                	jmp    3480 <driver_connection+0x20>
    34b8:	8b 7d c8             	mov    -0x38(%ebp),%edi
    34bb:	ff 24 85 f0 7d 02 00 	jmp    *0x27df0(,%eax,4)
    34c2:	8d b6 00 00 00 00    	lea    0x0(%esi),%esi
    34c8:	8b 4d 0c             	mov    0xc(%ebp),%ecx
    34cb:	8b 51 04             	mov    0x4(%ecx),%edx
    34ce:	83 fa 02             	cmp    $0x2,%edx
    34d1:	75 15                	jne    34e8 <driver_connection+0x88>
    34d3:	89 ca                	mov    %ecx,%edx
    34d5:	e8 66 fc ff ff       	call   3140 <driver_connection_gen.isra.8>
    34da:	83 c4 6c             	add    $0x6c,%esp
    34dd:	5b                   	pop    %ebx
    34de:	5e                   	pop    %esi
    34df:	5f                   	pop    %edi
    34e0:	5d                   	pop    %ebp
    34e1:	c3                   	ret    
    34e2:	8d b6 00 00 00 00    	lea    0x0(%esi),%esi
    34e8:	83 fa 03             	cmp    $0x3,%edx
    34eb:	0f 84 2f 03 00 00    	je     3820 <driver_connection+0x3c0>
    34f1:	4a                   	dec    %edx
    34f2:	0f 84 78 ff ff ff    	je     3470 <driver_connection+0x10>
    34f8:	c7 44 24 04 ff ff ff 	movl   $0xffffffff,0x4(%esp)
    34ff:	ff 
    3500:	89 04 24             	mov    %eax,(%esp)
    3503:	e8 88 7f 01 00       	call   1b490 <async_answer_0>
    3508:	83 c4 6c             	add    $0x6c,%esp
    350b:	5b                   	pop    %ebx
    350c:	5e                   	pop    %esi
    350d:	5f                   	pop    %edi
    350e:	5d                   	pop    %ebp
    350f:	c3                   	ret    
    3510:	c7 04 24 78 ab 02 00 	movl   $0x2ab78,(%esp)
    3517:	e8 44 bd 00 00       	call   f260 <fibril_mutex_lock>
    351c:	c7 04 24 78 ab 02 00 	movl   $0x2ab78,(%esp)
    3523:	e8 68 bf 00 00       	call   f490 <fibril_mutex_is_locked>
    3528:	84 c0                	test   %al,%al
    352a:	0f 84 a0 04 00 00    	je     39d0 <driver_connection+0x570>
    3530:	a1 8c ab 02 00       	mov    0x2ab8c,%eax
    3535:	3d 88 ab 02 00       	cmp    $0x2ab88,%eax
    353a:	75 1a                	jne    3556 <driver_connection+0xf6>
    353c:	e9 87 03 00 00       	jmp    38c8 <driver_connection+0x468>
    3541:	8d b4 26 00 00 00 00 	lea    0x0(%esi,%eiz,1),%esi
    3548:	8b 40 04             	mov    0x4(%eax),%eax
    354b:	3d 88 ab 02 00       	cmp    $0x2ab88,%eax
    3550:	0f 84 72 03 00 00    	je     38c8 <driver_connection+0x468>
    3556:	8d 58 d4             	lea    -0x2c(%eax),%ebx
    3559:	3b 7b 04             	cmp    0x4(%ebx),%edi
    355c:	75 ea                	jne    3548 <driver_connection+0xe8>
    355e:	8b 43 0c             	mov    0xc(%ebx),%eax
    3561:	f0 ff 40 04          	lock incl 0x4(%eax)
    3565:	8d 7b 08             	lea    0x8(%ebx),%edi
    3568:	f0 ff 43 08          	lock incl 0x8(%ebx)
    356c:	c7 04 24 78 ab 02 00 	movl   $0x2ab78,(%esp)
    3573:	e8 08 be 00 00       	call   f380 <fibril_mutex_unlock>
    3578:	a1 e0 af 02 00       	mov    0x2afe0,%eax
    357d:	8b 40 04             	mov    0x4(%eax),%eax
    3580:	8b 40 0c             	mov    0xc(%eax),%eax
    3583:	85 c0                	test   %eax,%eax
    3585:	0f 84 e5 02 00 00    	je     3870 <driver_connection+0x410>
    358b:	89 1c 24             	mov    %ebx,(%esp)
    358e:	ff d0                	call   *%eax
    3590:	89 45 b0             	mov    %eax,-0x50(%ebp)
    3593:	8b 4b 0c             	mov    0xc(%ebx),%ecx
    3596:	83 c8 ff             	or     $0xffffffff,%eax
    3599:	89 4d b4             	mov    %ecx,-0x4c(%ebp)
    359c:	f0 0f c1 07          	lock xadd %eax,(%edi)
    35a0:	48                   	dec    %eax
    35a1:	0f 84 81 03 00 00    	je     3928 <driver_connection+0x4c8>
    35a7:	83 c8 ff             	or     $0xffffffff,%eax
    35aa:	8b 55 b4             	mov    -0x4c(%ebp),%edx
    35ad:	f0 0f c1 42 04       	lock xadd %eax,0x4(%edx)
    35b2:	48                   	dec    %eax
    35b3:	0f 84 37 03 00 00    	je     38f0 <driver_connection+0x490>
    35b9:	8b 45 b0             	mov    -0x50(%ebp),%eax
    35bc:	e9 88 00 00 00       	jmp    3649 <driver_connection+0x1e9>
    35c1:	8d b4 26 00 00 00 00 	lea    0x0(%esi,%eiz,1),%esi
    35c8:	c7 04 24 90 ab 02 00 	movl   $0x2ab90,(%esp)
    35cf:	e8 8c bc 00 00       	call   f260 <fibril_mutex_lock>
    35d4:	c7 04 24 90 ab 02 00 	movl   $0x2ab90,(%esp)
    35db:	e8 b0 be 00 00       	call   f490 <fibril_mutex_is_locked>
    35e0:	84 c0                	test   %al,%al
    35e2:	0f 84 04 04 00 00    	je     39ec <driver_connection+0x58c>
    35e8:	a1 a4 ab 02 00       	mov    0x2aba4,%eax
    35ed:	3d a0 ab 02 00       	cmp    $0x2aba0,%eax
    35f2:	75 1a                	jne    360e <driver_connection+0x1ae>
    35f4:	e9 a7 02 00 00       	jmp    38a0 <driver_connection+0x440>
    35f9:	8d b4 26 00 00 00 00 	lea    0x0(%esi,%eiz,1),%esi
    3600:	8b 40 04             	mov    0x4(%eax),%eax
    3603:	3d a0 ab 02 00       	cmp    $0x2aba0,%eax
    3608:	0f 84 92 02 00 00    	je     38a0 <driver_connection+0x440>
    360e:	8d 58 ec             	lea    -0x14(%eax),%ebx
    3611:	3b 78 ec             	cmp    -0x14(%eax),%edi
    3614:	75 ea                	jne    3600 <driver_connection+0x1a0>
    3616:	8d 7b 04             	lea    0x4(%ebx),%edi
    3619:	f0 ff 43 04          	lock incl 0x4(%ebx)
    361d:	c7 04 24 90 ab 02 00 	movl   $0x2ab90,(%esp)
    3624:	e8 57 bd 00 00       	call   f380 <fibril_mutex_unlock>
    3629:	a1 e0 af 02 00       	mov    0x2afe0,%eax
    362e:	8b 40 04             	mov    0x4(%eax),%eax
    3631:	8b 40 08             	mov    0x8(%eax),%eax
    3634:	85 c0                	test   %eax,%eax
    3636:	0f 84 58 01 00 00    	je     3794 <driver_connection+0x334>
    363c:	89 1c 24             	mov    %ebx,(%esp)
    363f:	ff d0                	call   *%eax
    3641:	85 c0                	test   %eax,%eax
    3643:	0f 84 e7 01 00 00    	je     3830 <driver_connection+0x3d0>
    3649:	89 44 24 04          	mov    %eax,0x4(%esp)
    364d:	89 34 24             	mov    %esi,(%esp)
    3650:	e8 3b 7e 01 00       	call   1b490 <async_answer_0>
    3655:	e9 26 fe ff ff       	jmp    3480 <driver_connection+0x20>
    365a:	8d b6 00 00 00 00    	lea    0x0(%esi),%esi
    3660:	c7 44 24 04 1c 00 00 	movl   $0x1c,0x4(%esp)
    3667:	00 
    3668:	c7 04 24 01 00 00 00 	movl   $0x1,(%esp)
    366f:	e8 0c 4f 01 00       	call   18580 <calloc>
    3674:	89 c3                	mov    %eax,%ebx
    3676:	f0 ff 40 04          	lock incl 0x4(%eax)
    367a:	8d 55 c0             	lea    -0x40(%ebp),%edx
    367d:	89 38                	mov    %edi,(%eax)
    367f:	89 14 24             	mov    %edx,(%esp)
    3682:	c7 44 24 14 00 00 00 	movl   $0x0,0x14(%esp)
    3689:	00 
    368a:	c7 44 24 10 00 00 00 	movl   $0x0,0x10(%esp)
    3691:	00 
    3692:	c7 44 24 0c 00 00 00 	movl   $0x0,0xc(%esp)
    3699:	00 
    369a:	c7 44 24 08 00 00 00 	movl   $0x0,0x8(%esp)
    36a1:	00 
    36a2:	c7 44 24 04 01 00 00 	movl   $0x1,0x4(%esp)
    36a9:	00 
    36aa:	c7 45 c0 00 00 00 00 	movl   $0x0,-0x40(%ebp)
    36b1:	e8 fa 98 01 00       	call   1cfb0 <async_data_write_accept>
    36b6:	8b 45 c0             	mov    -0x40(%ebp),%eax
    36b9:	89 43 0c             	mov    %eax,0xc(%ebx)
    36bc:	a1 e0 af 02 00       	mov    0x2afe0,%eax
    36c1:	8b 40 04             	mov    0x4(%eax),%eax
    36c4:	89 1c 24             	mov    %ebx,(%esp)
    36c7:	ff 10                	call   *(%eax)
    36c9:	89 c7                	mov    %eax,%edi
    36cb:	85 c0                	test   %eax,%eax
    36cd:	0f 85 ad 01 00 00    	jne    3880 <driver_connection+0x420>
    36d3:	c7 04 24 90 ab 02 00 	movl   $0x2ab90,(%esp)
    36da:	e8 81 bb 00 00       	call   f260 <fibril_mutex_lock>
    36df:	8b 15 a0 ab 02 00    	mov    0x2aba0,%edx
    36e5:	8d 43 14             	lea    0x14(%ebx),%eax
    36e8:	c7 43 18 a0 ab 02 00 	movl   $0x2aba0,0x18(%ebx)
    36ef:	89 53 14             	mov    %edx,0x14(%ebx)
    36f2:	89 42 04             	mov    %eax,0x4(%edx)
    36f5:	c7 04 24 90 ab 02 00 	movl   $0x2ab90,(%esp)
    36fc:	a3 a0 ab 02 00       	mov    %eax,0x2aba0
    3701:	e8 7a bc 00 00       	call   f380 <fibril_mutex_unlock>
    3706:	c7 44 24 04 00 00 00 	movl   $0x0,0x4(%esp)
    370d:	00 
    370e:	89 34 24             	mov    %esi,(%esp)
    3711:	e8 7a 7d 01 00       	call   1b490 <async_answer_0>
    3716:	e9 65 fd ff ff       	jmp    3480 <driver_connection+0x20>
    371b:	90                   	nop
    371c:	8d 74 26 00          	lea    0x0(%esi,%eiz,1),%esi
    3720:	c7 04 24 90 ab 02 00 	movl   $0x2ab90,(%esp)
    3727:	e8 34 bb 00 00       	call   f260 <fibril_mutex_lock>
    372c:	c7 04 24 90 ab 02 00 	movl   $0x2ab90,(%esp)
    3733:	e8 58 bd 00 00       	call   f490 <fibril_mutex_is_locked>
    3738:	84 c0                	test   %al,%al
    373a:	0f 84 ac 02 00 00    	je     39ec <driver_connection+0x58c>
    3740:	a1 a4 ab 02 00       	mov    0x2aba4,%eax
    3745:	3d a0 ab 02 00       	cmp    $0x2aba0,%eax
    374a:	75 1a                	jne    3766 <driver_connection+0x306>
    374c:	e9 4f 01 00 00       	jmp    38a0 <driver_connection+0x440>
    3751:	8d b4 26 00 00 00 00 	lea    0x0(%esi,%eiz,1),%esi
    3758:	8b 40 04             	mov    0x4(%eax),%eax
    375b:	3d a0 ab 02 00       	cmp    $0x2aba0,%eax
    3760:	0f 84 3a 01 00 00    	je     38a0 <driver_connection+0x440>
    3766:	8d 58 ec             	lea    -0x14(%eax),%ebx
    3769:	3b 78 ec             	cmp    -0x14(%eax),%edi
    376c:	75 ea                	jne    3758 <driver_connection+0x2f8>
    376e:	8d 7b 04             	lea    0x4(%ebx),%edi
    3771:	f0 ff 43 04          	lock incl 0x4(%ebx)
    3775:	c7 04 24 90 ab 02 00 	movl   $0x2ab90,(%esp)
    377c:	e8 ff bb 00 00       	call   f380 <fibril_mutex_unlock>
    3781:	a1 e0 af 02 00       	mov    0x2afe0,%eax
    3786:	8b 40 04             	mov    0x4(%eax),%eax
    3789:	8b 40 04             	mov    0x4(%eax),%eax
    378c:	85 c0                	test   %eax,%eax
    378e:	0f 85 a8 fe ff ff    	jne    363c <driver_connection+0x1dc>
    3794:	b8 f5 ff ff ff       	mov    $0xfffffff5,%eax
    3799:	e9 ab fe ff ff       	jmp    3649 <driver_connection+0x1e9>
    379e:	66 90                	xchg   %ax,%ax
    37a0:	c7 04 24 78 ab 02 00 	movl   $0x2ab78,(%esp)
    37a7:	e8 b4 ba 00 00       	call   f260 <fibril_mutex_lock>
    37ac:	c7 04 24 78 ab 02 00 	movl   $0x2ab78,(%esp)
    37b3:	e8 d8 bc 00 00       	call   f490 <fibril_mutex_is_locked>
    37b8:	84 c0                	test   %al,%al
    37ba:	0f 84 10 02 00 00    	je     39d0 <driver_connection+0x570>
    37c0:	a1 8c ab 02 00       	mov    0x2ab8c,%eax
    37c5:	3d 88 ab 02 00       	cmp    $0x2ab88,%eax
    37ca:	75 1a                	jne    37e6 <driver_connection+0x386>
    37cc:	e9 f7 00 00 00       	jmp    38c8 <driver_connection+0x468>
    37d1:	8d b4 26 00 00 00 00 	lea    0x0(%esi,%eiz,1),%esi
    37d8:	8b 40 04             	mov    0x4(%eax),%eax
    37db:	3d 88 ab 02 00       	cmp    $0x2ab88,%eax
    37e0:	0f 84 e2 00 00 00    	je     38c8 <driver_connection+0x468>
    37e6:	8d 58 d4             	lea    -0x2c(%eax),%ebx
    37e9:	3b 7b 04             	cmp    0x4(%ebx),%edi
    37ec:	75 ea                	jne    37d8 <driver_connection+0x378>
    37ee:	8b 43 0c             	mov    0xc(%ebx),%eax
    37f1:	f0 ff 40 04          	lock incl 0x4(%eax)
    37f5:	f0 ff 43 08          	lock incl 0x8(%ebx)
    37f9:	c7 04 24 78 ab 02 00 	movl   $0x2ab78,(%esp)
    3800:	e8 7b bb 00 00       	call   f380 <fibril_mutex_unlock>
    3805:	a1 e0 af 02 00       	mov    0x2afe0,%eax
    380a:	8b 40 04             	mov    0x4(%eax),%eax
    380d:	8b 40 10             	mov    0x10(%eax),%eax
    3810:	85 c0                	test   %eax,%eax
    3812:	74 80                	je     3794 <driver_connection+0x334>
    3814:	89 1c 24             	mov    %ebx,(%esp)
    3817:	ff d0                	call   *%eax
    3819:	e9 2b fe ff ff       	jmp    3649 <driver_connection+0x1e9>
    381e:	66 90                	xchg   %ax,%ax
    3820:	8b 55 0c             	mov    0xc(%ebp),%edx
    3823:	e8 18 f9 ff ff       	call   3140 <driver_connection_gen.isra.8>
    3828:	83 c4 6c             	add    $0x6c,%esp
    382b:	5b                   	pop    %ebx
    382c:	5e                   	pop    %esi
    382d:	5f                   	pop    %edi
    382e:	5d                   	pop    %ebp
    382f:	c3                   	ret    
    3830:	83 ca ff             	or     $0xffffffff,%edx
    3833:	f0 0f c1 17          	lock xadd %edx,(%edi)
    3837:	4a                   	dec    %edx
    3838:	0f 85 0b fe ff ff    	jne    3649 <driver_connection+0x1e9>
    383e:	8b 43 08             	mov    0x8(%ebx),%eax
    3841:	85 c0                	test   %eax,%eax
    3843:	74 08                	je     384d <driver_connection+0x3ed>
    3845:	89 04 24             	mov    %eax,(%esp)
    3848:	e8 43 85 01 00       	call   1bd90 <async_hangup>
    384d:	8b 43 10             	mov    0x10(%ebx),%eax
    3850:	85 c0                	test   %eax,%eax
    3852:	74 08                	je     385c <driver_connection+0x3fc>
    3854:	89 04 24             	mov    %eax,(%esp)
    3857:	e8 94 4e 01 00       	call   186f0 <free>
    385c:	89 1c 24             	mov    %ebx,(%esp)
    385f:	e8 8c 4e 01 00       	call   186f0 <free>
    3864:	31 c0                	xor    %eax,%eax
    3866:	e9 de fd ff ff       	jmp    3649 <driver_connection+0x1e9>
    386b:	90                   	nop
    386c:	8d 74 26 00          	lea    0x0(%esi,%eiz,1),%esi
    3870:	c7 45 b0 f5 ff ff ff 	movl   $0xfffffff5,-0x50(%ebp)
    3877:	e9 17 fd ff ff       	jmp    3593 <driver_connection+0x133>
    387c:	8d 74 26 00          	lea    0x0(%esi,%eiz,1),%esi
    3880:	83 c8 ff             	or     $0xffffffff,%eax
    3883:	f0 0f c1 43 04       	lock xadd %eax,0x4(%ebx)
    3888:	48                   	dec    %eax
    3889:	0f 84 16 01 00 00    	je     39a5 <driver_connection+0x545>
    388f:	89 7c 24 04          	mov    %edi,0x4(%esp)
    3893:	89 34 24             	mov    %esi,(%esp)
    3896:	e8 f5 7b 01 00       	call   1b490 <async_answer_0>
    389b:	e9 e0 fb ff ff       	jmp    3480 <driver_connection+0x20>
    38a0:	c7 04 24 90 ab 02 00 	movl   $0x2ab90,(%esp)
    38a7:	e8 d4 ba 00 00       	call   f380 <fibril_mutex_unlock>
    38ac:	c7 44 24 04 ff ff ff 	movl   $0xffffffff,0x4(%esp)
    38b3:	ff 
    38b4:	89 34 24             	mov    %esi,(%esp)
    38b7:	e8 d4 7b 01 00       	call   1b490 <async_answer_0>
    38bc:	e9 bf fb ff ff       	jmp    3480 <driver_connection+0x20>
    38c1:	8d b4 26 00 00 00 00 	lea    0x0(%esi,%eiz,1),%esi
    38c8:	c7 04 24 78 ab 02 00 	movl   $0x2ab78,(%esp)
    38cf:	e8 ac ba 00 00       	call   f380 <fibril_mutex_unlock>
    38d4:	c7 44 24 04 ff ff ff 	movl   $0xffffffff,0x4(%esp)
    38db:	ff 
    38dc:	89 34 24             	mov    %esi,(%esp)
    38df:	e8 ac 7b 01 00       	call   1b490 <async_answer_0>
    38e4:	e9 97 fb ff ff       	jmp    3480 <driver_connection+0x20>
    38e9:	8d b4 26 00 00 00 00 	lea    0x0(%esi,%eiz,1),%esi
    38f0:	8b 42 08             	mov    0x8(%edx),%eax
    38f3:	85 c0                	test   %eax,%eax
    38f5:	74 08                	je     38ff <driver_connection+0x49f>
    38f7:	89 04 24             	mov    %eax,(%esp)
    38fa:	e8 91 84 01 00       	call   1bd90 <async_hangup>
    38ff:	8b 4d b4             	mov    -0x4c(%ebp),%ecx
    3902:	8b 41 10             	mov    0x10(%ecx),%eax
    3905:	85 c0                	test   %eax,%eax
    3907:	74 08                	je     3911 <driver_connection+0x4b1>
    3909:	89 04 24             	mov    %eax,(%esp)
    390c:	e8 df 4d 01 00       	call   186f0 <free>
    3911:	8b 55 b4             	mov    -0x4c(%ebp),%edx
    3914:	89 14 24             	mov    %edx,(%esp)
    3917:	e8 d4 4d 01 00       	call   186f0 <free>
    391c:	e9 98 fc ff ff       	jmp    35b9 <driver_connection+0x159>
    3921:	8d b4 26 00 00 00 00 	lea    0x0(%esi,%eiz,1),%esi
    3928:	8d 7b 18             	lea    0x18(%ebx),%edi
    392b:	8b 43 1c             	mov    0x1c(%ebx),%eax
    392e:	39 f8                	cmp    %edi,%eax
    3930:	74 48                	je     397a <driver_connection+0x51a>
    3932:	89 5d ac             	mov    %ebx,-0x54(%ebp)
    3935:	89 c3                	mov    %eax,%ebx
    3937:	90                   	nop
    3938:	8b 0b                	mov    (%ebx),%ecx
    393a:	85 c9                	test   %ecx,%ecx
    393c:	74 0e                	je     394c <driver_connection+0x4ec>
    393e:	8b 53 04             	mov    0x4(%ebx),%edx
    3941:	85 d2                	test   %edx,%edx
    3943:	74 07                	je     394c <driver_connection+0x4ec>
    3945:	89 0a                	mov    %ecx,(%edx)
    3947:	8b 0b                	mov    (%ebx),%ecx
    3949:	89 51 04             	mov    %edx,0x4(%ecx)
    394c:	8b 53 08             	mov    0x8(%ebx),%edx
    394f:	c7 03 00 00 00 00    	movl   $0x0,(%ebx)
    3955:	c7 43 04 00 00 00 00 	movl   $0x0,0x4(%ebx)
    395c:	85 d2                	test   %edx,%edx
    395e:	74 08                	je     3968 <driver_connection+0x508>
    3960:	89 14 24             	mov    %edx,(%esp)
    3963:	e8 88 4d 01 00       	call   186f0 <free>
    3968:	89 1c 24             	mov    %ebx,(%esp)
    396b:	e8 80 4d 01 00       	call   186f0 <free>
    3970:	8b 5f 04             	mov    0x4(%edi),%ebx
    3973:	39 fb                	cmp    %edi,%ebx
    3975:	75 c1                	jne    3938 <driver_connection+0x4d8>
    3977:	8b 5d ac             	mov    -0x54(%ebp),%ebx
    397a:	8b 43 20             	mov    0x20(%ebx),%eax
    397d:	85 c0                	test   %eax,%eax
    397f:	74 08                	je     3989 <driver_connection+0x529>
    3981:	89 04 24             	mov    %eax,(%esp)
    3984:	e8 67 4d 01 00       	call   186f0 <free>
    3989:	8b 43 14             	mov    0x14(%ebx),%eax
    398c:	85 c0                	test   %eax,%eax
    398e:	74 08                	je     3998 <driver_connection+0x538>
    3990:	89 04 24             	mov    %eax,(%esp)
    3993:	e8 58 4d 01 00       	call   186f0 <free>
    3998:	89 1c 24             	mov    %ebx,(%esp)
    399b:	e8 50 4d 01 00       	call   186f0 <free>
    39a0:	e9 02 fc ff ff       	jmp    35a7 <driver_connection+0x147>
    39a5:	8b 43 08             	mov    0x8(%ebx),%eax
    39a8:	85 c0                	test   %eax,%eax
    39aa:	74 08                	je     39b4 <driver_connection+0x554>
    39ac:	89 04 24             	mov    %eax,(%esp)
    39af:	e8 dc 83 01 00       	call   1bd90 <async_hangup>
    39b4:	8b 43 10             	mov    0x10(%ebx),%eax
    39b7:	85 c0                	test   %eax,%eax
    39b9:	74 08                	je     39c3 <driver_connection+0x563>
    39bb:	89 04 24             	mov    %eax,(%esp)
    39be:	e8 2d 4d 01 00       	call   186f0 <free>
    39c3:	89 1c 24             	mov    %ebx,(%esp)
    39c6:	e8 25 4d 01 00       	call   186f0 <free>
    39cb:	e9 bf fe ff ff       	jmp    388f <driver_connection+0x42f>
    39d0:	c7 44 24 08 75 00 00 	movl   $0x75,0x8(%esp)
    39d7:	00 
    39d8:	c7 44 24 04 f8 7a 02 	movl   $0x27af8,0x4(%esp)
    39df:	00 
    39e0:	c7 04 24 40 7c 02 00 	movl   $0x27c40,(%esp)
    39e7:	e8 c4 f7 01 00       	call   231b0 <assert_abort>
    39ec:	c7 44 24 08 66 00 00 	movl   $0x66,0x8(%esp)
    39f3:	00 
    39f4:	c7 44 24 04 f8 7a 02 	movl   $0x27af8,0x4(%esp)
    39fb:	00 
    39fc:	c7 04 24 8c 7d 02 00 	movl   $0x27d8c,(%esp)
    3a03:	e8 a8 f7 01 00       	call   231b0 <assert_abort>
    3a08:	90                   	nop
    3a09:	8d b4 26 00 00 00 00 	lea    0x0(%esi,%eiz,1),%esi

00003a10 <ddf_dev_data_alloc>:
    3a10:	55                   	push   %ebp
    3a11:	89 e5                	mov    %esp,%ebp
    3a13:	53                   	push   %ebx
    3a14:	83 ec 14             	sub    $0x14,%esp
    3a17:	8b 5d 08             	mov    0x8(%ebp),%ebx
    3a1a:	8b 43 10             	mov    0x10(%ebx),%eax
    3a1d:	85 c0                	test   %eax,%eax
    3a1f:	75 20                	jne    3a41 <ddf_dev_data_alloc+0x31>
    3a21:	8b 45 0c             	mov    0xc(%ebp),%eax
    3a24:	c7 04 24 01 00 00 00 	movl   $0x1,(%esp)
    3a2b:	89 44 24 04          	mov    %eax,0x4(%esp)
    3a2f:	e8 4c 4b 01 00       	call   18580 <calloc>
    3a34:	85 c0                	test   %eax,%eax
    3a36:	74 03                	je     3a3b <ddf_dev_data_alloc+0x2b>
    3a38:	89 43 10             	mov    %eax,0x10(%ebx)
    3a3b:	83 c4 14             	add    $0x14,%esp
    3a3e:	5b                   	pop    %ebx
    3a3f:	5d                   	pop    %ebp
    3a40:	c3                   	ret    
    3a41:	c7 44 24 08 52 02 00 	movl   $0x252,0x8(%esp)
    3a48:	00 
    3a49:	c7 44 24 04 f8 7a 02 	movl   $0x27af8,0x4(%esp)
    3a50:	00 
    3a51:	c7 04 24 33 7b 02 00 	movl   $0x27b33,(%esp)
    3a58:	e8 53 f7 01 00       	call   231b0 <assert_abort>
    3a5d:	8d 76 00             	lea    0x0(%esi),%esi

00003a60 <ddf_fun_data_implant>:
    3a60:	55                   	push   %ebp
    3a61:	89 e5                	mov    %esp,%ebp
    3a63:	83 ec 18             	sub    $0x18,%esp
    3a66:	8b 45 08             	mov    0x8(%ebp),%eax
    3a69:	8b 50 20             	mov    0x20(%eax),%edx
    3a6c:	85 d2                	test   %edx,%edx
    3a6e:	75 08                	jne    3a78 <ddf_fun_data_implant+0x18>
    3a70:	8b 55 0c             	mov    0xc(%ebp),%edx
    3a73:	89 50 20             	mov    %edx,0x20(%eax)
    3a76:	c9                   	leave  
    3a77:	c3                   	ret    
    3a78:	c7 44 24 08 63 02 00 	movl   $0x263,0x8(%esp)
    3a7f:	00 
    3a80:	c7 44 24 04 f8 7a 02 	movl   $0x27af8,0x4(%esp)
    3a87:	00 
    3a88:	c7 04 24 4c 7b 02 00 	movl   $0x27b4c,(%esp)
    3a8f:	e8 1c f7 01 00       	call   231b0 <assert_abort>
    3a94:	8d b6 00 00 00 00    	lea    0x0(%esi),%esi
    3a9a:	8d bf 00 00 00 00    	lea    0x0(%edi),%edi

00003aa0 <ddf_dev_data_get>:
    3aa0:	55                   	push   %ebp
    3aa1:	89 e5                	mov    %esp,%ebp
    3aa3:	8b 45 08             	mov    0x8(%ebp),%eax
    3aa6:	5d                   	pop    %ebp
    3aa7:	8b 40 10             	mov    0x10(%eax),%eax
    3aaa:	c3                   	ret    
    3aab:	90                   	nop
    3aac:	8d 74 26 00          	lea    0x0(%esi,%eiz,1),%esi

00003ab0 <ddf_dev_get_handle>:
    3ab0:	55                   	push   %ebp
    3ab1:	89 e5                	mov    %esp,%ebp
    3ab3:	8b 45 08             	mov    0x8(%ebp),%eax
    3ab6:	5d                   	pop    %ebp
    3ab7:	8b 00                	mov    (%eax),%eax
    3ab9:	c3                   	ret    
    3aba:	8d b6 00 00 00 00    	lea    0x0(%esi),%esi

00003ac0 <ddf_dev_get_name>:
    3ac0:	55                   	push   %ebp
    3ac1:	89 e5                	mov    %esp,%ebp
    3ac3:	8b 45 08             	mov    0x8(%ebp),%eax
    3ac6:	5d                   	pop    %ebp
    3ac7:	8b 40 0c             	mov    0xc(%eax),%eax
    3aca:	c3                   	ret    
    3acb:	90                   	nop
    3acc:	8d 74 26 00          	lea    0x0(%esi,%eiz,1),%esi

00003ad0 <ddf_dev_parent_sess_create>:
    3ad0:	55                   	push   %ebp
    3ad1:	89 e5                	mov    %esp,%ebp
    3ad3:	53                   	push   %ebx
    3ad4:	83 ec 14             	sub    $0x14,%esp
    3ad7:	8b 5d 08             	mov    0x8(%ebp),%ebx
    3ada:	8b 4b 08             	mov    0x8(%ebx),%ecx
    3add:	85 c9                	test   %ecx,%ecx
    3adf:	75 22                	jne    3b03 <ddf_dev_parent_sess_create+0x33>
    3ae1:	c7 44 24 08 01 00 00 	movl   $0x1,0x8(%esp)
    3ae8:	00 
    3ae9:	8b 03                	mov    (%ebx),%eax
    3aeb:	89 44 24 04          	mov    %eax,0x4(%esp)
    3aef:	8b 45 0c             	mov    0xc(%ebp),%eax
    3af2:	89 04 24             	mov    %eax,(%esp)
    3af5:	e8 f6 63 00 00       	call   9ef0 <devman_parent_device_connect>
    3afa:	89 43 08             	mov    %eax,0x8(%ebx)
    3afd:	83 c4 14             	add    $0x14,%esp
    3b00:	5b                   	pop    %ebx
    3b01:	5d                   	pop    %ebp
    3b02:	c3                   	ret    
    3b03:	c7 44 24 08 87 02 00 	movl   $0x287,0x8(%esp)
    3b0a:	00 
    3b0b:	c7 44 24 04 f8 7a 02 	movl   $0x27af8,0x4(%esp)
    3b12:	00 
    3b13:	c7 04 24 65 7b 02 00 	movl   $0x27b65,(%esp)
    3b1a:	e8 91 f6 01 00       	call   231b0 <assert_abort>
    3b1f:	90                   	nop

00003b20 <ddf_dev_parent_sess_get>:
    3b20:	55                   	push   %ebp
    3b21:	89 e5                	mov    %esp,%ebp
    3b23:	8b 45 08             	mov    0x8(%ebp),%eax
    3b26:	5d                   	pop    %ebp
    3b27:	8b 40 08             	mov    0x8(%eax),%eax
    3b2a:	c3                   	ret    
    3b2b:	90                   	nop
    3b2c:	8d 74 26 00          	lea    0x0(%esi,%eiz,1),%esi

00003b30 <ddf_fun_set_name>:
    3b30:	55                   	push   %ebp
    3b31:	89 e5                	mov    %esp,%ebp
    3b33:	53                   	push   %ebx
    3b34:	83 ec 14             	sub    $0x14,%esp
    3b37:	8b 5d 08             	mov    0x8(%ebp),%ebx
    3b3a:	8b 43 14             	mov    0x14(%ebx),%eax
    3b3d:	85 c0                	test   %eax,%eax
    3b3f:	75 19                	jne    3b5a <ddf_fun_set_name+0x2a>
    3b41:	8b 45 0c             	mov    0xc(%ebp),%eax
    3b44:	89 04 24             	mov    %eax,(%esp)
    3b47:	e8 e4 a3 00 00       	call   df30 <str_dup>
    3b4c:	83 f8 01             	cmp    $0x1,%eax
    3b4f:	89 43 14             	mov    %eax,0x14(%ebx)
    3b52:	19 c0                	sbb    %eax,%eax
    3b54:	83 c4 14             	add    $0x14,%esp
    3b57:	5b                   	pop    %ebx
    3b58:	5d                   	pop    %ebp
    3b59:	c3                   	ret    
    3b5a:	c7 44 24 08 a0 02 00 	movl   $0x2a0,0x8(%esp)
    3b61:	00 
    3b62:	c7 44 24 04 f8 7a 02 	movl   $0x27af8,0x4(%esp)
    3b69:	00 
    3b6a:	c7 04 24 7e 7b 02 00 	movl   $0x27b7e,(%esp)
    3b71:	e8 3a f6 01 00       	call   231b0 <assert_abort>
    3b76:	8d 76 00             	lea    0x0(%esi),%esi
    3b79:	8d bc 27 00 00 00 00 	lea    0x0(%edi,%eiz,1),%edi

00003b80 <ddf_fun_get_dev>:
    3b80:	55                   	push   %ebp
    3b81:	89 e5                	mov    %esp,%ebp
    3b83:	8b 45 08             	mov    0x8(%ebp),%eax
    3b86:	5d                   	pop    %ebp
    3b87:	8b 40 0c             	mov    0xc(%eax),%eax
    3b8a:	c3                   	ret    
    3b8b:	90                   	nop
    3b8c:	8d 74 26 00          	lea    0x0(%esi,%eiz,1),%esi

00003b90 <ddf_fun_get_handle>:
    3b90:	55                   	push   %ebp
    3b91:	89 e5                	mov    %esp,%ebp
    3b93:	8b 45 08             	mov    0x8(%ebp),%eax
    3b96:	5d                   	pop    %ebp
    3b97:	8b 40 04             	mov    0x4(%eax),%eax
    3b9a:	c3                   	ret    
    3b9b:	90                   	nop
    3b9c:	8d 74 26 00          	lea    0x0(%esi,%eiz,1),%esi

00003ba0 <ddf_fun_create>:
    3ba0:	55                   	push   %ebp
    3ba1:	89 e5                	mov    %esp,%ebp
    3ba3:	57                   	push   %edi
    3ba4:	56                   	push   %esi
    3ba5:	53                   	push   %ebx
    3ba6:	83 ec 1c             	sub    $0x1c,%esp
    3ba9:	8b 75 08             	mov    0x8(%ebp),%esi
    3bac:	c7 44 24 04 34 00 00 	movl   $0x34,0x4(%esp)
    3bb3:	00 
    3bb4:	c7 04 24 01 00 00 00 	movl   $0x1,(%esp)
    3bbb:	e8 c0 49 01 00       	call   18580 <calloc>
    3bc0:	89 c3                	mov    %eax,%ebx
    3bc2:	85 c0                	test   %eax,%eax
    3bc4:	74 44                	je     3c0a <ddf_fun_create+0x6a>
    3bc6:	8d 78 18             	lea    0x18(%eax),%edi
    3bc9:	c7 40 2c 00 00 00 00 	movl   $0x0,0x2c(%eax)
    3bd0:	89 78 18             	mov    %edi,0x18(%eax)
    3bd3:	89 78 1c             	mov    %edi,0x1c(%eax)
    3bd6:	c7 40 30 00 00 00 00 	movl   $0x0,0x30(%eax)
    3bdd:	89 70 0c             	mov    %esi,0xc(%eax)
    3be0:	f0 ff 46 04          	lock incl 0x4(%esi)
    3be4:	f0 ff 40 08          	lock incl 0x8(%eax)
    3be8:	c6 00 00             	movb   $0x0,(%eax)
    3beb:	8b 45 0c             	mov    0xc(%ebp),%eax
    3bee:	89 43 10             	mov    %eax,0x10(%ebx)
    3bf1:	8b 45 10             	mov    0x10(%ebp),%eax
    3bf4:	85 c0                	test   %eax,%eax
    3bf6:	74 12                	je     3c0a <ddf_fun_create+0x6a>
    3bf8:	8b 45 10             	mov    0x10(%ebp),%eax
    3bfb:	89 04 24             	mov    %eax,(%esp)
    3bfe:	e8 2d a3 00 00       	call   df30 <str_dup>
    3c03:	89 43 14             	mov    %eax,0x14(%ebx)
    3c06:	85 c0                	test   %eax,%eax
    3c08:	74 0a                	je     3c14 <ddf_fun_create+0x74>
    3c0a:	83 c4 1c             	add    $0x1c,%esp
    3c0d:	89 d8                	mov    %ebx,%eax
    3c0f:	5b                   	pop    %ebx
    3c10:	5e                   	pop    %esi
    3c11:	5f                   	pop    %edi
    3c12:	5d                   	pop    %ebp
    3c13:	c3                   	ret    
    3c14:	8b 73 1c             	mov    0x1c(%ebx),%esi
    3c17:	39 fe                	cmp    %edi,%esi
    3c19:	74 44                	je     3c5f <ddf_fun_create+0xbf>
    3c1b:	90                   	nop
    3c1c:	8d 74 26 00          	lea    0x0(%esi,%eiz,1),%esi
    3c20:	8b 0e                	mov    (%esi),%ecx
    3c22:	85 c9                	test   %ecx,%ecx
    3c24:	74 0e                	je     3c34 <ddf_fun_create+0x94>
    3c26:	8b 46 04             	mov    0x4(%esi),%eax
    3c29:	85 c0                	test   %eax,%eax
    3c2b:	74 07                	je     3c34 <ddf_fun_create+0x94>
    3c2d:	89 08                	mov    %ecx,(%eax)
    3c2f:	8b 0e                	mov    (%esi),%ecx
    3c31:	89 41 04             	mov    %eax,0x4(%ecx)
    3c34:	8b 46 08             	mov    0x8(%esi),%eax
    3c37:	c7 06 00 00 00 00    	movl   $0x0,(%esi)
    3c3d:	c7 46 04 00 00 00 00 	movl   $0x0,0x4(%esi)
    3c44:	85 c0                	test   %eax,%eax
    3c46:	74 08                	je     3c50 <ddf_fun_create+0xb0>
    3c48:	89 04 24             	mov    %eax,(%esp)
    3c4b:	e8 a0 4a 01 00       	call   186f0 <free>
    3c50:	89 34 24             	mov    %esi,(%esp)
    3c53:	e8 98 4a 01 00       	call   186f0 <free>
    3c58:	8b 77 04             	mov    0x4(%edi),%esi
    3c5b:	39 fe                	cmp    %edi,%esi
    3c5d:	75 c1                	jne    3c20 <ddf_fun_create+0x80>
    3c5f:	8b 43 20             	mov    0x20(%ebx),%eax
    3c62:	85 c0                	test   %eax,%eax
    3c64:	74 08                	je     3c6e <ddf_fun_create+0xce>
    3c66:	89 04 24             	mov    %eax,(%esp)
    3c69:	e8 82 4a 01 00       	call   186f0 <free>
    3c6e:	8b 43 14             	mov    0x14(%ebx),%eax
    3c71:	85 c0                	test   %eax,%eax
    3c73:	74 08                	je     3c7d <ddf_fun_create+0xdd>
    3c75:	89 04 24             	mov    %eax,(%esp)
    3c78:	e8 73 4a 01 00       	call   186f0 <free>
    3c7d:	89 1c 24             	mov    %ebx,(%esp)
    3c80:	31 db                	xor    %ebx,%ebx
    3c82:	e8 69 4a 01 00       	call   186f0 <free>
    3c87:	eb 81                	jmp    3c0a <ddf_fun_create+0x6a>
    3c89:	8d b4 26 00 00 00 00 	lea    0x0(%esi,%eiz,1),%esi

00003c90 <ddf_fun_data_alloc>:
    3c90:	55                   	push   %ebp
    3c91:	89 e5                	mov    %esp,%ebp
    3c93:	53                   	push   %ebx
    3c94:	83 ec 14             	sub    $0x14,%esp
    3c97:	8b 5d 08             	mov    0x8(%ebp),%ebx
    3c9a:	80 3b 00             	cmpb   $0x0,(%ebx)
    3c9d:	75 27                	jne    3cc6 <ddf_fun_data_alloc+0x36>
    3c9f:	8b 43 20             	mov    0x20(%ebx),%eax
    3ca2:	85 c0                	test   %eax,%eax
    3ca4:	75 3c                	jne    3ce2 <ddf_fun_data_alloc+0x52>
    3ca6:	8b 45 0c             	mov    0xc(%ebp),%eax
    3ca9:	c7 04 24 01 00 00 00 	movl   $0x1,(%esp)
    3cb0:	89 44 24 04          	mov    %eax,0x4(%esp)
    3cb4:	e8 c7 48 01 00       	call   18580 <calloc>
    3cb9:	85 c0                	test   %eax,%eax
    3cbb:	74 03                	je     3cc0 <ddf_fun_data_alloc+0x30>
    3cbd:	89 43 20             	mov    %eax,0x20(%ebx)
    3cc0:	83 c4 14             	add    $0x14,%esp
    3cc3:	5b                   	pop    %ebx
    3cc4:	5d                   	pop    %ebp
    3cc5:	c3                   	ret    
    3cc6:	c7 44 24 08 ec 02 00 	movl   $0x2ec,0x8(%esp)
    3ccd:	00 
    3cce:	c7 44 24 04 f8 7a 02 	movl   $0x27af8,0x4(%esp)
    3cd5:	00 
    3cd6:	c7 04 24 90 7b 02 00 	movl   $0x27b90,(%esp)
    3cdd:	e8 ce f4 01 00       	call   231b0 <assert_abort>
    3ce2:	c7 44 24 08 ed 02 00 	movl   $0x2ed,0x8(%esp)
    3ce9:	00 
    3cea:	c7 44 24 04 f8 7a 02 	movl   $0x27af8,0x4(%esp)
    3cf1:	00 
    3cf2:	c7 04 24 4c 7b 02 00 	movl   $0x27b4c,(%esp)
    3cf9:	e8 b2 f4 01 00       	call   231b0 <assert_abort>
    3cfe:	66 90                	xchg   %ax,%ax

00003d00 <ddf_fun_data_get>:
    3d00:	55                   	push   %ebp
    3d01:	89 e5                	mov    %esp,%ebp
    3d03:	8b 45 08             	mov    0x8(%ebp),%eax
    3d06:	5d                   	pop    %ebp
    3d07:	8b 40 20             	mov    0x20(%eax),%eax
    3d0a:	c3                   	ret    
    3d0b:	90                   	nop
    3d0c:	8d 74 26 00          	lea    0x0(%esi,%eiz,1),%esi

00003d10 <ddf_fun_get_name>:
    3d10:	55                   	push   %ebp
    3d11:	89 e5                	mov    %esp,%ebp
    3d13:	8b 45 08             	mov    0x8(%ebp),%eax
    3d16:	5d                   	pop    %ebp
    3d17:	8b 40 14             	mov    0x14(%eax),%eax
    3d1a:	c3                   	ret    
    3d1b:	90                   	nop
    3d1c:	8d 74 26 00          	lea    0x0(%esi,%eiz,1),%esi

00003d20 <ddf_fun_destroy>:
    3d20:	55                   	push   %ebp
    3d21:	89 e5                	mov    %esp,%ebp
    3d23:	57                   	push   %edi
    3d24:	56                   	push   %esi
    3d25:	53                   	push   %ebx
    3d26:	83 ec 2c             	sub    $0x2c,%esp
    3d29:	8b 5d 08             	mov    0x8(%ebp),%ebx
    3d2c:	80 3b 00             	cmpb   $0x0,(%ebx)
    3d2f:	0f 85 d8 00 00 00    	jne    3e0d <ddf_fun_destroy+0xed>
    3d35:	8b 73 0c             	mov    0xc(%ebx),%esi
    3d38:	83 c8 ff             	or     $0xffffffff,%eax
    3d3b:	f0 0f c1 43 08       	lock xadd %eax,0x8(%ebx)
    3d40:	48                   	dec    %eax
    3d41:	74 1d                	je     3d60 <ddf_fun_destroy+0x40>
    3d43:	83 c8 ff             	or     $0xffffffff,%eax
    3d46:	f0 0f c1 46 04       	lock xadd %eax,0x4(%esi)
    3d4b:	48                   	dec    %eax
    3d4c:	0f 84 8e 00 00 00    	je     3de0 <ddf_fun_destroy+0xc0>
    3d52:	83 c4 2c             	add    $0x2c,%esp
    3d55:	5b                   	pop    %ebx
    3d56:	5e                   	pop    %esi
    3d57:	5f                   	pop    %edi
    3d58:	5d                   	pop    %ebp
    3d59:	c3                   	ret    
    3d5a:	8d b6 00 00 00 00    	lea    0x0(%esi),%esi
    3d60:	8d 7b 18             	lea    0x18(%ebx),%edi
    3d63:	8b 43 1c             	mov    0x1c(%ebx),%eax
    3d66:	39 f8                	cmp    %edi,%eax
    3d68:	74 4b                	je     3db5 <ddf_fun_destroy+0x95>
    3d6a:	8d b6 00 00 00 00    	lea    0x0(%esi),%esi
    3d70:	8b 08                	mov    (%eax),%ecx
    3d72:	85 c9                	test   %ecx,%ecx
    3d74:	74 0e                	je     3d84 <ddf_fun_destroy+0x64>
    3d76:	8b 50 04             	mov    0x4(%eax),%edx
    3d79:	85 d2                	test   %edx,%edx
    3d7b:	74 07                	je     3d84 <ddf_fun_destroy+0x64>
    3d7d:	89 0a                	mov    %ecx,(%edx)
    3d7f:	8b 08                	mov    (%eax),%ecx
    3d81:	89 51 04             	mov    %edx,0x4(%ecx)
    3d84:	8b 50 08             	mov    0x8(%eax),%edx
    3d87:	c7 00 00 00 00 00    	movl   $0x0,(%eax)
    3d8d:	c7 40 04 00 00 00 00 	movl   $0x0,0x4(%eax)
    3d94:	85 d2                	test   %edx,%edx
    3d96:	74 0e                	je     3da6 <ddf_fun_destroy+0x86>
    3d98:	89 14 24             	mov    %edx,(%esp)
    3d9b:	89 45 e4             	mov    %eax,-0x1c(%ebp)
    3d9e:	e8 4d 49 01 00       	call   186f0 <free>
    3da3:	8b 45 e4             	mov    -0x1c(%ebp),%eax
    3da6:	89 04 24             	mov    %eax,(%esp)
    3da9:	e8 42 49 01 00       	call   186f0 <free>
    3dae:	8b 47 04             	mov    0x4(%edi),%eax
    3db1:	39 f8                	cmp    %edi,%eax
    3db3:	75 bb                	jne    3d70 <ddf_fun_destroy+0x50>
    3db5:	8b 43 20             	mov    0x20(%ebx),%eax
    3db8:	85 c0                	test   %eax,%eax
    3dba:	74 08                	je     3dc4 <ddf_fun_destroy+0xa4>
    3dbc:	89 04 24             	mov    %eax,(%esp)
    3dbf:	e8 2c 49 01 00       	call   186f0 <free>
    3dc4:	8b 43 14             	mov    0x14(%ebx),%eax
    3dc7:	85 c0                	test   %eax,%eax
    3dc9:	74 08                	je     3dd3 <ddf_fun_destroy+0xb3>
    3dcb:	89 04 24             	mov    %eax,(%esp)
    3dce:	e8 1d 49 01 00       	call   186f0 <free>
    3dd3:	89 1c 24             	mov    %ebx,(%esp)
    3dd6:	e8 15 49 01 00       	call   186f0 <free>
    3ddb:	e9 63 ff ff ff       	jmp    3d43 <ddf_fun_destroy+0x23>
    3de0:	8b 46 08             	mov    0x8(%esi),%eax
    3de3:	85 c0                	test   %eax,%eax
    3de5:	74 08                	je     3def <ddf_fun_destroy+0xcf>
    3de7:	89 04 24             	mov    %eax,(%esp)
    3dea:	e8 a1 7f 01 00       	call   1bd90 <async_hangup>
    3def:	8b 46 10             	mov    0x10(%esi),%eax
    3df2:	85 c0                	test   %eax,%eax
    3df4:	74 08                	je     3dfe <ddf_fun_destroy+0xde>
    3df6:	89 04 24             	mov    %eax,(%esp)
    3df9:	e8 f2 48 01 00       	call   186f0 <free>
    3dfe:	89 75 08             	mov    %esi,0x8(%ebp)
    3e01:	83 c4 2c             	add    $0x2c,%esp
    3e04:	5b                   	pop    %ebx
    3e05:	5e                   	pop    %esi
    3e06:	5f                   	pop    %edi
    3e07:	5d                   	pop    %ebp
    3e08:	e9 e3 48 01 00       	jmp    186f0 <free>
    3e0d:	c7 44 24 08 11 03 00 	movl   $0x311,0x8(%esp)
    3e14:	00 
    3e15:	c7 44 24 04 f8 7a 02 	movl   $0x27af8,0x4(%esp)
    3e1c:	00 
    3e1d:	c7 04 24 90 7b 02 00 	movl   $0x27b90,(%esp)
    3e24:	e8 87 f3 01 00       	call   231b0 <assert_abort>
    3e29:	8d b4 26 00 00 00 00 	lea    0x0(%esi,%eiz,1),%esi

00003e30 <ddf_fun_bind>:
    3e30:	55                   	push   %ebp
    3e31:	89 e5                	mov    %esp,%ebp
    3e33:	53                   	push   %ebx
    3e34:	83 ec 34             	sub    $0x34,%esp
    3e37:	8b 5d 08             	mov    0x8(%ebp),%ebx
    3e3a:	80 3b 00             	cmpb   $0x0,(%ebx)
    3e3d:	0f 85 c3 00 00 00    	jne    3f06 <ddf_fun_bind+0xd6>
    3e43:	8b 43 14             	mov    0x14(%ebx),%eax
    3e46:	85 c0                	test   %eax,%eax
    3e48:	0f 84 d4 00 00 00    	je     3f22 <ddf_fun_bind+0xf2>
    3e4e:	c7 04 24 78 ab 02 00 	movl   $0x2ab78,(%esp)
    3e55:	e8 06 b4 00 00       	call   f260 <fibril_mutex_lock>
    3e5a:	8b 15 88 ab 02 00    	mov    0x2ab88,%edx
    3e60:	8d 43 2c             	lea    0x2c(%ebx),%eax
    3e63:	c7 43 30 88 ab 02 00 	movl   $0x2ab88,0x30(%ebx)
    3e6a:	89 53 2c             	mov    %edx,0x2c(%ebx)
    3e6d:	89 42 04             	mov    %eax,0x4(%edx)
    3e70:	c7 04 24 78 ab 02 00 	movl   $0x2ab78,(%esp)
    3e77:	a3 88 ab 02 00       	mov    %eax,0x2ab88
    3e7c:	e8 ff b4 00 00       	call   f380 <fibril_mutex_unlock>
    3e81:	8d 43 04             	lea    0x4(%ebx),%eax
    3e84:	89 44 24 10          	mov    %eax,0x10(%esp)
    3e88:	8b 43 0c             	mov    0xc(%ebx),%eax
    3e8b:	8b 00                	mov    (%eax),%eax
    3e8d:	89 44 24 0c          	mov    %eax,0xc(%esp)
    3e91:	8d 43 18             	lea    0x18(%ebx),%eax
    3e94:	89 44 24 08          	mov    %eax,0x8(%esp)
    3e98:	8b 43 10             	mov    0x10(%ebx),%eax
    3e9b:	89 44 24 04          	mov    %eax,0x4(%esp)
    3e9f:	8b 43 14             	mov    0x14(%ebx),%eax
    3ea2:	89 04 24             	mov    %eax,(%esp)
    3ea5:	e8 56 58 00 00       	call   9700 <devman_add_function>
    3eaa:	85 c0                	test   %eax,%eax
    3eac:	75 0a                	jne    3eb8 <ddf_fun_bind+0x88>
    3eae:	c6 03 01             	movb   $0x1,(%ebx)
    3eb1:	83 c4 34             	add    $0x34,%esp
    3eb4:	5b                   	pop    %ebx
    3eb5:	5d                   	pop    %ebp
    3eb6:	c3                   	ret    
    3eb7:	90                   	nop
    3eb8:	c7 04 24 78 ab 02 00 	movl   $0x2ab78,(%esp)
    3ebf:	89 45 f4             	mov    %eax,-0xc(%ebp)
    3ec2:	e8 99 b3 00 00       	call   f260 <fibril_mutex_lock>
    3ec7:	8b 4b 2c             	mov    0x2c(%ebx),%ecx
    3eca:	85 c9                	test   %ecx,%ecx
    3ecc:	8b 45 f4             	mov    -0xc(%ebp),%eax
    3ecf:	74 0f                	je     3ee0 <ddf_fun_bind+0xb0>
    3ed1:	8b 53 30             	mov    0x30(%ebx),%edx
    3ed4:	85 d2                	test   %edx,%edx
    3ed6:	74 08                	je     3ee0 <ddf_fun_bind+0xb0>
    3ed8:	89 0a                	mov    %ecx,(%edx)
    3eda:	8b 4b 2c             	mov    0x2c(%ebx),%ecx
    3edd:	89 51 04             	mov    %edx,0x4(%ecx)
    3ee0:	c7 43 2c 00 00 00 00 	movl   $0x0,0x2c(%ebx)
    3ee7:	c7 43 30 00 00 00 00 	movl   $0x0,0x30(%ebx)
    3eee:	c7 04 24 78 ab 02 00 	movl   $0x2ab78,(%esp)
    3ef5:	89 45 f4             	mov    %eax,-0xc(%ebp)
    3ef8:	e8 83 b4 00 00       	call   f380 <fibril_mutex_unlock>
    3efd:	8b 45 f4             	mov    -0xc(%ebp),%eax
    3f00:	83 c4 34             	add    $0x34,%esp
    3f03:	5b                   	pop    %ebx
    3f04:	5d                   	pop    %ebp
    3f05:	c3                   	ret    
    3f06:	c7 44 24 08 35 03 00 	movl   $0x335,0x8(%esp)
    3f0d:	00 
    3f0e:	c7 44 24 04 f8 7a 02 	movl   $0x27af8,0x4(%esp)
    3f15:	00 
    3f16:	c7 04 24 90 7b 02 00 	movl   $0x27b90,(%esp)
    3f1d:	e8 8e f2 01 00       	call   231b0 <assert_abort>
    3f22:	c7 44 24 08 36 03 00 	movl   $0x336,0x8(%esp)
    3f29:	00 
    3f2a:	c7 44 24 04 f8 7a 02 	movl   $0x27af8,0x4(%esp)
    3f31:	00 
    3f32:	c7 04 24 a4 7b 02 00 	movl   $0x27ba4,(%esp)
    3f39:	e8 72 f2 01 00       	call   231b0 <assert_abort>
    3f3e:	66 90                	xchg   %ax,%ax

00003f40 <ddf_fun_unbind>:
    3f40:	55                   	push   %ebp
    3f41:	89 e5                	mov    %esp,%ebp
    3f43:	53                   	push   %ebx
    3f44:	83 ec 24             	sub    $0x24,%esp
    3f47:	8b 5d 08             	mov    0x8(%ebp),%ebx
    3f4a:	80 3b 00             	cmpb   $0x0,(%ebx)
    3f4d:	74 6a                	je     3fb9 <ddf_fun_unbind+0x79>
    3f4f:	8b 43 04             	mov    0x4(%ebx),%eax
    3f52:	89 04 24             	mov    %eax,(%esp)
    3f55:	e8 46 5c 00 00       	call   9ba0 <devman_remove_function>
    3f5a:	85 c0                	test   %eax,%eax
    3f5c:	74 0a                	je     3f68 <ddf_fun_unbind+0x28>
    3f5e:	83 c4 24             	add    $0x24,%esp
    3f61:	5b                   	pop    %ebx
    3f62:	5d                   	pop    %ebp
    3f63:	c3                   	ret    
    3f64:	8d 74 26 00          	lea    0x0(%esi,%eiz,1),%esi
    3f68:	c7 04 24 78 ab 02 00 	movl   $0x2ab78,(%esp)
    3f6f:	89 45 f4             	mov    %eax,-0xc(%ebp)
    3f72:	e8 e9 b2 00 00       	call   f260 <fibril_mutex_lock>
    3f77:	8b 4b 2c             	mov    0x2c(%ebx),%ecx
    3f7a:	85 c9                	test   %ecx,%ecx
    3f7c:	8b 45 f4             	mov    -0xc(%ebp),%eax
    3f7f:	74 0f                	je     3f90 <ddf_fun_unbind+0x50>
    3f81:	8b 53 30             	mov    0x30(%ebx),%edx
    3f84:	85 d2                	test   %edx,%edx
    3f86:	74 08                	je     3f90 <ddf_fun_unbind+0x50>
    3f88:	89 0a                	mov    %ecx,(%edx)
    3f8a:	8b 4b 2c             	mov    0x2c(%ebx),%ecx
    3f8d:	89 51 04             	mov    %edx,0x4(%ecx)
    3f90:	c7 43 2c 00 00 00 00 	movl   $0x0,0x2c(%ebx)
    3f97:	c7 43 30 00 00 00 00 	movl   $0x0,0x30(%ebx)
    3f9e:	c7 04 24 78 ab 02 00 	movl   $0x2ab78,(%esp)
    3fa5:	89 45 f4             	mov    %eax,-0xc(%ebp)
    3fa8:	e8 d3 b3 00 00       	call   f380 <fibril_mutex_unlock>
    3fad:	c6 03 00             	movb   $0x0,(%ebx)
    3fb0:	8b 45 f4             	mov    -0xc(%ebp),%eax
    3fb3:	83 c4 24             	add    $0x24,%esp
    3fb6:	5b                   	pop    %ebx
    3fb7:	5d                   	pop    %ebp
    3fb8:	c3                   	ret    
    3fb9:	c7 44 24 08 50 03 00 	movl   $0x350,0x8(%esp)
    3fc0:	00 
    3fc1:	c7 44 24 04 f8 7a 02 	movl   $0x27af8,0x4(%esp)
    3fc8:	00 
    3fc9:	c7 04 24 b6 7b 02 00 	movl   $0x27bb6,(%esp)
    3fd0:	e8 db f1 01 00       	call   231b0 <assert_abort>
    3fd5:	8d 74 26 00          	lea    0x0(%esi,%eiz,1),%esi
    3fd9:	8d bc 27 00 00 00 00 	lea    0x0(%edi,%eiz,1),%edi

00003fe0 <ddf_fun_online>:
    3fe0:	55                   	push   %ebp
    3fe1:	89 e5                	mov    %esp,%ebp
    3fe3:	83 ec 18             	sub    $0x18,%esp
    3fe6:	8b 45 08             	mov    0x8(%ebp),%eax
    3fe9:	80 38 00             	cmpb   $0x0,(%eax)
    3fec:	74 0c                	je     3ffa <ddf_fun_online+0x1a>
    3fee:	8b 40 04             	mov    0x4(%eax),%eax
    3ff1:	89 45 08             	mov    %eax,0x8(%ebp)
    3ff4:	c9                   	leave  
    3ff5:	e9 16 5d 00 00       	jmp    9d10 <devman_drv_fun_online>
    3ffa:	c7 44 24 08 65 03 00 	movl   $0x365,0x8(%esp)
    4001:	00 
    4002:	c7 44 24 04 f8 7a 02 	movl   $0x27af8,0x4(%esp)
    4009:	00 
    400a:	c7 04 24 b6 7b 02 00 	movl   $0x27bb6,(%esp)
    4011:	e8 9a f1 01 00       	call   231b0 <assert_abort>
    4016:	8d 76 00             	lea    0x0(%esi),%esi
    4019:	8d bc 27 00 00 00 00 	lea    0x0(%edi,%eiz,1),%edi

00004020 <ddf_fun_offline>:
    4020:	55                   	push   %ebp
    4021:	89 e5                	mov    %esp,%ebp
    4023:	83 ec 18             	sub    $0x18,%esp
    4026:	8b 45 08             	mov    0x8(%ebp),%eax
    4029:	80 38 00             	cmpb   $0x0,(%eax)
    402c:	74 0c                	je     403a <ddf_fun_offline+0x1a>
    402e:	8b 40 04             	mov    0x4(%eax),%eax
    4031:	89 45 08             	mov    %eax,0x8(%ebp)
    4034:	c9                   	leave  
    4035:	e9 c6 5d 00 00       	jmp    9e00 <devman_drv_fun_offline>
    403a:	c7 44 24 08 77 03 00 	movl   $0x377,0x8(%esp)
    4041:	00 
    4042:	c7 44 24 04 f8 7a 02 	movl   $0x27af8,0x4(%esp)
    4049:	00 
    404a:	c7 04 24 b6 7b 02 00 	movl   $0x27bb6,(%esp)
    4051:	e8 5a f1 01 00       	call   231b0 <assert_abort>
    4056:	8d 76 00             	lea    0x0(%esi),%esi
    4059:	8d bc 27 00 00 00 00 	lea    0x0(%edi,%eiz,1),%edi

00004060 <ddf_fun_add_match_id>:
    4060:	55                   	push   %ebp
    4061:	89 e5                	mov    %esp,%ebp
    4063:	57                   	push   %edi
    4064:	56                   	push   %esi
    4065:	53                   	push   %ebx
    4066:	83 ec 1c             	sub    $0x1c,%esp
    4069:	8b 75 08             	mov    0x8(%ebp),%esi
    406c:	8b 5d 10             	mov    0x10(%ebp),%ebx
    406f:	80 3e 00             	cmpb   $0x0,(%esi)
    4072:	0f 85 97 00 00 00    	jne    410f <ddf_fun_add_match_id+0xaf>
    4078:	83 7e 10 01          	cmpl   $0x1,0x10(%esi)
    407c:	75 75                	jne    40f3 <ddf_fun_add_match_id+0x93>
    407e:	c7 04 24 10 00 00 00 	movl   $0x10,(%esp)
    4085:	e8 56 45 01 00       	call   185e0 <malloc>
    408a:	c7 44 24 08 10 00 00 	movl   $0x10,0x8(%esp)
    4091:	00 
    4092:	89 c7                	mov    %eax,%edi
    4094:	c7 44 24 04 00 00 00 	movl   $0x0,0x4(%esp)
    409b:	00 
    409c:	89 04 24             	mov    %eax,(%esp)
    409f:	e8 5c 6f 00 00       	call   b000 <memset>
    40a4:	85 ff                	test   %edi,%edi
    40a6:	74 44                	je     40ec <ddf_fun_add_match_id+0x8c>
    40a8:	8b 45 0c             	mov    0xc(%ebp),%eax
    40ab:	89 04 24             	mov    %eax,(%esp)
    40ae:	e8 7d 9e 00 00       	call   df30 <str_dup>
    40b3:	8b 56 1c             	mov    0x1c(%esi),%edx
    40b6:	8d 4e 18             	lea    0x18(%esi),%ecx
    40b9:	89 47 08             	mov    %eax,0x8(%edi)
    40bc:	89 5f 0c             	mov    %ebx,0xc(%edi)
    40bf:	39 ca                	cmp    %ecx,%edx
    40c1:	75 0c                	jne    40cf <ddf_fun_add_match_id+0x6f>
    40c3:	eb 0f                	jmp    40d4 <ddf_fun_add_match_id+0x74>
    40c5:	8d 76 00             	lea    0x0(%esi),%esi
    40c8:	8b 52 04             	mov    0x4(%edx),%edx
    40cb:	39 ca                	cmp    %ecx,%edx
    40cd:	74 05                	je     40d4 <ddf_fun_add_match_id+0x74>
    40cf:	3b 5a 0c             	cmp    0xc(%edx),%ebx
    40d2:	76 f4                	jbe    40c8 <ddf_fun_add_match_id+0x68>
    40d4:	8b 02                	mov    (%edx),%eax
    40d6:	89 57 04             	mov    %edx,0x4(%edi)
    40d9:	89 07                	mov    %eax,(%edi)
    40db:	8b 02                	mov    (%edx),%eax
    40dd:	89 3a                	mov    %edi,(%edx)
    40df:	89 78 04             	mov    %edi,0x4(%eax)
    40e2:	31 c0                	xor    %eax,%eax
    40e4:	83 c4 1c             	add    $0x1c,%esp
    40e7:	5b                   	pop    %ebx
    40e8:	5e                   	pop    %esi
    40e9:	5f                   	pop    %edi
    40ea:	5d                   	pop    %ebp
    40eb:	c3                   	ret    
    40ec:	b8 fe ff ff ff       	mov    $0xfffffffe,%eax
    40f1:	eb f1                	jmp    40e4 <ddf_fun_add_match_id+0x84>
    40f3:	c7 44 24 08 91 03 00 	movl   $0x391,0x8(%esp)
    40fa:	00 
    40fb:	c7 44 24 04 f8 7a 02 	movl   $0x27af8,0x4(%esp)
    4102:	00 
    4103:	c7 04 24 c9 7b 02 00 	movl   $0x27bc9,(%esp)
    410a:	e8 a1 f0 01 00       	call   231b0 <assert_abort>
    410f:	c7 44 24 08 90 03 00 	movl   $0x390,0x8(%esp)
    4116:	00 
    4117:	c7 44 24 04 f8 7a 02 	movl   $0x27af8,0x4(%esp)
    411e:	00 
    411f:	c7 04 24 90 7b 02 00 	movl   $0x27b90,(%esp)
    4126:	e8 85 f0 01 00       	call   231b0 <assert_abort>
    412b:	90                   	nop
    412c:	8d 74 26 00          	lea    0x0(%esi,%eiz,1),%esi

00004130 <ddf_fun_set_ops>:
    4130:	55                   	push   %ebp
    4131:	89 e5                	mov    %esp,%ebp
    4133:	83 ec 18             	sub    $0x18,%esp
    4136:	8b 45 08             	mov    0x8(%ebp),%eax
    4139:	8b 50 28             	mov    0x28(%eax),%edx
    413c:	85 d2                	test   %edx,%edx
    413e:	75 08                	jne    4148 <ddf_fun_set_ops+0x18>
    4140:	8b 55 0c             	mov    0xc(%ebp),%edx
    4143:	89 50 24             	mov    %edx,0x24(%eax)
    4146:	c9                   	leave  
    4147:	c3                   	ret    
    4148:	c7 44 24 08 a1 03 00 	movl   $0x3a1,0x8(%esp)
    414f:	00 
    4150:	c7 44 24 04 f8 7a 02 	movl   $0x27af8,0x4(%esp)
    4157:	00 
    4158:	c7 04 24 e1 7b 02 00 	movl   $0x27be1,(%esp)
    415f:	e8 4c f0 01 00       	call   231b0 <assert_abort>
    4164:	8d b6 00 00 00 00    	lea    0x0(%esi),%esi
    416a:	8d bf 00 00 00 00    	lea    0x0(%edi),%edi

00004170 <ddf_fun_set_conn_handler>:
    4170:	55                   	push   %ebp
    4171:	89 e5                	mov    %esp,%ebp
    4173:	83 ec 18             	sub    $0x18,%esp
    4176:	8b 45 08             	mov    0x8(%ebp),%eax
    4179:	8b 48 24             	mov    0x24(%eax),%ecx
    417c:	85 c9                	test   %ecx,%ecx
    417e:	75 08                	jne    4188 <ddf_fun_set_conn_handler+0x18>
    4180:	8b 55 0c             	mov    0xc(%ebp),%edx
    4183:	89 50 28             	mov    %edx,0x28(%eax)
    4186:	c9                   	leave  
    4187:	c3                   	ret    
    4188:	c7 44 24 08 ab 03 00 	movl   $0x3ab,0x8(%esp)
    418f:	00 
    4190:	c7 44 24 04 f8 7a 02 	movl   $0x27af8,0x4(%esp)
    4197:	00 
    4198:	c7 04 24 fb 7b 02 00 	movl   $0x27bfb,(%esp)
    419f:	e8 0c f0 01 00       	call   231b0 <assert_abort>
    41a4:	8d b6 00 00 00 00    	lea    0x0(%esi),%esi
    41aa:	8d bf 00 00 00 00    	lea    0x0(%edi),%edi

000041b0 <ddf_fun_add_to_category>:
    41b0:	55                   	push   %ebp
    41b1:	89 e5                	mov    %esp,%ebp
    41b3:	83 ec 18             	sub    $0x18,%esp
    41b6:	8b 45 08             	mov    0x8(%ebp),%eax
    41b9:	8b 55 0c             	mov    0xc(%ebp),%edx
    41bc:	80 38 00             	cmpb   $0x0,(%eax)
    41bf:	74 15                	je     41d6 <ddf_fun_add_to_category+0x26>
    41c1:	83 78 10 02          	cmpl   $0x2,0x10(%eax)
    41c5:	75 2b                	jne    41f2 <ddf_fun_add_to_category+0x42>
    41c7:	89 55 0c             	mov    %edx,0xc(%ebp)
    41ca:	8b 40 04             	mov    0x4(%eax),%eax
    41cd:	89 45 08             	mov    %eax,0x8(%ebp)
    41d0:	c9                   	leave  
    41d1:	e9 ea 57 00 00       	jmp    99c0 <devman_add_device_to_category>
    41d6:	c7 44 24 08 be 03 00 	movl   $0x3be,0x8(%esp)
    41dd:	00 
    41de:	c7 44 24 04 f8 7a 02 	movl   $0x27af8,0x4(%esp)
    41e5:	00 
    41e6:	c7 04 24 b6 7b 02 00 	movl   $0x27bb6,(%esp)
    41ed:	e8 be ef 01 00       	call   231b0 <assert_abort>
    41f2:	c7 44 24 08 bf 03 00 	movl   $0x3bf,0x8(%esp)
    41f9:	00 
    41fa:	c7 44 24 04 f8 7a 02 	movl   $0x27af8,0x4(%esp)
    4201:	00 
    4202:	c7 04 24 0c 7c 02 00 	movl   $0x27c0c,(%esp)
    4209:	e8 a2 ef 01 00       	call   231b0 <assert_abort>
    420e:	66 90                	xchg   %ax,%ax

00004210 <ddf_driver_main>:
    4210:	55                   	push   %ebp
    4211:	89 e5                	mov    %esp,%ebp
    4213:	53                   	push   %ebx
    4214:	83 ec 14             	sub    $0x14,%esp
    4217:	8b 45 08             	mov    0x8(%ebp),%eax
    421a:	a3 e0 af 02 00       	mov    %eax,0x2afe0
    421f:	e8 7c 01 00 00       	call   43a0 <interrupt_init>
    4224:	c7 04 24 60 34 00 00 	movl   $0x3460,(%esp)
    422b:	e8 10 5a 01 00       	call   19c40 <async_set_client_connection>
    4230:	a1 e0 af 02 00       	mov    0x2afe0,%eax
    4235:	8b 00                	mov    (%eax),%eax
    4237:	89 04 24             	mov    %eax,(%esp)
    423a:	e8 81 52 00 00       	call   94c0 <devman_driver_register>
    423f:	89 c3                	mov    %eax,%ebx
    4241:	85 c0                	test   %eax,%eax
    4243:	74 2b                	je     4270 <ddf_driver_main+0x60>
    4245:	b8 26 7c 02 00       	mov    $0x27c26,%eax
    424a:	83 fb f7             	cmp    $0xfffffff7,%ebx
    424d:	74 08                	je     4257 <ddf_driver_main+0x47>
    424f:	89 1c 24             	mov    %ebx,(%esp)
    4252:	e8 19 a6 00 00       	call   e870 <str_error>
    4257:	89 44 24 04          	mov    %eax,0x4(%esp)
    425b:	c7 04 24 b4 7d 02 00 	movl   $0x27db4,(%esp)
    4262:	e8 29 f0 00 00       	call   13290 <printf>
    4267:	83 c4 14             	add    $0x14,%esp
    426a:	89 d8                	mov    %ebx,%eax
    426c:	5b                   	pop    %ebx
    426d:	5d                   	pop    %ebp
    426e:	c3                   	ret    
    426f:	90                   	nop
    4270:	c7 04 24 00 00 00 00 	movl   $0x0,(%esp)
    4277:	e8 34 c9 00 00       	call   10bb0 <task_retval>
    427c:	89 c3                	mov    %eax,%ebx
    427e:	85 c0                	test   %eax,%eax
    4280:	75 e5                	jne    4267 <ddf_driver_main+0x57>
    4282:	c7 04 24 01 00 00 00 	movl   $0x1,(%esp)
    4289:	e8 02 a8 00 00       	call   ea90 <fibril_switch>
    428e:	83 c4 14             	add    $0x14,%esp
    4291:	89 d8                	mov    %ebx,%eax
    4293:	5b                   	pop    %ebx
    4294:	5d                   	pop    %ebp
    4295:	c3                   	ret    
    4296:	66 90                	xchg   %ax,%ax
    4298:	66 90                	xchg   %ax,%ax
    429a:	66 90                	xchg   %ax,%ax
    429c:	66 90                	xchg   %ax,%ax
    429e:	66 90                	xchg   %ax,%ax

000042a0 <get_remote_iface>:
    42a0:	55                   	push   %ebp
    42a1:	89 e5                	mov    %esp,%ebp
    42a3:	83 ec 18             	sub    $0x18,%esp
    42a6:	8b 45 08             	mov    0x8(%ebp),%eax
    42a9:	83 f8 0a             	cmp    $0xa,%eax
    42ac:	77 09                	ja     42b7 <get_remote_iface+0x17>
    42ae:	8b 04 85 20 7e 02 00 	mov    0x27e20(,%eax,4),%eax
    42b5:	c9                   	leave  
    42b6:	c3                   	ret    
    42b7:	c7 44 24 08 47 00 00 	movl   $0x47,0x8(%esp)
    42be:	00 
    42bf:	c7 44 24 04 04 7e 02 	movl   $0x27e04,0x4(%esp)
    42c6:	00 
    42c7:	c7 04 24 09 7b 02 00 	movl   $0x27b09,(%esp)
    42ce:	e8 dd ee 01 00       	call   231b0 <assert_abort>
    42d3:	8d b6 00 00 00 00    	lea    0x0(%esi),%esi
    42d9:	8d bc 27 00 00 00 00 	lea    0x0(%edi,%eiz,1),%edi

000042e0 <get_remote_method>:
    42e0:	55                   	push   %ebp
    42e1:	89 e5                	mov    %esp,%ebp
    42e3:	8b 55 08             	mov    0x8(%ebp),%edx
    42e6:	8b 45 0c             	mov    0xc(%ebp),%eax
    42e9:	39 02                	cmp    %eax,(%edx)
    42eb:	76 0b                	jbe    42f8 <get_remote_method+0x18>
    42ed:	8b 52 04             	mov    0x4(%edx),%edx
    42f0:	5d                   	pop    %ebp
    42f1:	8b 04 82             	mov    (%edx,%eax,4),%eax
    42f4:	c3                   	ret    
    42f5:	8d 76 00             	lea    0x0(%esi),%esi
    42f8:	31 c0                	xor    %eax,%eax
    42fa:	5d                   	pop    %ebp
    42fb:	c3                   	ret    
    42fc:	8d 74 26 00          	lea    0x0(%esi,%eiz,1),%esi

00004300 <is_valid_iface_idx>:
    4300:	55                   	push   %ebp
    4301:	89 e5                	mov    %esp,%ebp
    4303:	83 7d 08 0a          	cmpl   $0xa,0x8(%ebp)
    4307:	5d                   	pop    %ebp
    4308:	0f 96 c0             	setbe  %al
    430b:	c3                   	ret    
    430c:	66 90                	xchg   %ax,%ax
    430e:	66 90                	xchg   %ax,%ax

00004310 <driver_irq_handler>:
    4310:	55                   	push   %ebp
    4311:	89 e5                	mov    %esp,%ebp
    4313:	57                   	push   %edi
    4314:	56                   	push   %esi
    4315:	53                   	push   %ebx
    4316:	83 ec 2c             	sub    $0x2c,%esp
    4319:	8b 5d 0c             	mov    0xc(%ebp),%ebx
    431c:	8b 45 08             	mov    0x8(%ebp),%eax
    431f:	89 45 e4             	mov    %eax,-0x1c(%ebp)
    4322:	8b 33                	mov    (%ebx),%esi
    4324:	c7 04 24 f0 af 02 00 	movl   $0x2aff0,(%esp)
    432b:	e8 30 af 00 00       	call   f260 <fibril_mutex_lock>
    4330:	a1 ec af 02 00       	mov    0x2afec,%eax
    4335:	3d e8 af 02 00       	cmp    $0x2afe8,%eax
    433a:	75 0e                	jne    434a <driver_irq_handler+0x3a>
    433c:	eb 42                	jmp    4380 <driver_irq_handler+0x70>
    433e:	66 90                	xchg   %ax,%ax
    4340:	8b 40 04             	mov    0x4(%eax),%eax
    4343:	3d e8 af 02 00       	cmp    $0x2afe8,%eax
    4348:	74 36                	je     4380 <driver_irq_handler+0x70>
    434a:	8d 78 f0             	lea    -0x10(%eax),%edi
    434d:	3b 70 f0             	cmp    -0x10(%eax),%esi
    4350:	75 ee                	jne    4340 <driver_irq_handler+0x30>
    4352:	c7 04 24 f0 af 02 00 	movl   $0x2aff0,(%esp)
    4359:	e8 22 b0 00 00       	call   f380 <fibril_mutex_unlock>
    435e:	8b 47 0c             	mov    0xc(%edi),%eax
    4361:	85 c0                	test   %eax,%eax
    4363:	74 13                	je     4378 <driver_irq_handler+0x68>
    4365:	8b 55 e4             	mov    -0x1c(%ebp),%edx
    4368:	89 5c 24 08          	mov    %ebx,0x8(%esp)
    436c:	89 54 24 04          	mov    %edx,0x4(%esp)
    4370:	8b 57 04             	mov    0x4(%edi),%edx
    4373:	89 14 24             	mov    %edx,(%esp)
    4376:	ff d0                	call   *%eax
    4378:	83 c4 2c             	add    $0x2c,%esp
    437b:	5b                   	pop    %ebx
    437c:	5e                   	pop    %esi
    437d:	5f                   	pop    %edi
    437e:	5d                   	pop    %ebp
    437f:	c3                   	ret    
    4380:	c7 45 08 f0 af 02 00 	movl   $0x2aff0,0x8(%ebp)
    4387:	83 c4 2c             	add    $0x2c,%esp
    438a:	5b                   	pop    %ebx
    438b:	5e                   	pop    %esi
    438c:	5f                   	pop    %edi
    438d:	5d                   	pop    %ebp
    438e:	e9 ed af 00 00       	jmp    f380 <fibril_mutex_unlock>
    4393:	8d b6 00 00 00 00    	lea    0x0(%esi),%esi
    4399:	8d bc 27 00 00 00 00 	lea    0x0(%edi,%eiz,1),%edi

000043a0 <interrupt_init>:
    43a0:	55                   	push   %ebp
    43a1:	89 e5                	mov    %esp,%ebp
    43a3:	83 ec 18             	sub    $0x18,%esp
    43a6:	c7 44 24 08 1c 00 00 	movl   $0x1c,0x8(%esp)
    43ad:	00 
    43ae:	c7 44 24 04 00 00 00 	movl   $0x0,0x4(%esp)
    43b5:	00 
    43b6:	c7 04 24 e4 af 02 00 	movl   $0x2afe4,(%esp)
    43bd:	e8 3e 6c 00 00       	call   b000 <memset>
    43c2:	c7 04 24 f0 af 02 00 	movl   $0x2aff0,(%esp)
    43c9:	e8 72 ae 00 00       	call   f240 <fibril_mutex_initialize>
    43ce:	c7 04 24 10 43 00 00 	movl   $0x4310,(%esp)
    43d5:	c7 05 e8 af 02 00 e8 	movl   $0x2afe8,0x2afe8
    43dc:	af 02 00 
    43df:	c7 05 ec af 02 00 e8 	movl   $0x2afe8,0x2afec
    43e6:	af 02 00 
    43e9:	e8 92 58 01 00       	call   19c80 <async_set_interrupt_received>
    43ee:	c9                   	leave  
    43ef:	c3                   	ret    

000043f0 <register_interrupt_handler>:
    43f0:	55                   	push   %ebp
    43f1:	89 e5                	mov    %esp,%ebp
    43f3:	57                   	push   %edi
    43f4:	56                   	push   %esi
    43f5:	53                   	push   %ebx
    43f6:	83 ec 2c             	sub    $0x2c,%esp
    43f9:	8b 7d 08             	mov    0x8(%ebp),%edi
    43fc:	8b 5d 14             	mov    0x14(%ebp),%ebx
    43ff:	c7 04 24 18 00 00 00 	movl   $0x18,(%esp)
    4406:	e8 d5 41 01 00       	call   185e0 <malloc>
    440b:	89 c6                	mov    %eax,%esi
    440d:	85 c0                	test   %eax,%eax
    440f:	74 18                	je     4429 <register_interrupt_handler+0x39>
    4411:	c7 44 24 08 18 00 00 	movl   $0x18,0x8(%esp)
    4418:	00 
    4419:	c7 44 24 04 00 00 00 	movl   $0x0,0x4(%esp)
    4420:	00 
    4421:	89 04 24             	mov    %eax,(%esp)
    4424:	e8 d7 6b 00 00       	call   b000 <memset>
    4429:	8b 45 0c             	mov    0xc(%ebp),%eax
    442c:	c7 04 24 f0 af 02 00 	movl   $0x2aff0,(%esp)
    4433:	89 46 08             	mov    %eax,0x8(%esi)
    4436:	8b 45 10             	mov    0x10(%ebp),%eax
    4439:	89 46 0c             	mov    %eax,0xc(%esi)
    443c:	89 7e 04             	mov    %edi,0x4(%esi)
    443f:	e8 1c ae 00 00       	call   f260 <fibril_mutex_lock>
    4444:	a1 e4 af 02 00       	mov    0x2afe4,%eax
    4449:	8b 0d e8 af 02 00    	mov    0x2afe8,%ecx
    444f:	89 06                	mov    %eax,(%esi)
    4451:	40                   	inc    %eax
    4452:	c7 46 14 e8 af 02 00 	movl   $0x2afe8,0x14(%esi)
    4459:	a3 e4 af 02 00       	mov    %eax,0x2afe4
    445e:	8d 46 10             	lea    0x10(%esi),%eax
    4461:	89 41 04             	mov    %eax,0x4(%ecx)
    4464:	c7 04 24 f0 af 02 00 	movl   $0x2aff0,(%esp)
    446b:	89 4e 10             	mov    %ecx,0x10(%esi)
    446e:	a3 e8 af 02 00       	mov    %eax,0x2afe8
    4473:	e8 08 af 00 00       	call   f380 <fibril_mutex_unlock>
    4478:	85 db                	test   %ebx,%ebx
    447a:	0f 84 80 00 00 00    	je     4500 <register_interrupt_handler+0x110>
    4480:	8b 06                	mov    (%esi),%eax
    4482:	89 5c 24 0c          	mov    %ebx,0xc(%esp)
    4486:	89 44 24 08          	mov    %eax,0x8(%esp)
    448a:	8b 07                	mov    (%edi),%eax
    448c:	89 44 24 04          	mov    %eax,0x4(%esp)
    4490:	8b 45 0c             	mov    0xc(%ebp),%eax
    4493:	89 04 24             	mov    %eax,(%esp)
    4496:	e8 05 4c 00 00       	call   90a0 <irq_register>
    449b:	85 c0                	test   %eax,%eax
    449d:	75 09                	jne    44a8 <register_interrupt_handler+0xb8>
    449f:	83 c4 2c             	add    $0x2c,%esp
    44a2:	5b                   	pop    %ebx
    44a3:	5e                   	pop    %esi
    44a4:	5f                   	pop    %edi
    44a5:	5d                   	pop    %ebp
    44a6:	c3                   	ret    
    44a7:	90                   	nop
    44a8:	c7 04 24 f0 af 02 00 	movl   $0x2aff0,(%esp)
    44af:	89 45 e4             	mov    %eax,-0x1c(%ebp)
    44b2:	e8 a9 ad 00 00       	call   f260 <fibril_mutex_lock>
    44b7:	8b 5e 10             	mov    0x10(%esi),%ebx
    44ba:	85 db                	test   %ebx,%ebx
    44bc:	8b 45 e4             	mov    -0x1c(%ebp),%eax
    44bf:	74 0f                	je     44d0 <register_interrupt_handler+0xe0>
    44c1:	8b 4e 14             	mov    0x14(%esi),%ecx
    44c4:	85 c9                	test   %ecx,%ecx
    44c6:	74 08                	je     44d0 <register_interrupt_handler+0xe0>
    44c8:	89 19                	mov    %ebx,(%ecx)
    44ca:	8b 5e 10             	mov    0x10(%esi),%ebx
    44cd:	89 4b 04             	mov    %ecx,0x4(%ebx)
    44d0:	c7 04 24 f0 af 02 00 	movl   $0x2aff0,(%esp)
    44d7:	89 45 e4             	mov    %eax,-0x1c(%ebp)
    44da:	c7 46 10 00 00 00 00 	movl   $0x0,0x10(%esi)
    44e1:	c7 46 14 00 00 00 00 	movl   $0x0,0x14(%esi)
    44e8:	e8 93 ae 00 00       	call   f380 <fibril_mutex_unlock>
    44ed:	89 34 24             	mov    %esi,(%esp)
    44f0:	e8 fb 41 01 00       	call   186f0 <free>
    44f5:	8b 45 e4             	mov    -0x1c(%ebp),%eax
    44f8:	83 c4 2c             	add    $0x2c,%esp
    44fb:	5b                   	pop    %ebx
    44fc:	5e                   	pop    %esi
    44fd:	5f                   	pop    %edi
    44fe:	5d                   	pop    %ebp
    44ff:	c3                   	ret    
    4500:	bb a8 ab 02 00       	mov    $0x2aba8,%ebx
    4505:	e9 76 ff ff ff       	jmp    4480 <register_interrupt_handler+0x90>
    450a:	8d b6 00 00 00 00    	lea    0x0(%esi),%esi

00004510 <unregister_interrupt_handler>:
    4510:	55                   	push   %ebp
    4511:	89 e5                	mov    %esp,%ebp
    4513:	57                   	push   %edi
    4514:	56                   	push   %esi
    4515:	53                   	push   %ebx
    4516:	83 ec 1c             	sub    $0x1c,%esp
    4519:	8b 7d 08             	mov    0x8(%ebp),%edi
    451c:	8b 75 0c             	mov    0xc(%ebp),%esi
    451f:	c7 04 24 f0 af 02 00 	movl   $0x2aff0,(%esp)
    4526:	e8 35 ad 00 00       	call   f260 <fibril_mutex_lock>
    452b:	a1 ec af 02 00       	mov    0x2afec,%eax
    4530:	3d e8 af 02 00       	cmp    $0x2afe8,%eax
    4535:	75 13                	jne    454a <unregister_interrupt_handler+0x3a>
    4537:	e9 8c 00 00 00       	jmp    45c8 <unregister_interrupt_handler+0xb8>
    453c:	8d 74 26 00          	lea    0x0(%esi,%eiz,1),%esi
    4540:	8b 40 04             	mov    0x4(%eax),%eax
    4543:	3d e8 af 02 00       	cmp    $0x2afe8,%eax
    4548:	74 7e                	je     45c8 <unregister_interrupt_handler+0xb8>
    454a:	8d 58 f0             	lea    -0x10(%eax),%ebx
    454d:	3b 73 08             	cmp    0x8(%ebx),%esi
    4550:	75 ee                	jne    4540 <unregister_interrupt_handler+0x30>
    4552:	3b 7b 04             	cmp    0x4(%ebx),%edi
    4555:	75 e9                	jne    4540 <unregister_interrupt_handler+0x30>
    4557:	c7 04 24 f0 af 02 00 	movl   $0x2aff0,(%esp)
    455e:	e8 1d ae 00 00       	call   f380 <fibril_mutex_unlock>
    4563:	8b 07                	mov    (%edi),%eax
    4565:	89 44 24 04          	mov    %eax,0x4(%esp)
    4569:	89 34 24             	mov    %esi,(%esp)
    456c:	e8 7f 4b 00 00       	call   90f0 <irq_unregister>
    4571:	c7 04 24 f0 af 02 00 	movl   $0x2aff0,(%esp)
    4578:	89 c6                	mov    %eax,%esi
    457a:	e8 e1 ac 00 00       	call   f260 <fibril_mutex_lock>
    457f:	8b 43 10             	mov    0x10(%ebx),%eax
    4582:	85 c0                	test   %eax,%eax
    4584:	74 0f                	je     4595 <unregister_interrupt_handler+0x85>
    4586:	8b 53 14             	mov    0x14(%ebx),%edx
    4589:	85 d2                	test   %edx,%edx
    458b:	74 08                	je     4595 <unregister_interrupt_handler+0x85>
    458d:	89 02                	mov    %eax,(%edx)
    458f:	8b 4b 10             	mov    0x10(%ebx),%ecx
    4592:	89 51 04             	mov    %edx,0x4(%ecx)
    4595:	c7 43 10 00 00 00 00 	movl   $0x0,0x10(%ebx)
    459c:	c7 43 14 00 00 00 00 	movl   $0x0,0x14(%ebx)
    45a3:	c7 04 24 f0 af 02 00 	movl   $0x2aff0,(%esp)
    45aa:	e8 d1 ad 00 00       	call   f380 <fibril_mutex_unlock>
    45af:	89 1c 24             	mov    %ebx,(%esp)
    45b2:	e8 39 41 01 00       	call   186f0 <free>
    45b7:	83 c4 1c             	add    $0x1c,%esp
    45ba:	89 f0                	mov    %esi,%eax
    45bc:	5b                   	pop    %ebx
    45bd:	5e                   	pop    %esi
    45be:	5f                   	pop    %edi
    45bf:	5d                   	pop    %ebp
    45c0:	c3                   	ret    
    45c1:	8d b4 26 00 00 00 00 	lea    0x0(%esi,%eiz,1),%esi
    45c8:	c7 04 24 f0 af 02 00 	movl   $0x2aff0,(%esp)
    45cf:	e8 ac ad 00 00       	call   f380 <fibril_mutex_unlock>
    45d4:	8b 07                	mov    (%edi),%eax
    45d6:	89 45 0c             	mov    %eax,0xc(%ebp)
    45d9:	89 75 08             	mov    %esi,0x8(%ebp)
    45dc:	83 c4 1c             	add    $0x1c,%esp
    45df:	5b                   	pop    %ebx
    45e0:	5e                   	pop    %esi
    45e1:	5f                   	pop    %edi
    45e2:	5d                   	pop    %ebp
    45e3:	e9 08 4b 00 00       	jmp    90f0 <irq_unregister>
    45e8:	66 90                	xchg   %ax,%ax
    45ea:	66 90                	xchg   %ax,%ax
    45ec:	66 90                	xchg   %ax,%ax
    45ee:	66 90                	xchg   %ax,%ax

000045f0 <ddf_log_init>:
    45f0:	55                   	push   %ebp
    45f1:	89 e5                	mov    %esp,%ebp
    45f3:	5d                   	pop    %ebp
    45f4:	e9 77 ed 00 00       	jmp    13370 <log_init>
    45f9:	8d b4 26 00 00 00 00 	lea    0x0(%esi,%eiz,1),%esi

00004600 <ddf_msg>:
    4600:	55                   	push   %ebp
    4601:	89 e5                	mov    %esp,%ebp
    4603:	83 ec 18             	sub    $0x18,%esp
    4606:	8d 45 10             	lea    0x10(%ebp),%eax
    4609:	c7 04 24 ff ff ff ff 	movl   $0xffffffff,(%esp)
    4610:	89 44 24 0c          	mov    %eax,0xc(%esp)
    4614:	8b 45 0c             	mov    0xc(%ebp),%eax
    4617:	89 44 24 08          	mov    %eax,0x8(%esp)
    461b:	8b 45 08             	mov    0x8(%ebp),%eax
    461e:	89 44 24 04          	mov    %eax,0x4(%esp)
    4622:	e8 39 f0 00 00       	call   13660 <log_msgv>
    4627:	c9                   	leave  
    4628:	c3                   	ret    
    4629:	66 90                	xchg   %ax,%ax
    462b:	66 90                	xchg   %ax,%ax
    462d:	66 90                	xchg   %ax,%ax
    462f:	90                   	nop

00004630 <remote_hw_res_enable_interrupt>:
    4630:	55                   	push   %ebp
    4631:	89 e5                	mov    %esp,%ebp
    4633:	53                   	push   %ebx
    4634:	83 ec 14             	sub    $0x14,%esp
    4637:	8b 45 0c             	mov    0xc(%ebp),%eax
    463a:	8b 55 08             	mov    0x8(%ebp),%edx
    463d:	8b 5d 10             	mov    0x10(%ebp),%ebx
    4640:	8b 40 04             	mov    0x4(%eax),%eax
    4643:	85 c0                	test   %eax,%eax
    4645:	74 39                	je     4680 <remote_hw_res_enable_interrupt+0x50>
    4647:	89 14 24             	mov    %edx,(%esp)
    464a:	ff d0                	call   *%eax
    464c:	84 c0                	test   %al,%al
    464e:	75 18                	jne    4668 <remote_hw_res_enable_interrupt+0x38>
    4650:	89 5d 08             	mov    %ebx,0x8(%ebp)
    4653:	c7 45 0c fc ff ff ff 	movl   $0xfffffffc,0xc(%ebp)
    465a:	83 c4 14             	add    $0x14,%esp
    465d:	5b                   	pop    %ebx
    465e:	5d                   	pop    %ebp
    465f:	e9 2c 6e 01 00       	jmp    1b490 <async_answer_0>
    4664:	8d 74 26 00          	lea    0x0(%esi,%eiz,1),%esi
    4668:	89 5d 08             	mov    %ebx,0x8(%ebp)
    466b:	c7 45 0c 00 00 00 00 	movl   $0x0,0xc(%ebp)
    4672:	83 c4 14             	add    $0x14,%esp
    4675:	5b                   	pop    %ebx
    4676:	5d                   	pop    %ebp
    4677:	e9 14 6e 01 00       	jmp    1b490 <async_answer_0>
    467c:	8d 74 26 00          	lea    0x0(%esi,%eiz,1),%esi
    4680:	89 5d 08             	mov    %ebx,0x8(%ebp)
    4683:	c7 45 0c f5 ff ff ff 	movl   $0xfffffff5,0xc(%ebp)
    468a:	83 c4 14             	add    $0x14,%esp
    468d:	5b                   	pop    %ebx
    468e:	5d                   	pop    %ebp
    468f:	e9 fc 6d 01 00       	jmp    1b490 <async_answer_0>
    4694:	8d b6 00 00 00 00    	lea    0x0(%esi),%esi
    469a:	8d bf 00 00 00 00    	lea    0x0(%edi),%edi

000046a0 <remote_hw_res_get_resource_list>:
    46a0:	55                   	push   %ebp
    46a1:	89 e5                	mov    %esp,%ebp
    46a3:	53                   	push   %ebx
    46a4:	83 ec 24             	sub    $0x24,%esp
    46a7:	8b 45 0c             	mov    0xc(%ebp),%eax
    46aa:	8b 00                	mov    (%eax),%eax
    46ac:	85 c0                	test   %eax,%eax
    46ae:	74 48                	je     46f8 <remote_hw_res_get_resource_list+0x58>
    46b0:	8b 55 08             	mov    0x8(%ebp),%edx
    46b3:	89 14 24             	mov    %edx,(%esp)
    46b6:	ff d0                	call   *%eax
    46b8:	89 c3                	mov    %eax,%ebx
    46ba:	85 c0                	test   %eax,%eax
    46bc:	74 7a                	je     4738 <remote_hw_res_get_resource_list+0x98>
    46be:	8b 00                	mov    (%eax),%eax
    46c0:	c7 44 24 04 00 00 00 	movl   $0x0,0x4(%esp)
    46c7:	00 
    46c8:	89 44 24 08          	mov    %eax,0x8(%esp)
    46cc:	8b 45 10             	mov    0x10(%ebp),%eax
    46cf:	89 04 24             	mov    %eax,(%esp)
    46d2:	e8 f9 6d 01 00       	call   1b4d0 <async_answer_1>
    46d7:	8d 45 f4             	lea    -0xc(%ebp),%eax
    46da:	89 44 24 04          	mov    %eax,0x4(%esp)
    46de:	8d 45 10             	lea    0x10(%ebp),%eax
    46e1:	89 04 24             	mov    %eax,(%esp)
    46e4:	e8 17 83 01 00       	call   1ca00 <async_data_read_receive>
    46e9:	84 c0                	test   %al,%al
    46eb:	75 2b                	jne    4718 <remote_hw_res_get_resource_list+0x78>
    46ed:	83 c4 24             	add    $0x24,%esp
    46f0:	5b                   	pop    %ebx
    46f1:	5d                   	pop    %ebp
    46f2:	c3                   	ret    
    46f3:	90                   	nop
    46f4:	8d 74 26 00          	lea    0x0(%esi,%eiz,1),%esi
    46f8:	8b 45 10             	mov    0x10(%ebp),%eax
    46fb:	c7 44 24 04 f5 ff ff 	movl   $0xfffffff5,0x4(%esp)
    4702:	ff 
    4703:	89 04 24             	mov    %eax,(%esp)
    4706:	e8 85 6d 01 00       	call   1b490 <async_answer_0>
    470b:	83 c4 24             	add    $0x24,%esp
    470e:	5b                   	pop    %ebx
    470f:	5d                   	pop    %ebp
    4710:	c3                   	ret    
    4711:	8d b4 26 00 00 00 00 	lea    0x0(%esi,%eiz,1),%esi
    4718:	8b 45 f4             	mov    -0xc(%ebp),%eax
    471b:	89 44 24 08          	mov    %eax,0x8(%esp)
    471f:	8b 43 04             	mov    0x4(%ebx),%eax
    4722:	89 44 24 04          	mov    %eax,0x4(%esp)
    4726:	8b 45 10             	mov    0x10(%ebp),%eax
    4729:	89 04 24             	mov    %eax,(%esp)
    472c:	e8 2f 83 01 00       	call   1ca60 <async_data_read_finalize>
    4731:	83 c4 24             	add    $0x24,%esp
    4734:	5b                   	pop    %ebx
    4735:	5d                   	pop    %ebp
    4736:	c3                   	ret    
    4737:	90                   	nop
    4738:	8b 45 10             	mov    0x10(%ebp),%eax
    473b:	c7 44 24 04 ff ff ff 	movl   $0xffffffff,0x4(%esp)
    4742:	ff 
    4743:	89 04 24             	mov    %eax,(%esp)
    4746:	e8 45 6d 01 00       	call   1b490 <async_answer_0>
    474b:	83 c4 24             	add    $0x24,%esp
    474e:	5b                   	pop    %ebx
    474f:	5d                   	pop    %ebp
    4750:	c3                   	ret    
    4751:	66 90                	xchg   %ax,%ax
    4753:	66 90                	xchg   %ax,%ax
    4755:	66 90                	xchg   %ax,%ax
    4757:	66 90                	xchg   %ax,%ax
    4759:	66 90                	xchg   %ax,%ax
    475b:	66 90                	xchg   %ax,%ax
    475d:	66 90                	xchg   %ax,%ax
    475f:	90                   	nop

00004760 <remote_char_write>:
    4760:	55                   	push   %ebp
    4761:	89 e5                	mov    %esp,%ebp
    4763:	56                   	push   %esi
    4764:	53                   	push   %ebx
    4765:	81 ec 20 01 00 00    	sub    $0x120,%esp
    476b:	8d 85 f4 fe ff ff    	lea    -0x10c(%ebp),%eax
    4771:	8b 5d 0c             	mov    0xc(%ebp),%ebx
    4774:	89 44 24 04          	mov    %eax,0x4(%esp)
    4778:	8d 85 f0 fe ff ff    	lea    -0x110(%ebp),%eax
    477e:	89 04 24             	mov    %eax,(%esp)
    4781:	e8 9a 87 01 00       	call   1cf20 <async_data_write_receive>
    4786:	84 c0                	test   %al,%al
    4788:	0f 84 82 00 00 00    	je     4810 <remote_char_write+0xb0>
    478e:	8b 43 04             	mov    0x4(%ebx),%eax
    4791:	85 c0                	test   %eax,%eax
    4793:	0f 84 b7 00 00 00    	je     4850 <remote_char_write+0xf0>
    4799:	8b 85 f4 fe ff ff    	mov    -0x10c(%ebp),%eax
    479f:	3d 00 01 00 00       	cmp    $0x100,%eax
    47a4:	76 0f                	jbe    47b5 <remote_char_write+0x55>
    47a6:	c7 85 f4 fe ff ff 00 	movl   $0x100,-0x10c(%ebp)
    47ad:	01 00 00 
    47b0:	b8 00 01 00 00       	mov    $0x100,%eax
    47b5:	89 44 24 08          	mov    %eax,0x8(%esp)
    47b9:	8d b5 f8 fe ff ff    	lea    -0x108(%ebp),%esi
    47bf:	8b 85 f0 fe ff ff    	mov    -0x110(%ebp),%eax
    47c5:	89 74 24 04          	mov    %esi,0x4(%esp)
    47c9:	89 04 24             	mov    %eax,(%esp)
    47cc:	e8 9f 87 01 00       	call   1cf70 <async_data_write_finalize>
    47d1:	8b 85 f4 fe ff ff    	mov    -0x10c(%ebp),%eax
    47d7:	89 44 24 08          	mov    %eax,0x8(%esp)
    47db:	8b 45 08             	mov    0x8(%ebp),%eax
    47de:	89 74 24 04          	mov    %esi,0x4(%esp)
    47e2:	89 04 24             	mov    %eax,(%esp)
    47e5:	ff 53 04             	call   *0x4(%ebx)
    47e8:	85 c0                	test   %eax,%eax
    47ea:	78 44                	js     4830 <remote_char_write+0xd0>
    47ec:	89 44 24 08          	mov    %eax,0x8(%esp)
    47f0:	8b 45 10             	mov    0x10(%ebp),%eax
    47f3:	c7 44 24 04 00 00 00 	movl   $0x0,0x4(%esp)
    47fa:	00 
    47fb:	89 04 24             	mov    %eax,(%esp)
    47fe:	e8 cd 6c 01 00       	call   1b4d0 <async_answer_1>
    4803:	81 c4 20 01 00 00    	add    $0x120,%esp
    4809:	5b                   	pop    %ebx
    480a:	5e                   	pop    %esi
    480b:	5d                   	pop    %ebp
    480c:	c3                   	ret    
    480d:	8d 76 00             	lea    0x0(%esi),%esi
    4810:	8b 45 10             	mov    0x10(%ebp),%eax
    4813:	c7 44 24 04 f2 ff ff 	movl   $0xfffffff2,0x4(%esp)
    481a:	ff 
    481b:	89 04 24             	mov    %eax,(%esp)
    481e:	e8 6d 6c 01 00       	call   1b490 <async_answer_0>
    4823:	81 c4 20 01 00 00    	add    $0x120,%esp
    4829:	5b                   	pop    %ebx
    482a:	5e                   	pop    %esi
    482b:	5d                   	pop    %ebp
    482c:	c3                   	ret    
    482d:	8d 76 00             	lea    0x0(%esi),%esi
    4830:	89 44 24 04          	mov    %eax,0x4(%esp)
    4834:	8b 45 10             	mov    0x10(%ebp),%eax
    4837:	89 04 24             	mov    %eax,(%esp)
    483a:	e8 51 6c 01 00       	call   1b490 <async_answer_0>
    483f:	81 c4 20 01 00 00    	add    $0x120,%esp
    4845:	5b                   	pop    %ebx
    4846:	5e                   	pop    %esi
    4847:	5d                   	pop    %ebp
    4848:	c3                   	ret    
    4849:	8d b4 26 00 00 00 00 	lea    0x0(%esi,%eiz,1),%esi
    4850:	8b 85 f0 fe ff ff    	mov    -0x110(%ebp),%eax
    4856:	c7 44 24 08 00 00 00 	movl   $0x0,0x8(%esp)
    485d:	00 
    485e:	c7 44 24 04 00 00 00 	movl   $0x0,0x4(%esp)
    4865:	00 
    4866:	89 04 24             	mov    %eax,(%esp)
    4869:	e8 02 87 01 00       	call   1cf70 <async_data_write_finalize>
    486e:	8b 45 10             	mov    0x10(%ebp),%eax
    4871:	c7 44 24 04 f5 ff ff 	movl   $0xfffffff5,0x4(%esp)
    4878:	ff 
    4879:	89 04 24             	mov    %eax,(%esp)
    487c:	e8 0f 6c 01 00       	call   1b490 <async_answer_0>
    4881:	e9 7d ff ff ff       	jmp    4803 <remote_char_write+0xa3>
    4886:	8d 76 00             	lea    0x0(%esi),%esi
    4889:	8d bc 27 00 00 00 00 	lea    0x0(%edi,%eiz,1),%edi

00004890 <remote_char_read>:
    4890:	55                   	push   %ebp
    4891:	89 e5                	mov    %esp,%ebp
    4893:	56                   	push   %esi
    4894:	53                   	push   %ebx
    4895:	81 ec 20 01 00 00    	sub    $0x120,%esp
    489b:	8d 85 f4 fe ff ff    	lea    -0x10c(%ebp),%eax
    48a1:	89 44 24 04          	mov    %eax,0x4(%esp)
    48a5:	8d 85 f0 fe ff ff    	lea    -0x110(%ebp),%eax
    48ab:	89 04 24             	mov    %eax,(%esp)
    48ae:	e8 4d 81 01 00       	call   1ca00 <async_data_read_receive>
    48b3:	84 c0                	test   %al,%al
    48b5:	0f 84 b5 00 00 00    	je     4970 <remote_char_read+0xe0>
    48bb:	8b 45 0c             	mov    0xc(%ebp),%eax
    48be:	8b 10                	mov    (%eax),%edx
    48c0:	85 d2                	test   %edx,%edx
    48c2:	0f 84 c8 00 00 00    	je     4990 <remote_char_read+0x100>
    48c8:	8b 85 f4 fe ff ff    	mov    -0x10c(%ebp),%eax
    48ce:	3d 00 01 00 00       	cmp    $0x100,%eax
    48d3:	76 0f                	jbe    48e4 <remote_char_read+0x54>
    48d5:	c7 85 f4 fe ff ff 00 	movl   $0x100,-0x10c(%ebp)
    48dc:	01 00 00 
    48df:	b8 00 01 00 00       	mov    $0x100,%eax
    48e4:	89 44 24 08          	mov    %eax,0x8(%esp)
    48e8:	8d b5 f8 fe ff ff    	lea    -0x108(%ebp),%esi
    48ee:	8b 45 08             	mov    0x8(%ebp),%eax
    48f1:	89 74 24 04          	mov    %esi,0x4(%esp)
    48f5:	89 04 24             	mov    %eax,(%esp)
    48f8:	ff d2                	call   *%edx
    48fa:	89 c3                	mov    %eax,%ebx
    48fc:	85 c0                	test   %eax,%eax
    48fe:	78 38                	js     4938 <remote_char_read+0xa8>
    4900:	89 44 24 08          	mov    %eax,0x8(%esp)
    4904:	8b 85 f0 fe ff ff    	mov    -0x110(%ebp),%eax
    490a:	89 74 24 04          	mov    %esi,0x4(%esp)
    490e:	89 04 24             	mov    %eax,(%esp)
    4911:	e8 4a 81 01 00       	call   1ca60 <async_data_read_finalize>
    4916:	8b 45 10             	mov    0x10(%ebp),%eax
    4919:	89 5c 24 08          	mov    %ebx,0x8(%esp)
    491d:	c7 44 24 04 00 00 00 	movl   $0x0,0x4(%esp)
    4924:	00 
    4925:	89 04 24             	mov    %eax,(%esp)
    4928:	e8 a3 6b 01 00       	call   1b4d0 <async_answer_1>
    492d:	81 c4 20 01 00 00    	add    $0x120,%esp
    4933:	5b                   	pop    %ebx
    4934:	5e                   	pop    %esi
    4935:	5d                   	pop    %ebp
    4936:	c3                   	ret    
    4937:	90                   	nop
    4938:	8b 85 f0 fe ff ff    	mov    -0x110(%ebp),%eax
    493e:	89 74 24 04          	mov    %esi,0x4(%esp)
    4942:	c7 44 24 08 00 00 00 	movl   $0x0,0x8(%esp)
    4949:	00 
    494a:	89 04 24             	mov    %eax,(%esp)
    494d:	e8 0e 81 01 00       	call   1ca60 <async_data_read_finalize>
    4952:	8b 45 10             	mov    0x10(%ebp),%eax
    4955:	89 5c 24 04          	mov    %ebx,0x4(%esp)
    4959:	89 04 24             	mov    %eax,(%esp)
    495c:	e8 2f 6b 01 00       	call   1b490 <async_answer_0>
    4961:	81 c4 20 01 00 00    	add    $0x120,%esp
    4967:	5b                   	pop    %ebx
    4968:	5e                   	pop    %esi
    4969:	5d                   	pop    %ebp
    496a:	c3                   	ret    
    496b:	90                   	nop
    496c:	8d 74 26 00          	lea    0x0(%esi,%eiz,1),%esi
    4970:	8b 45 10             	mov    0x10(%ebp),%eax
    4973:	c7 44 24 04 f2 ff ff 	movl   $0xfffffff2,0x4(%esp)
    497a:	ff 
    497b:	89 04 24             	mov    %eax,(%esp)
    497e:	e8 0d 6b 01 00       	call   1b490 <async_answer_0>
    4983:	81 c4 20 01 00 00    	add    $0x120,%esp
    4989:	5b                   	pop    %ebx
    498a:	5e                   	pop    %esi
    498b:	5d                   	pop    %ebp
    498c:	c3                   	ret    
    498d:	8d 76 00             	lea    0x0(%esi),%esi
    4990:	8b 85 f0 fe ff ff    	mov    -0x110(%ebp),%eax
    4996:	c7 44 24 08 00 00 00 	movl   $0x0,0x8(%esp)
    499d:	00 
    499e:	c7 44 24 04 00 00 00 	movl   $0x0,0x4(%esp)
    49a5:	00 
    49a6:	89 04 24             	mov    %eax,(%esp)
    49a9:	e8 b2 80 01 00       	call   1ca60 <async_data_read_finalize>
    49ae:	8b 45 10             	mov    0x10(%ebp),%eax
    49b1:	c7 44 24 04 f5 ff ff 	movl   $0xfffffff5,0x4(%esp)
    49b8:	ff 
    49b9:	89 04 24             	mov    %eax,(%esp)
    49bc:	e8 cf 6a 01 00       	call   1b490 <async_answer_0>
    49c1:	e9 67 ff ff ff       	jmp    492d <remote_char_read+0x9d>
    49c6:	66 90                	xchg   %ax,%ax
    49c8:	66 90                	xchg   %ax,%ax
    49ca:	66 90                	xchg   %ax,%ax
    49cc:	66 90                	xchg   %ax,%ax
    49ce:	66 90                	xchg   %ax,%ax

000049d0 <remote_graph_connect>:
    49d0:	55                   	push   %ebp
    49d1:	89 e5                	mov    %esp,%ebp
    49d3:	57                   	push   %edi
    49d4:	56                   	push   %esi
    49d5:	53                   	push   %ebx
    49d6:	83 ec 2c             	sub    $0x2c,%esp
    49d9:	8b 5d 0c             	mov    0xc(%ebp),%ebx
    49dc:	8b 55 14             	mov    0x14(%ebp),%edx
    49df:	8b 7d 08             	mov    0x8(%ebp),%edi
    49e2:	8b 75 10             	mov    0x10(%ebp),%esi
    49e5:	8b 03                	mov    (%ebx),%eax
    49e7:	89 55 e4             	mov    %edx,-0x1c(%ebp)
    49ea:	85 c0                	test   %eax,%eax
    49ec:	74 3a                	je     4a28 <remote_graph_connect+0x58>
    49ee:	89 3c 24             	mov    %edi,(%esp)
    49f1:	e8 0a f3 ff ff       	call   3d00 <ddf_fun_data_get>
    49f6:	85 c0                	test   %eax,%eax
    49f8:	74 2e                	je     4a28 <remote_graph_connect+0x58>
    49fa:	8b 1b                	mov    (%ebx),%ebx
    49fc:	89 3c 24             	mov    %edi,(%esp)
    49ff:	e8 fc f2 ff ff       	call   3d00 <ddf_fun_data_get>
    4a04:	8b 55 e4             	mov    -0x1c(%ebp),%edx
    4a07:	89 75 0c             	mov    %esi,0xc(%ebp)
    4a0a:	89 45 08             	mov    %eax,0x8(%ebp)
    4a0d:	c7 45 14 00 00 00 00 	movl   $0x0,0x14(%ebp)
    4a14:	89 55 10             	mov    %edx,0x10(%ebp)
    4a17:	83 c4 2c             	add    $0x2c,%esp
    4a1a:	89 d8                	mov    %ebx,%eax
    4a1c:	5b                   	pop    %ebx
    4a1d:	5e                   	pop    %esi
    4a1e:	5f                   	pop    %edi
    4a1f:	5d                   	pop    %ebp
    4a20:	ff e0                	jmp    *%eax
    4a22:	8d b6 00 00 00 00    	lea    0x0(%esi),%esi
    4a28:	89 75 08             	mov    %esi,0x8(%ebp)
    4a2b:	c7 45 0c f5 ff ff ff 	movl   $0xfffffff5,0xc(%ebp)
    4a32:	83 c4 2c             	add    $0x2c,%esp
    4a35:	5b                   	pop    %ebx
    4a36:	5e                   	pop    %esi
    4a37:	5f                   	pop    %edi
    4a38:	5d                   	pop    %ebp
    4a39:	e9 52 6a 01 00       	jmp    1b490 <async_answer_0>
    4a3e:	66 90                	xchg   %ax,%ax

00004a40 <remote_nic_poll_now>:
    4a40:	55                   	push   %ebp
    4a41:	89 e5                	mov    %esp,%ebp
    4a43:	53                   	push   %ebx
    4a44:	83 ec 14             	sub    $0x14,%esp
    4a47:	8b 45 0c             	mov    0xc(%ebp),%eax
    4a4a:	8b 55 08             	mov    0x8(%ebp),%edx
    4a4d:	8b 5d 10             	mov    0x10(%ebp),%ebx
    4a50:	8b 80 a0 00 00 00    	mov    0xa0(%eax),%eax
    4a56:	85 c0                	test   %eax,%eax
    4a58:	74 16                	je     4a70 <remote_nic_poll_now+0x30>
    4a5a:	89 14 24             	mov    %edx,(%esp)
    4a5d:	ff d0                	call   *%eax
    4a5f:	89 5d 08             	mov    %ebx,0x8(%ebp)
    4a62:	89 45 0c             	mov    %eax,0xc(%ebp)
    4a65:	83 c4 14             	add    $0x14,%esp
    4a68:	5b                   	pop    %ebx
    4a69:	5d                   	pop    %ebp
    4a6a:	e9 21 6a 01 00       	jmp    1b490 <async_answer_0>
    4a6f:	90                   	nop
    4a70:	89 5d 08             	mov    %ebx,0x8(%ebp)
    4a73:	c7 45 0c f5 ff ff ff 	movl   $0xfffffff5,0xc(%ebp)
    4a7a:	83 c4 14             	add    $0x14,%esp
    4a7d:	5b                   	pop    %ebx
    4a7e:	5d                   	pop    %ebp
    4a7f:	e9 0c 6a 01 00       	jmp    1b490 <async_answer_0>
    4a84:	8d b6 00 00 00 00    	lea    0x0(%esi),%esi
    4a8a:	8d bf 00 00 00 00    	lea    0x0(%edi),%edi

00004a90 <remote_nic_offload_set>:
    4a90:	55                   	push   %ebp
    4a91:	89 e5                	mov    %esp,%ebp
    4a93:	56                   	push   %esi
    4a94:	53                   	push   %ebx
    4a95:	83 ec 10             	sub    $0x10,%esp
    4a98:	8b 45 0c             	mov    0xc(%ebp),%eax
    4a9b:	8b 4d 08             	mov    0x8(%ebp),%ecx
    4a9e:	8b 5d 10             	mov    0x10(%ebp),%ebx
    4aa1:	8b 55 14             	mov    0x14(%ebp),%edx
    4aa4:	8b 80 94 00 00 00    	mov    0x94(%eax),%eax
    4aaa:	85 c0                	test   %eax,%eax
    4aac:	74 2a                	je     4ad8 <remote_nic_offload_set+0x48>
    4aae:	8b 72 0c             	mov    0xc(%edx),%esi
    4ab1:	89 74 24 08          	mov    %esi,0x8(%esp)
    4ab5:	8b 52 08             	mov    0x8(%edx),%edx
    4ab8:	89 0c 24             	mov    %ecx,(%esp)
    4abb:	89 54 24 04          	mov    %edx,0x4(%esp)
    4abf:	ff d0                	call   *%eax
    4ac1:	89 5d 08             	mov    %ebx,0x8(%ebp)
    4ac4:	89 45 0c             	mov    %eax,0xc(%ebp)
    4ac7:	83 c4 10             	add    $0x10,%esp
    4aca:	5b                   	pop    %ebx
    4acb:	5e                   	pop    %esi
    4acc:	5d                   	pop    %ebp
    4acd:	e9 be 69 01 00       	jmp    1b490 <async_answer_0>
    4ad2:	8d b6 00 00 00 00    	lea    0x0(%esi),%esi
    4ad8:	89 5d 08             	mov    %ebx,0x8(%ebp)
    4adb:	c7 45 0c f5 ff ff ff 	movl   $0xfffffff5,0xc(%ebp)
    4ae2:	83 c4 10             	add    $0x10,%esp
    4ae5:	5b                   	pop    %ebx
    4ae6:	5e                   	pop    %esi
    4ae7:	5d                   	pop    %ebp
    4ae8:	e9 a3 69 01 00       	jmp    1b490 <async_answer_0>
    4aed:	8d 76 00             	lea    0x0(%esi),%esi

00004af0 <remote_nic_wol_virtue_remove>:
    4af0:	55                   	push   %ebp
    4af1:	89 e5                	mov    %esp,%ebp
    4af3:	53                   	push   %ebx
    4af4:	83 ec 14             	sub    $0x14,%esp
    4af7:	8b 45 0c             	mov    0xc(%ebp),%eax
    4afa:	8b 55 08             	mov    0x8(%ebp),%edx
    4afd:	8b 5d 10             	mov    0x10(%ebp),%ebx
    4b00:	8b 4d 14             	mov    0x14(%ebp),%ecx
    4b03:	8b 40 7c             	mov    0x7c(%eax),%eax
    4b06:	85 c0                	test   %eax,%eax
    4b08:	74 1e                	je     4b28 <remote_nic_wol_virtue_remove+0x38>
    4b0a:	8b 49 08             	mov    0x8(%ecx),%ecx
    4b0d:	89 14 24             	mov    %edx,(%esp)
    4b10:	89 4c 24 04          	mov    %ecx,0x4(%esp)
    4b14:	ff d0                	call   *%eax
    4b16:	89 5d 08             	mov    %ebx,0x8(%ebp)
    4b19:	89 45 0c             	mov    %eax,0xc(%ebp)
    4b1c:	83 c4 14             	add    $0x14,%esp
    4b1f:	5b                   	pop    %ebx
    4b20:	5d                   	pop    %ebp
    4b21:	e9 6a 69 01 00       	jmp    1b490 <async_answer_0>
    4b26:	66 90                	xchg   %ax,%ax
    4b28:	89 5d 08             	mov    %ebx,0x8(%ebp)
    4b2b:	c7 45 0c f5 ff ff ff 	movl   $0xfffffff5,0xc(%ebp)
    4b32:	83 c4 14             	add    $0x14,%esp
    4b35:	5b                   	pop    %ebx
    4b36:	5d                   	pop    %ebp
    4b37:	e9 54 69 01 00       	jmp    1b490 <async_answer_0>
    4b3c:	8d 74 26 00          	lea    0x0(%esi,%eiz,1),%esi

00004b40 <remote_nic_vlan_set_tag>:
    4b40:	55                   	push   %ebp
    4b41:	89 e5                	mov    %esp,%ebp
    4b43:	57                   	push   %edi
    4b44:	56                   	push   %esi
    4b45:	53                   	push   %ebx
    4b46:	83 ec 1c             	sub    $0x1c,%esp
    4b49:	8b 55 0c             	mov    0xc(%ebp),%edx
    4b4c:	8b 7d 08             	mov    0x8(%ebp),%edi
    4b4f:	8b 5d 10             	mov    0x10(%ebp),%ebx
    4b52:	8b 45 14             	mov    0x14(%ebp),%eax
    4b55:	8b 52 74             	mov    0x74(%edx),%edx
    4b58:	85 d2                	test   %edx,%edx
    4b5a:	74 4c                	je     4ba8 <remote_nic_vlan_set_tag+0x68>
    4b5c:	8b 48 10             	mov    0x10(%eax),%ecx
    4b5f:	85 c9                	test   %ecx,%ecx
    4b61:	0f 95 c1             	setne  %cl
    4b64:	81 e1 ff 00 00 00    	and    $0xff,%ecx
    4b6a:	89 4c 24 0c          	mov    %ecx,0xc(%esp)
    4b6e:	8b 70 0c             	mov    0xc(%eax),%esi
    4b71:	85 f6                	test   %esi,%esi
    4b73:	0f 95 c1             	setne  %cl
    4b76:	81 e1 ff 00 00 00    	and    $0xff,%ecx
    4b7c:	89 4c 24 08          	mov    %ecx,0x8(%esp)
    4b80:	8b 40 08             	mov    0x8(%eax),%eax
    4b83:	89 3c 24             	mov    %edi,(%esp)
    4b86:	25 ff ff 00 00       	and    $0xffff,%eax
    4b8b:	89 44 24 04          	mov    %eax,0x4(%esp)
    4b8f:	ff d2                	call   *%edx
    4b91:	89 5d 08             	mov    %ebx,0x8(%ebp)
    4b94:	89 45 0c             	mov    %eax,0xc(%ebp)
    4b97:	83 c4 1c             	add    $0x1c,%esp
    4b9a:	5b                   	pop    %ebx
    4b9b:	5e                   	pop    %esi
    4b9c:	5f                   	pop    %edi
    4b9d:	5d                   	pop    %ebp
    4b9e:	e9 ed 68 01 00       	jmp    1b490 <async_answer_0>
    4ba3:	90                   	nop
    4ba4:	8d 74 26 00          	lea    0x0(%esi,%eiz,1),%esi
    4ba8:	89 5d 08             	mov    %ebx,0x8(%ebp)
    4bab:	c7 45 0c f5 ff ff ff 	movl   $0xfffffff5,0xc(%ebp)
    4bb2:	83 c4 1c             	add    $0x1c,%esp
    4bb5:	5b                   	pop    %ebx
    4bb6:	5e                   	pop    %esi
    4bb7:	5f                   	pop    %edi
    4bb8:	5d                   	pop    %ebp
    4bb9:	e9 d2 68 01 00       	jmp    1b490 <async_answer_0>
    4bbe:	66 90                	xchg   %ax,%ax

00004bc0 <remote_nic_defective_set_mode>:
    4bc0:	55                   	push   %ebp
    4bc1:	89 e5                	mov    %esp,%ebp
    4bc3:	53                   	push   %ebx
    4bc4:	83 ec 14             	sub    $0x14,%esp
    4bc7:	8b 45 0c             	mov    0xc(%ebp),%eax
    4bca:	8b 55 08             	mov    0x8(%ebp),%edx
    4bcd:	8b 5d 10             	mov    0x10(%ebp),%ebx
    4bd0:	8b 4d 14             	mov    0x14(%ebp),%ecx
    4bd3:	8b 40 60             	mov    0x60(%eax),%eax
    4bd6:	85 c0                	test   %eax,%eax
    4bd8:	74 1e                	je     4bf8 <remote_nic_defective_set_mode+0x38>
    4bda:	8b 49 08             	mov    0x8(%ecx),%ecx
    4bdd:	89 14 24             	mov    %edx,(%esp)
    4be0:	89 4c 24 04          	mov    %ecx,0x4(%esp)
    4be4:	ff d0                	call   *%eax
    4be6:	89 5d 08             	mov    %ebx,0x8(%ebp)
    4be9:	89 45 0c             	mov    %eax,0xc(%ebp)
    4bec:	83 c4 14             	add    $0x14,%esp
    4bef:	5b                   	pop    %ebx
    4bf0:	5d                   	pop    %ebp
    4bf1:	e9 9a 68 01 00       	jmp    1b490 <async_answer_0>
    4bf6:	66 90                	xchg   %ax,%ax
    4bf8:	89 5d 08             	mov    %ebx,0x8(%ebp)
    4bfb:	c7 45 0c f5 ff ff ff 	movl   $0xfffffff5,0xc(%ebp)
    4c02:	83 c4 14             	add    $0x14,%esp
    4c05:	5b                   	pop    %ebx
    4c06:	5d                   	pop    %ebp
    4c07:	e9 84 68 01 00       	jmp    1b490 <async_answer_0>
    4c0c:	8d 74 26 00          	lea    0x0(%esi,%eiz,1),%esi

00004c10 <remote_nic_broadcast_set_mode>:
    4c10:	55                   	push   %ebp
    4c11:	89 e5                	mov    %esp,%ebp
    4c13:	53                   	push   %ebx
    4c14:	83 ec 14             	sub    $0x14,%esp
    4c17:	8b 45 0c             	mov    0xc(%ebp),%eax
    4c1a:	8b 55 08             	mov    0x8(%ebp),%edx
    4c1d:	8b 5d 10             	mov    0x10(%ebp),%ebx
    4c20:	8b 4d 14             	mov    0x14(%ebp),%ecx
    4c23:	8b 40 58             	mov    0x58(%eax),%eax
    4c26:	85 c0                	test   %eax,%eax
    4c28:	74 1e                	je     4c48 <remote_nic_broadcast_set_mode+0x38>
    4c2a:	8b 49 08             	mov    0x8(%ecx),%ecx
    4c2d:	89 14 24             	mov    %edx,(%esp)
    4c30:	89 4c 24 04          	mov    %ecx,0x4(%esp)
    4c34:	ff d0                	call   *%eax
    4c36:	89 5d 08             	mov    %ebx,0x8(%ebp)
    4c39:	89 45 0c             	mov    %eax,0xc(%ebp)
    4c3c:	83 c4 14             	add    $0x14,%esp
    4c3f:	5b                   	pop    %ebx
    4c40:	5d                   	pop    %ebp
    4c41:	e9 4a 68 01 00       	jmp    1b490 <async_answer_0>
    4c46:	66 90                	xchg   %ax,%ax
    4c48:	89 5d 08             	mov    %ebx,0x8(%ebp)
    4c4b:	c7 45 0c f5 ff ff ff 	movl   $0xfffffff5,0xc(%ebp)
    4c52:	83 c4 14             	add    $0x14,%esp
    4c55:	5b                   	pop    %ebx
    4c56:	5d                   	pop    %ebp
    4c57:	e9 34 68 01 00       	jmp    1b490 <async_answer_0>
    4c5c:	8d 74 26 00          	lea    0x0(%esi,%eiz,1),%esi

00004c60 <remote_nic_set_pause>:
    4c60:	55                   	push   %ebp
    4c61:	89 e5                	mov    %esp,%ebp
    4c63:	56                   	push   %esi
    4c64:	53                   	push   %ebx
    4c65:	83 ec 10             	sub    $0x10,%esp
    4c68:	8b 55 0c             	mov    0xc(%ebp),%edx
    4c6b:	8b 4d 08             	mov    0x8(%ebp),%ecx
    4c6e:	8b 5d 10             	mov    0x10(%ebp),%ebx
    4c71:	8b 45 14             	mov    0x14(%ebp),%eax
    4c74:	8b 52 40             	mov    0x40(%edx),%edx
    4c77:	85 d2                	test   %edx,%edx
    4c79:	74 2d                	je     4ca8 <remote_nic_set_pause+0x48>
    4c7b:	0f b7 70 10          	movzwl 0x10(%eax),%esi
    4c7f:	89 74 24 0c          	mov    %esi,0xc(%esp)
    4c83:	8b 70 0c             	mov    0xc(%eax),%esi
    4c86:	89 74 24 08          	mov    %esi,0x8(%esp)
    4c8a:	8b 40 08             	mov    0x8(%eax),%eax
    4c8d:	89 0c 24             	mov    %ecx,(%esp)
    4c90:	89 44 24 04          	mov    %eax,0x4(%esp)
    4c94:	ff d2                	call   *%edx
    4c96:	89 5d 08             	mov    %ebx,0x8(%ebp)
    4c99:	89 45 0c             	mov    %eax,0xc(%ebp)
    4c9c:	83 c4 10             	add    $0x10,%esp
    4c9f:	5b                   	pop    %ebx
    4ca0:	5e                   	pop    %esi
    4ca1:	5d                   	pop    %ebp
    4ca2:	e9 e9 67 01 00       	jmp    1b490 <async_answer_0>
    4ca7:	90                   	nop
    4ca8:	89 5d 08             	mov    %ebx,0x8(%ebp)
    4cab:	c7 45 0c f5 ff ff ff 	movl   $0xfffffff5,0xc(%ebp)
    4cb2:	83 c4 10             	add    $0x10,%esp
    4cb5:	5b                   	pop    %ebx
    4cb6:	5e                   	pop    %esi
    4cb7:	5d                   	pop    %ebp
    4cb8:	e9 d3 67 01 00       	jmp    1b490 <async_answer_0>
    4cbd:	8d 76 00             	lea    0x0(%esi),%esi

00004cc0 <remote_nic_autoneg_restart>:
    4cc0:	55                   	push   %ebp
    4cc1:	89 e5                	mov    %esp,%ebp
    4cc3:	53                   	push   %ebx
    4cc4:	83 ec 14             	sub    $0x14,%esp
    4cc7:	8b 45 0c             	mov    0xc(%ebp),%eax
    4cca:	8b 55 08             	mov    0x8(%ebp),%edx
    4ccd:	8b 5d 10             	mov    0x10(%ebp),%ebx
    4cd0:	8b 40 38             	mov    0x38(%eax),%eax
    4cd3:	85 c0                	test   %eax,%eax
    4cd5:	74 19                	je     4cf0 <remote_nic_autoneg_restart+0x30>
    4cd7:	89 14 24             	mov    %edx,(%esp)
    4cda:	ff d0                	call   *%eax
    4cdc:	89 5d 08             	mov    %ebx,0x8(%ebp)
    4cdf:	89 45 0c             	mov    %eax,0xc(%ebp)
    4ce2:	83 c4 14             	add    $0x14,%esp
    4ce5:	5b                   	pop    %ebx
    4ce6:	5d                   	pop    %ebp
    4ce7:	e9 a4 67 01 00       	jmp    1b490 <async_answer_0>
    4cec:	8d 74 26 00          	lea    0x0(%esi,%eiz,1),%esi
    4cf0:	89 5d 08             	mov    %ebx,0x8(%ebp)
    4cf3:	c7 45 0c f5 ff ff ff 	movl   $0xfffffff5,0xc(%ebp)
    4cfa:	83 c4 14             	add    $0x14,%esp
    4cfd:	5b                   	pop    %ebx
    4cfe:	5d                   	pop    %ebp
    4cff:	e9 8c 67 01 00       	jmp    1b490 <async_answer_0>
    4d04:	8d b6 00 00 00 00    	lea    0x0(%esi),%esi
    4d0a:	8d bf 00 00 00 00    	lea    0x0(%edi),%edi

00004d10 <remote_nic_autoneg_disable>:
    4d10:	55                   	push   %ebp
    4d11:	89 e5                	mov    %esp,%ebp
    4d13:	53                   	push   %ebx
    4d14:	83 ec 14             	sub    $0x14,%esp
    4d17:	8b 45 0c             	mov    0xc(%ebp),%eax
