
logger:     file format elf32-i386


Disassembly of section .init:

00001094 <__entry>:
    1094:	66 8c d0             	mov    %ss,%ax
    1097:	8e d8                	mov    %eax,%ds
    1099:	8e c0                	mov    %eax,%es
    109b:	8e e0                	mov    %eax,%fs
    109d:	b8 01 00 00 00       	mov    $0x1,%eax
    10a2:	0f a2                	cpuid  
    10a4:	0f ba e2 0b          	bt     $0xb,%edx
    10a8:	73 0c                	jae    10b6 <__entry+0x22>
    10aa:	8d 05 d4 18 02 00    	lea    0x218d4,%eax
    10b0:	c7 00 67 9a 01 00    	movl   $0x19a67,(%eax)
    10b6:	6a 00                	push   $0x0
    10b8:	89 e5                	mov    %esp,%ebp
    10ba:	57                   	push   %edi
    10bb:	e8 10 0e 00 00       	call   1ed0 <__main>

Disassembly of section .text:

000010c0 <logger_connection_handler_control>:
    10c0:	55                   	push   %ebp
    10c1:	89 e5                	mov    %esp,%ebp
    10c3:	57                   	push   %edi
    10c4:	56                   	push   %esi
    10c5:	53                   	push   %ebx
    10c6:	83 ec 6c             	sub    $0x6c,%esp
    10c9:	8d 5d c4             	lea    -0x3c(%ebp),%ebx
    10cc:	8b 45 08             	mov    0x8(%ebp),%eax
    10cf:	c7 44 24 04 00 00 00 	movl   $0x0,0x4(%esp)
    10d6:	00 
    10d7:	89 04 24             	mov    %eax,(%esp)
    10da:	e8 61 0c 01 00       	call   11d40 <async_answer_0>
    10df:	90                   	nop
    10e0:	c7 44 24 04 00 00 00 	movl   $0x0,0x4(%esp)
    10e7:	00 
    10e8:	89 1c 24             	mov    %ebx,(%esp)
    10eb:	e8 20 f6 00 00       	call   10710 <async_get_call_timeout>
    10f0:	8b 55 c4             	mov    -0x3c(%ebp),%edx
    10f3:	89 c6                	mov    %eax,%esi
    10f5:	85 d2                	test   %edx,%edx
    10f7:	0f 84 c3 00 00 00    	je     11c0 <logger_connection_handler_control+0x100>
    10fd:	81 fa 00 04 00 00    	cmp    $0x400,%edx
    1103:	74 1b                	je     1120 <logger_connection_handler_control+0x60>
    1105:	81 fa 01 04 00 00    	cmp    $0x401,%edx
    110b:	74 33                	je     1140 <logger_connection_handler_control+0x80>
    110d:	c7 44 24 04 f2 ff ff 	movl   $0xfffffff2,0x4(%esp)
    1114:	ff 
    1115:	89 04 24             	mov    %eax,(%esp)
    1118:	e8 23 0c 01 00       	call   11d40 <async_answer_0>
    111d:	eb c1                	jmp    10e0 <logger_connection_handler_control+0x20>
    111f:	90                   	nop
    1120:	8b 45 c8             	mov    -0x38(%ebp),%eax
    1123:	89 04 24             	mov    %eax,(%esp)
    1126:	e8 45 02 00 00       	call   1370 <set_default_logging_level>
    112b:	89 34 24             	mov    %esi,(%esp)
    112e:	89 44 24 04          	mov    %eax,0x4(%esp)
    1132:	e8 09 0c 01 00       	call   11d40 <async_answer_0>
    1137:	eb a7                	jmp    10e0 <logger_connection_handler_control+0x20>
    1139:	8d b4 26 00 00 00 00 	lea    0x0(%esi,%eiz,1),%esi
    1140:	8d 45 c0             	lea    -0x40(%ebp),%eax
    1143:	c7 44 24 14 00 00 00 	movl   $0x0,0x14(%esp)
    114a:	00 
    114b:	c7 44 24 10 00 00 00 	movl   $0x0,0x10(%esp)
    1152:	00 
    1153:	c7 44 24 0c 00 00 00 	movl   $0x0,0xc(%esp)
    115a:	00 
    115b:	c7 44 24 08 00 00 00 	movl   $0x0,0x8(%esp)
    1162:	00 
    1163:	c7 44 24 04 01 00 00 	movl   $0x1,0x4(%esp)
    116a:	00 
    116b:	89 04 24             	mov    %eax,(%esp)
    116e:	8b 7d c8             	mov    -0x38(%ebp),%edi
    1171:	e8 ea 26 01 00       	call   13860 <async_data_write_accept>
    1176:	85 c0                	test   %eax,%eax
    1178:	74 16                	je     1190 <logger_connection_handler_control+0xd0>
    117a:	89 44 24 04          	mov    %eax,0x4(%esp)
    117e:	89 34 24             	mov    %esi,(%esp)
    1181:	e8 ba 0b 01 00       	call   11d40 <async_answer_0>
    1186:	e9 55 ff ff ff       	jmp    10e0 <logger_connection_handler_control+0x20>
    118b:	90                   	nop
    118c:	8d 74 26 00          	lea    0x0(%esi,%eiz,1),%esi
    1190:	8b 45 c0             	mov    -0x40(%ebp),%eax
    1193:	89 04 24             	mov    %eax,(%esp)
    1196:	e8 05 04 00 00       	call   15a0 <find_log_by_name_and_lock>
    119b:	8b 55 c0             	mov    -0x40(%ebp),%edx
    119e:	89 14 24             	mov    %edx,(%esp)
    11a1:	89 45 b4             	mov    %eax,-0x4c(%ebp)
    11a4:	e8 f7 dd 00 00       	call   efa0 <free>
    11a9:	8b 45 b4             	mov    -0x4c(%ebp),%eax
    11ac:	85 c0                	test   %eax,%eax
    11ae:	74 18                	je     11c8 <logger_connection_handler_control+0x108>
    11b0:	89 78 28             	mov    %edi,0x28(%eax)
    11b3:	89 04 24             	mov    %eax,(%esp)
    11b6:	e8 15 05 00 00       	call   16d0 <log_unlock>
    11bb:	31 c0                	xor    %eax,%eax
    11bd:	eb bb                	jmp    117a <logger_connection_handler_control+0xba>
    11bf:	90                   	nop
    11c0:	83 c4 6c             	add    $0x6c,%esp
    11c3:	5b                   	pop    %ebx
    11c4:	5e                   	pop    %esi
    11c5:	5f                   	pop    %edi
    11c6:	5d                   	pop    %ebp
    11c7:	c3                   	ret    
    11c8:	83 c8 ff             	or     $0xffffffff,%eax
    11cb:	eb ad                	jmp    117a <logger_connection_handler_control+0xba>
    11cd:	66 90                	xchg   %ax,%ax
    11cf:	90                   	nop

000011d0 <parse_level_settings>:
    11d0:	55                   	push   %ebp
    11d1:	89 e5                	mov    %esp,%ebp
    11d3:	57                   	push   %edi
    11d4:	56                   	push   %esi
    11d5:	53                   	push   %ebx
    11d6:	83 ec 2c             	sub    $0x2c,%esp
    11d9:	8d 7d dc             	lea    -0x24(%ebp),%edi
    11dc:	8b 45 08             	mov    0x8(%ebp),%eax
    11df:	8d 75 e0             	lea    -0x20(%ebp),%esi
    11e2:	89 7c 24 08          	mov    %edi,0x8(%esp)
    11e6:	c7 44 24 04 ea eb 01 	movl   $0x1ebea,0x4(%esp)
    11ed:	00 
    11ee:	89 04 24             	mov    %eax,(%esp)
    11f1:	e8 ea 36 00 00       	call   48e0 <strtok_r>
    11f6:	85 c0                	test   %eax,%eax
    11f8:	75 26                	jne    1220 <parse_level_settings+0x50>
    11fa:	e9 c1 00 00 00       	jmp    12c0 <parse_level_settings+0xf0>
    11ff:	90                   	nop
    1200:	89 7c 24 08          	mov    %edi,0x8(%esp)
    1204:	c7 44 24 04 ea eb 01 	movl   $0x1ebea,0x4(%esp)
    120b:	00 
    120c:	c7 04 24 00 00 00 00 	movl   $0x0,(%esp)
    1213:	e8 c8 36 00 00       	call   48e0 <strtok_r>
    1218:	85 c0                	test   %eax,%eax
    121a:	0f 84 a0 00 00 00    	je     12c0 <parse_level_settings+0xf0>
    1220:	89 74 24 08          	mov    %esi,0x8(%esp)
    1224:	c7 44 24 04 82 ea 01 	movl   $0x1ea82,0x4(%esp)
    122b:	00 
    122c:	89 04 24             	mov    %eax,(%esp)
    122f:	e8 ac 36 00 00       	call   48e0 <strtok_r>
    1234:	89 74 24 08          	mov    %esi,0x8(%esp)
    1238:	89 c3                	mov    %eax,%ebx
    123a:	c7 44 24 04 82 ea 01 	movl   $0x1ea82,0x4(%esp)
    1241:	00 
    1242:	c7 04 24 00 00 00 00 	movl   $0x0,(%esp)
    1249:	e8 92 36 00 00       	call   48e0 <strtok_r>
    124e:	85 db                	test   %ebx,%ebx
    1250:	74 ae                	je     1200 <parse_level_settings+0x30>
    1252:	85 c0                	test   %eax,%eax
    1254:	74 42                	je     1298 <parse_level_settings+0xc8>
    1256:	8d 55 e4             	lea    -0x1c(%ebp),%edx
    1259:	89 04 24             	mov    %eax,(%esp)
    125c:	89 54 24 04          	mov    %edx,0x4(%esp)
    1260:	e8 1b 89 00 00       	call   9b80 <log_level_from_str>
    1265:	85 c0                	test   %eax,%eax
    1267:	75 97                	jne    1200 <parse_level_settings+0x30>
    1269:	c7 44 24 04 00 00 00 	movl   $0x0,0x4(%esp)
    1270:	00 
    1271:	89 1c 24             	mov    %ebx,(%esp)
    1274:	e8 37 01 00 00       	call   13b0 <find_or_create_log_and_lock>
    1279:	85 c0                	test   %eax,%eax
    127b:	74 83                	je     1200 <parse_level_settings+0x30>
    127d:	8b 55 e4             	mov    -0x1c(%ebp),%edx
    1280:	89 50 28             	mov    %edx,0x28(%eax)
    1283:	8b 50 08             	mov    0x8(%eax),%edx
    1286:	42                   	inc    %edx
    1287:	89 50 08             	mov    %edx,0x8(%eax)
    128a:	89 04 24             	mov    %eax,(%esp)
    128d:	e8 3e 04 00 00       	call   16d0 <log_unlock>
    1292:	e9 69 ff ff ff       	jmp    1200 <parse_level_settings+0x30>
    1297:	90                   	nop
    1298:	8d 45 e4             	lea    -0x1c(%ebp),%eax
    129b:	89 1c 24             	mov    %ebx,(%esp)
    129e:	89 44 24 04          	mov    %eax,0x4(%esp)
    12a2:	e8 d9 88 00 00       	call   9b80 <log_level_from_str>
    12a7:	85 c0                	test   %eax,%eax
    12a9:	0f 85 51 ff ff ff    	jne    1200 <parse_level_settings+0x30>
    12af:	8b 45 e4             	mov    -0x1c(%ebp),%eax
    12b2:	89 04 24             	mov    %eax,(%esp)
    12b5:	e8 b6 00 00 00       	call   1370 <set_default_logging_level>
    12ba:	e9 41 ff ff ff       	jmp    1200 <parse_level_settings+0x30>
    12bf:	90                   	nop
    12c0:	83 c4 2c             	add    $0x2c,%esp
    12c3:	5b                   	pop    %ebx
    12c4:	5e                   	pop    %esi
    12c5:	5f                   	pop    %edi
    12c6:	5d                   	pop    %ebp
    12c7:	c3                   	ret    
    12c8:	90                   	nop
    12c9:	8d b4 26 00 00 00 00 	lea    0x0(%esi,%eiz,1),%esi

000012d0 <parse_initial_settings>:
    12d0:	55                   	push   %ebp
    12d1:	89 e5                	mov    %esp,%ebp
    12d3:	53                   	push   %ebx
    12d4:	81 ec f4 00 00 00    	sub    $0xf4,%esp
    12da:	8d 85 2c ff ff ff    	lea    -0xd4(%ebp),%eax
    12e0:	89 44 24 04          	mov    %eax,0x4(%esp)
    12e4:	c7 04 24 84 ea 01 00 	movl   $0x1ea84,(%esp)
    12eb:	e8 e0 e4 00 00       	call   f7d0 <sysinfo_get_data>
    12f0:	85 c0                	test   %eax,%eax
    12f2:	74 36                	je     132a <parse_initial_settings+0x5a>
    12f4:	8d 9d 30 ff ff ff    	lea    -0xd0(%ebp),%ebx
    12fa:	89 44 24 08          	mov    %eax,0x8(%esp)
    12fe:	c7 44 24 04 c8 00 00 	movl   $0xc8,0x4(%esp)
    1305:	00 
    1306:	89 1c 24             	mov    %ebx,(%esp)
    1309:	89 85 24 ff ff ff    	mov    %eax,-0xdc(%ebp)
    130f:	e8 dc 20 00 00       	call   33f0 <str_cpy>
    1314:	8b 85 24 ff ff ff    	mov    -0xdc(%ebp),%eax
    131a:	89 04 24             	mov    %eax,(%esp)
    131d:	e8 7e dc 00 00       	call   efa0 <free>
    1322:	89 1c 24             	mov    %ebx,(%esp)
    1325:	e8 a6 fe ff ff       	call   11d0 <parse_level_settings>
    132a:	81 c4 f4 00 00 00    	add    $0xf4,%esp
    1330:	5b                   	pop    %ebx
    1331:	5d                   	pop    %ebp
    1332:	c3                   	ret    
    1333:	66 90                	xchg   %ax,%ax
    1335:	66 90                	xchg   %ax,%ax
    1337:	66 90                	xchg   %ax,%ax
    1339:	66 90                	xchg   %ax,%ax
    133b:	66 90                	xchg   %ax,%ax
    133d:	66 90                	xchg   %ax,%ax
    133f:	90                   	nop

00001340 <get_default_logging_level>:
    1340:	55                   	push   %ebp
    1341:	89 e5                	mov    %esp,%ebp
    1343:	53                   	push   %ebx
    1344:	83 ec 14             	sub    $0x14,%esp
    1347:	c7 04 24 24 17 02 00 	movl   $0x21724,(%esp)
    134e:	e8 bd 47 00 00       	call   5b10 <fibril_mutex_lock>
    1353:	c7 04 24 24 17 02 00 	movl   $0x21724,(%esp)
    135a:	8b 1d 20 17 02 00    	mov    0x21720,%ebx
    1360:	e8 cb 48 00 00       	call   5c30 <fibril_mutex_unlock>
    1365:	83 c4 14             	add    $0x14,%esp
    1368:	89 d8                	mov    %ebx,%eax
    136a:	5b                   	pop    %ebx
    136b:	5d                   	pop    %ebp
    136c:	c3                   	ret    
    136d:	8d 76 00             	lea    0x0(%esi),%esi

00001370 <set_default_logging_level>:
    1370:	55                   	push   %ebp
    1371:	89 e5                	mov    %esp,%ebp
    1373:	53                   	push   %ebx
    1374:	83 ec 14             	sub    $0x14,%esp
    1377:	8b 5d 08             	mov    0x8(%ebp),%ebx
    137a:	83 fb 05             	cmp    $0x5,%ebx
    137d:	77 29                	ja     13a8 <set_default_logging_level+0x38>
    137f:	c7 04 24 24 17 02 00 	movl   $0x21724,(%esp)
    1386:	e8 85 47 00 00       	call   5b10 <fibril_mutex_lock>
    138b:	c7 04 24 24 17 02 00 	movl   $0x21724,(%esp)
    1392:	89 1d 20 17 02 00    	mov    %ebx,0x21720
    1398:	e8 93 48 00 00       	call   5c30 <fibril_mutex_unlock>
    139d:	31 c0                	xor    %eax,%eax
    139f:	83 c4 14             	add    $0x14,%esp
    13a2:	5b                   	pop    %ebx
    13a3:	5d                   	pop    %ebp
    13a4:	c3                   	ret    
    13a5:	8d 76 00             	lea    0x0(%esi),%esi
    13a8:	b8 f9 fe ff ff       	mov    $0xfffffef9,%eax
    13ad:	eb f0                	jmp    139f <set_default_logging_level+0x2f>
    13af:	90                   	nop

000013b0 <find_or_create_log_and_lock>:
    13b0:	55                   	push   %ebp
    13b1:	89 e5                	mov    %esp,%ebp
    13b3:	57                   	push   %edi
    13b4:	56                   	push   %esi
    13b5:	53                   	push   %ebx
    13b6:	83 ec 1c             	sub    $0x1c,%esp
    13b9:	8b 7d 08             	mov    0x8(%ebp),%edi
    13bc:	8b 75 0c             	mov    0xc(%ebp),%esi
    13bf:	c7 04 24 34 17 02 00 	movl   $0x21734,(%esp)
    13c6:	e8 45 47 00 00       	call   5b10 <fibril_mutex_lock>
    13cb:	8b 1d 48 17 02 00    	mov    0x21748,%ebx
    13d1:	81 fb 44 17 02 00    	cmp    $0x21744,%ebx
    13d7:	75 12                	jne    13eb <find_or_create_log_and_lock+0x3b>
    13d9:	eb 35                	jmp    1410 <find_or_create_log_and_lock+0x60>
    13db:	90                   	nop
    13dc:	8d 74 26 00          	lea    0x0(%esi,%eiz,1),%esi
    13e0:	8b 5b 04             	mov    0x4(%ebx),%ebx
    13e3:	81 fb 44 17 02 00    	cmp    $0x21744,%ebx
    13e9:	74 25                	je     1410 <find_or_create_log_and_lock+0x60>
    13eb:	3b 73 24             	cmp    0x24(%ebx),%esi
    13ee:	75 f0                	jne    13e0 <find_or_create_log_and_lock+0x30>
    13f0:	89 7c 24 04          	mov    %edi,0x4(%esp)
    13f4:	8b 43 1c             	mov    0x1c(%ebx),%eax
    13f7:	89 04 24             	mov    %eax,(%esp)
    13fa:	e8 71 19 00 00       	call   2d70 <str_cmp>
    13ff:	85 c0                	test   %eax,%eax
    1401:	75 dd                	jne    13e0 <find_or_create_log_and_lock+0x30>
    1403:	8d 7b 0c             	lea    0xc(%ebx),%edi
    1406:	e9 b6 00 00 00       	jmp    14c1 <find_or_create_log_and_lock+0x111>
    140b:	90                   	nop
    140c:	8d 74 26 00          	lea    0x0(%esi,%eiz,1),%esi
    1410:	c7 44 24 04 30 00 00 	movl   $0x30,0x4(%esp)
    1417:	00 
    1418:	c7 04 24 01 00 00 00 	movl   $0x1,(%esp)
    141f:	e8 0c da 00 00       	call   ee30 <calloc>
    1424:	89 c3                	mov    %eax,%ebx
    1426:	85 c0                	test   %eax,%eax
    1428:	0f 84 ce 00 00 00    	je     14fc <find_or_create_log_and_lock+0x14c>
    142e:	89 3c 24             	mov    %edi,(%esp)
    1431:	e8 aa 33 00 00       	call   47e0 <str_dup>
    1436:	89 43 1c             	mov    %eax,0x1c(%ebx)
    1439:	85 c0                	test   %eax,%eax
    143b:	0f 84 9e 00 00 00    	je     14df <find_or_create_log_and_lock+0x12f>
    1441:	85 f6                	test   %esi,%esi
    1443:	0f 84 b7 00 00 00    	je     1500 <find_or_create_log_and_lock+0x150>
    1449:	89 7c 24 0c          	mov    %edi,0xc(%esp)
    144d:	8b 46 20             	mov    0x20(%esi),%eax
    1450:	c7 44 24 04 9d ea 01 	movl   $0x1ea9d,0x4(%esp)
    1457:	00 
    1458:	89 44 24 08          	mov    %eax,0x8(%esp)
    145c:	8d 43 20             	lea    0x20(%ebx),%eax
    145f:	89 04 24             	mov    %eax,(%esp)
    1462:	e8 99 61 00 00       	call   7600 <asprintf>
    1467:	85 c0                	test   %eax,%eax
    1469:	0f 88 1c 01 00 00    	js     158b <find_or_create_log_and_lock+0x1db>
    146f:	8b 46 2c             	mov    0x2c(%esi),%eax
    1472:	8d 7b 0c             	lea    0xc(%ebx),%edi
    1475:	89 43 2c             	mov    %eax,0x2c(%ebx)
    1478:	c7 43 28 07 00 00 00 	movl   $0x7,0x28(%ebx)
    147f:	89 3c 24             	mov    %edi,(%esp)
    1482:	e8 69 46 00 00       	call   5af0 <fibril_mutex_initialize>
    1487:	a1 44 17 02 00       	mov    0x21744,%eax
    148c:	89 73 24             	mov    %esi,0x24(%ebx)
    148f:	83 c6 0c             	add    $0xc,%esi
    1492:	c7 43 04 44 17 02 00 	movl   $0x21744,0x4(%ebx)
    1499:	89 03                	mov    %eax,(%ebx)
    149b:	89 58 04             	mov    %ebx,0x4(%eax)
    149e:	89 34 24             	mov    %esi,(%esp)
    14a1:	89 1d 44 17 02 00    	mov    %ebx,0x21744
    14a7:	e8 64 46 00 00       	call   5b10 <fibril_mutex_lock>
    14ac:	8b 43 24             	mov    0x24(%ebx),%eax
    14af:	8b 50 08             	mov    0x8(%eax),%edx
    14b2:	42                   	inc    %edx
    14b3:	89 50 08             	mov    %edx,0x8(%eax)
    14b6:	83 c0 0c             	add    $0xc,%eax
    14b9:	89 04 24             	mov    %eax,(%esp)
    14bc:	e8 6f 47 00 00       	call   5c30 <fibril_mutex_unlock>
    14c1:	89 3c 24             	mov    %edi,(%esp)
    14c4:	e8 47 46 00 00       	call   5b10 <fibril_mutex_lock>
    14c9:	c7 04 24 34 17 02 00 	movl   $0x21734,(%esp)
    14d0:	e8 5b 47 00 00       	call   5c30 <fibril_mutex_unlock>
    14d5:	83 c4 1c             	add    $0x1c,%esp
    14d8:	89 d8                	mov    %ebx,%eax
    14da:	5b                   	pop    %ebx
    14db:	5e                   	pop    %esi
    14dc:	5f                   	pop    %edi
    14dd:	5d                   	pop    %ebp
    14de:	c3                   	ret    
    14df:	31 c0                	xor    %eax,%eax
    14e1:	89 04 24             	mov    %eax,(%esp)
    14e4:	e8 b7 da 00 00       	call   efa0 <free>
    14e9:	8b 43 20             	mov    0x20(%ebx),%eax
    14ec:	89 04 24             	mov    %eax,(%esp)
    14ef:	e8 ac da 00 00       	call   efa0 <free>
    14f4:	89 1c 24             	mov    %ebx,(%esp)
    14f7:	e8 a4 da 00 00       	call   efa0 <free>
    14fc:	31 db                	xor    %ebx,%ebx
    14fe:	eb c9                	jmp    14c9 <find_or_create_log_and_lock+0x119>
    1500:	89 3c 24             	mov    %edi,(%esp)
    1503:	e8 d8 32 00 00       	call   47e0 <str_dup>
    1508:	89 43 20             	mov    %eax,0x20(%ebx)
    150b:	85 c0                	test   %eax,%eax
    150d:	74 7c                	je     158b <find_or_create_log_and_lock+0x1db>
    150f:	c7 04 24 18 00 00 00 	movl   $0x18,(%esp)
    1516:	e8 75 d9 00 00       	call   ee90 <malloc>
    151b:	89 c6                	mov    %eax,%esi
    151d:	85 c0                	test   %eax,%eax
    151f:	74 6a                	je     158b <find_or_create_log_and_lock+0x1db>
    1521:	8d 40 10             	lea    0x10(%eax),%eax
    1524:	89 7c 24 08          	mov    %edi,0x8(%esp)
    1528:	c7 44 24 04 95 ea 01 	movl   $0x1ea95,0x4(%esp)
    152f:	00 
    1530:	89 04 24             	mov    %eax,(%esp)
    1533:	e8 c8 60 00 00       	call   7600 <asprintf>
    1538:	85 c0                	test   %eax,%eax
    153a:	78 47                	js     1583 <find_or_create_log_and_lock+0x1d3>
    153c:	c7 46 14 00 00 00 00 	movl   $0x0,0x14(%esi)
    1543:	8d 7b 0c             	lea    0xc(%ebx),%edi
    1546:	89 34 24             	mov    %esi,(%esp)
    1549:	e8 a2 45 00 00       	call   5af0 <fibril_mutex_initialize>
    154e:	89 73 2c             	mov    %esi,0x2c(%ebx)
    1551:	c7 43 28 07 00 00 00 	movl   $0x7,0x28(%ebx)
    1558:	89 3c 24             	mov    %edi,(%esp)
    155b:	e8 90 45 00 00       	call   5af0 <fibril_mutex_initialize>
    1560:	a1 44 17 02 00       	mov    0x21744,%eax
    1565:	c7 43 24 00 00 00 00 	movl   $0x0,0x24(%ebx)
    156c:	c7 43 04 44 17 02 00 	movl   $0x21744,0x4(%ebx)
    1573:	89 03                	mov    %eax,(%ebx)
    1575:	89 58 04             	mov    %ebx,0x4(%eax)
    1578:	89 1d 44 17 02 00    	mov    %ebx,0x21744
    157e:	e9 3e ff ff ff       	jmp    14c1 <find_or_create_log_and_lock+0x111>
    1583:	89 34 24             	mov    %esi,(%esp)
    1586:	e8 15 da 00 00       	call   efa0 <free>
    158b:	8b 43 1c             	mov    0x1c(%ebx),%eax
    158e:	e9 4e ff ff ff       	jmp    14e1 <find_or_create_log_and_lock+0x131>
    1593:	8d b6 00 00 00 00    	lea    0x0(%esi),%esi
    1599:	8d bc 27 00 00 00 00 	lea    0x0(%edi,%eiz,1),%edi

000015a0 <find_log_by_name_and_lock>:
    15a0:	55                   	push   %ebp
    15a1:	89 e5                	mov    %esp,%ebp
    15a3:	56                   	push   %esi
    15a4:	53                   	push   %ebx
    15a5:	83 ec 10             	sub    $0x10,%esp
    15a8:	8b 75 08             	mov    0x8(%ebp),%esi
    15ab:	c7 04 24 34 17 02 00 	movl   $0x21734,(%esp)
    15b2:	e8 59 45 00 00       	call   5b10 <fibril_mutex_lock>
    15b7:	8b 1d 48 17 02 00    	mov    0x21748,%ebx
    15bd:	81 fb 44 17 02 00    	cmp    $0x21744,%ebx
    15c3:	75 0e                	jne    15d3 <find_log_by_name_and_lock+0x33>
    15c5:	eb 31                	jmp    15f8 <find_log_by_name_and_lock+0x58>
    15c7:	90                   	nop
    15c8:	8b 5b 04             	mov    0x4(%ebx),%ebx
    15cb:	81 fb 44 17 02 00    	cmp    $0x21744,%ebx
    15d1:	74 25                	je     15f8 <find_log_by_name_and_lock+0x58>
    15d3:	89 74 24 04          	mov    %esi,0x4(%esp)
    15d7:	8b 43 20             	mov    0x20(%ebx),%eax
    15da:	89 04 24             	mov    %eax,(%esp)
    15dd:	e8 8e 17 00 00       	call   2d70 <str_cmp>
    15e2:	85 c0                	test   %eax,%eax
    15e4:	75 e2                	jne    15c8 <find_log_by_name_and_lock+0x28>
    15e6:	8d 43 0c             	lea    0xc(%ebx),%eax
    15e9:	89 04 24             	mov    %eax,(%esp)
    15ec:	e8 1f 45 00 00       	call   5b10 <fibril_mutex_lock>
    15f1:	eb 07                	jmp    15fa <find_log_by_name_and_lock+0x5a>
    15f3:	90                   	nop
    15f4:	8d 74 26 00          	lea    0x0(%esi,%eiz,1),%esi
    15f8:	31 db                	xor    %ebx,%ebx
    15fa:	c7 04 24 34 17 02 00 	movl   $0x21734,(%esp)
    1601:	e8 2a 46 00 00       	call   5c30 <fibril_mutex_unlock>
    1606:	83 c4 10             	add    $0x10,%esp
    1609:	89 d8                	mov    %ebx,%eax
    160b:	5b                   	pop    %ebx
    160c:	5e                   	pop    %esi
    160d:	5d                   	pop    %ebp
    160e:	c3                   	ret    
    160f:	90                   	nop

00001610 <find_log_by_id_and_lock>:
    1610:	55                   	push   %ebp
    1611:	89 e5                	mov    %esp,%ebp
    1613:	56                   	push   %esi
    1614:	53                   	push   %ebx
    1615:	83 ec 10             	sub    $0x10,%esp
    1618:	8b 75 08             	mov    0x8(%ebp),%esi
    161b:	c7 04 24 34 17 02 00 	movl   $0x21734,(%esp)
    1622:	e8 e9 44 00 00       	call   5b10 <fibril_mutex_lock>
    1627:	8b 1d 48 17 02 00    	mov    0x21748,%ebx
    162d:	81 fb 44 17 02 00    	cmp    $0x21744,%ebx
    1633:	75 0e                	jne    1643 <find_log_by_id_and_lock+0x33>
    1635:	eb 21                	jmp    1658 <find_log_by_id_and_lock+0x48>
    1637:	90                   	nop
    1638:	8b 5b 04             	mov    0x4(%ebx),%ebx
    163b:	81 fb 44 17 02 00    	cmp    $0x21744,%ebx
    1641:	74 15                	je     1658 <find_log_by_id_and_lock+0x48>
    1643:	39 f3                	cmp    %esi,%ebx
    1645:	75 f1                	jne    1638 <find_log_by_id_and_lock+0x28>
    1647:	8d 43 0c             	lea    0xc(%ebx),%eax
    164a:	89 04 24             	mov    %eax,(%esp)
    164d:	e8 be 44 00 00       	call   5b10 <fibril_mutex_lock>
    1652:	eb 06                	jmp    165a <find_log_by_id_and_lock+0x4a>
    1654:	8d 74 26 00          	lea    0x0(%esi,%eiz,1),%esi
    1658:	31 db                	xor    %ebx,%ebx
    165a:	c7 04 24 34 17 02 00 	movl   $0x21734,(%esp)
    1661:	e8 ca 45 00 00       	call   5c30 <fibril_mutex_unlock>
    1666:	83 c4 10             	add    $0x10,%esp
    1669:	89 d8                	mov    %ebx,%eax
    166b:	5b                   	pop    %ebx
    166c:	5e                   	pop    %esi
    166d:	5d                   	pop    %ebp
    166e:	c3                   	ret    
    166f:	90                   	nop

00001670 <shall_log_message>:
    1670:	55                   	push   %ebp
    1671:	89 e5                	mov    %esp,%ebp
    1673:	53                   	push   %ebx
    1674:	83 ec 14             	sub    $0x14,%esp
    1677:	8b 5d 08             	mov    0x8(%ebp),%ebx
    167a:	c7 04 24 34 17 02 00 	movl   $0x21734,(%esp)
    1681:	e8 8a 44 00 00       	call   5b10 <fibril_mutex_lock>
    1686:	8b 43 28             	mov    0x28(%ebx),%eax
    1689:	8b 53 24             	mov    0x24(%ebx),%edx
    168c:	83 f8 07             	cmp    $0x7,%eax
    168f:	74 14                	je     16a5 <shall_log_message+0x35>
    1691:	eb 1b                	jmp    16ae <shall_log_message+0x3e>
    1693:	90                   	nop
    1694:	8d 74 26 00          	lea    0x0(%esi,%eiz,1),%esi
    1698:	8b 42 28             	mov    0x28(%edx),%eax
    169b:	8b 4a 24             	mov    0x24(%edx),%ecx
    169e:	83 f8 07             	cmp    $0x7,%eax
    16a1:	75 0b                	jne    16ae <shall_log_message+0x3e>
    16a3:	89 ca                	mov    %ecx,%edx
    16a5:	85 d2                	test   %edx,%edx
    16a7:	75 ef                	jne    1698 <shall_log_message+0x28>
    16a9:	e8 92 fc ff ff       	call   1340 <get_default_logging_level>
    16ae:	c7 04 24 34 17 02 00 	movl   $0x21734,(%esp)
    16b5:	39 45 0c             	cmp    %eax,0xc(%ebp)
    16b8:	0f 96 c3             	setbe  %bl
    16bb:	e8 70 45 00 00       	call   5c30 <fibril_mutex_unlock>
    16c0:	83 c4 14             	add    $0x14,%esp
    16c3:	88 d8                	mov    %bl,%al
    16c5:	5b                   	pop    %ebx
    16c6:	5d                   	pop    %ebp
    16c7:	c3                   	ret    
    16c8:	90                   	nop
    16c9:	8d b4 26 00 00 00 00 	lea    0x0(%esi,%eiz,1),%esi

000016d0 <log_unlock>:
    16d0:	55                   	push   %ebp
    16d1:	89 e5                	mov    %esp,%ebp
    16d3:	53                   	push   %ebx
    16d4:	83 ec 14             	sub    $0x14,%esp
    16d7:	8b 5d 08             	mov    0x8(%ebp),%ebx
    16da:	83 c3 0c             	add    $0xc,%ebx
    16dd:	89 1c 24             	mov    %ebx,(%esp)
    16e0:	e8 5b 46 00 00       	call   5d40 <fibril_mutex_is_locked>
    16e5:	84 c0                	test   %al,%al
    16e7:	74 0d                	je     16f6 <log_unlock+0x26>
    16e9:	89 5d 08             	mov    %ebx,0x8(%ebp)
    16ec:	83 c4 14             	add    $0x14,%esp
    16ef:	5b                   	pop    %ebx
    16f0:	5d                   	pop    %ebp
    16f1:	e9 3a 45 00 00       	jmp    5c30 <fibril_mutex_unlock>
    16f6:	c7 44 24 08 cb 00 00 	movl   $0xcb,0x8(%esp)
    16fd:	00 
    16fe:	c7 44 24 04 a3 ea 01 	movl   $0x1eaa3,0x4(%esp)
    1705:	00 
    1706:	c7 04 24 e0 ea 01 00 	movl   $0x1eae0,(%esp)
    170d:	e8 ce 82 01 00       	call   199e0 <assert_abort>
    1712:	8d b4 26 00 00 00 00 	lea    0x0(%esi,%eiz,1),%esi
    1719:	8d bc 27 00 00 00 00 	lea    0x0(%edi,%eiz,1),%edi

00001720 <log_release>:
    1720:	55                   	push   %ebp
    1721:	89 e5                	mov    %esp,%ebp
    1723:	56                   	push   %esi
    1724:	53                   	push   %ebx
    1725:	83 ec 10             	sub    $0x10,%esp
    1728:	8b 5d 08             	mov    0x8(%ebp),%ebx
    172b:	8d 73 0c             	lea    0xc(%ebx),%esi
    172e:	89 34 24             	mov    %esi,(%esp)
    1731:	e8 0a 46 00 00       	call   5d40 <fibril_mutex_is_locked>
    1736:	84 c0                	test   %al,%al
    1738:	0f 84 16 01 00 00    	je     1854 <log_release+0x134>
    173e:	8b 43 08             	mov    0x8(%ebx),%eax
    1741:	85 c0                	test   %eax,%eax
    1743:	0f 84 27 01 00 00    	je     1870 <log_release+0x150>
    1749:	83 f8 01             	cmp    $0x1,%eax
    174c:	76 12                	jbe    1760 <log_release+0x40>
    174e:	48                   	dec    %eax
    174f:	89 43 08             	mov    %eax,0x8(%ebx)
    1752:	89 75 08             	mov    %esi,0x8(%ebp)
    1755:	83 c4 10             	add    $0x10,%esp
    1758:	5b                   	pop    %ebx
    1759:	5e                   	pop    %esi
    175a:	5d                   	pop    %ebp
    175b:	e9 d0 44 00 00       	jmp    5c30 <fibril_mutex_unlock>
    1760:	89 34 24             	mov    %esi,(%esp)
    1763:	e8 c8 44 00 00       	call   5c30 <fibril_mutex_unlock>
    1768:	c7 04 24 34 17 02 00 	movl   $0x21734,(%esp)
    176f:	e8 9c 43 00 00       	call   5b10 <fibril_mutex_lock>
    1774:	89 34 24             	mov    %esi,(%esp)
    1777:	e8 94 43 00 00       	call   5b10 <fibril_mutex_lock>
    177c:	8b 43 08             	mov    0x8(%ebx),%eax
    177f:	85 c0                	test   %eax,%eax
    1781:	0f 84 05 01 00 00    	je     188c <log_release+0x16c>
    1787:	48                   	dec    %eax
    1788:	89 43 08             	mov    %eax,0x8(%ebx)
    178b:	85 c0                	test   %eax,%eax
    178d:	0f 85 ad 00 00 00    	jne    1840 <log_release+0x120>
    1793:	8b 13                	mov    (%ebx),%edx
    1795:	85 d2                	test   %edx,%edx
    1797:	74 0e                	je     17a7 <log_release+0x87>
    1799:	8b 43 04             	mov    0x4(%ebx),%eax
    179c:	85 c0                	test   %eax,%eax
    179e:	74 07                	je     17a7 <log_release+0x87>
    17a0:	89 10                	mov    %edx,(%eax)
    17a2:	8b 13                	mov    (%ebx),%edx
    17a4:	89 42 04             	mov    %eax,0x4(%edx)
    17a7:	c7 03 00 00 00 00    	movl   $0x0,(%ebx)
    17ad:	c7 43 04 00 00 00 00 	movl   $0x0,0x4(%ebx)
    17b4:	c7 04 24 34 17 02 00 	movl   $0x21734,(%esp)
    17bb:	e8 70 44 00 00       	call   5c30 <fibril_mutex_unlock>
    17c0:	89 34 24             	mov    %esi,(%esp)
    17c3:	e8 68 44 00 00       	call   5c30 <fibril_mutex_unlock>
    17c8:	8b 43 24             	mov    0x24(%ebx),%eax
    17cb:	85 c0                	test   %eax,%eax
    17cd:	74 41                	je     1810 <log_release+0xf0>
    17cf:	83 c0 0c             	add    $0xc,%eax
    17d2:	89 04 24             	mov    %eax,(%esp)
    17d5:	e8 36 43 00 00       	call   5b10 <fibril_mutex_lock>
    17da:	8b 43 24             	mov    0x24(%ebx),%eax
    17dd:	89 04 24             	mov    %eax,(%esp)
    17e0:	e8 3b ff ff ff       	call   1720 <log_release>
    17e5:	8b 43 1c             	mov    0x1c(%ebx),%eax
    17e8:	89 04 24             	mov    %eax,(%esp)
    17eb:	e8 b0 d7 00 00       	call   efa0 <free>
    17f0:	8b 43 20             	mov    0x20(%ebx),%eax
    17f3:	89 04 24             	mov    %eax,(%esp)
    17f6:	e8 a5 d7 00 00       	call   efa0 <free>
    17fb:	89 5d 08             	mov    %ebx,0x8(%ebp)
    17fe:	83 c4 10             	add    $0x10,%esp
    1801:	5b                   	pop    %ebx
    1802:	5e                   	pop    %esi
    1803:	5d                   	pop    %ebp
    1804:	e9 97 d7 00 00       	jmp    efa0 <free>
    1809:	8d b4 26 00 00 00 00 	lea    0x0(%esi,%eiz,1),%esi
    1810:	8b 43 2c             	mov    0x2c(%ebx),%eax
    1813:	8b 50 14             	mov    0x14(%eax),%edx
    1816:	85 d2                	test   %edx,%edx
    1818:	74 0b                	je     1825 <log_release+0x105>
    181a:	89 14 24             	mov    %edx,(%esp)
    181d:	e8 ae 66 00 00       	call   7ed0 <fclose>
    1822:	8b 43 2c             	mov    0x2c(%ebx),%eax
    1825:	8b 40 10             	mov    0x10(%eax),%eax
    1828:	89 04 24             	mov    %eax,(%esp)
    182b:	e8 70 d7 00 00       	call   efa0 <free>
    1830:	8b 43 2c             	mov    0x2c(%ebx),%eax
    1833:	89 04 24             	mov    %eax,(%esp)
    1836:	e8 65 d7 00 00       	call   efa0 <free>
    183b:	eb a8                	jmp    17e5 <log_release+0xc5>
    183d:	8d 76 00             	lea    0x0(%esi),%esi
    1840:	89 34 24             	mov    %esi,(%esp)
    1843:	e8 e8 43 00 00       	call   5c30 <fibril_mutex_unlock>
    1848:	c7 45 08 34 17 02 00 	movl   $0x21734,0x8(%ebp)
    184f:	e9 01 ff ff ff       	jmp    1755 <log_release+0x35>
    1854:	c7 44 24 08 d8 00 00 	movl   $0xd8,0x8(%esp)
    185b:	00 
    185c:	c7 44 24 04 a3 ea 01 	movl   $0x1eaa3,0x4(%esp)
    1863:	00 
    1864:	c7 04 24 e0 ea 01 00 	movl   $0x1eae0,(%esp)
    186b:	e8 70 81 01 00       	call   199e0 <assert_abort>
    1870:	c7 44 24 08 d9 00 00 	movl   $0xd9,0x8(%esp)
    1877:	00 
    1878:	c7 44 24 04 a3 ea 01 	movl   $0x1eaa3,0x4(%esp)
    187f:	00 
    1880:	c7 04 24 aa ea 01 00 	movl   $0x1eaaa,(%esp)
    1887:	e8 54 81 01 00       	call   199e0 <assert_abort>
    188c:	c7 44 24 08 f2 00 00 	movl   $0xf2,0x8(%esp)
    1893:	00 
    1894:	c7 44 24 04 a3 ea 01 	movl   $0x1eaa3,0x4(%esp)
    189b:	00 
    189c:	c7 04 24 aa ea 01 00 	movl   $0x1eaaa,(%esp)
    18a3:	e8 38 81 01 00       	call   199e0 <assert_abort>
    18a8:	90                   	nop
    18a9:	8d b4 26 00 00 00 00 	lea    0x0(%esi,%eiz,1),%esi

000018b0 <write_to_log>:
    18b0:	55                   	push   %ebp
    18b1:	89 e5                	mov    %esp,%ebp
    18b3:	57                   	push   %edi
    18b4:	56                   	push   %esi
    18b5:	53                   	push   %ebx
    18b6:	83 ec 3c             	sub    $0x3c,%esp
    18b9:	8b 5d 08             	mov    0x8(%ebp),%ebx
    18bc:	8b 75 0c             	mov    0xc(%ebp),%esi
    18bf:	8b 7d 10             	mov    0x10(%ebp),%edi
    18c2:	8d 43 0c             	lea    0xc(%ebx),%eax
    18c5:	89 04 24             	mov    %eax,(%esp)
    18c8:	e8 73 44 00 00       	call   5d40 <fibril_mutex_is_locked>
    18cd:	84 c0                	test   %al,%al
    18cf:	0f 84 93 00 00 00    	je     1968 <write_to_log+0xb8>
    18d5:	8b 43 2c             	mov    0x2c(%ebx),%eax
    18d8:	85 c0                	test   %eax,%eax
    18da:	0f 84 a4 00 00 00    	je     1984 <write_to_log+0xd4>
    18e0:	89 04 24             	mov    %eax,(%esp)
    18e3:	e8 28 42 00 00       	call   5b10 <fibril_mutex_lock>
    18e8:	8b 53 2c             	mov    0x2c(%ebx),%edx
    18eb:	8b 42 14             	mov    0x14(%edx),%eax
    18ee:	85 c0                	test   %eax,%eax
    18f0:	74 4e                	je     1940 <write_to_log+0x90>
    18f2:	89 34 24             	mov    %esi,(%esp)
    18f5:	e8 66 82 00 00       	call   9b60 <log_level_str>
    18fa:	89 7c 24 10          	mov    %edi,0x10(%esp)
    18fe:	89 44 24 0c          	mov    %eax,0xc(%esp)
    1902:	8b 43 20             	mov    0x20(%ebx),%eax
    1905:	c7 44 24 04 d1 ea 01 	movl   $0x1ead1,0x4(%esp)
    190c:	00 
    190d:	89 44 24 08          	mov    %eax,0x8(%esp)
    1911:	8b 43 2c             	mov    0x2c(%ebx),%eax
    1914:	8b 40 14             	mov    0x14(%eax),%eax
    1917:	89 04 24             	mov    %eax,(%esp)
    191a:	e8 f1 81 00 00       	call   9b10 <fprintf>
    191f:	8b 43 2c             	mov    0x2c(%ebx),%eax
    1922:	8b 40 14             	mov    0x14(%eax),%eax
    1925:	89 04 24             	mov    %eax,(%esp)
    1928:	e8 93 75 00 00       	call   8ec0 <fflush>
    192d:	8b 43 2c             	mov    0x2c(%ebx),%eax
    1930:	89 45 08             	mov    %eax,0x8(%ebp)
    1933:	83 c4 3c             	add    $0x3c,%esp
    1936:	5b                   	pop    %ebx
    1937:	5e                   	pop    %esi
    1938:	5f                   	pop    %edi
    1939:	5d                   	pop    %ebp
    193a:	e9 f1 42 00 00       	jmp    5c30 <fibril_mutex_unlock>
    193f:	90                   	nop
    1940:	c7 44 24 04 0d f7 01 	movl   $0x1f70d,0x4(%esp)
    1947:	00 
    1948:	8b 42 10             	mov    0x10(%edx),%eax
    194b:	89 55 e4             	mov    %edx,-0x1c(%ebp)
    194e:	89 04 24             	mov    %eax,(%esp)
    1951:	e8 8a 62 00 00       	call   7be0 <fopen>
    1956:	8b 55 e4             	mov    -0x1c(%ebp),%edx
    1959:	89 42 14             	mov    %eax,0x14(%edx)
    195c:	8b 43 2c             	mov    0x2c(%ebx),%eax
    195f:	8b 48 14             	mov    0x14(%eax),%ecx
    1962:	85 c9                	test   %ecx,%ecx
    1964:	74 ca                	je     1930 <write_to_log+0x80>
    1966:	eb 8a                	jmp    18f2 <write_to_log+0x42>
    1968:	c7 44 24 08 27 01 00 	movl   $0x127,0x8(%esp)
    196f:	00 
    1970:	c7 44 24 04 a3 ea 01 	movl   $0x1eaa3,0x4(%esp)
    1977:	00 
    1978:	c7 04 24 e0 ea 01 00 	movl   $0x1eae0,(%esp)
    197f:	e8 5c 80 01 00       	call   199e0 <assert_abort>
    1984:	c7 44 24 08 28 01 00 	movl   $0x128,0x8(%esp)
    198b:	00 
    198c:	c7 44 24 04 a3 ea 01 	movl   $0x1eaa3,0x4(%esp)
    1993:	00 
    1994:	c7 04 24 bf ea 01 00 	movl   $0x1eabf,(%esp)
    199b:	e8 40 80 01 00       	call   199e0 <assert_abort>

000019a0 <registered_logs_init>:
    19a0:	55                   	push   %ebp
    19a1:	89 e5                	mov    %esp,%ebp
    19a3:	8b 45 08             	mov    0x8(%ebp),%eax
    19a6:	c7 00 00 00 00 00    	movl   $0x0,(%eax)
    19ac:	5d                   	pop    %ebp
    19ad:	c3                   	ret    
    19ae:	66 90                	xchg   %ax,%ax

000019b0 <register_log>:
    19b0:	55                   	push   %ebp
    19b1:	31 c0                	xor    %eax,%eax
    19b3:	89 e5                	mov    %esp,%ebp
    19b5:	56                   	push   %esi
    19b6:	53                   	push   %ebx
    19b7:	83 ec 10             	sub    $0x10,%esp
    19ba:	8b 5d 08             	mov    0x8(%ebp),%ebx
    19bd:	8b 75 0c             	mov    0xc(%ebp),%esi
    19c0:	83 3b 63             	cmpl   $0x63,(%ebx)
    19c3:	76 0b                	jbe    19d0 <register_log+0x20>
    19c5:	83 c4 10             	add    $0x10,%esp
    19c8:	5b                   	pop    %ebx
    19c9:	5e                   	pop    %esi
    19ca:	5d                   	pop    %ebp
    19cb:	c3                   	ret    
    19cc:	8d 74 26 00          	lea    0x0(%esi,%eiz,1),%esi
    19d0:	8d 46 0c             	lea    0xc(%esi),%eax
    19d3:	89 04 24             	mov    %eax,(%esp)
    19d6:	e8 65 43 00 00       	call   5d40 <fibril_mutex_is_locked>
    19db:	84 c0                	test   %al,%al
    19dd:	74 19                	je     19f8 <register_log+0x48>
    19df:	8b 46 08             	mov    0x8(%esi),%eax
    19e2:	40                   	inc    %eax
    19e3:	89 46 08             	mov    %eax,0x8(%esi)
    19e6:	8b 03                	mov    (%ebx),%eax
    19e8:	89 74 83 04          	mov    %esi,0x4(%ebx,%eax,4)
    19ec:	40                   	inc    %eax
    19ed:	89 03                	mov    %eax,(%ebx)
    19ef:	83 c4 10             	add    $0x10,%esp
    19f2:	b0 01                	mov    $0x1,%al
    19f4:	5b                   	pop    %ebx
    19f5:	5e                   	pop    %esi
    19f6:	5d                   	pop    %ebp
    19f7:	c3                   	ret    
    19f8:	c7 44 24 08 42 01 00 	movl   $0x142,0x8(%esp)
    19ff:	00 
    1a00:	c7 44 24 04 a3 ea 01 	movl   $0x1eaa3,0x4(%esp)
    1a07:	00 
    1a08:	c7 04 24 04 eb 01 00 	movl   $0x1eb04,(%esp)
    1a0f:	e8 cc 7f 01 00       	call   199e0 <assert_abort>
    1a14:	8d b6 00 00 00 00    	lea    0x0(%esi),%esi
    1a1a:	8d bf 00 00 00 00    	lea    0x0(%edi),%edi

00001a20 <unregister_logs>:
    1a20:	55                   	push   %ebp
    1a21:	89 e5                	mov    %esp,%ebp
    1a23:	57                   	push   %edi
    1a24:	56                   	push   %esi
    1a25:	53                   	push   %ebx
    1a26:	83 ec 1c             	sub    $0x1c,%esp
    1a29:	8b 7d 08             	mov    0x8(%ebp),%edi
    1a2c:	8b 07                	mov    (%edi),%eax
    1a2e:	85 c0                	test   %eax,%eax
    1a30:	74 22                	je     1a54 <unregister_logs+0x34>
    1a32:	31 db                	xor    %ebx,%ebx
    1a34:	8d 74 26 00          	lea    0x0(%esi,%eiz,1),%esi
    1a38:	8b 74 9f 04          	mov    0x4(%edi,%ebx,4),%esi
    1a3c:	43                   	inc    %ebx
    1a3d:	8d 46 0c             	lea    0xc(%esi),%eax
    1a40:	89 04 24             	mov    %eax,(%esp)
    1a43:	e8 c8 40 00 00       	call   5b10 <fibril_mutex_lock>
    1a48:	89 34 24             	mov    %esi,(%esp)
    1a4b:	e8 d0 fc ff ff       	call   1720 <log_release>
    1a50:	39 1f                	cmp    %ebx,(%edi)
    1a52:	77 e4                	ja     1a38 <unregister_logs+0x18>
    1a54:	83 c4 1c             	add    $0x1c,%esp
    1a57:	5b                   	pop    %ebx
    1a58:	5e                   	pop    %esi
    1a59:	5f                   	pop    %edi
    1a5a:	5d                   	pop    %ebp
    1a5b:	c3                   	ret    
    1a5c:	66 90                	xchg   %ax,%ax
    1a5e:	66 90                	xchg   %ax,%ax

00001a60 <connection_handler>:
    1a60:	55                   	push   %ebp
    1a61:	89 e5                	mov    %esp,%ebp
    1a63:	8b 45 0c             	mov    0xc(%ebp),%eax
    1a66:	8b 55 08             	mov    0x8(%ebp),%edx
    1a69:	8b 40 04             	mov    0x4(%eax),%eax
    1a6c:	85 c0                	test   %eax,%eax
    1a6e:	75 10                	jne    1a80 <connection_handler+0x20>
    1a70:	89 55 08             	mov    %edx,0x8(%ebp)
    1a73:	5d                   	pop    %ebp
    1a74:	e9 47 f6 ff ff       	jmp    10c0 <logger_connection_handler_control>
    1a79:	8d b4 26 00 00 00 00 	lea    0x0(%esi,%eiz,1),%esi
    1a80:	48                   	dec    %eax
    1a81:	74 15                	je     1a98 <connection_handler+0x38>
    1a83:	c7 45 0c f2 ff ff ff 	movl   $0xfffffff2,0xc(%ebp)
    1a8a:	89 55 08             	mov    %edx,0x8(%ebp)
    1a8d:	5d                   	pop    %ebp
    1a8e:	e9 ad 02 01 00       	jmp    11d40 <async_answer_0>
    1a93:	90                   	nop
    1a94:	8d 74 26 00          	lea    0x0(%esi,%eiz,1),%esi
    1a98:	89 55 08             	mov    %edx,0x8(%ebp)
    1a9b:	5d                   	pop    %ebp
    1a9c:	e9 af 00 00 00       	jmp    1b50 <logger_connection_handler_writer>
    1aa1:	66 90                	xchg   %ax,%ax
    1aa3:	66 90                	xchg   %ax,%ax
    1aa5:	66 90                	xchg   %ax,%ax
    1aa7:	66 90                	xchg   %ax,%ax
    1aa9:	66 90                	xchg   %ax,%ax
    1aab:	66 90                	xchg   %ax,%ax
    1aad:	66 90                	xchg   %ax,%ax
    1aaf:	90                   	nop

00001ab0 <main>:
    1ab0:	55                   	push   %ebp
    1ab1:	89 e5                	mov    %esp,%ebp
    1ab3:	57                   	push   %edi
    1ab4:	56                   	push   %esi
    1ab5:	53                   	push   %ebx
    1ab6:	83 e4 f0             	and    $0xfffffff0,%esp
    1ab9:	bb 01 00 00 00       	mov    $0x1,%ebx
    1abe:	83 ec 10             	sub    $0x10,%esp
    1ac1:	8b 75 08             	mov    0x8(%ebp),%esi
    1ac4:	8b 7d 0c             	mov    0xc(%ebp),%edi
    1ac7:	c7 04 24 2c eb 01 00 	movl   $0x1eb2c,(%esp)
    1ace:	e8 6d 80 00 00       	call   9b40 <printf>
    1ad3:	e8 f8 f7 ff ff       	call   12d0 <parse_initial_settings>
    1ad8:	83 fe 01             	cmp    $0x1,%esi
    1adb:	7e 13                	jle    1af0 <main+0x40>
    1add:	8d 76 00             	lea    0x0(%esi),%esi
    1ae0:	8b 04 9f             	mov    (%edi,%ebx,4),%eax
    1ae3:	43                   	inc    %ebx
    1ae4:	89 04 24             	mov    %eax,(%esp)
    1ae7:	e8 e4 f6 ff ff       	call   11d0 <parse_level_settings>
    1aec:	39 f3                	cmp    %esi,%ebx
    1aee:	75 f0                	jne    1ae0 <main+0x30>
    1af0:	c7 04 24 60 1a 00 00 	movl   $0x1a60,(%esp)
    1af7:	e8 f4 e9 00 00       	call   104f0 <async_set_client_connection>
    1afc:	c7 04 24 6c 6f 67 67 	movl   $0x67676f6c,(%esp)
    1b03:	e8 a8 de 00 00       	call   f9b0 <service_register>
    1b08:	85 c0                	test   %eax,%eax
    1b0a:	75 22                	jne    1b2e <main+0x7e>
    1b0c:	c7 04 24 74 eb 01 00 	movl   $0x1eb74,(%esp)
    1b13:	e8 28 80 00 00       	call   9b40 <printf>
    1b18:	c7 04 24 01 00 00 00 	movl   $0x1,(%esp)
    1b1f:	e8 1c 38 00 00       	call   5340 <fibril_switch>
    1b24:	31 c0                	xor    %eax,%eax
    1b26:	8d 65 f4             	lea    -0xc(%ebp),%esp
    1b29:	5b                   	pop    %ebx
    1b2a:	5e                   	pop    %esi
    1b2b:	5f                   	pop    %edi
    1b2c:	5d                   	pop    %ebp
    1b2d:	c3                   	ret    
    1b2e:	89 04 24             	mov    %eax,(%esp)
    1b31:	e8 ea 35 00 00       	call   5120 <str_error>
    1b36:	c7 04 24 50 eb 01 00 	movl   $0x1eb50,(%esp)
    1b3d:	89 44 24 04          	mov    %eax,0x4(%esp)
    1b41:	e8 fa 7f 00 00       	call   9b40 <printf>
    1b46:	83 c8 ff             	or     $0xffffffff,%eax
    1b49:	eb db                	jmp    1b26 <main+0x76>
    1b4b:	66 90                	xchg   %ax,%ax
    1b4d:	66 90                	xchg   %ax,%ax
    1b4f:	90                   	nop

00001b50 <logger_connection_handler_writer>:
    1b50:	55                   	push   %ebp
    1b51:	89 e5                	mov    %esp,%ebp
    1b53:	57                   	push   %edi
    1b54:	56                   	push   %esi
    1b55:	53                   	push   %ebx
    1b56:	81 ec fc 01 00 00    	sub    $0x1fc,%esp
    1b5c:	8d bd 30 fe ff ff    	lea    -0x1d0(%ebp),%edi
    1b62:	8b 45 08             	mov    0x8(%ebp),%eax
    1b65:	c7 44 24 04 00 00 00 	movl   $0x0,0x4(%esp)
    1b6c:	00 
    1b6d:	89 04 24             	mov    %eax,(%esp)
    1b70:	e8 cb 01 01 00       	call   11d40 <async_answer_0>
    1b75:	8d 85 54 fe ff ff    	lea    -0x1ac(%ebp),%eax
    1b7b:	89 04 24             	mov    %eax,(%esp)
    1b7e:	e8 1d fe ff ff       	call   19a0 <registered_logs_init>
    1b83:	90                   	nop
    1b84:	8d 74 26 00          	lea    0x0(%esi,%eiz,1),%esi
    1b88:	c7 44 24 04 00 00 00 	movl   $0x0,0x4(%esp)
    1b8f:	00 
    1b90:	89 3c 24             	mov    %edi,(%esp)
    1b93:	e8 78 eb 00 00       	call   10710 <async_get_call_timeout>
    1b98:	89 c3                	mov    %eax,%ebx
    1b9a:	8b 85 30 fe ff ff    	mov    -0x1d0(%ebp),%eax
    1ba0:	85 c0                	test   %eax,%eax
    1ba2:	0f 84 90 01 00 00    	je     1d38 <logger_connection_handler_writer+0x1e8>
    1ba8:	3d 00 04 00 00       	cmp    $0x400,%eax
    1bad:	74 21                	je     1bd0 <logger_connection_handler_writer+0x80>
    1baf:	3d 01 04 00 00       	cmp    $0x401,%eax
    1bb4:	0f 84 be 00 00 00    	je     1c78 <logger_connection_handler_writer+0x128>
    1bba:	c7 44 24 04 f2 ff ff 	movl   $0xfffffff2,0x4(%esp)
    1bc1:	ff 
    1bc2:	89 1c 24             	mov    %ebx,(%esp)
    1bc5:	e8 76 01 01 00       	call   11d40 <async_answer_0>
    1bca:	eb bc                	jmp    1b88 <logger_connection_handler_writer+0x38>
    1bcc:	8d 74 26 00          	lea    0x0(%esi,%eiz,1),%esi
    1bd0:	8d 85 2c fe ff ff    	lea    -0x1d4(%ebp),%eax
    1bd6:	c7 44 24 14 00 00 00 	movl   $0x0,0x14(%esp)
    1bdd:	00 
    1bde:	c7 44 24 10 00 00 00 	movl   $0x0,0x10(%esp)
    1be5:	00 
    1be6:	c7 44 24 0c 00 00 00 	movl   $0x0,0xc(%esp)
    1bed:	00 
    1bee:	c7 44 24 08 01 00 00 	movl   $0x1,0x8(%esp)
    1bf5:	00 
    1bf6:	c7 44 24 04 01 00 00 	movl   $0x1,0x4(%esp)
    1bfd:	00 
    1bfe:	89 04 24             	mov    %eax,(%esp)
    1c01:	8b b5 34 fe ff ff    	mov    -0x1cc(%ebp),%esi
    1c07:	e8 54 1c 01 00       	call   13860 <async_data_write_accept>
    1c0c:	85 c0                	test   %eax,%eax
    1c0e:	0f 85 c4 01 00 00    	jne    1dd8 <logger_connection_handler_writer+0x288>
    1c14:	8b 85 2c fe ff ff    	mov    -0x1d4(%ebp),%eax
    1c1a:	89 74 24 04          	mov    %esi,0x4(%esp)
    1c1e:	89 04 24             	mov    %eax,(%esp)
    1c21:	e8 8a f7 ff ff       	call   13b0 <find_or_create_log_and_lock>
    1c26:	89 c6                	mov    %eax,%esi
    1c28:	8b 85 2c fe ff ff    	mov    -0x1d4(%ebp),%eax
    1c2e:	89 04 24             	mov    %eax,(%esp)
    1c31:	e8 6a d3 00 00       	call   efa0 <free>
    1c36:	85 f6                	test   %esi,%esi
    1c38:	0f 84 9a 01 00 00    	je     1dd8 <logger_connection_handler_writer+0x288>
    1c3e:	8d 85 54 fe ff ff    	lea    -0x1ac(%ebp),%eax
    1c44:	89 74 24 04          	mov    %esi,0x4(%esp)
    1c48:	89 04 24             	mov    %eax,(%esp)
    1c4b:	e8 60 fd ff ff       	call   19b0 <register_log>
    1c50:	89 34 24             	mov    %esi,(%esp)
    1c53:	84 c0                	test   %al,%al
    1c55:	0f 85 bd 00 00 00    	jne    1d18 <logger_connection_handler_writer+0x1c8>
    1c5b:	e8 70 fa ff ff       	call   16d0 <log_unlock>
    1c60:	c7 44 24 04 fd ff ff 	movl   $0xfffffffd,0x4(%esp)
    1c67:	ff 
    1c68:	89 1c 24             	mov    %ebx,(%esp)
    1c6b:	e8 d0 00 01 00       	call   11d40 <async_answer_0>
    1c70:	e9 13 ff ff ff       	jmp    1b88 <logger_connection_handler_writer+0x38>
    1c75:	8d 76 00             	lea    0x0(%esi),%esi
    1c78:	8b 85 38 fe ff ff    	mov    -0x1c8(%ebp),%eax
    1c7e:	89 85 20 fe ff ff    	mov    %eax,-0x1e0(%ebp)
    1c84:	8b 85 34 fe ff ff    	mov    -0x1cc(%ebp),%eax
    1c8a:	89 04 24             	mov    %eax,(%esp)
    1c8d:	e8 7e f9 ff ff       	call   1610 <find_log_by_id_and_lock>
    1c92:	89 c6                	mov    %eax,%esi
    1c94:	85 c0                	test   %eax,%eax
    1c96:	0f 84 51 01 00 00    	je     1ded <logger_connection_handler_writer+0x29d>
    1c9c:	8d 85 2c fe ff ff    	lea    -0x1d4(%ebp),%eax
    1ca2:	c7 44 24 14 00 00 00 	movl   $0x0,0x14(%esp)
    1ca9:	00 
    1caa:	c7 44 24 10 00 00 00 	movl   $0x0,0x10(%esp)
    1cb1:	00 
    1cb2:	c7 44 24 0c 00 00 00 	movl   $0x0,0xc(%esp)
    1cb9:	00 
    1cba:	c7 44 24 08 01 00 00 	movl   $0x1,0x8(%esp)
    1cc1:	00 
    1cc2:	c7 44 24 04 01 00 00 	movl   $0x1,0x4(%esp)
    1cc9:	00 
    1cca:	89 04 24             	mov    %eax,(%esp)
    1ccd:	c7 85 2c fe ff ff 00 	movl   $0x0,-0x1d4(%ebp)
    1cd4:	00 00 00 
    1cd7:	e8 84 1b 01 00       	call   13860 <async_data_write_accept>
    1cdc:	85 c0                	test   %eax,%eax
    1cde:	74 78                	je     1d58 <logger_connection_handler_writer+0x208>
    1ce0:	89 85 24 fe ff ff    	mov    %eax,-0x1dc(%ebp)
    1ce6:	89 34 24             	mov    %esi,(%esp)
    1ce9:	e8 e2 f9 ff ff       	call   16d0 <log_unlock>
    1cee:	8b 85 2c fe ff ff    	mov    -0x1d4(%ebp),%eax
    1cf4:	89 04 24             	mov    %eax,(%esp)
    1cf7:	e8 a4 d2 00 00       	call   efa0 <free>
    1cfc:	8b 85 24 fe ff ff    	mov    -0x1dc(%ebp),%eax
    1d02:	89 1c 24             	mov    %ebx,(%esp)
    1d05:	89 44 24 04          	mov    %eax,0x4(%esp)
    1d09:	e8 32 00 01 00       	call   11d40 <async_answer_0>
    1d0e:	e9 75 fe ff ff       	jmp    1b88 <logger_connection_handler_writer+0x38>
    1d13:	90                   	nop
    1d14:	8d 74 26 00          	lea    0x0(%esi,%eiz,1),%esi
    1d18:	e8 b3 f9 ff ff       	call   16d0 <log_unlock>
    1d1d:	89 74 24 08          	mov    %esi,0x8(%esp)
    1d21:	c7 44 24 04 00 00 00 	movl   $0x0,0x4(%esp)
    1d28:	00 
    1d29:	89 1c 24             	mov    %ebx,(%esp)
    1d2c:	e8 4f 00 01 00       	call   11d80 <async_answer_1>
    1d31:	e9 52 fe ff ff       	jmp    1b88 <logger_connection_handler_writer+0x38>
    1d36:	66 90                	xchg   %ax,%ax
    1d38:	8d 85 54 fe ff ff    	lea    -0x1ac(%ebp),%eax
    1d3e:	89 04 24             	mov    %eax,(%esp)
    1d41:	e8 da fc ff ff       	call   1a20 <unregister_logs>
    1d46:	81 c4 fc 01 00 00    	add    $0x1fc,%esp
    1d4c:	5b                   	pop    %ebx
    1d4d:	5e                   	pop    %esi
    1d4e:	5f                   	pop    %edi
    1d4f:	5d                   	pop    %ebp
    1d50:	c3                   	ret    
    1d51:	8d b4 26 00 00 00 00 	lea    0x0(%esi,%eiz,1),%esi
    1d58:	8b 85 20 fe ff ff    	mov    -0x1e0(%ebp),%eax
    1d5e:	89 34 24             	mov    %esi,(%esp)
    1d61:	89 44 24 04          	mov    %eax,0x4(%esp)
    1d65:	e8 06 f9 ff ff       	call   1670 <shall_log_message>
    1d6a:	c7 85 24 fe ff ff 00 	movl   $0x0,-0x1dc(%ebp)
    1d71:	00 00 00 
    1d74:	84 c0                	test   %al,%al
    1d76:	0f 84 6a ff ff ff    	je     1ce6 <logger_connection_handler_writer+0x196>
    1d7c:	8b 85 20 fe ff ff    	mov    -0x1e0(%ebp),%eax
    1d82:	8b 8d 2c fe ff ff    	mov    -0x1d4(%ebp),%ecx
    1d88:	89 04 24             	mov    %eax,(%esp)
    1d8b:	89 8d 1c fe ff ff    	mov    %ecx,-0x1e4(%ebp)
    1d91:	e8 ca 7d 00 00       	call   9b60 <log_level_str>
    1d96:	8b 8d 1c fe ff ff    	mov    -0x1e4(%ebp),%ecx
    1d9c:	89 4c 24 0c          	mov    %ecx,0xc(%esp)
    1da0:	89 44 24 08          	mov    %eax,0x8(%esp)
    1da4:	8b 46 20             	mov    0x20(%esi),%eax
    1da7:	c7 04 24 d1 ea 01 00 	movl   $0x1ead1,(%esp)
    1dae:	89 44 24 04          	mov    %eax,0x4(%esp)
    1db2:	e8 89 7d 00 00       	call   9b40 <printf>
    1db7:	8b 85 2c fe ff ff    	mov    -0x1d4(%ebp),%eax
    1dbd:	89 44 24 08          	mov    %eax,0x8(%esp)
    1dc1:	8b 85 20 fe ff ff    	mov    -0x1e0(%ebp),%eax
    1dc7:	89 44 24 04          	mov    %eax,0x4(%esp)
    1dcb:	89 34 24             	mov    %esi,(%esp)
    1dce:	e8 dd fa ff ff       	call   18b0 <write_to_log>
    1dd3:	e9 0e ff ff ff       	jmp    1ce6 <logger_connection_handler_writer+0x196>
    1dd8:	c7 44 24 04 fe ff ff 	movl   $0xfffffffe,0x4(%esp)
    1ddf:	ff 
    1de0:	89 1c 24             	mov    %ebx,(%esp)
    1de3:	e8 58 ff 00 00       	call   11d40 <async_answer_0>
    1de8:	e9 9b fd ff ff       	jmp    1b88 <logger_connection_handler_writer+0x38>
    1ded:	c7 85 24 fe ff ff ff 	movl   $0xffffffff,-0x1dc(%ebp)
    1df4:	ff ff ff 
    1df7:	e9 00 ff ff ff       	jmp    1cfc <logger_connection_handler_writer+0x1ac>
    1dfc:	66 90                	xchg   %ax,%ax
    1dfe:	66 90                	xchg   %ax,%ax

00001e00 <exit>:
    1e00:	55                   	push   %ebp
    1e01:	89 e5                	mov    %esp,%ebp
    1e03:	83 ec 28             	sub    $0x28,%esp
    1e06:	80 3d 60 19 02 00 00 	cmpb   $0x0,0x21960
    1e0d:	75 3f                	jne    1e4e <exit+0x4e>
    1e0f:	c7 44 24 18 0a 00 00 	movl   $0xa,0x18(%esp)
    1e16:	00 
    1e17:	c7 44 24 14 00 00 00 	movl   $0x0,0x14(%esp)
    1e1e:	00 
    1e1f:	c7 44 24 10 00 00 00 	movl   $0x0,0x10(%esp)
    1e26:	00 
    1e27:	c7 44 24 0c 00 00 00 	movl   $0x0,0xc(%esp)
    1e2e:	00 
    1e2f:	c7 44 24 08 00 00 00 	movl   $0x0,0x8(%esp)
    1e36:	00 
    1e37:	c7 44 24 04 00 00 00 	movl   $0x0,0x4(%esp)
    1e3e:	00 
    1e3f:	c7 04 24 00 00 00 00 	movl   $0x0,(%esp)
    1e46:	ff 15 d4 18 02 00    	call   *0x218d4
    1e4c:	eb fe                	jmp    1e4c <exit+0x4c>
    1e4e:	e8 8d 5b 00 00       	call   79e0 <__stdio_done>
    1e53:	8b 45 08             	mov    0x8(%ebp),%eax
    1e56:	89 04 24             	mov    %eax,(%esp)
    1e59:	e8 02 56 00 00       	call   7460 <task_retval>
    1e5e:	65 a1 00 00 00 00    	mov    %gs:0x0,%eax
    1e64:	8b 40 04             	mov    0x4(%eax),%eax
    1e67:	89 04 24             	mov    %eax,(%esp)
    1e6a:	e8 e1 33 00 00       	call   5250 <fibril_teardown>
    1e6f:	eb 9e                	jmp    1e0f <exit+0xf>
    1e71:	eb 0d                	jmp    1e80 <abort>
    1e73:	90                   	nop
    1e74:	90                   	nop
    1e75:	90                   	nop
    1e76:	90                   	nop
    1e77:	90                   	nop
    1e78:	90                   	nop
    1e79:	90                   	nop
    1e7a:	90                   	nop
    1e7b:	90                   	nop
    1e7c:	90                   	nop
    1e7d:	90                   	nop
    1e7e:	90                   	nop
    1e7f:	90                   	nop

00001e80 <abort>:
    1e80:	55                   	push   %ebp
    1e81:	89 e5                	mov    %esp,%ebp
    1e83:	83 ec 28             	sub    $0x28,%esp
    1e86:	c7 44 24 18 0a 00 00 	movl   $0xa,0x18(%esp)
    1e8d:	00 
    1e8e:	c7 44 24 14 00 00 00 	movl   $0x0,0x14(%esp)
    1e95:	00 
    1e96:	c7 44 24 10 00 00 00 	movl   $0x0,0x10(%esp)
    1e9d:	00 
    1e9e:	c7 44 24 0c 00 00 00 	movl   $0x0,0xc(%esp)
    1ea5:	00 
    1ea6:	c7 44 24 08 00 00 00 	movl   $0x0,0x8(%esp)
    1ead:	00 
    1eae:	c7 44 24 04 00 00 00 	movl   $0x0,0x4(%esp)
    1eb5:	00 
    1eb6:	c7 04 24 01 00 00 00 	movl   $0x1,(%esp)
    1ebd:	ff 15 d4 18 02 00    	call   *0x218d4
    1ec3:	eb fe                	jmp    1ec3 <abort+0x43>
    1ec5:	8d 74 26 00          	lea    0x0(%esi,%eiz,1),%esi
    1ec9:	8d bc 27 00 00 00 00 	lea    0x0(%edi,%eiz,1),%edi

00001ed0 <__main>:
    1ed0:	55                   	push   %ebp
    1ed1:	89 e5                	mov    %esp,%ebp
    1ed3:	57                   	push   %edi
    1ed4:	56                   	push   %esi
    1ed5:	53                   	push   %ebx
    1ed6:	83 ec 2c             	sub    $0x2c,%esp
    1ed9:	8b 5d 08             	mov    0x8(%ebp),%ebx
    1edc:	e8 af ce 00 00       	call   ed90 <__malloc_init>
    1ee1:	e8 2a f1 00 00       	call   11010 <__async_init>
    1ee6:	e8 e5 32 00 00       	call   51d0 <fibril_setup>
    1eeb:	85 c0                	test   %eax,%eax
    1eed:	0f 84 82 00 00 00    	je     1f75 <__main+0xa5>
    1ef3:	c7 44 24 18 01 00 00 	movl   $0x1,0x18(%esp)
    1efa:	00 
    1efb:	c7 44 24 14 00 00 00 	movl   $0x0,0x14(%esp)
    1f02:	00 
    1f03:	c7 44 24 10 00 00 00 	movl   $0x0,0x10(%esp)
    1f0a:	00 
    1f0b:	c7 44 24 0c 00 00 00 	movl   $0x0,0xc(%esp)
    1f12:	00 
    1f13:	c7 44 24 08 00 00 00 	movl   $0x0,0x8(%esp)
    1f1a:	00 
    1f1b:	c7 44 24 04 00 00 00 	movl   $0x0,0x4(%esp)
    1f22:	00 
    1f23:	8b 40 30             	mov    0x30(%eax),%eax
    1f26:	89 04 24             	mov    %eax,(%esp)
    1f29:	ff 15 d4 18 02 00    	call   *0x218d4
    1f2f:	89 1d 58 19 02 00    	mov    %ebx,0x21958
    1f35:	c6 05 60 19 02 00 01 	movb   $0x1,0x21960
    1f3c:	85 db                	test   %ebx,%ebx
    1f3e:	74 3a                	je     1f7a <__main+0xaa>
    1f40:	8b 43 10             	mov    0x10(%ebx),%eax
    1f43:	8b 73 08             	mov    0x8(%ebx),%esi
    1f46:	8b 7b 0c             	mov    0xc(%ebx),%edi
    1f49:	89 04 24             	mov    %eax,(%esp)
    1f4c:	e8 ff 57 00 00       	call   7750 <__stdio_init>
    1f51:	a1 58 19 02 00       	mov    0x21958,%eax
    1f56:	8b 40 04             	mov    0x4(%eax),%eax
    1f59:	89 04 24             	mov    %eax,(%esp)
    1f5c:	e8 0f 6e 01 00       	call   18d70 <chdir>
    1f61:	89 7c 24 04          	mov    %edi,0x4(%esp)
    1f65:	89 34 24             	mov    %esi,(%esp)
    1f68:	e8 43 fb ff ff       	call   1ab0 <main>
    1f6d:	89 04 24             	mov    %eax,(%esp)
    1f70:	e8 8b fe ff ff       	call   1e00 <exit>
    1f75:	e8 06 ff ff ff       	call   1e80 <abort>
    1f7a:	c7 04 24 00 00 00 00 	movl   $0x0,(%esp)
    1f81:	31 ff                	xor    %edi,%edi
    1f83:	e8 c8 57 00 00       	call   7750 <__stdio_init>
    1f88:	31 f6                	xor    %esi,%esi
    1f8a:	eb d5                	jmp    1f61 <__main+0x91>
    1f8c:	66 90                	xchg   %ax,%ax
    1f8e:	66 90                	xchg   %ax,%ax

00001f90 <_strtoul>:
    1f90:	55                   	push   %ebp
    1f91:	89 e5                	mov    %esp,%ebp
    1f93:	57                   	push   %edi
    1f94:	56                   	push   %esi
    1f95:	53                   	push   %ebx
    1f96:	83 ec 08             	sub    $0x8,%esp
    1f99:	89 45 f0             	mov    %eax,-0x10(%ebp)
    1f9c:	8a 00                	mov    (%eax),%al
    1f9e:	89 55 ec             	mov    %edx,-0x14(%ebp)
    1fa1:	0f be d0             	movsbl %al,%edx
    1fa4:	83 ea 09             	sub    $0x9,%edx
    1fa7:	8b 5d f0             	mov    -0x10(%ebp),%ebx
    1faa:	83 fa 17             	cmp    $0x17,%edx
    1fad:	77 23                	ja     1fd2 <_strtoul+0x42>
    1faf:	8b 3c 95 e0 ec 01 00 	mov    0x1ece0(,%edx,4),%edi
    1fb6:	85 ff                	test   %edi,%edi
    1fb8:	0f 84 94 01 00 00    	je     2152 <_strtoul+0x1c2>
    1fbe:	66 90                	xchg   %ax,%ax
    1fc0:	43                   	inc    %ebx
    1fc1:	8a 03                	mov    (%ebx),%al
    1fc3:	0f be d0             	movsbl %al,%edx
    1fc6:	83 ea 09             	sub    $0x9,%edx
    1fc9:	83 fa 17             	cmp    $0x17,%edx
    1fcc:	0f 86 a6 00 00 00    	jbe    2078 <_strtoul+0xe8>
    1fd2:	3c 2d                	cmp    $0x2d,%al
    1fd4:	0f 84 1e 01 00 00    	je     20f8 <_strtoul+0x168>
    1fda:	3c 2b                	cmp    $0x2b,%al
    1fdc:	0f 94 c0             	sete   %al
    1fdf:	25 ff 00 00 00       	and    $0xff,%eax
    1fe4:	01 c3                	add    %eax,%ebx
    1fe6:	85 c9                	test   %ecx,%ecx
    1fe8:	0f 84 a2 00 00 00    	je     2090 <_strtoul+0x100>
    1fee:	83 f9 24             	cmp    $0x24,%ecx
    1ff1:	0f 8f 21 01 00 00    	jg     2118 <_strtoul+0x188>
    1ff7:	83 f9 01             	cmp    $0x1,%ecx
    1ffa:	0f 84 18 01 00 00    	je     2118 <_strtoul+0x188>
    2000:	8a 13                	mov    (%ebx),%dl
    2002:	83 f9 10             	cmp    $0x10,%ecx
    2005:	0f 84 16 01 00 00    	je     2121 <_strtoul+0x191>
    200b:	84 d2                	test   %dl,%dl
    200d:	0f 84 2c 01 00 00    	je     213f <_strtoul+0x1af>
    2013:	89 de                	mov    %ebx,%esi
    2015:	31 c0                	xor    %eax,%eax
    2017:	eb 4a                	jmp    2063 <_strtoul+0xd3>
    2019:	8d b4 26 00 00 00 00 	lea    0x0(%esi,%eiz,1),%esi
    2020:	83 ea 57             	sub    $0x57,%edx
    2023:	81 e2 ff 00 00 00    	and    $0xff,%edx
    2029:	39 d1                	cmp    %edx,%ecx
    202b:	0f 8e 94 00 00 00    	jle    20c5 <_strtoul+0x135>
    2031:	0f b6 f8             	movzbl %al,%edi
    2034:	0f af f9             	imul   %ecx,%edi
    2037:	c1 e8 08             	shr    $0x8,%eax
    203a:	01 fa                	add    %edi,%edx
    203c:	0f af c1             	imul   %ecx,%eax
    203f:	89 d7                	mov    %edx,%edi
    2041:	c1 ef 08             	shr    $0x8,%edi
    2044:	01 f8                	add    %edi,%eax
    2046:	3d ff ff ff 00       	cmp    $0xffffff,%eax
    204b:	0f 87 b7 00 00 00    	ja     2108 <_strtoul+0x178>
    2051:	46                   	inc    %esi
    2052:	81 e2 ff 00 00 00    	and    $0xff,%edx
    2058:	c1 e0 08             	shl    $0x8,%eax
    205b:	01 d0                	add    %edx,%eax
    205d:	8a 16                	mov    (%esi),%dl
    205f:	84 d2                	test   %dl,%dl
    2061:	74 62                	je     20c5 <_strtoul+0x135>
    2063:	80 fa 60             	cmp    $0x60,%dl
    2066:	77 b8                	ja     2020 <_strtoul+0x90>
    2068:	80 fa 40             	cmp    $0x40,%dl
    206b:	76 53                	jbe    20c0 <_strtoul+0x130>
    206d:	83 ea 37             	sub    $0x37,%edx
    2070:	eb b1                	jmp    2023 <_strtoul+0x93>
    2072:	8d b6 00 00 00 00    	lea    0x0(%esi),%esi
    2078:	8b 34 95 e0 ec 01 00 	mov    0x1ece0(,%edx,4),%esi
    207f:	85 f6                	test   %esi,%esi
    2081:	0f 85 39 ff ff ff    	jne    1fc0 <_strtoul+0x30>
    2087:	e9 46 ff ff ff       	jmp    1fd2 <_strtoul+0x42>
    208c:	8d 74 26 00          	lea    0x0(%esi,%eiz,1),%esi
    2090:	8a 13                	mov    (%ebx),%dl
    2092:	b9 0a 00 00 00       	mov    $0xa,%ecx
    2097:	80 fa 30             	cmp    $0x30,%dl
    209a:	0f 85 6b ff ff ff    	jne    200b <_strtoul+0x7b>
    20a0:	8a 43 01             	mov    0x1(%ebx),%al
    20a3:	83 e0 df             	and    $0xffffffdf,%eax
    20a6:	3c 58                	cmp    $0x58,%al
    20a8:	0f 85 98 00 00 00    	jne    2146 <_strtoul+0x1b6>
    20ae:	8a 53 02             	mov    0x2(%ebx),%dl
    20b1:	b1 10                	mov    $0x10,%cl
    20b3:	83 c3 02             	add    $0x2,%ebx
    20b6:	e9 50 ff ff ff       	jmp    200b <_strtoul+0x7b>
    20bb:	90                   	nop
    20bc:	8d 74 26 00          	lea    0x0(%esi,%eiz,1),%esi
    20c0:	80 fa 39             	cmp    $0x39,%dl
    20c3:	76 2b                	jbe    20f0 <_strtoul+0x160>
    20c5:	39 f3                	cmp    %esi,%ebx
    20c7:	74 76                	je     213f <_strtoul+0x1af>
    20c9:	8b 5d ec             	mov    -0x14(%ebp),%ebx
    20cc:	85 db                	test   %ebx,%ebx
    20ce:	74 05                	je     20d5 <_strtoul+0x145>
    20d0:	8b 55 ec             	mov    -0x14(%ebp),%edx
    20d3:	89 32                	mov    %esi,(%edx)
    20d5:	39 75 f0             	cmp    %esi,-0x10(%ebp)
    20d8:	0f 95 c2             	setne  %dl
    20db:	81 e2 ff 00 00 00    	and    $0xff,%edx
    20e1:	f7 da                	neg    %edx
    20e3:	21 d0                	and    %edx,%eax
    20e5:	5a                   	pop    %edx
    20e6:	59                   	pop    %ecx
    20e7:	5b                   	pop    %ebx
    20e8:	5e                   	pop    %esi
    20e9:	5f                   	pop    %edi
    20ea:	5d                   	pop    %ebp
    20eb:	c3                   	ret    
    20ec:	8d 74 26 00          	lea    0x0(%esi,%eiz,1),%esi
    20f0:	83 ea 30             	sub    $0x30,%edx
    20f3:	e9 2b ff ff ff       	jmp    2023 <_strtoul+0x93>
    20f8:	8b 45 08             	mov    0x8(%ebp),%eax
    20fb:	43                   	inc    %ebx
    20fc:	c6 00 01             	movb   $0x1,(%eax)
    20ff:	e9 e2 fe ff ff       	jmp    1fe6 <_strtoul+0x56>
    2104:	8d 74 26 00          	lea    0x0(%esi,%eiz,1),%esi
    2108:	5a                   	pop    %edx
    2109:	83 c8 ff             	or     $0xffffffff,%eax
    210c:	59                   	pop    %ecx
    210d:	5b                   	pop    %ebx
    210e:	5e                   	pop    %esi
    210f:	5f                   	pop    %edi
    2110:	5d                   	pop    %ebp
    2111:	c3                   	ret    
    2112:	8d b6 00 00 00 00    	lea    0x0(%esi),%esi
    2118:	5a                   	pop    %edx
    2119:	31 c0                	xor    %eax,%eax
    211b:	59                   	pop    %ecx
    211c:	5b                   	pop    %ebx
    211d:	5e                   	pop    %esi
    211e:	5f                   	pop    %edi
    211f:	5d                   	pop    %ebp
    2120:	c3                   	ret    
    2121:	80 fa 30             	cmp    $0x30,%dl
    2124:	0f 85 e1 fe ff ff    	jne    200b <_strtoul+0x7b>
    212a:	8a 43 01             	mov    0x1(%ebx),%al
    212d:	83 e0 df             	and    $0xffffffdf,%eax
    2130:	3c 58                	cmp    $0x58,%al
    2132:	75 17                	jne    214b <_strtoul+0x1bb>
    2134:	8a 53 02             	mov    0x2(%ebx),%dl
    2137:	83 c3 02             	add    $0x2,%ebx
    213a:	e9 cc fe ff ff       	jmp    200b <_strtoul+0x7b>
    213f:	8b 75 f0             	mov    -0x10(%ebp),%esi
    2142:	31 c0                	xor    %eax,%eax
    2144:	eb 83                	jmp    20c9 <_strtoul+0x139>
    2146:	b9 08 00 00 00       	mov    $0x8,%ecx
    214b:	b2 30                	mov    $0x30,%dl
    214d:	e9 c1 fe ff ff       	jmp    2013 <_strtoul+0x83>
    2152:	8b 5d f0             	mov    -0x10(%ebp),%ebx
    2155:	e9 78 fe ff ff       	jmp    1fd2 <_strtoul+0x42>
    215a:	8d b6 00 00 00 00    	lea    0x0(%esi),%esi

00002160 <str_uint>:
    2160:	55                   	push   %ebp
    2161:	89 e5                	mov    %esp,%ebp
    2163:	57                   	push   %edi
    2164:	56                   	push   %esi
    2165:	53                   	push   %ebx
    2166:	83 ec 3c             	sub    $0x3c,%esp
    2169:	89 45 dc             	mov    %eax,-0x24(%ebp)
    216c:	89 55 d8             	mov    %edx,-0x28(%ebp)
    216f:	8b 75 08             	mov    0x8(%ebp),%esi
    2172:	85 d2                	test   %edx,%edx
    2174:	0f 84 5f 02 00 00    	je     23d9 <str_uint+0x279>
    217a:	85 f6                	test   %esi,%esi
    217c:	0f 84 3b 02 00 00    	je     23bd <str_uint+0x25d>
    2182:	8b 45 0c             	mov    0xc(%ebp),%eax
    2185:	85 c0                	test   %eax,%eax
    2187:	0f 84 14 02 00 00    	je     23a1 <str_uint+0x241>
    218d:	8b 45 dc             	mov    -0x24(%ebp),%eax
    2190:	c6 06 00             	movb   $0x0,(%esi)
    2193:	8b 5d dc             	mov    -0x24(%ebp),%ebx
    2196:	8a 10                	mov    (%eax),%dl
    2198:	0f be c2             	movsbl %dl,%eax
    219b:	83 e8 09             	sub    $0x9,%eax
    219e:	83 f8 17             	cmp    $0x17,%eax
    21a1:	77 27                	ja     21ca <str_uint+0x6a>
    21a3:	8b 04 85 e0 ec 01 00 	mov    0x1ece0(,%eax,4),%eax
    21aa:	85 c0                	test   %eax,%eax
    21ac:	0f 84 e7 01 00 00    	je     2399 <str_uint+0x239>
    21b2:	8d b6 00 00 00 00    	lea    0x0(%esi),%esi
    21b8:	43                   	inc    %ebx
    21b9:	8a 13                	mov    (%ebx),%dl
    21bb:	0f be c2             	movsbl %dl,%eax
    21be:	83 e8 09             	sub    $0x9,%eax
    21c1:	83 f8 17             	cmp    $0x17,%eax
    21c4:	0f 86 06 01 00 00    	jbe    22d0 <str_uint+0x170>
    21ca:	80 fa 2d             	cmp    $0x2d,%dl
    21cd:	0f 84 4d 01 00 00    	je     2320 <str_uint+0x1c0>
    21d3:	80 fa 2b             	cmp    $0x2b,%dl
    21d6:	0f 94 c0             	sete   %al
    21d9:	25 ff 00 00 00       	and    $0xff,%eax
    21de:	01 c3                	add    %eax,%ebx
    21e0:	85 c9                	test   %ecx,%ecx
    21e2:	0f 85 18 01 00 00    	jne    2300 <str_uint+0x1a0>
    21e8:	b1 0a                	mov    $0xa,%cl
    21ea:	80 3b 30             	cmpb   $0x30,(%ebx)
    21ed:	0f 84 3d 01 00 00    	je     2330 <str_uint+0x1d0>
    21f3:	8b 45 0c             	mov    0xc(%ebp),%eax
    21f6:	c7 00 00 00 00 00    	movl   $0x0,(%eax)
    21fc:	c7 40 04 00 00 00 00 	movl   $0x0,0x4(%eax)
    2203:	8a 03                	mov    (%ebx),%al
    2205:	84 c0                	test   %al,%al
    2207:	0f 84 37 01 00 00    	je     2344 <str_uint+0x1e4>
    220d:	8d 50 9f             	lea    -0x61(%eax),%edx
    2210:	c7 45 e0 00 00 00 00 	movl   $0x0,-0x20(%ebp)
    2217:	c7 45 e4 00 00 00 00 	movl   $0x0,-0x1c(%ebp)
    221e:	89 5d d4             	mov    %ebx,-0x2c(%ebp)
    2221:	80 fa 19             	cmp    $0x19,%dl
    2224:	77 64                	ja     228a <str_uint+0x12a>
    2226:	66 90                	xchg   %ax,%ax
    2228:	0f be f0             	movsbl %al,%esi
    222b:	83 ee 57             	sub    $0x57,%esi
    222e:	39 f1                	cmp    %esi,%ecx
    2230:	76 6e                	jbe    22a0 <str_uint+0x140>
    2232:	8b 45 e0             	mov    -0x20(%ebp),%eax
    2235:	8b 7d e4             	mov    -0x1c(%ebp),%edi
    2238:	f7 e1                	mul    %ecx
    223a:	0f af f9             	imul   %ecx,%edi
    223d:	89 45 c8             	mov    %eax,-0x38(%ebp)
    2240:	01 fa                	add    %edi,%edx
    2242:	31 ff                	xor    %edi,%edi
    2244:	03 75 c8             	add    -0x38(%ebp),%esi
    2247:	89 55 cc             	mov    %edx,-0x34(%ebp)
    224a:	8b 55 0c             	mov    0xc(%ebp),%edx
    224d:	13 7d cc             	adc    -0x34(%ebp),%edi
    2250:	89 32                	mov    %esi,(%edx)
    2252:	89 7a 04             	mov    %edi,0x4(%edx)
    2255:	3b 7d e4             	cmp    -0x1c(%ebp),%edi
    2258:	77 1b                	ja     2275 <str_uint+0x115>
    225a:	73 14                	jae    2270 <str_uint+0x110>
    225c:	8b 45 d8             	mov    -0x28(%ebp),%eax
    225f:	89 18                	mov    %ebx,(%eax)
    2261:	b8 f0 ff ff ff       	mov    $0xfffffff0,%eax
    2266:	83 c4 3c             	add    $0x3c,%esp
    2269:	5b                   	pop    %ebx
    226a:	5e                   	pop    %esi
    226b:	5f                   	pop    %edi
    226c:	5d                   	pop    %ebp
    226d:	c3                   	ret    
    226e:	66 90                	xchg   %ax,%ax
    2270:	3b 75 e0             	cmp    -0x20(%ebp),%esi
    2273:	72 e7                	jb     225c <str_uint+0xfc>
    2275:	43                   	inc    %ebx
    2276:	8a 03                	mov    (%ebx),%al
    2278:	84 c0                	test   %al,%al
    227a:	74 24                	je     22a0 <str_uint+0x140>
    227c:	8d 50 9f             	lea    -0x61(%eax),%edx
    227f:	89 75 e0             	mov    %esi,-0x20(%ebp)
    2282:	89 7d e4             	mov    %edi,-0x1c(%ebp)
    2285:	80 fa 19             	cmp    $0x19,%dl
    2288:	76 9e                	jbe    2228 <str_uint+0xc8>
    228a:	8d 50 bf             	lea    -0x41(%eax),%edx
    228d:	80 fa 19             	cmp    $0x19,%dl
    2290:	77 56                	ja     22e8 <str_uint+0x188>
    2292:	0f be f0             	movsbl %al,%esi
    2295:	83 ee 37             	sub    $0x37,%esi
    2298:	39 f1                	cmp    %esi,%ecx
    229a:	77 96                	ja     2232 <str_uint+0xd2>
    229c:	8d 74 26 00          	lea    0x0(%esi,%eiz,1),%esi
    22a0:	89 da                	mov    %ebx,%edx
    22a2:	8b 5d d4             	mov    -0x2c(%ebp),%ebx
    22a5:	39 d3                	cmp    %edx,%ebx
    22a7:	0f 84 97 00 00 00    	je     2344 <str_uint+0x1e4>
    22ad:	8b 45 d8             	mov    -0x28(%ebp),%eax
    22b0:	39 55 dc             	cmp    %edx,-0x24(%ebp)
    22b3:	89 10                	mov    %edx,(%eax)
    22b5:	0f 95 c0             	setne  %al
    22b8:	25 ff 00 00 00       	and    $0xff,%eax
    22bd:	83 c4 3c             	add    $0x3c,%esp
    22c0:	48                   	dec    %eax
    22c1:	5b                   	pop    %ebx
    22c2:	83 e0 f2             	and    $0xfffffff2,%eax
    22c5:	5e                   	pop    %esi
    22c6:	5f                   	pop    %edi
    22c7:	5d                   	pop    %ebp
    22c8:	c3                   	ret    
    22c9:	8d b4 26 00 00 00 00 	lea    0x0(%esi,%eiz,1),%esi
    22d0:	8b 3c 85 e0 ec 01 00 	mov    0x1ece0(,%eax,4),%edi
    22d7:	85 ff                	test   %edi,%edi
    22d9:	0f 85 d9 fe ff ff    	jne    21b8 <str_uint+0x58>
    22df:	e9 e6 fe ff ff       	jmp    21ca <str_uint+0x6a>
    22e4:	8d 74 26 00          	lea    0x0(%esi,%eiz,1),%esi
    22e8:	8d 50 d0             	lea    -0x30(%eax),%edx
    22eb:	80 fa 09             	cmp    $0x9,%dl
    22ee:	77 b0                	ja     22a0 <str_uint+0x140>
    22f0:	0f be f0             	movsbl %al,%esi
    22f3:	83 ee 30             	sub    $0x30,%esi
    22f6:	e9 33 ff ff ff       	jmp    222e <str_uint+0xce>
    22fb:	90                   	nop
    22fc:	8d 74 26 00          	lea    0x0(%esi,%eiz,1),%esi
    2300:	8d 41 fe             	lea    -0x2(%ecx),%eax
    2303:	83 f8 22             	cmp    $0x22,%eax
    2306:	0f 86 e7 fe ff ff    	jbe    21f3 <str_uint+0x93>
    230c:	8b 55 d8             	mov    -0x28(%ebp),%edx
    230f:	b8 f2 ff ff ff       	mov    $0xfffffff2,%eax
    2314:	89 1a                	mov    %ebx,(%edx)
    2316:	e9 4b ff ff ff       	jmp    2266 <str_uint+0x106>
    231b:	90                   	nop
    231c:	8d 74 26 00          	lea    0x0(%esi,%eiz,1),%esi
    2320:	c6 06 01             	movb   $0x1,(%esi)
    2323:	43                   	inc    %ebx
    2324:	e9 b7 fe ff ff       	jmp    21e0 <str_uint+0x80>
    2329:	8d b4 26 00 00 00 00 	lea    0x0(%esi,%eiz,1),%esi
    2330:	8a 43 01             	mov    0x1(%ebx),%al
    2333:	83 e8 42             	sub    $0x42,%eax
    2336:	3c 36                	cmp    $0x36,%al
    2338:	76 1f                	jbe    2359 <str_uint+0x1f9>
    233a:	b9 08 00 00 00       	mov    $0x8,%ecx
    233f:	e9 af fe ff ff       	jmp    21f3 <str_uint+0x93>
    2344:	8b 55 d8             	mov    -0x28(%ebp),%edx
    2347:	8b 45 dc             	mov    -0x24(%ebp),%eax
    234a:	89 02                	mov    %eax,(%edx)
    234c:	83 c4 3c             	add    $0x3c,%esp
    234f:	b8 f2 ff ff ff       	mov    $0xfffffff2,%eax
    2354:	5b                   	pop    %ebx
    2355:	5e                   	pop    %esi
    2356:	5f                   	pop    %edi
    2357:	5d                   	pop    %ebp
    2358:	c3                   	ret    
    2359:	25 ff 00 00 00       	and    $0xff,%eax
    235e:	ff 24 85 00 ec 01 00 	jmp    *0x1ec00(,%eax,4)
    2365:	83 c3 02             	add    $0x2,%ebx
    2368:	b9 10 00 00 00       	mov    $0x10,%ecx
    236d:	e9 81 fe ff ff       	jmp    21f3 <str_uint+0x93>
    2372:	83 c3 02             	add    $0x2,%ebx
    2375:	b9 08 00 00 00       	mov    $0x8,%ecx
    237a:	e9 74 fe ff ff       	jmp    21f3 <str_uint+0x93>
    237f:	83 c3 02             	add    $0x2,%ebx
    2382:	b9 0a 00 00 00       	mov    $0xa,%ecx
    2387:	e9 67 fe ff ff       	jmp    21f3 <str_uint+0x93>
    238c:	83 c3 02             	add    $0x2,%ebx
    238f:	b9 02 00 00 00       	mov    $0x2,%ecx
    2394:	e9 5a fe ff ff       	jmp    21f3 <str_uint+0x93>
    2399:	8b 5d dc             	mov    -0x24(%ebp),%ebx
    239c:	e9 29 fe ff ff       	jmp    21ca <str_uint+0x6a>
    23a1:	c7 44 24 08 82 05 00 	movl   $0x582,0x8(%esp)
    23a8:	00 
    23a9:	c7 44 24 04 93 eb 01 	movl   $0x1eb93,0x4(%esp)
    23b0:	00 
    23b1:	c7 04 24 bc eb 01 00 	movl   $0x1ebbc,(%esp)
    23b8:	e8 23 76 01 00       	call   199e0 <assert_abort>
    23bd:	c7 44 24 08 81 05 00 	movl   $0x581,0x8(%esp)
    23c4:	00 
    23c5:	c7 44 24 04 93 eb 01 	movl   $0x1eb93,0x4(%esp)
    23cc:	00 
    23cd:	c7 04 24 b0 eb 01 00 	movl   $0x1ebb0,(%esp)
    23d4:	e8 07 76 01 00       	call   199e0 <assert_abort>
    23d9:	c7 44 24 08 80 05 00 	movl   $0x580,0x8(%esp)
    23e0:	00 
    23e1:	c7 44 24 04 93 eb 01 	movl   $0x1eb93,0x4(%esp)
    23e8:	00 
    23e9:	c7 04 24 a1 eb 01 00 	movl   $0x1eba1,(%esp)
    23f0:	e8 eb 75 01 00       	call   199e0 <assert_abort>
    23f5:	8d 74 26 00          	lea    0x0(%esi,%eiz,1),%esi
    23f9:	8d bc 27 00 00 00 00 	lea    0x0(%edi,%eiz,1),%edi

00002400 <str_decode>:
    2400:	55                   	push   %ebp
    2401:	89 e5                	mov    %esp,%ebp
    2403:	57                   	push   %edi
    2404:	56                   	push   %esi
    2405:	53                   	push   %ebx
    2406:	83 ec 0c             	sub    $0xc,%esp
    2409:	8b 45 0c             	mov    0xc(%ebp),%eax
    240c:	8b 7d 08             	mov    0x8(%ebp),%edi
    240f:	8b 10                	mov    (%eax),%edx
    2411:	31 c0                	xor    %eax,%eax
    2413:	8d 4a 01             	lea    0x1(%edx),%ecx
    2416:	3b 4d 10             	cmp    0x10(%ebp),%ecx
    2419:	77 0d                	ja     2428 <str_decode+0x28>
    241b:	0f be 04 17          	movsbl (%edi,%edx,1),%eax
    241f:	8b 5d 0c             	mov    0xc(%ebp),%ebx
    2422:	84 c0                	test   %al,%al
    2424:	89 0b                	mov    %ecx,(%ebx)
    2426:	78 08                	js     2430 <str_decode+0x30>
    2428:	83 c4 0c             	add    $0xc,%esp
    242b:	5b                   	pop    %ebx
    242c:	5e                   	pop    %esi
    242d:	5f                   	pop    %edi
    242e:	5d                   	pop    %ebp
    242f:	c3                   	ret    
    2430:	be e0 ff ff ff       	mov    $0xffffffe0,%esi
    2435:	21 c6                	and    %eax,%esi
    2437:	89 f3                	mov    %esi,%ebx
    2439:	80 fb c0             	cmp    $0xc0,%bl
    243c:	74 32                	je     2470 <str_decode+0x70>
    243e:	be f0 ff ff ff       	mov    $0xfffffff0,%esi
    2443:	21 c6                	and    %eax,%esi
    2445:	89 f3                	mov    %esi,%ebx
    2447:	80 fb e0             	cmp    $0xe0,%bl
    244a:	0f 84 90 00 00 00    	je     24e0 <str_decode+0xe0>
    2450:	be f8 ff ff ff       	mov    $0xfffffff8,%esi
    2455:	21 c6                	and    %eax,%esi
    2457:	89 f3                	mov    %esi,%ebx
    2459:	80 fb f0             	cmp    $0xf0,%bl
    245c:	0f 84 87 00 00 00    	je     24e9 <str_decode+0xe9>
    2462:	83 c4 0c             	add    $0xc,%esp
    2465:	b8 3f 00 00 00       	mov    $0x3f,%eax
    246a:	5b                   	pop    %ebx
    246b:	5e                   	pop    %esi
    246c:	5f                   	pop    %edi
    246d:	5d                   	pop    %ebp
    246e:	c3                   	ret    
    246f:	90                   	nop
    2470:	b3 1f                	mov    $0x1f,%bl
    2472:	be 01 00 00 00       	mov    $0x1,%esi
    2477:	01 f1                	add    %esi,%ecx
    2479:	89 4d f0             	mov    %ecx,-0x10(%ebp)
    247c:	39 4d 10             	cmp    %ecx,0x10(%ebp)
    247f:	72 e1                	jb     2462 <str_decode+0x62>
    2481:	21 d8                	and    %ebx,%eax
    2483:	8a 4c 17 01          	mov    0x1(%edi,%edx,1),%cl
    2487:	8b 5d 0c             	mov    0xc(%ebp),%ebx
    248a:	be c0 ff ff ff       	mov    $0xffffffc0,%esi
    248f:	83 c2 02             	add    $0x2,%edx
    2492:	21 ce                	and    %ecx,%esi
    2494:	89 13                	mov    %edx,(%ebx)
    2496:	89 f3                	mov    %esi,%ebx
    2498:	25 ff 00 00 00       	and    $0xff,%eax
    249d:	80 fb 80             	cmp    $0x80,%bl
    24a0:	75 c0                	jne    2462 <str_decode+0x62>
    24a2:	8b 5d 0c             	mov    0xc(%ebp),%ebx
    24a5:	89 5d e8             	mov    %ebx,-0x18(%ebp)
    24a8:	eb 1d                	jmp    24c7 <str_decode+0xc7>
    24aa:	8d b6 00 00 00 00    	lea    0x0(%esi),%esi
    24b0:	8a 0c 17             	mov    (%edi,%edx,1),%cl
    24b3:	8b 5d e8             	mov    -0x18(%ebp),%ebx
    24b6:	be c0 ff ff ff       	mov    $0xffffffc0,%esi
    24bb:	42                   	inc    %edx
    24bc:	21 ce                	and    %ecx,%esi
    24be:	89 13                	mov    %edx,(%ebx)
    24c0:	89 f3                	mov    %esi,%ebx
    24c2:	80 fb 80             	cmp    $0x80,%bl
    24c5:	75 9b                	jne    2462 <str_decode+0x62>
    24c7:	89 c6                	mov    %eax,%esi
    24c9:	89 c8                	mov    %ecx,%eax
    24cb:	c1 e6 06             	shl    $0x6,%esi
    24ce:	83 e0 3f             	and    $0x3f,%eax
    24d1:	09 f0                	or     %esi,%eax
    24d3:	39 55 f0             	cmp    %edx,-0x10(%ebp)
    24d6:	75 d8                	jne    24b0 <str_decode+0xb0>
    24d8:	e9 4b ff ff ff       	jmp    2428 <str_decode+0x28>
    24dd:	8d 76 00             	lea    0x0(%esi),%esi
    24e0:	b3 0f                	mov    $0xf,%bl
    24e2:	be 02 00 00 00       	mov    $0x2,%esi
    24e7:	eb 8e                	jmp    2477 <str_decode+0x77>
    24e9:	b3 07                	mov    $0x7,%bl
    24eb:	be 03 00 00 00       	mov    $0x3,%esi
    24f0:	eb 85                	jmp    2477 <str_decode+0x77>
    24f2:	8d b4 26 00 00 00 00 	lea    0x0(%esi,%eiz,1),%esi
    24f9:	8d bc 27 00 00 00 00 	lea    0x0(%edi,%eiz,1),%edi

00002500 <str_decode_reverse>:
    2500:	55                   	push   %ebp
    2501:	89 e5                	mov    %esp,%ebp
    2503:	57                   	push   %edi
    2504:	56                   	push   %esi
    2505:	53                   	push   %ebx
    2506:	50                   	push   %eax
    2507:	31 c0                	xor    %eax,%eax
    2509:	8b 7d 0c             	mov    0xc(%ebp),%edi
    250c:	8b 1f                	mov    (%edi),%ebx
    250e:	85 db                	test   %ebx,%ebx
    2510:	0f 84 24 01 00 00    	je     263a <str_decode_reverse+0x13a>
    2516:	8d 73 ff             	lea    -0x1(%ebx),%esi
    2519:	8b 55 08             	mov    0x8(%ebp),%edx
    251c:	89 37                	mov    %esi,(%edi)
    251e:	8a 14 32             	mov    (%edx,%esi,1),%dl
    2521:	88 55 f1             	mov    %dl,-0xf(%ebp)
    2524:	84 d2                	test   %dl,%dl
    2526:	0f 89 c4 01 00 00    	jns    26f0 <str_decode_reverse+0x1f0>
    252c:	88 d1                	mov    %dl,%cl
    252e:	83 e1 e0             	and    $0xffffffe0,%ecx
    2531:	88 4d f2             	mov    %cl,-0xe(%ebp)
    2534:	80 f9 c0             	cmp    $0xc0,%cl
    2537:	0f 84 d8 01 00 00    	je     2715 <str_decode_reverse+0x215>
    253d:	88 d1                	mov    %dl,%cl
    253f:	83 e1 f0             	and    $0xfffffff0,%ecx
    2542:	80 f9 e0             	cmp    $0xe0,%cl
    2545:	0f 84 f1 01 00 00    	je     273c <str_decode_reverse+0x23c>
    254b:	88 d0                	mov    %dl,%al
    254d:	83 e0 f8             	and    $0xfffffff8,%eax
    2550:	3c f0                	cmp    $0xf0,%al
    2552:	0f 84 ee 00 00 00    	je     2646 <str_decode_reverse+0x146>
    2558:	88 d1                	mov    %dl,%cl
    255a:	83 e1 c0             	and    $0xffffffc0,%ecx
    255d:	80 f9 80             	cmp    $0x80,%cl
    2560:	0f 85 cf 00 00 00    	jne    2635 <str_decode_reverse+0x135>
    2566:	85 f6                	test   %esi,%esi
    2568:	0f 84 c7 00 00 00    	je     2635 <str_decode_reverse+0x135>
    256e:	8d 43 fe             	lea    -0x2(%ebx),%eax
    2571:	8b 4d 08             	mov    0x8(%ebp),%ecx
    2574:	89 07                	mov    %eax,(%edi)
    2576:	8a 14 01             	mov    (%ecx,%eax,1),%dl
    2579:	88 d1                	mov    %dl,%cl
    257b:	88 55 f1             	mov    %dl,-0xf(%ebp)
    257e:	83 e1 e0             	and    $0xffffffe0,%ecx
    2581:	88 4d f2             	mov    %cl,-0xe(%ebp)
    2584:	80 f9 c0             	cmp    $0xc0,%cl
    2587:	0f 84 b3 00 00 00    	je     2640 <str_decode_reverse+0x140>
    258d:	88 d1                	mov    %dl,%cl
    258f:	83 e1 f0             	and    $0xfffffff0,%ecx
    2592:	80 f9 e0             	cmp    $0xe0,%cl
    2595:	0f 84 65 01 00 00    	je     2700 <str_decode_reverse+0x200>
    259b:	88 d1                	mov    %dl,%cl
    259d:	83 e1 f8             	and    $0xfffffff8,%ecx
    25a0:	80 f9 f0             	cmp    $0xf0,%cl
    25a3:	0f 84 57 01 00 00    	je     2700 <str_decode_reverse+0x200>
    25a9:	83 e2 c0             	and    $0xffffffc0,%edx
    25ac:	80 fa 80             	cmp    $0x80,%dl
    25af:	0f 85 80 00 00 00    	jne    2635 <str_decode_reverse+0x135>
    25b5:	85 c0                	test   %eax,%eax
    25b7:	74 7c                	je     2635 <str_decode_reverse+0x135>
    25b9:	8d 73 fd             	lea    -0x3(%ebx),%esi
    25bc:	8b 4d 08             	mov    0x8(%ebp),%ecx
    25bf:	89 37                	mov    %esi,(%edi)
    25c1:	8a 14 31             	mov    (%ecx,%esi,1),%dl
    25c4:	88 d1                	mov    %dl,%cl
    25c6:	88 55 f1             	mov    %dl,-0xf(%ebp)
    25c9:	83 e1 e0             	and    $0xffffffe0,%ecx
    25cc:	88 4d f2             	mov    %cl,-0xe(%ebp)
    25cf:	80 f9 c0             	cmp    $0xc0,%cl
    25d2:	0f 84 36 01 00 00    	je     270e <str_decode_reverse+0x20e>
    25d8:	88 d1                	mov    %dl,%cl
    25da:	83 e1 f0             	and    $0xfffffff0,%ecx
    25dd:	80 f9 e0             	cmp    $0xe0,%cl
    25e0:	0f 84 21 01 00 00    	je     2707 <str_decode_reverse+0x207>
    25e6:	88 d1                	mov    %dl,%cl
    25e8:	83 e1 f8             	and    $0xfffffff8,%ecx
    25eb:	80 f9 f0             	cmp    $0xf0,%cl
    25ee:	0f 84 13 01 00 00    	je     2707 <str_decode_reverse+0x207>
    25f4:	83 e2 c0             	and    $0xffffffc0,%edx
    25f7:	80 fa 80             	cmp    $0x80,%dl
    25fa:	75 39                	jne    2635 <str_decode_reverse+0x135>
    25fc:	85 f6                	test   %esi,%esi
    25fe:	74 35                	je     2635 <str_decode_reverse+0x135>
    2600:	83 eb 04             	sub    $0x4,%ebx
    2603:	8b 45 08             	mov    0x8(%ebp),%eax
    2606:	89 1f                	mov    %ebx,(%edi)
    2608:	8a 14 18             	mov    (%eax,%ebx,1),%dl
    260b:	88 d1                	mov    %dl,%cl
    260d:	88 55 f1             	mov    %dl,-0xf(%ebp)
    2610:	83 e1 e0             	and    $0xffffffe0,%ecx
    2613:	88 4d f2             	mov    %cl,-0xe(%ebp)
    2616:	80 f9 c0             	cmp    $0xc0,%cl
    2619:	74 25                	je     2640 <str_decode_reverse+0x140>
    261b:	88 d0                	mov    %dl,%al
    261d:	83 e0 f0             	and    $0xfffffff0,%eax
    2620:	3c e0                	cmp    $0xe0,%al
    2622:	0f 84 d8 00 00 00    	je     2700 <str_decode_reverse+0x200>
    2628:	88 d0                	mov    %dl,%al
    262a:	83 e0 f8             	and    $0xfffffff8,%eax
    262d:	3c f0                	cmp    $0xf0,%al
    262f:	0f 84 cb 00 00 00    	je     2700 <str_decode_reverse+0x200>
    2635:	b8 3f 00 00 00       	mov    $0x3f,%eax
    263a:	5a                   	pop    %edx
    263b:	5b                   	pop    %ebx
    263c:	5e                   	pop    %esi
    263d:	5f                   	pop    %edi
    263e:	5d                   	pop    %ebp
    263f:	c3                   	ret    
    2640:	89 f3                	mov    %esi,%ebx
    2642:	c6 45 f2 c0          	movb   $0xc0,-0xe(%ebp)
    2646:	31 c0                	xor    %eax,%eax
    2648:	39 5d 10             	cmp    %ebx,0x10(%ebp)
    264b:	72 ed                	jb     263a <str_decode_reverse+0x13a>
    264d:	84 d2                	test   %dl,%dl
    264f:	78 69                	js     26ba <str_decode_reverse+0x1ba>
    2651:	bf 7f 00 00 00       	mov    $0x7f,%edi
    2656:	31 d2                	xor    %edx,%edx
    2658:	8d 34 1a             	lea    (%edx,%ebx,1),%esi
    265b:	b8 3f 00 00 00       	mov    $0x3f,%eax
    2660:	39 75 10             	cmp    %esi,0x10(%ebp)
    2663:	72 d5                	jb     263a <str_decode_reverse+0x13a>
    2665:	8a 4d f1             	mov    -0xf(%ebp),%cl
    2668:	31 c0                	xor    %eax,%eax
    266a:	21 f9                	and    %edi,%ecx
    266c:	85 d2                	test   %edx,%edx
    266e:	88 c8                	mov    %cl,%al
    2670:	74 c8                	je     263a <str_decode_reverse+0x13a>
    2672:	8b 4d 08             	mov    0x8(%ebp),%ecx
    2675:	8d 73 01             	lea    0x1(%ebx),%esi
    2678:	8a 0c 19             	mov    (%ecx,%ebx,1),%cl
    267b:	88 4d f3             	mov    %cl,-0xd(%ebp)
    267e:	83 e1 c0             	and    $0xffffffc0,%ecx
    2681:	80 f9 80             	cmp    $0x80,%cl
    2684:	75 af                	jne    2635 <str_decode_reverse+0x135>
    2686:	8b 7d 08             	mov    0x8(%ebp),%edi
    2689:	8b 4d 08             	mov    0x8(%ebp),%ecx
    268c:	01 fb                	add    %edi,%ebx
    268e:	01 ce                	add    %ecx,%esi
    2690:	01 da                	add    %ebx,%edx
    2692:	8a 4d f3             	mov    -0xd(%ebp),%cl
    2695:	eb 0e                	jmp    26a5 <str_decode_reverse+0x1a5>
    2697:	90                   	nop
    2698:	8a 0e                	mov    (%esi),%cl
    269a:	46                   	inc    %esi
    269b:	88 cb                	mov    %cl,%bl
    269d:	83 e3 c0             	and    $0xffffffc0,%ebx
    26a0:	80 fb 80             	cmp    $0x80,%bl
    26a3:	75 90                	jne    2635 <str_decode_reverse+0x135>
    26a5:	89 c3                	mov    %eax,%ebx
    26a7:	89 c8                	mov    %ecx,%eax
    26a9:	c1 e3 06             	shl    $0x6,%ebx
    26ac:	83 e0 3f             	and    $0x3f,%eax
    26af:	09 d8                	or     %ebx,%eax
    26b1:	39 d6                	cmp    %edx,%esi
    26b3:	75 e3                	jne    2698 <str_decode_reverse+0x198>
    26b5:	e9 80 ff ff ff       	jmp    263a <str_decode_reverse+0x13a>
    26ba:	80 7d f2 c0          	cmpb   $0xc0,-0xe(%ebp)
    26be:	74 5e                	je     271e <str_decode_reverse+0x21e>
    26c0:	8a 45 f1             	mov    -0xf(%ebp),%al
    26c3:	83 e0 f0             	and    $0xfffffff0,%eax
    26c6:	3c e0                	cmp    $0xe0,%al
    26c8:	74 63                	je     272d <str_decode_reverse+0x22d>
    26ca:	8a 55 f1             	mov    -0xf(%ebp),%dl
    26cd:	b8 3f 00 00 00       	mov    $0x3f,%eax
    26d2:	83 e2 f8             	and    $0xfffffff8,%edx
    26d5:	80 fa f0             	cmp    $0xf0,%dl
    26d8:	0f 85 5c ff ff ff    	jne    263a <str_decode_reverse+0x13a>
    26de:	bf 07 00 00 00       	mov    $0x7,%edi
    26e3:	ba 03 00 00 00       	mov    $0x3,%edx
    26e8:	e9 6b ff ff ff       	jmp    2658 <str_decode_reverse+0x158>
    26ed:	8d 76 00             	lea    0x0(%esi),%esi
    26f0:	0f be 45 f1          	movsbl -0xf(%ebp),%eax
    26f4:	e9 41 ff ff ff       	jmp    263a <str_decode_reverse+0x13a>
    26f9:	8d b4 26 00 00 00 00 	lea    0x0(%esi,%eiz,1),%esi
    2700:	89 f3                	mov    %esi,%ebx
    2702:	e9 3f ff ff ff       	jmp    2646 <str_decode_reverse+0x146>
    2707:	89 c3                	mov    %eax,%ebx
    2709:	e9 38 ff ff ff       	jmp    2646 <str_decode_reverse+0x146>
    270e:	89 c3                	mov    %eax,%ebx
    2710:	e9 2d ff ff ff       	jmp    2642 <str_decode_reverse+0x142>
    2715:	3b 5d 10             	cmp    0x10(%ebp),%ebx
    2718:	0f 87 1c ff ff ff    	ja     263a <str_decode_reverse+0x13a>
    271e:	bf 1f 00 00 00       	mov    $0x1f,%edi
    2723:	ba 01 00 00 00       	mov    $0x1,%edx
    2728:	e9 2b ff ff ff       	jmp    2658 <str_decode_reverse+0x158>
    272d:	bf 0f 00 00 00       	mov    $0xf,%edi
    2732:	ba 02 00 00 00       	mov    $0x2,%edx
    2737:	e9 1c ff ff ff       	jmp    2658 <str_decode_reverse+0x158>
    273c:	3b 5d 10             	cmp    0x10(%ebp),%ebx
    273f:	0f 86 7b ff ff ff    	jbe    26c0 <str_decode_reverse+0x1c0>
    2745:	e9 f0 fe ff ff       	jmp    263a <str_decode_reverse+0x13a>
    274a:	8d b6 00 00 00 00    	lea    0x0(%esi),%esi

00002750 <chr_encode>:
    2750:	55                   	push   %ebp
    2751:	89 e5                	mov    %esp,%ebp
    2753:	57                   	push   %edi
    2754:	56                   	push   %esi
    2755:	53                   	push   %ebx
    2756:	83 ec 24             	sub    $0x24,%esp
    2759:	8b 7d 10             	mov    0x10(%ebp),%edi
    275c:	8b 1f                	mov    (%edi),%ebx
    275e:	3b 5d 14             	cmp    0x14(%ebp),%ebx
    2761:	0f 83 c5 00 00 00    	jae    282c <chr_encode+0xdc>
    2767:	8b 4d 08             	mov    0x8(%ebp),%ecx
    276a:	b8 f2 ff ff ff       	mov    $0xfffffff2,%eax
    276f:	81 f9 ff ff 10 00    	cmp    $0x10ffff,%ecx
    2775:	77 34                	ja     27ab <chr_encode+0x5b>
    2777:	f7 c1 80 ff ff ff    	test   $0xffffff80,%ecx
    277d:	75 39                	jne    27b8 <chr_encode+0x68>
    277f:	c6 45 d0 00          	movb   $0x0,-0x30(%ebp)
    2783:	c6 45 e0 7f          	movb   $0x7f,-0x20(%ebp)
    2787:	c7 45 f0 00 00 00 00 	movl   $0x0,-0x10(%ebp)
    278e:	8b 45 e0             	mov    -0x20(%ebp),%eax
    2791:	8b 55 0c             	mov    0xc(%ebp),%edx
    2794:	21 c1                	and    %eax,%ecx
    2796:	8b 45 d0             	mov    -0x30(%ebp),%eax
    2799:	09 c1                	or     %eax,%ecx
    279b:	88 0c 1a             	mov    %cl,(%edx,%ebx,1)
    279e:	8b 55 f0             	mov    -0x10(%ebp),%edx
    27a1:	8b 07                	mov    (%edi),%eax
    27a3:	8d 44 02 01          	lea    0x1(%edx,%eax,1),%eax
    27a7:	89 07                	mov    %eax,(%edi)
    27a9:	31 c0                	xor    %eax,%eax
    27ab:	83 c4 24             	add    $0x24,%esp
    27ae:	5b                   	pop    %ebx
    27af:	5e                   	pop    %esi
    27b0:	5f                   	pop    %edi
    27b1:	5d                   	pop    %ebp
    27b2:	c3                   	ret    
    27b3:	90                   	nop
    27b4:	8d 74 26 00          	lea    0x0(%esi,%eiz,1),%esi
    27b8:	f7 c1 00 f8 ff ff    	test   $0xfffff800,%ecx
    27be:	74 58                	je     2818 <chr_encode+0xc8>
    27c0:	89 c8                	mov    %ecx,%eax
    27c2:	25 00 00 ff ff       	and    $0xffff0000,%eax
    27c7:	83 f8 01             	cmp    $0x1,%eax
    27ca:	19 d2                	sbb    %edx,%edx
    27cc:	83 e2 f0             	and    $0xfffffff0,%edx
    27cf:	83 ea 10             	sub    $0x10,%edx
    27d2:	83 f8 01             	cmp    $0x1,%eax
    27d5:	88 55 d0             	mov    %dl,-0x30(%ebp)
    27d8:	19 d2                	sbb    %edx,%edx
    27da:	83 e2 08             	and    $0x8,%edx
    27dd:	83 c2 07             	add    $0x7,%edx
    27e0:	83 f8 01             	cmp    $0x1,%eax
    27e3:	19 c0                	sbb    %eax,%eax
    27e5:	88 55 e0             	mov    %dl,-0x20(%ebp)
    27e8:	83 c0 03             	add    $0x3,%eax
    27eb:	89 45 f0             	mov    %eax,-0x10(%ebp)
    27ee:	01 d8                	add    %ebx,%eax
    27f0:	39 45 14             	cmp    %eax,0x14(%ebp)
    27f3:	76 37                	jbe    282c <chr_encode+0xdc>
    27f5:	8b 45 f0             	mov    -0x10(%ebp),%eax
    27f8:	89 ca                	mov    %ecx,%edx
    27fa:	8b 75 0c             	mov    0xc(%ebp),%esi
    27fd:	01 c6                	add    %eax,%esi
    27ff:	83 e2 3f             	and    $0x3f,%edx
    2802:	c1 e9 06             	shr    $0x6,%ecx
    2805:	80 ca 80             	or     $0x80,%dl
    2808:	88 14 1e             	mov    %dl,(%esi,%ebx,1)
    280b:	48                   	dec    %eax
    280c:	8b 1f                	mov    (%edi),%ebx
    280e:	75 e8                	jne    27f8 <chr_encode+0xa8>
    2810:	e9 79 ff ff ff       	jmp    278e <chr_encode+0x3e>
    2815:	8d 76 00             	lea    0x0(%esi),%esi
    2818:	c7 45 f0 01 00 00 00 	movl   $0x1,-0x10(%ebp)
    281f:	c6 45 d0 c0          	movb   $0xc0,-0x30(%ebp)
    2823:	c6 45 e0 1f          	movb   $0x1f,-0x20(%ebp)
    2827:	8b 45 f0             	mov    -0x10(%ebp),%eax
    282a:	eb c2                	jmp    27ee <chr_encode+0x9e>
    282c:	b8 f0 ff ff ff       	mov    $0xfffffff0,%eax
    2831:	e9 75 ff ff ff       	jmp    27ab <chr_encode+0x5b>
    2836:	8d 76 00             	lea    0x0(%esi),%esi
    2839:	8d bc 27 00 00 00 00 	lea    0x0(%edi,%eiz,1),%edi

00002840 <str_size>:
    2840:	55                   	push   %ebp
    2841:	31 c0                	xor    %eax,%eax
    2843:	89 e5                	mov    %esp,%ebp
    2845:	8b 55 08             	mov    0x8(%ebp),%edx
    2848:	80 3a 00             	cmpb   $0x0,(%edx)
    284b:	74 0a                	je     2857 <str_size+0x17>
    284d:	8d 76 00             	lea    0x0(%esi),%esi
    2850:	40                   	inc    %eax
    2851:	80 3c 02 00          	cmpb   $0x0,(%edx,%eax,1)
    2855:	75 f9                	jne    2850 <str_size+0x10>
    2857:	5d                   	pop    %ebp
    2858:	c3                   	ret    
    2859:	8d b4 26 00 00 00 00 	lea    0x0(%esi,%eiz,1),%esi

00002860 <wstr_size>:
    2860:	55                   	push   %ebp
    2861:	31 c0                	xor    %eax,%eax
    2863:	89 e5                	mov    %esp,%ebp
    2865:	8b 55 08             	mov    0x8(%ebp),%edx
    2868:	8b 0a                	mov    (%edx),%ecx
    286a:	85 c9                	test   %ecx,%ecx
    286c:	74 0d                	je     287b <wstr_size+0x1b>
    286e:	66 90                	xchg   %ax,%ax
    2870:	40                   	inc    %eax
    2871:	8b 0c 82             	mov    (%edx,%eax,4),%ecx
    2874:	85 c9                	test   %ecx,%ecx
    2876:	75 f8                	jne    2870 <wstr_size+0x10>
    2878:	c1 e0 02             	shl    $0x2,%eax
    287b:	5d                   	pop    %ebp
    287c:	c3                   	ret    
    287d:	8d 76 00             	lea    0x0(%esi),%esi

00002880 <str_lsize>:
    2880:	55                   	push   %ebp
    2881:	31 c0                	xor    %eax,%eax
    2883:	89 e5                	mov    %esp,%ebp
    2885:	57                   	push   %edi
    2886:	56                   	push   %esi
    2887:	53                   	push   %ebx
    2888:	83 ec 0c             	sub    $0xc,%esp
    288b:	8b 7d 0c             	mov    0xc(%ebp),%edi
    288e:	8b 5d 08             	mov    0x8(%ebp),%ebx
    2891:	85 ff                	test   %edi,%edi
    2893:	74 5b                	je     28f0 <str_lsize+0x70>
    2895:	c7 45 f0 00 00 00 00 	movl   $0x0,-0x10(%ebp)
    289c:	eb 17                	jmp    28b5 <str_lsize+0x35>
    289e:	66 90                	xchg   %ax,%ax
    28a0:	89 f8                	mov    %edi,%eax
    28a2:	85 d2                	test   %edx,%edx
    28a4:	74 4a                	je     28f0 <str_lsize+0x70>
    28a6:	8b 75 f0             	mov    -0x10(%ebp),%esi
    28a9:	8b 55 0c             	mov    0xc(%ebp),%edx
    28ac:	46                   	inc    %esi
    28ad:	89 75 f0             	mov    %esi,-0x10(%ebp)
    28b0:	39 55 f0             	cmp    %edx,-0x10(%ebp)
    28b3:	74 3b                	je     28f0 <str_lsize+0x70>
    28b5:	0f be 14 03          	movsbl (%ebx,%eax,1),%edx
    28b9:	8d 78 01             	lea    0x1(%eax),%edi
    28bc:	84 d2                	test   %dl,%dl
    28be:	79 e0                	jns    28a0 <str_lsize+0x20>
    28c0:	88 d1                	mov    %dl,%cl
    28c2:	83 e1 e0             	and    $0xffffffe0,%ecx
    28c5:	80 f9 c0             	cmp    $0xc0,%cl
    28c8:	74 2e                	je     28f8 <str_lsize+0x78>
    28ca:	88 d1                	mov    %dl,%cl
    28cc:	83 e1 f0             	and    $0xfffffff0,%ecx
    28cf:	80 f9 e0             	cmp    $0xe0,%cl
    28d2:	74 7d                	je     2951 <str_lsize+0xd1>
    28d4:	88 d1                	mov    %dl,%cl
    28d6:	83 e1 f8             	and    $0xfffffff8,%ecx
    28d9:	80 f9 f0             	cmp    $0xf0,%cl
    28dc:	74 7c                	je     295a <str_lsize+0xda>
    28de:	8b 75 f0             	mov    -0x10(%ebp),%esi
    28e1:	8b 55 0c             	mov    0xc(%ebp),%edx
    28e4:	46                   	inc    %esi
    28e5:	89 f8                	mov    %edi,%eax
    28e7:	89 75 f0             	mov    %esi,-0x10(%ebp)
    28ea:	39 55 f0             	cmp    %edx,-0x10(%ebp)
    28ed:	75 c6                	jne    28b5 <str_lsize+0x35>
    28ef:	90                   	nop
    28f0:	83 c4 0c             	add    $0xc,%esp
    28f3:	5b                   	pop    %ebx
    28f4:	5e                   	pop    %esi
    28f5:	5f                   	pop    %edi
    28f6:	5d                   	pop    %ebp
    28f7:	c3                   	ret    
    28f8:	b1 1f                	mov    $0x1f,%cl
    28fa:	be 01 00 00 00       	mov    $0x1,%esi
    28ff:	21 ca                	and    %ecx,%edx
    2901:	8a 0c 3b             	mov    (%ebx,%edi,1),%cl
    2904:	88 4d ee             	mov    %cl,-0x12(%ebp)
    2907:	83 e1 c0             	and    $0xffffffc0,%ecx
    290a:	81 e2 ff 00 00 00    	and    $0xff,%edx
    2910:	83 c0 02             	add    $0x2,%eax
    2913:	80 f9 80             	cmp    $0x80,%cl
    2916:	75 8e                	jne    28a6 <str_lsize+0x26>
    2918:	01 f7                	add    %esi,%edi
    291a:	8a 4d ee             	mov    -0x12(%ebp),%cl
    291d:	89 5d e8             	mov    %ebx,-0x18(%ebp)
    2920:	89 d6                	mov    %edx,%esi
    2922:	89 ca                	mov    %ecx,%edx
    2924:	c1 e6 06             	shl    $0x6,%esi
    2927:	83 e2 3f             	and    $0x3f,%edx
    292a:	09 f2                	or     %esi,%edx
    292c:	8b 5d e8             	mov    -0x18(%ebp),%ebx
    292f:	39 f8                	cmp    %edi,%eax
    2931:	0f 84 6b ff ff ff    	je     28a2 <str_lsize+0x22>
    2937:	8a 0c 03             	mov    (%ebx,%eax,1),%cl
    293a:	be c0 ff ff ff       	mov    $0xffffffc0,%esi
    293f:	21 ce                	and    %ecx,%esi
    2941:	40                   	inc    %eax
    2942:	89 f3                	mov    %esi,%ebx
    2944:	80 fb 80             	cmp    $0x80,%bl
    2947:	74 d7                	je     2920 <str_lsize+0xa0>
    2949:	8b 5d e8             	mov    -0x18(%ebp),%ebx
    294c:	e9 55 ff ff ff       	jmp    28a6 <str_lsize+0x26>
    2951:	b1 0f                	mov    $0xf,%cl
    2953:	be 02 00 00 00       	mov    $0x2,%esi
    2958:	eb a5                	jmp    28ff <str_lsize+0x7f>
    295a:	b1 07                	mov    $0x7,%cl
    295c:	be 03 00 00 00       	mov    $0x3,%esi
    2961:	eb 9c                	jmp    28ff <str_lsize+0x7f>
    2963:	8d b6 00 00 00 00    	lea    0x0(%esi),%esi
    2969:	8d bc 27 00 00 00 00 	lea    0x0(%edi,%eiz,1),%edi

00002970 <str_nsize>:
    2970:	55                   	push   %ebp
    2971:	31 c0                	xor    %eax,%eax
    2973:	89 e5                	mov    %esp,%ebp
    2975:	8b 55 08             	mov    0x8(%ebp),%edx
    2978:	8b 4d 0c             	mov    0xc(%ebp),%ecx
    297b:	80 3a 00             	cmpb   $0x0,(%edx)
    297e:	74 13                	je     2993 <str_nsize+0x23>
    2980:	85 c9                	test   %ecx,%ecx
    2982:	75 08                	jne    298c <str_nsize+0x1c>
    2984:	eb 0d                	jmp    2993 <str_nsize+0x23>
    2986:	66 90                	xchg   %ax,%ax
    2988:	39 c8                	cmp    %ecx,%eax
    298a:	74 07                	je     2993 <str_nsize+0x23>
    298c:	40                   	inc    %eax
    298d:	80 3c 02 00          	cmpb   $0x0,(%edx,%eax,1)
    2991:	75 f5                	jne    2988 <str_nsize+0x18>
    2993:	5d                   	pop    %ebp
    2994:	c3                   	ret    
    2995:	8d 74 26 00          	lea    0x0(%esi,%eiz,1),%esi
    2999:	8d bc 27 00 00 00 00 	lea    0x0(%edi,%eiz,1),%edi

000029a0 <wstr_nsize>:
    29a0:	55                   	push   %ebp
    29a1:	89 e5                	mov    %esp,%ebp
    29a3:	53                   	push   %ebx
    29a4:	8b 5d 0c             	mov    0xc(%ebp),%ebx
    29a7:	8b 4d 08             	mov    0x8(%ebp),%ecx
    29aa:	83 e3 fc             	and    $0xfffffffc,%ebx
    29ad:	74 26                	je     29d5 <wstr_nsize+0x35>
    29af:	8b 01                	mov    (%ecx),%eax
    29b1:	85 c0                	test   %eax,%eax
    29b3:	74 20                	je     29d5 <wstr_nsize+0x35>
    29b5:	31 d2                	xor    %edx,%edx
    29b7:	eb 0d                	jmp    29c6 <wstr_nsize+0x26>
    29b9:	8d b4 26 00 00 00 00 	lea    0x0(%esi,%eiz,1),%esi
    29c0:	83 3c 91 00          	cmpl   $0x0,(%ecx,%edx,4)
    29c4:	74 0c                	je     29d2 <wstr_nsize+0x32>
    29c6:	42                   	inc    %edx
    29c7:	8d 04 95 00 00 00 00 	lea    0x0(,%edx,4),%eax
    29ce:	39 c3                	cmp    %eax,%ebx
    29d0:	77 ee                	ja     29c0 <wstr_nsize+0x20>
    29d2:	5b                   	pop    %ebx
    29d3:	5d                   	pop    %ebp
    29d4:	c3                   	ret    
    29d5:	31 c0                	xor    %eax,%eax
    29d7:	eb f9                	jmp    29d2 <wstr_nsize+0x32>
    29d9:	8d b4 26 00 00 00 00 	lea    0x0(%esi,%eiz,1),%esi

000029e0 <wstr_lsize>:
    29e0:	55                   	push   %ebp
    29e1:	89 e5                	mov    %esp,%ebp
    29e3:	53                   	push   %ebx
    29e4:	8b 5d 0c             	mov    0xc(%ebp),%ebx
    29e7:	8b 4d 08             	mov    0x8(%ebp),%ecx
    29ea:	c1 e3 02             	shl    $0x2,%ebx
    29ed:	74 26                	je     2a15 <wstr_lsize+0x35>
    29ef:	8b 01                	mov    (%ecx),%eax
    29f1:	85 c0                	test   %eax,%eax
    29f3:	74 20                	je     2a15 <wstr_lsize+0x35>
    29f5:	31 d2                	xor    %edx,%edx
    29f7:	eb 0d                	jmp    2a06 <wstr_lsize+0x26>
    29f9:	8d b4 26 00 00 00 00 	lea    0x0(%esi,%eiz,1),%esi
    2a00:	83 3c 91 00          	cmpl   $0x0,(%ecx,%edx,4)
    2a04:	74 0c                	je     2a12 <wstr_lsize+0x32>
    2a06:	42                   	inc    %edx
    2a07:	8d 04 95 00 00 00 00 	lea    0x0(,%edx,4),%eax
    2a0e:	39 c3                	cmp    %eax,%ebx
    2a10:	77 ee                	ja     2a00 <wstr_lsize+0x20>
    2a12:	5b                   	pop    %ebx
    2a13:	5d                   	pop    %ebp
    2a14:	c3                   	ret    
    2a15:	31 c0                	xor    %eax,%eax
    2a17:	eb f9                	jmp    2a12 <wstr_lsize+0x32>
    2a19:	8d b4 26 00 00 00 00 	lea    0x0(%esi,%eiz,1),%esi

00002a20 <str_length>:
    2a20:	55                   	push   %ebp
    2a21:	89 e5                	mov    %esp,%ebp
    2a23:	57                   	push   %edi
    2a24:	56                   	push   %esi
    2a25:	53                   	push   %ebx
    2a26:	83 ec 0c             	sub    $0xc,%esp
    2a29:	31 ff                	xor    %edi,%edi
    2a2b:	8b 5d 08             	mov    0x8(%ebp),%ebx
    2a2e:	c7 45 f0 00 00 00 00 	movl   $0x0,-0x10(%ebp)
    2a35:	eb 0e                	jmp    2a45 <str_length+0x25>
    2a37:	90                   	nop
    2a38:	85 c0                	test   %eax,%eax
    2a3a:	74 3b                	je     2a77 <str_length+0x57>
    2a3c:	89 d7                	mov    %edx,%edi
    2a3e:	8b 55 f0             	mov    -0x10(%ebp),%edx
    2a41:	42                   	inc    %edx
    2a42:	89 55 f0             	mov    %edx,-0x10(%ebp)
    2a45:	0f be 04 3b          	movsbl (%ebx,%edi,1),%eax
    2a49:	8d 57 01             	lea    0x1(%edi),%edx
    2a4c:	84 c0                	test   %al,%al
    2a4e:	79 e8                	jns    2a38 <str_length+0x18>
    2a50:	88 c1                	mov    %al,%cl
    2a52:	83 e1 e0             	and    $0xffffffe0,%ecx
    2a55:	80 f9 c0             	cmp    $0xc0,%cl
    2a58:	74 28                	je     2a82 <str_length+0x62>
    2a5a:	88 c1                	mov    %al,%cl
    2a5c:	83 e1 f0             	and    $0xfffffff0,%ecx
    2a5f:	80 f9 e0             	cmp    $0xe0,%cl
    2a62:	74 7d                	je     2ae1 <str_length+0xc1>
    2a64:	88 c1                	mov    %al,%cl
    2a66:	83 e1 f8             	and    $0xfffffff8,%ecx
    2a69:	80 f9 f0             	cmp    $0xf0,%cl
    2a6c:	75 ce                	jne    2a3c <str_length+0x1c>
    2a6e:	b1 07                	mov    $0x7,%cl
    2a70:	be 03 00 00 00       	mov    $0x3,%esi
    2a75:	eb 12                	jmp    2a89 <str_length+0x69>
    2a77:	8b 45 f0             	mov    -0x10(%ebp),%eax
    2a7a:	83 c4 0c             	add    $0xc,%esp
    2a7d:	5b                   	pop    %ebx
    2a7e:	5e                   	pop    %esi
    2a7f:	5f                   	pop    %edi
    2a80:	5d                   	pop    %ebp
    2a81:	c3                   	ret    
    2a82:	b1 1f                	mov    $0x1f,%cl
    2a84:	be 01 00 00 00       	mov    $0x1,%esi
    2a89:	21 c8                	and    %ecx,%eax
    2a8b:	8a 0c 13             	mov    (%ebx,%edx,1),%cl
    2a8e:	83 c7 02             	add    $0x2,%edi
    2a91:	88 4d eb             	mov    %cl,-0x15(%ebp)
    2a94:	83 e1 c0             	and    $0xffffffc0,%ecx
    2a97:	25 ff 00 00 00       	and    $0xff,%eax
    2a9c:	89 7d ec             	mov    %edi,-0x14(%ebp)
    2a9f:	80 f9 80             	cmp    $0x80,%cl
    2aa2:	75 46                	jne    2aea <str_length+0xca>
    2aa4:	8d 3c 32             	lea    (%edx,%esi,1),%edi
    2aa7:	8a 4d eb             	mov    -0x15(%ebp),%cl
    2aaa:	8b 55 ec             	mov    -0x14(%ebp),%edx
    2aad:	89 5d ec             	mov    %ebx,-0x14(%ebp)
    2ab0:	89 c6                	mov    %eax,%esi
    2ab2:	89 c8                	mov    %ecx,%eax
    2ab4:	c1 e6 06             	shl    $0x6,%esi
    2ab7:	83 e0 3f             	and    $0x3f,%eax
    2aba:	09 f0                	or     %esi,%eax
    2abc:	8b 5d ec             	mov    -0x14(%ebp),%ebx
    2abf:	39 fa                	cmp    %edi,%edx
    2ac1:	0f 84 71 ff ff ff    	je     2a38 <str_length+0x18>
    2ac7:	8a 0c 13             	mov    (%ebx,%edx,1),%cl
    2aca:	be c0 ff ff ff       	mov    $0xffffffc0,%esi
    2acf:	21 ce                	and    %ecx,%esi
    2ad1:	42                   	inc    %edx
    2ad2:	89 f3                	mov    %esi,%ebx
    2ad4:	80 fb 80             	cmp    $0x80,%bl
    2ad7:	74 d7                	je     2ab0 <str_length+0x90>
    2ad9:	8b 5d ec             	mov    -0x14(%ebp),%ebx
    2adc:	e9 5b ff ff ff       	jmp    2a3c <str_length+0x1c>
    2ae1:	b1 0f                	mov    $0xf,%cl
    2ae3:	be 02 00 00 00       	mov    $0x2,%esi
    2ae8:	eb 9f                	jmp    2a89 <str_length+0x69>
    2aea:	89 fa                	mov    %edi,%edx
    2aec:	e9 4b ff ff ff       	jmp    2a3c <str_length+0x1c>
    2af1:	eb 0d                	jmp    2b00 <wstr_length>
    2af3:	90                   	nop
    2af4:	90                   	nop
    2af5:	90                   	nop
    2af6:	90                   	nop
    2af7:	90                   	nop
    2af8:	90                   	nop
    2af9:	90                   	nop
    2afa:	90                   	nop
    2afb:	90                   	nop
    2afc:	90                   	nop
    2afd:	90                   	nop
    2afe:	90                   	nop
    2aff:	90                   	nop

00002b00 <wstr_length>:
    2b00:	55                   	push   %ebp
    2b01:	31 c0                	xor    %eax,%eax
    2b03:	89 e5                	mov    %esp,%ebp
    2b05:	8b 55 08             	mov    0x8(%ebp),%edx
    2b08:	8b 0a                	mov    (%edx),%ecx
    2b0a:	85 c9                	test   %ecx,%ecx
    2b0c:	74 0a                	je     2b18 <wstr_length+0x18>
    2b0e:	66 90                	xchg   %ax,%ax
    2b10:	40                   	inc    %eax
    2b11:	8b 0c 82             	mov    (%edx,%eax,4),%ecx
    2b14:	85 c9                	test   %ecx,%ecx
    2b16:	75 f8                	jne    2b10 <wstr_length+0x10>
    2b18:	5d                   	pop    %ebp
    2b19:	c3                   	ret    
    2b1a:	8d b6 00 00 00 00    	lea    0x0(%esi),%esi

00002b20 <str_nlength>:
    2b20:	55                   	push   %ebp
    2b21:	89 e5                	mov    %esp,%ebp
    2b23:	57                   	push   %edi
    2b24:	56                   	push   %esi
    2b25:	53                   	push   %ebx
    2b26:	57                   	push   %edi
    2b27:	c7 45 f0 00 00 00 00 	movl   $0x0,-0x10(%ebp)
    2b2e:	8b 45 0c             	mov    0xc(%ebp),%eax
    2b31:	8b 7d 08             	mov    0x8(%ebp),%edi
    2b34:	85 c0                	test   %eax,%eax
    2b36:	74 2c                	je     2b64 <str_nlength+0x44>
    2b38:	bb 01 00 00 00       	mov    $0x1,%ebx
    2b3d:	31 c0                	xor    %eax,%eax
    2b3f:	90                   	nop
    2b40:	8a 04 07             	mov    (%edi,%eax,1),%al
    2b43:	84 c0                	test   %al,%al
    2b45:	78 79                	js     2bc0 <str_nlength+0xa0>
    2b47:	b2 7f                	mov    $0x7f,%dl
    2b49:	31 c9                	xor    %ecx,%ecx
    2b4b:	8d 34 19             	lea    (%ecx,%ebx,1),%esi
    2b4e:	39 75 0c             	cmp    %esi,0xc(%ebp)
    2b51:	73 1d                	jae    2b70 <str_nlength+0x50>
    2b53:	89 d8                	mov    %ebx,%eax
    2b55:	8b 75 f0             	mov    -0x10(%ebp),%esi
    2b58:	8d 58 01             	lea    0x1(%eax),%ebx
    2b5b:	46                   	inc    %esi
    2b5c:	39 5d 0c             	cmp    %ebx,0xc(%ebp)
    2b5f:	89 75 f0             	mov    %esi,-0x10(%ebp)
    2b62:	73 dc                	jae    2b40 <str_nlength+0x20>
    2b64:	8b 45 f0             	mov    -0x10(%ebp),%eax
    2b67:	5b                   	pop    %ebx
    2b68:	5b                   	pop    %ebx
    2b69:	5e                   	pop    %esi
    2b6a:	5f                   	pop    %edi
    2b6b:	5d                   	pop    %ebp
    2b6c:	c3                   	ret    
    2b6d:	8d 76 00             	lea    0x0(%esi),%esi
    2b70:	21 c2                	and    %eax,%edx
    2b72:	81 e2 ff 00 00 00    	and    $0xff,%edx
    2b78:	85 c9                	test   %ecx,%ecx
    2b7a:	0f 84 94 00 00 00    	je     2c14 <str_nlength+0xf4>
    2b80:	8a 0c 1f             	mov    (%edi,%ebx,1),%cl
    2b83:	8d 43 01             	lea    0x1(%ebx),%eax
    2b86:	88 cb                	mov    %cl,%bl
    2b88:	83 e3 c0             	and    $0xffffffc0,%ebx
    2b8b:	80 fb 80             	cmp    $0x80,%bl
    2b8e:	74 16                	je     2ba6 <str_nlength+0x86>
    2b90:	eb 5e                	jmp    2bf0 <str_nlength+0xd0>
    2b92:	8d b6 00 00 00 00    	lea    0x0(%esi),%esi
    2b98:	8a 0c 07             	mov    (%edi,%eax,1),%cl
    2b9b:	40                   	inc    %eax
    2b9c:	88 cb                	mov    %cl,%bl
    2b9e:	83 e3 c0             	and    $0xffffffc0,%ebx
    2ba1:	80 fb 80             	cmp    $0x80,%bl
    2ba4:	75 4a                	jne    2bf0 <str_nlength+0xd0>
    2ba6:	89 d3                	mov    %edx,%ebx
    2ba8:	89 ca                	mov    %ecx,%edx
    2baa:	c1 e3 06             	shl    $0x6,%ebx
    2bad:	83 e2 3f             	and    $0x3f,%edx
    2bb0:	09 da                	or     %ebx,%edx
    2bb2:	39 c6                	cmp    %eax,%esi
    2bb4:	75 e2                	jne    2b98 <str_nlength+0x78>
    2bb6:	85 d2                	test   %edx,%edx
    2bb8:	75 9b                	jne    2b55 <str_nlength+0x35>
    2bba:	eb a8                	jmp    2b64 <str_nlength+0x44>
    2bbc:	8d 74 26 00          	lea    0x0(%esi,%eiz,1),%esi
    2bc0:	88 c2                	mov    %al,%dl
    2bc2:	83 e2 e0             	and    $0xffffffe0,%edx
    2bc5:	80 fa c0             	cmp    $0xc0,%dl
    2bc8:	74 2e                	je     2bf8 <str_nlength+0xd8>
    2bca:	88 c2                	mov    %al,%dl
    2bcc:	83 e2 f0             	and    $0xfffffff0,%edx
    2bcf:	80 fa e0             	cmp    $0xe0,%dl
    2bd2:	74 34                	je     2c08 <str_nlength+0xe8>
    2bd4:	88 c2                	mov    %al,%dl
    2bd6:	83 e2 f8             	and    $0xfffffff8,%edx
    2bd9:	80 fa f0             	cmp    $0xf0,%dl
    2bdc:	0f 85 71 ff ff ff    	jne    2b53 <str_nlength+0x33>
    2be2:	b2 07                	mov    $0x7,%dl
    2be4:	b9 03 00 00 00       	mov    $0x3,%ecx
    2be9:	e9 5d ff ff ff       	jmp    2b4b <str_nlength+0x2b>
    2bee:	66 90                	xchg   %ax,%ax
    2bf0:	89 c3                	mov    %eax,%ebx
    2bf2:	e9 5c ff ff ff       	jmp    2b53 <str_nlength+0x33>
    2bf7:	90                   	nop
    2bf8:	b2 1f                	mov    $0x1f,%dl
    2bfa:	b9 01 00 00 00       	mov    $0x1,%ecx
    2bff:	e9 47 ff ff ff       	jmp    2b4b <str_nlength+0x2b>
    2c04:	8d 74 26 00          	lea    0x0(%esi,%eiz,1),%esi
    2c08:	b2 0f                	mov    $0xf,%dl
    2c0a:	b9 02 00 00 00       	mov    $0x2,%ecx
    2c0f:	e9 37 ff ff ff       	jmp    2b4b <str_nlength+0x2b>
    2c14:	89 d8                	mov    %ebx,%eax
    2c16:	eb 9e                	jmp    2bb6 <str_nlength+0x96>
    2c18:	90                   	nop
    2c19:	8d b4 26 00 00 00 00 	lea    0x0(%esi,%eiz,1),%esi

00002c20 <wstr_nlength>:
    2c20:	55                   	push   %ebp
    2c21:	31 c0                	xor    %eax,%eax
    2c23:	89 e5                	mov    %esp,%ebp
    2c25:	53                   	push   %ebx
    2c26:	8b 5d 0c             	mov    0xc(%ebp),%ebx
    2c29:	8b 4d 08             	mov    0x8(%ebp),%ecx
    2c2c:	83 e3 fc             	and    $0xfffffffc,%ebx
    2c2f:	74 22                	je     2c53 <wstr_nlength+0x33>
    2c31:	8b 11                	mov    (%ecx),%edx
    2c33:	85 d2                	test   %edx,%edx
    2c35:	75 10                	jne    2c47 <wstr_nlength+0x27>
    2c37:	eb 1a                	jmp    2c53 <wstr_nlength+0x33>
    2c39:	8d b4 26 00 00 00 00 	lea    0x0(%esi,%eiz,1),%esi
    2c40:	8b 14 81             	mov    (%ecx,%eax,4),%edx
    2c43:	85 d2                	test   %edx,%edx
    2c45:	74 0c                	je     2c53 <wstr_nlength+0x33>
    2c47:	40                   	inc    %eax
    2c48:	8d 14 85 00 00 00 00 	lea    0x0(,%eax,4),%edx
    2c4f:	39 da                	cmp    %ebx,%edx
    2c51:	72 ed                	jb     2c40 <wstr_nlength+0x20>
    2c53:	5b                   	pop    %ebx
    2c54:	5d                   	pop    %ebp
    2c55:	c3                   	ret    
    2c56:	8d 76 00             	lea    0x0(%esi),%esi
    2c59:	8d bc 27 00 00 00 00 	lea    0x0(%edi,%eiz,1),%edi

00002c60 <chr_width>:
    2c60:	55                   	push   %ebp
    2c61:	b8 01 00 00 00       	mov    $0x1,%eax
    2c66:	89 e5                	mov    %esp,%ebp
    2c68:	5d                   	pop    %ebp
    2c69:	c3                   	ret    
    2c6a:	8d b6 00 00 00 00    	lea    0x0(%esi),%esi

00002c70 <str_width>:
    2c70:	55                   	push   %ebp
    2c71:	89 e5                	mov    %esp,%ebp
    2c73:	57                   	push   %edi
    2c74:	56                   	push   %esi
    2c75:	53                   	push   %ebx
    2c76:	83 ec 0c             	sub    $0xc,%esp
    2c79:	31 ff                	xor    %edi,%edi
    2c7b:	8b 5d 08             	mov    0x8(%ebp),%ebx
    2c7e:	c7 45 f0 00 00 00 00 	movl   $0x0,-0x10(%ebp)
    2c85:	eb 0e                	jmp    2c95 <str_width+0x25>
    2c87:	90                   	nop
    2c88:	85 c0                	test   %eax,%eax
    2c8a:	74 3b                	je     2cc7 <str_width+0x57>
    2c8c:	8b 4d f0             	mov    -0x10(%ebp),%ecx
    2c8f:	89 d7                	mov    %edx,%edi
    2c91:	41                   	inc    %ecx
    2c92:	89 4d f0             	mov    %ecx,-0x10(%ebp)
    2c95:	0f be 04 3b          	movsbl (%ebx,%edi,1),%eax
    2c99:	8d 57 01             	lea    0x1(%edi),%edx
    2c9c:	84 c0                	test   %al,%al
    2c9e:	79 e8                	jns    2c88 <str_width+0x18>
    2ca0:	88 c1                	mov    %al,%cl
    2ca2:	83 e1 e0             	and    $0xffffffe0,%ecx
    2ca5:	80 f9 c0             	cmp    $0xc0,%cl
    2ca8:	74 28                	je     2cd2 <str_width+0x62>
    2caa:	88 c1                	mov    %al,%cl
    2cac:	83 e1 f0             	and    $0xfffffff0,%ecx
    2caf:	80 f9 e0             	cmp    $0xe0,%cl
    2cb2:	74 7d                	je     2d31 <str_width+0xc1>
    2cb4:	88 c1                	mov    %al,%cl
    2cb6:	83 e1 f8             	and    $0xfffffff8,%ecx
    2cb9:	80 f9 f0             	cmp    $0xf0,%cl
    2cbc:	75 ce                	jne    2c8c <str_width+0x1c>
    2cbe:	b1 07                	mov    $0x7,%cl
    2cc0:	be 03 00 00 00       	mov    $0x3,%esi
    2cc5:	eb 12                	jmp    2cd9 <str_width+0x69>
    2cc7:	8b 45 f0             	mov    -0x10(%ebp),%eax
    2cca:	83 c4 0c             	add    $0xc,%esp
    2ccd:	5b                   	pop    %ebx
    2cce:	5e                   	pop    %esi
    2ccf:	5f                   	pop    %edi
    2cd0:	5d                   	pop    %ebp
    2cd1:	c3                   	ret    
    2cd2:	b1 1f                	mov    $0x1f,%cl
    2cd4:	be 01 00 00 00       	mov    $0x1,%esi
    2cd9:	21 c8                	and    %ecx,%eax
    2cdb:	8a 0c 13             	mov    (%ebx,%edx,1),%cl
    2cde:	83 c7 02             	add    $0x2,%edi
    2ce1:	88 4d eb             	mov    %cl,-0x15(%ebp)
    2ce4:	83 e1 c0             	and    $0xffffffc0,%ecx
    2ce7:	25 ff 00 00 00       	and    $0xff,%eax
    2cec:	89 7d ec             	mov    %edi,-0x14(%ebp)
    2cef:	80 f9 80             	cmp    $0x80,%cl
    2cf2:	75 46                	jne    2d3a <str_width+0xca>
    2cf4:	8d 3c 32             	lea    (%edx,%esi,1),%edi
    2cf7:	8a 4d eb             	mov    -0x15(%ebp),%cl
    2cfa:	8b 55 ec             	mov    -0x14(%ebp),%edx
    2cfd:	89 5d ec             	mov    %ebx,-0x14(%ebp)
    2d00:	89 c6                	mov    %eax,%esi
    2d02:	89 c8                	mov    %ecx,%eax
    2d04:	c1 e6 06             	shl    $0x6,%esi
    2d07:	83 e0 3f             	and    $0x3f,%eax
    2d0a:	09 f0                	or     %esi,%eax
    2d0c:	8b 5d ec             	mov    -0x14(%ebp),%ebx
    2d0f:	39 fa                	cmp    %edi,%edx
    2d11:	0f 84 71 ff ff ff    	je     2c88 <str_width+0x18>
    2d17:	8a 0c 13             	mov    (%ebx,%edx,1),%cl
    2d1a:	be c0 ff ff ff       	mov    $0xffffffc0,%esi
    2d1f:	21 ce                	and    %ecx,%esi
    2d21:	42                   	inc    %edx
    2d22:	89 f3                	mov    %esi,%ebx
    2d24:	80 fb 80             	cmp    $0x80,%bl
    2d27:	74 d7                	je     2d00 <str_width+0x90>
    2d29:	8b 5d ec             	mov    -0x14(%ebp),%ebx
    2d2c:	e9 5b ff ff ff       	jmp    2c8c <str_width+0x1c>
    2d31:	b1 0f                	mov    $0xf,%cl
    2d33:	be 02 00 00 00       	mov    $0x2,%esi
    2d38:	eb 9f                	jmp    2cd9 <str_width+0x69>
    2d3a:	89 fa                	mov    %edi,%edx
    2d3c:	e9 4b ff ff ff       	jmp    2c8c <str_width+0x1c>
    2d41:	eb 0d                	jmp    2d50 <ascii_check>
    2d43:	90                   	nop
    2d44:	90                   	nop
    2d45:	90                   	nop
    2d46:	90                   	nop
    2d47:	90                   	nop
    2d48:	90                   	nop
    2d49:	90                   	nop
    2d4a:	90                   	nop
    2d4b:	90                   	nop
    2d4c:	90                   	nop
    2d4d:	90                   	nop
    2d4e:	90                   	nop
    2d4f:	90                   	nop

00002d50 <ascii_check>:
    2d50:	55                   	push   %ebp
    2d51:	89 e5                	mov    %esp,%ebp
    2d53:	83 7d 08 7f          	cmpl   $0x7f,0x8(%ebp)
    2d57:	5d                   	pop    %ebp
    2d58:	0f 96 c0             	setbe  %al
    2d5b:	c3                   	ret    
    2d5c:	8d 74 26 00          	lea    0x0(%esi,%eiz,1),%esi

00002d60 <chr_check>:
    2d60:	55                   	push   %ebp
    2d61:	89 e5                	mov    %esp,%ebp
    2d63:	81 7d 08 ff ff 10 00 	cmpl   $0x10ffff,0x8(%ebp)
    2d6a:	5d                   	pop    %ebp
    2d6b:	0f 96 c0             	setbe  %al
    2d6e:	c3                   	ret    
    2d6f:	90                   	nop

00002d70 <str_cmp>:
    2d70:	55                   	push   %ebp
    2d71:	31 c9                	xor    %ecx,%ecx
    2d73:	89 e5                	mov    %esp,%ebp
    2d75:	57                   	push   %edi
    2d76:	56                   	push   %esi
    2d77:	31 f6                	xor    %esi,%esi
    2d79:	53                   	push   %ebx
    2d7a:	89 f7                	mov    %esi,%edi
    2d7c:	83 ec 0c             	sub    $0xc,%esp
    2d7f:	eb 39                	jmp    2dba <str_cmp+0x4a>
    2d81:	8d b4 26 00 00 00 00 	lea    0x0(%esi,%eiz,1),%esi
    2d88:	89 f1                	mov    %esi,%ecx
    2d8a:	8b 45 0c             	mov    0xc(%ebp),%eax
    2d8d:	8d 77 01             	lea    0x1(%edi),%esi
    2d90:	8a 1c 38             	mov    (%eax,%edi,1),%bl
    2d93:	84 db                	test   %bl,%bl
    2d95:	78 69                	js     2e00 <str_cmp+0x90>
    2d97:	0f be c3             	movsbl %bl,%eax
    2d9a:	89 f7                	mov    %esi,%edi
    2d9c:	39 c2                	cmp    %eax,%edx
    2d9e:	0f 8c 92 00 00 00    	jl     2e36 <str_cmp+0xc6>
    2da4:	0f 8f a2 01 00 00    	jg     2f4c <str_cmp+0x1dc>
    2daa:	85 c0                	test   %eax,%eax
    2dac:	0f 84 a7 01 00 00    	je     2f59 <str_cmp+0x1e9>
    2db2:	85 d2                	test   %edx,%edx
    2db4:	0f 84 9f 01 00 00    	je     2f59 <str_cmp+0x1e9>
    2dba:	8b 45 08             	mov    0x8(%ebp),%eax
    2dbd:	8d 71 01             	lea    0x1(%ecx),%esi
    2dc0:	0f be 14 08          	movsbl (%eax,%ecx,1),%edx
    2dc4:	84 d2                	test   %dl,%dl
    2dc6:	79 c0                	jns    2d88 <str_cmp+0x18>
    2dc8:	88 d0                	mov    %dl,%al
    2dca:	83 e0 e0             	and    $0xffffffe0,%eax
    2dcd:	3c c0                	cmp    $0xc0,%al
    2dcf:	74 70                	je     2e41 <str_cmp+0xd1>
    2dd1:	88 d0                	mov    %dl,%al
    2dd3:	83 e0 f0             	and    $0xfffffff0,%eax
    2dd6:	3c e0                	cmp    $0xe0,%al
    2dd8:	0f 84 52 01 00 00    	je     2f30 <str_cmp+0x1c0>
    2dde:	88 d0                	mov    %dl,%al
    2de0:	83 e0 f8             	and    $0xfffffff8,%eax
    2de3:	3c f0                	cmp    $0xf0,%al
    2de5:	0f 84 86 01 00 00    	je     2f71 <str_cmp+0x201>
    2deb:	8b 45 0c             	mov    0xc(%ebp),%eax
    2dee:	89 f1                	mov    %esi,%ecx
    2df0:	ba 3f 00 00 00       	mov    $0x3f,%edx
    2df5:	8d 77 01             	lea    0x1(%edi),%esi
    2df8:	8a 1c 38             	mov    (%eax,%edi,1),%bl
    2dfb:	84 db                	test   %bl,%bl
    2dfd:	79 98                	jns    2d97 <str_cmp+0x27>
    2dff:	90                   	nop
    2e00:	88 d8                	mov    %bl,%al
    2e02:	83 e0 e0             	and    $0xffffffe0,%eax
    2e05:	3c c0                	cmp    $0xc0,%al
    2e07:	0f 84 a0 00 00 00    	je     2ead <str_cmp+0x13d>
    2e0d:	88 d8                	mov    %bl,%al
    2e0f:	83 e0 f0             	and    $0xfffffff0,%eax
    2e12:	3c e0                	cmp    $0xe0,%al
    2e14:	0f 84 24 01 00 00    	je     2f3e <str_cmp+0x1ce>
    2e1a:	88 d8                	mov    %bl,%al
    2e1c:	83 e0 f8             	and    $0xfffffff8,%eax
    2e1f:	3c f0                	cmp    $0xf0,%al
    2e21:	0f 84 3c 01 00 00    	je     2f63 <str_cmp+0x1f3>
    2e27:	b8 3f 00 00 00       	mov    $0x3f,%eax
    2e2c:	89 f7                	mov    %esi,%edi
    2e2e:	39 c2                	cmp    %eax,%edx
    2e30:	0f 8d 6e ff ff ff    	jge    2da4 <str_cmp+0x34>
    2e36:	83 c4 0c             	add    $0xc,%esp
    2e39:	83 c8 ff             	or     $0xffffffff,%eax
    2e3c:	5b                   	pop    %ebx
    2e3d:	5e                   	pop    %esi
    2e3e:	5f                   	pop    %edi
    2e3f:	5d                   	pop    %ebp
    2e40:	c3                   	ret    
    2e41:	b0 1f                	mov    $0x1f,%al
    2e43:	c7 45 ec 01 00 00 00 	movl   $0x1,-0x14(%ebp)
    2e4a:	8b 5d 08             	mov    0x8(%ebp),%ebx
    2e4d:	21 c2                	and    %eax,%edx
    2e4f:	81 e2 ff 00 00 00    	and    $0xff,%edx
    2e55:	83 c1 02             	add    $0x2,%ecx
    2e58:	8a 04 33             	mov    (%ebx,%esi,1),%al
    2e5b:	88 c3                	mov    %al,%bl
    2e5d:	83 e3 c0             	and    $0xffffffc0,%ebx
    2e60:	80 fb 80             	cmp    $0x80,%bl
    2e63:	0f 85 20 01 00 00    	jne    2f89 <str_cmp+0x219>
    2e69:	8b 5d ec             	mov    -0x14(%ebp),%ebx
    2e6c:	89 7d f0             	mov    %edi,-0x10(%ebp)
    2e6f:	01 de                	add    %ebx,%esi
    2e71:	8b 7d 08             	mov    0x8(%ebp),%edi
    2e74:	eb 10                	jmp    2e86 <str_cmp+0x116>
    2e76:	66 90                	xchg   %ax,%ax
    2e78:	8a 04 0f             	mov    (%edi,%ecx,1),%al
    2e7b:	41                   	inc    %ecx
    2e7c:	88 c3                	mov    %al,%bl
    2e7e:	83 e3 c0             	and    $0xffffffc0,%ebx
    2e81:	80 fb 80             	cmp    $0x80,%bl
    2e84:	75 1a                	jne    2ea0 <str_cmp+0x130>
    2e86:	89 d3                	mov    %edx,%ebx
    2e88:	89 c2                	mov    %eax,%edx
    2e8a:	c1 e3 06             	shl    $0x6,%ebx
    2e8d:	83 e2 3f             	and    $0x3f,%edx
    2e90:	09 da                	or     %ebx,%edx
    2e92:	39 f1                	cmp    %esi,%ecx
    2e94:	75 e2                	jne    2e78 <str_cmp+0x108>
    2e96:	8b 7d f0             	mov    -0x10(%ebp),%edi
    2e99:	e9 ec fe ff ff       	jmp    2d8a <str_cmp+0x1a>
    2e9e:	66 90                	xchg   %ax,%ax
    2ea0:	8b 7d f0             	mov    -0x10(%ebp),%edi
    2ea3:	ba 3f 00 00 00       	mov    $0x3f,%edx
    2ea8:	e9 dd fe ff ff       	jmp    2d8a <str_cmp+0x1a>
    2ead:	b0 1f                	mov    $0x1f,%al
    2eaf:	c7 45 ec 01 00 00 00 	movl   $0x1,-0x14(%ebp)
    2eb6:	21 c3                	and    %eax,%ebx
    2eb8:	31 c0                	xor    %eax,%eax
    2eba:	88 d8                	mov    %bl,%al
    2ebc:	8b 5d 0c             	mov    0xc(%ebp),%ebx
    2ebf:	83 c7 02             	add    $0x2,%edi
    2ec2:	8a 1c 33             	mov    (%ebx,%esi,1),%bl
    2ec5:	88 5d eb             	mov    %bl,-0x15(%ebp)
    2ec8:	83 e3 c0             	and    $0xffffffc0,%ebx
    2ecb:	80 fb 80             	cmp    $0x80,%bl
    2ece:	0f 85 ab 00 00 00    	jne    2f7f <str_cmp+0x20f>
    2ed4:	8b 5d ec             	mov    -0x14(%ebp),%ebx
    2ed7:	89 4d f0             	mov    %ecx,-0x10(%ebp)
    2eda:	01 de                	add    %ebx,%esi
    2edc:	89 55 ec             	mov    %edx,-0x14(%ebp)
    2edf:	89 f1                	mov    %esi,%ecx
    2ee1:	8a 5d eb             	mov    -0x15(%ebp),%bl
    2ee4:	8b 75 0c             	mov    0xc(%ebp),%esi
    2ee7:	eb 15                	jmp    2efe <str_cmp+0x18e>
    2ee9:	8d b4 26 00 00 00 00 	lea    0x0(%esi,%eiz,1),%esi
    2ef0:	8a 1c 3e             	mov    (%esi,%edi,1),%bl
    2ef3:	47                   	inc    %edi
    2ef4:	88 da                	mov    %bl,%dl
    2ef6:	83 e2 c0             	and    $0xffffffc0,%edx
    2ef9:	80 fa 80             	cmp    $0x80,%dl
    2efc:	75 22                	jne    2f20 <str_cmp+0x1b0>
    2efe:	89 c2                	mov    %eax,%edx
    2f00:	89 d8                	mov    %ebx,%eax
    2f02:	c1 e2 06             	shl    $0x6,%edx
    2f05:	83 e0 3f             	and    $0x3f,%eax
    2f08:	09 d0                	or     %edx,%eax
    2f0a:	39 cf                	cmp    %ecx,%edi
    2f0c:	75 e2                	jne    2ef0 <str_cmp+0x180>
    2f0e:	8b 4d f0             	mov    -0x10(%ebp),%ecx
    2f11:	8b 55 ec             	mov    -0x14(%ebp),%edx
    2f14:	e9 83 fe ff ff       	jmp    2d9c <str_cmp+0x2c>
    2f19:	8d b4 26 00 00 00 00 	lea    0x0(%esi,%eiz,1),%esi
    2f20:	8b 4d f0             	mov    -0x10(%ebp),%ecx
    2f23:	8b 55 ec             	mov    -0x14(%ebp),%edx
    2f26:	b8 3f 00 00 00       	mov    $0x3f,%eax
    2f2b:	e9 6c fe ff ff       	jmp    2d9c <str_cmp+0x2c>
    2f30:	b0 0f                	mov    $0xf,%al
    2f32:	c7 45 ec 02 00 00 00 	movl   $0x2,-0x14(%ebp)
    2f39:	e9 0c ff ff ff       	jmp    2e4a <str_cmp+0xda>
    2f3e:	b0 0f                	mov    $0xf,%al
    2f40:	c7 45 ec 02 00 00 00 	movl   $0x2,-0x14(%ebp)
    2f47:	e9 6a ff ff ff       	jmp    2eb6 <str_cmp+0x146>
    2f4c:	83 c4 0c             	add    $0xc,%esp
    2f4f:	b8 01 00 00 00       	mov    $0x1,%eax
    2f54:	5b                   	pop    %ebx
    2f55:	5e                   	pop    %esi
    2f56:	5f                   	pop    %edi
    2f57:	5d                   	pop    %ebp
    2f58:	c3                   	ret    
    2f59:	83 c4 0c             	add    $0xc,%esp
    2f5c:	31 c0                	xor    %eax,%eax
    2f5e:	5b                   	pop    %ebx
    2f5f:	5e                   	pop    %esi
    2f60:	5f                   	pop    %edi
    2f61:	5d                   	pop    %ebp
    2f62:	c3                   	ret    
    2f63:	b0 07                	mov    $0x7,%al
    2f65:	c7 45 ec 03 00 00 00 	movl   $0x3,-0x14(%ebp)
    2f6c:	e9 45 ff ff ff       	jmp    2eb6 <str_cmp+0x146>
    2f71:	b0 07                	mov    $0x7,%al
    2f73:	c7 45 ec 03 00 00 00 	movl   $0x3,-0x14(%ebp)
    2f7a:	e9 cb fe ff ff       	jmp    2e4a <str_cmp+0xda>
    2f7f:	b8 3f 00 00 00       	mov    $0x3f,%eax
    2f84:	e9 13 fe ff ff       	jmp    2d9c <str_cmp+0x2c>
    2f89:	ba 3f 00 00 00       	mov    $0x3f,%edx
    2f8e:	e9 f7 fd ff ff       	jmp    2d8a <str_cmp+0x1a>
    2f93:	8d b6 00 00 00 00    	lea    0x0(%esi),%esi
    2f99:	8d bc 27 00 00 00 00 	lea    0x0(%edi,%eiz,1),%edi

00002fa0 <str_lcmp>:
    2fa0:	55                   	push   %ebp
    2fa1:	89 e5                	mov    %esp,%ebp
    2fa3:	57                   	push   %edi
    2fa4:	56                   	push   %esi
    2fa5:	53                   	push   %ebx
    2fa6:	83 ec 10             	sub    $0x10,%esp
    2fa9:	8b 75 10             	mov    0x10(%ebp),%esi
    2fac:	85 f6                	test   %esi,%esi
    2fae:	0f 84 ed 01 00 00    	je     31a1 <str_lcmp+0x201>
    2fb4:	31 ff                	xor    %edi,%edi
    2fb6:	31 f6                	xor    %esi,%esi
    2fb8:	c7 45 f0 00 00 00 00 	movl   $0x0,-0x10(%ebp)
    2fbf:	eb 4e                	jmp    300f <str_lcmp+0x6f>
    2fc1:	8d b4 26 00 00 00 00 	lea    0x0(%esi,%eiz,1),%esi
    2fc8:	89 de                	mov    %ebx,%esi
    2fca:	8b 4d 0c             	mov    0xc(%ebp),%ecx
    2fcd:	8d 5f 01             	lea    0x1(%edi),%ebx
    2fd0:	0f be 04 39          	movsbl (%ecx,%edi,1),%eax
    2fd4:	84 c0                	test   %al,%al
    2fd6:	0f 88 7c 00 00 00    	js     3058 <str_lcmp+0xb8>
    2fdc:	89 df                	mov    %ebx,%edi
    2fde:	39 c2                	cmp    %eax,%edx
    2fe0:	0f 8c ab 00 00 00    	jl     3091 <str_lcmp+0xf1>
    2fe6:	0f 8f db 01 00 00    	jg     31c7 <str_lcmp+0x227>
    2fec:	85 c0                	test   %eax,%eax
    2fee:	0f 84 ad 01 00 00    	je     31a1 <str_lcmp+0x201>
    2ff4:	85 d2                	test   %edx,%edx
    2ff6:	0f 84 a5 01 00 00    	je     31a1 <str_lcmp+0x201>
    2ffc:	8b 5d f0             	mov    -0x10(%ebp),%ebx
    2fff:	8b 45 10             	mov    0x10(%ebp),%eax
    3002:	43                   	inc    %ebx
    3003:	89 5d f0             	mov    %ebx,-0x10(%ebp)
    3006:	39 45 f0             	cmp    %eax,-0x10(%ebp)
    3009:	0f 84 92 01 00 00    	je     31a1 <str_lcmp+0x201>
    300f:	8b 45 08             	mov    0x8(%ebp),%eax
    3012:	8d 5e 01             	lea    0x1(%esi),%ebx
    3015:	0f be 14 30          	movsbl (%eax,%esi,1),%edx
    3019:	84 d2                	test   %dl,%dl
    301b:	79 ab                	jns    2fc8 <str_lcmp+0x28>
    301d:	88 d0                	mov    %dl,%al
    301f:	83 e0 e0             	and    $0xffffffe0,%eax
    3022:	3c c0                	cmp    $0xc0,%al
    3024:	74 76                	je     309c <str_lcmp+0xfc>
    3026:	88 d0                	mov    %dl,%al
    3028:	83 e0 f0             	and    $0xfffffff0,%eax
    302b:	3c e0                	cmp    $0xe0,%al
    302d:	0f 84 60 01 00 00    	je     3193 <str_lcmp+0x1f3>
    3033:	88 d0                	mov    %dl,%al
    3035:	83 e0 f8             	and    $0xfffffff8,%eax
    3038:	3c f0                	cmp    $0xf0,%al
    303a:	0f 84 6b 01 00 00    	je     31ab <str_lcmp+0x20b>
    3040:	8b 4d 0c             	mov    0xc(%ebp),%ecx
    3043:	89 de                	mov    %ebx,%esi
    3045:	ba 3f 00 00 00       	mov    $0x3f,%edx
    304a:	8d 5f 01             	lea    0x1(%edi),%ebx
    304d:	0f be 04 39          	movsbl (%ecx,%edi,1),%eax
    3051:	84 c0                	test   %al,%al
    3053:	79 87                	jns    2fdc <str_lcmp+0x3c>
    3055:	8d 76 00             	lea    0x0(%esi),%esi
    3058:	88 c1                	mov    %al,%cl
    305a:	83 e1 e0             	and    $0xffffffe0,%ecx
    305d:	80 f9 c0             	cmp    $0xc0,%cl
    3060:	0f 84 a7 00 00 00    	je     310d <str_lcmp+0x16d>
    3066:	88 c1                	mov    %al,%cl
    3068:	83 e1 f0             	and    $0xfffffff0,%ecx
    306b:	80 f9 e0             	cmp    $0xe0,%cl
    306e:	0f 84 14 01 00 00    	je     3188 <str_lcmp+0x1e8>
    3074:	88 c1                	mov    %al,%cl
    3076:	83 e1 f8             	and    $0xfffffff8,%ecx
    3079:	80 f9 f0             	cmp    $0xf0,%cl
    307c:	0f 84 37 01 00 00    	je     31b9 <str_lcmp+0x219>
    3082:	b8 3f 00 00 00       	mov    $0x3f,%eax
    3087:	89 df                	mov    %ebx,%edi
    3089:	39 c2                	cmp    %eax,%edx
    308b:	0f 8d 55 ff ff ff    	jge    2fe6 <str_lcmp+0x46>
    3091:	83 c4 10             	add    $0x10,%esp
    3094:	83 c8 ff             	or     $0xffffffff,%eax
    3097:	5b                   	pop    %ebx
    3098:	5e                   	pop    %esi
    3099:	5f                   	pop    %edi
    309a:	5d                   	pop    %ebp
    309b:	c3                   	ret    
    309c:	b0 1f                	mov    $0x1f,%al
    309e:	c7 45 e8 01 00 00 00 	movl   $0x1,-0x18(%ebp)
    30a5:	8b 4d 08             	mov    0x8(%ebp),%ecx
    30a8:	21 c2                	and    %eax,%edx
    30aa:	81 e2 ff 00 00 00    	and    $0xff,%edx
    30b0:	83 c6 02             	add    $0x2,%esi
    30b3:	8a 04 19             	mov    (%ecx,%ebx,1),%al
    30b6:	88 c1                	mov    %al,%cl
    30b8:	83 e1 c0             	and    $0xffffffc0,%ecx
    30bb:	80 f9 80             	cmp    $0x80,%cl
    30be:	0f 85 10 01 00 00    	jne    31d4 <str_lcmp+0x234>
    30c4:	8b 4d e8             	mov    -0x18(%ebp),%ecx
    30c7:	89 7d ec             	mov    %edi,-0x14(%ebp)
    30ca:	01 cb                	add    %ecx,%ebx
    30cc:	8b 7d 08             	mov    0x8(%ebp),%edi
    30cf:	eb 15                	jmp    30e6 <str_lcmp+0x146>
    30d1:	8d b4 26 00 00 00 00 	lea    0x0(%esi,%eiz,1),%esi
    30d8:	8a 04 37             	mov    (%edi,%esi,1),%al
    30db:	46                   	inc    %esi
    30dc:	88 c1                	mov    %al,%cl
    30de:	83 e1 c0             	and    $0xffffffc0,%ecx
    30e1:	80 f9 80             	cmp    $0x80,%cl
    30e4:	75 1a                	jne    3100 <str_lcmp+0x160>
    30e6:	89 d1                	mov    %edx,%ecx
    30e8:	89 c2                	mov    %eax,%edx
    30ea:	c1 e1 06             	shl    $0x6,%ecx
    30ed:	83 e2 3f             	and    $0x3f,%edx
    30f0:	09 ca                	or     %ecx,%edx
    30f2:	39 de                	cmp    %ebx,%esi
    30f4:	75 e2                	jne    30d8 <str_lcmp+0x138>
    30f6:	8b 7d ec             	mov    -0x14(%ebp),%edi
    30f9:	e9 cc fe ff ff       	jmp    2fca <str_lcmp+0x2a>
    30fe:	66 90                	xchg   %ax,%ax
    3100:	8b 7d ec             	mov    -0x14(%ebp),%edi
    3103:	ba 3f 00 00 00       	mov    $0x3f,%edx
    3108:	e9 bd fe ff ff       	jmp    2fca <str_lcmp+0x2a>
    310d:	b1 1f                	mov    $0x1f,%cl
    310f:	c7 45 e8 01 00 00 00 	movl   $0x1,-0x18(%ebp)
    3116:	21 c8                	and    %ecx,%eax
    3118:	8b 4d 0c             	mov    0xc(%ebp),%ecx
    311b:	25 ff 00 00 00       	and    $0xff,%eax
    3120:	83 c7 02             	add    $0x2,%edi
    3123:	8a 0c 19             	mov    (%ecx,%ebx,1),%cl
    3126:	88 4d e7             	mov    %cl,-0x19(%ebp)
    3129:	83 e1 c0             	and    $0xffffffc0,%ecx
    312c:	80 f9 80             	cmp    $0x80,%cl
    312f:	0f 85 a9 00 00 00    	jne    31de <str_lcmp+0x23e>
    3135:	8b 4d e8             	mov    -0x18(%ebp),%ecx
    3138:	89 75 ec             	mov    %esi,-0x14(%ebp)
    313b:	01 cb                	add    %ecx,%ebx
    313d:	89 55 e8             	mov    %edx,-0x18(%ebp)
    3140:	8a 4d e7             	mov    -0x19(%ebp),%cl
    3143:	8b 75 0c             	mov    0xc(%ebp),%esi
    3146:	eb 0e                	jmp    3156 <str_lcmp+0x1b6>
    3148:	8a 0c 3e             	mov    (%esi,%edi,1),%cl
    314b:	47                   	inc    %edi
    314c:	88 ca                	mov    %cl,%dl
    314e:	83 e2 c0             	and    $0xffffffc0,%edx
    3151:	80 fa 80             	cmp    $0x80,%dl
    3154:	75 22                	jne    3178 <str_lcmp+0x1d8>
    3156:	89 c2                	mov    %eax,%edx
    3158:	89 c8                	mov    %ecx,%eax
    315a:	c1 e2 06             	shl    $0x6,%edx
    315d:	83 e0 3f             	and    $0x3f,%eax
    3160:	09 d0                	or     %edx,%eax
    3162:	39 df                	cmp    %ebx,%edi
    3164:	75 e2                	jne    3148 <str_lcmp+0x1a8>
    3166:	8b 75 ec             	mov    -0x14(%ebp),%esi
    3169:	8b 55 e8             	mov    -0x18(%ebp),%edx
    316c:	e9 6d fe ff ff       	jmp    2fde <str_lcmp+0x3e>
    3171:	8d b4 26 00 00 00 00 	lea    0x0(%esi,%eiz,1),%esi
    3178:	8b 75 ec             	mov    -0x14(%ebp),%esi
    317b:	8b 55 e8             	mov    -0x18(%ebp),%edx
    317e:	b8 3f 00 00 00       	mov    $0x3f,%eax
    3183:	e9 56 fe ff ff       	jmp    2fde <str_lcmp+0x3e>
    3188:	b1 0f                	mov    $0xf,%cl
    318a:	c7 45 e8 02 00 00 00 	movl   $0x2,-0x18(%ebp)
    3191:	eb 83                	jmp    3116 <str_lcmp+0x176>
    3193:	b0 0f                	mov    $0xf,%al
    3195:	c7 45 e8 02 00 00 00 	movl   $0x2,-0x18(%ebp)
    319c:	e9 04 ff ff ff       	jmp    30a5 <str_lcmp+0x105>
    31a1:	83 c4 10             	add    $0x10,%esp
    31a4:	31 c0                	xor    %eax,%eax
    31a6:	5b                   	pop    %ebx
    31a7:	5e                   	pop    %esi
    31a8:	5f                   	pop    %edi
    31a9:	5d                   	pop    %ebp
    31aa:	c3                   	ret    
    31ab:	b0 07                	mov    $0x7,%al
    31ad:	c7 45 e8 03 00 00 00 	movl   $0x3,-0x18(%ebp)
    31b4:	e9 ec fe ff ff       	jmp    30a5 <str_lcmp+0x105>
    31b9:	b1 07                	mov    $0x7,%cl
    31bb:	c7 45 e8 03 00 00 00 	movl   $0x3,-0x18(%ebp)
    31c2:	e9 4f ff ff ff       	jmp    3116 <str_lcmp+0x176>
    31c7:	83 c4 10             	add    $0x10,%esp
    31ca:	b8 01 00 00 00       	mov    $0x1,%eax
    31cf:	5b                   	pop    %ebx
    31d0:	5e                   	pop    %esi
    31d1:	5f                   	pop    %edi
    31d2:	5d                   	pop    %ebp
    31d3:	c3                   	ret    
    31d4:	ba 3f 00 00 00       	mov    $0x3f,%edx
    31d9:	e9 ec fd ff ff       	jmp    2fca <str_lcmp+0x2a>
    31de:	b8 3f 00 00 00       	mov    $0x3f,%eax
    31e3:	e9 f6 fd ff ff       	jmp    2fde <str_lcmp+0x3e>
    31e8:	90                   	nop
    31e9:	8d b4 26 00 00 00 00 	lea    0x0(%esi,%eiz,1),%esi

000031f0 <str_test_prefix>:
    31f0:	55                   	push   %ebp
    31f1:	31 c9                	xor    %ecx,%ecx
    31f3:	89 e5                	mov    %esp,%ebp
    31f5:	57                   	push   %edi
    31f6:	56                   	push   %esi
    31f7:	31 f6                	xor    %esi,%esi
    31f9:	53                   	push   %ebx
    31fa:	89 f7                	mov    %esi,%edi
    31fc:	83 ec 0c             	sub    $0xc,%esp
    31ff:	eb 27                	jmp    3228 <str_test_prefix+0x38>
    3201:	8d b4 26 00 00 00 00 	lea    0x0(%esi,%eiz,1),%esi
    3208:	89 f1                	mov    %esi,%ecx
    320a:	8b 45 0c             	mov    0xc(%ebp),%eax
    320d:	8d 77 01             	lea    0x1(%edi),%esi
    3210:	8a 1c 38             	mov    (%eax,%edi,1),%bl
    3213:	84 db                	test   %bl,%bl
    3215:	78 59                	js     3270 <str_test_prefix+0x80>
    3217:	0f be c3             	movsbl %bl,%eax
    321a:	89 f7                	mov    %esi,%edi
    321c:	85 c0                	test   %eax,%eax
    321e:	0f 84 68 01 00 00    	je     338c <str_test_prefix+0x19c>
    3224:	39 c2                	cmp    %eax,%edx
    3226:	75 7a                	jne    32a2 <str_test_prefix+0xb2>
    3228:	8b 45 08             	mov    0x8(%ebp),%eax
    322b:	8d 71 01             	lea    0x1(%ecx),%esi
    322e:	0f be 14 08          	movsbl (%eax,%ecx,1),%edx
    3232:	84 d2                	test   %dl,%dl
    3234:	79 d2                	jns    3208 <str_test_prefix+0x18>
    3236:	88 d0                	mov    %dl,%al
    3238:	83 e0 e0             	and    $0xffffffe0,%eax
    323b:	3c c0                	cmp    $0xc0,%al
    323d:	74 6d                	je     32ac <str_test_prefix+0xbc>
    323f:	88 d0                	mov    %dl,%al
    3241:	83 e0 f0             	and    $0xfffffff0,%eax
    3244:	3c e0                	cmp    $0xe0,%al
    3246:	0f 84 57 01 00 00    	je     33a3 <str_test_prefix+0x1b3>
    324c:	88 d0                	mov    %dl,%al
    324e:	83 e0 f8             	and    $0xfffffff8,%eax
    3251:	3c f0                	cmp    $0xf0,%al
    3253:	0f 84 66 01 00 00    	je     33bf <str_test_prefix+0x1cf>
    3259:	8b 45 0c             	mov    0xc(%ebp),%eax
    325c:	89 f1                	mov    %esi,%ecx
    325e:	ba 3f 00 00 00       	mov    $0x3f,%edx
    3263:	8d 77 01             	lea    0x1(%edi),%esi
    3266:	8a 1c 38             	mov    (%eax,%edi,1),%bl
    3269:	84 db                	test   %bl,%bl
    326b:	79 aa                	jns    3217 <str_test_prefix+0x27>
    326d:	8d 76 00             	lea    0x0(%esi),%esi
    3270:	88 d8                	mov    %bl,%al
    3272:	83 e0 e0             	and    $0xffffffe0,%eax
    3275:	3c c0                	cmp    $0xc0,%al
    3277:	0f 84 a0 00 00 00    	je     331d <str_test_prefix+0x12d>
    327d:	88 d8                	mov    %bl,%al
    327f:	83 e0 f0             	and    $0xfffffff0,%eax
    3282:	3c e0                	cmp    $0xe0,%al
    3284:	0f 84 27 01 00 00    	je     33b1 <str_test_prefix+0x1c1>
    328a:	88 d8                	mov    %bl,%al
    328c:	83 e0 f8             	and    $0xfffffff8,%eax
    328f:	3c f0                	cmp    $0xf0,%al
    3291:	0f 84 36 01 00 00    	je     33cd <str_test_prefix+0x1dd>
    3297:	89 f7                	mov    %esi,%edi
    3299:	b8 3f 00 00 00       	mov    $0x3f,%eax
    329e:	39 c2                	cmp    %eax,%edx
    32a0:	74 86                	je     3228 <str_test_prefix+0x38>
    32a2:	83 c4 0c             	add    $0xc,%esp
    32a5:	31 c0                	xor    %eax,%eax
    32a7:	5b                   	pop    %ebx
    32a8:	5e                   	pop    %esi
    32a9:	5f                   	pop    %edi
    32aa:	5d                   	pop    %ebp
    32ab:	c3                   	ret    
    32ac:	b0 1f                	mov    $0x1f,%al
    32ae:	c7 45 ec 01 00 00 00 	movl   $0x1,-0x14(%ebp)
    32b5:	8b 5d 08             	mov    0x8(%ebp),%ebx
    32b8:	21 c2                	and    %eax,%edx
    32ba:	81 e2 ff 00 00 00    	and    $0xff,%edx
    32c0:	83 c1 02             	add    $0x2,%ecx
    32c3:	8a 04 33             	mov    (%ebx,%esi,1),%al
    32c6:	88 c3                	mov    %al,%bl
    32c8:	83 e3 c0             	and    $0xffffffc0,%ebx
    32cb:	80 fb 80             	cmp    $0x80,%bl
    32ce:	0f 85 07 01 00 00    	jne    33db <str_test_prefix+0x1eb>
    32d4:	8b 5d ec             	mov    -0x14(%ebp),%ebx
    32d7:	89 7d f0             	mov    %edi,-0x10(%ebp)
    32da:	01 de                	add    %ebx,%esi
    32dc:	8b 7d 08             	mov    0x8(%ebp),%edi
    32df:	eb 15                	jmp    32f6 <str_test_prefix+0x106>
    32e1:	8d b4 26 00 00 00 00 	lea    0x0(%esi,%eiz,1),%esi
    32e8:	8a 04 0f             	mov    (%edi,%ecx,1),%al
    32eb:	41                   	inc    %ecx
    32ec:	88 c3                	mov    %al,%bl
    32ee:	83 e3 c0             	and    $0xffffffc0,%ebx
    32f1:	80 fb 80             	cmp    $0x80,%bl
    32f4:	75 1a                	jne    3310 <str_test_prefix+0x120>
    32f6:	89 d3                	mov    %edx,%ebx
    32f8:	89 c2                	mov    %eax,%edx
    32fa:	c1 e3 06             	shl    $0x6,%ebx
    32fd:	83 e2 3f             	and    $0x3f,%edx
    3300:	09 da                	or     %ebx,%edx
    3302:	39 f1                	cmp    %esi,%ecx
    3304:	75 e2                	jne    32e8 <str_test_prefix+0xf8>
    3306:	8b 7d f0             	mov    -0x10(%ebp),%edi
    3309:	e9 fc fe ff ff       	jmp    320a <str_test_prefix+0x1a>
    330e:	66 90                	xchg   %ax,%ax
    3310:	8b 7d f0             	mov    -0x10(%ebp),%edi
    3313:	ba 3f 00 00 00       	mov    $0x3f,%edx
    3318:	e9 ed fe ff ff       	jmp    320a <str_test_prefix+0x1a>
    331d:	b0 1f                	mov    $0x1f,%al
    331f:	c7 45 ec 01 00 00 00 	movl   $0x1,-0x14(%ebp)
    3326:	21 c3                	and    %eax,%ebx
    3328:	31 c0                	xor    %eax,%eax
    332a:	88 d8                	mov    %bl,%al
    332c:	8b 5d 0c             	mov    0xc(%ebp),%ebx
    332f:	83 c7 02             	add    $0x2,%edi
    3332:	8a 1c 33             	mov    (%ebx,%esi,1),%bl
    3335:	88 5d eb             	mov    %bl,-0x15(%ebp)
    3338:	83 e3 c0             	and    $0xffffffc0,%ebx
    333b:	80 fb 80             	cmp    $0x80,%bl
    333e:	0f 85 55 ff ff ff    	jne    3299 <str_test_prefix+0xa9>
    3344:	8b 5d ec             	mov    -0x14(%ebp),%ebx
    3347:	89 4d f0             	mov    %ecx,-0x10(%ebp)
    334a:	01 de                	add    %ebx,%esi
    334c:	89 55 ec             	mov    %edx,-0x14(%ebp)
    334f:	89 f1                	mov    %esi,%ecx
    3351:	8a 5d eb             	mov    -0x15(%ebp),%bl
    3354:	8b 75 0c             	mov    0xc(%ebp),%esi
    3357:	eb 15                	jmp    336e <str_test_prefix+0x17e>
    3359:	8d b4 26 00 00 00 00 	lea    0x0(%esi,%eiz,1),%esi
    3360:	8a 1c 3e             	mov    (%esi,%edi,1),%bl
    3363:	47                   	inc    %edi
    3364:	88 da                	mov    %bl,%dl
    3366:	83 e2 c0             	and    $0xffffffc0,%edx
    3369:	80 fa 80             	cmp    $0x80,%dl
    336c:	75 2a                	jne    3398 <str_test_prefix+0x1a8>
    336e:	89 c2                	mov    %eax,%edx
    3370:	89 d8                	mov    %ebx,%eax
    3372:	c1 e2 06             	shl    $0x6,%edx
    3375:	83 e0 3f             	and    $0x3f,%eax
    3378:	09 d0                	or     %edx,%eax
    337a:	39 cf                	cmp    %ecx,%edi
    337c:	75 e2                	jne    3360 <str_test_prefix+0x170>
    337e:	8b 4d f0             	mov    -0x10(%ebp),%ecx
    3381:	8b 55 ec             	mov    -0x14(%ebp),%edx
    3384:	85 c0                	test   %eax,%eax
    3386:	0f 85 98 fe ff ff    	jne    3224 <str_test_prefix+0x34>
    338c:	83 c4 0c             	add    $0xc,%esp
    338f:	b0 01                	mov    $0x1,%al
    3391:	5b                   	pop    %ebx
    3392:	5e                   	pop    %esi
    3393:	5f                   	pop    %edi
    3394:	5d                   	pop    %ebp
    3395:	c3                   	ret    
    3396:	66 90                	xchg   %ax,%ax
    3398:	8b 4d f0             	mov    -0x10(%ebp),%ecx
    339b:	8b 55 ec             	mov    -0x14(%ebp),%edx
    339e:	e9 f6 fe ff ff       	jmp    3299 <str_test_prefix+0xa9>
    33a3:	b0 0f                	mov    $0xf,%al
    33a5:	c7 45 ec 02 00 00 00 	movl   $0x2,-0x14(%ebp)
    33ac:	e9 04 ff ff ff       	jmp    32b5 <str_test_prefix+0xc5>
    33b1:	b0 0f                	mov    $0xf,%al
    33b3:	c7 45 ec 02 00 00 00 	movl   $0x2,-0x14(%ebp)
    33ba:	e9 67 ff ff ff       	jmp    3326 <str_test_prefix+0x136>
    33bf:	b0 07                	mov    $0x7,%al
    33c1:	c7 45 ec 03 00 00 00 	movl   $0x3,-0x14(%ebp)
    33c8:	e9 e8 fe ff ff       	jmp    32b5 <str_test_prefix+0xc5>
    33cd:	b0 07                	mov    $0x7,%al
    33cf:	c7 45 ec 03 00 00 00 	movl   $0x3,-0x14(%ebp)
    33d6:	e9 4b ff ff ff       	jmp    3326 <str_test_prefix+0x136>
    33db:	ba 3f 00 00 00       	mov    $0x3f,%edx
    33e0:	e9 25 fe ff ff       	jmp    320a <str_test_prefix+0x1a>
    33e5:	8d 74 26 00          	lea    0x0(%esi,%eiz,1),%esi
    33e9:	8d bc 27 00 00 00 00 	lea    0x0(%edi,%eiz,1),%edi

000033f0 <str_cpy>:
    33f0:	55                   	push   %ebp
    33f1:	89 e5                	mov    %esp,%ebp
    33f3:	57                   	push   %edi
    33f4:	56                   	push   %esi
    33f5:	53                   	push   %ebx
    33f6:	83 ec 4c             	sub    $0x4c,%esp
    33f9:	8b 45 0c             	mov    0xc(%ebp),%eax
    33fc:	8b 7d 10             	mov    0x10(%ebp),%edi
    33ff:	85 c0                	test   %eax,%eax
    3401:	0f 84 ae 01 00 00    	je     35b5 <str_cpy+0x1c5>
    3407:	31 f6                	xor    %esi,%esi
    3409:	48                   	dec    %eax
    340a:	c7 45 e4 00 00 00 00 	movl   $0x0,-0x1c(%ebp)
    3411:	89 45 e0             	mov    %eax,-0x20(%ebp)
    3414:	0f be 0c 37          	movsbl (%edi,%esi,1),%ecx
    3418:	8d 56 01             	lea    0x1(%esi),%edx
    341b:	84 c9                	test   %cl,%cl
    341d:	78 5e                	js     347d <str_cpy+0x8d>
    341f:	90                   	nop
    3420:	89 d6                	mov    %edx,%esi
    3422:	85 c9                	test   %ecx,%ecx
    3424:	0f 84 8e 00 00 00    	je     34b8 <str_cpy+0xc8>
    342a:	8b 45 e4             	mov    -0x1c(%ebp),%eax
    342d:	39 45 e0             	cmp    %eax,-0x20(%ebp)
    3430:	0f 86 82 00 00 00    	jbe    34b8 <str_cpy+0xc8>
    3436:	81 f9 ff ff 10 00    	cmp    $0x10ffff,%ecx
    343c:	77 7a                	ja     34b8 <str_cpy+0xc8>
    343e:	f7 c1 80 ff ff ff    	test   $0xffffff80,%ecx
    3444:	0f 85 86 00 00 00    	jne    34d0 <str_cpy+0xe0>
    344a:	8b 45 e4             	mov    -0x1c(%ebp),%eax
    344d:	c6 45 b8 00          	movb   $0x0,-0x48(%ebp)
    3451:	89 45 dc             	mov    %eax,-0x24(%ebp)
    3454:	c6 45 c8 7f          	movb   $0x7f,-0x38(%ebp)
    3458:	8b 45 c8             	mov    -0x38(%ebp),%eax
    345b:	8b 55 08             	mov    0x8(%ebp),%edx
    345e:	21 c1                	and    %eax,%ecx
    3460:	8b 45 b8             	mov    -0x48(%ebp),%eax
    3463:	09 c1                	or     %eax,%ecx
    3465:	8b 45 e4             	mov    -0x1c(%ebp),%eax
    3468:	8b 5d dc             	mov    -0x24(%ebp),%ebx
    346b:	88 0c 02             	mov    %cl,(%edx,%eax,1)
    346e:	43                   	inc    %ebx
    346f:	0f be 0c 37          	movsbl (%edi,%esi,1),%ecx
    3473:	89 5d e4             	mov    %ebx,-0x1c(%ebp)
    3476:	8d 56 01             	lea    0x1(%esi),%edx
    3479:	84 c9                	test   %cl,%cl
    347b:	79 a3                	jns    3420 <str_cpy+0x30>
    347d:	88 c8                	mov    %cl,%al
    347f:	83 e0 e0             	and    $0xffffffe0,%eax
    3482:	3c c0                	cmp    $0xc0,%al
    3484:	0f 84 bd 00 00 00    	je     3547 <str_cpy+0x157>
    348a:	88 c8                	mov    %cl,%al
    348c:	83 e0 f0             	and    $0xfffffff0,%eax
    348f:	3c e0                	cmp    $0xe0,%al
    3491:	0f 84 08 01 00 00    	je     359f <str_cpy+0x1af>
    3497:	88 c8                	mov    %cl,%al
    3499:	83 e0 f8             	and    $0xfffffff8,%eax
    349c:	3c f0                	cmp    $0xf0,%al
    349e:	0f 84 06 01 00 00    	je     35aa <str_cpy+0x1ba>
    34a4:	89 d6                	mov    %edx,%esi
    34a6:	8b 45 e4             	mov    -0x1c(%ebp),%eax
    34a9:	b9 3f 00 00 00       	mov    $0x3f,%ecx
    34ae:	39 45 e0             	cmp    %eax,-0x20(%ebp)
    34b1:	0f 87 7f ff ff ff    	ja     3436 <str_cpy+0x46>
    34b7:	90                   	nop
    34b8:	8b 5d 08             	mov    0x8(%ebp),%ebx
    34bb:	8b 55 e4             	mov    -0x1c(%ebp),%edx
    34be:	c6 04 13 00          	movb   $0x0,(%ebx,%edx,1)
    34c2:	83 c4 4c             	add    $0x4c,%esp
    34c5:	5b                   	pop    %ebx
    34c6:	5e                   	pop    %esi
    34c7:	5f                   	pop    %edi
    34c8:	5d                   	pop    %ebp
    34c9:	c3                   	ret    
    34ca:	8d b6 00 00 00 00    	lea    0x0(%esi),%esi
    34d0:	f7 c1 00 f8 ff ff    	test   $0xfffff800,%ecx
    34d6:	74 60                	je     3538 <str_cpy+0x148>
    34d8:	89 c8                	mov    %ecx,%eax
    34da:	25 00 00 ff ff       	and    $0xffff0000,%eax
    34df:	83 f8 01             	cmp    $0x1,%eax
    34e2:	19 d2                	sbb    %edx,%edx
    34e4:	83 e2 f0             	and    $0xfffffff0,%edx
    34e7:	83 ea 10             	sub    $0x10,%edx
    34ea:	83 f8 01             	cmp    $0x1,%eax
    34ed:	19 db                	sbb    %ebx,%ebx
    34ef:	88 55 b8             	mov    %dl,-0x48(%ebp)
    34f2:	83 e3 08             	and    $0x8,%ebx
    34f5:	83 c3 07             	add    $0x7,%ebx
    34f8:	83 f8 01             	cmp    $0x1,%eax
    34fb:	19 c0                	sbb    %eax,%eax
    34fd:	88 5d c8             	mov    %bl,-0x38(%ebp)
    3500:	83 c0 03             	add    $0x3,%eax
    3503:	8b 55 e4             	mov    -0x1c(%ebp),%edx
    3506:	01 c2                	add    %eax,%edx
    3508:	89 55 dc             	mov    %edx,-0x24(%ebp)
    350b:	39 55 e0             	cmp    %edx,-0x20(%ebp)
    350e:	76 a8                	jbe    34b8 <str_cpy+0xc8>
    3510:	8b 55 08             	mov    0x8(%ebp),%edx
    3513:	8b 5d e4             	mov    -0x1c(%ebp),%ebx
    3516:	8d 1c 1a             	lea    (%edx,%ebx,1),%ebx
    3519:	89 5d d8             	mov    %ebx,-0x28(%ebp)
    351c:	8d 74 26 00          	lea    0x0(%esi,%eiz,1),%esi
    3520:	89 ca                	mov    %ecx,%edx
    3522:	c1 e9 06             	shr    $0x6,%ecx
    3525:	83 e2 3f             	and    $0x3f,%edx
    3528:	80 ca 80             	or     $0x80,%dl
    352b:	88 14 03             	mov    %dl,(%ebx,%eax,1)
    352e:	48                   	dec    %eax
    352f:	75 ef                	jne    3520 <str_cpy+0x130>
    3531:	e9 22 ff ff ff       	jmp    3458 <str_cpy+0x68>
    3536:	66 90                	xchg   %ax,%ax
    3538:	c6 45 b8 c0          	movb   $0xc0,-0x48(%ebp)
    353c:	c6 45 c8 1f          	movb   $0x1f,-0x38(%ebp)
    3540:	b8 01 00 00 00       	mov    $0x1,%eax
    3545:	eb bc                	jmp    3503 <str_cpy+0x113>
    3547:	b0 1f                	mov    $0x1f,%al
    3549:	c7 45 dc 01 00 00 00 	movl   $0x1,-0x24(%ebp)
    3550:	21 c1                	and    %eax,%ecx
    3552:	8a 04 17             	mov    (%edi,%edx,1),%al
    3555:	88 c3                	mov    %al,%bl
    3557:	81 e1 ff 00 00 00    	and    $0xff,%ecx
    355d:	83 e3 c0             	and    $0xffffffc0,%ebx
    3560:	83 c6 02             	add    $0x2,%esi
    3563:	80 fb 80             	cmp    $0x80,%bl
    3566:	0f 85 3a ff ff ff    	jne    34a6 <str_cpy+0xb6>
    356c:	8b 5d dc             	mov    -0x24(%ebp),%ebx
    356f:	01 da                	add    %ebx,%edx
    3571:	eb 17                	jmp    358a <str_cpy+0x19a>
    3573:	90                   	nop
    3574:	8d 74 26 00          	lea    0x0(%esi,%eiz,1),%esi
    3578:	8a 04 37             	mov    (%edi,%esi,1),%al
    357b:	46                   	inc    %esi
    357c:	88 c3                	mov    %al,%bl
    357e:	83 e3 c0             	and    $0xffffffc0,%ebx
    3581:	80 fb 80             	cmp    $0x80,%bl
    3584:	0f 85 1c ff ff ff    	jne    34a6 <str_cpy+0xb6>
    358a:	89 cb                	mov    %ecx,%ebx
    358c:	89 c1                	mov    %eax,%ecx
    358e:	c1 e3 06             	shl    $0x6,%ebx
    3591:	83 e1 3f             	and    $0x3f,%ecx
    3594:	09 d9                	or     %ebx,%ecx
    3596:	39 d6                	cmp    %edx,%esi
    3598:	75 de                	jne    3578 <str_cpy+0x188>
    359a:	e9 83 fe ff ff       	jmp    3422 <str_cpy+0x32>
    359f:	b0 0f                	mov    $0xf,%al
    35a1:	c7 45 dc 02 00 00 00 	movl   $0x2,-0x24(%ebp)
    35a8:	eb a6                	jmp    3550 <str_cpy+0x160>
    35aa:	b0 07                	mov    $0x7,%al
    35ac:	c7 45 dc 03 00 00 00 	movl   $0x3,-0x24(%ebp)
    35b3:	eb 9b                	jmp    3550 <str_cpy+0x160>
    35b5:	c7 44 24 08 88 02 00 	movl   $0x288,0x8(%esp)
    35bc:	00 
    35bd:	c7 44 24 04 93 eb 01 	movl   $0x1eb93,0x4(%esp)
    35c4:	00 
    35c5:	c7 04 24 56 f7 01 00 	movl   $0x1f756,(%esp)
    35cc:	e8 0f 64 01 00       	call   199e0 <assert_abort>
    35d1:	eb 0d                	jmp    35e0 <str_ncpy>
    35d3:	90                   	nop
    35d4:	90                   	nop
    35d5:	90                   	nop
    35d6:	90                   	nop
    35d7:	90                   	nop
    35d8:	90                   	nop
    35d9:	90                   	nop
    35da:	90                   	nop
    35db:	90                   	nop
    35dc:	90                   	nop
    35dd:	90                   	nop
    35de:	90                   	nop
    35df:	90                   	nop

000035e0 <str_ncpy>:
    35e0:	55                   	push   %ebp
    35e1:	89 e5                	mov    %esp,%ebp
    35e3:	57                   	push   %edi
    35e4:	56                   	push   %esi
    35e5:	53                   	push   %ebx
    35e6:	83 ec 4c             	sub    $0x4c,%esp
    35e9:	8b 45 0c             	mov    0xc(%ebp),%eax
    35ec:	8b 7d 10             	mov    0x10(%ebp),%edi
    35ef:	85 c0                	test   %eax,%eax
    35f1:	0f 84 f7 01 00 00    	je     37ee <str_ncpy+0x20e>
    35f7:	8b 55 14             	mov    0x14(%ebp),%edx
    35fa:	c7 45 e4 00 00 00 00 	movl   $0x0,-0x1c(%ebp)
    3601:	85 d2                	test   %edx,%edx
    3603:	74 42                	je     3647 <str_ncpy+0x67>
    3605:	31 f6                	xor    %esi,%esi
    3607:	48                   	dec    %eax
    3608:	89 45 e0             	mov    %eax,-0x20(%ebp)
    360b:	ba 01 00 00 00       	mov    $0x1,%edx
    3610:	8a 04 37             	mov    (%edi,%esi,1),%al
    3613:	84 c0                	test   %al,%al
    3615:	0f 88 92 00 00 00    	js     36ad <str_ncpy+0xcd>
    361b:	90                   	nop
    361c:	8d 74 26 00          	lea    0x0(%esi,%eiz,1),%esi
    3620:	b1 7f                	mov    $0x7f,%cl
    3622:	31 f6                	xor    %esi,%esi
    3624:	8d 1c 16             	lea    (%esi,%edx,1),%ebx
    3627:	39 5d 14             	cmp    %ebx,0x14(%ebp)
    362a:	0f 83 c0 00 00 00    	jae    36f0 <str_ncpy+0x110>
    3630:	89 d6                	mov    %edx,%esi
    3632:	b9 3f 00 00 00       	mov    $0x3f,%ecx
    3637:	8b 45 e0             	mov    -0x20(%ebp),%eax
    363a:	39 45 e4             	cmp    %eax,-0x1c(%ebp)
    363d:	73 08                	jae    3647 <str_ncpy+0x67>
    363f:	81 f9 ff ff 10 00    	cmp    $0x10ffff,%ecx
    3645:	76 19                	jbe    3660 <str_ncpy+0x80>
    3647:	8b 55 08             	mov    0x8(%ebp),%edx
    364a:	8b 45 e4             	mov    -0x1c(%ebp),%eax
    364d:	c6 04 02 00          	movb   $0x0,(%edx,%eax,1)
    3651:	83 c4 4c             	add    $0x4c,%esp
    3654:	5b                   	pop    %ebx
    3655:	5e                   	pop    %esi
    3656:	5f                   	pop    %edi
    3657:	5d                   	pop    %ebp
    3658:	c3                   	ret    
    3659:	8d b4 26 00 00 00 00 	lea    0x0(%esi,%eiz,1),%esi
    3660:	f7 c1 80 ff ff ff    	test   $0xffffff80,%ecx
    3666:	0f 85 dc 00 00 00    	jne    3748 <str_ncpy+0x168>
    366c:	8b 5d e4             	mov    -0x1c(%ebp),%ebx
    366f:	c6 45 c8 00          	movb   $0x0,-0x38(%ebp)
    3673:	89 5d dc             	mov    %ebx,-0x24(%ebp)
    3676:	c6 45 b8 7f          	movb   $0x7f,-0x48(%ebp)
    367a:	8d b6 00 00 00 00    	lea    0x0(%esi),%esi
    3680:	8b 45 b8             	mov    -0x48(%ebp),%eax
    3683:	8b 55 08             	mov    0x8(%ebp),%edx
    3686:	21 c1                	and    %eax,%ecx
    3688:	8b 45 c8             	mov    -0x38(%ebp),%eax
    368b:	09 c1                	or     %eax,%ecx
    368d:	8b 45 e4             	mov    -0x1c(%ebp),%eax
    3690:	8b 5d dc             	mov    -0x24(%ebp),%ebx
    3693:	43                   	inc    %ebx
    3694:	88 0c 02             	mov    %cl,(%edx,%eax,1)
    3697:	8d 56 01             	lea    0x1(%esi),%edx
    369a:	89 5d e4             	mov    %ebx,-0x1c(%ebp)
    369d:	39 55 14             	cmp    %edx,0x14(%ebp)
    36a0:	72 a5                	jb     3647 <str_ncpy+0x67>
    36a2:	8a 04 37             	mov    (%edi,%esi,1),%al
    36a5:	84 c0                	test   %al,%al
    36a7:	0f 89 73 ff ff ff    	jns    3620 <str_ncpy+0x40>
    36ad:	88 c1                	mov    %al,%cl
    36af:	83 e1 e0             	and    $0xffffffe0,%ecx
    36b2:	80 f9 c0             	cmp    $0xc0,%cl
    36b5:	0f 84 0c 01 00 00    	je     37c7 <str_ncpy+0x1e7>
    36bb:	88 c1                	mov    %al,%cl
    36bd:	83 e1 f0             	and    $0xfffffff0,%ecx
    36c0:	80 f9 e0             	cmp    $0xe0,%cl
    36c3:	0f 84 0a 01 00 00    	je     37d3 <str_ncpy+0x1f3>
    36c9:	88 c1                	mov    %al,%cl
    36cb:	83 e1 f8             	and    $0xfffffff8,%ecx
    36ce:	80 f9 f0             	cmp    $0xf0,%cl
    36d1:	0f 85 59 ff ff ff    	jne    3630 <str_ncpy+0x50>
    36d7:	be 03 00 00 00       	mov    $0x3,%esi
    36dc:	b1 07                	mov    $0x7,%cl
    36de:	8d 1c 16             	lea    (%esi,%edx,1),%ebx
    36e1:	39 5d 14             	cmp    %ebx,0x14(%ebp)
    36e4:	0f 82 46 ff ff ff    	jb     3630 <str_ncpy+0x50>
    36ea:	8d b6 00 00 00 00    	lea    0x0(%esi),%esi
    36f0:	21 c1                	and    %eax,%ecx
    36f2:	81 e1 ff 00 00 00    	and    $0xff,%ecx
    36f8:	85 f6                	test   %esi,%esi
    36fa:	0f 84 df 00 00 00    	je     37df <str_ncpy+0x1ff>
    3700:	8a 04 17             	mov    (%edi,%edx,1),%al
    3703:	8d 72 01             	lea    0x1(%edx),%esi
    3706:	88 c2                	mov    %al,%dl
    3708:	83 e2 c0             	and    $0xffffffc0,%edx
    370b:	80 fa 80             	cmp    $0x80,%dl
    370e:	74 1a                	je     372a <str_ncpy+0x14a>
    3710:	e9 ab 00 00 00       	jmp    37c0 <str_ncpy+0x1e0>
    3715:	8d 76 00             	lea    0x0(%esi),%esi
    3718:	8a 04 37             	mov    (%edi,%esi,1),%al
    371b:	46                   	inc    %esi
    371c:	88 c2                	mov    %al,%dl
    371e:	83 e2 c0             	and    $0xffffffc0,%edx
    3721:	80 fa 80             	cmp    $0x80,%dl
    3724:	0f 85 96 00 00 00    	jne    37c0 <str_ncpy+0x1e0>
    372a:	89 ca                	mov    %ecx,%edx
    372c:	89 c1                	mov    %eax,%ecx
    372e:	c1 e2 06             	shl    $0x6,%edx
    3731:	83 e1 3f             	and    $0x3f,%ecx
    3734:	09 d1                	or     %edx,%ecx
    3736:	39 f3                	cmp    %esi,%ebx
    3738:	75 de                	jne    3718 <str_ncpy+0x138>
    373a:	85 c9                	test   %ecx,%ecx
    373c:	0f 85 f5 fe ff ff    	jne    3637 <str_ncpy+0x57>
    3742:	e9 00 ff ff ff       	jmp    3647 <str_ncpy+0x67>
    3747:	90                   	nop
    3748:	f7 c1 00 f8 ff ff    	test   $0xfffff800,%ecx
    374e:	74 60                	je     37b0 <str_ncpy+0x1d0>
    3750:	89 c8                	mov    %ecx,%eax
    3752:	25 00 00 ff ff       	and    $0xffff0000,%eax
    3757:	83 f8 01             	cmp    $0x1,%eax
    375a:	19 d2                	sbb    %edx,%edx
    375c:	83 e2 f0             	and    $0xfffffff0,%edx
    375f:	83 ea 10             	sub    $0x10,%edx
    3762:	83 f8 01             	cmp    $0x1,%eax
    3765:	19 db                	sbb    %ebx,%ebx
    3767:	88 55 c8             	mov    %dl,-0x38(%ebp)
    376a:	83 e3 08             	and    $0x8,%ebx
    376d:	83 c3 07             	add    $0x7,%ebx
    3770:	83 f8 01             	cmp    $0x1,%eax
    3773:	19 c0                	sbb    %eax,%eax
    3775:	88 5d b8             	mov    %bl,-0x48(%ebp)
    3778:	83 c0 03             	add    $0x3,%eax
    377b:	8b 5d e4             	mov    -0x1c(%ebp),%ebx
    377e:	01 c3                	add    %eax,%ebx
    3780:	89 5d dc             	mov    %ebx,-0x24(%ebp)
    3783:	39 5d e0             	cmp    %ebx,-0x20(%ebp)
    3786:	0f 86 bb fe ff ff    	jbe    3647 <str_ncpy+0x67>
    378c:	8b 5d 08             	mov    0x8(%ebp),%ebx
    378f:	8b 55 e4             	mov    -0x1c(%ebp),%edx
    3792:	8d 14 13             	lea    (%ebx,%edx,1),%edx
    3795:	89 d3                	mov    %edx,%ebx
    3797:	90                   	nop
    3798:	89 ca                	mov    %ecx,%edx
    379a:	c1 e9 06             	shr    $0x6,%ecx
    379d:	83 e2 3f             	and    $0x3f,%edx
    37a0:	80 ca 80             	or     $0x80,%dl
    37a3:	88 14 03             	mov    %dl,(%ebx,%eax,1)
    37a6:	48                   	dec    %eax
    37a7:	75 ef                	jne    3798 <str_ncpy+0x1b8>
    37a9:	e9 d2 fe ff ff       	jmp    3680 <str_ncpy+0xa0>
    37ae:	66 90                	xchg   %ax,%ax
    37b0:	c6 45 c8 c0          	movb   $0xc0,-0x38(%ebp)
    37b4:	c6 45 b8 1f          	movb   $0x1f,-0x48(%ebp)
    37b8:	b8 01 00 00 00       	mov    $0x1,%eax
    37bd:	eb bc                	jmp    377b <str_ncpy+0x19b>
    37bf:	90                   	nop
    37c0:	89 f2                	mov    %esi,%edx
    37c2:	e9 69 fe ff ff       	jmp    3630 <str_ncpy+0x50>
    37c7:	b1 1f                	mov    $0x1f,%cl
    37c9:	be 01 00 00 00       	mov    $0x1,%esi
    37ce:	e9 51 fe ff ff       	jmp    3624 <str_ncpy+0x44>
    37d3:	b1 0f                	mov    $0xf,%cl
    37d5:	be 02 00 00 00       	mov    $0x2,%esi
    37da:	e9 45 fe ff ff       	jmp    3624 <str_ncpy+0x44>
    37df:	89 d6                	mov    %edx,%esi
    37e1:	85 c9                	test   %ecx,%ecx
    37e3:	0f 85 4e fe ff ff    	jne    3637 <str_ncpy+0x57>
    37e9:	e9 59 fe ff ff       	jmp    3647 <str_ncpy+0x67>
    37ee:	c7 44 24 08 a9 02 00 	movl   $0x2a9,0x8(%esp)
    37f5:	00 
    37f6:	c7 44 24 04 93 eb 01 	movl   $0x1eb93,0x4(%esp)
    37fd:	00 
    37fe:	c7 04 24 56 f7 01 00 	movl   $0x1f756,(%esp)
    3805:	e8 d6 61 01 00       	call   199e0 <assert_abort>
    380a:	8d b6 00 00 00 00    	lea    0x0(%esi),%esi

00003810 <str_append>:
    3810:	55                   	push   %ebp
    3811:	31 c0                	xor    %eax,%eax
    3813:	89 e5                	mov    %esp,%ebp
    3815:	53                   	push   %ebx
    3816:	8b 55 08             	mov    0x8(%ebp),%edx
    3819:	8b 4d 0c             	mov    0xc(%ebp),%ecx
    381c:	8b 5d 10             	mov    0x10(%ebp),%ebx
    381f:	80 3a 00             	cmpb   $0x0,(%edx)
    3822:	74 0b                	je     382f <str_append+0x1f>
    3824:	8d 74 26 00          	lea    0x0(%esi,%eiz,1),%esi
    3828:	40                   	inc    %eax
    3829:	80 3c 02 00          	cmpb   $0x0,(%edx,%eax,1)
    382d:	75 f9                	jne    3828 <str_append+0x18>
    382f:	39 c1                	cmp    %eax,%ecx
    3831:	77 05                	ja     3838 <str_append+0x28>
    3833:	5b                   	pop    %ebx
    3834:	5d                   	pop    %ebp
    3835:	c3                   	ret    
    3836:	66 90                	xchg   %ax,%ax
    3838:	29 c1                	sub    %eax,%ecx
    383a:	01 d0                	add    %edx,%eax
    383c:	89 5d 10             	mov    %ebx,0x10(%ebp)
    383f:	89 4d 0c             	mov    %ecx,0xc(%ebp)
    3842:	89 45 08             	mov    %eax,0x8(%ebp)
    3845:	5b                   	pop    %ebx
    3846:	5d                   	pop    %ebp
    3847:	e9 a4 fb ff ff       	jmp    33f0 <str_cpy>
    384c:	8d 74 26 00          	lea    0x0(%esi,%eiz,1),%esi

00003850 <spascii_to_str>:
    3850:	55                   	push   %ebp
    3851:	89 e5                	mov    %esp,%ebp
    3853:	57                   	push   %edi
    3854:	56                   	push   %esi
    3855:	53                   	push   %ebx
    3856:	83 ec 2c             	sub    $0x2c,%esp
    3859:	8b 55 0c             	mov    0xc(%ebp),%edx
    385c:	8b 75 08             	mov    0x8(%ebp),%esi
    385f:	8b 45 14             	mov    0x14(%ebp),%eax
    3862:	85 d2                	test   %edx,%edx
    3864:	74 7e                	je     38e4 <spascii_to_str+0x94>
    3866:	85 c0                	test   %eax,%eax
    3868:	74 6f                	je     38d9 <spascii_to_str+0x89>
    386a:	4a                   	dec    %edx
    386b:	c7 45 dc 00 00 00 00 	movl   $0x0,-0x24(%ebp)
    3872:	89 55 e4             	mov    %edx,-0x1c(%ebp)
    3875:	8b 55 10             	mov    0x10(%ebp),%edx
    3878:	01 d0                	add    %edx,%eax
    387a:	31 ff                	xor    %edi,%edi
    387c:	89 45 e0             	mov    %eax,-0x20(%ebp)
    387f:	31 c0                	xor    %eax,%eax
    3881:	8d b4 26 00 00 00 00 	lea    0x0(%esi,%eiz,1),%esi
    3888:	31 db                	xor    %ebx,%ebx
    388a:	8a 0a                	mov    (%edx),%cl
    388c:	88 cb                	mov    %cl,%bl
    388e:	83 fb 7f             	cmp    $0x7f,%ebx
    3891:	76 0e                	jbe    38a1 <spascii_to_str+0x51>
    3893:	bb 3f 00 00 00       	mov    $0x3f,%ebx
    3898:	c7 45 dc f7 fe ff ff 	movl   $0xfffffef7,-0x24(%ebp)
    389f:	b1 3f                	mov    $0x3f,%cl
    38a1:	39 45 e4             	cmp    %eax,-0x1c(%ebp)
    38a4:	76 22                	jbe    38c8 <spascii_to_str+0x78>
    38a6:	88 1c 06             	mov    %bl,(%esi,%eax,1)
    38a9:	40                   	inc    %eax
    38aa:	80 f9 20             	cmp    $0x20,%cl
    38ad:	74 02                	je     38b1 <spascii_to_str+0x61>
    38af:	89 c7                	mov    %eax,%edi
    38b1:	42                   	inc    %edx
    38b2:	3b 55 e0             	cmp    -0x20(%ebp),%edx
    38b5:	75 d1                	jne    3888 <spascii_to_str+0x38>
    38b7:	c6 04 3e 00          	movb   $0x0,(%esi,%edi,1)
    38bb:	8b 45 dc             	mov    -0x24(%ebp),%eax
    38be:	83 c4 2c             	add    $0x2c,%esp
    38c1:	5b                   	pop    %ebx
    38c2:	5e                   	pop    %esi
    38c3:	5f                   	pop    %edi
    38c4:	5d                   	pop    %ebp
    38c5:	c3                   	ret    
    38c6:	66 90                	xchg   %ax,%ax
    38c8:	c6 04 06 00          	movb   $0x0,(%esi,%eax,1)
    38cc:	83 c4 2c             	add    $0x2c,%esp
    38cf:	b8 f0 ff ff ff       	mov    $0xfffffff0,%eax
    38d4:	5b                   	pop    %ebx
    38d5:	5e                   	pop    %esi
    38d6:	5f                   	pop    %edi
    38d7:	5d                   	pop    %ebp
    38d8:	c3                   	ret    
    38d9:	c7 45 dc 00 00 00 00 	movl   $0x0,-0x24(%ebp)
    38e0:	31 ff                	xor    %edi,%edi
    38e2:	eb d3                	jmp    38b7 <spascii_to_str+0x67>
    38e4:	c7 44 24 08 ef 02 00 	movl   $0x2ef,0x8(%esp)
    38eb:	00 
    38ec:	c7 44 24 04 93 eb 01 	movl   $0x1eb93,0x4(%esp)
    38f3:	00 
    38f4:	c7 04 24 56 f7 01 00 	movl   $0x1f756,(%esp)
    38fb:	e8 e0 60 01 00       	call   199e0 <assert_abort>

00003900 <wstr_to_str>:
    3900:	55                   	push   %ebp
    3901:	89 e5                	mov    %esp,%ebp
    3903:	57                   	push   %edi
    3904:	56                   	push   %esi
    3905:	53                   	push   %ebx
    3906:	83 ec 2c             	sub    $0x2c,%esp
    3909:	8b 45 0c             	mov    0xc(%ebp),%eax
    390c:	8b 55 10             	mov    0x10(%ebp),%edx
    390f:	85 c0                	test   %eax,%eax
    3911:	0f 84 10 01 00 00    	je     3a27 <wstr_to_str+0x127>
    3917:	8b 32                	mov    (%edx),%esi
    3919:	85 f6                	test   %esi,%esi
    391b:	0f 84 ef 00 00 00    	je     3a10 <wstr_to_str+0x110>
    3921:	48                   	dec    %eax
    3922:	89 45 e0             	mov    %eax,-0x20(%ebp)
    3925:	0f 84 e5 00 00 00    	je     3a10 <wstr_to_str+0x110>
    392b:	81 fe ff ff 10 00    	cmp    $0x10ffff,%esi
    3931:	0f 87 d9 00 00 00    	ja     3a10 <wstr_to_str+0x110>
    3937:	31 ff                	xor    %edi,%edi
    3939:	8d 5a 04             	lea    0x4(%edx),%ebx
    393c:	f7 c6 80 ff ff ff    	test   $0xffffff80,%esi
    3942:	75 58                	jne    399c <wstr_to_str+0x9c>
    3944:	8d 74 26 00          	lea    0x0(%esi,%eiz,1),%esi
    3948:	39 7d e0             	cmp    %edi,-0x20(%ebp)
    394b:	0f 86 c7 00 00 00    	jbe    3a18 <wstr_to_str+0x118>
    3951:	89 7d dc             	mov    %edi,-0x24(%ebp)
    3954:	c6 45 e7 00          	movb   $0x0,-0x19(%ebp)
    3958:	c6 45 e6 7f          	movb   $0x7f,-0x1a(%ebp)
    395c:	8d 74 26 00          	lea    0x0(%esi,%eiz,1),%esi
    3960:	8a 45 e6             	mov    -0x1a(%ebp),%al
    3963:	8b 55 08             	mov    0x8(%ebp),%edx
    3966:	21 f0                	and    %esi,%eax
    3968:	0a 45 e7             	or     -0x19(%ebp),%al
    396b:	88 04 3a             	mov    %al,(%edx,%edi,1)
    396e:	8b 7d dc             	mov    -0x24(%ebp),%edi
    3971:	8b 33                	mov    (%ebx),%esi
    3973:	47                   	inc    %edi
    3974:	85 f6                	test   %esi,%esi
    3976:	0f 84 9c 00 00 00    	je     3a18 <wstr_to_str+0x118>
    397c:	3b 7d e0             	cmp    -0x20(%ebp),%edi
    397f:	0f 83 93 00 00 00    	jae    3a18 <wstr_to_str+0x118>
    3985:	83 c3 04             	add    $0x4,%ebx
    3988:	81 fe ff ff 10 00    	cmp    $0x10ffff,%esi
    398e:	0f 87 84 00 00 00    	ja     3a18 <wstr_to_str+0x118>
    3994:	f7 c6 80 ff ff ff    	test   $0xffffff80,%esi
    399a:	74 ac                	je     3948 <wstr_to_str+0x48>
    399c:	f7 c6 00 f8 ff ff    	test   $0xfffff800,%esi
    39a2:	74 4c                	je     39f0 <wstr_to_str+0xf0>
    39a4:	f7 c6 00 00 ff ff    	test   $0xffff0000,%esi
    39aa:	74 54                	je     3a00 <wstr_to_str+0x100>
    39ac:	f7 c6 00 00 e0 ff    	test   $0xffe00000,%esi
    39b2:	75 64                	jne    3a18 <wstr_to_str+0x118>
    39b4:	c6 45 e7 f0          	movb   $0xf0,-0x19(%ebp)
    39b8:	c6 45 e6 07          	movb   $0x7,-0x1a(%ebp)
    39bc:	b8 03 00 00 00       	mov    $0x3,%eax
    39c1:	8d 14 38             	lea    (%eax,%edi,1),%edx
    39c4:	89 55 dc             	mov    %edx,-0x24(%ebp)
    39c7:	8b 55 e0             	mov    -0x20(%ebp),%edx
    39ca:	39 55 dc             	cmp    %edx,-0x24(%ebp)
    39cd:	73 49                	jae    3a18 <wstr_to_str+0x118>
    39cf:	8b 55 08             	mov    0x8(%ebp),%edx
    39d2:	8d 0c 3a             	lea    (%edx,%edi,1),%ecx
    39d5:	8d 76 00             	lea    0x0(%esi),%esi
    39d8:	89 f2                	mov    %esi,%edx
    39da:	c1 ee 06             	shr    $0x6,%esi
    39dd:	83 e2 3f             	and    $0x3f,%edx
    39e0:	80 ca 80             	or     $0x80,%dl
    39e3:	88 14 01             	mov    %dl,(%ecx,%eax,1)
    39e6:	48                   	dec    %eax
    39e7:	75 ef                	jne    39d8 <wstr_to_str+0xd8>
    39e9:	e9 72 ff ff ff       	jmp    3960 <wstr_to_str+0x60>
    39ee:	66 90                	xchg   %ax,%ax
    39f0:	c6 45 e7 c0          	movb   $0xc0,-0x19(%ebp)
    39f4:	c6 45 e6 1f          	movb   $0x1f,-0x1a(%ebp)
    39f8:	b8 01 00 00 00       	mov    $0x1,%eax
    39fd:	eb c2                	jmp    39c1 <wstr_to_str+0xc1>
    39ff:	90                   	nop
    3a00:	c6 45 e7 e0          	movb   $0xe0,-0x19(%ebp)
    3a04:	c6 45 e6 0f          	movb   $0xf,-0x1a(%ebp)
    3a08:	b8 02 00 00 00       	mov    $0x2,%eax
    3a0d:	eb b2                	jmp    39c1 <wstr_to_str+0xc1>
    3a0f:	90                   	nop
    3a10:	31 ff                	xor    %edi,%edi
    3a12:	8d b6 00 00 00 00    	lea    0x0(%esi),%esi
    3a18:	8b 45 08             	mov    0x8(%ebp),%eax
    3a1b:	c6 04 38 00          	movb   $0x0,(%eax,%edi,1)
    3a1f:	83 c4 2c             	add    $0x2c,%esp
    3a22:	5b                   	pop    %ebx
    3a23:	5e                   	pop    %esi
    3a24:	5f                   	pop    %edi
    3a25:	5d                   	pop    %ebp
    3a26:	c3                   	ret    
    3a27:	c7 44 24 08 1d 03 00 	movl   $0x31d,0x8(%esp)
    3a2e:	00 
    3a2f:	c7 44 24 04 93 eb 01 	movl   $0x1eb93,0x4(%esp)
    3a36:	00 
    3a37:	c7 04 24 56 f7 01 00 	movl   $0x1f756,(%esp)
    3a3e:	e8 9d 5f 01 00       	call   199e0 <assert_abort>
    3a43:	8d b6 00 00 00 00    	lea    0x0(%esi),%esi
    3a49:	8d bc 27 00 00 00 00 	lea    0x0(%edi,%eiz,1),%edi

00003a50 <utf16_to_str>:
    3a50:	55                   	push   %ebp
    3a51:	89 e5                	mov    %esp,%ebp
    3a53:	57                   	push   %edi
    3a54:	56                   	push   %esi
    3a55:	53                   	push   %ebx
    3a56:	83 ec 4c             	sub    $0x4c,%esp
    3a59:	8b 45 0c             	mov    0xc(%ebp),%eax
    3a5c:	85 c0                	test   %eax,%eax
    3a5e:	0f 84 76 01 00 00    	je     3bda <utf16_to_str+0x18a>
    3a64:	8b 55 10             	mov    0x10(%ebp),%edx
    3a67:	48                   	dec    %eax
    3a68:	31 f6                	xor    %esi,%esi
    3a6a:	31 ff                	xor    %edi,%edi
    3a6c:	66 8b 0a             	mov    (%edx),%cx
    3a6f:	89 45 c4             	mov    %eax,-0x3c(%ebp)
    3a72:	66 85 c9             	test   %cx,%cx
    3a75:	74 79                	je     3af0 <utf16_to_str+0xa0>
    3a77:	90                   	nop
    3a78:	89 c8                	mov    %ecx,%eax
    3a7a:	25 00 fc ff ff       	and    $0xfffffc00,%eax
    3a7f:	66 3d 00 d8          	cmp    $0xd800,%ax
    3a83:	0f 84 df 00 00 00    	je     3b68 <utf16_to_str+0x118>
    3a89:	81 e1 ff ff 00 00    	and    $0xffff,%ecx
    3a8f:	47                   	inc    %edi
    3a90:	39 75 c4             	cmp    %esi,-0x3c(%ebp)
    3a93:	0f 86 14 01 00 00    	jbe    3bad <utf16_to_str+0x15d>
    3a99:	81 f9 ff ff 10 00    	cmp    $0x10ffff,%ecx
    3a9f:	76 17                	jbe    3ab8 <utf16_to_str+0x68>
    3aa1:	8b 55 08             	mov    0x8(%ebp),%edx
    3aa4:	b8 f2 ff ff ff       	mov    $0xfffffff2,%eax
    3aa9:	c6 04 32 00          	movb   $0x0,(%edx,%esi,1)
    3aad:	83 c4 4c             	add    $0x4c,%esp
    3ab0:	5b                   	pop    %ebx
    3ab1:	5e                   	pop    %esi
    3ab2:	5f                   	pop    %edi
    3ab3:	5d                   	pop    %ebp
    3ab4:	c3                   	ret    
    3ab5:	8d 76 00             	lea    0x0(%esi),%esi
    3ab8:	f7 c1 80 ff ff ff    	test   $0xffffff80,%ecx
    3abe:	75 48                	jne    3b08 <utf16_to_str+0xb8>
    3ac0:	89 75 c0             	mov    %esi,-0x40(%ebp)
    3ac3:	c6 45 d8 00          	movb   $0x0,-0x28(%ebp)
    3ac7:	c6 45 c8 7f          	movb   $0x7f,-0x38(%ebp)
    3acb:	90                   	nop
    3acc:	8d 74 26 00          	lea    0x0(%esi,%eiz,1),%esi
    3ad0:	8b 5d c8             	mov    -0x38(%ebp),%ebx
    3ad3:	8b 45 d8             	mov    -0x28(%ebp),%eax
    3ad6:	21 d9                	and    %ebx,%ecx
    3ad8:	8b 55 10             	mov    0x10(%ebp),%edx
    3adb:	09 c1                	or     %eax,%ecx
    3add:	8b 45 08             	mov    0x8(%ebp),%eax
    3ae0:	88 0c 30             	mov    %cl,(%eax,%esi,1)
    3ae3:	8b 75 c0             	mov    -0x40(%ebp),%esi
    3ae6:	66 8b 0c 7a          	mov    (%edx,%edi,2),%cx
    3aea:	46                   	inc    %esi
    3aeb:	66 85 c9             	test   %cx,%cx
    3aee:	75 88                	jne    3a78 <utf16_to_str+0x28>
    3af0:	8b 55 08             	mov    0x8(%ebp),%edx
    3af3:	31 c0                	xor    %eax,%eax
    3af5:	c6 04 32 00          	movb   $0x0,(%edx,%esi,1)
    3af9:	83 c4 4c             	add    $0x4c,%esp
    3afc:	5b                   	pop    %ebx
    3afd:	5e                   	pop    %esi
    3afe:	5f                   	pop    %edi
    3aff:	5d                   	pop    %ebp
    3b00:	c3                   	ret    
    3b01:	8d b4 26 00 00 00 00 	lea    0x0(%esi,%eiz,1),%esi
    3b08:	f7 c1 00 f8 ff ff    	test   $0xfffff800,%ecx
    3b0e:	0f 84 b4 00 00 00    	je     3bc8 <utf16_to_str+0x178>
    3b14:	89 c8                	mov    %ecx,%eax
    3b16:	25 00 00 ff ff       	and    $0xffff0000,%eax
    3b1b:	83 f8 01             	cmp    $0x1,%eax
    3b1e:	19 d2                	sbb    %edx,%edx
    3b20:	83 e2 f0             	and    $0xfffffff0,%edx
    3b23:	83 ea 10             	sub    $0x10,%edx
    3b26:	83 f8 01             	cmp    $0x1,%eax
    3b29:	88 55 d8             	mov    %dl,-0x28(%ebp)
    3b2c:	19 d2                	sbb    %edx,%edx
    3b2e:	83 e2 08             	and    $0x8,%edx
    3b31:	83 c2 07             	add    $0x7,%edx
    3b34:	83 f8 01             	cmp    $0x1,%eax
    3b37:	19 c0                	sbb    %eax,%eax
    3b39:	88 55 c8             	mov    %dl,-0x38(%ebp)
    3b3c:	83 c0 03             	add    $0x3,%eax
    3b3f:	8d 14 30             	lea    (%eax,%esi,1),%edx
    3b42:	89 55 c0             	mov    %edx,-0x40(%ebp)
    3b45:	39 55 c4             	cmp    %edx,-0x3c(%ebp)
    3b48:	76 63                	jbe    3bad <utf16_to_str+0x15d>
    3b4a:	8b 55 08             	mov    0x8(%ebp),%edx
    3b4d:	8d 1c 32             	lea    (%edx,%esi,1),%ebx
    3b50:	89 ca                	mov    %ecx,%edx
    3b52:	c1 e9 06             	shr    $0x6,%ecx
    3b55:	83 e2 3f             	and    $0x3f,%edx
    3b58:	80 ca 80             	or     $0x80,%dl
    3b5b:	88 14 03             	mov    %dl,(%ebx,%eax,1)
    3b5e:	48                   	dec    %eax
    3b5f:	75 ef                	jne    3b50 <utf16_to_str+0x100>
    3b61:	e9 6a ff ff ff       	jmp    3ad0 <utf16_to_str+0x80>
    3b66:	66 90                	xchg   %ax,%ax
    3b68:	8b 55 10             	mov    0x10(%ebp),%edx
    3b6b:	66 8b 44 7a 02       	mov    0x2(%edx,%edi,2),%ax
    3b70:	66 85 c0             	test   %ax,%ax
    3b73:	0f 84 77 ff ff ff    	je     3af0 <utf16_to_str+0xa0>
    3b79:	89 c2                	mov    %eax,%edx
    3b7b:	81 e2 00 fc ff ff    	and    $0xfffffc00,%edx
    3b81:	66 81 fa 00 dc       	cmp    $0xdc00,%dx
    3b86:	0f 85 64 ff ff ff    	jne    3af0 <utf16_to_str+0xa0>
    3b8c:	81 e1 ff 03 00 00    	and    $0x3ff,%ecx
    3b92:	25 ff 03 00 00       	and    $0x3ff,%eax
    3b97:	c1 e1 0a             	shl    $0xa,%ecx
    3b9a:	83 c7 02             	add    $0x2,%edi
    3b9d:	39 75 c4             	cmp    %esi,-0x3c(%ebp)
    3ba0:	8d 8c 01 00 00 01 00 	lea    0x10000(%ecx,%eax,1),%ecx
    3ba7:	0f 87 ec fe ff ff    	ja     3a99 <utf16_to_str+0x49>
    3bad:	8b 55 08             	mov    0x8(%ebp),%edx
    3bb0:	b8 f0 ff ff ff       	mov    $0xfffffff0,%eax
    3bb5:	c6 04 32 00          	movb   $0x0,(%edx,%esi,1)
    3bb9:	83 c4 4c             	add    $0x4c,%esp
    3bbc:	5b                   	pop    %ebx
    3bbd:	5e                   	pop    %esi
    3bbe:	5f                   	pop    %edi
    3bbf:	5d                   	pop    %ebp
    3bc0:	c3                   	ret    
    3bc1:	8d b4 26 00 00 00 00 	lea    0x0(%esi,%eiz,1),%esi
    3bc8:	c6 45 d8 c0          	movb   $0xc0,-0x28(%ebp)
    3bcc:	c6 45 c8 1f          	movb   $0x1f,-0x38(%ebp)
    3bd0:	b8 01 00 00 00       	mov    $0x1,%eax
    3bd5:	e9 65 ff ff ff       	jmp    3b3f <utf16_to_str+0xef>
    3bda:	c7 44 24 08 3d 03 00 	movl   $0x33d,0x8(%esp)
    3be1:	00 
    3be2:	c7 44 24 04 93 eb 01 	movl   $0x1eb93,0x4(%esp)
    3be9:	00 
    3bea:	c7 04 24 56 f7 01 00 	movl   $0x1f756,(%esp)
    3bf1:	e8 ea 5d 01 00       	call   199e0 <assert_abort>
    3bf6:	8d 76 00             	lea    0x0(%esi),%esi
    3bf9:	8d bc 27 00 00 00 00 	lea    0x0(%edi,%eiz,1),%edi

00003c00 <str_to_utf16>:
    3c00:	55                   	push   %ebp
    3c01:	89 e5                	mov    %esp,%ebp
    3c03:	57                   	push   %edi
    3c04:	56                   	push   %esi
    3c05:	53                   	push   %ebx
    3c06:	83 ec 2c             	sub    $0x2c,%esp
    3c09:	8b 45 0c             	mov    0xc(%ebp),%eax
    3c0c:	8b 7d 10             	mov    0x10(%ebp),%edi
    3c0f:	85 c0                	test   %eax,%eax
    3c11:	0f 84 46 01 00 00    	je     3d5d <str_to_utf16+0x15d>
    3c17:	48                   	dec    %eax
    3c18:	31 db                	xor    %ebx,%ebx
    3c1a:	c7 45 e4 00 00 00 00 	movl   $0x0,-0x1c(%ebp)
    3c21:	89 45 e0             	mov    %eax,-0x20(%ebp)
    3c24:	eb 61                	jmp    3c87 <str_to_utf16+0x87>
    3c26:	66 90                	xchg   %ax,%ax
    3c28:	85 c0                	test   %eax,%eax
    3c2a:	0f 84 ad 00 00 00    	je     3cdd <str_to_utf16+0xdd>
    3c30:	3d 00 00 01 00       	cmp    $0x10000,%eax
    3c35:	0f 8e 82 00 00 00    	jle    3cbd <str_to_utf16+0xbd>
    3c3b:	8b 4d e4             	mov    -0x1c(%ebp),%ecx
    3c3e:	83 c1 02             	add    $0x2,%ecx
    3c41:	3b 4d e0             	cmp    -0x20(%ebp),%ecx
    3c44:	0f 83 8e 00 00 00    	jae    3cd8 <str_to_utf16+0xd8>
    3c4a:	2d 00 00 01 00       	sub    $0x10000,%eax
    3c4f:	8b 5d e4             	mov    -0x1c(%ebp),%ebx
    3c52:	89 c1                	mov    %eax,%ecx
    3c54:	8b 75 08             	mov    0x8(%ebp),%esi
    3c57:	c1 f9 0a             	sar    $0xa,%ecx
    3c5a:	25 ff 03 00 00       	and    $0x3ff,%eax
    3c5f:	81 c9 00 d8 ff ff    	or     $0xffffd800,%ecx
    3c65:	0d 00 dc ff ff       	or     $0xffffdc00,%eax
    3c6a:	66 89 0c 5e          	mov    %cx,(%esi,%ebx,2)
    3c6e:	43                   	inc    %ebx
    3c6f:	89 5d e4             	mov    %ebx,-0x1c(%ebp)
    3c72:	66 89 04 5e          	mov    %ax,(%esi,%ebx,2)
    3c76:	8b 45 e4             	mov    -0x1c(%ebp),%eax
    3c79:	40                   	inc    %eax
    3c7a:	8b 75 e0             	mov    -0x20(%ebp),%esi
    3c7d:	89 45 e4             	mov    %eax,-0x1c(%ebp)
    3c80:	89 d3                	mov    %edx,%ebx
    3c82:	39 75 e4             	cmp    %esi,-0x1c(%ebp)
    3c85:	73 51                	jae    3cd8 <str_to_utf16+0xd8>
    3c87:	0f be 04 1f          	movsbl (%edi,%ebx,1),%eax
    3c8b:	8d 53 01             	lea    0x1(%ebx),%edx
    3c8e:	84 c0                	test   %al,%al
    3c90:	79 96                	jns    3c28 <str_to_utf16+0x28>
    3c92:	88 c1                	mov    %al,%cl
    3c94:	83 e1 e0             	and    $0xffffffe0,%ecx
    3c97:	80 f9 c0             	cmp    $0xc0,%cl
    3c9a:	74 55                	je     3cf1 <str_to_utf16+0xf1>
    3c9c:	88 c1                	mov    %al,%cl
    3c9e:	83 e1 f0             	and    $0xfffffff0,%ecx
    3ca1:	80 f9 e0             	cmp    $0xe0,%cl
    3ca4:	0f 84 99 00 00 00    	je     3d43 <str_to_utf16+0x143>
    3caa:	88 c1                	mov    %al,%cl
    3cac:	83 e1 f8             	and    $0xfffffff8,%ecx
    3caf:	80 f9 f0             	cmp    $0xf0,%cl
    3cb2:	0f 84 94 00 00 00    	je     3d4c <str_to_utf16+0x14c>
    3cb8:	b8 3f 00 00 00       	mov    $0x3f,%eax
    3cbd:	8b 4d e4             	mov    -0x1c(%ebp),%ecx
    3cc0:	8b 5d 08             	mov    0x8(%ebp),%ebx
    3cc3:	8b 75 e0             	mov    -0x20(%ebp),%esi
    3cc6:	66 89 04 4b          	mov    %ax,(%ebx,%ecx,2)
    3cca:	8b 45 e4             	mov    -0x1c(%ebp),%eax
    3ccd:	40                   	inc    %eax
    3cce:	89 d3                	mov    %edx,%ebx
    3cd0:	89 45 e4             	mov    %eax,-0x1c(%ebp)
    3cd3:	39 75 e4             	cmp    %esi,-0x1c(%ebp)
    3cd6:	72 af                	jb     3c87 <str_to_utf16+0x87>
    3cd8:	b8 f0 ff ff ff       	mov    $0xfffffff0,%eax
    3cdd:	8b 55 e4             	mov    -0x1c(%ebp),%edx
    3ce0:	8b 4d 08             	mov    0x8(%ebp),%ecx
    3ce3:	66 c7 04 51 00 00    	movw   $0x0,(%ecx,%edx,2)
    3ce9:	83 c4 2c             	add    $0x2c,%esp
    3cec:	5b                   	pop    %ebx
    3ced:	5e                   	pop    %esi
    3cee:	5f                   	pop    %edi
    3cef:	5d                   	pop    %ebp
    3cf0:	c3                   	ret    
    3cf1:	b1 1f                	mov    $0x1f,%cl
    3cf3:	be 01 00 00 00       	mov    $0x1,%esi
    3cf8:	21 c8                	and    %ecx,%eax
    3cfa:	83 c3 02             	add    $0x2,%ebx
    3cfd:	8a 0c 17             	mov    (%edi,%edx,1),%cl
    3d00:	89 5d dc             	mov    %ebx,-0x24(%ebp)
    3d03:	88 cb                	mov    %cl,%bl
    3d05:	25 ff 00 00 00       	and    $0xff,%eax
    3d0a:	83 e3 c0             	and    $0xffffffc0,%ebx
    3d0d:	80 fb 80             	cmp    $0x80,%bl
    3d10:	75 43                	jne    3d55 <str_to_utf16+0x155>
    3d12:	01 d6                	add    %edx,%esi
    3d14:	8b 55 dc             	mov    -0x24(%ebp),%edx
    3d17:	eb 15                	jmp    3d2e <str_to_utf16+0x12e>
    3d19:	8d b4 26 00 00 00 00 	lea    0x0(%esi,%eiz,1),%esi
    3d20:	8a 0c 17             	mov    (%edi,%edx,1),%cl
    3d23:	42                   	inc    %edx
    3d24:	88 cb                	mov    %cl,%bl
    3d26:	83 e3 c0             	and    $0xffffffc0,%ebx
    3d29:	80 fb 80             	cmp    $0x80,%bl
    3d2c:	75 8a                	jne    3cb8 <str_to_utf16+0xb8>
    3d2e:	89 c3                	mov    %eax,%ebx
    3d30:	89 c8                	mov    %ecx,%eax
    3d32:	c1 e3 06             	shl    $0x6,%ebx
    3d35:	83 e0 3f             	and    $0x3f,%eax
    3d38:	09 d8                	or     %ebx,%eax
    3d3a:	39 f2                	cmp    %esi,%edx
    3d3c:	75 e2                	jne    3d20 <str_to_utf16+0x120>
    3d3e:	e9 e5 fe ff ff       	jmp    3c28 <str_to_utf16+0x28>
    3d43:	b1 0f                	mov    $0xf,%cl
    3d45:	be 02 00 00 00       	mov    $0x2,%esi
    3d4a:	eb ac                	jmp    3cf8 <str_to_utf16+0xf8>
    3d4c:	b1 07                	mov    $0x7,%cl
    3d4e:	be 03 00 00 00       	mov    $0x3,%esi
    3d53:	eb a3                	jmp    3cf8 <str_to_utf16+0xf8>
    3d55:	8b 55 dc             	mov    -0x24(%ebp),%edx
    3d58:	e9 5b ff ff ff       	jmp    3cb8 <str_to_utf16+0xb8>
    3d5d:	c7 44 24 08 5c 03 00 	movl   $0x35c,0x8(%esp)
    3d64:	00 
    3d65:	c7 44 24 04 93 eb 01 	movl   $0x1eb93,0x4(%esp)
    3d6c:	00 
    3d6d:	c7 04 24 56 f7 01 00 	movl   $0x1f756,(%esp)
    3d74:	e8 67 5c 01 00       	call   199e0 <assert_abort>
    3d79:	8d b4 26 00 00 00 00 	lea    0x0(%esi,%eiz,1),%esi

00003d80 <wstr_to_astr>:
    3d80:	55                   	push   %ebp
    3d81:	89 e5                	mov    %esp,%ebp
    3d83:	57                   	push   %edi
    3d84:	56                   	push   %esi
    3d85:	53                   	push   %ebx
    3d86:	83 ec 4c             	sub    $0x4c,%esp
    3d89:	8b 55 08             	mov    0x8(%ebp),%edx
    3d8c:	8b 0a                	mov    (%edx),%ecx
    3d8e:	85 c9                	test   %ecx,%ecx
    3d90:	74 59                	je     3deb <wstr_to_astr+0x6b>
    3d92:	81 f9 ff ff 10 00    	cmp    $0x10ffff,%ecx
    3d98:	77 51                	ja     3deb <wstr_to_astr+0x6b>
    3d9a:	8b 7d 08             	mov    0x8(%ebp),%edi
    3d9d:	31 db                	xor    %ebx,%ebx
    3d9f:	83 c7 04             	add    $0x4,%edi
    3da2:	8d 75 e4             	lea    -0x1c(%ebp),%esi
    3da5:	8d 76 00             	lea    0x0(%esi),%esi
    3da8:	f7 c1 80 ff ff ff    	test   $0xffffff80,%ecx
    3dae:	0f 85 e4 00 00 00    	jne    3e98 <wstr_to_astr+0x118>
    3db4:	c7 45 cc 01 00 00 00 	movl   $0x1,-0x34(%ebp)
    3dbb:	c6 45 d0 00          	movb   $0x0,-0x30(%ebp)
    3dbf:	c6 45 d4 7f          	movb   $0x7f,-0x2c(%ebp)
    3dc3:	8b 45 d4             	mov    -0x2c(%ebp),%eax
    3dc6:	21 c1                	and    %eax,%ecx
    3dc8:	8b 45 d0             	mov    -0x30(%ebp),%eax
    3dcb:	09 c1                	or     %eax,%ecx
    3dcd:	8b 45 cc             	mov    -0x34(%ebp),%eax
    3dd0:	88 4d e4             	mov    %cl,-0x1c(%ebp)
    3dd3:	8b 0f                	mov    (%edi),%ecx
    3dd5:	01 c3                	add    %eax,%ebx
    3dd7:	85 c9                	test   %ecx,%ecx
    3dd9:	74 0b                	je     3de6 <wstr_to_astr+0x66>
    3ddb:	83 c7 04             	add    $0x4,%edi
    3dde:	81 f9 ff ff 10 00    	cmp    $0x10ffff,%ecx
    3de4:	76 c2                	jbe    3da8 <wstr_to_astr+0x28>
    3de6:	8d 43 01             	lea    0x1(%ebx),%eax
    3de9:	eb 0d                	jmp    3df8 <wstr_to_astr+0x78>
    3deb:	b8 01 00 00 00       	mov    $0x1,%eax
    3df0:	31 db                	xor    %ebx,%ebx
    3df2:	8d b6 00 00 00 00    	lea    0x0(%esi),%esi
    3df8:	89 04 24             	mov    %eax,(%esp)
    3dfb:	e8 90 b0 00 00       	call   ee90 <malloc>
    3e00:	89 c7                	mov    %eax,%edi
    3e02:	85 c0                	test   %eax,%eax
    3e04:	0f 84 7d 00 00 00    	je     3e87 <wstr_to_astr+0x107>
    3e0a:	8b 55 08             	mov    0x8(%ebp),%edx
    3e0d:	8b 02                	mov    (%edx),%eax
    3e0f:	85 c0                	test   %eax,%eax
    3e11:	74 70                	je     3e83 <wstr_to_astr+0x103>
    3e13:	85 db                	test   %ebx,%ebx
    3e15:	74 6c                	je     3e83 <wstr_to_astr+0x103>
    3e17:	89 c6                	mov    %eax,%esi
    3e19:	3d ff ff 10 00       	cmp    $0x10ffff,%eax
    3e1e:	77 63                	ja     3e83 <wstr_to_astr+0x103>
    3e20:	8b 55 08             	mov    0x8(%ebp),%edx
    3e23:	31 c0                	xor    %eax,%eax
    3e25:	83 c2 04             	add    $0x4,%edx
    3e28:	89 5d d0             	mov    %ebx,-0x30(%ebp)
    3e2b:	89 55 d4             	mov    %edx,-0x2c(%ebp)
    3e2e:	89 c3                	mov    %eax,%ebx
    3e30:	f7 c6 80 ff ff ff    	test   $0xffffff80,%esi
    3e36:	0f 85 c4 00 00 00    	jne    3f00 <wstr_to_astr+0x180>
    3e3c:	3b 5d d0             	cmp    -0x30(%ebp),%ebx
    3e3f:	73 3f                	jae    3e80 <wstr_to_astr+0x100>
    3e41:	89 5d c4             	mov    %ebx,-0x3c(%ebp)
    3e44:	c6 45 cc 00          	movb   $0x0,-0x34(%ebp)
    3e48:	c6 45 cb 7f          	movb   $0x7f,-0x35(%ebp)
    3e4c:	8d 74 26 00          	lea    0x0(%esi,%eiz,1),%esi
    3e50:	8a 45 cb             	mov    -0x35(%ebp),%al
    3e53:	8b 55 cc             	mov    -0x34(%ebp),%edx
    3e56:	21 f0                	and    %esi,%eax
    3e58:	09 d0                	or     %edx,%eax
    3e5a:	88 04 1f             	mov    %al,(%edi,%ebx,1)
    3e5d:	8b 45 d4             	mov    -0x2c(%ebp),%eax
    3e60:	8b 5d c4             	mov    -0x3c(%ebp),%ebx
    3e63:	8b 30                	mov    (%eax),%esi
    3e65:	43                   	inc    %ebx
    3e66:	85 f6                	test   %esi,%esi
    3e68:	74 16                	je     3e80 <wstr_to_astr+0x100>
    3e6a:	39 5d d0             	cmp    %ebx,-0x30(%ebp)
    3e6d:	76 11                	jbe    3e80 <wstr_to_astr+0x100>
    3e6f:	8b 4d d4             	mov    -0x2c(%ebp),%ecx
    3e72:	83 c1 04             	add    $0x4,%ecx
    3e75:	81 fe ff ff 10 00    	cmp    $0x10ffff,%esi
    3e7b:	89 4d d4             	mov    %ecx,-0x2c(%ebp)
    3e7e:	76 b0                	jbe    3e30 <wstr_to_astr+0xb0>
    3e80:	8b 5d d0             	mov    -0x30(%ebp),%ebx
    3e83:	c6 04 1f 00          	movb   $0x0,(%edi,%ebx,1)
    3e87:	83 c4 4c             	add    $0x4c,%esp
    3e8a:	89 f8                	mov    %edi,%eax
    3e8c:	5b                   	pop    %ebx
    3e8d:	5e                   	pop    %esi
    3e8e:	5f                   	pop    %edi
    3e8f:	5d                   	pop    %ebp
    3e90:	c3                   	ret    
    3e91:	8d b4 26 00 00 00 00 	lea    0x0(%esi,%eiz,1),%esi
    3e98:	f7 c1 00 f8 ff ff    	test   $0xfffff800,%ecx
    3e9e:	74 48                	je     3ee8 <wstr_to_astr+0x168>
    3ea0:	f7 c1 00 00 ff ff    	test   $0xffff0000,%ecx
    3ea6:	0f 84 ac 00 00 00    	je     3f58 <wstr_to_astr+0x1d8>
    3eac:	f7 c1 00 00 e0 ff    	test   $0xffe00000,%ecx
    3eb2:	0f 85 2e ff ff ff    	jne    3de6 <wstr_to_astr+0x66>
    3eb8:	c6 45 d0 f0          	movb   $0xf0,-0x30(%ebp)
    3ebc:	c6 45 d4 07          	movb   $0x7,-0x2c(%ebp)
    3ec0:	c7 45 cc 04 00 00 00 	movl   $0x4,-0x34(%ebp)
    3ec7:	b8 03 00 00 00       	mov    $0x3,%eax
    3ecc:	01 f0                	add    %esi,%eax
    3ece:	66 90                	xchg   %ax,%ax
    3ed0:	89 ca                	mov    %ecx,%edx
    3ed2:	c1 e9 06             	shr    $0x6,%ecx
    3ed5:	83 e2 3f             	and    $0x3f,%edx
    3ed8:	80 ca 80             	or     $0x80,%dl
    3edb:	88 10                	mov    %dl,(%eax)
    3edd:	48                   	dec    %eax
    3ede:	39 f0                	cmp    %esi,%eax
    3ee0:	75 ee                	jne    3ed0 <wstr_to_astr+0x150>
    3ee2:	e9 dc fe ff ff       	jmp    3dc3 <wstr_to_astr+0x43>
    3ee7:	90                   	nop
    3ee8:	c6 45 d0 c0          	movb   $0xc0,-0x30(%ebp)
    3eec:	c6 45 d4 1f          	movb   $0x1f,-0x2c(%ebp)
    3ef0:	c7 45 cc 02 00 00 00 	movl   $0x2,-0x34(%ebp)
    3ef7:	b8 01 00 00 00       	mov    $0x1,%eax
    3efc:	eb ce                	jmp    3ecc <wstr_to_astr+0x14c>
    3efe:	66 90                	xchg   %ax,%ax
    3f00:	f7 c6 00 f8 ff ff    	test   $0xfffff800,%esi
    3f06:	74 70                	je     3f78 <wstr_to_astr+0x1f8>
    3f08:	f7 c6 00 00 ff ff    	test   $0xffff0000,%esi
    3f0e:	74 77                	je     3f87 <wstr_to_astr+0x207>
    3f10:	f7 c6 00 00 e0 ff    	test   $0xffe00000,%esi
    3f16:	0f 85 64 ff ff ff    	jne    3e80 <wstr_to_astr+0x100>
    3f1c:	c6 45 cc f0          	movb   $0xf0,-0x34(%ebp)
    3f20:	c6 45 cb 07          	movb   $0x7,-0x35(%ebp)
    3f24:	b8 03 00 00 00       	mov    $0x3,%eax
    3f29:	8d 14 18             	lea    (%eax,%ebx,1),%edx
    3f2c:	89 55 c4             	mov    %edx,-0x3c(%ebp)
    3f2f:	8b 55 d0             	mov    -0x30(%ebp),%edx
    3f32:	39 55 c4             	cmp    %edx,-0x3c(%ebp)
    3f35:	73 5f                	jae    3f96 <wstr_to_astr+0x216>
    3f37:	8d 0c 1f             	lea    (%edi,%ebx,1),%ecx
    3f3a:	8d b6 00 00 00 00    	lea    0x0(%esi),%esi
    3f40:	89 f2                	mov    %esi,%edx
    3f42:	c1 ee 06             	shr    $0x6,%esi
    3f45:	83 e2 3f             	and    $0x3f,%edx
    3f48:	80 ca 80             	or     $0x80,%dl
    3f4b:	88 14 01             	mov    %dl,(%ecx,%eax,1)
    3f4e:	48                   	dec    %eax
    3f4f:	75 ef                	jne    3f40 <wstr_to_astr+0x1c0>
    3f51:	e9 fa fe ff ff       	jmp    3e50 <wstr_to_astr+0xd0>
    3f56:	66 90                	xchg   %ax,%ax
    3f58:	c6 45 d0 e0          	movb   $0xe0,-0x30(%ebp)
    3f5c:	c6 45 d4 0f          	movb   $0xf,-0x2c(%ebp)
    3f60:	c7 45 cc 03 00 00 00 	movl   $0x3,-0x34(%ebp)
    3f67:	b8 02 00 00 00       	mov    $0x2,%eax
    3f6c:	e9 5b ff ff ff       	jmp    3ecc <wstr_to_astr+0x14c>
    3f71:	8d b4 26 00 00 00 00 	lea    0x0(%esi,%eiz,1),%esi
    3f78:	c6 45 cc c0          	movb   $0xc0,-0x34(%ebp)
    3f7c:	c6 45 cb 1f          	movb   $0x1f,-0x35(%ebp)
    3f80:	b8 01 00 00 00       	mov    $0x1,%eax
    3f85:	eb a2                	jmp    3f29 <wstr_to_astr+0x1a9>
    3f87:	c6 45 cc e0          	movb   $0xe0,-0x34(%ebp)
    3f8b:	c6 45 cb 0f          	movb   $0xf,-0x35(%ebp)
    3f8f:	b8 02 00 00 00       	mov    $0x2,%eax
    3f94:	eb 93                	jmp    3f29 <wstr_to_astr+0x1a9>
    3f96:	89 d3                	mov    %edx,%ebx
    3f98:	e9 e6 fe ff ff       	jmp    3e83 <wstr_to_astr+0x103>
    3f9d:	8d 76 00             	lea    0x0(%esi),%esi

00003fa0 <str_to_wstr>:
    3fa0:	55                   	push   %ebp
    3fa1:	89 e5                	mov    %esp,%ebp
    3fa3:	57                   	push   %edi
    3fa4:	56                   	push   %esi
    3fa5:	53                   	push   %ebx
    3fa6:	83 ec 2c             	sub    $0x2c,%esp
    3fa9:	8b 45 0c             	mov    0xc(%ebp),%eax
    3fac:	8b 7d 10             	mov    0x10(%ebp),%edi
    3faf:	85 c0                	test   %eax,%eax
    3fb1:	0f 84 f2 00 00 00    	je     40a9 <str_to_wstr+0x109>
    3fb7:	c7 45 e4 01 00 00 00 	movl   $0x1,-0x1c(%ebp)
    3fbe:	31 c0                	xor    %eax,%eax
    3fc0:	eb 1d                	jmp    3fdf <str_to_wstr+0x3f>
    3fc2:	8d b6 00 00 00 00    	lea    0x0(%esi),%esi
    3fc8:	89 f0                	mov    %esi,%eax
    3fca:	8b 4d e4             	mov    -0x1c(%ebp),%ecx
    3fcd:	8b 5d 08             	mov    0x8(%ebp),%ebx
    3fd0:	85 d2                	test   %edx,%edx
    3fd2:	89 54 8b fc          	mov    %edx,-0x4(%ebx,%ecx,4)
    3fd6:	74 58                	je     4030 <str_to_wstr+0x90>
    3fd8:	8b 75 e4             	mov    -0x1c(%ebp),%esi
    3fdb:	46                   	inc    %esi
    3fdc:	89 75 e4             	mov    %esi,-0x1c(%ebp)
    3fdf:	8b 55 0c             	mov    0xc(%ebp),%edx
    3fe2:	39 55 e4             	cmp    %edx,-0x1c(%ebp)
    3fe5:	74 49                	je     4030 <str_to_wstr+0x90>
    3fe7:	0f be 14 07          	movsbl (%edi,%eax,1),%edx
    3feb:	8d 70 01             	lea    0x1(%eax),%esi
    3fee:	84 d2                	test   %dl,%dl
    3ff0:	79 d6                	jns    3fc8 <str_to_wstr+0x28>
    3ff2:	88 d1                	mov    %dl,%cl
    3ff4:	83 e1 e0             	and    $0xffffffe0,%ecx
    3ff7:	80 f9 c0             	cmp    $0xc0,%cl
    3ffa:	74 4a                	je     4046 <str_to_wstr+0xa6>
    3ffc:	88 d1                	mov    %dl,%cl
    3ffe:	83 e1 f0             	and    $0xfffffff0,%ecx
    4001:	80 f9 e0             	cmp    $0xe0,%cl
    4004:	0f 84 89 00 00 00    	je     4093 <str_to_wstr+0xf3>
    400a:	88 d1                	mov    %dl,%cl
    400c:	83 e1 f8             	and    $0xfffffff8,%ecx
    400f:	80 f9 f0             	cmp    $0xf0,%cl
    4012:	0f 84 86 00 00 00    	je     409e <str_to_wstr+0xfe>
    4018:	89 f0                	mov    %esi,%eax
    401a:	8b 55 e4             	mov    -0x1c(%ebp),%edx
    401d:	8b 4d 08             	mov    0x8(%ebp),%ecx
    4020:	c7 44 91 fc 3f 00 00 	movl   $0x3f,-0x4(%ecx,%edx,4)
    4027:	00 
    4028:	eb ae                	jmp    3fd8 <str_to_wstr+0x38>
    402a:	8d b6 00 00 00 00    	lea    0x0(%esi),%esi
    4030:	8b 5d 08             	mov    0x8(%ebp),%ebx
    4033:	8b 4d 0c             	mov    0xc(%ebp),%ecx
    4036:	c7 44 8b fc 00 00 00 	movl   $0x0,-0x4(%ebx,%ecx,4)
    403d:	00 
    403e:	83 c4 2c             	add    $0x2c,%esp
    4041:	5b                   	pop    %ebx
    4042:	5e                   	pop    %esi
    4043:	5f                   	pop    %edi
    4044:	5d                   	pop    %ebp
    4045:	c3                   	ret    
    4046:	b1 1f                	mov    $0x1f,%cl
    4048:	c7 45 dc 01 00 00 00 	movl   $0x1,-0x24(%ebp)
    404f:	21 ca                	and    %ecx,%edx
    4051:	8a 0c 37             	mov    (%edi,%esi,1),%cl
    4054:	88 cb                	mov    %cl,%bl
    4056:	81 e2 ff 00 00 00    	and    $0xff,%edx
    405c:	83 e3 c0             	and    $0xffffffc0,%ebx
    405f:	83 c0 02             	add    $0x2,%eax
    4062:	80 fb 80             	cmp    $0x80,%bl
    4065:	75 b3                	jne    401a <str_to_wstr+0x7a>
    4067:	8b 5d dc             	mov    -0x24(%ebp),%ebx
    406a:	01 de                	add    %ebx,%esi
    406c:	eb 10                	jmp    407e <str_to_wstr+0xde>
    406e:	66 90                	xchg   %ax,%ax
    4070:	8a 0c 07             	mov    (%edi,%eax,1),%cl
    4073:	40                   	inc    %eax
    4074:	88 cb                	mov    %cl,%bl
    4076:	83 e3 c0             	and    $0xffffffc0,%ebx
    4079:	80 fb 80             	cmp    $0x80,%bl
    407c:	75 9c                	jne    401a <str_to_wstr+0x7a>
    407e:	89 d3                	mov    %edx,%ebx
    4080:	89 ca                	mov    %ecx,%edx
    4082:	c1 e3 06             	shl    $0x6,%ebx
    4085:	83 e2 3f             	and    $0x3f,%edx
    4088:	09 da                	or     %ebx,%edx
    408a:	39 f0                	cmp    %esi,%eax
    408c:	75 e2                	jne    4070 <str_to_wstr+0xd0>
    408e:	e9 37 ff ff ff       	jmp    3fca <str_to_wstr+0x2a>
    4093:	b1 0f                	mov    $0xf,%cl
    4095:	c7 45 dc 02 00 00 00 	movl   $0x2,-0x24(%ebp)
    409c:	eb b1                	jmp    404f <str_to_wstr+0xaf>
    409e:	b1 07                	mov    $0x7,%cl
    40a0:	c7 45 dc 03 00 00 00 	movl   $0x3,-0x24(%ebp)
    40a7:	eb a6                	jmp    404f <str_to_wstr+0xaf>
    40a9:	c7 44 24 08 b9 03 00 	movl   $0x3b9,0x8(%esp)
    40b0:	00 
    40b1:	c7 44 24 04 93 eb 01 	movl   $0x1eb93,0x4(%esp)
    40b8:	00 
    40b9:	c7 04 24 cb eb 01 00 	movl   $0x1ebcb,(%esp)
    40c0:	e8 1b 59 01 00       	call   199e0 <assert_abort>
    40c5:	8d 74 26 00          	lea    0x0(%esi,%eiz,1),%esi
    40c9:	8d bc 27 00 00 00 00 	lea    0x0(%edi,%eiz,1),%edi

000040d0 <str_to_awstr>:
    40d0:	55                   	push   %ebp
    40d1:	89 e5                	mov    %esp,%ebp
    40d3:	57                   	push   %edi
    40d4:	56                   	push   %esi
    40d5:	53                   	push   %ebx
    40d6:	83 ec 2c             	sub    $0x2c,%esp
    40d9:	31 ff                	xor    %edi,%edi
    40db:	8b 5d 08             	mov    0x8(%ebp),%ebx
    40de:	c7 45 e4 00 00 00 00 	movl   $0x0,-0x1c(%ebp)
    40e5:	eb 0e                	jmp    40f5 <str_to_awstr+0x25>
    40e7:	90                   	nop
    40e8:	85 c0                	test   %eax,%eax
    40ea:	74 3f                	je     412b <str_to_awstr+0x5b>
    40ec:	8b 45 e4             	mov    -0x1c(%ebp),%eax
    40ef:	89 d7                	mov    %edx,%edi
    40f1:	40                   	inc    %eax
    40f2:	89 45 e4             	mov    %eax,-0x1c(%ebp)
    40f5:	0f be 04 3b          	movsbl (%ebx,%edi,1),%eax
    40f9:	8d 57 01             	lea    0x1(%edi),%edx
    40fc:	84 c0                	test   %al,%al
    40fe:	79 e8                	jns    40e8 <str_to_awstr+0x18>
    4100:	88 c1                	mov    %al,%cl
    4102:	83 e1 e0             	and    $0xffffffe0,%ecx
    4105:	80 f9 c0             	cmp    $0xc0,%cl
    4108:	74 57                	je     4161 <str_to_awstr+0x91>
    410a:	88 c1                	mov    %al,%cl
    410c:	83 e1 f0             	and    $0xfffffff0,%ecx
    410f:	80 f9 e0             	cmp    $0xe0,%cl
    4112:	0f 84 a9 00 00 00    	je     41c1 <str_to_awstr+0xf1>
    4118:	88 c1                	mov    %al,%cl
    411a:	83 e1 f8             	and    $0xfffffff8,%ecx
    411d:	80 f9 f0             	cmp    $0xf0,%cl
    4120:	75 ca                	jne    40ec <str_to_awstr+0x1c>
    4122:	b1 07                	mov    $0x7,%cl
    4124:	be 03 00 00 00       	mov    $0x3,%esi
    4129:	eb 3d                	jmp    4168 <str_to_awstr+0x98>
    412b:	8b 75 e4             	mov    -0x1c(%ebp),%esi
    412e:	c7 44 24 04 04 00 00 	movl   $0x4,0x4(%esp)
    4135:	00 
    4136:	46                   	inc    %esi
    4137:	89 34 24             	mov    %esi,(%esp)
    413a:	e8 f1 ac 00 00       	call   ee30 <calloc>
    413f:	85 c0                	test   %eax,%eax
    4141:	74 16                	je     4159 <str_to_awstr+0x89>
    4143:	89 04 24             	mov    %eax,(%esp)
    4146:	89 5c 24 08          	mov    %ebx,0x8(%esp)
    414a:	89 74 24 04          	mov    %esi,0x4(%esp)
    414e:	89 45 dc             	mov    %eax,-0x24(%ebp)
    4151:	e8 4a fe ff ff       	call   3fa0 <str_to_wstr>
    4156:	8b 45 dc             	mov    -0x24(%ebp),%eax
    4159:	83 c4 2c             	add    $0x2c,%esp
    415c:	5b                   	pop    %ebx
    415d:	5e                   	pop    %esi
    415e:	5f                   	pop    %edi
    415f:	5d                   	pop    %ebp
    4160:	c3                   	ret    
    4161:	b1 1f                	mov    $0x1f,%cl
    4163:	be 01 00 00 00       	mov    $0x1,%esi
    4168:	21 c8                	and    %ecx,%eax
    416a:	8a 0c 13             	mov    (%ebx,%edx,1),%cl
    416d:	83 c7 02             	add    $0x2,%edi
    4170:	88 4d db             	mov    %cl,-0x25(%ebp)
    4173:	83 e1 c0             	and    $0xffffffc0,%ecx
    4176:	25 ff 00 00 00       	and    $0xff,%eax
    417b:	89 7d e0             	mov    %edi,-0x20(%ebp)
    417e:	80 f9 80             	cmp    $0x80,%cl
    4181:	75 47                	jne    41ca <str_to_awstr+0xfa>
    4183:	8d 3c 32             	lea    (%edx,%esi,1),%edi
    4186:	8a 4d db             	mov    -0x25(%ebp),%cl
    4189:	8b 55 e0             	mov    -0x20(%ebp),%edx
    418c:	89 5d e0             	mov    %ebx,-0x20(%ebp)
    418f:	90                   	nop
    4190:	89 c6                	mov    %eax,%esi
    4192:	89 c8                	mov    %ecx,%eax
    4194:	c1 e6 06             	shl    $0x6,%esi
    4197:	83 e0 3f             	and    $0x3f,%eax
    419a:	09 f0                	or     %esi,%eax
    419c:	8b 5d e0             	mov    -0x20(%ebp),%ebx
    419f:	39 fa                	cmp    %edi,%edx
    41a1:	0f 84 41 ff ff ff    	je     40e8 <str_to_awstr+0x18>
    41a7:	8a 0c 13             	mov    (%ebx,%edx,1),%cl
    41aa:	be c0 ff ff ff       	mov    $0xffffffc0,%esi
    41af:	21 ce                	and    %ecx,%esi
    41b1:	42                   	inc    %edx
    41b2:	89 f3                	mov    %esi,%ebx
    41b4:	80 fb 80             	cmp    $0x80,%bl
    41b7:	74 d7                	je     4190 <str_to_awstr+0xc0>
    41b9:	8b 5d e0             	mov    -0x20(%ebp),%ebx
    41bc:	e9 2b ff ff ff       	jmp    40ec <str_to_awstr+0x1c>
    41c1:	b1 0f                	mov    $0xf,%cl
    41c3:	be 02 00 00 00       	mov    $0x2,%esi
    41c8:	eb 9e                	jmp    4168 <str_to_awstr+0x98>
    41ca:	89 fa                	mov    %edi,%edx
    41cc:	e9 1b ff ff ff       	jmp    40ec <str_to_awstr+0x1c>
    41d1:	eb 0d                	jmp    41e0 <str_chr>
    41d3:	90                   	nop
    41d4:	90                   	nop
    41d5:	90                   	nop
    41d6:	90                   	nop
    41d7:	90                   	nop
    41d8:	90                   	nop
    41d9:	90                   	nop
    41da:	90                   	nop
    41db:	90                   	nop
    41dc:	90                   	nop
    41dd:	90                   	nop
    41de:	90                   	nop
    41df:	90                   	nop

000041e0 <str_chr>:
    41e0:	55                   	push   %ebp
    41e1:	89 e5                	mov    %esp,%ebp
    41e3:	57                   	push   %edi
    41e4:	56                   	push   %esi
    41e5:	53                   	push   %ebx
    41e6:	83 ec 0c             	sub    $0xc,%esp
    41e9:	31 ff                	xor    %edi,%edi
    41eb:	8b 5d 08             	mov    0x8(%ebp),%ebx
    41ee:	eb 0f                	jmp    41ff <str_chr+0x1f>
    41f0:	85 c0                	test   %eax,%eax
    41f2:	0f 84 bf 00 00 00    	je     42b7 <str_chr+0xd7>
    41f8:	89 d7                	mov    %edx,%edi
    41fa:	39 45 0c             	cmp    %eax,0xc(%ebp)
    41fd:	74 42                	je     4241 <str_chr+0x61>
    41ff:	8d 04 3b             	lea    (%ebx,%edi,1),%eax
    4202:	8d 57 01             	lea    0x1(%edi),%edx
    4205:	89 45 f0             	mov    %eax,-0x10(%ebp)
    4208:	0f be 00             	movsbl (%eax),%eax
    420b:	84 c0                	test   %al,%al
    420d:	79 e1                	jns    41f0 <str_chr+0x10>
    420f:	88 c1                	mov    %al,%cl
    4211:	83 e1 e0             	and    $0xffffffe0,%ecx
    4214:	80 f9 c0             	cmp    $0xc0,%cl
    4217:	74 33                	je     424c <str_chr+0x6c>
    4219:	88 c1                	mov    %al,%cl
    421b:	83 e1 f0             	and    $0xfffffff0,%ecx
    421e:	80 f9 e0             	cmp    $0xe0,%cl
    4221:	0f 84 87 00 00 00    	je     42ae <str_chr+0xce>
    4227:	88 c1                	mov    %al,%cl
    4229:	83 e1 f8             	and    $0xfffffff8,%ecx
    422c:	80 f9 f0             	cmp    $0xf0,%cl
    422f:	0f 84 94 00 00 00    	je     42c9 <str_chr+0xe9>
    4235:	b8 3f 00 00 00       	mov    $0x3f,%eax
    423a:	89 d7                	mov    %edx,%edi
    423c:	39 45 0c             	cmp    %eax,0xc(%ebp)
    423f:	75 be                	jne    41ff <str_chr+0x1f>
    4241:	8b 45 f0             	mov    -0x10(%ebp),%eax
    4244:	83 c4 0c             	add    $0xc,%esp
    4247:	5b                   	pop    %ebx
    4248:	5e                   	pop    %esi
    4249:	5f                   	pop    %edi
    424a:	5d                   	pop    %ebp
    424b:	c3                   	ret    
    424c:	b1 1f                	mov    $0x1f,%cl
    424e:	be 01 00 00 00       	mov    $0x1,%esi
    4253:	21 c8                	and    %ecx,%eax
    4255:	8a 0c 13             	mov    (%ebx,%edx,1),%cl
    4258:	83 c7 02             	add    $0x2,%edi
    425b:	88 4d eb             	mov    %cl,-0x15(%ebp)
    425e:	83 e1 c0             	and    $0xffffffc0,%ecx
    4261:	25 ff 00 00 00       	and    $0xff,%eax
    4266:	89 7d ec             	mov    %edi,-0x14(%ebp)
    4269:	80 f9 80             	cmp    $0x80,%cl
    426c:	75 64                	jne    42d2 <str_chr+0xf2>
    426e:	8d 3c 32             	lea    (%edx,%esi,1),%edi
    4271:	8a 4d eb             	mov    -0x15(%ebp),%cl
    4274:	8b 55 ec             	mov    -0x14(%ebp),%edx
    4277:	89 5d ec             	mov    %ebx,-0x14(%ebp)
    427a:	8d b6 00 00 00 00    	lea    0x0(%esi),%esi
    4280:	89 c6                	mov    %eax,%esi
    4282:	89 c8                	mov    %ecx,%eax
    4284:	c1 e6 06             	shl    $0x6,%esi
    4287:	83 e0 3f             	and    $0x3f,%eax
    428a:	09 f0                	or     %esi,%eax
    428c:	8b 5d ec             	mov    -0x14(%ebp),%ebx
    428f:	39 fa                	cmp    %edi,%edx
    4291:	0f 84 59 ff ff ff    	je     41f0 <str_chr+0x10>
    4297:	8a 0c 13             	mov    (%ebx,%edx,1),%cl
    429a:	be c0 ff ff ff       	mov    $0xffffffc0,%esi
    429f:	21 ce                	and    %ecx,%esi
    42a1:	42                   	inc    %edx
    42a2:	89 f3                	mov    %esi,%ebx
    42a4:	80 fb 80             	cmp    $0x80,%bl
    42a7:	74 d7                	je     4280 <str_chr+0xa0>
    42a9:	8b 5d ec             	mov    -0x14(%ebp),%ebx
    42ac:	eb 87                	jmp    4235 <str_chr+0x55>
    42ae:	b1 0f                	mov    $0xf,%cl
    42b0:	be 02 00 00 00       	mov    $0x2,%esi
    42b5:	eb 9c                	jmp    4253 <str_chr+0x73>
    42b7:	c7 45 f0 00 00 00 00 	movl   $0x0,-0x10(%ebp)
    42be:	8b 45 f0             	mov    -0x10(%ebp),%eax
    42c1:	83 c4 0c             	add    $0xc,%esp
    42c4:	5b                   	pop    %ebx
    42c5:	5e                   	pop    %esi
    42c6:	5f                   	pop    %edi
    42c7:	5d                   	pop    %ebp
    42c8:	c3                   	ret    
    42c9:	b1 07                	mov    $0x7,%cl
    42cb:	be 03 00 00 00       	mov    $0x3,%esi
    42d0:	eb 81                	jmp    4253 <str_chr+0x73>
    42d2:	89 fa                	mov    %edi,%edx
    42d4:	e9 5c ff ff ff       	jmp    4235 <str_chr+0x55>
    42d9:	8d b4 26 00 00 00 00 	lea    0x0(%esi,%eiz,1),%esi

000042e0 <str_rtrim>:
    42e0:	55                   	push   %ebp
    42e1:	89 e5                	mov    %esp,%ebp
    42e3:	57                   	push   %edi
    42e4:	56                   	push   %esi
    42e5:	53                   	push   %ebx
    42e6:	83 ec 10             	sub    $0x10,%esp
    42e9:	31 ff                	xor    %edi,%edi
    42eb:	8b 5d 08             	mov    0x8(%ebp),%ebx
    42ee:	c7 45 e8 00 00 00 00 	movl   $0x0,-0x18(%ebp)
    42f5:	c6 45 ef 01          	movb   $0x1,-0x11(%ebp)
    42f9:	8d 57 01             	lea    0x1(%edi),%edx
    42fc:	8d 0c 3b             	lea    (%ebx,%edi,1),%ecx
    42ff:	89 4d f0             	mov    %ecx,-0x10(%ebp)
    4302:	0f be 01             	movsbl (%ecx),%eax
    4305:	84 c0                	test   %al,%al
    4307:	78 2d                	js     4336 <str_rtrim+0x56>
    4309:	8d b4 26 00 00 00 00 	lea    0x0(%esi,%eiz,1),%esi
    4310:	85 c0                	test   %eax,%eax
    4312:	74 66                	je     437a <str_rtrim+0x9a>
    4314:	39 45 0c             	cmp    %eax,0xc(%ebp)
    4317:	74 4d                	je     4366 <str_rtrim+0x86>
    4319:	c7 45 e8 00 00 00 00 	movl   $0x0,-0x18(%ebp)
    4320:	c6 45 ef 01          	movb   $0x1,-0x11(%ebp)
    4324:	89 d7                	mov    %edx,%edi
    4326:	8d 0c 3b             	lea    (%ebx,%edi,1),%ecx
    4329:	8d 57 01             	lea    0x1(%edi),%edx
    432c:	89 4d f0             	mov    %ecx,-0x10(%ebp)
    432f:	0f be 01             	movsbl (%ecx),%eax
    4332:	84 c0                	test   %al,%al
    4334:	79 da                	jns    4310 <str_rtrim+0x30>
    4336:	88 c1                	mov    %al,%cl
    4338:	83 e1 e0             	and    $0xffffffe0,%ecx
    433b:	80 f9 c0             	cmp    $0xc0,%cl
    433e:	74 4f                	je     438f <str_rtrim+0xaf>
    4340:	88 c1                	mov    %al,%cl
    4342:	83 e1 f0             	and    $0xfffffff0,%ecx
    4345:	80 f9 e0             	cmp    $0xe0,%cl
    4348:	0f 84 a3 00 00 00    	je     43f1 <str_rtrim+0x111>
    434e:	88 c1                	mov    %al,%cl
    4350:	83 e1 f8             	and    $0xfffffff8,%ecx
    4353:	80 f9 f0             	cmp    $0xf0,%cl
    4356:	0f 84 9e 00 00 00    	je     43fa <str_rtrim+0x11a>
    435c:	b8 3f 00 00 00       	mov    $0x3f,%eax
    4361:	39 45 0c             	cmp    %eax,0xc(%ebp)
    4364:	75 b3                	jne    4319 <str_rtrim+0x39>
    4366:	80 7d ef 00          	cmpb   $0x0,-0x11(%ebp)
    436a:	74 b8                	je     4324 <str_rtrim+0x44>
    436c:	8b 45 f0             	mov    -0x10(%ebp),%eax
    436f:	c6 45 ef 00          	movb   $0x0,-0x11(%ebp)
    4373:	89 45 e8             	mov    %eax,-0x18(%ebp)
    4376:	89 d7                	mov    %edx,%edi
    4378:	eb ac                	jmp    4326 <str_rtrim+0x46>
    437a:	8b 45 e8             	mov    -0x18(%ebp),%eax
    437d:	85 c0                	test   %eax,%eax
    437f:	74 06                	je     4387 <str_rtrim+0xa7>
    4381:	8b 45 e8             	mov    -0x18(%ebp),%eax
    4384:	c6 00 00             	movb   $0x0,(%eax)
    4387:	83 c4 10             	add    $0x10,%esp
    438a:	5b                   	pop    %ebx
    438b:	5e                   	pop    %esi
    438c:	5f                   	pop    %edi
    438d:	5d                   	pop    %ebp
    438e:	c3                   	ret    
    438f:	b1 1f                	mov    $0x1f,%cl
    4391:	be 01 00 00 00       	mov    $0x1,%esi
    4396:	21 c8                	and    %ecx,%eax
    4398:	8a 0c 13             	mov    (%ebx,%edx,1),%cl
    439b:	83 c7 02             	add    $0x2,%edi
    439e:	88 4d ee             	mov    %cl,-0x12(%ebp)
    43a1:	83 e1 c0             	and    $0xffffffc0,%ecx
    43a4:	25 ff 00 00 00       	and    $0xff,%eax
    43a9:	89 7d e4             	mov    %edi,-0x1c(%ebp)
    43ac:	80 f9 80             	cmp    $0x80,%cl
    43af:	75 52                	jne    4403 <str_rtrim+0x123>
    43b1:	8d 3c 32             	lea    (%edx,%esi,1),%edi
    43b4:	8a 4d ee             	mov    -0x12(%ebp),%cl
    43b7:	8b 55 e4             	mov    -0x1c(%ebp),%edx
    43ba:	89 5d e4             	mov    %ebx,-0x1c(%ebp)
    43bd:	8d 76 00             	lea    0x0(%esi),%esi
    43c0:	89 c6                	mov    %eax,%esi
    43c2:	89 c8                	mov    %ecx,%eax
    43c4:	c1 e6 06             	shl    $0x6,%esi
    43c7:	83 e0 3f             	and    $0x3f,%eax
    43ca:	09 f0                	or     %esi,%eax
    43cc:	8b 5d e4             	mov    -0x1c(%ebp),%ebx
    43cf:	39 fa                	cmp    %edi,%edx
    43d1:	0f 84 39 ff ff ff    	je     4310 <str_rtrim+0x30>
    43d7:	8a 0c 13             	mov    (%ebx,%edx,1),%cl
    43da:	be c0 ff ff ff       	mov    $0xffffffc0,%esi
    43df:	21 ce                	and    %ecx,%esi
    43e1:	42                   	inc    %edx
    43e2:	89 f3                	mov    %esi,%ebx
    43e4:	80 fb 80             	cmp    $0x80,%bl
    43e7:	74 d7                	je     43c0 <str_rtrim+0xe0>
    43e9:	8b 5d e4             	mov    -0x1c(%ebp),%ebx
    43ec:	e9 6b ff ff ff       	jmp    435c <str_rtrim+0x7c>
    43f1:	b1 0f                	mov    $0xf,%cl
    43f3:	be 02 00 00 00       	mov    $0x2,%esi
    43f8:	eb 9c                	jmp    4396 <str_rtrim+0xb6>
    43fa:	b1 07                	mov    $0x7,%cl
    43fc:	be 03 00 00 00       	mov    $0x3,%esi
    4401:	eb 93                	jmp    4396 <str_rtrim+0xb6>
    4403:	89 fa                	mov    %edi,%edx
    4405:	e9 52 ff ff ff       	jmp    435c <str_rtrim+0x7c>
    440a:	8d b6 00 00 00 00    	lea    0x0(%esi),%esi

00004410 <str_ltrim>:
    4410:	55                   	push   %ebp
    4411:	89 e5                	mov    %esp,%ebp
    4413:	57                   	push   %edi
    4414:	56                   	push   %esi
    4415:	53                   	push   %ebx
    4416:	83 ec 3c             	sub    $0x3c,%esp
    4419:	c7 45 d8 00 00 00 00 	movl   $0x0,-0x28(%ebp)
    4420:	8b 7d 08             	mov    0x8(%ebp),%edi
    4423:	80 3f 00             	cmpb   $0x0,(%edi)
    4426:	74 12                	je     443a <str_ltrim+0x2a>
    4428:	31 c0                	xor    %eax,%eax
    442a:	8d b6 00 00 00 00    	lea    0x0(%esi),%esi
    4430:	40                   	inc    %eax
    4431:	80 3c 07 00          	cmpb   $0x0,(%edi,%eax,1)
    4435:	75 f9                	jne    4430 <str_ltrim+0x20>
    4437:	89 45 d8             	mov    %eax,-0x28(%ebp)
    443a:	c7 45 e4 00 00 00 00 	movl   $0x0,-0x1c(%ebp)
    4441:	8b 55 e4             	mov    -0x1c(%ebp),%edx
    4444:	8b 4d e4             	mov    -0x1c(%ebp),%ecx
    4447:	eb 15                	jmp    445e <str_ltrim+0x4e>
    4449:	8d b4 26 00 00 00 00 	lea    0x0(%esi,%eiz,1),%esi
    4450:	85 c0                	test   %eax,%eax
    4452:	74 47                	je     449b <str_ltrim+0x8b>
    4454:	39 45 0c             	cmp    %eax,0xc(%ebp)
    4457:	75 42                	jne    449b <str_ltrim+0x8b>
    4459:	89 55 e4             	mov    %edx,-0x1c(%ebp)
    445c:	89 d1                	mov    %edx,%ecx
    445e:	01 f9                	add    %edi,%ecx
    4460:	42                   	inc    %edx
    4461:	89 4d e0             	mov    %ecx,-0x20(%ebp)
    4464:	0f be 01             	movsbl (%ecx),%eax
    4467:	84 c0                	test   %al,%al
    4469:	79 e5                	jns    4450 <str_ltrim+0x40>
    446b:	88 c1                	mov    %al,%cl
    446d:	83 e1 e0             	and    $0xffffffe0,%ecx
    4470:	80 f9 c0             	cmp    $0xc0,%cl
    4473:	74 53                	je     44c8 <str_ltrim+0xb8>
    4475:	88 c1                	mov    %al,%cl
    4477:	83 e1 f0             	and    $0xfffffff0,%ecx
    447a:	80 f9 e0             	cmp    $0xe0,%cl
    447d:	0f 84 98 00 00 00    	je     451b <str_ltrim+0x10b>
    4483:	88 c1                	mov    %al,%cl
    4485:	83 e1 f8             	and    $0xfffffff8,%ecx
    4488:	80 f9 f0             	cmp    $0xf0,%cl
    448b:	0f 84 93 00 00 00    	je     4524 <str_ltrim+0x114>
    4491:	b8 3f 00 00 00       	mov    $0x3f,%eax
    4496:	39 45 0c             	cmp    %eax,0xc(%ebp)
    4499:	74 be                	je     4459 <str_ltrim+0x49>
    449b:	8b 4d e4             	mov    -0x1c(%ebp),%ecx
    449e:	85 c9                	test   %ecx,%ecx
    44a0:	74 1e                	je     44c0 <str_ltrim+0xb0>
    44a2:	8b 45 d8             	mov    -0x28(%ebp),%eax
    44a5:	8b 55 e4             	mov    -0x1c(%ebp),%edx
    44a8:	8b 5d e0             	mov    -0x20(%ebp),%ebx
    44ab:	29 d0                	sub    %edx,%eax
    44ad:	89 44 24 08          	mov    %eax,0x8(%esp)
    44b1:	89 5c 24 04          	mov    %ebx,0x4(%esp)
    44b5:	89 3c 24             	mov    %edi,(%esp)
    44b8:	e8 e3 8b 01 00       	call   1d0a0 <memmove>
    44bd:	c6 03 00             	movb   $0x0,(%ebx)
    44c0:	83 c4 3c             	add    $0x3c,%esp
    44c3:	5b                   	pop    %ebx
    44c4:	5e                   	pop    %esi
    44c5:	5f                   	pop    %edi
    44c6:	5d                   	pop    %ebp
    44c7:	c3                   	ret    
    44c8:	b1 1f                	mov    $0x1f,%cl
    44ca:	be 01 00 00 00       	mov    $0x1,%esi
    44cf:	8b 5d e4             	mov    -0x1c(%ebp),%ebx
    44d2:	21 c8                	and    %ecx,%eax
    44d4:	83 c3 02             	add    $0x2,%ebx
    44d7:	8a 0c 17             	mov    (%edi,%edx,1),%cl
    44da:	89 5d d4             	mov    %ebx,-0x2c(%ebp)
    44dd:	88 cb                	mov    %cl,%bl
    44df:	83 e3 c0             	and    $0xffffffc0,%ebx
    44e2:	25 ff 00 00 00       	and    $0xff,%eax
    44e7:	80 fb 80             	cmp    $0x80,%bl
    44ea:	75 41                	jne    452d <str_ltrim+0x11d>
    44ec:	01 d6                	add    %edx,%esi
    44ee:	8b 55 d4             	mov    -0x2c(%ebp),%edx
    44f1:	eb 13                	jmp    4506 <str_ltrim+0xf6>
    44f3:	90                   	nop
    44f4:	8d 74 26 00          	lea    0x0(%esi,%eiz,1),%esi
    44f8:	8a 0c 17             	mov    (%edi,%edx,1),%cl
    44fb:	42                   	inc    %edx
    44fc:	88 cb                	mov    %cl,%bl
    44fe:	83 e3 c0             	and    $0xffffffc0,%ebx
    4501:	80 fb 80             	cmp    $0x80,%bl
    4504:	75 8b                	jne    4491 <str_ltrim+0x81>
    4506:	89 c3                	mov    %eax,%ebx
    4508:	89 c8                	mov    %ecx,%eax
    450a:	c1 e3 06             	shl    $0x6,%ebx
    450d:	83 e0 3f             	and    $0x3f,%eax
    4510:	09 d8                	or     %ebx,%eax
    4512:	39 f2                	cmp    %esi,%edx
    4514:	75 e2                	jne    44f8 <str_ltrim+0xe8>
    4516:	e9 35 ff ff ff       	jmp    4450 <str_ltrim+0x40>
    451b:	b1 0f                	mov    $0xf,%cl
    451d:	be 02 00 00 00       	mov    $0x2,%esi
    4522:	eb ab                	jmp    44cf <str_ltrim+0xbf>
    4524:	b1 07                	mov    $0x7,%cl
    4526:	be 03 00 00 00       	mov    $0x3,%esi
    452b:	eb a2                	jmp    44cf <str_ltrim+0xbf>
    452d:	8b 55 d4             	mov    -0x2c(%ebp),%edx
    4530:	e9 5c ff ff ff       	jmp    4491 <str_ltrim+0x81>
    4535:	8d 74 26 00          	lea    0x0(%esi,%eiz,1),%esi
    4539:	8d bc 27 00 00 00 00 	lea    0x0(%edi,%eiz,1),%edi

00004540 <str_rchr>:
    4540:	55                   	push   %ebp
    4541:	89 e5                	mov    %esp,%ebp
    4543:	57                   	push   %edi
    4544:	56                   	push   %esi
    4545:	53                   	push   %ebx
    4546:	83 ec 10             	sub    $0x10,%esp
    4549:	31 ff                	xor    %edi,%edi
    454b:	8b 5d 08             	mov    0x8(%ebp),%ebx
    454e:	c7 45 ec 00 00 00 00 	movl   $0x0,-0x14(%ebp)
    4555:	8d 57 01             	lea    0x1(%edi),%edx
    4558:	8d 0c 3b             	lea    (%ebx,%edi,1),%ecx
    455b:	89 4d f0             	mov    %ecx,-0x10(%ebp)
    455e:	0f be 01             	movsbl (%ecx),%eax
    4561:	84 c0                	test   %al,%al
    4563:	78 1e                	js     4583 <str_rchr+0x43>
    4565:	8d 76 00             	lea    0x0(%esi),%esi
    4568:	85 c0                	test   %eax,%eax
    456a:	74 51                	je     45bd <str_rchr+0x7d>
    456c:	39 45 0c             	cmp    %eax,0xc(%ebp)
    456f:	74 42                	je     45b3 <str_rchr+0x73>
    4571:	89 d7                	mov    %edx,%edi
    4573:	8d 0c 3b             	lea    (%ebx,%edi,1),%ecx
    4576:	8d 57 01             	lea    0x1(%edi),%edx
    4579:	89 4d f0             	mov    %ecx,-0x10(%ebp)
    457c:	0f be 01             	movsbl (%ecx),%eax
    457f:	84 c0                	test   %al,%al
    4581:	79 e5                	jns    4568 <str_rchr+0x28>
    4583:	88 c1                	mov    %al,%cl
    4585:	83 e1 e0             	and    $0xffffffe0,%ecx
    4588:	80 f9 c0             	cmp    $0xc0,%cl
    458b:	74 3b                	je     45c8 <str_rchr+0x88>
    458d:	88 c1                	mov    %al,%cl
    458f:	83 e1 f0             	and    $0xfffffff0,%ecx
    4592:	80 f9 e0             	cmp    $0xe0,%cl
    4595:	0f 84 8b 00 00 00    	je     4626 <str_rchr+0xe6>
    459b:	88 c1                	mov    %al,%cl
    459d:	83 e1 f8             	and    $0xfffffff8,%ecx
    45a0:	80 f9 f0             	cmp    $0xf0,%cl
    45a3:	0f 84 86 00 00 00    	je     462f <str_rchr+0xef>
    45a9:	b8 3f 00 00 00       	mov    $0x3f,%eax
    45ae:	39 45 0c             	cmp    %eax,0xc(%ebp)
    45b1:	75 be                	jne    4571 <str_rchr+0x31>
    45b3:	8b 45 f0             	mov    -0x10(%ebp),%eax
    45b6:	89 d7                	mov    %edx,%edi
    45b8:	89 45 ec             	mov    %eax,-0x14(%ebp)
    45bb:	eb b6                	jmp    4573 <str_rchr+0x33>
    45bd:	8b 45 ec             	mov    -0x14(%ebp),%eax
    45c0:	83 c4 10             	add    $0x10,%esp
    45c3:	5b                   	pop    %ebx
    45c4:	5e                   	pop    %esi
    45c5:	5f                   	pop    %edi
    45c6:	5d                   	pop    %ebp
    45c7:	c3                   	ret    
    45c8:	b1 1f                	mov    $0x1f,%cl
    45ca:	be 01 00 00 00       	mov    $0x1,%esi
    45cf:	21 c8                	and    %ecx,%eax
    45d1:	8a 0c 13             	mov    (%ebx,%edx,1),%cl
    45d4:	83 c7 02             	add    $0x2,%edi
    45d7:	88 4d e7             	mov    %cl,-0x19(%ebp)
    45da:	83 e1 c0             	and    $0xffffffc0,%ecx
    45dd:	25 ff 00 00 00       	and    $0xff,%eax
    45e2:	89 7d e8             	mov    %edi,-0x18(%ebp)
    45e5:	80 f9 80             	cmp    $0x80,%cl
    45e8:	75 4e                	jne    4638 <str_rchr+0xf8>
    45ea:	8d 3c 32             	lea    (%edx,%esi,1),%edi
    45ed:	8a 4d e7             	mov    -0x19(%ebp),%cl
    45f0:	8b 55 e8             	mov    -0x18(%ebp),%edx
    45f3:	89 5d e8             	mov    %ebx,-0x18(%ebp)
    45f6:	66 90                	xchg   %ax,%ax
    45f8:	89 c6                	mov    %eax,%esi
    45fa:	89 c8                	mov    %ecx,%eax
    45fc:	c1 e6 06             	shl    $0x6,%esi
    45ff:	83 e0 3f             	and    $0x3f,%eax
    4602:	09 f0                	or     %esi,%eax
    4604:	8b 5d e8             	mov    -0x18(%ebp),%ebx
    4607:	39 fa                	cmp    %edi,%edx
    4609:	0f 84 59 ff ff ff    	je     4568 <str_rchr+0x28>
    460f:	8a 0c 13             	mov    (%ebx,%edx,1),%cl
    4612:	be c0 ff ff ff       	mov    $0xffffffc0,%esi
    4617:	21 ce                	and    %ecx,%esi
    4619:	42                   	inc    %edx
    461a:	89 f3                	mov    %esi,%ebx
    461c:	80 fb 80             	cmp    $0x80,%bl
    461f:	74 d7                	je     45f8 <str_rchr+0xb8>
    4621:	8b 5d e8             	mov    -0x18(%ebp),%ebx
    4624:	eb 83                	jmp    45a9 <str_rchr+0x69>
    4626:	b1 0f                	mov    $0xf,%cl
    4628:	be 02 00 00 00       	mov    $0x2,%esi
    462d:	eb a0                	jmp    45cf <str_rchr+0x8f>
    462f:	b1 07                	mov    $0x7,%cl
    4631:	be 03 00 00 00       	mov    $0x3,%esi
    4636:	eb 97                	jmp    45cf <str_rchr+0x8f>
    4638:	89 fa                	mov    %edi,%edx
    463a:	e9 6a ff ff ff       	jmp    45a9 <str_rchr+0x69>
    463f:	90                   	nop

00004640 <wstr_linsert>:
    4640:	55                   	push   %ebp
    4641:	31 d2                	xor    %edx,%edx
    4643:	89 e5                	mov    %esp,%ebp
    4645:	57                   	push   %edi
    4646:	56                   	push   %esi
    4647:	53                   	push   %ebx
    4648:	8b 4d 08             	mov    0x8(%ebp),%ecx
    464b:	8b 75 10             	mov    0x10(%ebp),%esi
    464e:	8b 39                	mov    (%ecx),%edi
    4650:	85 ff                	test   %edi,%edi
    4652:	74 0c                	je     4660 <wstr_linsert+0x20>
    4654:	8d 74 26 00          	lea    0x0(%esi,%eiz,1),%esi
    4658:	42                   	inc    %edx
    4659:	8b 1c 91             	mov    (%ecx,%edx,4),%ebx
    465c:	85 db                	test   %ebx,%ebx
    465e:	75 f8                	jne    4658 <wstr_linsert+0x18>
    4660:	31 c0                	xor    %eax,%eax
    4662:	39 d6                	cmp    %edx,%esi
    4664:	77 33                	ja     4699 <wstr_linsert+0x59>
    4666:	8d 5e 01             	lea    0x1(%esi),%ebx
    4669:	3b 5d 14             	cmp    0x14(%ebp),%ebx
    466c:	77 2b                	ja     4699 <wstr_linsert+0x59>
    466e:	8d 42 01             	lea    0x1(%edx),%eax
    4671:	8d 5e ff             	lea    -0x1(%esi),%ebx
    4674:	39 c6                	cmp    %eax,%esi
    4676:	72 0a                	jb     4682 <wstr_linsert+0x42>
    4678:	eb 17                	jmp    4691 <wstr_linsert+0x51>
    467a:	8d b6 00 00 00 00    	lea    0x0(%esi),%esi
    4680:	89 fa                	mov    %edi,%edx
    4682:	8b 3c 91             	mov    (%ecx,%edx,4),%edi
    4685:	89 3c 81             	mov    %edi,(%ecx,%eax,4)
    4688:	8d 7a ff             	lea    -0x1(%edx),%edi
    468b:	89 d0                	mov    %edx,%eax
    468d:	39 df                	cmp    %ebx,%edi
    468f:	75 ef                	jne    4680 <wstr_linsert+0x40>
    4691:	8b 45 0c             	mov    0xc(%ebp),%eax
    4694:	89 04 b1             	mov    %eax,(%ecx,%esi,4)
    4697:	b0 01                	mov    $0x1,%al
    4699:	5b                   	pop    %ebx
    469a:	5e                   	pop    %esi
    469b:	5f                   	pop    %edi
    469c:	5d                   	pop    %ebp
    469d:	c3                   	ret    
    469e:	66 90                	xchg   %ax,%ax

000046a0 <wstr_remove>:
    46a0:	55                   	push   %ebp
    46a1:	89 e5                	mov    %esp,%ebp
    46a3:	53                   	push   %ebx
    46a4:	8b 4d 08             	mov    0x8(%ebp),%ecx
    46a7:	8b 19                	mov    (%ecx),%ebx
    46a9:	85 db                	test   %ebx,%ebx
    46ab:	74 33                	je     46e0 <wstr_remove+0x40>
    46ad:	31 c0                	xor    %eax,%eax
    46af:	90                   	nop
    46b0:	40                   	inc    %eax
    46b1:	8b 14 81             	mov    (%ecx,%eax,4),%edx
    46b4:	85 d2                	test   %edx,%edx
    46b6:	75 f8                	jne    46b0 <wstr_remove+0x10>
    46b8:	39 45 0c             	cmp    %eax,0xc(%ebp)
    46bb:	73 23                	jae    46e0 <wstr_remove+0x40>
    46bd:	8b 55 0c             	mov    0xc(%ebp),%edx
    46c0:	42                   	inc    %edx
    46c1:	39 c2                	cmp    %eax,%edx
    46c3:	77 0f                	ja     46d4 <wstr_remove+0x34>
    46c5:	8d 76 00             	lea    0x0(%esi),%esi
    46c8:	8b 1c 91             	mov    (%ecx,%edx,4),%ebx
    46cb:	89 5c 91 fc          	mov    %ebx,-0x4(%ecx,%edx,4)
    46cf:	42                   	inc    %edx
    46d0:	39 c2                	cmp    %eax,%edx
    46d2:	76 f4                	jbe    46c8 <wstr_remove+0x28>
    46d4:	b0 01                	mov    $0x1,%al
    46d6:	5b                   	pop    %ebx
    46d7:	5d                   	pop    %ebp
    46d8:	c3                   	ret    
    46d9:	8d b4 26 00 00 00 00 	lea    0x0(%esi,%eiz,1),%esi
    46e0:	31 c0                	xor    %eax,%eax
    46e2:	5b                   	pop    %ebx
    46e3:	5d                   	pop    %ebp
    46e4:	c3                   	ret    
    46e5:	8d 74 26 00          	lea    0x0(%esi,%eiz,1),%esi
    46e9:	8d bc 27 00 00 00 00 	lea    0x0(%edi,%eiz,1),%edi

000046f0 <stricmp>:
    46f0:	55                   	push   %ebp
    46f1:	89 e5                	mov    %esp,%ebp
    46f3:	57                   	push   %edi
    46f4:	56                   	push   %esi
    46f5:	53                   	push   %ebx
    46f6:	57                   	push   %edi
    46f7:	8b 55 08             	mov    0x8(%ebp),%edx
    46fa:	0f be 02             	movsbl (%edx),%eax
    46fd:	84 c0                	test   %al,%al
    46ff:	74 7c                	je     477d <stricmp+0x8d>
    4701:	8b 5d 0c             	mov    0xc(%ebp),%ebx
    4704:	31 d2                	xor    %edx,%edx
    4706:	c7 45 f0 00 00 00 00 	movl   $0x0,-0x10(%ebp)
    470d:	8d 70 bf             	lea    -0x41(%eax),%esi
    4710:	0f be 0b             	movsbl (%ebx),%ecx
    4713:	84 c9                	test   %cl,%cl
    4715:	75 23                	jne    473a <stricmp+0x4a>
    4717:	eb 46                	jmp    475f <stricmp+0x6f>
    4719:	8d b4 26 00 00 00 00 	lea    0x0(%esi,%eiz,1),%esi
    4720:	42                   	inc    %edx
    4721:	8b 4d 08             	mov    0x8(%ebp),%ecx
    4724:	89 55 f0             	mov    %edx,-0x10(%ebp)
    4727:	0f be 04 11          	movsbl (%ecx,%edx,1),%eax
    472b:	84 c0                	test   %al,%al
    472d:	74 59                	je     4788 <stricmp+0x98>
    472f:	8b 5d 0c             	mov    0xc(%ebp),%ebx
    4732:	0f be 0c 13          	movsbl (%ebx,%edx,1),%ecx
    4736:	84 c9                	test   %cl,%cl
    4738:	74 5e                	je     4798 <stricmp+0xa8>
    473a:	8d 70 bf             	lea    -0x41(%eax),%esi
    473d:	89 c3                	mov    %eax,%ebx
    473f:	83 fe 19             	cmp    $0x19,%esi
    4742:	77 03                	ja     4747 <stricmp+0x57>
    4744:	8d 58 20             	lea    0x20(%eax),%ebx
    4747:	8d 79 bf             	lea    -0x41(%ecx),%edi
    474a:	83 ff 19             	cmp    $0x19,%edi
    474d:	77 03                	ja     4752 <stricmp+0x62>
    474f:	83 c1 20             	add    $0x20,%ecx
    4752:	39 cb                	cmp    %ecx,%ebx
    4754:	74 ca                	je     4720 <stricmp+0x30>
    4756:	8b 5d 0c             	mov    0xc(%ebp),%ebx
    4759:	8b 4d f0             	mov    -0x10(%ebp),%ecx
    475c:	8a 14 0b             	mov    (%ebx,%ecx,1),%dl
    475f:	83 fe 19             	cmp    $0x19,%esi
    4762:	77 03                	ja     4767 <stricmp+0x77>
    4764:	83 c0 20             	add    $0x20,%eax
    4767:	0f be d2             	movsbl %dl,%edx
    476a:	8d 4a bf             	lea    -0x41(%edx),%ecx
    476d:	83 f9 19             	cmp    $0x19,%ecx
    4770:	77 03                	ja     4775 <stricmp+0x85>
    4772:	83 c2 20             	add    $0x20,%edx
    4775:	5e                   	pop    %esi
    4776:	29 d0                	sub    %edx,%eax
    4778:	5b                   	pop    %ebx
    4779:	5e                   	pop    %esi
    477a:	5f                   	pop    %edi
    477b:	5d                   	pop    %ebp
    477c:	c3                   	ret    
    477d:	c7 45 f0 00 00 00 00 	movl   $0x0,-0x10(%ebp)
    4784:	8d 74 26 00          	lea    0x0(%esi,%eiz,1),%esi
    4788:	8b 45 f0             	mov    -0x10(%ebp),%eax
    478b:	8b 4d 0c             	mov    0xc(%ebp),%ecx
    478e:	8a 14 01             	mov    (%ecx,%eax,1),%dl
    4791:	31 c0                	xor    %eax,%eax
    4793:	eb d2                	jmp    4767 <stricmp+0x77>
    4795:	8d 76 00             	lea    0x0(%esi),%esi
    4798:	8d 70 bf             	lea    -0x41(%eax),%esi
    479b:	31 d2                	xor    %edx,%edx
    479d:	eb c0                	jmp    475f <stricmp+0x6f>
    479f:	90                   	nop

000047a0 <strtol>:
    47a0:	55                   	push   %ebp
    47a1:	89 e5                	mov    %esp,%ebp
    47a3:	83 ec 14             	sub    $0x14,%esp
    47a6:	8d 45 fc             	lea    -0x4(%ebp),%eax
    47a9:	8b 4d 10             	mov    0x10(%ebp),%ecx
    47ac:	89 04 24             	mov    %eax,(%esp)
    47af:	8b 55 0c             	mov    0xc(%ebp),%edx
    47b2:	8b 45 08             	mov    0x8(%ebp),%eax
    47b5:	c6 45 fc 00          	movb   $0x0,-0x4(%ebp)
    47b9:	e8 d2 d7 ff ff       	call   1f90 <_strtoul>
    47be:	85 c0                	test   %eax,%eax
    47c0:	78 0e                	js     47d0 <strtol+0x30>
    47c2:	80 7d fc 00          	cmpb   $0x0,-0x4(%ebp)
    47c6:	74 02                	je     47ca <strtol+0x2a>
    47c8:	f7 d8                	neg    %eax
    47ca:	c9                   	leave  
    47cb:	c3                   	ret    
    47cc:	8d 74 26 00          	lea    0x0(%esi,%eiz,1),%esi
    47d0:	80 7d fc 01          	cmpb   $0x1,-0x4(%ebp)
    47d4:	19 c0                	sbb    %eax,%eax
    47d6:	c9                   	leave  
    47d7:	80 e4 ff             	and    $0xff,%ah
    47da:	05 00 00 00 80       	add    $0x80000000,%eax
    47df:	c3                   	ret    

000047e0 <str_dup>:
    47e0:	55                   	push   %ebp
    47e1:	89 e5                	mov    %esp,%ebp
    47e3:	56                   	push   %esi
    47e4:	53                   	push   %ebx
    47e5:	83 ec 20             	sub    $0x20,%esp
    47e8:	8b 5d 08             	mov    0x8(%ebp),%ebx
    47eb:	80 3b 00             	cmpb   $0x0,(%ebx)
    47ee:	74 3b                	je     482b <str_dup+0x4b>
    47f0:	31 c0                	xor    %eax,%eax
    47f2:	8d b6 00 00 00 00    	lea    0x0(%esi),%esi
    47f8:	40                   	inc    %eax
    47f9:	80 3c 03 00          	cmpb   $0x0,(%ebx,%eax,1)
    47fd:	75 f9                	jne    47f8 <str_dup+0x18>
    47ff:	8d 70 01             	lea    0x1(%eax),%esi
    4802:	89 34 24             	mov    %esi,(%esp)
    4805:	e8 86 a6 00 00       	call   ee90 <malloc>
    480a:	85 c0                	test   %eax,%eax
    480c:	74 16                	je     4824 <str_dup+0x44>
    480e:	89 04 24             	mov    %eax,(%esp)
    4811:	89 5c 24 08          	mov    %ebx,0x8(%esp)
    4815:	89 74 24 04          	mov    %esi,0x4(%esp)
    4819:	89 45 f4             	mov    %eax,-0xc(%ebp)
    481c:	e8 cf eb ff ff       	call   33f0 <str_cpy>
    4821:	8b 45 f4             	mov    -0xc(%ebp),%eax
    4824:	83 c4 20             	add    $0x20,%esp
    4827:	5b                   	pop    %ebx
    4828:	5e                   	pop    %esi
    4829:	5d                   	pop    %ebp
    482a:	c3                   	ret    
    482b:	be 01 00 00 00       	mov    $0x1,%esi
    4830:	eb d0                	jmp    4802 <str_dup+0x22>
    4832:	8d b4 26 00 00 00 00 	lea    0x0(%esi,%eiz,1),%esi
    4839:	8d bc 27 00 00 00 00 	lea    0x0(%edi,%eiz,1),%edi

00004840 <str_ndup>:
    4840:	55                   	push   %ebp
    4841:	89 e5                	mov    %esp,%ebp
    4843:	57                   	push   %edi
    4844:	56                   	push   %esi
    4845:	53                   	push   %ebx
    4846:	83 ec 2c             	sub    $0x2c,%esp
    4849:	8b 5d 08             	mov    0x8(%ebp),%ebx
    484c:	80 3b 00             	cmpb   $0x0,(%ebx)
    484f:	74 4c                	je     489d <str_ndup+0x5d>
    4851:	31 c0                	xor    %eax,%eax
    4853:	90                   	nop
    4854:	8d 74 26 00          	lea    0x0(%esi,%eiz,1),%esi
    4858:	40                   	inc    %eax
    4859:	80 3c 03 00          	cmpb   $0x0,(%ebx,%eax,1)
    485d:	75 f9                	jne    4858 <str_ndup+0x18>
    485f:	89 c6                	mov    %eax,%esi
    4861:	3b 45 0c             	cmp    0xc(%ebp),%eax
    4864:	77 32                	ja     4898 <str_ndup+0x58>
    4866:	8d 7e 01             	lea    0x1(%esi),%edi
    4869:	89 3c 24             	mov    %edi,(%esp)
    486c:	e8 1f a6 00 00       	call   ee90 <malloc>
    4871:	85 c0                	test   %eax,%eax
    4873:	74 1a                	je     488f <str_ndup+0x4f>
    4875:	89 04 24             	mov    %eax,(%esp)
    4878:	89 74 24 0c          	mov    %esi,0xc(%esp)
    487c:	89 5c 24 08          	mov    %ebx,0x8(%esp)
    4880:	89 7c 24 04          	mov    %edi,0x4(%esp)
    4884:	89 45 e4             	mov    %eax,-0x1c(%ebp)
    4887:	e8 54 ed ff ff       	call   35e0 <str_ncpy>
    488c:	8b 45 e4             	mov    -0x1c(%ebp),%eax
    488f:	83 c4 2c             	add    $0x2c,%esp
    4892:	5b                   	pop    %ebx
    4893:	5e                   	pop    %esi
    4894:	5f                   	pop    %edi
    4895:	5d                   	pop    %ebp
    4896:	c3                   	ret    
    4897:	90                   	nop
    4898:	8b 75 0c             	mov    0xc(%ebp),%esi
    489b:	eb c9                	jmp    4866 <str_ndup+0x26>
    489d:	31 f6                	xor    %esi,%esi
    489f:	bf 01 00 00 00       	mov    $0x1,%edi
