
ethip:     file format elf32-i386


Disassembly of section .init:

00001094 <__entry>:
    1094:	66 8c d0             	mov    %ss,%ax
    1097:	8e d8                	mov    %eax,%ds
    1099:	8e c0                	mov    %eax,%es
    109b:	8e e0                	mov    %eax,%fs
    109d:	b8 01 00 00 00       	mov    $0x1,%eax
    10a2:	0f a2                	cpuid  
    10a4:	0f ba e2 0b          	bt     $0xb,%edx
    10a8:	73 0c                	jae    10b6 <__entry+0x22>
    10aa:	8d 05 b4 4e 02 00    	lea    0x24eb4,%eax
    10b0:	c7 00 d7 f6 01 00    	movl   $0x1f6d7,(%eax)
    10b6:	6a 00                	push   $0x0
    10b8:	89 e5                	mov    %esp,%ebp
    10ba:	57                   	push   %edi
    10bb:	e8 30 1d 00 00       	call   2df0 <__main>

Disassembly of section .text:

000010c0 <arp_send_packet>:
    10c0:	55                   	push   %ebp
    10c1:	89 e5                	mov    %esp,%ebp
    10c3:	56                   	push   %esi
    10c4:	53                   	push   %ebx
    10c5:	89 d6                	mov    %edx,%esi
    10c7:	83 ec 50             	sub    $0x50,%esp
    10ca:	89 c3                	mov    %eax,%ebx
    10cc:	c7 44 24 08 42 1a 02 	movl   $0x21a42,0x8(%esp)
    10d3:	00 
    10d4:	c7 44 24 04 04 00 00 	movl   $0x4,0x4(%esp)
    10db:	00 
    10dc:	c7 04 24 ff ff ff ff 	movl   $0xffffffff,(%esp)
    10e3:	e8 f8 e9 00 00       	call   fae0 <log_msg>
    10e8:	8d 45 d0             	lea    -0x30(%ebp),%eax
    10eb:	89 44 24 08          	mov    %eax,0x8(%esp)
    10ef:	8d 45 cc             	lea    -0x34(%ebp),%eax
    10f2:	89 44 24 04          	mov    %eax,0x4(%esp)
    10f6:	89 34 24             	mov    %esi,(%esp)
    10f9:	e8 12 18 00 00       	call   2910 <arp_pdu_encode>
    10fe:	85 c0                	test   %eax,%eax
    1100:	74 0e                	je     1110 <arp_send_packet+0x50>
    1102:	83 c4 50             	add    $0x50,%esp
    1105:	5b                   	pop    %ebx
    1106:	5e                   	pop    %esi
    1107:	5d                   	pop    %ebp
    1108:	c3                   	ret    
    1109:	8d b4 26 00 00 00 00 	lea    0x0(%esi,%eiz,1),%esi
    1110:	8b 46 10             	mov    0x10(%esi),%eax
    1113:	8b 56 14             	mov    0x14(%esi),%edx
    1116:	89 45 dc             	mov    %eax,-0x24(%ebp)
    1119:	8b 46 04             	mov    0x4(%esi),%eax
    111c:	89 45 e4             	mov    %eax,-0x1c(%ebp)
    111f:	8b 45 cc             	mov    -0x34(%ebp),%eax
    1122:	89 45 f0             	mov    %eax,-0x10(%ebp)
    1125:	8b 45 d0             	mov    -0x30(%ebp),%eax
    1128:	89 45 f4             	mov    %eax,-0xc(%ebp)
    112b:	8d 45 d8             	lea    -0x28(%ebp),%eax
    112e:	89 44 24 08          	mov    %eax,0x8(%esp)
    1132:	8d 45 d4             	lea    -0x2c(%ebp),%eax
    1135:	89 44 24 04          	mov    %eax,0x4(%esp)
    1139:	8d 45 dc             	lea    -0x24(%ebp),%eax
    113c:	89 55 e0             	mov    %edx,-0x20(%ebp)
    113f:	89 04 24             	mov    %eax,(%esp)
    1142:	8b 56 08             	mov    0x8(%esi),%edx
    1145:	66 c7 45 ec 06 08    	movw   $0x806,-0x14(%ebp)
    114b:	89 55 e8             	mov    %edx,-0x18(%ebp)
    114e:	e8 dd 13 00 00       	call   2530 <eth_pdu_encode>
    1153:	85 c0                	test   %eax,%eax
    1155:	75 39                	jne    1190 <arp_send_packet+0xd0>
    1157:	8b 45 d8             	mov    -0x28(%ebp),%eax
    115a:	89 1c 24             	mov    %ebx,(%esp)
    115d:	89 44 24 08          	mov    %eax,0x8(%esp)
    1161:	8b 45 d4             	mov    -0x2c(%ebp),%eax
    1164:	89 44 24 04          	mov    %eax,0x4(%esp)
    1168:	e8 b3 11 00 00       	call   2320 <ethip_nic_send>
    116d:	8b 55 d4             	mov    -0x2c(%ebp),%edx
    1170:	89 14 24             	mov    %edx,(%esp)
    1173:	89 45 c4             	mov    %eax,-0x3c(%ebp)
    1176:	e8 05 3e 01 00       	call   14f80 <free>
    117b:	8b 55 cc             	mov    -0x34(%ebp),%edx
    117e:	89 14 24             	mov    %edx,(%esp)
    1181:	e8 fa 3d 01 00       	call   14f80 <free>
    1186:	8b 45 c4             	mov    -0x3c(%ebp),%eax
    1189:	83 c4 50             	add    $0x50,%esp
    118c:	5b                   	pop    %ebx
    118d:	5e                   	pop    %esi
    118e:	5d                   	pop    %ebp
    118f:	c3                   	ret    
    1190:	8b 55 cc             	mov    -0x34(%ebp),%edx
    1193:	89 45 c4             	mov    %eax,-0x3c(%ebp)
    1196:	89 14 24             	mov    %edx,(%esp)
    1199:	e8 e2 3d 01 00       	call   14f80 <free>
    119e:	8b 45 c4             	mov    -0x3c(%ebp),%eax
    11a1:	83 c4 50             	add    $0x50,%esp
    11a4:	5b                   	pop    %ebx
    11a5:	5e                   	pop    %esi
    11a6:	5d                   	pop    %ebp
    11a7:	c3                   	ret    
    11a8:	90                   	nop
    11a9:	8d b4 26 00 00 00 00 	lea    0x0(%esi,%eiz,1),%esi

000011b0 <arp_received>:
    11b0:	55                   	push   %ebp
    11b1:	89 e5                	mov    %esp,%ebp
    11b3:	53                   	push   %ebx
    11b4:	83 ec 74             	sub    $0x74,%esp
    11b7:	8b 5d 0c             	mov    0xc(%ebp),%ebx
    11ba:	c7 44 24 08 54 1a 02 	movl   $0x21a54,0x8(%esp)
    11c1:	00 
    11c2:	c7 44 24 04 04 00 00 	movl   $0x4,0x4(%esp)
    11c9:	00 
    11ca:	c7 04 24 ff ff ff ff 	movl   $0xffffffff,(%esp)
    11d1:	e8 0a e9 00 00       	call   fae0 <log_msg>
    11d6:	8d 45 c0             	lea    -0x40(%ebp),%eax
    11d9:	89 44 24 08          	mov    %eax,0x8(%esp)
    11dd:	8b 43 18             	mov    0x18(%ebx),%eax
    11e0:	89 44 24 04          	mov    %eax,0x4(%esp)
    11e4:	8b 43 14             	mov    0x14(%ebx),%eax
    11e7:	89 04 24             	mov    %eax,(%esp)
    11ea:	e8 71 18 00 00       	call   2a60 <arp_pdu_decode>
    11ef:	85 c0                	test   %eax,%eax
    11f1:	74 0d                	je     1200 <arp_received+0x50>
    11f3:	83 c4 74             	add    $0x74,%esp
    11f6:	5b                   	pop    %ebx
    11f7:	5d                   	pop    %ebp
    11f8:	c3                   	ret    
    11f9:	8d b4 26 00 00 00 00 	lea    0x0(%esi,%eiz,1),%esi
    1200:	8b 45 d8             	mov    -0x28(%ebp),%eax
    1203:	c7 44 24 08 80 1a 02 	movl   $0x21a80,0x8(%esp)
    120a:	00 
    120b:	89 44 24 10          	mov    %eax,0x10(%esp)
    120f:	8b 45 c0             	mov    -0x40(%ebp),%eax
    1212:	89 44 24 0c          	mov    %eax,0xc(%esp)
    1216:	c7 44 24 04 04 00 00 	movl   $0x4,0x4(%esp)
    121d:	00 
    121e:	c7 04 24 ff ff ff ff 	movl   $0xffffffff,(%esp)
    1225:	e8 b6 e8 00 00       	call   fae0 <log_msg>
    122a:	8d 45 d8             	lea    -0x28(%ebp),%eax
    122d:	89 44 24 04          	mov    %eax,0x4(%esp)
    1231:	8b 45 08             	mov    0x8(%ebp),%eax
    1234:	89 04 24             	mov    %eax,(%esp)
    1237:	e8 94 12 00 00       	call   24d0 <ethip_nic_addr_find>
    123c:	89 c3                	mov    %eax,%ebx
    123e:	85 c0                	test   %eax,%eax
    1240:	74 b1                	je     11f3 <arp_received+0x43>
    1242:	c7 44 24 08 63 1a 02 	movl   $0x21a63,0x8(%esp)
    1249:	00 
    124a:	c7 44 24 04 04 00 00 	movl   $0x4,0x4(%esp)
    1251:	00 
    1252:	c7 04 24 ff ff ff ff 	movl   $0xffffffff,(%esp)
    1259:	e8 82 e8 00 00       	call   fae0 <log_msg>
    125e:	8d 45 c4             	lea    -0x3c(%ebp),%eax
    1261:	89 44 24 04          	mov    %eax,0x4(%esp)
    1265:	8d 45 cc             	lea    -0x34(%ebp),%eax
    1268:	89 04 24             	mov    %eax,(%esp)
    126b:	e8 e0 00 00 00       	call   1350 <atrans_add>
    1270:	8b 45 c0             	mov    -0x40(%ebp),%eax
    1273:	85 c0                	test   %eax,%eax
    1275:	0f 85 78 ff ff ff    	jne    11f3 <arp_received+0x43>
    127b:	8b 55 08             	mov    0x8(%ebp),%edx
    127e:	c7 45 dc 01 00 00 00 	movl   $0x1,-0x24(%ebp)
    1285:	8b 42 38             	mov    0x38(%edx),%eax
    1288:	8b 52 3c             	mov    0x3c(%edx),%edx
    128b:	89 45 e0             	mov    %eax,-0x20(%ebp)
    128e:	8b 43 08             	mov    0x8(%ebx),%eax
    1291:	89 45 e8             	mov    %eax,-0x18(%ebp)
    1294:	8b 45 c4             	mov    -0x3c(%ebp),%eax
    1297:	89 55 e4             	mov    %edx,-0x1c(%ebp)
    129a:	89 45 ec             	mov    %eax,-0x14(%ebp)
    129d:	8b 55 c8             	mov    -0x38(%ebp),%edx
    12a0:	8b 45 cc             	mov    -0x34(%ebp),%eax
    12a3:	89 55 f0             	mov    %edx,-0x10(%ebp)
    12a6:	89 45 f4             	mov    %eax,-0xc(%ebp)
    12a9:	8d 55 dc             	lea    -0x24(%ebp),%edx
    12ac:	8b 45 08             	mov    0x8(%ebp),%eax
    12af:	e8 0c fe ff ff       	call   10c0 <arp_send_packet>
    12b4:	e9 3a ff ff ff       	jmp    11f3 <arp_received+0x43>
    12b9:	8d b4 26 00 00 00 00 	lea    0x0(%esi,%eiz,1),%esi

000012c0 <arp_translate>:
    12c0:	55                   	push   %ebp
    12c1:	89 e5                	mov    %esp,%ebp
    12c3:	56                   	push   %esi
    12c4:	53                   	push   %ebx
    12c5:	83 ec 30             	sub    $0x30,%esp
    12c8:	8b 5d 10             	mov    0x10(%ebp),%ebx
    12cb:	8b 75 14             	mov    0x14(%ebp),%esi
    12ce:	89 74 24 04          	mov    %esi,0x4(%esp)
    12d2:	89 1c 24             	mov    %ebx,(%esp)
    12d5:	e8 f6 01 00 00       	call   14d0 <atrans_lookup>
    12da:	85 c0                	test   %eax,%eax
    12dc:	75 0a                	jne    12e8 <arp_translate+0x28>
    12de:	83 c4 30             	add    $0x30,%esp
    12e1:	5b                   	pop    %ebx
    12e2:	5e                   	pop    %esi
    12e3:	5d                   	pop    %ebp
    12e4:	c3                   	ret    
    12e5:	8d 76 00             	lea    0x0(%esi),%esi
    12e8:	8b 4d 08             	mov    0x8(%ebp),%ecx
    12eb:	c7 45 dc 00 00 00 00 	movl   $0x0,-0x24(%ebp)
    12f2:	c7 45 ec ff ff ff ff 	movl   $0xffffffff,-0x14(%ebp)
    12f9:	c7 45 f0 ff ff 00 00 	movl   $0xffff,-0x10(%ebp)
    1300:	8b 41 38             	mov    0x38(%ecx),%eax
    1303:	8b 51 3c             	mov    0x3c(%ecx),%edx
    1306:	89 45 e0             	mov    %eax,-0x20(%ebp)
    1309:	8b 45 0c             	mov    0xc(%ebp),%eax
    130c:	89 55 e4             	mov    %edx,-0x1c(%ebp)
    130f:	8d 55 dc             	lea    -0x24(%ebp),%edx
    1312:	8b 00                	mov    (%eax),%eax
    1314:	89 45 e8             	mov    %eax,-0x18(%ebp)
    1317:	8b 03                	mov    (%ebx),%eax
    1319:	89 45 f4             	mov    %eax,-0xc(%ebp)
    131c:	89 c8                	mov    %ecx,%eax
    131e:	e8 9d fd ff ff       	call   10c0 <arp_send_packet>
    1323:	85 c0                	test   %eax,%eax
    1325:	75 b7                	jne    12de <arp_translate+0x1e>
    1327:	c7 04 24 c0 c6 2d 00 	movl   $0x2dc6c0,(%esp)
    132e:	e8 1d 02 00 00       	call   1550 <atrans_wait_timeout>
    1333:	89 74 24 04          	mov    %esi,0x4(%esp)
    1337:	89 1c 24             	mov    %ebx,(%esp)
    133a:	e8 91 01 00 00       	call   14d0 <atrans_lookup>
    133f:	83 c4 30             	add    $0x30,%esp
    1342:	5b                   	pop    %ebx
    1343:	5e                   	pop    %esi
    1344:	5d                   	pop    %ebp
    1345:	c3                   	ret    
    1346:	66 90                	xchg   %ax,%ax
    1348:	66 90                	xchg   %ax,%ax
    134a:	66 90                	xchg   %ax,%ax
    134c:	66 90                	xchg   %ax,%ax
    134e:	66 90                	xchg   %ax,%ax

00001350 <atrans_add>:
    1350:	55                   	push   %ebp
    1351:	89 e5                	mov    %esp,%ebp
    1353:	56                   	push   %esi
    1354:	53                   	push   %ebx
    1355:	83 ec 10             	sub    $0x10,%esp
    1358:	8b 5d 08             	mov    0x8(%ebp),%ebx
    135b:	c7 44 24 04 14 00 00 	movl   $0x14,0x4(%esp)
    1362:	00 
    1363:	c7 04 24 01 00 00 00 	movl   $0x1,(%esp)
    136a:	e8 a1 3a 01 00       	call   14e10 <calloc>
    136f:	89 c6                	mov    %eax,%esi
    1371:	85 c0                	test   %eax,%eax
    1373:	0f 84 aa 00 00 00    	je     1423 <atrans_add+0xd3>
    1379:	8b 03                	mov    (%ebx),%eax
    137b:	89 46 08             	mov    %eax,0x8(%esi)
    137e:	8b 45 0c             	mov    0xc(%ebp),%eax
    1381:	8b 10                	mov    (%eax),%edx
    1383:	8b 48 04             	mov    0x4(%eax),%ecx
    1386:	c7 04 24 a0 4c 02 00 	movl   $0x24ca0,(%esp)
    138d:	89 56 0c             	mov    %edx,0xc(%esi)
    1390:	89 4e 10             	mov    %ecx,0x10(%esi)
    1393:	e8 68 a4 00 00       	call   b800 <fibril_mutex_lock>
    1398:	8b 15 b4 4c 02 00    	mov    0x24cb4,%edx
    139e:	81 fa b0 4c 02 00    	cmp    $0x24cb0,%edx
    13a4:	74 1a                	je     13c0 <atrans_add+0x70>
    13a6:	8b 0b                	mov    (%ebx),%ecx
    13a8:	39 4a 08             	cmp    %ecx,0x8(%edx)
    13ab:	75 08                	jne    13b5 <atrans_add+0x65>
    13ad:	eb 49                	jmp    13f8 <atrans_add+0xa8>
    13af:	90                   	nop
    13b0:	39 4a 08             	cmp    %ecx,0x8(%edx)
    13b3:	74 43                	je     13f8 <atrans_add+0xa8>
    13b5:	8b 52 04             	mov    0x4(%edx),%edx
    13b8:	81 fa b0 4c 02 00    	cmp    $0x24cb0,%edx
    13be:	75 f0                	jne    13b0 <atrans_add+0x60>
    13c0:	a1 b0 4c 02 00       	mov    0x24cb0,%eax
    13c5:	c7 46 04 b0 4c 02 00 	movl   $0x24cb0,0x4(%esi)
    13cc:	89 06                	mov    %eax,(%esi)
    13ce:	89 35 b0 4c 02 00    	mov    %esi,0x24cb0
    13d4:	89 70 04             	mov    %esi,0x4(%eax)
    13d7:	c7 04 24 a0 4c 02 00 	movl   $0x24ca0,(%esp)
    13de:	e8 3d a5 00 00       	call   b920 <fibril_mutex_unlock>
    13e3:	c7 04 24 b8 4c 02 00 	movl   $0x24cb8,(%esp)
    13ea:	e8 31 b1 00 00       	call   c520 <fibril_condvar_broadcast>
    13ef:	31 c0                	xor    %eax,%eax
    13f1:	83 c4 10             	add    $0x10,%esp
    13f4:	5b                   	pop    %ebx
    13f5:	5e                   	pop    %esi
    13f6:	5d                   	pop    %ebp
    13f7:	c3                   	ret    
    13f8:	8b 0a                	mov    (%edx),%ecx
    13fa:	85 c9                	test   %ecx,%ecx
    13fc:	74 0e                	je     140c <atrans_add+0xbc>
    13fe:	8b 42 04             	mov    0x4(%edx),%eax
    1401:	85 c0                	test   %eax,%eax
    1403:	74 07                	je     140c <atrans_add+0xbc>
    1405:	89 08                	mov    %ecx,(%eax)
    1407:	8b 0a                	mov    (%edx),%ecx
    1409:	89 41 04             	mov    %eax,0x4(%ecx)
    140c:	c7 02 00 00 00 00    	movl   $0x0,(%edx)
    1412:	c7 42 04 00 00 00 00 	movl   $0x0,0x4(%edx)
    1419:	89 14 24             	mov    %edx,(%esp)
    141c:	e8 5f 3b 01 00       	call   14f80 <free>
    1421:	eb 9d                	jmp    13c0 <atrans_add+0x70>
    1423:	b8 fe ff ff ff       	mov    $0xfffffffe,%eax
    1428:	eb c7                	jmp    13f1 <atrans_add+0xa1>
    142a:	8d b6 00 00 00 00    	lea    0x0(%esi),%esi

00001430 <atrans_remove>:
    1430:	55                   	push   %ebp
    1431:	89 e5                	mov    %esp,%ebp
    1433:	53                   	push   %ebx
    1434:	83 ec 14             	sub    $0x14,%esp
    1437:	c7 04 24 a0 4c 02 00 	movl   $0x24ca0,(%esp)
    143e:	e8 bd a3 00 00       	call   b800 <fibril_mutex_lock>
    1443:	8b 1d b4 4c 02 00    	mov    0x24cb4,%ebx
    1449:	81 fb b0 4c 02 00    	cmp    $0x24cb0,%ebx
    144f:	74 1f                	je     1470 <atrans_remove+0x40>
    1451:	8b 45 08             	mov    0x8(%ebp),%eax
    1454:	8b 00                	mov    (%eax),%eax
    1456:	39 43 08             	cmp    %eax,0x8(%ebx)
    1459:	75 0a                	jne    1465 <atrans_remove+0x35>
    145b:	eb 2b                	jmp    1488 <atrans_remove+0x58>
    145d:	8d 76 00             	lea    0x0(%esi),%esi
    1460:	39 43 08             	cmp    %eax,0x8(%ebx)
    1463:	74 23                	je     1488 <atrans_remove+0x58>
    1465:	8b 5b 04             	mov    0x4(%ebx),%ebx
    1468:	81 fb b0 4c 02 00    	cmp    $0x24cb0,%ebx
    146e:	75 f0                	jne    1460 <atrans_remove+0x30>
    1470:	c7 04 24 a0 4c 02 00 	movl   $0x24ca0,(%esp)
    1477:	e8 a4 a4 00 00       	call   b920 <fibril_mutex_unlock>
    147c:	83 c4 14             	add    $0x14,%esp
    147f:	83 c8 ff             	or     $0xffffffff,%eax
    1482:	5b                   	pop    %ebx
    1483:	5d                   	pop    %ebp
    1484:	c3                   	ret    
    1485:	8d 76 00             	lea    0x0(%esi),%esi
    1488:	8b 13                	mov    (%ebx),%edx
    148a:	85 d2                	test   %edx,%edx
    148c:	74 0e                	je     149c <atrans_remove+0x6c>
    148e:	8b 43 04             	mov    0x4(%ebx),%eax
    1491:	85 c0                	test   %eax,%eax
    1493:	74 07                	je     149c <atrans_remove+0x6c>
    1495:	89 10                	mov    %edx,(%eax)
    1497:	8b 13                	mov    (%ebx),%edx
    1499:	89 42 04             	mov    %eax,0x4(%edx)
    149c:	c7 03 00 00 00 00    	movl   $0x0,(%ebx)
    14a2:	c7 43 04 00 00 00 00 	movl   $0x0,0x4(%ebx)
    14a9:	c7 04 24 a0 4c 02 00 	movl   $0x24ca0,(%esp)
    14b0:	e8 6b a4 00 00       	call   b920 <fibril_mutex_unlock>
    14b5:	89 1c 24             	mov    %ebx,(%esp)
    14b8:	e8 c3 3a 01 00       	call   14f80 <free>
    14bd:	83 c4 14             	add    $0x14,%esp
    14c0:	31 c0                	xor    %eax,%eax
    14c2:	5b                   	pop    %ebx
    14c3:	5d                   	pop    %ebp
    14c4:	c3                   	ret    
    14c5:	8d 74 26 00          	lea    0x0(%esi,%eiz,1),%esi
    14c9:	8d bc 27 00 00 00 00 	lea    0x0(%edi,%eiz,1),%edi

000014d0 <atrans_lookup>:
    14d0:	55                   	push   %ebp
    14d1:	89 e5                	mov    %esp,%ebp
    14d3:	53                   	push   %ebx
    14d4:	83 ec 14             	sub    $0x14,%esp
    14d7:	c7 04 24 a0 4c 02 00 	movl   $0x24ca0,(%esp)
    14de:	e8 1d a3 00 00       	call   b800 <fibril_mutex_lock>
    14e3:	8b 1d b4 4c 02 00    	mov    0x24cb4,%ebx
    14e9:	81 fb b0 4c 02 00    	cmp    $0x24cb0,%ebx
    14ef:	74 1f                	je     1510 <atrans_lookup+0x40>
    14f1:	8b 45 08             	mov    0x8(%ebp),%eax
    14f4:	8b 00                	mov    (%eax),%eax
    14f6:	39 43 08             	cmp    %eax,0x8(%ebx)
    14f9:	75 0a                	jne    1505 <atrans_lookup+0x35>
    14fb:	eb 2b                	jmp    1528 <atrans_lookup+0x58>
    14fd:	8d 76 00             	lea    0x0(%esi),%esi
    1500:	39 43 08             	cmp    %eax,0x8(%ebx)
    1503:	74 23                	je     1528 <atrans_lookup+0x58>
    1505:	8b 5b 04             	mov    0x4(%ebx),%ebx
    1508:	81 fb b0 4c 02 00    	cmp    $0x24cb0,%ebx
    150e:	75 f0                	jne    1500 <atrans_lookup+0x30>
    1510:	c7 04 24 a0 4c 02 00 	movl   $0x24ca0,(%esp)
    1517:	e8 04 a4 00 00       	call   b920 <fibril_mutex_unlock>
    151c:	83 c4 14             	add    $0x14,%esp
    151f:	83 c8 ff             	or     $0xffffffff,%eax
    1522:	5b                   	pop    %ebx
    1523:	5d                   	pop    %ebp
    1524:	c3                   	ret    
    1525:	8d 76 00             	lea    0x0(%esi),%esi
    1528:	c7 04 24 a0 4c 02 00 	movl   $0x24ca0,(%esp)
    152f:	e8 ec a3 00 00       	call   b920 <fibril_mutex_unlock>
    1534:	8b 4d 0c             	mov    0xc(%ebp),%ecx
    1537:	8b 43 0c             	mov    0xc(%ebx),%eax
    153a:	8b 53 10             	mov    0x10(%ebx),%edx
    153d:	89 51 04             	mov    %edx,0x4(%ecx)
    1540:	89 01                	mov    %eax,(%ecx)
    1542:	83 c4 14             	add    $0x14,%esp
    1545:	31 c0                	xor    %eax,%eax
    1547:	5b                   	pop    %ebx
    1548:	5d                   	pop    %ebp
    1549:	c3                   	ret    
    154a:	8d b6 00 00 00 00    	lea    0x0(%esi),%esi

00001550 <atrans_wait_timeout>:
    1550:	55                   	push   %ebp
    1551:	89 e5                	mov    %esp,%ebp
    1553:	83 ec 28             	sub    $0x28,%esp
    1556:	c7 04 24 a0 4c 02 00 	movl   $0x24ca0,(%esp)
    155d:	e8 9e a2 00 00       	call   b800 <fibril_mutex_lock>
    1562:	8b 45 08             	mov    0x8(%ebp),%eax
    1565:	89 44 24 08          	mov    %eax,0x8(%esp)
    1569:	c7 44 24 04 a0 4c 02 	movl   $0x24ca0,0x4(%esp)
    1570:	00 
    1571:	c7 04 24 b8 4c 02 00 	movl   $0x24cb8,(%esp)
    1578:	e8 03 a9 00 00       	call   be80 <fibril_condvar_wait_timeout>
    157d:	c7 04 24 a0 4c 02 00 	movl   $0x24ca0,(%esp)
    1584:	89 45 f4             	mov    %eax,-0xc(%ebp)
    1587:	e8 94 a3 00 00       	call   b920 <fibril_mutex_unlock>
    158c:	8b 45 f4             	mov    -0xc(%ebp),%eax
    158f:	c9                   	leave  
    1590:	c3                   	ret    
    1591:	66 90                	xchg   %ax,%ax
    1593:	66 90                	xchg   %ax,%ax
    1595:	66 90                	xchg   %ax,%ax
    1597:	66 90                	xchg   %ax,%ax
    1599:	66 90                	xchg   %ax,%ax
    159b:	66 90                	xchg   %ax,%ax
    159d:	66 90                	xchg   %ax,%ax
    159f:	90                   	nop

000015a0 <ethip_get_mtu>:
    15a0:	55                   	push   %ebp
    15a1:	89 e5                	mov    %esp,%ebp
    15a3:	83 ec 18             	sub    $0x18,%esp
    15a6:	c7 44 24 08 a3 1a 02 	movl   $0x21aa3,0x8(%esp)
    15ad:	00 
    15ae:	c7 44 24 04 04 00 00 	movl   $0x4,0x4(%esp)
    15b5:	00 
    15b6:	c7 04 24 ff ff ff ff 	movl   $0xffffffff,(%esp)
    15bd:	e8 1e e5 00 00       	call   fae0 <log_msg>
    15c2:	8b 45 0c             	mov    0xc(%ebp),%eax
    15c5:	c7 00 dc 05 00 00    	movl   $0x5dc,(%eax)
    15cb:	31 c0                	xor    %eax,%eax
    15cd:	c9                   	leave  
    15ce:	c3                   	ret    
    15cf:	90                   	nop

000015d0 <ethip_close>:
    15d0:	55                   	push   %ebp
    15d1:	89 e5                	mov    %esp,%ebp
    15d3:	83 ec 18             	sub    $0x18,%esp
    15d6:	c7 44 24 08 b3 1a 02 	movl   $0x21ab3,0x8(%esp)
    15dd:	00 
    15de:	c7 44 24 04 04 00 00 	movl   $0x4,0x4(%esp)
    15e5:	00 
    15e6:	c7 04 24 ff ff ff ff 	movl   $0xffffffff,(%esp)
    15ed:	e8 ee e4 00 00       	call   fae0 <log_msg>
    15f2:	31 c0                	xor    %eax,%eax
    15f4:	c9                   	leave  
    15f5:	c3                   	ret    
    15f6:	8d 76 00             	lea    0x0(%esi),%esi
    15f9:	8d bc 27 00 00 00 00 	lea    0x0(%edi,%eiz,1),%edi

00001600 <ethip_open>:
    1600:	55                   	push   %ebp
    1601:	89 e5                	mov    %esp,%ebp
    1603:	83 ec 18             	sub    $0x18,%esp
    1606:	c7 44 24 08 c1 1a 02 	movl   $0x21ac1,0x8(%esp)
    160d:	00 
    160e:	c7 44 24 04 04 00 00 	movl   $0x4,0x4(%esp)
    1615:	00 
    1616:	c7 04 24 ff ff ff ff 	movl   $0xffffffff,(%esp)
    161d:	e8 be e4 00 00       	call   fae0 <log_msg>
    1622:	31 c0                	xor    %eax,%eax
    1624:	c9                   	leave  
    1625:	c3                   	ret    
    1626:	8d 76 00             	lea    0x0(%esi),%esi
    1629:	8d bc 27 00 00 00 00 	lea    0x0(%edi,%eiz,1),%edi

00001630 <ethip_addr_remove>:
    1630:	55                   	push   %ebp
    1631:	89 e5                	mov    %esp,%ebp
    1633:	56                   	push   %esi
    1634:	53                   	push   %ebx
    1635:	83 ec 10             	sub    $0x10,%esp
    1638:	8b 5d 0c             	mov    0xc(%ebp),%ebx
    163b:	8b 45 08             	mov    0x8(%ebp),%eax
    163e:	8b 70 18             	mov    0x18(%eax),%esi
    1641:	8b 03                	mov    (%ebx),%eax
    1643:	89 44 24 0c          	mov    %eax,0xc(%esp)
    1647:	c7 44 24 08 ce 1a 02 	movl   $0x21ace,0x8(%esp)
    164e:	00 
    164f:	c7 44 24 04 04 00 00 	movl   $0x4,0x4(%esp)
    1656:	00 
    1657:	c7 04 24 ff ff ff ff 	movl   $0xffffffff,(%esp)
    165e:	e8 7d e4 00 00       	call   fae0 <log_msg>
    1663:	89 5d 0c             	mov    %ebx,0xc(%ebp)
    1666:	89 75 08             	mov    %esi,0x8(%ebp)
    1669:	83 c4 10             	add    $0x10,%esp
    166c:	5b                   	pop    %ebx
    166d:	5e                   	pop    %esi
    166e:	5d                   	pop    %ebp
    166f:	e9 1c 0d 00 00       	jmp    2390 <ethip_nic_addr_add>
    1674:	8d b6 00 00 00 00    	lea    0x0(%esi),%esi
    167a:	8d bf 00 00 00 00    	lea    0x0(%edi),%edi

00001680 <ethip_addr_add>:
    1680:	55                   	push   %ebp
    1681:	89 e5                	mov    %esp,%ebp
    1683:	56                   	push   %esi
    1684:	53                   	push   %ebx
    1685:	83 ec 10             	sub    $0x10,%esp
    1688:	8b 5d 0c             	mov    0xc(%ebp),%ebx
    168b:	8b 45 08             	mov    0x8(%ebp),%eax
    168e:	8b 70 18             	mov    0x18(%eax),%esi
    1691:	8b 03                	mov    (%ebx),%eax
    1693:	89 44 24 0c          	mov    %eax,0xc(%esp)
    1697:	c7 44 24 08 e6 1a 02 	movl   $0x21ae6,0x8(%esp)
    169e:	00 
    169f:	c7 44 24 04 04 00 00 	movl   $0x4,0x4(%esp)
    16a6:	00 
    16a7:	c7 04 24 ff ff ff ff 	movl   $0xffffffff,(%esp)
    16ae:	e8 2d e4 00 00       	call   fae0 <log_msg>
    16b3:	89 5d 0c             	mov    %ebx,0xc(%ebp)
    16b6:	89 75 08             	mov    %esi,0x8(%ebp)
    16b9:	83 c4 10             	add    $0x10,%esp
    16bc:	5b                   	pop    %ebx
    16bd:	5e                   	pop    %esi
    16be:	5d                   	pop    %ebp
    16bf:	e9 cc 0c 00 00       	jmp    2390 <ethip_nic_addr_add>
    16c4:	8d b6 00 00 00 00    	lea    0x0(%esi),%esi
    16ca:	8d bf 00 00 00 00    	lea    0x0(%edi),%edi

000016d0 <ethip_send>:
    16d0:	55                   	push   %ebp
    16d1:	89 e5                	mov    %esp,%ebp
    16d3:	56                   	push   %esi
    16d4:	53                   	push   %ebx
    16d5:	83 ec 50             	sub    $0x50,%esp
    16d8:	8b 45 08             	mov    0x8(%ebp),%eax
    16db:	8b 75 0c             	mov    0xc(%ebp),%esi
    16de:	8b 58 18             	mov    0x18(%eax),%ebx
    16e1:	c7 44 24 08 fb 1a 02 	movl   $0x21afb,0x8(%esp)
    16e8:	00 
    16e9:	c7 44 24 04 04 00 00 	movl   $0x4,0x4(%esp)
    16f0:	00 
    16f1:	c7 04 24 ff ff ff ff 	movl   $0xffffffff,(%esp)
    16f8:	e8 e3 e3 00 00       	call   fae0 <log_msg>
    16fd:	8d 45 d4             	lea    -0x2c(%ebp),%eax
    1700:	89 44 24 0c          	mov    %eax,0xc(%esp)
    1704:	8d 46 04             	lea    0x4(%esi),%eax
    1707:	89 44 24 08          	mov    %eax,0x8(%esp)
    170b:	89 74 24 04          	mov    %esi,0x4(%esp)
    170f:	89 1c 24             	mov    %ebx,(%esp)
    1712:	e8 a9 fb ff ff       	call   12c0 <arp_translate>
    1717:	85 c0                	test   %eax,%eax
    1719:	0f 85 81 00 00 00    	jne    17a0 <ethip_send+0xd0>
    171f:	8b 45 d4             	mov    -0x2c(%ebp),%eax
    1722:	8b 55 d8             	mov    -0x28(%ebp),%edx
    1725:	89 45 dc             	mov    %eax,-0x24(%ebp)
    1728:	8b 43 38             	mov    0x38(%ebx),%eax
    172b:	89 45 e4             	mov    %eax,-0x1c(%ebp)
    172e:	8b 46 08             	mov    0x8(%esi),%eax
    1731:	89 45 f0             	mov    %eax,-0x10(%ebp)
    1734:	8b 46 0c             	mov    0xc(%esi),%eax
    1737:	89 45 f4             	mov    %eax,-0xc(%ebp)
    173a:	8d 45 d0             	lea    -0x30(%ebp),%eax
    173d:	89 55 e0             	mov    %edx,-0x20(%ebp)
    1740:	8b 53 3c             	mov    0x3c(%ebx),%edx
    1743:	89 44 24 08          	mov    %eax,0x8(%esp)
    1747:	8d 45 cc             	lea    -0x34(%ebp),%eax
    174a:	89 44 24 04          	mov    %eax,0x4(%esp)
    174e:	8d 45 dc             	lea    -0x24(%ebp),%eax
    1751:	89 04 24             	mov    %eax,(%esp)
    1754:	89 55 e8             	mov    %edx,-0x18(%ebp)
    1757:	66 c7 45 ec 00 08    	movw   $0x800,-0x14(%ebp)
    175d:	e8 ce 0d 00 00       	call   2530 <eth_pdu_encode>
    1762:	85 c0                	test   %eax,%eax
    1764:	74 0a                	je     1770 <ethip_send+0xa0>
    1766:	83 c4 50             	add    $0x50,%esp
    1769:	5b                   	pop    %ebx
    176a:	5e                   	pop    %esi
    176b:	5d                   	pop    %ebp
    176c:	c3                   	ret    
    176d:	8d 76 00             	lea    0x0(%esi),%esi
    1770:	8b 45 d0             	mov    -0x30(%ebp),%eax
    1773:	89 1c 24             	mov    %ebx,(%esp)
    1776:	89 44 24 08          	mov    %eax,0x8(%esp)
    177a:	8b 45 cc             	mov    -0x34(%ebp),%eax
    177d:	89 44 24 04          	mov    %eax,0x4(%esp)
    1781:	e8 9a 0b 00 00       	call   2320 <ethip_nic_send>
    1786:	8b 55 cc             	mov    -0x34(%ebp),%edx
    1789:	89 14 24             	mov    %edx,(%esp)
    178c:	89 45 c4             	mov    %eax,-0x3c(%ebp)
    178f:	e8 ec 37 01 00       	call   14f80 <free>
    1794:	8b 45 c4             	mov    -0x3c(%ebp),%eax
    1797:	83 c4 50             	add    $0x50,%esp
    179a:	5b                   	pop    %ebx
    179b:	5e                   	pop    %esi
    179c:	5d                   	pop    %ebp
    179d:	c3                   	ret    
    179e:	66 90                	xchg   %ax,%ax
    17a0:	8b 56 04             	mov    0x4(%esi),%edx
    17a3:	c7 44 24 08 3c 1c 02 	movl   $0x21c3c,0x8(%esp)
    17aa:	00 
    17ab:	89 54 24 0c          	mov    %edx,0xc(%esp)
    17af:	c7 44 24 04 02 00 00 	movl   $0x2,0x4(%esp)
    17b6:	00 
    17b7:	c7 04 24 ff ff ff ff 	movl   $0xffffffff,(%esp)
    17be:	89 45 c4             	mov    %eax,-0x3c(%ebp)
    17c1:	e8 1a e3 00 00       	call   fae0 <log_msg>
    17c6:	8b 45 c4             	mov    -0x3c(%ebp),%eax
    17c9:	83 c4 50             	add    $0x50,%esp
    17cc:	5b                   	pop    %ebx
    17cd:	5e                   	pop    %esi
    17ce:	5d                   	pop    %ebp
    17cf:	c3                   	ret    

000017d0 <ethip_client_conn>:
    17d0:	55                   	push   %ebp
    17d1:	89 e5                	mov    %esp,%ebp
    17d3:	57                   	push   %edi
    17d4:	56                   	push   %esi
    17d5:	53                   	push   %ebx
    17d6:	83 ec 1c             	sub    $0x1c,%esp
    17d9:	8b 75 0c             	mov    0xc(%ebp),%esi
    17dc:	8b 7d 08             	mov    0x8(%ebp),%edi
    17df:	8b 5e 04             	mov    0x4(%esi),%ebx
    17e2:	c7 44 24 08 08 1b 02 	movl   $0x21b08,0x8(%esp)
    17e9:	00 
    17ea:	89 5c 24 0c          	mov    %ebx,0xc(%esp)
    17ee:	c7 44 24 04 04 00 00 	movl   $0x4,0x4(%esp)
    17f5:	00 
    17f6:	c7 04 24 ff ff ff ff 	movl   $0xffffffff,(%esp)
    17fd:	e8 de e2 00 00       	call   fae0 <log_msg>
    1802:	89 1c 24             	mov    %ebx,(%esp)
    1805:	e8 56 0a 00 00       	call   2260 <ethip_nic_find_by_iplink_sid>
    180a:	85 c0                	test   %eax,%eax
    180c:	74 1a                	je     1828 <ethip_client_conn+0x58>
    180e:	83 c0 14             	add    $0x14,%eax
    1811:	89 75 0c             	mov    %esi,0xc(%ebp)
    1814:	89 7d 08             	mov    %edi,0x8(%ebp)
    1817:	89 45 10             	mov    %eax,0x10(%ebp)
    181a:	83 c4 1c             	add    $0x1c,%esp
    181d:	5b                   	pop    %ebx
    181e:	5e                   	pop    %esi
    181f:	5f                   	pop    %edi
    1820:	5d                   	pop    %ebp
    1821:	e9 fa 10 01 00       	jmp    12920 <iplink_conn>
    1826:	66 90                	xchg   %ax,%ax
    1828:	c7 45 10 1e 1b 02 00 	movl   $0x21b1e,0x10(%ebp)
    182f:	c7 45 0c 02 00 00 00 	movl   $0x2,0xc(%ebp)
    1836:	c7 45 08 ff ff ff ff 	movl   $0xffffffff,0x8(%ebp)
    183d:	83 c4 1c             	add    $0x1c,%esp
    1840:	5b                   	pop    %ebx
    1841:	5e                   	pop    %esi
    1842:	5f                   	pop    %edi
    1843:	5d                   	pop    %ebp
    1844:	e9 97 e2 00 00       	jmp    fae0 <log_msg>
    1849:	8d b4 26 00 00 00 00 	lea    0x0(%esi,%eiz,1),%esi

00001850 <ethip_iplink_init>:
    1850:	55                   	push   %ebp
    1851:	89 e5                	mov    %esp,%ebp
    1853:	53                   	push   %ebx
    1854:	83 ec 34             	sub    $0x34,%esp
    1857:	8b 5d 08             	mov    0x8(%ebp),%ebx
    185a:	c7 45 f4 00 00 00 00 	movl   $0x0,-0xc(%ebp)
    1861:	c7 44 24 08 31 1b 02 	movl   $0x21b31,0x8(%esp)
    1868:	00 
    1869:	c7 44 24 04 04 00 00 	movl   $0x4,0x4(%esp)
    1870:	00 
    1871:	c7 04 24 ff ff ff ff 	movl   $0xffffffff,(%esp)
    1878:	e8 63 e2 00 00       	call   fae0 <log_msg>
    187d:	8d 43 14             	lea    0x14(%ebx),%eax
    1880:	89 04 24             	mov    %eax,(%esp)
    1883:	e8 58 10 01 00       	call   128e0 <iplink_srv_init>
    1888:	a1 f0 4e 02 00       	mov    0x24ef0,%eax
    188d:	40                   	inc    %eax
    188e:	c7 43 28 c0 4c 02 00 	movl   $0x24cc0,0x28(%ebx)
    1895:	89 5b 2c             	mov    %ebx,0x2c(%ebx)
    1898:	a3 f0 4e 02 00       	mov    %eax,0x24ef0
    189d:	89 44 24 08          	mov    %eax,0x8(%esp)
    18a1:	8d 45 f4             	lea    -0xc(%ebp),%eax
    18a4:	c7 44 24 04 45 1b 02 	movl   $0x21b45,0x4(%esp)
    18ab:	00 
    18ac:	89 04 24             	mov    %eax,(%esp)
    18af:	e8 3c ba 00 00       	call   d2f0 <asprintf>
    18b4:	85 c0                	test   %eax,%eax
    18b6:	0f 88 ac 00 00 00    	js     1968 <ethip_iplink_init+0x118>
    18bc:	8d 45 ec             	lea    -0x14(%ebp),%eax
    18bf:	89 44 24 04          	mov    %eax,0x4(%esp)
    18c3:	8b 45 f4             	mov    -0xc(%ebp),%eax
    18c6:	89 04 24             	mov    %eax,(%esp)
    18c9:	e8 02 42 00 00       	call   5ad0 <loc_service_register>
    18ce:	85 c0                	test   %eax,%eax
    18d0:	74 46                	je     1918 <ethip_iplink_init+0xc8>
    18d2:	8b 55 f4             	mov    -0xc(%ebp),%edx
    18d5:	c7 44 24 08 60 1c 02 	movl   $0x21c60,0x8(%esp)
    18dc:	00 
    18dd:	89 54 24 0c          	mov    %edx,0xc(%esp)
    18e1:	c7 44 24 04 01 00 00 	movl   $0x1,0x4(%esp)
    18e8:	00 
    18e9:	c7 04 24 ff ff ff ff 	movl   $0xffffffff,(%esp)
    18f0:	89 45 e4             	mov    %eax,-0x1c(%ebp)
    18f3:	e8 e8 e1 00 00       	call   fae0 <log_msg>
    18f8:	8b 45 e4             	mov    -0x1c(%ebp),%eax
    18fb:	8b 55 f4             	mov    -0xc(%ebp),%edx
    18fe:	85 d2                	test   %edx,%edx
    1900:	74 0e                	je     1910 <ethip_iplink_init+0xc0>
    1902:	89 14 24             	mov    %edx,(%esp)
    1905:	89 45 e4             	mov    %eax,-0x1c(%ebp)
    1908:	e8 73 36 01 00       	call   14f80 <free>
    190d:	8b 45 e4             	mov    -0x1c(%ebp),%eax
    1910:	83 c4 34             	add    $0x34,%esp
    1913:	5b                   	pop    %ebx
    1914:	5d                   	pop    %ebp
    1915:	c3                   	ret    
    1916:	66 90                	xchg   %ax,%ax
    1918:	8b 45 ec             	mov    -0x14(%ebp),%eax
    191b:	89 43 34             	mov    %eax,0x34(%ebx)
    191e:	8d 45 f0             	lea    -0x10(%ebp),%eax
    1921:	c7 44 24 08 01 00 00 	movl   $0x1,0x8(%esp)
    1928:	00 
    1929:	89 44 24 04          	mov    %eax,0x4(%esp)
    192d:	c7 04 24 5e 1b 02 00 	movl   $0x21b5e,(%esp)
    1934:	e8 f7 49 00 00       	call   6330 <loc_category_get_id>
    1939:	85 c0                	test   %eax,%eax
    193b:	75 53                	jne    1990 <ethip_iplink_init+0x140>
    193d:	8b 45 f0             	mov    -0x10(%ebp),%eax
    1940:	89 44 24 04          	mov    %eax,0x4(%esp)
    1944:	8b 45 ec             	mov    -0x14(%ebp),%eax
    1947:	89 04 24             	mov    %eax,(%esp)
    194a:	e8 c1 50 00 00       	call   6a10 <loc_service_add_to_cat>
    194f:	85 c0                	test   %eax,%eax
    1951:	74 bd                	je     1910 <ethip_iplink_init+0xc0>
    1953:	8b 55 f4             	mov    -0xc(%ebp),%edx
    1956:	c7 44 24 08 65 1b 02 	movl   $0x21b65,0x8(%esp)
    195d:	00 
    195e:	89 54 24 0c          	mov    %edx,0xc(%esp)
    1962:	e9 7a ff ff ff       	jmp    18e1 <ethip_iplink_init+0x91>
    1967:	90                   	nop
    1968:	c7 44 24 08 4f 1b 02 	movl   $0x21b4f,0x8(%esp)
    196f:	00 
    1970:	c7 44 24 04 01 00 00 	movl   $0x1,0x4(%esp)
    1977:	00 
    1978:	c7 04 24 ff ff ff ff 	movl   $0xffffffff,(%esp)
    197f:	89 45 e4             	mov    %eax,-0x1c(%ebp)
    1982:	e8 59 e1 00 00       	call   fae0 <log_msg>
    1987:	8b 45 e4             	mov    -0x1c(%ebp),%eax
    198a:	e9 6c ff ff ff       	jmp    18fb <ethip_iplink_init+0xab>
    198f:	90                   	nop
    1990:	c7 44 24 08 80 1c 02 	movl   $0x21c80,0x8(%esp)
    1997:	00 
    1998:	eb d6                	jmp    1970 <ethip_iplink_init+0x120>
    199a:	8d b6 00 00 00 00    	lea    0x0(%esi),%esi

000019a0 <ethip_received>:
    19a0:	55                   	push   %ebp
    19a1:	89 e5                	mov    %esp,%ebp
    19a3:	56                   	push   %esi
    19a4:	53                   	push   %ebx
    19a5:	83 ec 50             	sub    $0x50,%esp
    19a8:	8d 75 dc             	lea    -0x24(%ebp),%esi
    19ab:	8b 5d 08             	mov    0x8(%ebp),%ebx
    19ae:	89 5c 24 0c          	mov    %ebx,0xc(%esp)
    19b2:	c7 44 24 08 83 1b 02 	movl   $0x21b83,0x8(%esp)
    19b9:	00 
    19ba:	c7 44 24 04 04 00 00 	movl   $0x4,0x4(%esp)
    19c1:	00 
    19c2:	c7 04 24 ff ff ff ff 	movl   $0xffffffff,(%esp)
    19c9:	e8 12 e1 00 00       	call   fae0 <log_msg>
    19ce:	8b 5b 18             	mov    0x18(%ebx),%ebx
    19d1:	c7 44 24 08 9c 1b 02 	movl   $0x21b9c,0x8(%esp)
    19d8:	00 
    19d9:	c7 44 24 04 04 00 00 	movl   $0x4,0x4(%esp)
    19e0:	00 
    19e1:	c7 04 24 ff ff ff ff 	movl   $0xffffffff,(%esp)
    19e8:	e8 f3 e0 00 00       	call   fae0 <log_msg>
    19ed:	c7 44 24 08 ad 1b 02 	movl   $0x21bad,0x8(%esp)
    19f4:	00 
    19f5:	c7 44 24 04 04 00 00 	movl   $0x4,0x4(%esp)
    19fc:	00 
    19fd:	c7 04 24 ff ff ff ff 	movl   $0xffffffff,(%esp)
    1a04:	e8 d7 e0 00 00       	call   fae0 <log_msg>
    1a09:	8b 45 10             	mov    0x10(%ebp),%eax
    1a0c:	89 44 24 04          	mov    %eax,0x4(%esp)
    1a10:	8b 45 0c             	mov    0xc(%ebp),%eax
    1a13:	89 74 24 08          	mov    %esi,0x8(%esp)
    1a17:	89 04 24             	mov    %eax,(%esp)
    1a1a:	e8 61 0c 00 00       	call   2680 <eth_pdu_decode>
    1a1f:	85 c0                	test   %eax,%eax
    1a21:	0f 85 e1 00 00 00    	jne    1b08 <ethip_received+0x168>
    1a27:	8b 55 ec             	mov    -0x14(%ebp),%edx
    1a2a:	66 81 fa 00 08       	cmp    $0x800,%dx
    1a2f:	74 67                	je     1a98 <ethip_received+0xf8>
    1a31:	66 81 fa 06 08       	cmp    $0x806,%dx
    1a36:	74 48                	je     1a80 <ethip_received+0xe0>
    1a38:	81 e2 ff ff 00 00    	and    $0xffff,%edx
    1a3e:	c7 44 24 08 00 1c 02 	movl   $0x21c00,0x8(%esp)
    1a45:	00 
    1a46:	89 54 24 0c          	mov    %edx,0xc(%esp)
    1a4a:	c7 44 24 04 04 00 00 	movl   $0x4,0x4(%esp)
    1a51:	00 
    1a52:	c7 04 24 ff ff ff ff 	movl   $0xffffffff,(%esp)
    1a59:	89 45 c4             	mov    %eax,-0x3c(%ebp)
    1a5c:	e8 7f e0 00 00       	call   fae0 <log_msg>
    1a61:	8b 45 c4             	mov    -0x3c(%ebp),%eax
    1a64:	8b 55 f0             	mov    -0x10(%ebp),%edx
    1a67:	89 45 c4             	mov    %eax,-0x3c(%ebp)
    1a6a:	89 14 24             	mov    %edx,(%esp)
    1a6d:	e8 0e 35 01 00       	call   14f80 <free>
    1a72:	8b 45 c4             	mov    -0x3c(%ebp),%eax
    1a75:	83 c4 50             	add    $0x50,%esp
    1a78:	5b                   	pop    %ebx
    1a79:	5e                   	pop    %esi
    1a7a:	5d                   	pop    %ebp
    1a7b:	c3                   	ret    
    1a7c:	8d 74 26 00          	lea    0x0(%esi,%eiz,1),%esi
    1a80:	89 74 24 04          	mov    %esi,0x4(%esp)
    1a84:	89 1c 24             	mov    %ebx,(%esp)
    1a87:	89 45 c4             	mov    %eax,-0x3c(%ebp)
    1a8a:	e8 21 f7 ff ff       	call   11b0 <arp_received>
    1a8f:	8b 45 c4             	mov    -0x3c(%ebp),%eax
    1a92:	eb d0                	jmp    1a64 <ethip_received+0xc4>
    1a94:	8d 74 26 00          	lea    0x0(%esi,%eiz,1),%esi
    1a98:	c7 44 24 08 d8 1b 02 	movl   $0x21bd8,0x8(%esp)
    1a9f:	00 
    1aa0:	c7 44 24 04 04 00 00 	movl   $0x4,0x4(%esp)
    1aa7:	00 
    1aa8:	c7 04 24 ff ff ff ff 	movl   $0xffffffff,(%esp)
    1aaf:	83 c3 14             	add    $0x14,%ebx
    1ab2:	e8 29 e0 00 00       	call   fae0 <log_msg>
    1ab7:	8b 45 f0             	mov    -0x10(%ebp),%eax
    1aba:	89 45 d4             	mov    %eax,-0x2c(%ebp)
    1abd:	c7 44 24 08 e9 1b 02 	movl   $0x21be9,0x8(%esp)
    1ac4:	00 
    1ac5:	8b 45 f4             	mov    -0xc(%ebp),%eax
    1ac8:	c7 44 24 04 04 00 00 	movl   $0x4,0x4(%esp)
    1acf:	00 
    1ad0:	c7 04 24 ff ff ff ff 	movl   $0xffffffff,(%esp)
    1ad7:	89 45 d8             	mov    %eax,-0x28(%ebp)
    1ada:	c7 45 cc 01 00 a8 c0 	movl   $0xc0a80001,-0x34(%ebp)
    1ae1:	c7 45 d0 04 00 a8 c0 	movl   $0xc0a80004,-0x30(%ebp)
    1ae8:	e8 f3 df 00 00       	call   fae0 <log_msg>
    1aed:	8d 45 cc             	lea    -0x34(%ebp),%eax
    1af0:	89 44 24 04          	mov    %eax,0x4(%esp)
    1af4:	89 1c 24             	mov    %ebx,(%esp)
    1af7:	e8 44 10 01 00       	call   12b40 <iplink_ev_recv>
    1afc:	e9 63 ff ff ff       	jmp    1a64 <ethip_received+0xc4>
    1b01:	8d b4 26 00 00 00 00 	lea    0x0(%esi,%eiz,1),%esi
    1b08:	c7 44 24 08 bf 1b 02 	movl   $0x21bbf,0x8(%esp)
    1b0f:	00 
    1b10:	c7 44 24 04 04 00 00 	movl   $0x4,0x4(%esp)
    1b17:	00 
    1b18:	c7 04 24 ff ff ff ff 	movl   $0xffffffff,(%esp)
    1b1f:	89 45 c4             	mov    %eax,-0x3c(%ebp)
    1b22:	e8 b9 df 00 00       	call   fae0 <log_msg>
    1b27:	8b 45 c4             	mov    -0x3c(%ebp),%eax
    1b2a:	83 c4 50             	add    $0x50,%esp
    1b2d:	5b                   	pop    %ebx
    1b2e:	5e                   	pop    %esi
    1b2f:	5d                   	pop    %ebp
    1b30:	c3                   	ret    
    1b31:	66 90                	xchg   %ax,%ax
    1b33:	66 90                	xchg   %ax,%ax
    1b35:	66 90                	xchg   %ax,%ax
    1b37:	66 90                	xchg   %ax,%ax
    1b39:	66 90                	xchg   %ax,%ax
    1b3b:	66 90                	xchg   %ax,%ax
    1b3d:	66 90                	xchg   %ax,%ax
    1b3f:	90                   	nop

00001b40 <main>:
    1b40:	55                   	push   %ebp
    1b41:	89 e5                	mov    %esp,%ebp
    1b43:	83 e4 f0             	and    $0xfffffff0,%esp
    1b46:	83 ec 10             	sub    $0x10,%esp
    1b49:	c7 04 24 a4 1c 02 00 	movl   $0x21ca4,(%esp)
    1b50:	e8 db dc 00 00       	call   f830 <printf>
    1b55:	c7 04 24 18 1c 02 00 	movl   $0x21c18,(%esp)
    1b5c:	e8 af dd 00 00       	call   f910 <log_init>
    1b61:	85 c0                	test   %eax,%eax
    1b63:	75 4a                	jne    1baf <main+0x6f>
    1b65:	c7 04 24 d0 17 00 00 	movl   $0x17d0,(%esp)
    1b6c:	e8 ef 45 01 00       	call   16160 <async_set_client_connection>
    1b71:	c7 04 24 18 1c 02 00 	movl   $0x21c18,(%esp)
    1b78:	e8 43 3b 00 00       	call   56c0 <loc_server_register>
    1b7d:	85 c0                	test   %eax,%eax
    1b7f:	75 10                	jne    1b91 <main+0x51>
    1b81:	e8 8a 06 00 00       	call   2210 <ethip_nic_discovery_start>
    1b86:	85 c0                	test   %eax,%eax
    1b88:	74 38                	je     1bc2 <main+0x82>
    1b8a:	b8 01 00 00 00       	mov    $0x1,%eax
    1b8f:	c9                   	leave  
    1b90:	c3                   	ret    
    1b91:	c7 44 24 08 1e 1c 02 	movl   $0x21c1e,0x8(%esp)
    1b98:	00 
    1b99:	c7 44 24 04 01 00 00 	movl   $0x1,0x4(%esp)
    1ba0:	00 
    1ba1:	c7 04 24 ff ff ff ff 	movl   $0xffffffff,(%esp)
    1ba8:	e8 33 df 00 00       	call   fae0 <log_msg>
    1bad:	eb db                	jmp    1b8a <main+0x4a>
    1baf:	c7 04 24 d0 1c 02 00 	movl   $0x21cd0,(%esp)
    1bb6:	e8 75 dc 00 00       	call   f830 <printf>
    1bbb:	b8 01 00 00 00       	mov    $0x1,%eax
    1bc0:	c9                   	leave  
    1bc1:	c3                   	ret    
    1bc2:	c7 04 24 f8 1c 02 00 	movl   $0x21cf8,(%esp)
    1bc9:	e8 62 dc 00 00       	call   f830 <printf>
    1bce:	c7 04 24 00 00 00 00 	movl   $0x0,(%esp)
    1bd5:	e8 76 b5 00 00       	call   d150 <task_retval>
    1bda:	c7 04 24 01 00 00 00 	movl   $0x1,(%esp)
    1be1:	e8 4a 94 00 00       	call   b030 <fibril_switch>
    1be6:	31 c0                	xor    %eax,%eax
    1be8:	c9                   	leave  
    1be9:	c3                   	ret    
    1bea:	66 90                	xchg   %ax,%ax
    1bec:	66 90                	xchg   %ax,%ax
    1bee:	66 90                	xchg   %ax,%ax

00001bf0 <ethip_nic_check_new>:
    1bf0:	55                   	push   %ebp
    1bf1:	89 e5                	mov    %esp,%ebp
    1bf3:	57                   	push   %edi
    1bf4:	56                   	push   %esi
    1bf5:	53                   	push   %ebx
    1bf6:	83 ec 5c             	sub    $0x5c,%esp
    1bf9:	c7 04 24 d8 4c 02 00 	movl   $0x24cd8,(%esp)
    1c00:	e8 fb 9b 00 00       	call   b800 <fibril_mutex_lock>
    1c05:	8d 45 d4             	lea    -0x2c(%ebp),%eax
    1c08:	c7 44 24 08 01 00 00 	movl   $0x1,0x8(%esp)
    1c0f:	00 
    1c10:	89 44 24 04          	mov    %eax,0x4(%esp)
    1c14:	c7 04 24 17 1d 02 00 	movl   $0x21d17,(%esp)
    1c1b:	e8 10 47 00 00       	call   6330 <loc_category_get_id>
    1c20:	85 c0                	test   %eax,%eax
    1c22:	0f 85 40 03 00 00    	jne    1f68 <ethip_nic_check_new+0x378>
    1c28:	8d 45 dc             	lea    -0x24(%ebp),%eax
    1c2b:	89 44 24 08          	mov    %eax,0x8(%esp)
    1c2f:	8d 45 d8             	lea    -0x28(%ebp),%eax
    1c32:	89 44 24 04          	mov    %eax,0x4(%esp)
    1c36:	8b 45 d4             	mov    -0x2c(%ebp),%eax
    1c39:	89 04 24             	mov    %eax,(%esp)
    1c3c:	e8 df 57 00 00       	call   7420 <loc_category_get_svcs>
    1c41:	85 c0                	test   %eax,%eax
    1c43:	0f 85 81 03 00 00    	jne    1fca <ethip_nic_check_new+0x3da>
    1c49:	8b 4d dc             	mov    -0x24(%ebp),%ecx
    1c4c:	31 db                	xor    %ebx,%ebx
    1c4e:	85 c9                	test   %ecx,%ecx
    1c50:	0f 84 24 01 00 00    	je     1d7a <ethip_nic_check_new+0x18a>
    1c56:	66 90                	xchg   %ax,%ax
    1c58:	a1 ec 4c 02 00       	mov    0x24cec,%eax
    1c5d:	8d 34 9d 00 00 00 00 	lea    0x0(,%ebx,4),%esi
    1c64:	3d e8 4c 02 00       	cmp    $0x24ce8,%eax
    1c69:	0f 84 33 02 00 00    	je     1ea2 <ethip_nic_check_new+0x2b2>
    1c6f:	8b 55 d8             	mov    -0x28(%ebp),%edx
    1c72:	8b 14 32             	mov    (%edx,%esi,1),%edx
    1c75:	39 50 08             	cmp    %edx,0x8(%eax)
    1c78:	75 0f                	jne    1c89 <ethip_nic_check_new+0x99>
    1c7a:	e9 f2 00 00 00       	jmp    1d71 <ethip_nic_check_new+0x181>
    1c7f:	90                   	nop
    1c80:	39 50 08             	cmp    %edx,0x8(%eax)
    1c83:	0f 84 e8 00 00 00    	je     1d71 <ethip_nic_check_new+0x181>
    1c89:	8b 40 04             	mov    0x4(%eax),%eax
    1c8c:	3d e8 4c 02 00       	cmp    $0x24ce8,%eax
    1c91:	75 ed                	jne    1c80 <ethip_nic_check_new+0x90>
    1c93:	89 54 24 0c          	mov    %edx,0xc(%esp)
    1c97:	c7 44 24 08 8e 1d 02 	movl   $0x21d8e,0x8(%esp)
    1c9e:	00 
    1c9f:	c7 44 24 04 04 00 00 	movl   $0x4,0x4(%esp)
    1ca6:	00 
    1ca7:	c7 04 24 ff ff ff ff 	movl   $0xffffffff,(%esp)
    1cae:	e8 2d de 00 00       	call   fae0 <log_msg>
    1cb3:	8b 45 d8             	mov    -0x28(%ebp),%eax
    1cb6:	8b 04 30             	mov    (%eax,%esi,1),%eax
    1cb9:	c7 44 24 08 9e 1d 02 	movl   $0x21d9e,0x8(%esp)
    1cc0:	00 
    1cc1:	c7 44 24 04 04 00 00 	movl   $0x4,0x4(%esp)
    1cc8:	00 
    1cc9:	c7 04 24 ff ff ff ff 	movl   $0xffffffff,(%esp)
    1cd0:	89 45 c4             	mov    %eax,-0x3c(%ebp)
    1cd3:	e8 08 de 00 00       	call   fae0 <log_msg>
    1cd8:	c7 44 24 04 48 00 00 	movl   $0x48,0x4(%esp)
    1cdf:	00 
    1ce0:	c7 04 24 01 00 00 00 	movl   $0x1,(%esp)
    1ce7:	e8 24 31 01 00       	call   14e10 <calloc>
    1cec:	89 c7                	mov    %eax,%edi
    1cee:	85 c0                	test   %eax,%eax
    1cf0:	0f 84 08 01 00 00    	je     1dfe <ethip_nic_check_new+0x20e>
    1cf6:	8d 47 40             	lea    0x40(%edi),%eax
    1cf9:	8b 55 c4             	mov    -0x3c(%ebp),%edx
    1cfc:	89 47 40             	mov    %eax,0x40(%edi)
    1cff:	89 47 44             	mov    %eax,0x44(%edi)
    1d02:	8d 47 0c             	lea    0xc(%edi),%eax
    1d05:	89 14 24             	mov    %edx,(%esp)
    1d08:	89 44 24 04          	mov    %eax,0x4(%esp)
    1d0c:	c7 07 00 00 00 00    	movl   $0x0,(%edi)
    1d12:	c7 47 04 00 00 00 00 	movl   $0x0,0x4(%edi)
    1d19:	e8 72 43 00 00       	call   6090 <loc_service_get_name>
    1d1e:	89 c6                	mov    %eax,%esi
    1d20:	85 c0                	test   %eax,%eax
    1d22:	74 6c                	je     1d90 <ethip_nic_check_new+0x1a0>
    1d24:	c7 44 24 08 1b 1d 02 	movl   $0x21d1b,0x8(%esp)
    1d2b:	00 
    1d2c:	c7 44 24 04 01 00 00 	movl   $0x1,0x4(%esp)
    1d33:	00 
    1d34:	c7 04 24 ff ff ff ff 	movl   $0xffffffff,(%esp)
    1d3b:	e8 a0 dd 00 00       	call   fae0 <log_msg>
    1d40:	8b 47 10             	mov    0x10(%edi),%eax
    1d43:	85 c0                	test   %eax,%eax
    1d45:	74 08                	je     1d4f <ethip_nic_check_new+0x15f>
    1d47:	89 04 24             	mov    %eax,(%esp)
    1d4a:	e8 61 65 01 00       	call   182b0 <async_hangup>
    1d4f:	8b 47 0c             	mov    0xc(%edi),%eax
    1d52:	85 c0                	test   %eax,%eax
    1d54:	74 08                	je     1d5e <ethip_nic_check_new+0x16e>
    1d56:	89 04 24             	mov    %eax,(%esp)
    1d59:	e8 22 32 01 00       	call   14f80 <free>
    1d5e:	89 3c 24             	mov    %edi,(%esp)
    1d61:	e8 1a 32 01 00       	call   14f80 <free>
    1d66:	85 f6                	test   %esi,%esi
    1d68:	0f 85 ac 00 00 00    	jne    1e1a <ethip_nic_check_new+0x22a>
    1d6e:	8b 4d dc             	mov    -0x24(%ebp),%ecx
    1d71:	43                   	inc    %ebx
    1d72:	39 cb                	cmp    %ecx,%ebx
    1d74:	0f 82 de fe ff ff    	jb     1c58 <ethip_nic_check_new+0x68>
    1d7a:	c7 04 24 d8 4c 02 00 	movl   $0x24cd8,(%esp)
    1d81:	e8 9a 9b 00 00       	call   b920 <fibril_mutex_unlock>
    1d86:	31 c0                	xor    %eax,%eax
    1d88:	83 c4 5c             	add    $0x5c,%esp
    1d8b:	5b                   	pop    %ebx
    1d8c:	5e                   	pop    %esi
    1d8d:	5f                   	pop    %edi
    1d8e:	5d                   	pop    %ebp
    1d8f:	c3                   	ret    
    1d90:	8b 55 c4             	mov    -0x3c(%ebp),%edx
    1d93:	c7 44 24 08 00 00 00 	movl   $0x0,0x8(%esp)
    1d9a:	00 
    1d9b:	89 54 24 04          	mov    %edx,0x4(%esp)
    1d9f:	c7 04 24 02 00 00 00 	movl   $0x2,(%esp)
    1da6:	e8 55 49 00 00       	call   6700 <loc_service_connect>
    1dab:	89 47 10             	mov    %eax,0x10(%edi)
    1dae:	85 c0                	test   %eax,%eax
    1db0:	0f 84 f7 00 00 00    	je     1ead <ethip_nic_check_new+0x2bd>
    1db6:	8b 55 c4             	mov    -0x3c(%ebp),%edx
    1db9:	89 7c 24 08          	mov    %edi,0x8(%esp)
    1dbd:	c7 44 24 04 10 20 00 	movl   $0x2010,0x4(%esp)
    1dc4:	00 
    1dc5:	89 04 24             	mov    %eax,(%esp)
    1dc8:	89 57 08             	mov    %edx,0x8(%edi)
    1dcb:	e8 90 11 00 00       	call   2f60 <nic_callback_create>
    1dd0:	89 c6                	mov    %eax,%esi
    1dd2:	8b 47 0c             	mov    0xc(%edi),%eax
    1dd5:	89 44 24 0c          	mov    %eax,0xc(%esp)
    1dd9:	85 f6                	test   %esi,%esi
    1ddb:	74 5e                	je     1e3b <ethip_nic_check_new+0x24b>
    1ddd:	c7 44 24 08 34 1f 02 	movl   $0x21f34,0x8(%esp)
    1de4:	00 
    1de5:	c7 44 24 04 01 00 00 	movl   $0x1,0x4(%esp)
    1dec:	00 
    1ded:	c7 04 24 ff ff ff ff 	movl   $0xffffffff,(%esp)
    1df4:	e8 e7 dc 00 00       	call   fae0 <log_msg>
    1df9:	e9 42 ff ff ff       	jmp    1d40 <ethip_nic_check_new+0x150>
    1dfe:	c7 44 24 08 04 1f 02 	movl   $0x21f04,0x8(%esp)
    1e05:	00 
    1e06:	c7 44 24 04 01 00 00 	movl   $0x1,0x4(%esp)
    1e0d:	00 
    1e0e:	c7 04 24 ff ff ff ff 	movl   $0xffffffff,(%esp)
    1e15:	e8 c6 dc 00 00       	call   fae0 <log_msg>
    1e1a:	c7 44 24 08 7a 1d 02 	movl   $0x21d7a,0x8(%esp)
    1e21:	00 
    1e22:	c7 44 24 04 01 00 00 	movl   $0x1,0x4(%esp)
    1e29:	00 
    1e2a:	c7 04 24 ff ff ff ff 	movl   $0xffffffff,(%esp)
    1e31:	e8 aa dc 00 00       	call   fae0 <log_msg>
    1e36:	e9 33 ff ff ff       	jmp    1d6e <ethip_nic_check_new+0x17e>
    1e3b:	c7 44 24 08 4f 1d 02 	movl   $0x21d4f,0x8(%esp)
    1e42:	00 
    1e43:	c7 44 24 04 04 00 00 	movl   $0x4,0x4(%esp)
    1e4a:	00 
    1e4b:	c7 04 24 ff ff ff ff 	movl   $0xffffffff,(%esp)
    1e52:	e8 89 dc 00 00       	call   fae0 <log_msg>
    1e57:	a1 e8 4c 02 00       	mov    0x24ce8,%eax
    1e5c:	c7 47 04 e8 4c 02 00 	movl   $0x24ce8,0x4(%edi)
    1e63:	89 78 04             	mov    %edi,0x4(%eax)
    1e66:	89 3c 24             	mov    %edi,(%esp)
    1e69:	89 07                	mov    %eax,(%edi)
    1e6b:	89 3d e8 4c 02 00    	mov    %edi,0x24ce8
    1e71:	e8 da f9 ff ff       	call   1850 <ethip_iplink_init>
    1e76:	89 c6                	mov    %eax,%esi
    1e78:	85 c0                	test   %eax,%eax
    1e7a:	74 59                	je     1ed5 <ethip_nic_check_new+0x2e5>
    1e7c:	8b 0f                	mov    (%edi),%ecx
    1e7e:	85 c9                	test   %ecx,%ecx
    1e80:	74 0e                	je     1e90 <ethip_nic_check_new+0x2a0>
    1e82:	8b 47 04             	mov    0x4(%edi),%eax
    1e85:	85 c0                	test   %eax,%eax
    1e87:	74 07                	je     1e90 <ethip_nic_check_new+0x2a0>
    1e89:	89 08                	mov    %ecx,(%eax)
    1e8b:	8b 0f                	mov    (%edi),%ecx
    1e8d:	89 41 04             	mov    %eax,0x4(%ecx)
    1e90:	c7 07 00 00 00 00    	movl   $0x0,(%edi)
    1e96:	c7 47 04 00 00 00 00 	movl   $0x0,0x4(%edi)
    1e9d:	e9 9e fe ff ff       	jmp    1d40 <ethip_nic_check_new+0x150>
    1ea2:	8b 45 d8             	mov    -0x28(%ebp),%eax
    1ea5:	8b 14 30             	mov    (%eax,%esi,1),%edx
    1ea8:	e9 e6 fd ff ff       	jmp    1c93 <ethip_nic_check_new+0xa3>
    1ead:	8b 47 0c             	mov    0xc(%edi),%eax
    1eb0:	c7 44 24 08 38 1d 02 	movl   $0x21d38,0x8(%esp)
    1eb7:	00 
    1eb8:	89 44 24 0c          	mov    %eax,0xc(%esp)
    1ebc:	c7 44 24 04 01 00 00 	movl   $0x1,0x4(%esp)
    1ec3:	00 
    1ec4:	c7 04 24 ff ff ff ff 	movl   $0xffffffff,(%esp)
    1ecb:	e8 10 dc 00 00       	call   fae0 <log_msg>
    1ed0:	e9 6b fe ff ff       	jmp    1d40 <ethip_nic_check_new+0x150>
    1ed5:	8d 45 e2             	lea    -0x1e(%ebp),%eax
    1ed8:	89 44 24 04          	mov    %eax,0x4(%esp)
    1edc:	8b 47 10             	mov    0x10(%edi),%eax
    1edf:	89 04 24             	mov    %eax,(%esp)
    1ee2:	e8 69 12 00 00       	call   3150 <nic_get_address>
    1ee7:	89 c6                	mov    %eax,%esi
    1ee9:	85 c0                	test   %eax,%eax
    1eeb:	74 28                	je     1f15 <ethip_nic_check_new+0x325>
    1eed:	8b 47 0c             	mov    0xc(%edi),%eax
    1ef0:	c7 44 24 08 64 1f 02 	movl   $0x21f64,0x8(%esp)
    1ef7:	00 
    1ef8:	89 44 24 0c          	mov    %eax,0xc(%esp)
    1efc:	c7 44 24 04 01 00 00 	movl   $0x1,0x4(%esp)
    1f03:	00 
    1f04:	c7 04 24 ff ff ff ff 	movl   $0xffffffff,(%esp)
    1f0b:	e8 d0 db 00 00       	call   fae0 <log_msg>
    1f10:	e9 67 ff ff ff       	jmp    1e7c <ethip_nic_check_new+0x28c>
    1f15:	8d 47 38             	lea    0x38(%edi),%eax
    1f18:	8d 55 e2             	lea    -0x1e(%ebp),%edx
    1f1b:	89 44 24 04          	mov    %eax,0x4(%esp)
    1f1f:	89 14 24             	mov    %edx,(%esp)
    1f22:	e8 79 09 00 00       	call   28a0 <mac48_decode>
    1f27:	8b 47 10             	mov    0x10(%edi),%eax
    1f2a:	c7 44 24 04 02 00 00 	movl   $0x2,0x4(%esp)
    1f31:	00 
    1f32:	89 04 24             	mov    %eax,(%esp)
    1f35:	e8 96 11 00 00       	call   30d0 <nic_set_state>
    1f3a:	89 c6                	mov    %eax,%esi
    1f3c:	85 c0                	test   %eax,%eax
    1f3e:	74 58                	je     1f98 <ethip_nic_check_new+0x3a8>
    1f40:	8b 47 0c             	mov    0xc(%edi),%eax
    1f43:	c7 44 24 08 5f 1d 02 	movl   $0x21d5f,0x8(%esp)
    1f4a:	00 
    1f4b:	89 44 24 0c          	mov    %eax,0xc(%esp)
    1f4f:	c7 44 24 04 01 00 00 	movl   $0x1,0x4(%esp)
    1f56:	00 
    1f57:	c7 04 24 ff ff ff ff 	movl   $0xffffffff,(%esp)
    1f5e:	e8 7d db 00 00       	call   fae0 <log_msg>
    1f63:	e9 14 ff ff ff       	jmp    1e7c <ethip_nic_check_new+0x28c>
    1f68:	c7 44 24 08 bc 1e 02 	movl   $0x21ebc,0x8(%esp)
    1f6f:	00 
    1f70:	c7 44 24 04 01 00 00 	movl   $0x1,0x4(%esp)
    1f77:	00 
    1f78:	c7 04 24 ff ff ff ff 	movl   $0xffffffff,(%esp)
    1f7f:	e8 5c db 00 00       	call   fae0 <log_msg>
    1f84:	c7 04 24 d8 4c 02 00 	movl   $0x24cd8,(%esp)
    1f8b:	e8 90 99 00 00       	call   b920 <fibril_mutex_unlock>
    1f90:	83 c8 ff             	or     $0xffffffff,%eax
    1f93:	e9 f0 fd ff ff       	jmp    1d88 <ethip_nic_check_new+0x198>
    1f98:	8b 47 38             	mov    0x38(%edi),%eax
    1f9b:	8b 57 3c             	mov    0x3c(%edi),%edx
    1f9e:	89 44 24 0c          	mov    %eax,0xc(%esp)
    1fa2:	89 54 24 10          	mov    %edx,0x10(%esp)
    1fa6:	c7 44 24 08 8c 1f 02 	movl   $0x21f8c,0x8(%esp)
    1fad:	00 
    1fae:	c7 44 24 04 04 00 00 	movl   $0x4,0x4(%esp)
    1fb5:	00 
    1fb6:	c7 04 24 ff ff ff ff 	movl   $0xffffffff,(%esp)
    1fbd:	e8 1e db 00 00       	call   fae0 <log_msg>
    1fc2:	8b 4d dc             	mov    -0x24(%ebp),%ecx
    1fc5:	e9 a7 fd ff ff       	jmp    1d71 <ethip_nic_check_new+0x181>
    1fca:	c7 44 24 08 e0 1e 02 	movl   $0x21ee0,0x8(%esp)
    1fd1:	00 
    1fd2:	c7 44 24 04 01 00 00 	movl   $0x1,0x4(%esp)
    1fd9:	00 
    1fda:	c7 04 24 ff ff ff ff 	movl   $0xffffffff,(%esp)
    1fe1:	e8 fa da 00 00       	call   fae0 <log_msg>
    1fe6:	c7 04 24 d8 4c 02 00 	movl   $0x24cd8,(%esp)
    1fed:	e8 2e 99 00 00       	call   b920 <fibril_mutex_unlock>
    1ff2:	b8 f7 fe ff ff       	mov    $0xfffffef7,%eax
    1ff7:	e9 8c fd ff ff       	jmp    1d88 <ethip_nic_check_new+0x198>
    1ffc:	8d 74 26 00          	lea    0x0(%esi,%eiz,1),%esi

00002000 <ethip_nic_cat_change_cb>:
    2000:	55                   	push   %ebp
    2001:	89 e5                	mov    %esp,%ebp
    2003:	5d                   	pop    %ebp
    2004:	e9 e7 fb ff ff       	jmp    1bf0 <ethip_nic_check_new>
    2009:	8d b4 26 00 00 00 00 	lea    0x0(%esi,%eiz,1),%esi

00002010 <ethip_nic_cb_conn>:
    2010:	55                   	push   %ebp
    2011:	89 e5                	mov    %esp,%ebp
    2013:	57                   	push   %edi
    2014:	56                   	push   %esi
    2015:	53                   	push   %ebx
    2016:	83 ec 5c             	sub    $0x5c,%esp
    2019:	8d 5d c4             	lea    -0x3c(%ebp),%ebx
    201c:	c7 44 24 08 af 1d 02 	movl   $0x21daf,0x8(%esp)
    2023:	00 
    2024:	c7 44 24 04 04 00 00 	movl   $0x4,0x4(%esp)
    202b:	00 
    202c:	c7 04 24 ff ff ff ff 	movl   $0xffffffff,(%esp)
    2033:	e8 a8 da 00 00       	call   fae0 <log_msg>
    2038:	c7 44 24 04 00 00 00 	movl   $0x0,0x4(%esp)
    203f:	00 
    2040:	89 1c 24             	mov    %ebx,(%esp)
    2043:	e8 38 43 01 00       	call   16380 <async_get_call_timeout>
    2048:	8b 55 c4             	mov    -0x3c(%ebp),%edx
    204b:	89 c6                	mov    %eax,%esi
    204d:	85 d2                	test   %edx,%edx
    204f:	0f 84 83 01 00 00    	je     21d8 <ethip_nic_cb_conn+0x1c8>
    2055:	81 fa 01 04 00 00    	cmp    $0x401,%edx
    205b:	74 2b                	je     2088 <ethip_nic_cb_conn+0x78>
    205d:	81 fa 02 04 00 00    	cmp    $0x402,%edx
    2063:	0f 84 5f 01 00 00    	je     21c8 <ethip_nic_cb_conn+0x1b8>
    2069:	81 fa 00 04 00 00    	cmp    $0x400,%edx
    206f:	0f 84 2b 01 00 00    	je     21a0 <ethip_nic_cb_conn+0x190>
    2075:	c7 44 24 04 f5 ff ff 	movl   $0xfffffff5,0x4(%esp)
    207c:	ff 
    207d:	89 34 24             	mov    %esi,(%esp)
    2080:	e8 2b 59 01 00       	call   179b0 <async_answer_0>
    2085:	eb b1                	jmp    2038 <ethip_nic_cb_conn+0x28>
    2087:	90                   	nop
    2088:	8b 45 10             	mov    0x10(%ebp),%eax
    208b:	c7 44 24 08 dd 1d 02 	movl   $0x21ddd,0x8(%esp)
    2092:	00 
    2093:	89 44 24 0c          	mov    %eax,0xc(%esp)
    2097:	c7 44 24 04 04 00 00 	movl   $0x4,0x4(%esp)
    209e:	00 
    209f:	c7 04 24 ff ff ff ff 	movl   $0xffffffff,(%esp)
    20a6:	e8 35 da 00 00       	call   fae0 <log_msg>
    20ab:	8d 45 c0             	lea    -0x40(%ebp),%eax
    20ae:	89 44 24 14          	mov    %eax,0x14(%esp)
    20b2:	8d 45 bc             	lea    -0x44(%ebp),%eax
    20b5:	c7 44 24 10 00 00 00 	movl   $0x0,0x10(%esp)
    20bc:	00 
    20bd:	c7 44 24 0c 00 00 00 	movl   $0x0,0xc(%esp)
    20c4:	00 
    20c5:	c7 44 24 08 00 00 00 	movl   $0x0,0x8(%esp)
    20cc:	00 
    20cd:	c7 44 24 04 00 00 00 	movl   $0x0,0x4(%esp)
    20d4:	00 
    20d5:	89 04 24             	mov    %eax,(%esp)
    20d8:	e8 f3 73 01 00       	call   194d0 <async_data_write_accept>
    20dd:	85 c0                	test   %eax,%eax
    20df:	0f 85 fb 00 00 00    	jne    21e0 <ethip_nic_cb_conn+0x1d0>
    20e5:	8b 45 c0             	mov    -0x40(%ebp),%eax
    20e8:	c7 44 24 08 b8 1f 02 	movl   $0x21fb8,0x8(%esp)
    20ef:	00 
    20f0:	89 44 24 0c          	mov    %eax,0xc(%esp)
    20f4:	c7 44 24 04 04 00 00 	movl   $0x4,0x4(%esp)
    20fb:	00 
    20fc:	c7 04 24 ff ff ff ff 	movl   $0xffffffff,(%esp)
    2103:	e8 d8 d9 00 00       	call   fae0 <log_msg>
    2108:	c7 44 24 08 14 1e 02 	movl   $0x21e14,0x8(%esp)
    210f:	00 
    2110:	c7 44 24 04 04 00 00 	movl   $0x4,0x4(%esp)
    2117:	00 
    2118:	c7 04 24 ff ff ff ff 	movl   $0xffffffff,(%esp)
    211f:	e8 bc d9 00 00       	call   fae0 <log_msg>
    2124:	8b 45 c0             	mov    -0x40(%ebp),%eax
    2127:	89 44 24 08          	mov    %eax,0x8(%esp)
    212b:	8b 45 bc             	mov    -0x44(%ebp),%eax
    212e:	89 44 24 04          	mov    %eax,0x4(%esp)
    2132:	8b 45 10             	mov    0x10(%ebp),%eax
    2135:	83 c0 14             	add    $0x14,%eax
    2138:	89 04 24             	mov    %eax,(%esp)
    213b:	e8 60 f8 ff ff       	call   19a0 <ethip_received>
    2140:	c7 44 24 08 28 1e 02 	movl   $0x21e28,0x8(%esp)
    2147:	00 
    2148:	c7 44 24 04 04 00 00 	movl   $0x4,0x4(%esp)
    214f:	00 
    2150:	c7 04 24 ff ff ff ff 	movl   $0xffffffff,(%esp)
    2157:	89 c7                	mov    %eax,%edi
    2159:	e8 82 d9 00 00       	call   fae0 <log_msg>
    215e:	8b 45 bc             	mov    -0x44(%ebp),%eax
    2161:	89 04 24             	mov    %eax,(%esp)
    2164:	e8 17 2e 01 00       	call   14f80 <free>
    2169:	89 7c 24 0c          	mov    %edi,0xc(%esp)
    216d:	c7 44 24 08 dc 1f 02 	movl   $0x21fdc,0x8(%esp)
    2174:	00 
    2175:	c7 44 24 04 04 00 00 	movl   $0x4,0x4(%esp)
    217c:	00 
    217d:	c7 04 24 ff ff ff ff 	movl   $0xffffffff,(%esp)
    2184:	e8 57 d9 00 00       	call   fae0 <log_msg>
    2189:	89 7c 24 04          	mov    %edi,0x4(%esp)
    218d:	89 34 24             	mov    %esi,(%esp)
    2190:	e8 1b 58 01 00       	call   179b0 <async_answer_0>
    2195:	e9 9e fe ff ff       	jmp    2038 <ethip_nic_cb_conn+0x28>
    219a:	8d b6 00 00 00 00    	lea    0x0(%esi),%esi
    21a0:	c7 44 24 08 c4 1d 02 	movl   $0x21dc4,0x8(%esp)
    21a7:	00 
    21a8:	c7 44 24 04 04 00 00 	movl   $0x4,0x4(%esp)
    21af:	00 
    21b0:	c7 04 24 ff ff ff ff 	movl   $0xffffffff,(%esp)
    21b7:	e8 24 d9 00 00       	call   fae0 <log_msg>
    21bc:	e9 b4 fe ff ff       	jmp    2075 <ethip_nic_cb_conn+0x65>
    21c1:	8d b4 26 00 00 00 00 	lea    0x0(%esi,%eiz,1),%esi
    21c8:	c7 44 24 08 32 1e 02 	movl   $0x21e32,0x8(%esp)
    21cf:	00 
    21d0:	eb d6                	jmp    21a8 <ethip_nic_cb_conn+0x198>
    21d2:	8d b6 00 00 00 00    	lea    0x0(%esi),%esi
    21d8:	83 c4 5c             	add    $0x5c,%esp
    21db:	5b                   	pop    %ebx
    21dc:	5e                   	pop    %esi
    21dd:	5f                   	pop    %edi
    21de:	5d                   	pop    %ebp
    21df:	c3                   	ret    
    21e0:	c7 44 24 08 f9 1d 02 	movl   $0x21df9,0x8(%esp)
    21e7:	00 
    21e8:	c7 44 24 04 04 00 00 	movl   $0x4,0x4(%esp)
    21ef:	00 
    21f0:	c7 04 24 ff ff ff ff 	movl   $0xffffffff,(%esp)
    21f7:	e8 e4 d8 00 00       	call   fae0 <log_msg>
    21fc:	e9 37 fe ff ff       	jmp    2038 <ethip_nic_cb_conn+0x28>
    2201:	eb 0d                	jmp    2210 <ethip_nic_discovery_start>
    2203:	90                   	nop
    2204:	90                   	nop
    2205:	90                   	nop
    2206:	90                   	nop
    2207:	90                   	nop
    2208:	90                   	nop
    2209:	90                   	nop
    220a:	90                   	nop
    220b:	90                   	nop
    220c:	90                   	nop
    220d:	90                   	nop
    220e:	90                   	nop
    220f:	90                   	nop

00002210 <ethip_nic_discovery_start>:
    2210:	55                   	push   %ebp
    2211:	89 e5                	mov    %esp,%ebp
    2213:	83 ec 28             	sub    $0x28,%esp
    2216:	c7 04 24 00 20 00 00 	movl   $0x2000,(%esp)
    221d:	e8 3e 52 00 00       	call   7460 <loc_register_cat_change_cb>
    2222:	85 c0                	test   %eax,%eax
    2224:	75 0a                	jne    2230 <ethip_nic_discovery_start+0x20>
    2226:	c9                   	leave  
    2227:	e9 c4 f9 ff ff       	jmp    1bf0 <ethip_nic_check_new>
    222c:	8d 74 26 00          	lea    0x0(%esi,%eiz,1),%esi
    2230:	89 44 24 0c          	mov    %eax,0xc(%esp)
    2234:	c7 44 24 08 00 20 02 	movl   $0x22000,0x8(%esp)
    223b:	00 
    223c:	c7 44 24 04 01 00 00 	movl   $0x1,0x4(%esp)
    2243:	00 
    2244:	c7 04 24 ff ff ff ff 	movl   $0xffffffff,(%esp)
    224b:	89 45 f4             	mov    %eax,-0xc(%ebp)
    224e:	e8 8d d8 00 00       	call   fae0 <log_msg>
    2253:	8b 45 f4             	mov    -0xc(%ebp),%eax
    2256:	c9                   	leave  
    2257:	c3                   	ret    
    2258:	90                   	nop
    2259:	8d b4 26 00 00 00 00 	lea    0x0(%esi,%eiz,1),%esi

00002260 <ethip_nic_find_by_iplink_sid>:
    2260:	55                   	push   %ebp
    2261:	89 e5                	mov    %esp,%ebp
    2263:	56                   	push   %esi
    2264:	53                   	push   %ebx
    2265:	83 ec 10             	sub    $0x10,%esp
    2268:	8b 75 08             	mov    0x8(%ebp),%esi
    226b:	89 74 24 0c          	mov    %esi,0xc(%esp)
    226f:	c7 44 24 08 34 20 02 	movl   $0x22034,0x8(%esp)
    2276:	00 
    2277:	c7 44 24 04 04 00 00 	movl   $0x4,0x4(%esp)
    227e:	00 
    227f:	c7 04 24 ff ff ff ff 	movl   $0xffffffff,(%esp)
    2286:	e8 55 d8 00 00       	call   fae0 <log_msg>
    228b:	8b 1d ec 4c 02 00    	mov    0x24cec,%ebx
    2291:	81 fb e8 4c 02 00    	cmp    $0x24ce8,%ebx
    2297:	75 12                	jne    22ab <ethip_nic_find_by_iplink_sid+0x4b>
    2299:	eb 5d                	jmp    22f8 <ethip_nic_find_by_iplink_sid+0x98>
    229b:	90                   	nop
    229c:	8d 74 26 00          	lea    0x0(%esi,%eiz,1),%esi
    22a0:	8b 5b 04             	mov    0x4(%ebx),%ebx
    22a3:	81 fb e8 4c 02 00    	cmp    $0x24ce8,%ebx
    22a9:	74 4d                	je     22f8 <ethip_nic_find_by_iplink_sid+0x98>
    22ab:	c7 44 24 08 84 20 02 	movl   $0x22084,0x8(%esp)
    22b2:	00 
    22b3:	c7 44 24 04 04 00 00 	movl   $0x4,0x4(%esp)
    22ba:	00 
    22bb:	c7 04 24 ff ff ff ff 	movl   $0xffffffff,(%esp)
    22c2:	e8 19 d8 00 00       	call   fae0 <log_msg>
    22c7:	39 73 34             	cmp    %esi,0x34(%ebx)
    22ca:	75 d4                	jne    22a0 <ethip_nic_find_by_iplink_sid+0x40>
    22cc:	89 5c 24 0c          	mov    %ebx,0xc(%esp)
    22d0:	c7 44 24 08 ac 20 02 	movl   $0x220ac,0x8(%esp)
    22d7:	00 
    22d8:	c7 44 24 04 04 00 00 	movl   $0x4,0x4(%esp)
    22df:	00 
    22e0:	c7 04 24 ff ff ff ff 	movl   $0xffffffff,(%esp)
    22e7:	e8 f4 d7 00 00       	call   fae0 <log_msg>
    22ec:	83 c4 10             	add    $0x10,%esp
    22ef:	89 d8                	mov    %ebx,%eax
    22f1:	5b                   	pop    %ebx
    22f2:	5e                   	pop    %esi
    22f3:	5d                   	pop    %ebp
    22f4:	c3                   	ret    
    22f5:	8d 76 00             	lea    0x0(%esi),%esi
    22f8:	c7 44 24 08 58 20 02 	movl   $0x22058,0x8(%esp)
    22ff:	00 
    2300:	c7 44 24 04 04 00 00 	movl   $0x4,0x4(%esp)
    2307:	00 
    2308:	c7 04 24 ff ff ff ff 	movl   $0xffffffff,(%esp)
    230f:	e8 cc d7 00 00       	call   fae0 <log_msg>
    2314:	83 c4 10             	add    $0x10,%esp
    2317:	31 c0                	xor    %eax,%eax
    2319:	5b                   	pop    %ebx
    231a:	5e                   	pop    %esi
    231b:	5d                   	pop    %ebp
    231c:	c3                   	ret    
    231d:	8d 76 00             	lea    0x0(%esi),%esi

00002320 <ethip_nic_send>:
    2320:	55                   	push   %ebp
    2321:	89 e5                	mov    %esp,%ebp
    2323:	53                   	push   %ebx
    2324:	83 ec 24             	sub    $0x24,%esp
    2327:	8b 5d 10             	mov    0x10(%ebp),%ebx
    232a:	89 5c 24 0c          	mov    %ebx,0xc(%esp)
    232e:	c7 44 24 08 4b 1e 02 	movl   $0x21e4b,0x8(%esp)
    2335:	00 
    2336:	c7 44 24 04 04 00 00 	movl   $0x4,0x4(%esp)
    233d:	00 
    233e:	c7 04 24 ff ff ff ff 	movl   $0xffffffff,(%esp)
    2345:	e8 96 d7 00 00       	call   fae0 <log_msg>
    234a:	8b 45 0c             	mov    0xc(%ebp),%eax
    234d:	89 44 24 04          	mov    %eax,0x4(%esp)
    2351:	8b 45 08             	mov    0x8(%ebp),%eax
    2354:	89 5c 24 08          	mov    %ebx,0x8(%esp)
    2358:	8b 40 10             	mov    0x10(%eax),%eax
    235b:	89 04 24             	mov    %eax,(%esp)
    235e:	e8 4d 0b 00 00       	call   2eb0 <nic_send_frame>
    2363:	c7 44 24 08 64 1e 02 	movl   $0x21e64,0x8(%esp)
    236a:	00 
    236b:	89 44 24 0c          	mov    %eax,0xc(%esp)
    236f:	c7 44 24 04 04 00 00 	movl   $0x4,0x4(%esp)
    2376:	00 
    2377:	c7 04 24 ff ff ff ff 	movl   $0xffffffff,(%esp)
    237e:	89 45 f4             	mov    %eax,-0xc(%ebp)
    2381:	e8 5a d7 00 00       	call   fae0 <log_msg>
    2386:	8b 45 f4             	mov    -0xc(%ebp),%eax
    2389:	83 c4 24             	add    $0x24,%esp
    238c:	5b                   	pop    %ebx
    238d:	5d                   	pop    %ebp
    238e:	c3                   	ret    
    238f:	90                   	nop

00002390 <ethip_nic_addr_add>:
    2390:	55                   	push   %ebp
    2391:	89 e5                	mov    %esp,%ebp
    2393:	53                   	push   %ebx
    2394:	83 ec 14             	sub    $0x14,%esp
    2397:	8b 5d 08             	mov    0x8(%ebp),%ebx
    239a:	c7 44 24 08 79 1e 02 	movl   $0x21e79,0x8(%esp)
    23a1:	00 
    23a2:	c7 44 24 04 04 00 00 	movl   $0x4,0x4(%esp)
    23a9:	00 
    23aa:	c7 04 24 ff ff ff ff 	movl   $0xffffffff,(%esp)
    23b1:	e8 2a d7 00 00       	call   fae0 <log_msg>
    23b6:	c7 44 24 04 0c 00 00 	movl   $0xc,0x4(%esp)
    23bd:	00 
    23be:	c7 04 24 01 00 00 00 	movl   $0x1,(%esp)
    23c5:	e8 46 2a 01 00       	call   14e10 <calloc>
    23ca:	85 c0                	test   %eax,%eax
    23cc:	74 27                	je     23f5 <ethip_nic_addr_add+0x65>
    23ce:	8b 55 0c             	mov    0xc(%ebp),%edx
    23d1:	c7 00 00 00 00 00    	movl   $0x0,(%eax)
    23d7:	8b 12                	mov    (%edx),%edx
    23d9:	89 50 08             	mov    %edx,0x8(%eax)
    23dc:	8d 53 40             	lea    0x40(%ebx),%edx
    23df:	89 50 04             	mov    %edx,0x4(%eax)
    23e2:	8b 53 40             	mov    0x40(%ebx),%edx
    23e5:	89 10                	mov    %edx,(%eax)
    23e7:	89 43 40             	mov    %eax,0x40(%ebx)
    23ea:	89 42 04             	mov    %eax,0x4(%edx)
    23ed:	31 c0                	xor    %eax,%eax
    23ef:	83 c4 14             	add    $0x14,%esp
    23f2:	5b                   	pop    %ebx
    23f3:	5d                   	pop    %ebp
    23f4:	c3                   	ret    
    23f5:	c7 44 24 08 d4 20 02 	movl   $0x220d4,0x8(%esp)
    23fc:	00 
    23fd:	c7 44 24 04 01 00 00 	movl   $0x1,0x4(%esp)
    2404:	00 
    2405:	c7 04 24 ff ff ff ff 	movl   $0xffffffff,(%esp)
    240c:	e8 cf d6 00 00       	call   fae0 <log_msg>
    2411:	b8 fe ff ff ff       	mov    $0xfffffffe,%eax
    2416:	eb d7                	jmp    23ef <ethip_nic_addr_add+0x5f>
    2418:	90                   	nop
    2419:	8d b4 26 00 00 00 00 	lea    0x0(%esi,%eiz,1),%esi

00002420 <ethip_nic_addr_remove>:
    2420:	55                   	push   %ebp
    2421:	89 e5                	mov    %esp,%ebp
    2423:	53                   	push   %ebx
    2424:	83 ec 14             	sub    $0x14,%esp
    2427:	8b 5d 08             	mov    0x8(%ebp),%ebx
    242a:	c7 44 24 08 8e 1e 02 	movl   $0x21e8e,0x8(%esp)
    2431:	00 
    2432:	c7 44 24 04 04 00 00 	movl   $0x4,0x4(%esp)
    2439:	00 
    243a:	c7 04 24 ff ff ff ff 	movl   $0xffffffff,(%esp)
    2441:	e8 9a d6 00 00       	call   fae0 <log_msg>
    2446:	c7 44 24 08 a6 1e 02 	movl   $0x21ea6,0x8(%esp)
    244d:	00 
    244e:	c7 44 24 04 04 00 00 	movl   $0x4,0x4(%esp)
    2455:	00 
    2456:	c7 04 24 ff ff ff ff 	movl   $0xffffffff,(%esp)
    245d:	e8 7e d6 00 00       	call   fae0 <log_msg>
    2462:	8b 43 44             	mov    0x44(%ebx),%eax
    2465:	8d 53 40             	lea    0x40(%ebx),%edx
    2468:	39 d0                	cmp    %edx,%eax
    246a:	74 18                	je     2484 <ethip_nic_addr_remove+0x64>
    246c:	8b 4d 0c             	mov    0xc(%ebp),%ecx
    246f:	8b 09                	mov    (%ecx),%ecx
    2471:	3b 48 08             	cmp    0x8(%eax),%ecx
    2474:	75 07                	jne    247d <ethip_nic_addr_remove+0x5d>
    2476:	eb 18                	jmp    2490 <ethip_nic_addr_remove+0x70>
    2478:	39 48 08             	cmp    %ecx,0x8(%eax)
    247b:	74 13                	je     2490 <ethip_nic_addr_remove+0x70>
    247d:	8b 40 04             	mov    0x4(%eax),%eax
    2480:	39 d0                	cmp    %edx,%eax
    2482:	75 f4                	jne    2478 <ethip_nic_addr_remove+0x58>
    2484:	83 c4 14             	add    $0x14,%esp
    2487:	83 c8 ff             	or     $0xffffffff,%eax
    248a:	5b                   	pop    %ebx
    248b:	5d                   	pop    %ebp
    248c:	c3                   	ret    
    248d:	8d 76 00             	lea    0x0(%esi),%esi
    2490:	8b 08                	mov    (%eax),%ecx
    2492:	85 c9                	test   %ecx,%ecx
    2494:	74 0e                	je     24a4 <ethip_nic_addr_remove+0x84>
    2496:	8b 50 04             	mov    0x4(%eax),%edx
    2499:	85 d2                	test   %edx,%edx
    249b:	74 07                	je     24a4 <ethip_nic_addr_remove+0x84>
    249d:	89 0a                	mov    %ecx,(%edx)
    249f:	8b 08                	mov    (%eax),%ecx
    24a1:	89 51 04             	mov    %edx,0x4(%ecx)
    24a4:	c7 00 00 00 00 00    	movl   $0x0,(%eax)
    24aa:	c7 40 04 00 00 00 00 	movl   $0x0,0x4(%eax)
    24b1:	89 04 24             	mov    %eax,(%esp)
    24b4:	e8 c7 2a 01 00       	call   14f80 <free>
    24b9:	83 c4 14             	add    $0x14,%esp
    24bc:	31 c0                	xor    %eax,%eax
    24be:	5b                   	pop    %ebx
    24bf:	5d                   	pop    %ebp
    24c0:	c3                   	ret    
    24c1:	eb 0d                	jmp    24d0 <ethip_nic_addr_find>
    24c3:	90                   	nop
    24c4:	90                   	nop
    24c5:	90                   	nop
    24c6:	90                   	nop
    24c7:	90                   	nop
    24c8:	90                   	nop
    24c9:	90                   	nop
    24ca:	90                   	nop
    24cb:	90                   	nop
    24cc:	90                   	nop
    24cd:	90                   	nop
    24ce:	90                   	nop
    24cf:	90                   	nop

000024d0 <ethip_nic_addr_find>:
    24d0:	55                   	push   %ebp
    24d1:	89 e5                	mov    %esp,%ebp
    24d3:	53                   	push   %ebx
    24d4:	83 ec 14             	sub    $0x14,%esp
    24d7:	8b 5d 08             	mov    0x8(%ebp),%ebx
    24da:	c7 44 24 08 a6 1e 02 	movl   $0x21ea6,0x8(%esp)
    24e1:	00 
    24e2:	c7 44 24 04 04 00 00 	movl   $0x4,0x4(%esp)
    24e9:	00 
    24ea:	c7 04 24 ff ff ff ff 	movl   $0xffffffff,(%esp)
    24f1:	e8 ea d5 00 00       	call   fae0 <log_msg>
    24f6:	8b 43 44             	mov    0x44(%ebx),%eax
    24f9:	8d 53 40             	lea    0x40(%ebx),%edx
    24fc:	39 d0                	cmp    %edx,%eax
    24fe:	74 1c                	je     251c <ethip_nic_addr_find+0x4c>
    2500:	8b 4d 0c             	mov    0xc(%ebp),%ecx
    2503:	8b 09                	mov    (%ecx),%ecx
    2505:	3b 48 08             	cmp    0x8(%eax),%ecx
    2508:	75 0b                	jne    2515 <ethip_nic_addr_find+0x45>
    250a:	eb 12                	jmp    251e <ethip_nic_addr_find+0x4e>
    250c:	8d 74 26 00          	lea    0x0(%esi,%eiz,1),%esi
    2510:	39 48 08             	cmp    %ecx,0x8(%eax)
    2513:	74 09                	je     251e <ethip_nic_addr_find+0x4e>
    2515:	8b 40 04             	mov    0x4(%eax),%eax
    2518:	39 d0                	cmp    %edx,%eax
    251a:	75 f4                	jne    2510 <ethip_nic_addr_find+0x40>
    251c:	31 c0                	xor    %eax,%eax
    251e:	83 c4 14             	add    $0x14,%esp
    2521:	5b                   	pop    %ebx
    2522:	5d                   	pop    %ebp
    2523:	c3                   	ret    
    2524:	66 90                	xchg   %ax,%ax
    2526:	66 90                	xchg   %ax,%ax
    2528:	66 90                	xchg   %ax,%ax
    252a:	66 90                	xchg   %ax,%ax
    252c:	66 90                	xchg   %ax,%ax
    252e:	66 90                	xchg   %ax,%ax

00002530 <eth_pdu_encode>:
    2530:	55                   	push   %ebp
    2531:	89 e5                	mov    %esp,%ebp
    2533:	57                   	push   %edi
    2534:	56                   	push   %esi
    2535:	53                   	push   %ebx
    2536:	83 ec 3c             	sub    $0x3c,%esp
    2539:	8b 7d 08             	mov    0x8(%ebp),%edi
    253c:	8b 47 18             	mov    0x18(%edi),%eax
    253f:	83 c0 0e             	add    $0xe,%eax
    2542:	89 45 e4             	mov    %eax,-0x1c(%ebp)
    2545:	83 f8 3c             	cmp    $0x3c,%eax
    2548:	73 07                	jae    2551 <eth_pdu_encode+0x21>
    254a:	c7 45 e4 3c 00 00 00 	movl   $0x3c,-0x1c(%ebp)
    2551:	8b 55 e4             	mov    -0x1c(%ebp),%edx
    2554:	c7 44 24 04 01 00 00 	movl   $0x1,0x4(%esp)
    255b:	00 
    255c:	89 14 24             	mov    %edx,(%esp)
    255f:	e8 ac 28 01 00       	call   14e10 <calloc>
    2564:	89 c6                	mov    %eax,%esi
    2566:	85 c0                	test   %eax,%eax
    2568:	0f 84 09 01 00 00    	je     2677 <eth_pdu_encode+0x147>
    256e:	8b 5f 0c             	mov    0xc(%edi),%ebx
    2571:	8b 4f 08             	mov    0x8(%edi),%ecx
    2574:	89 d8                	mov    %ebx,%eax
    2576:	89 da                	mov    %ebx,%edx
    2578:	c1 e8 08             	shr    $0x8,%eax
    257b:	88 5e 07             	mov    %bl,0x7(%esi)
    257e:	88 46 06             	mov    %al,0x6(%esi)
    2581:	89 c8                	mov    %ecx,%eax
    2583:	0f ac d0 18          	shrd   $0x18,%edx,%eax
    2587:	88 46 08             	mov    %al,0x8(%esi)
    258a:	89 da                	mov    %ebx,%edx
    258c:	89 c8                	mov    %ecx,%eax
    258e:	88 4e 0b             	mov    %cl,0xb(%esi)
    2591:	0f ac d0 10          	shrd   $0x10,%edx,%eax
    2595:	88 46 09             	mov    %al,0x9(%esi)
    2598:	89 da                	mov    %ebx,%edx
    259a:	89 c8                	mov    %ecx,%eax
    259c:	0f ac d0 08          	shrd   $0x8,%edx,%eax
    25a0:	88 46 0a             	mov    %al,0xa(%esi)
    25a3:	8b 5f 04             	mov    0x4(%edi),%ebx
    25a6:	8b 0f                	mov    (%edi),%ecx
    25a8:	89 d8                	mov    %ebx,%eax
    25aa:	89 da                	mov    %ebx,%edx
    25ac:	c1 e8 08             	shr    $0x8,%eax
    25af:	88 4e 05             	mov    %cl,0x5(%esi)
    25b2:	88 06                	mov    %al,(%esi)
    25b4:	89 c8                	mov    %ecx,%eax
    25b6:	0f ac d0 18          	shrd   $0x18,%edx,%eax
    25ba:	88 46 02             	mov    %al,0x2(%esi)
    25bd:	89 da                	mov    %ebx,%edx
    25bf:	89 c8                	mov    %ecx,%eax
    25c1:	88 5e 01             	mov    %bl,0x1(%esi)
    25c4:	0f ac d0 10          	shrd   $0x10,%edx,%eax
    25c8:	88 46 03             	mov    %al,0x3(%esi)
    25cb:	89 da                	mov    %ebx,%edx
    25cd:	89 c8                	mov    %ecx,%eax
    25cf:	0f ac d0 08          	shrd   $0x8,%edx,%eax
    25d3:	88 46 04             	mov    %al,0x4(%esi)
    25d6:	8b 47 10             	mov    0x10(%edi),%eax
    25d9:	66 c1 c0 08          	rol    $0x8,%ax
    25dd:	66 89 46 0c          	mov    %ax,0xc(%esi)
    25e1:	8b 47 18             	mov    0x18(%edi),%eax
    25e4:	89 44 24 08          	mov    %eax,0x8(%esp)
    25e8:	8b 47 14             	mov    0x14(%edi),%eax
    25eb:	89 44 24 04          	mov    %eax,0x4(%esp)
    25ef:	8d 46 0e             	lea    0xe(%esi),%eax
    25f2:	89 04 24             	mov    %eax,(%esp)
    25f5:	e8 d6 51 00 00       	call   77d0 <memcpy>
    25fa:	8b 47 10             	mov    0x10(%edi),%eax
    25fd:	25 ff ff 00 00       	and    $0xffff,%eax
    2602:	89 44 24 1c          	mov    %eax,0x1c(%esp)
    2606:	8b 07                	mov    (%edi),%eax
    2608:	8b 57 04             	mov    0x4(%edi),%edx
    260b:	89 54 24 18          	mov    %edx,0x18(%esp)
    260f:	89 44 24 14          	mov    %eax,0x14(%esp)
    2613:	8b 47 08             	mov    0x8(%edi),%eax
    2616:	8b 57 0c             	mov    0xc(%edi),%edx
    2619:	89 54 24 10          	mov    %edx,0x10(%esp)
    261d:	89 44 24 0c          	mov    %eax,0xc(%esp)
    2621:	c7 44 24 08 0c 21 02 	movl   $0x2210c,0x8(%esp)
    2628:	00 
    2629:	c7 44 24 04 04 00 00 	movl   $0x4,0x4(%esp)
    2630:	00 
    2631:	c7 04 24 ff ff ff ff 	movl   $0xffffffff,(%esp)
    2638:	e8 a3 d4 00 00       	call   fae0 <log_msg>
    263d:	8b 55 e4             	mov    -0x1c(%ebp),%edx
    2640:	89 54 24 0c          	mov    %edx,0xc(%esp)
    2644:	c7 44 24 08 40 21 02 	movl   $0x22140,0x8(%esp)
    264b:	00 
    264c:	c7 44 24 04 04 00 00 	movl   $0x4,0x4(%esp)
    2653:	00 
    2654:	c7 04 24 ff ff ff ff 	movl   $0xffffffff,(%esp)
    265b:	e8 80 d4 00 00       	call   fae0 <log_msg>
    2660:	8b 45 0c             	mov    0xc(%ebp),%eax
    2663:	89 30                	mov    %esi,(%eax)
    2665:	8b 45 10             	mov    0x10(%ebp),%eax
    2668:	8b 55 e4             	mov    -0x1c(%ebp),%edx
    266b:	89 10                	mov    %edx,(%eax)
    266d:	31 c0                	xor    %eax,%eax
    266f:	83 c4 3c             	add    $0x3c,%esp
    2672:	5b                   	pop    %ebx
    2673:	5e                   	pop    %esi
    2674:	5f                   	pop    %edi
    2675:	5d                   	pop    %ebp
    2676:	c3                   	ret    
    2677:	b8 fe ff ff ff       	mov    $0xfffffffe,%eax
    267c:	eb f1                	jmp    266f <eth_pdu_encode+0x13f>
    267e:	66 90                	xchg   %ax,%ax

00002680 <eth_pdu_decode>:
    2680:	55                   	push   %ebp
    2681:	89 e5                	mov    %esp,%ebp
    2683:	57                   	push   %edi
    2684:	56                   	push   %esi
    2685:	53                   	push   %ebx
    2686:	83 ec 3c             	sub    $0x3c,%esp
    2689:	8b 7d 0c             	mov    0xc(%ebp),%edi
    268c:	8b 75 08             	mov    0x8(%ebp),%esi
    268f:	c7 44 24 08 04 22 02 	movl   $0x22204,0x8(%esp)
    2696:	00 
    2697:	c7 44 24 04 04 00 00 	movl   $0x4,0x4(%esp)
    269e:	00 
    269f:	c7 04 24 ff ff ff ff 	movl   $0xffffffff,(%esp)
    26a6:	8b 5d 10             	mov    0x10(%ebp),%ebx
    26a9:	e8 32 d4 00 00       	call   fae0 <log_msg>
    26ae:	83 ff 0d             	cmp    $0xd,%edi
    26b1:	0f 86 61 01 00 00    	jbe    2818 <eth_pdu_decode+0x198>
    26b7:	83 ef 0e             	sub    $0xe,%edi
    26ba:	89 7b 18             	mov    %edi,0x18(%ebx)
    26bd:	c7 44 24 04 01 00 00 	movl   $0x1,0x4(%esp)
    26c4:	00 
    26c5:	89 3c 24             	mov    %edi,(%esp)
    26c8:	e8 43 27 01 00       	call   14e10 <calloc>
    26cd:	89 45 e4             	mov    %eax,-0x1c(%ebp)
    26d0:	89 43 14             	mov    %eax,0x14(%ebx)
    26d3:	85 c0                	test   %eax,%eax
    26d5:	0f 84 64 01 00 00    	je     283f <eth_pdu_decode+0x1bf>
    26db:	31 c9                	xor    %ecx,%ecx
    26dd:	31 c0                	xor    %eax,%eax
    26df:	8a 4e 06             	mov    0x6(%esi),%cl
    26e2:	8a 46 07             	mov    0x7(%esi),%al
    26e5:	c1 e1 08             	shl    $0x8,%ecx
    26e8:	31 d2                	xor    %edx,%edx
    26ea:	09 c1                	or     %eax,%ecx
    26ec:	31 c0                	xor    %eax,%eax
    26ee:	8a 46 08             	mov    0x8(%esi),%al
    26f1:	0f a4 c2 18          	shld   $0x18,%eax,%edx
    26f5:	c1 e0 18             	shl    $0x18,%eax
    26f8:	09 d1                	or     %edx,%ecx
    26fa:	89 c7                	mov    %eax,%edi
    26fc:	31 c0                	xor    %eax,%eax
    26fe:	8a 46 09             	mov    0x9(%esi),%al
    2701:	31 d2                	xor    %edx,%edx
    2703:	0f a4 c2 10          	shld   $0x10,%eax,%edx
    2707:	c1 e0 10             	shl    $0x10,%eax
    270a:	09 d1                	or     %edx,%ecx
    270c:	09 c7                	or     %eax,%edi
    270e:	31 c0                	xor    %eax,%eax
    2710:	8a 46 0a             	mov    0xa(%esi),%al
    2713:	31 d2                	xor    %edx,%edx
    2715:	0f a4 c2 08          	shld   $0x8,%eax,%edx
    2719:	c1 e0 08             	shl    $0x8,%eax
    271c:	09 d1                	or     %edx,%ecx
    271e:	09 c7                	or     %eax,%edi
    2720:	31 c0                	xor    %eax,%eax
    2722:	8a 46 0b             	mov    0xb(%esi),%al
    2725:	89 4b 0c             	mov    %ecx,0xc(%ebx)
    2728:	09 f8                	or     %edi,%eax
    272a:	31 c9                	xor    %ecx,%ecx
    272c:	89 43 08             	mov    %eax,0x8(%ebx)
    272f:	31 c0                	xor    %eax,%eax
    2731:	8a 0e                	mov    (%esi),%cl
    2733:	8a 46 01             	mov    0x1(%esi),%al
    2736:	c1 e1 08             	shl    $0x8,%ecx
    2739:	31 d2                	xor    %edx,%edx
    273b:	09 c1                	or     %eax,%ecx
    273d:	31 c0                	xor    %eax,%eax
    273f:	8a 46 02             	mov    0x2(%esi),%al
    2742:	0f a4 c2 18          	shld   $0x18,%eax,%edx
    2746:	c1 e0 18             	shl    $0x18,%eax
    2749:	09 d1                	or     %edx,%ecx
    274b:	89 c7                	mov    %eax,%edi
    274d:	31 c0                	xor    %eax,%eax
    274f:	8a 46 03             	mov    0x3(%esi),%al
    2752:	31 d2                	xor    %edx,%edx
    2754:	0f a4 c2 10          	shld   $0x10,%eax,%edx
    2758:	c1 e0 10             	shl    $0x10,%eax
    275b:	09 d1                	or     %edx,%ecx
    275d:	09 c7                	or     %eax,%edi
    275f:	31 c0                	xor    %eax,%eax
    2761:	8a 46 04             	mov    0x4(%esi),%al
    2764:	31 d2                	xor    %edx,%edx
    2766:	0f a4 c2 08          	shld   $0x8,%eax,%edx
    276a:	c1 e0 08             	shl    $0x8,%eax
    276d:	09 d1                	or     %edx,%ecx
    276f:	09 c7                	or     %eax,%edi
    2771:	31 c0                	xor    %eax,%eax
    2773:	8a 46 05             	mov    0x5(%esi),%al
    2776:	89 4b 04             	mov    %ecx,0x4(%ebx)
    2779:	09 f8                	or     %edi,%eax
    277b:	89 03                	mov    %eax,(%ebx)
    277d:	66 8b 46 0c          	mov    0xc(%esi),%ax
    2781:	66 c1 c0 08          	rol    $0x8,%ax
    2785:	66 89 43 10          	mov    %ax,0x10(%ebx)
    2789:	8b 43 18             	mov    0x18(%ebx),%eax
    278c:	89 44 24 08          	mov    %eax,0x8(%esp)
    2790:	83 c6 0e             	add    $0xe,%esi
    2793:	8b 45 e4             	mov    -0x1c(%ebp),%eax
    2796:	89 74 24 04          	mov    %esi,0x4(%esp)
    279a:	89 04 24             	mov    %eax,(%esp)
    279d:	e8 2e 50 00 00       	call   77d0 <memcpy>
    27a2:	8b 43 10             	mov    0x10(%ebx),%eax
    27a5:	25 ff ff 00 00       	and    $0xffff,%eax
    27aa:	89 44 24 1c          	mov    %eax,0x1c(%esp)
    27ae:	8b 03                	mov    (%ebx),%eax
    27b0:	8b 53 04             	mov    0x4(%ebx),%edx
    27b3:	89 54 24 18          	mov    %edx,0x18(%esp)
    27b7:	89 44 24 14          	mov    %eax,0x14(%esp)
    27bb:	8b 43 08             	mov    0x8(%ebx),%eax
    27be:	8b 53 0c             	mov    0xc(%ebx),%edx
    27c1:	89 54 24 10          	mov    %edx,0x10(%esp)
    27c5:	89 44 24 0c          	mov    %eax,0xc(%esp)
    27c9:	c7 44 24 08 64 21 02 	movl   $0x22164,0x8(%esp)
    27d0:	00 
    27d1:	c7 44 24 04 04 00 00 	movl   $0x4,0x4(%esp)
    27d8:	00 
    27d9:	c7 04 24 ff ff ff ff 	movl   $0xffffffff,(%esp)
    27e0:	e8 fb d2 00 00       	call   fae0 <log_msg>
    27e5:	8b 43 18             	mov    0x18(%ebx),%eax
    27e8:	89 44 24 0c          	mov    %eax,0xc(%esp)
    27ec:	c7 44 24 08 98 21 02 	movl   $0x22198,0x8(%esp)
    27f3:	00 
    27f4:	c7 44 24 04 04 00 00 	movl   $0x4,0x4(%esp)
    27fb:	00 
    27fc:	c7 04 24 ff ff ff ff 	movl   $0xffffffff,(%esp)
    2803:	e8 d8 d2 00 00       	call   fae0 <log_msg>
    2808:	31 c0                	xor    %eax,%eax
    280a:	83 c4 3c             	add    $0x3c,%esp
    280d:	5b                   	pop    %ebx
    280e:	5e                   	pop    %esi
    280f:	5f                   	pop    %edi
    2810:	5d                   	pop    %ebp
    2811:	c3                   	ret    
    2812:	8d b6 00 00 00 00    	lea    0x0(%esi),%esi
    2818:	89 7c 24 0c          	mov    %edi,0xc(%esp)
    281c:	c7 44 24 08 47 22 02 	movl   $0x22247,0x8(%esp)
    2823:	00 
    2824:	c7 44 24 04 04 00 00 	movl   $0x4,0x4(%esp)
    282b:	00 
    282c:	c7 04 24 ff ff ff ff 	movl   $0xffffffff,(%esp)
    2833:	e8 a8 d2 00 00       	call   fae0 <log_msg>
    2838:	b8 f2 ff ff ff       	mov    $0xfffffff2,%eax
    283d:	eb cb                	jmp    280a <eth_pdu_decode+0x18a>
    283f:	b8 fe ff ff ff       	mov    $0xfffffffe,%eax
    2844:	eb c4                	jmp    280a <eth_pdu_decode+0x18a>
    2846:	8d 76 00             	lea    0x0(%esi),%esi
    2849:	8d bc 27 00 00 00 00 	lea    0x0(%edi,%eiz,1),%edi

00002850 <mac48_encode>:
    2850:	55                   	push   %ebp
    2851:	89 e5                	mov    %esp,%ebp
    2853:	56                   	push   %esi
    2854:	53                   	push   %ebx
    2855:	8b 45 08             	mov    0x8(%ebp),%eax
    2858:	8b 75 0c             	mov    0xc(%ebp),%esi
    285b:	8b 50 04             	mov    0x4(%eax),%edx
    285e:	8b 00                	mov    (%eax),%eax
    2860:	89 d1                	mov    %edx,%ecx
    2862:	89 d3                	mov    %edx,%ebx
    2864:	c1 e9 08             	shr    $0x8,%ecx
    2867:	88 56 01             	mov    %dl,0x1(%esi)
    286a:	88 0e                	mov    %cl,(%esi)
    286c:	89 c1                	mov    %eax,%ecx
    286e:	0f ac d9 18          	shrd   $0x18,%ebx,%ecx
    2872:	88 4e 02             	mov    %cl,0x2(%esi)
    2875:	89 d3                	mov    %edx,%ebx
    2877:	89 c1                	mov    %eax,%ecx
    2879:	88 46 05             	mov    %al,0x5(%esi)
    287c:	0f ac d9 10          	shrd   $0x10,%ebx,%ecx
    2880:	88 4e 03             	mov    %cl,0x3(%esi)
    2883:	89 d3                	mov    %edx,%ebx
    2885:	89 c1                	mov    %eax,%ecx
    2887:	0f ac d9 08          	shrd   $0x8,%ebx,%ecx
    288b:	88 4e 04             	mov    %cl,0x4(%esi)
    288e:	5b                   	pop    %ebx
    288f:	5e                   	pop    %esi
    2890:	5d                   	pop    %ebp
    2891:	c3                   	ret    
    2892:	8d b4 26 00 00 00 00 	lea    0x0(%esi,%eiz,1),%esi
    2899:	8d bc 27 00 00 00 00 	lea    0x0(%edi,%eiz,1),%edi

000028a0 <mac48_decode>:
    28a0:	55                   	push   %ebp
    28a1:	31 c0                	xor    %eax,%eax
    28a3:	89 e5                	mov    %esp,%ebp
    28a5:	57                   	push   %edi
    28a6:	56                   	push   %esi
    28a7:	53                   	push   %ebx
    28a8:	8b 5d 08             	mov    0x8(%ebp),%ebx
    28ab:	31 d2                	xor    %edx,%edx
    28ad:	8a 43 02             	mov    0x2(%ebx),%al
    28b0:	8a 4b 01             	mov    0x1(%ebx),%cl
    28b3:	0f a4 c2 18          	shld   $0x18,%eax,%edx
    28b7:	c1 e0 18             	shl    $0x18,%eax
    28ba:	81 e1 ff 00 00 00    	and    $0xff,%ecx
    28c0:	89 cf                	mov    %ecx,%edi
    28c2:	89 c6                	mov    %eax,%esi
    28c4:	31 c9                	xor    %ecx,%ecx
    28c6:	31 c0                	xor    %eax,%eax
    28c8:	8a 43 03             	mov    0x3(%ebx),%al
    28cb:	8a 0b                	mov    (%ebx),%cl
    28cd:	c1 e1 08             	shl    $0x8,%ecx
    28d0:	09 d7                	or     %edx,%edi
    28d2:	31 d2                	xor    %edx,%edx
    28d4:	09 f9                	or     %edi,%ecx
    28d6:	0f a4 c2 10          	shld   $0x10,%eax,%edx
    28da:	c1 e0 10             	shl    $0x10,%eax
    28dd:	09 d1                	or     %edx,%ecx
    28df:	09 c6                	or     %eax,%esi
    28e1:	31 c0                	xor    %eax,%eax
    28e3:	8a 43 04             	mov    0x4(%ebx),%al
    28e6:	31 d2                	xor    %edx,%edx
    28e8:	0f a4 c2 08          	shld   $0x8,%eax,%edx
    28ec:	c1 e0 08             	shl    $0x8,%eax
    28ef:	09 d1                	or     %edx,%ecx
    28f1:	09 c6                	or     %eax,%esi
    28f3:	31 c0                	xor    %eax,%eax
    28f5:	8a 43 05             	mov    0x5(%ebx),%al
    28f8:	8b 55 0c             	mov    0xc(%ebp),%edx
    28fb:	09 f0                	or     %esi,%eax
    28fd:	89 02                	mov    %eax,(%edx)
    28ff:	89 4a 04             	mov    %ecx,0x4(%edx)
    2902:	5b                   	pop    %ebx
    2903:	5e                   	pop    %esi
    2904:	5f                   	pop    %edi
    2905:	5d                   	pop    %ebp
    2906:	c3                   	ret    
    2907:	89 f6                	mov    %esi,%esi
    2909:	8d bc 27 00 00 00 00 	lea    0x0(%edi,%eiz,1),%edi

00002910 <arp_pdu_encode>:
    2910:	55                   	push   %ebp
    2911:	89 e5                	mov    %esp,%ebp
    2913:	57                   	push   %edi
    2914:	56                   	push   %esi
    2915:	53                   	push   %ebx
    2916:	83 ec 2c             	sub    $0x2c,%esp
    2919:	8b 55 08             	mov    0x8(%ebp),%edx
    291c:	c7 44 24 08 15 22 02 	movl   $0x22215,0x8(%esp)
    2923:	00 
    2924:	c7 44 24 04 04 00 00 	movl   $0x4,0x4(%esp)
    292b:	00 
    292c:	c7 04 24 ff ff ff ff 	movl   $0xffffffff,(%esp)
    2933:	89 55 e4             	mov    %edx,-0x1c(%ebp)
    2936:	e8 a5 d1 00 00       	call   fae0 <log_msg>
    293b:	c7 44 24 04 01 00 00 	movl   $0x1,0x4(%esp)
    2942:	00 
    2943:	c7 04 24 1c 00 00 00 	movl   $0x1c,(%esp)
    294a:	e8 c1 24 01 00       	call   14e10 <calloc>
    294f:	8b 55 e4             	mov    -0x1c(%ebp),%edx
    2952:	85 c0                	test   %eax,%eax
    2954:	0f 84 f0 00 00 00    	je     2a4a <arp_pdu_encode+0x13a>
    295a:	8b 0a                	mov    (%edx),%ecx
    295c:	85 c9                	test   %ecx,%ecx
    295e:	0f 85 bc 00 00 00    	jne    2a20 <arp_pdu_encode+0x110>
    2964:	b9 00 01 00 00       	mov    $0x100,%ecx
    2969:	c6 40 04 06          	movb   $0x6,0x4(%eax)
    296d:	c6 40 05 04          	movb   $0x4,0x5(%eax)
    2971:	8b 7a 08             	mov    0x8(%edx),%edi
    2974:	66 89 48 06          	mov    %cx,0x6(%eax)
    2978:	89 f9                	mov    %edi,%ecx
    297a:	8b 72 04             	mov    0x4(%edx),%esi
    297d:	c1 e9 08             	shr    $0x8,%ecx
    2980:	89 fb                	mov    %edi,%ebx
    2982:	88 48 08             	mov    %cl,0x8(%eax)
    2985:	89 f9                	mov    %edi,%ecx
    2987:	88 48 09             	mov    %cl,0x9(%eax)
    298a:	89 f1                	mov    %esi,%ecx
    298c:	0f ac d9 18          	shrd   $0x18,%ebx,%ecx
    2990:	88 48 0a             	mov    %cl,0xa(%eax)
    2993:	89 fb                	mov    %edi,%ebx
    2995:	89 f1                	mov    %esi,%ecx
    2997:	66 c7 00 00 01       	movw   $0x100,(%eax)
    299c:	0f ac d9 10          	shrd   $0x10,%ebx,%ecx
    29a0:	88 48 0b             	mov    %cl,0xb(%eax)
    29a3:	89 fb                	mov    %edi,%ebx
    29a5:	89 f1                	mov    %esi,%ecx
    29a7:	66 c7 40 02 08 00    	movw   $0x8,0x2(%eax)
    29ad:	0f ac d9 08          	shrd   $0x8,%ebx,%ecx
    29b1:	88 48 0c             	mov    %cl,0xc(%eax)
    29b4:	89 f1                	mov    %esi,%ecx
    29b6:	88 48 0d             	mov    %cl,0xd(%eax)
    29b9:	8b 4a 0c             	mov    0xc(%edx),%ecx
    29bc:	8b 7a 14             	mov    0x14(%edx),%edi
    29bf:	0f c9                	bswap  %ecx
    29c1:	89 48 0e             	mov    %ecx,0xe(%eax)
    29c4:	89 f9                	mov    %edi,%ecx
    29c6:	c1 e9 08             	shr    $0x8,%ecx
    29c9:	8b 72 10             	mov    0x10(%edx),%esi
    29cc:	88 48 12             	mov    %cl,0x12(%eax)
    29cf:	89 f9                	mov    %edi,%ecx
    29d1:	88 48 13             	mov    %cl,0x13(%eax)
    29d4:	89 fb                	mov    %edi,%ebx
    29d6:	89 f1                	mov    %esi,%ecx
    29d8:	0f ac d9 18          	shrd   $0x18,%ebx,%ecx
    29dc:	88 48 14             	mov    %cl,0x14(%eax)
    29df:	89 fb                	mov    %edi,%ebx
    29e1:	89 f1                	mov    %esi,%ecx
    29e3:	0f ac d9 10          	shrd   $0x10,%ebx,%ecx
    29e7:	88 48 15             	mov    %cl,0x15(%eax)
    29ea:	89 fb                	mov    %edi,%ebx
    29ec:	89 f1                	mov    %esi,%ecx
    29ee:	0f ac d9 08          	shrd   $0x8,%ebx,%ecx
    29f2:	88 48 16             	mov    %cl,0x16(%eax)
    29f5:	89 f1                	mov    %esi,%ecx
    29f7:	88 48 17             	mov    %cl,0x17(%eax)
    29fa:	8b 52 18             	mov    0x18(%edx),%edx
    29fd:	0f ca                	bswap  %edx
    29ff:	89 50 18             	mov    %edx,0x18(%eax)
    2a02:	8b 55 0c             	mov    0xc(%ebp),%edx
    2a05:	89 02                	mov    %eax,(%edx)
    2a07:	8b 45 10             	mov    0x10(%ebp),%eax
    2a0a:	c7 00 1c 00 00 00    	movl   $0x1c,(%eax)
    2a10:	31 c0                	xor    %eax,%eax
    2a12:	83 c4 2c             	add    $0x2c,%esp
    2a15:	5b                   	pop    %ebx
    2a16:	5e                   	pop    %esi
    2a17:	5f                   	pop    %edi
    2a18:	5d                   	pop    %ebp
    2a19:	c3                   	ret    
    2a1a:	8d b6 00 00 00 00    	lea    0x0(%esi),%esi
    2a20:	49                   	dec    %ecx
    2a21:	74 1d                	je     2a40 <arp_pdu_encode+0x130>
    2a23:	c7 44 24 08 a1 00 00 	movl   $0xa1,0x8(%esp)
    2a2a:	00 
    2a2b:	c7 44 24 04 26 22 02 	movl   $0x22226,0x4(%esp)
    2a32:	00 
    2a33:	c7 04 24 2c 22 02 00 	movl   $0x2222c,(%esp)
    2a3a:	e8 11 cc 01 00       	call   1f650 <assert_abort>
    2a3f:	90                   	nop
    2a40:	b9 00 02 00 00       	mov    $0x200,%ecx
    2a45:	e9 1f ff ff ff       	jmp    2969 <arp_pdu_encode+0x59>
    2a4a:	b8 fe ff ff ff       	mov    $0xfffffffe,%eax
    2a4f:	eb c1                	jmp    2a12 <arp_pdu_encode+0x102>
    2a51:	eb 0d                	jmp    2a60 <arp_pdu_decode>
    2a53:	90                   	nop
    2a54:	90                   	nop
    2a55:	90                   	nop
    2a56:	90                   	nop
    2a57:	90                   	nop
    2a58:	90                   	nop
    2a59:	90                   	nop
    2a5a:	90                   	nop
    2a5b:	90                   	nop
    2a5c:	90                   	nop
    2a5d:	90                   	nop
    2a5e:	90                   	nop
    2a5f:	90                   	nop

00002a60 <arp_pdu_decode>:
    2a60:	55                   	push   %ebp
    2a61:	89 e5                	mov    %esp,%ebp
    2a63:	57                   	push   %edi
    2a64:	56                   	push   %esi
    2a65:	53                   	push   %ebx
    2a66:	83 ec 2c             	sub    $0x2c,%esp
    2a69:	8b 5d 08             	mov    0x8(%ebp),%ebx
    2a6c:	8b 75 10             	mov    0x10(%ebp),%esi
    2a6f:	c7 44 24 08 32 22 02 	movl   $0x22232,0x8(%esp)
    2a76:	00 
    2a77:	c7 44 24 04 04 00 00 	movl   $0x4,0x4(%esp)
    2a7e:	00 
    2a7f:	c7 04 24 ff ff ff ff 	movl   $0xffffffff,(%esp)
    2a86:	e8 55 d0 00 00       	call   fae0 <log_msg>
    2a8b:	83 7d 0c 1b          	cmpl   $0x1b,0xc(%ebp)
    2a8f:	0f 86 5b 02 00 00    	jbe    2cf0 <arp_pdu_decode+0x290>
    2a95:	66 8b 03             	mov    (%ebx),%ax
    2a98:	66 c1 c0 08          	rol    $0x8,%ax
    2a9c:	66 83 f8 01          	cmp    $0x1,%ax
    2aa0:	0f 85 6a 01 00 00    	jne    2c10 <arp_pdu_decode+0x1b0>
    2aa6:	66 8b 43 02          	mov    0x2(%ebx),%ax
    2aaa:	66 c1 c0 08          	rol    $0x8,%ax
    2aae:	66 3d 00 08          	cmp    $0x800,%ax
    2ab2:	0f 85 90 01 00 00    	jne    2c48 <arp_pdu_decode+0x1e8>
    2ab8:	8a 43 04             	mov    0x4(%ebx),%al
    2abb:	3c 06                	cmp    $0x6,%al
    2abd:	0f 85 bd 01 00 00    	jne    2c80 <arp_pdu_decode+0x220>
    2ac3:	8a 43 05             	mov    0x5(%ebx),%al
    2ac6:	3c 04                	cmp    $0x4,%al
    2ac8:	0f 85 ea 01 00 00    	jne    2cb8 <arp_pdu_decode+0x258>
    2ace:	66 8b 43 06          	mov    0x6(%ebx),%ax
    2ad2:	66 c1 c0 08          	rol    $0x8,%ax
    2ad6:	66 83 f8 01          	cmp    $0x1,%ax
    2ada:	0f 84 20 01 00 00    	je     2c00 <arp_pdu_decode+0x1a0>
    2ae0:	66 83 f8 02          	cmp    $0x2,%ax
    2ae4:	74 32                	je     2b18 <arp_pdu_decode+0xb8>
    2ae6:	25 ff ff 00 00       	and    $0xffff,%eax
    2aeb:	c7 44 24 08 95 22 02 	movl   $0x22295,0x8(%esp)
    2af2:	00 
    2af3:	89 44 24 0c          	mov    %eax,0xc(%esp)
    2af7:	c7 44 24 04 04 00 00 	movl   $0x4,0x4(%esp)
    2afe:	00 
    2aff:	c7 04 24 ff ff ff ff 	movl   $0xffffffff,(%esp)
    2b06:	e8 d5 cf 00 00       	call   fae0 <log_msg>
    2b0b:	b8 f2 ff ff ff       	mov    $0xfffffff2,%eax
    2b10:	83 c4 2c             	add    $0x2c,%esp
    2b13:	5b                   	pop    %ebx
    2b14:	5e                   	pop    %esi
    2b15:	5f                   	pop    %edi
    2b16:	5d                   	pop    %ebp
    2b17:	c3                   	ret    
    2b18:	c7 06 01 00 00 00    	movl   $0x1,(%esi)
    2b1e:	31 c9                	xor    %ecx,%ecx
    2b20:	31 c0                	xor    %eax,%eax
    2b22:	8a 4b 08             	mov    0x8(%ebx),%cl
    2b25:	8a 43 09             	mov    0x9(%ebx),%al
    2b28:	c1 e1 08             	shl    $0x8,%ecx
    2b2b:	31 d2                	xor    %edx,%edx
    2b2d:	09 c1                	or     %eax,%ecx
    2b2f:	31 c0                	xor    %eax,%eax
    2b31:	8a 43 0a             	mov    0xa(%ebx),%al
    2b34:	0f a4 c2 18          	shld   $0x18,%eax,%edx
    2b38:	c1 e0 18             	shl    $0x18,%eax
    2b3b:	09 d1                	or     %edx,%ecx
    2b3d:	89 c7                	mov    %eax,%edi
    2b3f:	31 c0                	xor    %eax,%eax
    2b41:	8a 43 0b             	mov    0xb(%ebx),%al
    2b44:	31 d2                	xor    %edx,%edx
    2b46:	0f a4 c2 10          	shld   $0x10,%eax,%edx
    2b4a:	c1 e0 10             	shl    $0x10,%eax
    2b4d:	09 d1                	or     %edx,%ecx
    2b4f:	09 c7                	or     %eax,%edi
    2b51:	31 c0                	xor    %eax,%eax
    2b53:	8a 43 0c             	mov    0xc(%ebx),%al
    2b56:	31 d2                	xor    %edx,%edx
    2b58:	0f a4 c2 08          	shld   $0x8,%eax,%edx
    2b5c:	c1 e0 08             	shl    $0x8,%eax
    2b5f:	09 d1                	or     %edx,%ecx
    2b61:	09 c7                	or     %eax,%edi
    2b63:	31 c0                	xor    %eax,%eax
    2b65:	8a 43 0d             	mov    0xd(%ebx),%al
    2b68:	89 4e 08             	mov    %ecx,0x8(%esi)
    2b6b:	09 f8                	or     %edi,%eax
    2b6d:	31 c9                	xor    %ecx,%ecx
    2b6f:	89 46 04             	mov    %eax,0x4(%esi)
    2b72:	8b 43 0e             	mov    0xe(%ebx),%eax
    2b75:	0f c8                	bswap  %eax
    2b77:	89 46 0c             	mov    %eax,0xc(%esi)
    2b7a:	31 c0                	xor    %eax,%eax
    2b7c:	8a 4b 12             	mov    0x12(%ebx),%cl
    2b7f:	8a 43 13             	mov    0x13(%ebx),%al
    2b82:	c1 e1 08             	shl    $0x8,%ecx
    2b85:	31 d2                	xor    %edx,%edx
    2b87:	09 c1                	or     %eax,%ecx
    2b89:	31 c0                	xor    %eax,%eax
    2b8b:	8a 43 14             	mov    0x14(%ebx),%al
    2b8e:	0f a4 c2 18          	shld   $0x18,%eax,%edx
    2b92:	c1 e0 18             	shl    $0x18,%eax
    2b95:	09 d1                	or     %edx,%ecx
    2b97:	89 c7                	mov    %eax,%edi
    2b99:	31 c0                	xor    %eax,%eax
    2b9b:	8a 43 15             	mov    0x15(%ebx),%al
    2b9e:	31 d2                	xor    %edx,%edx
    2ba0:	0f a4 c2 10          	shld   $0x10,%eax,%edx
    2ba4:	c1 e0 10             	shl    $0x10,%eax
    2ba7:	09 d1                	or     %edx,%ecx
    2ba9:	09 c7                	or     %eax,%edi
    2bab:	31 c0                	xor    %eax,%eax
    2bad:	8a 43 16             	mov    0x16(%ebx),%al
    2bb0:	31 d2                	xor    %edx,%edx
    2bb2:	0f a4 c2 08          	shld   $0x8,%eax,%edx
    2bb6:	c1 e0 08             	shl    $0x8,%eax
    2bb9:	09 d1                	or     %edx,%ecx
    2bbb:	09 c7                	or     %eax,%edi
    2bbd:	31 c0                	xor    %eax,%eax
    2bbf:	8a 43 17             	mov    0x17(%ebx),%al
    2bc2:	89 4e 14             	mov    %ecx,0x14(%esi)
    2bc5:	09 f8                	or     %edi,%eax
    2bc7:	89 46 10             	mov    %eax,0x10(%esi)
    2bca:	8b 43 18             	mov    0x18(%ebx),%eax
    2bcd:	89 c2                	mov    %eax,%edx
    2bcf:	0f ca                	bswap  %edx
    2bd1:	89 56 18             	mov    %edx,0x18(%esi)
    2bd4:	89 44 24 0c          	mov    %eax,0xc(%esp)
    2bd8:	c7 44 24 08 ae 22 02 	movl   $0x222ae,0x8(%esp)
    2bdf:	00 
    2be0:	c7 44 24 04 04 00 00 	movl   $0x4,0x4(%esp)
    2be7:	00 
    2be8:	c7 04 24 ff ff ff ff 	movl   $0xffffffff,(%esp)
    2bef:	e8 ec ce 00 00       	call   fae0 <log_msg>
    2bf4:	83 c4 2c             	add    $0x2c,%esp
    2bf7:	31 c0                	xor    %eax,%eax
    2bf9:	5b                   	pop    %ebx
    2bfa:	5e                   	pop    %esi
    2bfb:	5f                   	pop    %edi
    2bfc:	5d                   	pop    %ebp
    2bfd:	c3                   	ret    
    2bfe:	66 90                	xchg   %ax,%ax
    2c00:	c7 06 00 00 00 00    	movl   $0x0,(%esi)
    2c06:	e9 13 ff ff ff       	jmp    2b1e <arp_pdu_decode+0xbe>
    2c0b:	90                   	nop
    2c0c:	8d 74 26 00          	lea    0x0(%esi,%eiz,1),%esi
    2c10:	25 ff ff 00 00       	and    $0xffff,%eax
    2c15:	c7 44 24 0c 01 00 00 	movl   $0x1,0xc(%esp)
    2c1c:	00 
    2c1d:	89 44 24 10          	mov    %eax,0x10(%esp)
    2c21:	c7 44 24 08 5b 22 02 	movl   $0x2225b,0x8(%esp)
    2c28:	00 
    2c29:	c7 44 24 04 04 00 00 	movl   $0x4,0x4(%esp)
    2c30:	00 
    2c31:	c7 04 24 ff ff ff ff 	movl   $0xffffffff,(%esp)
    2c38:	e8 a3 ce 00 00       	call   fae0 <log_msg>
    2c3d:	b8 f2 ff ff ff       	mov    $0xfffffff2,%eax
    2c42:	e9 c9 fe ff ff       	jmp    2b10 <arp_pdu_decode+0xb0>
    2c47:	90                   	nop
    2c48:	25 ff ff 00 00       	and    $0xffff,%eax
    2c4d:	c7 44 24 0c 00 08 00 	movl   $0x800,0xc(%esp)
    2c54:	00 
    2c55:	89 44 24 10          	mov    %eax,0x10(%esp)
    2c59:	c7 44 24 08 c4 21 02 	movl   $0x221c4,0x8(%esp)
    2c60:	00 
    2c61:	c7 44 24 04 04 00 00 	movl   $0x4,0x4(%esp)
    2c68:	00 
    2c69:	c7 04 24 ff ff ff ff 	movl   $0xffffffff,(%esp)
    2c70:	e8 6b ce 00 00       	call   fae0 <log_msg>
    2c75:	b8 f2 ff ff ff       	mov    $0xfffffff2,%eax
    2c7a:	e9 91 fe ff ff       	jmp    2b10 <arp_pdu_decode+0xb0>
    2c7f:	90                   	nop
    2c80:	25 ff 00 00 00       	and    $0xff,%eax
    2c85:	c7 44 24 0c 06 00 00 	movl   $0x6,0xc(%esp)
    2c8c:	00 
    2c8d:	89 44 24 10          	mov    %eax,0x10(%esp)
    2c91:	c7 44 24 08 78 22 02 	movl   $0x22278,0x8(%esp)
    2c98:	00 
    2c99:	c7 44 24 04 04 00 00 	movl   $0x4,0x4(%esp)
    2ca0:	00 
    2ca1:	c7 04 24 ff ff ff ff 	movl   $0xffffffff,(%esp)
    2ca8:	e8 33 ce 00 00       	call   fae0 <log_msg>
    2cad:	b8 f2 ff ff ff       	mov    $0xfffffff2,%eax
    2cb2:	e9 59 fe ff ff       	jmp    2b10 <arp_pdu_decode+0xb0>
    2cb7:	90                   	nop
    2cb8:	25 ff 00 00 00       	and    $0xff,%eax
    2cbd:	c7 44 24 0c 04 00 00 	movl   $0x4,0xc(%esp)
    2cc4:	00 
    2cc5:	89 44 24 10          	mov    %eax,0x10(%esp)
    2cc9:	c7 44 24 08 e4 21 02 	movl   $0x221e4,0x8(%esp)
    2cd0:	00 
    2cd1:	c7 44 24 04 04 00 00 	movl   $0x4,0x4(%esp)
    2cd8:	00 
    2cd9:	c7 04 24 ff ff ff ff 	movl   $0xffffffff,(%esp)
    2ce0:	e8 fb cd 00 00       	call   fae0 <log_msg>
    2ce5:	b8 f2 ff ff ff       	mov    $0xfffffff2,%eax
    2cea:	e9 21 fe ff ff       	jmp    2b10 <arp_pdu_decode+0xb0>
    2cef:	90                   	nop
    2cf0:	8b 45 0c             	mov    0xc(%ebp),%eax
    2cf3:	c7 44 24 08 43 22 02 	movl   $0x22243,0x8(%esp)
    2cfa:	00 
    2cfb:	89 44 24 0c          	mov    %eax,0xc(%esp)
    2cff:	c7 44 24 04 04 00 00 	movl   $0x4,0x4(%esp)
    2d06:	00 
    2d07:	c7 04 24 ff ff ff ff 	movl   $0xffffffff,(%esp)
    2d0e:	e8 cd cd 00 00       	call   fae0 <log_msg>
    2d13:	b8 f2 ff ff ff       	mov    $0xfffffff2,%eax
    2d18:	e9 f3 fd ff ff       	jmp    2b10 <arp_pdu_decode+0xb0>
    2d1d:	66 90                	xchg   %ax,%ax
    2d1f:	90                   	nop

00002d20 <exit>:
    2d20:	55                   	push   %ebp
    2d21:	89 e5                	mov    %esp,%ebp
    2d23:	83 ec 28             	sub    $0x28,%esp
    2d26:	80 3d f4 4e 02 00 00 	cmpb   $0x0,0x24ef4
    2d2d:	75 3f                	jne    2d6e <exit+0x4e>
    2d2f:	c7 44 24 18 0a 00 00 	movl   $0xa,0x18(%esp)
    2d36:	00 
    2d37:	c7 44 24 14 00 00 00 	movl   $0x0,0x14(%esp)
    2d3e:	00 
    2d3f:	c7 44 24 10 00 00 00 	movl   $0x0,0x10(%esp)
    2d46:	00 
    2d47:	c7 44 24 0c 00 00 00 	movl   $0x0,0xc(%esp)
    2d4e:	00 
    2d4f:	c7 44 24 08 00 00 00 	movl   $0x0,0x8(%esp)
    2d56:	00 
    2d57:	c7 44 24 04 00 00 00 	movl   $0x0,0x4(%esp)
    2d5e:	00 
    2d5f:	c7 04 24 00 00 00 00 	movl   $0x0,(%esp)
    2d66:	ff 15 b4 4e 02 00    	call   *0x24eb4
    2d6c:	eb fe                	jmp    2d6c <exit+0x4c>
    2d6e:	e8 5d a9 00 00       	call   d6d0 <__stdio_done>
    2d73:	8b 45 08             	mov    0x8(%ebp),%eax
    2d76:	89 04 24             	mov    %eax,(%esp)
    2d79:	e8 d2 a3 00 00       	call   d150 <task_retval>
    2d7e:	65 a1 00 00 00 00    	mov    %gs:0x0,%eax
    2d84:	8b 40 04             	mov    0x4(%eax),%eax
    2d87:	89 04 24             	mov    %eax,(%esp)
    2d8a:	e8 b1 81 00 00       	call   af40 <fibril_teardown>
    2d8f:	eb 9e                	jmp    2d2f <exit+0xf>
    2d91:	eb 0d                	jmp    2da0 <abort>
    2d93:	90                   	nop
    2d94:	90                   	nop
    2d95:	90                   	nop
    2d96:	90                   	nop
    2d97:	90                   	nop
    2d98:	90                   	nop
    2d99:	90                   	nop
    2d9a:	90                   	nop
    2d9b:	90                   	nop
    2d9c:	90                   	nop
    2d9d:	90                   	nop
    2d9e:	90                   	nop
    2d9f:	90                   	nop

00002da0 <abort>:
    2da0:	55                   	push   %ebp
    2da1:	89 e5                	mov    %esp,%ebp
    2da3:	83 ec 28             	sub    $0x28,%esp
    2da6:	c7 44 24 18 0a 00 00 	movl   $0xa,0x18(%esp)
    2dad:	00 
    2dae:	c7 44 24 14 00 00 00 	movl   $0x0,0x14(%esp)
    2db5:	00 
    2db6:	c7 44 24 10 00 00 00 	movl   $0x0,0x10(%esp)
    2dbd:	00 
    2dbe:	c7 44 24 0c 00 00 00 	movl   $0x0,0xc(%esp)
    2dc5:	00 
    2dc6:	c7 44 24 08 00 00 00 	movl   $0x0,0x8(%esp)
    2dcd:	00 
    2dce:	c7 44 24 04 00 00 00 	movl   $0x0,0x4(%esp)
    2dd5:	00 
    2dd6:	c7 04 24 01 00 00 00 	movl   $0x1,(%esp)
    2ddd:	ff 15 b4 4e 02 00    	call   *0x24eb4
    2de3:	eb fe                	jmp    2de3 <abort+0x43>
    2de5:	8d 74 26 00          	lea    0x0(%esi,%eiz,1),%esi
    2de9:	8d bc 27 00 00 00 00 	lea    0x0(%edi,%eiz,1),%edi

00002df0 <__main>:
    2df0:	55                   	push   %ebp
    2df1:	89 e5                	mov    %esp,%ebp
    2df3:	57                   	push   %edi
    2df4:	56                   	push   %esi
    2df5:	53                   	push   %ebx
    2df6:	83 ec 2c             	sub    $0x2c,%esp
    2df9:	8b 5d 08             	mov    0x8(%ebp),%ebx
    2dfc:	e8 6f 1f 01 00       	call   14d70 <__malloc_init>
    2e01:	e8 7a 3e 01 00       	call   16c80 <__async_init>
    2e06:	e8 b5 80 00 00       	call   aec0 <fibril_setup>
    2e0b:	85 c0                	test   %eax,%eax
    2e0d:	0f 84 82 00 00 00    	je     2e95 <__main+0xa5>
    2e13:	c7 44 24 18 01 00 00 	movl   $0x1,0x18(%esp)
    2e1a:	00 
    2e1b:	c7 44 24 14 00 00 00 	movl   $0x0,0x14(%esp)
    2e22:	00 
    2e23:	c7 44 24 10 00 00 00 	movl   $0x0,0x10(%esp)
    2e2a:	00 
    2e2b:	c7 44 24 0c 00 00 00 	movl   $0x0,0xc(%esp)
    2e32:	00 
    2e33:	c7 44 24 08 00 00 00 	movl   $0x0,0x8(%esp)
    2e3a:	00 
    2e3b:	c7 44 24 04 00 00 00 	movl   $0x0,0x4(%esp)
    2e42:	00 
    2e43:	8b 40 30             	mov    0x30(%eax),%eax
    2e46:	89 04 24             	mov    %eax,(%esp)
    2e49:	ff 15 b4 4e 02 00    	call   *0x24eb4
    2e4f:	89 1d e8 4e 02 00    	mov    %ebx,0x24ee8
    2e55:	c6 05 f4 4e 02 00 01 	movb   $0x1,0x24ef4
    2e5c:	85 db                	test   %ebx,%ebx
    2e5e:	74 3a                	je     2e9a <__main+0xaa>
    2e60:	8b 43 10             	mov    0x10(%ebx),%eax
    2e63:	8b 73 08             	mov    0x8(%ebx),%esi
    2e66:	8b 7b 0c             	mov    0xc(%ebx),%edi
    2e69:	89 04 24             	mov    %eax,(%esp)
    2e6c:	e8 cf a5 00 00       	call   d440 <__stdio_init>
    2e71:	a1 e8 4e 02 00       	mov    0x24ee8,%eax
    2e76:	8b 40 04             	mov    0x4(%eax),%eax
    2e79:	89 04 24             	mov    %eax,(%esp)
    2e7c:	e8 5f bb 01 00       	call   1e9e0 <chdir>
    2e81:	89 7c 24 04          	mov    %edi,0x4(%esp)
    2e85:	89 34 24             	mov    %esi,(%esp)
    2e88:	e8 b3 ec ff ff       	call   1b40 <main>
    2e8d:	89 04 24             	mov    %eax,(%esp)
    2e90:	e8 8b fe ff ff       	call   2d20 <exit>
    2e95:	e8 06 ff ff ff       	call   2da0 <abort>
    2e9a:	c7 04 24 00 00 00 00 	movl   $0x0,(%esp)
    2ea1:	31 ff                	xor    %edi,%edi
    2ea3:	e8 98 a5 00 00       	call   d440 <__stdio_init>
    2ea8:	31 f6                	xor    %esi,%esi
    2eaa:	eb d5                	jmp    2e81 <__main+0x91>
    2eac:	66 90                	xchg   %ax,%ax
    2eae:	66 90                	xchg   %ax,%ax

00002eb0 <nic_send_frame>:
    2eb0:	55                   	push   %ebp
    2eb1:	89 e5                	mov    %esp,%ebp
    2eb3:	56                   	push   %esi
    2eb4:	53                   	push   %ebx
    2eb5:	83 ec 50             	sub    $0x50,%esp
    2eb8:	8b 45 08             	mov    0x8(%ebp),%eax
    2ebb:	89 04 24             	mov    %eax,(%esp)
    2ebe:	e8 ed 54 01 00       	call   183b0 <async_exchange_begin>
    2ec3:	c7 44 24 14 00 00 00 	movl   $0x0,0x14(%esp)
    2eca:	00 
    2ecb:	89 c3                	mov    %eax,%ebx
    2ecd:	8d 45 d4             	lea    -0x2c(%ebp),%eax
    2ed0:	89 44 24 18          	mov    %eax,0x18(%esp)
    2ed4:	c7 44 24 10 00 00 00 	movl   $0x0,0x10(%esp)
    2edb:	00 
    2edc:	c7 44 24 0c 00 00 00 	movl   $0x0,0xc(%esp)
    2ee3:	00 
    2ee4:	c7 44 24 08 00 00 00 	movl   $0x0,0x8(%esp)
    2eeb:	00 
    2eec:	c7 44 24 04 03 04 00 	movl   $0x403,0x4(%esp)
    2ef3:	00 
    2ef4:	89 1c 24             	mov    %ebx,(%esp)
    2ef7:	e8 54 3e 01 00       	call   16d50 <async_send_fast>
    2efc:	89 1c 24             	mov    %ebx,(%esp)
    2eff:	89 c6                	mov    %eax,%esi
    2f01:	8b 45 10             	mov    0x10(%ebp),%eax
    2f04:	89 44 24 08          	mov    %eax,0x8(%esp)
    2f08:	8b 45 0c             	mov    0xc(%ebp),%eax
    2f0b:	89 44 24 04          	mov    %eax,0x4(%esp)
    2f0f:	e8 8c 63 01 00       	call   192a0 <async_data_write_start>
    2f14:	89 1c 24             	mov    %ebx,(%esp)
    2f17:	89 45 d0             	mov    %eax,-0x30(%ebp)
    2f1a:	e8 01 58 01 00       	call   18720 <async_exchange_end>
    2f1f:	8b 45 d0             	mov    -0x30(%ebp),%eax
    2f22:	85 c0                	test   %eax,%eax
    2f24:	75 1a                	jne    2f40 <nic_send_frame+0x90>
    2f26:	8d 45 d0             	lea    -0x30(%ebp),%eax
    2f29:	89 34 24             	mov    %esi,(%esp)
    2f2c:	89 44 24 04          	mov    %eax,0x4(%esp)
    2f30:	e8 eb 3f 01 00       	call   16f20 <async_wait_for>
    2f35:	8b 45 d0             	mov    -0x30(%ebp),%eax
    2f38:	83 c4 50             	add    $0x50,%esp
    2f3b:	5b                   	pop    %ebx
    2f3c:	5e                   	pop    %esi
    2f3d:	5d                   	pop    %ebp
    2f3e:	c3                   	ret    
    2f3f:	90                   	nop
    2f40:	89 34 24             	mov    %esi,(%esp)
    2f43:	e8 28 42 01 00       	call   17170 <async_forget>
    2f48:	8b 45 d0             	mov    -0x30(%ebp),%eax
    2f4b:	83 c4 50             	add    $0x50,%esp
    2f4e:	5b                   	pop    %ebx
    2f4f:	5e                   	pop    %esi
    2f50:	5d                   	pop    %ebp
    2f51:	c3                   	ret    
    2f52:	8d b4 26 00 00 00 00 	lea    0x0(%esi,%eiz,1),%esi
    2f59:	8d bc 27 00 00 00 00 	lea    0x0(%edi,%eiz,1),%edi

00002f60 <nic_callback_create>:
    2f60:	55                   	push   %ebp
    2f61:	89 e5                	mov    %esp,%ebp
    2f63:	57                   	push   %edi
    2f64:	53                   	push   %ebx
    2f65:	83 ec 60             	sub    $0x60,%esp
    2f68:	8b 45 08             	mov    0x8(%ebp),%eax
    2f6b:	89 04 24             	mov    %eax,(%esp)
    2f6e:	e8 3d 54 01 00       	call   183b0 <async_exchange_begin>
    2f73:	c7 44 24 14 00 00 00 	movl   $0x0,0x14(%esp)
    2f7a:	00 
    2f7b:	89 c3                	mov    %eax,%ebx
    2f7d:	8d 45 d4             	lea    -0x2c(%ebp),%eax
    2f80:	89 44 24 18          	mov    %eax,0x18(%esp)
    2f84:	c7 44 24 10 00 00 00 	movl   $0x0,0x10(%esp)
    2f8b:	00 
    2f8c:	c7 44 24 0c 00 00 00 	movl   $0x0,0xc(%esp)
    2f93:	00 
    2f94:	c7 44 24 08 01 00 00 	movl   $0x1,0x8(%esp)
    2f9b:	00 
    2f9c:	c7 44 24 04 03 04 00 	movl   $0x403,0x4(%esp)
    2fa3:	00 
    2fa4:	89 1c 24             	mov    %ebx,(%esp)
    2fa7:	e8 a4 3d 01 00       	call   16d50 <async_send_fast>
    2fac:	c7 44 24 0c 00 00 00 	movl   $0x0,0xc(%esp)
    2fb3:	00 
    2fb4:	89 c7                	mov    %eax,%edi
    2fb6:	8b 45 10             	mov    0x10(%ebp),%eax
    2fb9:	89 44 24 14          	mov    %eax,0x14(%esp)
    2fbd:	8b 45 0c             	mov    0xc(%ebp),%eax
    2fc0:	89 44 24 10          	mov    %eax,0x10(%esp)
    2fc4:	c7 44 24 08 00 00 00 	movl   $0x0,0x8(%esp)
    2fcb:	00 
    2fcc:	c7 44 24 04 00 00 00 	movl   $0x0,0x4(%esp)
    2fd3:	00 
    2fd4:	89 1c 24             	mov    %ebx,(%esp)
    2fd7:	e8 74 4b 01 00       	call   17b50 <async_connect_to_me>
    2fdc:	85 c0                	test   %eax,%eax
    2fde:	75 28                	jne    3008 <nic_callback_create+0xa8>
    2fe0:	89 1c 24             	mov    %ebx,(%esp)
    2fe3:	e8 38 57 01 00       	call   18720 <async_exchange_end>
    2fe8:	8d 45 d0             	lea    -0x30(%ebp),%eax
    2feb:	89 44 24 04          	mov    %eax,0x4(%esp)
    2fef:	89 3c 24             	mov    %edi,(%esp)
    2ff2:	e8 29 3f 01 00       	call   16f20 <async_wait_for>
    2ff7:	8b 45 d0             	mov    -0x30(%ebp),%eax
    2ffa:	83 c4 60             	add    $0x60,%esp
    2ffd:	5b                   	pop    %ebx
    2ffe:	5f                   	pop    %edi
    2fff:	5d                   	pop    %ebp
    3000:	c3                   	ret    
    3001:	8d b4 26 00 00 00 00 	lea    0x0(%esi,%eiz,1),%esi
    3008:	89 3c 24             	mov    %edi,(%esp)
    300b:	89 45 c4             	mov    %eax,-0x3c(%ebp)
    300e:	e8 5d 41 01 00       	call   17170 <async_forget>
    3013:	8b 45 c4             	mov    -0x3c(%ebp),%eax
    3016:	83 c4 60             	add    $0x60,%esp
    3019:	5b                   	pop    %ebx
    301a:	5f                   	pop    %edi
    301b:	5d                   	pop    %ebp
    301c:	c3                   	ret    
    301d:	8d 76 00             	lea    0x0(%esi),%esi

00003020 <nic_get_state>:
    3020:	55                   	push   %ebp
    3021:	89 e5                	mov    %esp,%ebp
    3023:	56                   	push   %esi
    3024:	53                   	push   %ebx
    3025:	83 ec 50             	sub    $0x50,%esp
    3028:	8b 5d 0c             	mov    0xc(%ebp),%ebx
    302b:	85 db                	test   %ebx,%ebx
    302d:	74 7e                	je     30ad <nic_get_state+0x8d>
    302f:	8b 45 08             	mov    0x8(%ebp),%eax
    3032:	89 04 24             	mov    %eax,(%esp)
    3035:	e8 76 53 01 00       	call   183b0 <async_exchange_begin>
    303a:	c7 44 24 28 00 00 00 	movl   $0x0,0x28(%esp)
    3041:	00 
    3042:	89 c6                	mov    %eax,%esi
    3044:	8d 45 f4             	lea    -0xc(%ebp),%eax
    3047:	89 34 24             	mov    %esi,(%esp)
    304a:	c7 44 24 24 00 00 00 	movl   $0x0,0x24(%esp)
    3051:	00 
    3052:	c7 44 24 20 00 00 00 	movl   $0x0,0x20(%esp)
    3059:	00 
    305a:	c7 44 24 1c 00 00 00 	movl   $0x0,0x1c(%esp)
    3061:	00 
    3062:	89 44 24 18          	mov    %eax,0x18(%esp)
    3066:	c7 44 24 14 00 00 00 	movl   $0x0,0x14(%esp)
    306d:	00 
    306e:	c7 44 24 10 00 00 00 	movl   $0x0,0x10(%esp)
    3075:	00 
    3076:	c7 44 24 0c 00 00 00 	movl   $0x0,0xc(%esp)
    307d:	00 
    307e:	c7 44 24 08 02 00 00 	movl   $0x2,0x8(%esp)
    3085:	00 
    3086:	c7 44 24 04 03 04 00 	movl   $0x403,0x4(%esp)
    308d:	00 
    308e:	e8 cd 42 01 00       	call   17360 <async_req_fast>
    3093:	89 34 24             	mov    %esi,(%esp)
    3096:	89 45 e4             	mov    %eax,-0x1c(%ebp)
    3099:	e8 82 56 01 00       	call   18720 <async_exchange_end>
    309e:	8b 55 f4             	mov    -0xc(%ebp),%edx
    30a1:	8b 45 e4             	mov    -0x1c(%ebp),%eax
    30a4:	89 13                	mov    %edx,(%ebx)
    30a6:	83 c4 50             	add    $0x50,%esp
    30a9:	5b                   	pop    %ebx
    30aa:	5e                   	pop    %esi
    30ab:	5d                   	pop    %ebp
    30ac:	c3                   	ret    
    30ad:	c7 44 24 08 73 00 00 	movl   $0x73,0x8(%esp)
    30b4:	00 
    30b5:	c7 44 24 04 c0 22 02 	movl   $0x222c0,0x4(%esp)
    30bc:	00 
    30bd:	c7 04 24 ed 22 02 00 	movl   $0x222ed,(%esp)
    30c4:	e8 87 c5 01 00       	call   1f650 <assert_abort>
    30c9:	8d b4 26 00 00 00 00 	lea    0x0(%esi,%eiz,1),%esi

000030d0 <nic_set_state>:
    30d0:	55                   	push   %ebp
    30d1:	89 e5                	mov    %esp,%ebp
    30d3:	53                   	push   %ebx
    30d4:	83 ec 44             	sub    $0x44,%esp
    30d7:	8b 45 08             	mov    0x8(%ebp),%eax
    30da:	89 04 24             	mov    %eax,(%esp)
    30dd:	e8 ce 52 01 00       	call   183b0 <async_exchange_begin>
    30e2:	c7 44 24 28 00 00 00 	movl   $0x0,0x28(%esp)
    30e9:	00 
    30ea:	89 c3                	mov    %eax,%ebx
    30ec:	8b 45 0c             	mov    0xc(%ebp),%eax
    30ef:	89 1c 24             	mov    %ebx,(%esp)
    30f2:	c7 44 24 24 00 00 00 	movl   $0x0,0x24(%esp)
    30f9:	00 
    30fa:	c7 44 24 20 00 00 00 	movl   $0x0,0x20(%esp)
    3101:	00 
    3102:	c7 44 24 1c 00 00 00 	movl   $0x0,0x1c(%esp)
    3109:	00 
    310a:	c7 44 24 18 00 00 00 	movl   $0x0,0x18(%esp)
    3111:	00 
    3112:	c7 44 24 14 00 00 00 	movl   $0x0,0x14(%esp)
    3119:	00 
    311a:	c7 44 24 10 00 00 00 	movl   $0x0,0x10(%esp)
    3121:	00 
    3122:	89 44 24 0c          	mov    %eax,0xc(%esp)
    3126:	c7 44 24 08 03 00 00 	movl   $0x3,0x8(%esp)
    312d:	00 
    312e:	c7 44 24 04 03 04 00 	movl   $0x403,0x4(%esp)
    3135:	00 
    3136:	e8 25 42 01 00       	call   17360 <async_req_fast>
    313b:	89 1c 24             	mov    %ebx,(%esp)
    313e:	89 45 f4             	mov    %eax,-0xc(%ebp)
    3141:	e8 da 55 01 00       	call   18720 <async_exchange_end>
    3146:	8b 45 f4             	mov    -0xc(%ebp),%eax
    3149:	83 c4 44             	add    $0x44,%esp
    314c:	5b                   	pop    %ebx
    314d:	5d                   	pop    %ebp
    314e:	c3                   	ret    
    314f:	90                   	nop

00003150 <nic_get_address>:
    3150:	55                   	push   %ebp
    3151:	89 e5                	mov    %esp,%ebp
    3153:	57                   	push   %edi
    3154:	56                   	push   %esi
    3155:	53                   	push   %ebx
    3156:	83 ec 3c             	sub    $0x3c,%esp
    3159:	8b 75 0c             	mov    0xc(%ebp),%esi
    315c:	85 f6                	test   %esi,%esi
    315e:	0f 84 85 00 00 00    	je     31e9 <nic_get_address+0x99>
    3164:	8b 45 08             	mov    0x8(%ebp),%eax
    3167:	89 04 24             	mov    %eax,(%esp)
    316a:	e8 41 52 01 00       	call   183b0 <async_exchange_begin>
    316f:	c7 44 24 18 00 00 00 	movl   $0x0,0x18(%esp)
    3176:	00 
    3177:	c7 44 24 14 00 00 00 	movl   $0x0,0x14(%esp)
    317e:	00 
    317f:	c7 44 24 10 00 00 00 	movl   $0x0,0x10(%esp)
    3186:	00 
    3187:	c7 44 24 0c 00 00 00 	movl   $0x0,0xc(%esp)
    318e:	00 
    318f:	c7 44 24 08 04 00 00 	movl   $0x4,0x8(%esp)
    3196:	00 
    3197:	c7 44 24 04 03 04 00 	movl   $0x403,0x4(%esp)
    319e:	00 
    319f:	89 04 24             	mov    %eax,(%esp)
    31a2:	89 c3                	mov    %eax,%ebx
    31a4:	e8 a7 3b 01 00       	call   16d50 <async_send_fast>
    31a9:	89 74 24 04          	mov    %esi,0x4(%esp)
    31ad:	c7 44 24 08 06 00 00 	movl   $0x6,0x8(%esp)
    31b4:	00 
    31b5:	89 1c 24             	mov    %ebx,(%esp)
    31b8:	89 c7                	mov    %eax,%edi
    31ba:	e8 c1 5b 01 00       	call   18d80 <async_data_read_start>
    31bf:	89 1c 24             	mov    %ebx,(%esp)
    31c2:	89 c6                	mov    %eax,%esi
    31c4:	e8 57 55 01 00       	call   18720 <async_exchange_end>
    31c9:	8d 45 e4             	lea    -0x1c(%ebp),%eax
    31cc:	89 3c 24             	mov    %edi,(%esp)
    31cf:	89 44 24 04          	mov    %eax,0x4(%esp)
    31d3:	e8 48 3d 01 00       	call   16f20 <async_wait_for>
    31d8:	85 f6                	test   %esi,%esi
    31da:	75 03                	jne    31df <nic_get_address+0x8f>
    31dc:	8b 75 e4             	mov    -0x1c(%ebp),%esi
    31df:	83 c4 3c             	add    $0x3c,%esp
    31e2:	89 f0                	mov    %esi,%eax
    31e4:	5b                   	pop    %ebx
    31e5:	5e                   	pop    %esi
    31e6:	5f                   	pop    %edi
    31e7:	5d                   	pop    %ebp
    31e8:	c3                   	ret    
    31e9:	c7 44 24 08 9d 00 00 	movl   $0x9d,0x8(%esp)
    31f0:	00 
    31f1:	c7 44 24 04 c0 22 02 	movl   $0x222c0,0x4(%esp)
    31f8:	00 
    31f9:	c7 04 24 77 1a 02 00 	movl   $0x21a77,(%esp)
    3200:	e8 4b c4 01 00       	call   1f650 <assert_abort>
    3205:	8d 74 26 00          	lea    0x0(%esi,%eiz,1),%esi
    3209:	8d bc 27 00 00 00 00 	lea    0x0(%edi,%eiz,1),%edi

00003210 <nic_set_address>:
    3210:	55                   	push   %ebp
    3211:	89 e5                	mov    %esp,%ebp
    3213:	57                   	push   %edi
    3214:	56                   	push   %esi
    3215:	53                   	push   %ebx
    3216:	83 ec 3c             	sub    $0x3c,%esp
    3219:	8b 75 0c             	mov    0xc(%ebp),%esi
    321c:	85 f6                	test   %esi,%esi
    321e:	0f 84 85 00 00 00    	je     32a9 <nic_set_address+0x99>
    3224:	8b 45 08             	mov    0x8(%ebp),%eax
    3227:	89 04 24             	mov    %eax,(%esp)
    322a:	e8 81 51 01 00       	call   183b0 <async_exchange_begin>
    322f:	c7 44 24 18 00 00 00 	movl   $0x0,0x18(%esp)
    3236:	00 
    3237:	c7 44 24 14 00 00 00 	movl   $0x0,0x14(%esp)
    323e:	00 
    323f:	c7 44 24 10 00 00 00 	movl   $0x0,0x10(%esp)
    3246:	00 
    3247:	c7 44 24 0c 00 00 00 	movl   $0x0,0xc(%esp)
    324e:	00 
    324f:	c7 44 24 08 05 00 00 	movl   $0x5,0x8(%esp)
    3256:	00 
    3257:	c7 44 24 04 03 04 00 	movl   $0x403,0x4(%esp)
    325e:	00 
    325f:	89 04 24             	mov    %eax,(%esp)
    3262:	89 c3                	mov    %eax,%ebx
    3264:	e8 e7 3a 01 00       	call   16d50 <async_send_fast>
    3269:	89 74 24 04          	mov    %esi,0x4(%esp)
    326d:	c7 44 24 08 06 00 00 	movl   $0x6,0x8(%esp)
    3274:	00 
    3275:	89 1c 24             	mov    %ebx,(%esp)
    3278:	89 c7                	mov    %eax,%edi
    327a:	e8 21 60 01 00       	call   192a0 <async_data_write_start>
    327f:	89 1c 24             	mov    %ebx,(%esp)
    3282:	89 c6                	mov    %eax,%esi
    3284:	e8 97 54 01 00       	call   18720 <async_exchange_end>
    3289:	8d 45 e4             	lea    -0x1c(%ebp),%eax
    328c:	89 3c 24             	mov    %edi,(%esp)
    328f:	89 44 24 04          	mov    %eax,0x4(%esp)
    3293:	e8 88 3c 01 00       	call   16f20 <async_wait_for>
    3298:	85 f6                	test   %esi,%esi
    329a:	75 03                	jne    329f <nic_set_address+0x8f>
    329c:	8b 75 e4             	mov    -0x1c(%ebp),%esi
    329f:	83 c4 3c             	add    $0x3c,%esp
    32a2:	89 f0                	mov    %esi,%eax
    32a4:	5b                   	pop    %ebx
    32a5:	5e                   	pop    %esi
    32a6:	5f                   	pop    %edi
    32a7:	5d                   	pop    %ebp
    32a8:	c3                   	ret    
    32a9:	c7 44 24 08 b8 00 00 	movl   $0xb8,0x8(%esp)
    32b0:	00 
    32b1:	c7 44 24 04 c0 22 02 	movl   $0x222c0,0x4(%esp)
    32b8:	00 
    32b9:	c7 04 24 77 1a 02 00 	movl   $0x21a77,(%esp)
    32c0:	e8 8b c3 01 00       	call   1f650 <assert_abort>
    32c5:	8d 74 26 00          	lea    0x0(%esi,%eiz,1),%esi
    32c9:	8d bc 27 00 00 00 00 	lea    0x0(%edi,%eiz,1),%edi

000032d0 <nic_get_stats>:
    32d0:	55                   	push   %ebp
    32d1:	89 e5                	mov    %esp,%ebp
    32d3:	57                   	push   %edi
    32d4:	56                   	push   %esi
    32d5:	83 ec 40             	sub    $0x40,%esp
    32d8:	8b 7d 0c             	mov    0xc(%ebp),%edi
    32db:	85 ff                	test   %edi,%edi
    32dd:	0f 84 92 00 00 00    	je     3375 <nic_get_stats+0xa5>
    32e3:	8b 45 08             	mov    0x8(%ebp),%eax
    32e6:	89 04 24             	mov    %eax,(%esp)
    32e9:	e8 c2 50 01 00       	call   183b0 <async_exchange_begin>
    32ee:	c7 44 24 28 00 00 00 	movl   $0x0,0x28(%esp)
    32f5:	00 
    32f6:	c7 44 24 24 00 00 00 	movl   $0x0,0x24(%esp)
    32fd:	00 
    32fe:	c7 44 24 20 00 00 00 	movl   $0x0,0x20(%esp)
    3305:	00 
    3306:	c7 44 24 1c 00 00 00 	movl   $0x0,0x1c(%esp)
    330d:	00 
    330e:	c7 44 24 18 00 00 00 	movl   $0x0,0x18(%esp)
    3315:	00 
    3316:	c7 44 24 14 00 00 00 	movl   $0x0,0x14(%esp)
    331d:	00 
    331e:	c7 44 24 10 00 00 00 	movl   $0x0,0x10(%esp)
    3325:	00 
    3326:	c7 44 24 0c 00 00 00 	movl   $0x0,0xc(%esp)
    332d:	00 
    332e:	c7 44 24 08 06 00 00 	movl   $0x6,0x8(%esp)
    3335:	00 
    3336:	c7 44 24 04 03 04 00 	movl   $0x403,0x4(%esp)
    333d:	00 
    333e:	89 04 24             	mov    %eax,(%esp)
    3341:	89 c6                	mov    %eax,%esi
    3343:	e8 18 40 01 00       	call   17360 <async_req_fast>
    3348:	85 c0                	test   %eax,%eax
    334a:	75 14                	jne    3360 <nic_get_stats+0x90>
    334c:	c7 44 24 08 6c 00 00 	movl   $0x6c,0x8(%esp)
    3353:	00 
    3354:	89 7c 24 04          	mov    %edi,0x4(%esp)
    3358:	89 34 24             	mov    %esi,(%esp)
    335b:	e8 20 5a 01 00       	call   18d80 <async_data_read_start>
    3360:	89 34 24             	mov    %esi,(%esp)
    3363:	89 45 f4             	mov    %eax,-0xc(%ebp)
    3366:	e8 b5 53 01 00       	call   18720 <async_exchange_end>
    336b:	8b 45 f4             	mov    -0xc(%ebp),%eax
    336e:	83 c4 40             	add    $0x40,%esp
    3371:	5e                   	pop    %esi
    3372:	5f                   	pop    %edi
    3373:	5d                   	pop    %ebp
    3374:	c3                   	ret    
    3375:	c7 44 24 08 d3 00 00 	movl   $0xd3,0x8(%esp)
    337c:	00 
    337d:	c7 44 24 04 c0 22 02 	movl   $0x222c0,0x4(%esp)
    3384:	00 
    3385:	c7 04 24 d5 22 02 00 	movl   $0x222d5,(%esp)
    338c:	e8 bf c2 01 00       	call   1f650 <assert_abort>
    3391:	eb 0d                	jmp    33a0 <nic_get_device_info>
    3393:	90                   	nop
    3394:	90                   	nop
    3395:	90                   	nop
    3396:	90                   	nop
    3397:	90                   	nop
    3398:	90                   	nop
    3399:	90                   	nop
    339a:	90                   	nop
    339b:	90                   	nop
    339c:	90                   	nop
    339d:	90                   	nop
    339e:	90                   	nop
    339f:	90                   	nop

000033a0 <nic_get_device_info>:
    33a0:	55                   	push   %ebp
    33a1:	89 e5                	mov    %esp,%ebp
    33a3:	57                   	push   %edi
    33a4:	56                   	push   %esi
    33a5:	83 ec 40             	sub    $0x40,%esp
    33a8:	8b 7d 0c             	mov    0xc(%ebp),%edi
    33ab:	85 ff                	test   %edi,%edi
    33ad:	0f 84 92 00 00 00    	je     3445 <nic_get_device_info+0xa5>
    33b3:	8b 45 08             	mov    0x8(%ebp),%eax
    33b6:	89 04 24             	mov    %eax,(%esp)
    33b9:	e8 f2 4f 01 00       	call   183b0 <async_exchange_begin>
    33be:	c7 44 24 28 00 00 00 	movl   $0x0,0x28(%esp)
    33c5:	00 
    33c6:	c7 44 24 24 00 00 00 	movl   $0x0,0x24(%esp)
    33cd:	00 
    33ce:	c7 44 24 20 00 00 00 	movl   $0x0,0x20(%esp)
    33d5:	00 
    33d6:	c7 44 24 1c 00 00 00 	movl   $0x0,0x1c(%esp)
    33dd:	00 
    33de:	c7 44 24 18 00 00 00 	movl   $0x0,0x18(%esp)
    33e5:	00 
    33e6:	c7 44 24 14 00 00 00 	movl   $0x0,0x14(%esp)
    33ed:	00 
    33ee:	c7 44 24 10 00 00 00 	movl   $0x0,0x10(%esp)
    33f5:	00 
    33f6:	c7 44 24 0c 00 00 00 	movl   $0x0,0xc(%esp)
    33fd:	00 
    33fe:	c7 44 24 08 07 00 00 	movl   $0x7,0x8(%esp)
    3405:	00 
    3406:	c7 44 24 04 03 04 00 	movl   $0x403,0x4(%esp)
    340d:	00 
    340e:	89 04 24             	mov    %eax,(%esp)
    3411:	89 c6                	mov    %eax,%esi
    3413:	e8 48 3f 01 00       	call   17360 <async_req_fast>
    3418:	85 c0                	test   %eax,%eax
    341a:	75 14                	jne    3430 <nic_get_device_info+0x90>
    341c:	c7 44 24 08 1c 01 00 	movl   $0x11c,0x8(%esp)
    3423:	00 
    3424:	89 7c 24 04          	mov    %edi,0x4(%esp)
    3428:	89 34 24             	mov    %esi,(%esp)
    342b:	e8 50 59 01 00       	call   18d80 <async_data_read_start>
    3430:	89 34 24             	mov    %esi,(%esp)
    3433:	89 45 f4             	mov    %eax,-0xc(%ebp)
    3436:	e8 e5 52 01 00       	call   18720 <async_exchange_end>
    343b:	8b 45 f4             	mov    -0xc(%ebp),%eax
    343e:	83 c4 40             	add    $0x40,%esp
    3441:	5e                   	pop    %esi
    3442:	5f                   	pop    %edi
    3443:	5d                   	pop    %ebp
    3444:	c3                   	ret    
    3445:	c7 44 24 08 f1 00 00 	movl   $0xf1,0x8(%esp)
    344c:	00 
    344d:	c7 44 24 04 c0 22 02 	movl   $0x222c0,0x4(%esp)
    3454:	00 
    3455:	c7 04 24 db 22 02 00 	movl   $0x222db,(%esp)
    345c:	e8 ef c1 01 00       	call   1f650 <assert_abort>
    3461:	eb 0d                	jmp    3470 <nic_get_cable_state>
    3463:	90                   	nop
    3464:	90                   	nop
    3465:	90                   	nop
    3466:	90                   	nop
    3467:	90                   	nop
    3468:	90                   	nop
    3469:	90                   	nop
    346a:	90                   	nop
    346b:	90                   	nop
    346c:	90                   	nop
    346d:	90                   	nop
    346e:	90                   	nop
    346f:	90                   	nop

00003470 <nic_get_cable_state>:
    3470:	55                   	push   %ebp
    3471:	89 e5                	mov    %esp,%ebp
    3473:	56                   	push   %esi
    3474:	53                   	push   %ebx
    3475:	83 ec 50             	sub    $0x50,%esp
    3478:	8b 5d 0c             	mov    0xc(%ebp),%ebx
    347b:	85 db                	test   %ebx,%ebx
    347d:	74 7e                	je     34fd <nic_get_cable_state+0x8d>
    347f:	8b 45 08             	mov    0x8(%ebp),%eax
    3482:	89 04 24             	mov    %eax,(%esp)
    3485:	e8 26 4f 01 00       	call   183b0 <async_exchange_begin>
    348a:	c7 44 24 28 00 00 00 	movl   $0x0,0x28(%esp)
    3491:	00 
    3492:	89 c6                	mov    %eax,%esi
    3494:	8d 45 f4             	lea    -0xc(%ebp),%eax
    3497:	89 34 24             	mov    %esi,(%esp)
    349a:	c7 44 24 24 00 00 00 	movl   $0x0,0x24(%esp)
    34a1:	00 
    34a2:	c7 44 24 20 00 00 00 	movl   $0x0,0x20(%esp)
    34a9:	00 
    34aa:	c7 44 24 1c 00 00 00 	movl   $0x0,0x1c(%esp)
    34b1:	00 
    34b2:	89 44 24 18          	mov    %eax,0x18(%esp)
    34b6:	c7 44 24 14 00 00 00 	movl   $0x0,0x14(%esp)
    34bd:	00 
    34be:	c7 44 24 10 00 00 00 	movl   $0x0,0x10(%esp)
    34c5:	00 
    34c6:	c7 44 24 0c 00 00 00 	movl   $0x0,0xc(%esp)
    34cd:	00 
    34ce:	c7 44 24 08 08 00 00 	movl   $0x8,0x8(%esp)
    34d5:	00 
    34d6:	c7 44 24 04 03 04 00 	movl   $0x403,0x4(%esp)
    34dd:	00 
    34de:	e8 7d 3e 01 00       	call   17360 <async_req_fast>
    34e3:	89 34 24             	mov    %esi,(%esp)
    34e6:	89 45 e4             	mov    %eax,-0x1c(%ebp)
    34e9:	e8 32 52 01 00       	call   18720 <async_exchange_end>
    34ee:	8b 55 f4             	mov    -0xc(%ebp),%edx
    34f1:	8b 45 e4             	mov    -0x1c(%ebp),%eax
    34f4:	89 13                	mov    %edx,(%ebx)
    34f6:	83 c4 50             	add    $0x50,%esp
    34f9:	5b                   	pop    %ebx
    34fa:	5e                   	pop    %esi
    34fb:	5d                   	pop    %ebp
    34fc:	c3                   	ret    
    34fd:	c7 44 24 08 0d 01 00 	movl   $0x10d,0x8(%esp)
    3504:	00 
    3505:	c7 44 24 04 c0 22 02 	movl   $0x222c0,0x4(%esp)
    350c:	00 
    350d:	c7 04 24 e7 22 02 00 	movl   $0x222e7,(%esp)
    3514:	e8 37 c1 01 00       	call   1f650 <assert_abort>
    3519:	8d b4 26 00 00 00 00 	lea    0x0(%esi,%eiz,1),%esi

00003520 <nic_get_operation_mode>:
    3520:	55                   	push   %ebp
    3521:	89 e5                	mov    %esp,%ebp
    3523:	57                   	push   %edi
    3524:	56                   	push   %esi
    3525:	53                   	push   %ebx
    3526:	83 ec 5c             	sub    $0x5c,%esp
    3529:	8b 45 08             	mov    0x8(%ebp),%eax
    352c:	8b 7d 0c             	mov    0xc(%ebp),%edi
    352f:	89 04 24             	mov    %eax,(%esp)
    3532:	8b 5d 14             	mov    0x14(%ebp),%ebx
    3535:	e8 76 4e 01 00       	call   183b0 <async_exchange_begin>
    353a:	c7 44 24 28 00 00 00 	movl   $0x0,0x28(%esp)
    3541:	00 
    3542:	89 c6                	mov    %eax,%esi
    3544:	8d 45 e4             	lea    -0x1c(%ebp),%eax
    3547:	89 44 24 20          	mov    %eax,0x20(%esp)
    354b:	8d 45 e0             	lea    -0x20(%ebp),%eax
    354e:	89 44 24 1c          	mov    %eax,0x1c(%esp)
    3552:	8d 45 dc             	lea    -0x24(%ebp),%eax
    3555:	c7 44 24 24 00 00 00 	movl   $0x0,0x24(%esp)
    355c:	00 
    355d:	89 44 24 18          	mov    %eax,0x18(%esp)
    3561:	c7 44 24 14 00 00 00 	movl   $0x0,0x14(%esp)
    3568:	00 
    3569:	c7 44 24 10 00 00 00 	movl   $0x0,0x10(%esp)
    3570:	00 
    3571:	c7 44 24 0c 00 00 00 	movl   $0x0,0xc(%esp)
    3578:	00 
    3579:	c7 44 24 08 09 00 00 	movl   $0x9,0x8(%esp)
    3580:	00 
    3581:	c7 44 24 04 03 04 00 	movl   $0x403,0x4(%esp)
    3588:	00 
    3589:	89 34 24             	mov    %esi,(%esp)
    358c:	e8 cf 3d 01 00       	call   17360 <async_req_fast>
    3591:	89 34 24             	mov    %esi,(%esp)
    3594:	89 45 d4             	mov    %eax,-0x2c(%ebp)
    3597:	e8 84 51 01 00       	call   18720 <async_exchange_end>
    359c:	85 ff                	test   %edi,%edi
    359e:	8b 45 d4             	mov    -0x2c(%ebp),%eax
    35a1:	74 05                	je     35a8 <nic_get_operation_mode+0x88>
    35a3:	8b 55 dc             	mov    -0x24(%ebp),%edx
    35a6:	89 17                	mov    %edx,(%edi)
    35a8:	8b 55 10             	mov    0x10(%ebp),%edx
    35ab:	85 d2                	test   %edx,%edx
    35ad:	74 08                	je     35b7 <nic_get_operation_mode+0x97>
    35af:	8b 4d 10             	mov    0x10(%ebp),%ecx
    35b2:	8b 55 e0             	mov    -0x20(%ebp),%edx
    35b5:	89 11                	mov    %edx,(%ecx)
    35b7:	85 db                	test   %ebx,%ebx
    35b9:	74 05                	je     35c0 <nic_get_operation_mode+0xa0>
    35bb:	8b 55 e4             	mov    -0x1c(%ebp),%edx
    35be:	89 13                	mov    %edx,(%ebx)
    35c0:	83 c4 5c             	add    $0x5c,%esp
    35c3:	5b                   	pop    %ebx
    35c4:	5e                   	pop    %esi
    35c5:	5f                   	pop    %edi
    35c6:	5d                   	pop    %ebp
    35c7:	c3                   	ret    
    35c8:	90                   	nop
    35c9:	8d b4 26 00 00 00 00 	lea    0x0(%esi,%eiz,1),%esi

000035d0 <nic_set_operation_mode>:
    35d0:	55                   	push   %ebp
    35d1:	89 e5                	mov    %esp,%ebp
    35d3:	53                   	push   %ebx
    35d4:	83 ec 44             	sub    $0x44,%esp
    35d7:	8b 45 08             	mov    0x8(%ebp),%eax
    35da:	89 04 24             	mov    %eax,(%esp)
    35dd:	e8 ce 4d 01 00       	call   183b0 <async_exchange_begin>
    35e2:	c7 44 24 28 00 00 00 	movl   $0x0,0x28(%esp)
    35e9:	00 
    35ea:	89 c3                	mov    %eax,%ebx
    35ec:	8b 45 14             	mov    0x14(%ebp),%eax
    35ef:	89 44 24 14          	mov    %eax,0x14(%esp)
    35f3:	8b 45 10             	mov    0x10(%ebp),%eax
    35f6:	89 44 24 10          	mov    %eax,0x10(%esp)
    35fa:	8b 45 0c             	mov    0xc(%ebp),%eax
    35fd:	89 1c 24             	mov    %ebx,(%esp)
    3600:	c7 44 24 24 00 00 00 	movl   $0x0,0x24(%esp)
    3607:	00 
    3608:	c7 44 24 20 00 00 00 	movl   $0x0,0x20(%esp)
    360f:	00 
    3610:	c7 44 24 1c 00 00 00 	movl   $0x0,0x1c(%esp)
    3617:	00 
    3618:	c7 44 24 18 00 00 00 	movl   $0x0,0x18(%esp)
    361f:	00 
    3620:	89 44 24 0c          	mov    %eax,0xc(%esp)
    3624:	c7 44 24 08 0a 00 00 	movl   $0xa,0x8(%esp)
    362b:	00 
    362c:	c7 44 24 04 03 04 00 	movl   $0x403,0x4(%esp)
    3633:	00 
    3634:	e8 27 3d 01 00       	call   17360 <async_req_fast>
    3639:	89 1c 24             	mov    %ebx,(%esp)
    363c:	89 45 f4             	mov    %eax,-0xc(%ebp)
    363f:	e8 dc 50 01 00       	call   18720 <async_exchange_end>
    3644:	8b 45 f4             	mov    -0xc(%ebp),%eax
    3647:	83 c4 44             	add    $0x44,%esp
    364a:	5b                   	pop    %ebx
    364b:	5d                   	pop    %ebp
    364c:	c3                   	ret    
    364d:	8d 76 00             	lea    0x0(%esi),%esi

00003650 <nic_autoneg_enable>:
    3650:	55                   	push   %ebp
    3651:	89 e5                	mov    %esp,%ebp
    3653:	53                   	push   %ebx
    3654:	83 ec 44             	sub    $0x44,%esp
    3657:	8b 45 08             	mov    0x8(%ebp),%eax
    365a:	89 04 24             	mov    %eax,(%esp)
    365d:	e8 4e 4d 01 00       	call   183b0 <async_exchange_begin>
    3662:	c7 44 24 28 00 00 00 	movl   $0x0,0x28(%esp)
    3669:	00 
    366a:	89 c3                	mov    %eax,%ebx
    366c:	8b 45 0c             	mov    0xc(%ebp),%eax
    366f:	89 1c 24             	mov    %ebx,(%esp)
    3672:	c7 44 24 24 00 00 00 	movl   $0x0,0x24(%esp)
    3679:	00 
    367a:	c7 44 24 20 00 00 00 	movl   $0x0,0x20(%esp)
    3681:	00 
    3682:	c7 44 24 1c 00 00 00 	movl   $0x0,0x1c(%esp)
    3689:	00 
    368a:	c7 44 24 18 00 00 00 	movl   $0x0,0x18(%esp)
    3691:	00 
    3692:	c7 44 24 14 00 00 00 	movl   $0x0,0x14(%esp)
    3699:	00 
    369a:	c7 44 24 10 00 00 00 	movl   $0x0,0x10(%esp)
    36a1:	00 
    36a2:	89 44 24 0c          	mov    %eax,0xc(%esp)
    36a6:	c7 44 24 08 0b 00 00 	movl   $0xb,0x8(%esp)
    36ad:	00 
    36ae:	c7 44 24 04 03 04 00 	movl   $0x403,0x4(%esp)
    36b5:	00 
    36b6:	e8 a5 3c 01 00       	call   17360 <async_req_fast>
    36bb:	89 1c 24             	mov    %ebx,(%esp)
    36be:	89 45 f4             	mov    %eax,-0xc(%ebp)
    36c1:	e8 5a 50 01 00       	call   18720 <async_exchange_end>
    36c6:	8b 45 f4             	mov    -0xc(%ebp),%eax
    36c9:	83 c4 44             	add    $0x44,%esp
    36cc:	5b                   	pop    %ebx
    36cd:	5d                   	pop    %ebp
    36ce:	c3                   	ret    
    36cf:	90                   	nop

000036d0 <nic_autoneg_disable>:
    36d0:	55                   	push   %ebp
    36d1:	89 e5                	mov    %esp,%ebp
    36d3:	53                   	push   %ebx
    36d4:	83 ec 44             	sub    $0x44,%esp
    36d7:	8b 45 08             	mov    0x8(%ebp),%eax
    36da:	89 04 24             	mov    %eax,(%esp)
    36dd:	e8 ce 4c 01 00       	call   183b0 <async_exchange_begin>
    36e2:	c7 44 24 28 00 00 00 	movl   $0x0,0x28(%esp)
    36e9:	00 
    36ea:	c7 44 24 24 00 00 00 	movl   $0x0,0x24(%esp)
    36f1:	00 
    36f2:	c7 44 24 20 00 00 00 	movl   $0x0,0x20(%esp)
    36f9:	00 
    36fa:	c7 44 24 1c 00 00 00 	movl   $0x0,0x1c(%esp)
    3701:	00 
    3702:	c7 44 24 18 00 00 00 	movl   $0x0,0x18(%esp)
    3709:	00 
    370a:	c7 44 24 14 00 00 00 	movl   $0x0,0x14(%esp)
    3711:	00 
    3712:	c7 44 24 10 00 00 00 	movl   $0x0,0x10(%esp)
    3719:	00 
    371a:	c7 44 24 0c 00 00 00 	movl   $0x0,0xc(%esp)
    3721:	00 
    3722:	c7 44 24 08 0c 00 00 	movl   $0xc,0x8(%esp)
    3729:	00 
    372a:	c7 44 24 04 03 04 00 	movl   $0x403,0x4(%esp)
    3731:	00 
    3732:	89 04 24             	mov    %eax,(%esp)
    3735:	89 c3                	mov    %eax,%ebx
    3737:	e8 24 3c 01 00       	call   17360 <async_req_fast>
    373c:	89 1c 24             	mov    %ebx,(%esp)
    373f:	89 45 f4             	mov    %eax,-0xc(%ebp)
    3742:	e8 d9 4f 01 00       	call   18720 <async_exchange_end>
    3747:	8b 45 f4             	mov    -0xc(%ebp),%eax
    374a:	83 c4 44             	add    $0x44,%esp
    374d:	5b                   	pop    %ebx
    374e:	5d                   	pop    %ebp
    374f:	c3                   	ret    

00003750 <nic_autoneg_probe>:
    3750:	55                   	push   %ebp
    3751:	89 e5                	mov    %esp,%ebp
    3753:	57                   	push   %edi
    3754:	56                   	push   %esi
    3755:	53                   	push   %ebx
    3756:	83 ec 5c             	sub    $0x5c,%esp
    3759:	8b 45 08             	mov    0x8(%ebp),%eax
    375c:	8b 7d 0c             	mov    0xc(%ebp),%edi
    375f:	89 04 24             	mov    %eax,(%esp)
    3762:	8b 5d 18             	mov    0x18(%ebp),%ebx
    3765:	e8 46 4c 01 00       	call   183b0 <async_exchange_begin>
    376a:	c7 44 24 28 00 00 00 	movl   $0x0,0x28(%esp)
    3771:	00 
    3772:	89 c6                	mov    %eax,%esi
    3774:	8d 45 e4             	lea    -0x1c(%ebp),%eax
    3777:	89 44 24 24          	mov    %eax,0x24(%esp)
    377b:	8d 45 e0             	lea    -0x20(%ebp),%eax
    377e:	89 44 24 20          	mov    %eax,0x20(%esp)
    3782:	8d 45 dc             	lea    -0x24(%ebp),%eax
    3785:	89 44 24 1c          	mov    %eax,0x1c(%esp)
    3789:	8d 45 d8             	lea    -0x28(%ebp),%eax
    378c:	89 44 24 18          	mov    %eax,0x18(%esp)
    3790:	c7 44 24 14 00 00 00 	movl   $0x0,0x14(%esp)
    3797:	00 
    3798:	c7 44 24 10 00 00 00 	movl   $0x0,0x10(%esp)
    379f:	00 
    37a0:	c7 44 24 0c 00 00 00 	movl   $0x0,0xc(%esp)
    37a7:	00 
    37a8:	c7 44 24 08 0d 00 00 	movl   $0xd,0x8(%esp)
    37af:	00 
    37b0:	c7 44 24 04 03 04 00 	movl   $0x403,0x4(%esp)
    37b7:	00 
    37b8:	89 34 24             	mov    %esi,(%esp)
    37bb:	e8 a0 3b 01 00       	call   17360 <async_req_fast>
    37c0:	89 34 24             	mov    %esi,(%esp)
    37c3:	89 45 d4             	mov    %eax,-0x2c(%ebp)
    37c6:	e8 55 4f 01 00       	call   18720 <async_exchange_end>
    37cb:	85 ff                	test   %edi,%edi
    37cd:	8b 45 d4             	mov    -0x2c(%ebp),%eax
    37d0:	74 05                	je     37d7 <nic_autoneg_probe+0x87>
    37d2:	8b 55 d8             	mov    -0x28(%ebp),%edx
    37d5:	89 17                	mov    %edx,(%edi)
    37d7:	8b 55 10             	mov    0x10(%ebp),%edx
    37da:	8b 32                	mov    (%edx),%esi
    37dc:	85 f6                	test   %esi,%esi
    37de:	74 07                	je     37e7 <nic_autoneg_probe+0x97>
    37e0:	89 d1                	mov    %edx,%ecx
    37e2:	8b 55 dc             	mov    -0x24(%ebp),%edx
    37e5:	89 11                	mov    %edx,(%ecx)
    37e7:	8b 4d 14             	mov    0x14(%ebp),%ecx
    37ea:	85 c9                	test   %ecx,%ecx
    37ec:	74 08                	je     37f6 <nic_autoneg_probe+0xa6>
    37ee:	8b 4d 14             	mov    0x14(%ebp),%ecx
    37f1:	8b 55 e0             	mov    -0x20(%ebp),%edx
    37f4:	89 11                	mov    %edx,(%ecx)
    37f6:	85 db                	test   %ebx,%ebx
    37f8:	74 05                	je     37ff <nic_autoneg_probe+0xaf>
    37fa:	8b 55 e4             	mov    -0x1c(%ebp),%edx
    37fd:	89 13                	mov    %edx,(%ebx)
    37ff:	83 c4 5c             	add    $0x5c,%esp
    3802:	5b                   	pop    %ebx
    3803:	5e                   	pop    %esi
    3804:	5f                   	pop    %edi
    3805:	5d                   	pop    %ebp
    3806:	c3                   	ret    
    3807:	89 f6                	mov    %esi,%esi
    3809:	8d bc 27 00 00 00 00 	lea    0x0(%edi,%eiz,1),%edi

00003810 <nic_autoneg_restart>:
    3810:	55                   	push   %ebp
    3811:	89 e5                	mov    %esp,%ebp
    3813:	53                   	push   %ebx
    3814:	83 ec 44             	sub    $0x44,%esp
    3817:	8b 45 08             	mov    0x8(%ebp),%eax
    381a:	89 04 24             	mov    %eax,(%esp)
    381d:	e8 8e 4b 01 00       	call   183b0 <async_exchange_begin>
    3822:	c7 44 24 28 00 00 00 	movl   $0x0,0x28(%esp)
    3829:	00 
    382a:	c7 44 24 24 00 00 00 	movl   $0x0,0x24(%esp)
    3831:	00 
    3832:	c7 44 24 20 00 00 00 	movl   $0x0,0x20(%esp)
    3839:	00 
    383a:	c7 44 24 1c 00 00 00 	movl   $0x0,0x1c(%esp)
    3841:	00 
    3842:	c7 44 24 18 00 00 00 	movl   $0x0,0x18(%esp)
    3849:	00 
    384a:	c7 44 24 14 00 00 00 	movl   $0x0,0x14(%esp)
    3851:	00 
    3852:	c7 44 24 10 00 00 00 	movl   $0x0,0x10(%esp)
    3859:	00 
    385a:	c7 44 24 0c 00 00 00 	movl   $0x0,0xc(%esp)
    3861:	00 
    3862:	c7 44 24 08 0e 00 00 	movl   $0xe,0x8(%esp)
    3869:	00 
    386a:	c7 44 24 04 03 04 00 	movl   $0x403,0x4(%esp)
    3871:	00 
    3872:	89 04 24             	mov    %eax,(%esp)
    3875:	89 c3                	mov    %eax,%ebx
    3877:	e8 e4 3a 01 00       	call   17360 <async_req_fast>
    387c:	89 1c 24             	mov    %ebx,(%esp)
    387f:	89 45 f4             	mov    %eax,-0xc(%ebp)
    3882:	e8 99 4e 01 00       	call   18720 <async_exchange_end>
    3887:	8b 45 f4             	mov    -0xc(%ebp),%eax
    388a:	83 c4 44             	add    $0x44,%esp
    388d:	5b                   	pop    %ebx
    388e:	5d                   	pop    %ebp
    388f:	c3                   	ret    

00003890 <nic_get_pause>:
    3890:	55                   	push   %ebp
    3891:	89 e5                	mov    %esp,%ebp
    3893:	57                   	push   %edi
    3894:	56                   	push   %esi
    3895:	53                   	push   %ebx
    3896:	83 ec 5c             	sub    $0x5c,%esp
    3899:	8b 45 08             	mov    0x8(%ebp),%eax
    389c:	8b 7d 0c             	mov    0xc(%ebp),%edi
    389f:	89 04 24             	mov    %eax,(%esp)
    38a2:	8b 5d 14             	mov    0x14(%ebp),%ebx
    38a5:	e8 06 4b 01 00       	call   183b0 <async_exchange_begin>
    38aa:	c7 44 24 28 00 00 00 	movl   $0x0,0x28(%esp)
    38b1:	00 
    38b2:	89 c6                	mov    %eax,%esi
    38b4:	8d 45 e4             	lea    -0x1c(%ebp),%eax
    38b7:	89 44 24 20          	mov    %eax,0x20(%esp)
    38bb:	8d 45 e0             	lea    -0x20(%ebp),%eax
    38be:	89 44 24 1c          	mov    %eax,0x1c(%esp)
    38c2:	8d 45 dc             	lea    -0x24(%ebp),%eax
    38c5:	c7 44 24 24 00 00 00 	movl   $0x0,0x24(%esp)
    38cc:	00 
    38cd:	89 44 24 18          	mov    %eax,0x18(%esp)
    38d1:	c7 44 24 14 00 00 00 	movl   $0x0,0x14(%esp)
    38d8:	00 
    38d9:	c7 44 24 10 00 00 00 	movl   $0x0,0x10(%esp)
    38e0:	00 
    38e1:	c7 44 24 0c 00 00 00 	movl   $0x0,0xc(%esp)
    38e8:	00 
    38e9:	c7 44 24 08 0f 00 00 	movl   $0xf,0x8(%esp)
    38f0:	00 
    38f1:	c7 44 24 04 03 04 00 	movl   $0x403,0x4(%esp)
    38f8:	00 
    38f9:	89 34 24             	mov    %esi,(%esp)
    38fc:	e8 5f 3a 01 00       	call   17360 <async_req_fast>
    3901:	89 34 24             	mov    %esi,(%esp)
    3904:	89 45 d4             	mov    %eax,-0x2c(%ebp)
    3907:	e8 14 4e 01 00       	call   18720 <async_exchange_end>
    390c:	85 ff                	test   %edi,%edi
    390e:	8b 45 d4             	mov    -0x2c(%ebp),%eax
    3911:	74 05                	je     3918 <nic_get_pause+0x88>
    3913:	8b 55 dc             	mov    -0x24(%ebp),%edx
    3916:	89 17                	mov    %edx,(%edi)
    3918:	8b 7d 10             	mov    0x10(%ebp),%edi
    391b:	85 ff                	test   %edi,%edi
    391d:	74 08                	je     3927 <nic_get_pause+0x97>
    391f:	8b 4d 10             	mov    0x10(%ebp),%ecx
    3922:	8b 55 e0             	mov    -0x20(%ebp),%edx
    3925:	89 11                	mov    %edx,(%ecx)
    3927:	85 db                	test   %ebx,%ebx
    3929:	74 06                	je     3931 <nic_get_pause+0xa1>
    392b:	8b 55 e4             	mov    -0x1c(%ebp),%edx
    392e:	66 89 13             	mov    %dx,(%ebx)
    3931:	83 c4 5c             	add    $0x5c,%esp
    3934:	5b                   	pop    %ebx
    3935:	5e                   	pop    %esi
    3936:	5f                   	pop    %edi
    3937:	5d                   	pop    %ebp
    3938:	c3                   	ret    
    3939:	8d b4 26 00 00 00 00 	lea    0x0(%esi,%eiz,1),%esi

00003940 <nic_set_pause>:
    3940:	55                   	push   %ebp
    3941:	89 e5                	mov    %esp,%ebp
    3943:	56                   	push   %esi
    3944:	53                   	push   %ebx
    3945:	83 ec 40             	sub    $0x40,%esp
    3948:	8b 45 08             	mov    0x8(%ebp),%eax
    394b:	8b 75 14             	mov    0x14(%ebp),%esi
    394e:	89 04 24             	mov    %eax,(%esp)
    3951:	81 e6 ff ff 00 00    	and    $0xffff,%esi
    3957:	e8 54 4a 01 00       	call   183b0 <async_exchange_begin>
    395c:	89 74 24 14          	mov    %esi,0x14(%esp)
    3960:	89 c3                	mov    %eax,%ebx
    3962:	8b 45 10             	mov    0x10(%ebp),%eax
    3965:	89 44 24 10          	mov    %eax,0x10(%esp)
    3969:	8b 45 0c             	mov    0xc(%ebp),%eax
    396c:	89 1c 24             	mov    %ebx,(%esp)
    396f:	c7 44 24 28 00 00 00 	movl   $0x0,0x28(%esp)
    3976:	00 
    3977:	c7 44 24 24 00 00 00 	movl   $0x0,0x24(%esp)
    397e:	00 
    397f:	c7 44 24 20 00 00 00 	movl   $0x0,0x20(%esp)
    3986:	00 
    3987:	c7 44 24 1c 00 00 00 	movl   $0x0,0x1c(%esp)
    398e:	00 
    398f:	c7 44 24 18 00 00 00 	movl   $0x0,0x18(%esp)
    3996:	00 
    3997:	89 44 24 0c          	mov    %eax,0xc(%esp)
    399b:	c7 44 24 08 10 00 00 	movl   $0x10,0x8(%esp)
    39a2:	00 
    39a3:	c7 44 24 04 03 04 00 	movl   $0x403,0x4(%esp)
    39aa:	00 
    39ab:	e8 b0 39 01 00       	call   17360 <async_req_fast>
    39b0:	89 1c 24             	mov    %ebx,(%esp)
    39b3:	89 45 f4             	mov    %eax,-0xc(%ebp)
    39b6:	e8 65 4d 01 00       	call   18720 <async_exchange_end>
    39bb:	8b 45 f4             	mov    -0xc(%ebp),%eax
    39be:	83 c4 40             	add    $0x40,%esp
    39c1:	5b                   	pop    %ebx
    39c2:	5e                   	pop    %esi
    39c3:	5d                   	pop    %ebp
    39c4:	c3                   	ret    
    39c5:	8d 74 26 00          	lea    0x0(%esi,%eiz,1),%esi
    39c9:	8d bc 27 00 00 00 00 	lea    0x0(%edi,%eiz,1),%edi

000039d0 <nic_unicast_get_mode>:
    39d0:	55                   	push   %ebp
    39d1:	89 e5                	mov    %esp,%ebp
    39d3:	57                   	push   %edi
    39d4:	56                   	push   %esi
    39d5:	53                   	push   %ebx
    39d6:	83 ec 5c             	sub    $0x5c,%esp
    39d9:	8b 75 0c             	mov    0xc(%ebp),%esi
    39dc:	8b 5d 10             	mov    0x10(%ebp),%ebx
    39df:	85 f6                	test   %esi,%esi
    39e1:	0f 84 c3 00 00 00    	je     3aaa <nic_unicast_get_mode+0xda>
    39e7:	8b 7d 14             	mov    0x14(%ebp),%edi
    39ea:	85 ff                	test   %edi,%edi
    39ec:	0f 95 c0             	setne  %al
    39ef:	25 ff 00 00 00       	and    $0xff,%eax
    39f4:	f7 d8                	neg    %eax
    39f6:	21 c3                	and    %eax,%ebx
    39f8:	8b 45 08             	mov    0x8(%ebp),%eax
    39fb:	89 04 24             	mov    %eax,(%esp)
    39fe:	e8 ad 49 01 00       	call   183b0 <async_exchange_begin>
    3a03:	c7 44 24 28 00 00 00 	movl   $0x0,0x28(%esp)
    3a0a:	00 
    3a0b:	89 c7                	mov    %eax,%edi
    3a0d:	8d 45 e4             	lea    -0x1c(%ebp),%eax
    3a10:	89 44 24 1c          	mov    %eax,0x1c(%esp)
    3a14:	8d 45 e0             	lea    -0x20(%ebp),%eax
    3a17:	c7 44 24 24 00 00 00 	movl   $0x0,0x24(%esp)
    3a1e:	00 
    3a1f:	c7 44 24 20 00 00 00 	movl   $0x0,0x20(%esp)
    3a26:	00 
    3a27:	89 44 24 18          	mov    %eax,0x18(%esp)
    3a2b:	c7 44 24 14 00 00 00 	movl   $0x0,0x14(%esp)
    3a32:	00 
    3a33:	c7 44 24 10 00 00 00 	movl   $0x0,0x10(%esp)
    3a3a:	00 
    3a3b:	89 5c 24 0c          	mov    %ebx,0xc(%esp)
    3a3f:	c7 44 24 08 11 00 00 	movl   $0x11,0x8(%esp)
    3a46:	00 
    3a47:	c7 44 24 04 03 04 00 	movl   $0x403,0x4(%esp)
    3a4e:	00 
    3a4f:	89 3c 24             	mov    %edi,(%esp)
    3a52:	e8 09 39 01 00       	call   17360 <async_req_fast>
    3a57:	85 c0                	test   %eax,%eax
    3a59:	75 1f                	jne    3a7a <nic_unicast_get_mode+0xaa>
    3a5b:	8b 4d e0             	mov    -0x20(%ebp),%ecx
    3a5e:	89 0e                	mov    %ecx,(%esi)
    3a60:	8b 4d 18             	mov    0x18(%ebp),%ecx
    3a63:	85 c9                	test   %ecx,%ecx
    3a65:	74 08                	je     3a6f <nic_unicast_get_mode+0x9f>
    3a67:	8b 55 18             	mov    0x18(%ebp),%edx
    3a6a:	8b 4d e4             	mov    -0x1c(%ebp),%ecx
    3a6d:	89 0a                	mov    %ecx,(%edx)
    3a6f:	85 db                	test   %ebx,%ebx
    3a71:	74 07                	je     3a7a <nic_unicast_get_mode+0xaa>
    3a73:	8b 55 e4             	mov    -0x1c(%ebp),%edx
    3a76:	85 d2                	test   %edx,%edx
    3a78:	75 16                	jne    3a90 <nic_unicast_get_mode+0xc0>
    3a7a:	89 3c 24             	mov    %edi,(%esp)
    3a7d:	89 45 d4             	mov    %eax,-0x2c(%ebp)
    3a80:	e8 9b 4c 01 00       	call   18720 <async_exchange_end>
    3a85:	8b 45 d4             	mov    -0x2c(%ebp),%eax
    3a88:	83 c4 5c             	add    $0x5c,%esp
    3a8b:	5b                   	pop    %ebx
    3a8c:	5e                   	pop    %esi
    3a8d:	5f                   	pop    %edi
    3a8e:	5d                   	pop    %ebp
    3a8f:	c3                   	ret    
    3a90:	8d 04 5b             	lea    (%ebx,%ebx,2),%eax
    3a93:	8b 55 14             	mov    0x14(%ebp),%edx
    3a96:	01 c0                	add    %eax,%eax
    3a98:	89 54 24 04          	mov    %edx,0x4(%esp)
    3a9c:	89 44 24 08          	mov    %eax,0x8(%esp)
    3aa0:	89 3c 24             	mov    %edi,(%esp)
    3aa3:	e8 d8 52 01 00       	call   18d80 <async_data_read_start>
    3aa8:	eb d0                	jmp    3a7a <nic_unicast_get_mode+0xaa>
    3aaa:	c7 44 24 08 0c 02 00 	movl   $0x20c,0x8(%esp)
    3ab1:	00 
    3ab2:	c7 44 24 04 c0 22 02 	movl   $0x222c0,0x4(%esp)
    3ab9:	00 
    3aba:	c7 04 24 f3 22 02 00 	movl   $0x222f3,(%esp)
    3ac1:	e8 8a bb 01 00       	call   1f650 <assert_abort>
    3ac6:	8d 76 00             	lea    0x0(%esi),%esi
    3ac9:	8d bc 27 00 00 00 00 	lea    0x0(%edi,%eiz,1),%edi

00003ad0 <nic_unicast_set_mode>:
    3ad0:	55                   	push   %ebp
    3ad1:	89 e5                	mov    %esp,%ebp
    3ad3:	57                   	push   %edi
    3ad4:	56                   	push   %esi
    3ad5:	53                   	push   %ebx
    3ad6:	83 ec 4c             	sub    $0x4c,%esp
    3ad9:	8b 45 08             	mov    0x8(%ebp),%eax
    3adc:	8b 55 10             	mov    0x10(%ebp),%edx
    3adf:	8b 5d 14             	mov    0x14(%ebp),%ebx
    3ae2:	85 d2                	test   %edx,%edx
    3ae4:	89 04 24             	mov    %eax,(%esp)
    3ae7:	0f 84 ab 00 00 00    	je     3b98 <nic_unicast_set_mode+0xc8>
    3aed:	e8 be 48 01 00       	call   183b0 <async_exchange_begin>
    3af2:	8b 55 0c             	mov    0xc(%ebp),%edx
    3af5:	c7 44 24 18 00 00 00 	movl   $0x0,0x18(%esp)
    3afc:	00 
    3afd:	c7 44 24 14 00 00 00 	movl   $0x0,0x14(%esp)
    3b04:	00 
    3b05:	89 5c 24 10          	mov    %ebx,0x10(%esp)
    3b09:	89 54 24 0c          	mov    %edx,0xc(%esp)
    3b0d:	c7 44 24 08 12 00 00 	movl   $0x12,0x8(%esp)
    3b14:	00 
    3b15:	c7 44 24 04 03 04 00 	movl   $0x403,0x4(%esp)
    3b1c:	00 
    3b1d:	89 04 24             	mov    %eax,(%esp)
    3b20:	89 c7                	mov    %eax,%edi
    3b22:	e8 29 32 01 00       	call   16d50 <async_send_fast>
    3b27:	85 db                	test   %ebx,%ebx
    3b29:	89 c6                	mov    %eax,%esi
    3b2b:	75 23                	jne    3b50 <nic_unicast_set_mode+0x80>
    3b2d:	89 3c 24             	mov    %edi,(%esp)
    3b30:	e8 eb 4b 01 00       	call   18720 <async_exchange_end>
    3b35:	8d 45 e4             	lea    -0x1c(%ebp),%eax
    3b38:	89 44 24 04          	mov    %eax,0x4(%esp)
    3b3c:	89 34 24             	mov    %esi,(%esp)
    3b3f:	e8 dc 33 01 00       	call   16f20 <async_wait_for>
    3b44:	8b 45 e4             	mov    -0x1c(%ebp),%eax
    3b47:	83 c4 4c             	add    $0x4c,%esp
    3b4a:	5b                   	pop    %ebx
    3b4b:	5e                   	pop    %esi
    3b4c:	5f                   	pop    %edi
    3b4d:	5d                   	pop    %ebp
    3b4e:	c3                   	ret    
    3b4f:	90                   	nop
    3b50:	8d 04 5b             	lea    (%ebx,%ebx,2),%eax
    3b53:	8b 55 10             	mov    0x10(%ebp),%edx
    3b56:	01 c0                	add    %eax,%eax
    3b58:	89 54 24 04          	mov    %edx,0x4(%esp)
    3b5c:	89 44 24 08          	mov    %eax,0x8(%esp)
    3b60:	89 3c 24             	mov    %edi,(%esp)
    3b63:	e8 38 57 01 00       	call   192a0 <async_data_write_start>
    3b68:	89 3c 24             	mov    %edi,(%esp)
    3b6b:	89 45 d4             	mov    %eax,-0x2c(%ebp)
    3b6e:	e8 ad 4b 01 00       	call   18720 <async_exchange_end>
    3b73:	8d 55 e4             	lea    -0x1c(%ebp),%edx
    3b76:	89 34 24             	mov    %esi,(%esp)
    3b79:	89 54 24 04          	mov    %edx,0x4(%esp)
    3b7d:	e8 9e 33 01 00       	call   16f20 <async_wait_for>
    3b82:	8b 45 d4             	mov    -0x2c(%ebp),%eax
    3b85:	85 c0                	test   %eax,%eax
    3b87:	74 bb                	je     3b44 <nic_unicast_set_mode+0x74>
    3b89:	83 c4 4c             	add    $0x4c,%esp
    3b8c:	5b                   	pop    %ebx
    3b8d:	5e                   	pop    %esi
    3b8e:	5f                   	pop    %edi
    3b8f:	5d                   	pop    %ebp
    3b90:	c3                   	ret    
    3b91:	8d b4 26 00 00 00 00 	lea    0x0(%esi,%eiz,1),%esi
    3b98:	e8 13 48 01 00       	call   183b0 <async_exchange_begin>
    3b9d:	8b 55 0c             	mov    0xc(%ebp),%edx
    3ba0:	c7 44 24 18 00 00 00 	movl   $0x0,0x18(%esp)
    3ba7:	00 
    3ba8:	c7 44 24 14 00 00 00 	movl   $0x0,0x14(%esp)
    3baf:	00 
    3bb0:	c7 44 24 10 00 00 00 	movl   $0x0,0x10(%esp)
    3bb7:	00 
    3bb8:	89 54 24 0c          	mov    %edx,0xc(%esp)
    3bbc:	c7 44 24 08 12 00 00 	movl   $0x12,0x8(%esp)
    3bc3:	00 
    3bc4:	c7 44 24 04 03 04 00 	movl   $0x403,0x4(%esp)
    3bcb:	00 
    3bcc:	89 04 24             	mov    %eax,(%esp)
    3bcf:	89 c7                	mov    %eax,%edi
    3bd1:	e8 7a 31 01 00       	call   16d50 <async_send_fast>
    3bd6:	89 c6                	mov    %eax,%esi
    3bd8:	e9 50 ff ff ff       	jmp    3b2d <nic_unicast_set_mode+0x5d>
    3bdd:	8d 76 00             	lea    0x0(%esi),%esi

00003be0 <nic_multicast_get_mode>:
    3be0:	55                   	push   %ebp
    3be1:	89 e5                	mov    %esp,%ebp
    3be3:	57                   	push   %edi
    3be4:	56                   	push   %esi
    3be5:	53                   	push   %ebx
    3be6:	83 ec 5c             	sub    $0x5c,%esp
    3be9:	8b 75 0c             	mov    0xc(%ebp),%esi
    3bec:	8b 5d 10             	mov    0x10(%ebp),%ebx
    3bef:	85 f6                	test   %esi,%esi
    3bf1:	0f 84 c3 00 00 00    	je     3cba <nic_multicast_get_mode+0xda>
    3bf7:	8b 7d 14             	mov    0x14(%ebp),%edi
    3bfa:	85 ff                	test   %edi,%edi
    3bfc:	0f 95 c0             	setne  %al
    3bff:	25 ff 00 00 00       	and    $0xff,%eax
    3c04:	f7 d8                	neg    %eax
    3c06:	21 c3                	and    %eax,%ebx
    3c08:	8b 45 08             	mov    0x8(%ebp),%eax
    3c0b:	89 04 24             	mov    %eax,(%esp)
    3c0e:	e8 9d 47 01 00       	call   183b0 <async_exchange_begin>
    3c13:	c7 44 24 28 00 00 00 	movl   $0x0,0x28(%esp)
    3c1a:	00 
    3c1b:	89 c7                	mov    %eax,%edi
    3c1d:	8d 45 e4             	lea    -0x1c(%ebp),%eax
    3c20:	89 44 24 1c          	mov    %eax,0x1c(%esp)
    3c24:	8d 45 e0             	lea    -0x20(%ebp),%eax
    3c27:	c7 44 24 24 00 00 00 	movl   $0x0,0x24(%esp)
    3c2e:	00 
    3c2f:	c7 44 24 20 00 00 00 	movl   $0x0,0x20(%esp)
    3c36:	00 
    3c37:	89 44 24 18          	mov    %eax,0x18(%esp)
    3c3b:	c7 44 24 14 00 00 00 	movl   $0x0,0x14(%esp)
    3c42:	00 
    3c43:	c7 44 24 10 00 00 00 	movl   $0x0,0x10(%esp)
    3c4a:	00 
    3c4b:	89 5c 24 0c          	mov    %ebx,0xc(%esp)
    3c4f:	c7 44 24 08 13 00 00 	movl   $0x13,0x8(%esp)
    3c56:	00 
    3c57:	c7 44 24 04 03 04 00 	movl   $0x403,0x4(%esp)
    3c5e:	00 
    3c5f:	89 3c 24             	mov    %edi,(%esp)
    3c62:	e8 f9 36 01 00       	call   17360 <async_req_fast>
    3c67:	85 c0                	test   %eax,%eax
    3c69:	75 1f                	jne    3c8a <nic_multicast_get_mode+0xaa>
    3c6b:	8b 4d e0             	mov    -0x20(%ebp),%ecx
    3c6e:	89 0e                	mov    %ecx,(%esi)
    3c70:	8b 75 18             	mov    0x18(%ebp),%esi
    3c73:	85 f6                	test   %esi,%esi
    3c75:	74 08                	je     3c7f <nic_multicast_get_mode+0x9f>
    3c77:	8b 55 18             	mov    0x18(%ebp),%edx
    3c7a:	8b 4d e4             	mov    -0x1c(%ebp),%ecx
    3c7d:	89 0a                	mov    %ecx,(%edx)
    3c7f:	85 db                	test   %ebx,%ebx
    3c81:	74 07                	je     3c8a <nic_multicast_get_mode+0xaa>
    3c83:	8b 4d e4             	mov    -0x1c(%ebp),%ecx
    3c86:	85 c9                	test   %ecx,%ecx
    3c88:	75 16                	jne    3ca0 <nic_multicast_get_mode+0xc0>
    3c8a:	89 3c 24             	mov    %edi,(%esp)
    3c8d:	89 45 d4             	mov    %eax,-0x2c(%ebp)
    3c90:	e8 8b 4a 01 00       	call   18720 <async_exchange_end>
    3c95:	8b 45 d4             	mov    -0x2c(%ebp),%eax
    3c98:	83 c4 5c             	add    $0x5c,%esp
    3c9b:	5b                   	pop    %ebx
    3c9c:	5e                   	pop    %esi
    3c9d:	5f                   	pop    %edi
    3c9e:	5d                   	pop    %ebp
    3c9f:	c3                   	ret    
    3ca0:	8d 04 5b             	lea    (%ebx,%ebx,2),%eax
    3ca3:	8b 55 14             	mov    0x14(%ebp),%edx
    3ca6:	01 c0                	add    %eax,%eax
    3ca8:	89 54 24 04          	mov    %edx,0x4(%esp)
    3cac:	89 44 24 08          	mov    %eax,0x8(%esp)
    3cb0:	89 3c 24             	mov    %edi,(%esp)
    3cb3:	e8 c8 50 01 00       	call   18d80 <async_data_read_start>
    3cb8:	eb d0                	jmp    3c8a <nic_multicast_get_mode+0xaa>
    3cba:	c7 44 24 08 65 02 00 	movl   $0x265,0x8(%esp)
    3cc1:	00 
    3cc2:	c7 44 24 04 c0 22 02 	movl   $0x222c0,0x4(%esp)
    3cc9:	00 
    3cca:	c7 04 24 f3 22 02 00 	movl   $0x222f3,(%esp)
    3cd1:	e8 7a b9 01 00       	call   1f650 <assert_abort>
    3cd6:	8d 76 00             	lea    0x0(%esi),%esi
    3cd9:	8d bc 27 00 00 00 00 	lea    0x0(%edi,%eiz,1),%edi

00003ce0 <nic_multicast_set_mode>:
    3ce0:	55                   	push   %ebp
    3ce1:	89 e5                	mov    %esp,%ebp
    3ce3:	57                   	push   %edi
    3ce4:	56                   	push   %esi
    3ce5:	53                   	push   %ebx
    3ce6:	83 ec 4c             	sub    $0x4c,%esp
    3ce9:	8b 45 08             	mov    0x8(%ebp),%eax
    3cec:	8b 55 10             	mov    0x10(%ebp),%edx
    3cef:	8b 5d 14             	mov    0x14(%ebp),%ebx
    3cf2:	85 d2                	test   %edx,%edx
    3cf4:	89 04 24             	mov    %eax,(%esp)
    3cf7:	0f 84 ab 00 00 00    	je     3da8 <nic_multicast_set_mode+0xc8>
    3cfd:	e8 ae 46 01 00       	call   183b0 <async_exchange_begin>
    3d02:	8b 55 0c             	mov    0xc(%ebp),%edx
    3d05:	c7 44 24 18 00 00 00 	movl   $0x0,0x18(%esp)
    3d0c:	00 
    3d0d:	c7 44 24 14 00 00 00 	movl   $0x0,0x14(%esp)
    3d14:	00 
    3d15:	89 5c 24 10          	mov    %ebx,0x10(%esp)
    3d19:	89 54 24 0c          	mov    %edx,0xc(%esp)
    3d1d:	c7 44 24 08 14 00 00 	movl   $0x14,0x8(%esp)
    3d24:	00 
    3d25:	c7 44 24 04 03 04 00 	movl   $0x403,0x4(%esp)
    3d2c:	00 
    3d2d:	89 04 24             	mov    %eax,(%esp)
    3d30:	89 c7                	mov    %eax,%edi
    3d32:	e8 19 30 01 00       	call   16d50 <async_send_fast>
    3d37:	85 db                	test   %ebx,%ebx
    3d39:	89 c6                	mov    %eax,%esi
    3d3b:	75 23                	jne    3d60 <nic_multicast_set_mode+0x80>
    3d3d:	89 3c 24             	mov    %edi,(%esp)
    3d40:	e8 db 49 01 00       	call   18720 <async_exchange_end>
    3d45:	8d 45 e4             	lea    -0x1c(%ebp),%eax
    3d48:	89 44 24 04          	mov    %eax,0x4(%esp)
    3d4c:	89 34 24             	mov    %esi,(%esp)
    3d4f:	e8 cc 31 01 00       	call   16f20 <async_wait_for>
    3d54:	8b 45 e4             	mov    -0x1c(%ebp),%eax
    3d57:	83 c4 4c             	add    $0x4c,%esp
    3d5a:	5b                   	pop    %ebx
    3d5b:	5e                   	pop    %esi
    3d5c:	5f                   	pop    %edi
    3d5d:	5d                   	pop    %ebp
    3d5e:	c3                   	ret    
    3d5f:	90                   	nop
    3d60:	8d 04 5b             	lea    (%ebx,%ebx,2),%eax
    3d63:	8b 55 10             	mov    0x10(%ebp),%edx
    3d66:	01 c0                	add    %eax,%eax
    3d68:	89 54 24 04          	mov    %edx,0x4(%esp)
    3d6c:	89 44 24 08          	mov    %eax,0x8(%esp)
    3d70:	89 3c 24             	mov    %edi,(%esp)
    3d73:	e8 28 55 01 00       	call   192a0 <async_data_write_start>
    3d78:	89 3c 24             	mov    %edi,(%esp)
    3d7b:	89 45 d4             	mov    %eax,-0x2c(%ebp)
    3d7e:	e8 9d 49 01 00       	call   18720 <async_exchange_end>
    3d83:	8d 55 e4             	lea    -0x1c(%ebp),%edx
    3d86:	89 34 24             	mov    %esi,(%esp)
    3d89:	89 54 24 04          	mov    %edx,0x4(%esp)
    3d8d:	e8 8e 31 01 00       	call   16f20 <async_wait_for>
    3d92:	8b 45 d4             	mov    -0x2c(%ebp),%eax
    3d95:	85 c0                	test   %eax,%eax
    3d97:	74 bb                	je     3d54 <nic_multicast_set_mode+0x74>
    3d99:	83 c4 4c             	add    $0x4c,%esp
    3d9c:	5b                   	pop    %ebx
    3d9d:	5e                   	pop    %esi
    3d9e:	5f                   	pop    %edi
    3d9f:	5d                   	pop    %ebp
    3da0:	c3                   	ret    
    3da1:	8d b4 26 00 00 00 00 	lea    0x0(%esi,%eiz,1),%esi
    3da8:	e8 03 46 01 00       	call   183b0 <async_exchange_begin>
    3dad:	8b 55 0c             	mov    0xc(%ebp),%edx
    3db0:	c7 44 24 18 00 00 00 	movl   $0x0,0x18(%esp)
    3db7:	00 
    3db8:	c7 44 24 14 00 00 00 	movl   $0x0,0x14(%esp)
    3dbf:	00 
    3dc0:	c7 44 24 10 00 00 00 	movl   $0x0,0x10(%esp)
    3dc7:	00 
    3dc8:	89 54 24 0c          	mov    %edx,0xc(%esp)
    3dcc:	c7 44 24 08 14 00 00 	movl   $0x14,0x8(%esp)
    3dd3:	00 
    3dd4:	c7 44 24 04 03 04 00 	movl   $0x403,0x4(%esp)
    3ddb:	00 
    3ddc:	89 04 24             	mov    %eax,(%esp)
    3ddf:	89 c7                	mov    %eax,%edi
    3de1:	e8 6a 2f 01 00       	call   16d50 <async_send_fast>
    3de6:	89 c6                	mov    %eax,%esi
    3de8:	e9 50 ff ff ff       	jmp    3d3d <nic_multicast_set_mode+0x5d>
    3ded:	8d 76 00             	lea    0x0(%esi),%esi

00003df0 <nic_broadcast_get_mode>:
    3df0:	55                   	push   %ebp
    3df1:	89 e5                	mov    %esp,%ebp
    3df3:	56                   	push   %esi
    3df4:	53                   	push   %ebx
    3df5:	83 ec 50             	sub    $0x50,%esp
    3df8:	8b 5d 0c             	mov    0xc(%ebp),%ebx
    3dfb:	85 db                	test   %ebx,%ebx
    3dfd:	74 7e                	je     3e7d <nic_broadcast_get_mode+0x8d>
    3dff:	8b 45 08             	mov    0x8(%ebp),%eax
    3e02:	89 04 24             	mov    %eax,(%esp)
    3e05:	e8 a6 45 01 00       	call   183b0 <async_exchange_begin>
    3e0a:	c7 44 24 28 00 00 00 	movl   $0x0,0x28(%esp)
    3e11:	00 
    3e12:	89 c6                	mov    %eax,%esi
    3e14:	8d 45 f4             	lea    -0xc(%ebp),%eax
    3e17:	89 34 24             	mov    %esi,(%esp)
    3e1a:	c7 44 24 24 00 00 00 	movl   $0x0,0x24(%esp)
    3e21:	00 
    3e22:	c7 44 24 20 00 00 00 	movl   $0x0,0x20(%esp)
    3e29:	00 
    3e2a:	c7 44 24 1c 00 00 00 	movl   $0x0,0x1c(%esp)
    3e31:	00 
    3e32:	89 44 24 18          	mov    %eax,0x18(%esp)
    3e36:	c7 44 24 14 00 00 00 	movl   $0x0,0x14(%esp)
    3e3d:	00 
    3e3e:	c7 44 24 10 00 00 00 	movl   $0x0,0x10(%esp)
    3e45:	00 
    3e46:	c7 44 24 0c 00 00 00 	movl   $0x0,0xc(%esp)
    3e4d:	00 
    3e4e:	c7 44 24 08 15 00 00 	movl   $0x15,0x8(%esp)
    3e55:	00 
    3e56:	c7 44 24 04 03 04 00 	movl   $0x403,0x4(%esp)
    3e5d:	00 
    3e5e:	e8 fd 34 01 00       	call   17360 <async_req_fast>
    3e63:	89 34 24             	mov    %esi,(%esp)
    3e66:	89 45 e4             	mov    %eax,-0x1c(%ebp)
    3e69:	e8 b2 48 01 00       	call   18720 <async_exchange_end>
    3e6e:	8b 55 f4             	mov    -0xc(%ebp),%edx
    3e71:	8b 45 e4             	mov    -0x1c(%ebp),%eax
    3e74:	89 13                	mov    %edx,(%ebx)
    3e76:	83 c4 50             	add    $0x50,%esp
    3e79:	5b                   	pop    %ebx
    3e7a:	5e                   	pop    %esi
    3e7b:	5d                   	pop    %ebp
    3e7c:	c3                   	ret    
    3e7d:	c7 44 24 08 b3 02 00 	movl   $0x2b3,0x8(%esp)
    3e84:	00 
    3e85:	c7 44 24 04 c0 22 02 	movl   $0x222c0,0x4(%esp)
    3e8c:	00 
    3e8d:	c7 04 24 f3 22 02 00 	movl   $0x222f3,(%esp)
    3e94:	e8 b7 b7 01 00       	call   1f650 <assert_abort>
    3e99:	8d b4 26 00 00 00 00 	lea    0x0(%esi,%eiz,1),%esi

00003ea0 <nic_broadcast_set_mode>:
    3ea0:	55                   	push   %ebp
    3ea1:	89 e5                	mov    %esp,%ebp
    3ea3:	53                   	push   %ebx
    3ea4:	83 ec 44             	sub    $0x44,%esp
    3ea7:	8b 45 08             	mov    0x8(%ebp),%eax
    3eaa:	89 04 24             	mov    %eax,(%esp)
    3ead:	e8 fe 44 01 00       	call   183b0 <async_exchange_begin>
    3eb2:	c7 44 24 28 00 00 00 	movl   $0x0,0x28(%esp)
    3eb9:	00 
    3eba:	89 c3                	mov    %eax,%ebx
    3ebc:	8b 45 0c             	mov    0xc(%ebp),%eax
    3ebf:	89 1c 24             	mov    %ebx,(%esp)
    3ec2:	c7 44 24 24 00 00 00 	movl   $0x0,0x24(%esp)
    3ec9:	00 
    3eca:	c7 44 24 20 00 00 00 	movl   $0x0,0x20(%esp)
    3ed1:	00 
    3ed2:	c7 44 24 1c 00 00 00 	movl   $0x0,0x1c(%esp)
    3ed9:	00 
    3eda:	c7 44 24 18 00 00 00 	movl   $0x0,0x18(%esp)
    3ee1:	00 
    3ee2:	c7 44 24 14 00 00 00 	movl   $0x0,0x14(%esp)
    3ee9:	00 
    3eea:	c7 44 24 10 00 00 00 	movl   $0x0,0x10(%esp)
    3ef1:	00 
    3ef2:	89 44 24 0c          	mov    %eax,0xc(%esp)
    3ef6:	c7 44 24 08 16 00 00 	movl   $0x16,0x8(%esp)
    3efd:	00 
    3efe:	c7 44 24 04 03 04 00 	movl   $0x403,0x4(%esp)
    3f05:	00 
    3f06:	e8 55 34 01 00       	call   17360 <async_req_fast>
    3f0b:	89 1c 24             	mov    %ebx,(%esp)
    3f0e:	89 45 f4             	mov    %eax,-0xc(%ebp)
    3f11:	e8 0a 48 01 00       	call   18720 <async_exchange_end>
    3f16:	8b 45 f4             	mov    -0xc(%ebp),%eax
    3f19:	83 c4 44             	add    $0x44,%esp
    3f1c:	5b                   	pop    %ebx
    3f1d:	5d                   	pop    %ebp
    3f1e:	c3                   	ret    
    3f1f:	90                   	nop

00003f20 <nic_defective_get_mode>:
    3f20:	55                   	push   %ebp
    3f21:	89 e5                	mov    %esp,%ebp
    3f23:	56                   	push   %esi
    3f24:	53                   	push   %ebx
    3f25:	83 ec 50             	sub    $0x50,%esp
    3f28:	8b 5d 0c             	mov    0xc(%ebp),%ebx
    3f2b:	85 db                	test   %ebx,%ebx
    3f2d:	74 7e                	je     3fad <nic_defective_get_mode+0x8d>
    3f2f:	8b 45 08             	mov    0x8(%ebp),%eax
    3f32:	89 04 24             	mov    %eax,(%esp)
    3f35:	e8 76 44 01 00       	call   183b0 <async_exchange_begin>
    3f3a:	c7 44 24 28 00 00 00 	movl   $0x0,0x28(%esp)
    3f41:	00 
    3f42:	89 c6                	mov    %eax,%esi
    3f44:	8d 45 f4             	lea    -0xc(%ebp),%eax
    3f47:	89 34 24             	mov    %esi,(%esp)
    3f4a:	c7 44 24 24 00 00 00 	movl   $0x0,0x24(%esp)
    3f51:	00 
    3f52:	c7 44 24 20 00 00 00 	movl   $0x0,0x20(%esp)
    3f59:	00 
    3f5a:	c7 44 24 1c 00 00 00 	movl   $0x0,0x1c(%esp)
    3f61:	00 
    3f62:	89 44 24 18          	mov    %eax,0x18(%esp)
    3f66:	c7 44 24 14 00 00 00 	movl   $0x0,0x14(%esp)
    3f6d:	00 
    3f6e:	c7 44 24 10 00 00 00 	movl   $0x0,0x10(%esp)
    3f75:	00 
    3f76:	c7 44 24 0c 00 00 00 	movl   $0x0,0xc(%esp)
    3f7d:	00 
    3f7e:	c7 44 24 08 17 00 00 	movl   $0x17,0x8(%esp)
    3f85:	00 
    3f86:	c7 44 24 04 03 04 00 	movl   $0x403,0x4(%esp)
    3f8d:	00 
    3f8e:	e8 cd 33 01 00       	call   17360 <async_req_fast>
    3f93:	89 34 24             	mov    %esi,(%esp)
    3f96:	89 45 e4             	mov    %eax,-0x1c(%ebp)
    3f99:	e8 82 47 01 00       	call   18720 <async_exchange_end>
    3f9e:	8b 55 f4             	mov    -0xc(%ebp),%edx
    3fa1:	8b 45 e4             	mov    -0x1c(%ebp),%eax
    3fa4:	89 13                	mov    %edx,(%ebx)
    3fa6:	83 c4 50             	add    $0x50,%esp
    3fa9:	5b                   	pop    %ebx
    3faa:	5e                   	pop    %esi
    3fab:	5d                   	pop    %ebp
    3fac:	c3                   	ret    
    3fad:	c7 44 24 08 dd 02 00 	movl   $0x2dd,0x8(%esp)
    3fb4:	00 
    3fb5:	c7 44 24 04 c0 22 02 	movl   $0x222c0,0x4(%esp)
    3fbc:	00 
    3fbd:	c7 04 24 f3 22 02 00 	movl   $0x222f3,(%esp)
    3fc4:	e8 87 b6 01 00       	call   1f650 <assert_abort>
    3fc9:	8d b4 26 00 00 00 00 	lea    0x0(%esi,%eiz,1),%esi

00003fd0 <nic_defective_set_mode>:
    3fd0:	55                   	push   %ebp
    3fd1:	89 e5                	mov    %esp,%ebp
    3fd3:	53                   	push   %ebx
    3fd4:	83 ec 44             	sub    $0x44,%esp
    3fd7:	8b 45 08             	mov    0x8(%ebp),%eax
    3fda:	89 04 24             	mov    %eax,(%esp)
    3fdd:	e8 ce 43 01 00       	call   183b0 <async_exchange_begin>
    3fe2:	c7 44 24 28 00 00 00 	movl   $0x0,0x28(%esp)
    3fe9:	00 
    3fea:	89 c3                	mov    %eax,%ebx
    3fec:	8b 45 0c             	mov    0xc(%ebp),%eax
    3fef:	89 1c 24             	mov    %ebx,(%esp)
    3ff2:	c7 44 24 24 00 00 00 	movl   $0x0,0x24(%esp)
    3ff9:	00 
    3ffa:	c7 44 24 20 00 00 00 	movl   $0x0,0x20(%esp)
    4001:	00 
    4002:	c7 44 24 1c 00 00 00 	movl   $0x0,0x1c(%esp)
    4009:	00 
    400a:	c7 44 24 18 00 00 00 	movl   $0x0,0x18(%esp)
    4011:	00 
    4012:	c7 44 24 14 00 00 00 	movl   $0x0,0x14(%esp)
    4019:	00 
    401a:	c7 44 24 10 00 00 00 	movl   $0x0,0x10(%esp)
    4021:	00 
    4022:	89 44 24 0c          	mov    %eax,0xc(%esp)
    4026:	c7 44 24 08 18 00 00 	movl   $0x18,0x8(%esp)
    402d:	00 
    402e:	c7 44 24 04 03 04 00 	movl   $0x403,0x4(%esp)
    4035:	00 
    4036:	e8 25 33 01 00       	call   17360 <async_req_fast>
    403b:	89 1c 24             	mov    %ebx,(%esp)
    403e:	89 45 f4             	mov    %eax,-0xc(%ebp)
    4041:	e8 da 46 01 00       	call   18720 <async_exchange_end>
    4046:	8b 45 f4             	mov    -0xc(%ebp),%eax
    4049:	83 c4 44             	add    $0x44,%esp
    404c:	5b                   	pop    %ebx
    404d:	5d                   	pop    %ebp
    404e:	c3                   	ret    
    404f:	90                   	nop

00004050 <nic_blocked_sources_get>:
    4050:	55                   	push   %ebp
    4051:	89 e5                	mov    %esp,%ebp
    4053:	57                   	push   %edi
    4054:	56                   	push   %esi
    4055:	53                   	push   %ebx
    4056:	83 ec 5c             	sub    $0x5c,%esp
    4059:	8b 45 08             	mov    0x8(%ebp),%eax
    405c:	8b 5d 10             	mov    0x10(%ebp),%ebx
    405f:	89 04 24             	mov    %eax,(%esp)
    4062:	85 db                	test   %ebx,%ebx
    4064:	8b 7d 0c             	mov    0xc(%ebp),%edi
    4067:	8b 75 14             	mov    0x14(%ebp),%esi
    406a:	0f 95 c3             	setne  %bl
    406d:	e8 3e 43 01 00       	call   183b0 <async_exchange_begin>
    4072:	81 e3 ff 00 00 00    	and    $0xff,%ebx
    4078:	f7 db                	neg    %ebx
    407a:	21 fb                	and    %edi,%ebx
    407c:	89 c7                	mov    %eax,%edi
    407e:	8d 45 e4             	lea    -0x1c(%ebp),%eax
    4081:	c7 44 24 28 00 00 00 	movl   $0x0,0x28(%esp)
    4088:	00 
    4089:	c7 44 24 24 00 00 00 	movl   $0x0,0x24(%esp)
    4090:	00 
    4091:	c7 44 24 20 00 00 00 	movl   $0x0,0x20(%esp)
    4098:	00 
    4099:	c7 44 24 1c 00 00 00 	movl   $0x0,0x1c(%esp)
    40a0:	00 
    40a1:	89 44 24 18          	mov    %eax,0x18(%esp)
    40a5:	c7 44 24 14 00 00 00 	movl   $0x0,0x14(%esp)
    40ac:	00 
    40ad:	c7 44 24 10 00 00 00 	movl   $0x0,0x10(%esp)
    40b4:	00 
    40b5:	89 5c 24 0c          	mov    %ebx,0xc(%esp)
    40b9:	c7 44 24 08 19 00 00 	movl   $0x19,0x8(%esp)
    40c0:	00 
    40c1:	c7 44 24 04 03 04 00 	movl   $0x403,0x4(%esp)
    40c8:	00 
    40c9:	89 3c 24             	mov    %edi,(%esp)
    40cc:	e8 8f 32 01 00       	call   17360 <async_req_fast>
    40d1:	85 c0                	test   %eax,%eax
    40d3:	75 14                	jne    40e9 <nic_blocked_sources_get+0x99>
    40d5:	85 f6                	test   %esi,%esi
    40d7:	74 05                	je     40de <nic_blocked_sources_get+0x8e>
    40d9:	8b 55 e4             	mov    -0x1c(%ebp),%edx
    40dc:	89 16                	mov    %edx,(%esi)
    40de:	85 db                	test   %ebx,%ebx
    40e0:	74 07                	je     40e9 <nic_blocked_sources_get+0x99>
    40e2:	8b 4d e4             	mov    -0x1c(%ebp),%ecx
    40e5:	85 c9                	test   %ecx,%ecx
    40e7:	75 17                	jne    4100 <nic_blocked_sources_get+0xb0>
    40e9:	89 3c 24             	mov    %edi,(%esp)
    40ec:	89 45 d4             	mov    %eax,-0x2c(%ebp)
    40ef:	e8 2c 46 01 00       	call   18720 <async_exchange_end>
    40f4:	8b 45 d4             	mov    -0x2c(%ebp),%eax
    40f7:	83 c4 5c             	add    $0x5c,%esp
    40fa:	5b                   	pop    %ebx
    40fb:	5e                   	pop    %esi
    40fc:	5f                   	pop    %edi
    40fd:	5d                   	pop    %ebp
    40fe:	c3                   	ret    
    40ff:	90                   	nop
    4100:	8d 04 5b             	lea    (%ebx,%ebx,2),%eax
    4103:	89 3c 24             	mov    %edi,(%esp)
    4106:	01 c0                	add    %eax,%eax
    4108:	89 44 24 08          	mov    %eax,0x8(%esp)
    410c:	8b 45 10             	mov    0x10(%ebp),%eax
    410f:	89 44 24 04          	mov    %eax,0x4(%esp)
    4113:	e8 68 4c 01 00       	call   18d80 <async_data_read_start>
    4118:	eb cf                	jmp    40e9 <nic_blocked_sources_get+0x99>
    411a:	8d b6 00 00 00 00    	lea    0x0(%esi),%esi

00004120 <nic_blocked_sources_set>:
    4120:	55                   	push   %ebp
    4121:	89 e5                	mov    %esp,%ebp
    4123:	57                   	push   %edi
    4124:	56                   	push   %esi
    4125:	53                   	push   %ebx
    4126:	83 ec 4c             	sub    $0x4c,%esp
    4129:	8b 45 08             	mov    0x8(%ebp),%eax
    412c:	8b 55 0c             	mov    0xc(%ebp),%edx
    412f:	8b 75 10             	mov    0x10(%ebp),%esi
    4132:	85 d2                	test   %edx,%edx
    4134:	89 04 24             	mov    %eax,(%esp)
    4137:	0f 84 ab 00 00 00    	je     41e8 <nic_blocked_sources_set+0xc8>
    413d:	e8 6e 42 01 00       	call   183b0 <async_exchange_begin>
    4142:	c7 44 24 18 00 00 00 	movl   $0x0,0x18(%esp)
    4149:	00 
    414a:	c7 44 24 14 00 00 00 	movl   $0x0,0x14(%esp)
    4151:	00 
    4152:	c7 44 24 10 00 00 00 	movl   $0x0,0x10(%esp)
    4159:	00 
    415a:	89 74 24 0c          	mov    %esi,0xc(%esp)
    415e:	c7 44 24 08 1a 00 00 	movl   $0x1a,0x8(%esp)
    4165:	00 
    4166:	c7 44 24 04 03 04 00 	movl   $0x403,0x4(%esp)
    416d:	00 
    416e:	89 04 24             	mov    %eax,(%esp)
    4171:	89 c3                	mov    %eax,%ebx
    4173:	e8 d8 2b 01 00       	call   16d50 <async_send_fast>
    4178:	85 f6                	test   %esi,%esi
    417a:	89 c7                	mov    %eax,%edi
    417c:	75 22                	jne    41a0 <nic_blocked_sources_set+0x80>
    417e:	89 1c 24             	mov    %ebx,(%esp)
    4181:	e8 9a 45 01 00       	call   18720 <async_exchange_end>
    4186:	8d 45 e4             	lea    -0x1c(%ebp),%eax
    4189:	89 44 24 04          	mov    %eax,0x4(%esp)
    418d:	89 3c 24             	mov    %edi,(%esp)
    4190:	e8 8b 2d 01 00       	call   16f20 <async_wait_for>
    4195:	8b 45 e4             	mov    -0x1c(%ebp),%eax
    4198:	83 c4 4c             	add    $0x4c,%esp
    419b:	5b                   	pop    %ebx
    419c:	5e                   	pop    %esi
    419d:	5f                   	pop    %edi
    419e:	5d                   	pop    %ebp
    419f:	c3                   	ret    
    41a0:	8d 04 76             	lea    (%esi,%esi,2),%eax
    41a3:	8b 55 0c             	mov    0xc(%ebp),%edx
    41a6:	01 c0                	add    %eax,%eax
    41a8:	89 54 24 04          	mov    %edx,0x4(%esp)
    41ac:	89 44 24 08          	mov    %eax,0x8(%esp)
    41b0:	89 1c 24             	mov    %ebx,(%esp)
    41b3:	e8 e8 50 01 00       	call   192a0 <async_data_write_start>
    41b8:	89 1c 24             	mov    %ebx,(%esp)
    41bb:	89 45 d4             	mov    %eax,-0x2c(%ebp)
    41be:	e8 5d 45 01 00       	call   18720 <async_exchange_end>
    41c3:	8d 55 e4             	lea    -0x1c(%ebp),%edx
    41c6:	89 3c 24             	mov    %edi,(%esp)
    41c9:	89 54 24 04          	mov    %edx,0x4(%esp)
    41cd:	e8 4e 2d 01 00       	call   16f20 <async_wait_for>
    41d2:	8b 45 d4             	mov    -0x2c(%ebp),%eax
    41d5:	85 c0                	test   %eax,%eax
    41d7:	74 bc                	je     4195 <nic_blocked_sources_set+0x75>
    41d9:	83 c4 4c             	add    $0x4c,%esp
    41dc:	5b                   	pop    %ebx
    41dd:	5e                   	pop    %esi
    41de:	5f                   	pop    %edi
    41df:	5d                   	pop    %ebp
    41e0:	c3                   	ret    
    41e1:	8d b4 26 00 00 00 00 	lea    0x0(%esi,%eiz,1),%esi
    41e8:	e8 c3 41 01 00       	call   183b0 <async_exchange_begin>
    41ed:	c7 44 24 18 00 00 00 	movl   $0x0,0x18(%esp)
    41f4:	00 
    41f5:	c7 44 24 14 00 00 00 	movl   $0x0,0x14(%esp)
    41fc:	00 
    41fd:	c7 44 24 10 00 00 00 	movl   $0x0,0x10(%esp)
    4204:	00 
    4205:	c7 44 24 0c 00 00 00 	movl   $0x0,0xc(%esp)
    420c:	00 
    420d:	c7 44 24 08 1a 00 00 	movl   $0x1a,0x8(%esp)
    4214:	00 
    4215:	c7 44 24 04 03 04 00 	movl   $0x403,0x4(%esp)
    421c:	00 
    421d:	89 04 24             	mov    %eax,(%esp)
    4220:	89 c3                	mov    %eax,%ebx
    4222:	e8 29 2b 01 00       	call   16d50 <async_send_fast>
    4227:	89 c7                	mov    %eax,%edi
    4229:	e9 50 ff ff ff       	jmp    417e <nic_blocked_sources_set+0x5e>
    422e:	66 90                	xchg   %ax,%ax

00004230 <nic_vlan_get_mask>:
    4230:	55                   	push   %ebp
    4231:	89 e5                	mov    %esp,%ebp
    4233:	57                   	push   %edi
    4234:	56                   	push   %esi
    4235:	83 ec 40             	sub    $0x40,%esp
    4238:	8b 7d 0c             	mov    0xc(%ebp),%edi
    423b:	85 ff                	test   %edi,%edi
    423d:	0f 84 92 00 00 00    	je     42d5 <nic_vlan_get_mask+0xa5>
    4243:	8b 45 08             	mov    0x8(%ebp),%eax
    4246:	89 04 24             	mov    %eax,(%esp)
    4249:	e8 62 41 01 00       	call   183b0 <async_exchange_begin>
    424e:	c7 44 24 28 00 00 00 	movl   $0x0,0x28(%esp)
    4255:	00 
    4256:	c7 44 24 24 00 00 00 	movl   $0x0,0x24(%esp)
    425d:	00 
    425e:	c7 44 24 20 00 00 00 	movl   $0x0,0x20(%esp)
    4265:	00 
    4266:	c7 44 24 1c 00 00 00 	movl   $0x0,0x1c(%esp)
    426d:	00 
    426e:	c7 44 24 18 00 00 00 	movl   $0x0,0x18(%esp)
    4275:	00 
    4276:	c7 44 24 14 00 00 00 	movl   $0x0,0x14(%esp)
    427d:	00 
    427e:	c7 44 24 10 00 00 00 	movl   $0x0,0x10(%esp)
    4285:	00 
    4286:	c7 44 24 0c 00 00 00 	movl   $0x0,0xc(%esp)
    428d:	00 
    428e:	c7 44 24 08 1b 00 00 	movl   $0x1b,0x8(%esp)
    4295:	00 
    4296:	c7 44 24 04 03 04 00 	movl   $0x403,0x4(%esp)
    429d:	00 
    429e:	89 04 24             	mov    %eax,(%esp)
    42a1:	89 c6                	mov    %eax,%esi
    42a3:	e8 b8 30 01 00       	call   17360 <async_req_fast>
    42a8:	85 c0                	test   %eax,%eax
    42aa:	75 14                	jne    42c0 <nic_vlan_get_mask+0x90>
    42ac:	c7 44 24 08 00 02 00 	movl   $0x200,0x8(%esp)
    42b3:	00 
    42b4:	89 7c 24 04          	mov    %edi,0x4(%esp)
    42b8:	89 34 24             	mov    %esi,(%esp)
    42bb:	e8 c0 4a 01 00       	call   18d80 <async_data_read_start>
    42c0:	89 34 24             	mov    %esi,(%esp)
    42c3:	89 45 f4             	mov    %eax,-0xc(%ebp)
    42c6:	e8 55 44 01 00       	call   18720 <async_exchange_end>
    42cb:	8b 45 f4             	mov    -0xc(%ebp),%eax
    42ce:	83 c4 40             	add    $0x40,%esp
    42d1:	5e                   	pop    %esi
    42d2:	5f                   	pop    %edi
    42d3:	5d                   	pop    %ebp
    42d4:	c3                   	ret    
    42d5:	c7 44 24 08 54 03 00 	movl   $0x354,0x8(%esp)
    42dc:	00 
    42dd:	c7 44 24 04 c0 22 02 	movl   $0x222c0,0x4(%esp)
    42e4:	00 
    42e5:	c7 04 24 f8 22 02 00 	movl   $0x222f8,(%esp)
    42ec:	e8 5f b3 01 00       	call   1f650 <assert_abort>
    42f1:	eb 0d                	jmp    4300 <nic_vlan_set_mask>
    42f3:	90                   	nop
    42f4:	90                   	nop
    42f5:	90                   	nop
    42f6:	90                   	nop
    42f7:	90                   	nop
    42f8:	90                   	nop
    42f9:	90                   	nop
    42fa:	90                   	nop
    42fb:	90                   	nop
    42fc:	90                   	nop
    42fd:	90                   	nop
    42fe:	90                   	nop
    42ff:	90                   	nop

00004300 <nic_vlan_set_mask>:
    4300:	55                   	push   %ebp
    4301:	89 e5                	mov    %esp,%ebp
    4303:	57                   	push   %edi
    4304:	56                   	push   %esi
    4305:	53                   	push   %ebx
    4306:	83 ec 4c             	sub    $0x4c,%esp
    4309:	8b 45 08             	mov    0x8(%ebp),%eax
    430c:	89 04 24             	mov    %eax,(%esp)
    430f:	e8 9c 40 01 00       	call   183b0 <async_exchange_begin>
    4314:	8b 4d 0c             	mov    0xc(%ebp),%ecx
    4317:	85 c9                	test   %ecx,%ecx
    4319:	89 c6                	mov    %eax,%esi
    431b:	0f 95 c3             	setne  %bl
    431e:	31 c0                	xor    %eax,%eax
    4320:	c7 44 24 18 00 00 00 	movl   $0x0,0x18(%esp)
    4327:	00 
    4328:	88 d8                	mov    %bl,%al
    432a:	c7 44 24 14 00 00 00 	movl   $0x0,0x14(%esp)
    4331:	00 
    4332:	c7 44 24 10 00 00 00 	movl   $0x0,0x10(%esp)
    4339:	00 
    433a:	89 44 24 0c          	mov    %eax,0xc(%esp)
    433e:	c7 44 24 08 1c 00 00 	movl   $0x1c,0x8(%esp)
    4345:	00 
    4346:	c7 44 24 04 03 04 00 	movl   $0x403,0x4(%esp)
    434d:	00 
    434e:	89 34 24             	mov    %esi,(%esp)
    4351:	e8 fa 29 01 00       	call   16d50 <async_send_fast>
    4356:	84 db                	test   %bl,%bl
    4358:	89 c7                	mov    %eax,%edi
    435a:	74 44                	je     43a0 <nic_vlan_set_mask+0xa0>
    435c:	8b 45 0c             	mov    0xc(%ebp),%eax
    435f:	c7 44 24 08 00 02 00 	movl   $0x200,0x8(%esp)
    4366:	00 
    4367:	89 44 24 04          	mov    %eax,0x4(%esp)
    436b:	89 34 24             	mov    %esi,(%esp)
    436e:	e8 2d 4f 01 00       	call   192a0 <async_data_write_start>
    4373:	89 34 24             	mov    %esi,(%esp)
    4376:	89 45 d4             	mov    %eax,-0x2c(%ebp)
    4379:	e8 a2 43 01 00       	call   18720 <async_exchange_end>
    437e:	8d 55 e4             	lea    -0x1c(%ebp),%edx
    4381:	89 3c 24             	mov    %edi,(%esp)
    4384:	89 54 24 04          	mov    %edx,0x4(%esp)
    4388:	e8 93 2b 01 00       	call   16f20 <async_wait_for>
    438d:	8b 45 d4             	mov    -0x2c(%ebp),%eax
    4390:	85 c0                	test   %eax,%eax
    4392:	74 23                	je     43b7 <nic_vlan_set_mask+0xb7>
    4394:	83 c4 4c             	add    $0x4c,%esp
    4397:	5b                   	pop    %ebx
    4398:	5e                   	pop    %esi
    4399:	5f                   	pop    %edi
    439a:	5d                   	pop    %ebp
    439b:	c3                   	ret    
    439c:	8d 74 26 00          	lea    0x0(%esi,%eiz,1),%esi
    43a0:	89 34 24             	mov    %esi,(%esp)
    43a3:	e8 78 43 01 00       	call   18720 <async_exchange_end>
    43a8:	8d 45 e4             	lea    -0x1c(%ebp),%eax
    43ab:	89 44 24 04          	mov    %eax,0x4(%esp)
    43af:	89 3c 24             	mov    %edi,(%esp)
    43b2:	e8 69 2b 01 00       	call   16f20 <async_wait_for>
    43b7:	8b 45 e4             	mov    -0x1c(%ebp),%eax
    43ba:	83 c4 4c             	add    $0x4c,%esp
    43bd:	5b                   	pop    %ebx
    43be:	5e                   	pop    %esi
    43bf:	5f                   	pop    %edi
    43c0:	5d                   	pop    %ebp
    43c1:	c3                   	ret    
    43c2:	8d b4 26 00 00 00 00 	lea    0x0(%esi,%eiz,1),%esi
    43c9:	8d bc 27 00 00 00 00 	lea    0x0(%edi,%eiz,1),%edi

000043d0 <nic_vlan_set_tag>:
    43d0:	55                   	push   %ebp
    43d1:	89 e5                	mov    %esp,%ebp
    43d3:	57                   	push   %edi
    43d4:	56                   	push   %esi
    43d5:	53                   	push   %ebx
    43d6:	83 ec 4c             	sub    $0x4c,%esp
    43d9:	8b 45 08             	mov    0x8(%ebp),%eax
    43dc:	8a 55 14             	mov    0x14(%ebp),%dl
    43df:	89 04 24             	mov    %eax,(%esp)
    43e2:	8b 75 0c             	mov    0xc(%ebp),%esi
    43e5:	0f b6 7d 10          	movzbl 0x10(%ebp),%edi
    43e9:	88 55 e4             	mov    %dl,-0x1c(%ebp)
    43ec:	e8 bf 3f 01 00       	call   183b0 <async_exchange_begin>
    43f1:	8a 55 e4             	mov    -0x1c(%ebp),%dl
    43f4:	81 e7 ff 00 00 00    	and    $0xff,%edi
    43fa:	81 e2 ff 00 00 00    	and    $0xff,%edx
    4400:	81 e6 ff ff 00 00    	and    $0xffff,%esi
    4406:	89 54 24 14          	mov    %edx,0x14(%esp)
    440a:	89 7c 24 10          	mov    %edi,0x10(%esp)
    440e:	89 74 24 0c          	mov    %esi,0xc(%esp)
    4412:	c7 44 24 28 00 00 00 	movl   $0x0,0x28(%esp)
    4419:	00 
    441a:	c7 44 24 24 00 00 00 	movl   $0x0,0x24(%esp)
    4421:	00 
    4422:	c7 44 24 20 00 00 00 	movl   $0x0,0x20(%esp)
    4429:	00 
    442a:	c7 44 24 1c 00 00 00 	movl   $0x0,0x1c(%esp)
    4431:	00 
    4432:	c7 44 24 18 00 00 00 	movl   $0x0,0x18(%esp)
    4439:	00 
    443a:	c7 44 24 08 1d 00 00 	movl   $0x1d,0x8(%esp)
    4441:	00 
    4442:	c7 44 24 04 03 04 00 	movl   $0x403,0x4(%esp)
    4449:	00 
    444a:	89 04 24             	mov    %eax,(%esp)
    444d:	89 c3                	mov    %eax,%ebx
    444f:	e8 0c 2f 01 00       	call   17360 <async_req_fast>
    4454:	89 1c 24             	mov    %ebx,(%esp)
    4457:	89 45 e4             	mov    %eax,-0x1c(%ebp)
    445a:	e8 c1 42 01 00       	call   18720 <async_exchange_end>
    445f:	8b 45 e4             	mov    -0x1c(%ebp),%eax
    4462:	83 c4 4c             	add    $0x4c,%esp
    4465:	5b                   	pop    %ebx
    4466:	5e                   	pop    %esi
    4467:	5f                   	pop    %edi
    4468:	5d                   	pop    %ebp
    4469:	c3                   	ret    
    446a:	8d b6 00 00 00 00    	lea    0x0(%esi),%esi

00004470 <nic_wol_virtue_add>:
    4470:	55                   	push   %ebp
    4471:	89 e5                	mov    %esp,%ebp
    4473:	57                   	push   %edi
    4474:	56                   	push   %esi
    4475:	53                   	push   %ebx
    4476:	83 ec 6c             	sub    $0x6c,%esp
    4479:	8b 7d 18             	mov    0x18(%ebp),%edi
    447c:	85 ff                	test   %edi,%edi
    447e:	0f 84 cb 00 00 00    	je     454f <nic_wol_virtue_add+0xdf>
    4484:	8b 5d 14             	mov    0x14(%ebp),%ebx
    4487:	8b 75 10             	mov    0x10(%ebp),%esi
    448a:	85 db                	test   %ebx,%ebx
    448c:	0f 95 c3             	setne  %bl
    448f:	85 f6                	test   %esi,%esi
    4491:	0f 95 c0             	setne  %al
    4494:	21 c3                	and    %eax,%ebx
    4496:	8b 45 08             	mov    0x8(%ebp),%eax
    4499:	89 04 24             	mov    %eax,(%esp)
    449c:	e8 0f 3f 01 00       	call   183b0 <async_exchange_begin>
    44a1:	c7 44 24 14 00 00 00 	movl   $0x0,0x14(%esp)
    44a8:	00 
    44a9:	89 c6                	mov    %eax,%esi
    44ab:	8d 45 c4             	lea    -0x3c(%ebp),%eax
    44ae:	89 44 24 18          	mov    %eax,0x18(%esp)
    44b2:	31 c0                	xor    %eax,%eax
    44b4:	88 d8                	mov    %bl,%al
    44b6:	c7 44 24 08 1e 00 00 	movl   $0x1e,0x8(%esp)
    44bd:	00 
    44be:	89 44 24 10          	mov    %eax,0x10(%esp)
    44c2:	8b 45 0c             	mov    0xc(%ebp),%eax
    44c5:	89 44 24 0c          	mov    %eax,0xc(%esp)
    44c9:	c7 44 24 04 03 04 00 	movl   $0x403,0x4(%esp)
    44d0:	00 
    44d1:	89 34 24             	mov    %esi,(%esp)
    44d4:	e8 77 28 01 00       	call   16d50 <async_send_fast>
    44d9:	84 db                	test   %bl,%bl
    44db:	89 c7                	mov    %eax,%edi
    44dd:	75 31                	jne    4510 <nic_wol_virtue_add+0xa0>
    44df:	89 34 24             	mov    %esi,(%esp)
    44e2:	e8 39 42 01 00       	call   18720 <async_exchange_end>
    44e7:	8d 45 c0             	lea    -0x40(%ebp),%eax
    44ea:	89 44 24 04          	mov    %eax,0x4(%esp)
    44ee:	89 3c 24             	mov    %edi,(%esp)
    44f1:	e8 2a 2a 01 00       	call   16f20 <async_wait_for>
    44f6:	8b 55 18             	mov    0x18(%ebp),%edx
    44f9:	8b 45 c8             	mov    -0x38(%ebp),%eax
    44fc:	89 02                	mov    %eax,(%edx)
    44fe:	8b 45 c0             	mov    -0x40(%ebp),%eax
    4501:	83 c4 6c             	add    $0x6c,%esp
    4504:	5b                   	pop    %ebx
    4505:	5e                   	pop    %esi
    4506:	5f                   	pop    %edi
    4507:	5d                   	pop    %ebp
    4508:	c3                   	ret    
    4509:	8d b4 26 00 00 00 00 	lea    0x0(%esi,%eiz,1),%esi
    4510:	8b 55 14             	mov    0x14(%ebp),%edx
    4513:	89 34 24             	mov    %esi,(%esp)
    4516:	89 54 24 08          	mov    %edx,0x8(%esp)
    451a:	8b 55 10             	mov    0x10(%ebp),%edx
    451d:	89 54 24 04          	mov    %edx,0x4(%esp)
    4521:	e8 7a 4d 01 00       	call   192a0 <async_data_write_start>
    4526:	85 c0                	test   %eax,%eax
    4528:	74 b5                	je     44df <nic_wol_virtue_add+0x6f>
    452a:	89 34 24             	mov    %esi,(%esp)
    452d:	89 45 b4             	mov    %eax,-0x4c(%ebp)
    4530:	e8 eb 41 01 00       	call   18720 <async_exchange_end>
    4535:	8d 55 c0             	lea    -0x40(%ebp),%edx
    4538:	89 3c 24             	mov    %edi,(%esp)
    453b:	89 54 24 04          	mov    %edx,0x4(%esp)
    453f:	e8 dc 29 01 00       	call   16f20 <async_wait_for>
    4544:	8b 45 b4             	mov    -0x4c(%ebp),%eax
    4547:	83 c4 6c             	add    $0x6c,%esp
    454a:	5b                   	pop    %ebx
    454b:	5e                   	pop    %esi
    454c:	5f                   	pop    %edi
    454d:	5d                   	pop    %ebp
    454e:	c3                   	ret    
    454f:	c7 44 24 08 af 03 00 	movl   $0x3af,0x8(%esp)
    4556:	00 
    4557:	c7 44 24 04 c0 22 02 	movl   $0x222c0,0x4(%esp)
    455e:	00 
    455f:	c7 04 24 0e 2f 02 00 	movl   $0x22f0e,(%esp)
    4566:	e8 e5 b0 01 00       	call   1f650 <assert_abort>
    456b:	90                   	nop
    456c:	8d 74 26 00          	lea    0x0(%esi,%eiz,1),%esi

00004570 <nic_wol_virtue_remove>:
    4570:	55                   	push   %ebp
    4571:	89 e5                	mov    %esp,%ebp
    4573:	53                   	push   %ebx
    4574:	83 ec 44             	sub    $0x44,%esp
    4577:	8b 45 08             	mov    0x8(%ebp),%eax
    457a:	89 04 24             	mov    %eax,(%esp)
    457d:	e8 2e 3e 01 00       	call   183b0 <async_exchange_begin>
    4582:	c7 44 24 28 00 00 00 	movl   $0x0,0x28(%esp)
    4589:	00 
    458a:	89 c3                	mov    %eax,%ebx
    458c:	8b 45 0c             	mov    0xc(%ebp),%eax
    458f:	89 1c 24             	mov    %ebx,(%esp)
    4592:	c7 44 24 24 00 00 00 	movl   $0x0,0x24(%esp)
    4599:	00 
    459a:	c7 44 24 20 00 00 00 	movl   $0x0,0x20(%esp)
    45a1:	00 
    45a2:	c7 44 24 1c 00 00 00 	movl   $0x0,0x1c(%esp)
    45a9:	00 
    45aa:	c7 44 24 18 00 00 00 	movl   $0x0,0x18(%esp)
    45b1:	00 
    45b2:	c7 44 24 14 00 00 00 	movl   $0x0,0x14(%esp)
    45b9:	00 
    45ba:	c7 44 24 10 00 00 00 	movl   $0x0,0x10(%esp)
    45c1:	00 
    45c2:	89 44 24 0c          	mov    %eax,0xc(%esp)
    45c6:	c7 44 24 08 1f 00 00 	movl   $0x1f,0x8(%esp)
    45cd:	00 
    45ce:	c7 44 24 04 03 04 00 	movl   $0x403,0x4(%esp)
    45d5:	00 
    45d6:	e8 85 2d 01 00       	call   17360 <async_req_fast>
    45db:	89 1c 24             	mov    %ebx,(%esp)
    45de:	89 45 f4             	mov    %eax,-0xc(%ebp)
    45e1:	e8 3a 41 01 00       	call   18720 <async_exchange_end>
    45e6:	8b 45 f4             	mov    -0xc(%ebp),%eax
    45e9:	83 c4 44             	add    $0x44,%esp
    45ec:	5b                   	pop    %ebx
    45ed:	5d                   	pop    %ebp
    45ee:	c3                   	ret    
    45ef:	90                   	nop

000045f0 <nic_wol_virtue_probe>:
    45f0:	55                   	push   %ebp
    45f1:	89 e5                	mov    %esp,%ebp
    45f3:	57                   	push   %edi
    45f4:	56                   	push   %esi
    45f5:	53                   	push   %ebx
    45f6:	83 ec 5c             	sub    $0x5c,%esp
    45f9:	8b 45 08             	mov    0x8(%ebp),%eax
    45fc:	8b 5d 18             	mov    0x18(%ebp),%ebx
    45ff:	89 04 24             	mov    %eax,(%esp)
    4602:	85 db                	test   %ebx,%ebx
    4604:	8b 7d 14             	mov    0x14(%ebp),%edi
    4607:	8b 75 10             	mov    0x10(%ebp),%esi
    460a:	0f 95 c3             	setne  %bl
    460d:	e8 9e 3d 01 00       	call   183b0 <async_exchange_begin>
    4612:	81 e3 ff 00 00 00    	and    $0xff,%ebx
    4618:	f7 db                	neg    %ebx
    461a:	21 fb                	and    %edi,%ebx
    461c:	89 c7                	mov    %eax,%edi
    461e:	8d 45 e4             	lea    -0x1c(%ebp),%eax
    4621:	c7 44 24 28 00 00 00 	movl   $0x0,0x28(%esp)
    4628:	00 
    4629:	89 44 24 1c          	mov    %eax,0x1c(%esp)
    462d:	8d 45 e0             	lea    -0x20(%ebp),%eax
    4630:	89 44 24 18          	mov    %eax,0x18(%esp)
    4634:	8b 45 0c             	mov    0xc(%ebp),%eax
    4637:	c7 44 24 24 00 00 00 	movl   $0x0,0x24(%esp)
    463e:	00 
    463f:	c7 44 24 20 00 00 00 	movl   $0x0,0x20(%esp)
    4646:	00 
    4647:	c7 44 24 14 00 00 00 	movl   $0x0,0x14(%esp)
    464e:	00 
    464f:	89 5c 24 10          	mov    %ebx,0x10(%esp)
    4653:	89 44 24 0c          	mov    %eax,0xc(%esp)
    4657:	c7 44 24 08 20 00 00 	movl   $0x20,0x8(%esp)
    465e:	00 
    465f:	c7 44 24 04 03 04 00 	movl   $0x403,0x4(%esp)
    4666:	00 
    4667:	89 3c 24             	mov    %edi,(%esp)
    466a:	e8 f1 2c 01 00       	call   17360 <async_req_fast>
    466f:	85 c0                	test   %eax,%eax
    4671:	75 23                	jne    4696 <nic_wol_virtue_probe+0xa6>
    4673:	85 f6                	test   %esi,%esi
    4675:	74 05                	je     467c <nic_wol_virtue_probe+0x8c>
    4677:	8b 55 e0             	mov    -0x20(%ebp),%edx
    467a:	89 16                	mov    %edx,(%esi)
    467c:	8b 4d 1c             	mov    0x1c(%ebp),%ecx
    467f:	85 c9                	test   %ecx,%ecx
    4681:	74 08                	je     468b <nic_wol_virtue_probe+0x9b>
    4683:	8b 55 1c             	mov    0x1c(%ebp),%edx
    4686:	8b 75 e4             	mov    -0x1c(%ebp),%esi
    4689:	89 32                	mov    %esi,(%edx)
    468b:	85 db                	test   %ebx,%ebx
    468d:	74 07                	je     4696 <nic_wol_virtue_probe+0xa6>
    468f:	8b 55 e4             	mov    -0x1c(%ebp),%edx
    4692:	85 d2                	test   %edx,%edx
    4694:	75 1a                	jne    46b0 <nic_wol_virtue_probe+0xc0>
    4696:	89 3c 24             	mov    %edi,(%esp)
    4699:	89 45 d4             	mov    %eax,-0x2c(%ebp)
    469c:	e8 7f 40 01 00       	call   18720 <async_exchange_end>
    46a1:	8b 45 d4             	mov    -0x2c(%ebp),%eax
    46a4:	83 c4 5c             	add    $0x5c,%esp
    46a7:	5b                   	pop    %ebx
    46a8:	5e                   	pop    %esi
    46a9:	5f                   	pop    %edi
    46aa:	5d                   	pop    %ebp
    46ab:	c3                   	ret    
    46ac:	8d 74 26 00          	lea    0x0(%esi,%eiz,1),%esi
    46b0:	8b 55 18             	mov    0x18(%ebp),%edx
    46b3:	89 5c 24 08          	mov    %ebx,0x8(%esp)
    46b7:	89 54 24 04          	mov    %edx,0x4(%esp)
    46bb:	89 3c 24             	mov    %edi,(%esp)
    46be:	e8 bd 46 01 00       	call   18d80 <async_data_read_start>
    46c3:	eb d1                	jmp    4696 <nic_wol_virtue_probe+0xa6>
    46c5:	8d 74 26 00          	lea    0x0(%esi,%eiz,1),%esi
    46c9:	8d bc 27 00 00 00 00 	lea    0x0(%edi,%eiz,1),%edi

000046d0 <nic_wol_virtue_list>:
    46d0:	55                   	push   %ebp
    46d1:	89 e5                	mov    %esp,%ebp
    46d3:	57                   	push   %edi
    46d4:	56                   	push   %esi
    46d5:	53                   	push   %ebx
    46d6:	83 ec 5c             	sub    $0x5c,%esp
    46d9:	8b 4d 14             	mov    0x14(%ebp),%ecx
    46dc:	8b 75 10             	mov    0x10(%ebp),%esi
    46df:	85 c9                	test   %ecx,%ecx
    46e1:	0f 84 a9 00 00 00    	je     4790 <nic_wol_virtue_list+0xc0>
    46e7:	85 f6                	test   %esi,%esi
    46e9:	0f 94 c3             	sete   %bl
    46ec:	8b 45 08             	mov    0x8(%ebp),%eax
    46ef:	89 04 24             	mov    %eax,(%esp)
    46f2:	e8 b9 3c 01 00       	call   183b0 <async_exchange_begin>
    46f7:	c7 44 24 28 00 00 00 	movl   $0x0,0x28(%esp)
    46fe:	00 
    46ff:	89 c7                	mov    %eax,%edi
    4701:	8d 45 e4             	lea    -0x1c(%ebp),%eax
    4704:	89 44 24 18          	mov    %eax,0x18(%esp)
    4708:	8b 45 0c             	mov    0xc(%ebp),%eax
    470b:	c7 44 24 24 00 00 00 	movl   $0x0,0x24(%esp)
    4712:	00 
    4713:	c7 44 24 20 00 00 00 	movl   $0x0,0x20(%esp)
    471a:	00 
    471b:	c7 44 24 1c 00 00 00 	movl   $0x0,0x1c(%esp)
    4722:	00 
    4723:	c7 44 24 14 00 00 00 	movl   $0x0,0x14(%esp)
    472a:	00 
    472b:	89 74 24 10          	mov    %esi,0x10(%esp)
    472f:	89 44 24 0c          	mov    %eax,0xc(%esp)
    4733:	c7 44 24 08 21 00 00 	movl   $0x21,0x8(%esp)
    473a:	00 
    473b:	c7 44 24 04 03 04 00 	movl   $0x403,0x4(%esp)
    4742:	00 
    4743:	89 3c 24             	mov    %edi,(%esp)
    4746:	e8 15 2c 01 00       	call   17360 <async_req_fast>
    474b:	8b 55 18             	mov    0x18(%ebp),%edx
    474e:	85 d2                	test   %edx,%edx
    4750:	74 08                	je     475a <nic_wol_virtue_list+0x8a>
    4752:	8b 55 18             	mov    0x18(%ebp),%edx
    4755:	8b 4d e4             	mov    -0x1c(%ebp),%ecx
    4758:	89 0a                	mov    %ecx,(%edx)
    475a:	85 c0                	test   %eax,%eax
    475c:	75 1a                	jne    4778 <nic_wol_virtue_list+0xa8>
    475e:	84 db                	test   %bl,%bl
    4760:	75 16                	jne    4778 <nic_wol_virtue_list+0xa8>
    4762:	c1 e6 02             	shl    $0x2,%esi
    4765:	8b 55 14             	mov    0x14(%ebp),%edx
    4768:	89 74 24 08          	mov    %esi,0x8(%esp)
    476c:	89 54 24 04          	mov    %edx,0x4(%esp)
    4770:	89 3c 24             	mov    %edi,(%esp)
    4773:	e8 08 46 01 00       	call   18d80 <async_data_read_start>
    4778:	89 3c 24             	mov    %edi,(%esp)
    477b:	89 45 d4             	mov    %eax,-0x2c(%ebp)
    477e:	e8 9d 3f 01 00       	call   18720 <async_exchange_end>
    4783:	8b 45 d4             	mov    -0x2c(%ebp),%eax
    4786:	83 c4 5c             	add    $0x5c,%esp
    4789:	5b                   	pop    %ebx
    478a:	5e                   	pop    %esi
    478b:	5f                   	pop    %edi
    478c:	5d                   	pop    %ebp
    478d:	c3                   	ret    
    478e:	66 90                	xchg   %ax,%ax
    4790:	b3 01                	mov    $0x1,%bl
    4792:	31 f6                	xor    %esi,%esi
    4794:	e9 53 ff ff ff       	jmp    46ec <nic_wol_virtue_list+0x1c>
    4799:	8d b4 26 00 00 00 00 	lea    0x0(%esi,%eiz,1),%esi

000047a0 <nic_wol_virtue_get_caps>:
    47a0:	55                   	push   %ebp
    47a1:	89 e5                	mov    %esp,%ebp
    47a3:	56                   	push   %esi
    47a4:	53                   	push   %ebx
    47a5:	83 ec 50             	sub    $0x50,%esp
    47a8:	8b 5d 10             	mov    0x10(%ebp),%ebx
    47ab:	85 db                	test   %ebx,%ebx
    47ad:	74 7d                	je     482c <nic_wol_virtue_get_caps+0x8c>
    47af:	8b 45 08             	mov    0x8(%ebp),%eax
    47b2:	89 04 24             	mov    %eax,(%esp)
    47b5:	e8 f6 3b 01 00       	call   183b0 <async_exchange_begin>
    47ba:	c7 44 24 28 00 00 00 	movl   $0x0,0x28(%esp)
    47c1:	00 
    47c2:	89 c6                	mov    %eax,%esi
    47c4:	8d 45 f4             	lea    -0xc(%ebp),%eax
    47c7:	89 44 24 18          	mov    %eax,0x18(%esp)
    47cb:	8b 45 0c             	mov    0xc(%ebp),%eax
    47ce:	89 34 24             	mov    %esi,(%esp)
    47d1:	c7 44 24 24 00 00 00 	movl   $0x0,0x24(%esp)
    47d8:	00 
    47d9:	c7 44 24 20 00 00 00 	movl   $0x0,0x20(%esp)
    47e0:	00 
    47e1:	c7 44 24 1c 00 00 00 	movl   $0x0,0x1c(%esp)
    47e8:	00 
    47e9:	c7 44 24 14 00 00 00 	movl   $0x0,0x14(%esp)
    47f0:	00 
    47f1:	c7 44 24 10 00 00 00 	movl   $0x0,0x10(%esp)
    47f8:	00 
    47f9:	89 44 24 0c          	mov    %eax,0xc(%esp)
    47fd:	c7 44 24 08 22 00 00 	movl   $0x22,0x8(%esp)
    4804:	00 
    4805:	c7 44 24 04 03 04 00 	movl   $0x403,0x4(%esp)
    480c:	00 
    480d:	e8 4e 2b 01 00       	call   17360 <async_req_fast>
    4812:	89 34 24             	mov    %esi,(%esp)
    4815:	89 45 e4             	mov    %eax,-0x1c(%ebp)
    4818:	e8 03 3f 01 00       	call   18720 <async_exchange_end>
    481d:	8b 55 f4             	mov    -0xc(%ebp),%edx
    4820:	8b 45 e4             	mov    -0x1c(%ebp),%eax
    4823:	89 13                	mov    %edx,(%ebx)
    4825:	83 c4 50             	add    $0x50,%esp
    4828:	5b                   	pop    %ebx
    4829:	5e                   	pop    %esi
    482a:	5d                   	pop    %ebp
    482b:	c3                   	ret    
    482c:	c7 44 24 08 45 04 00 	movl   $0x445,0x8(%esp)
    4833:	00 
    4834:	c7 44 24 04 c0 22 02 	movl   $0x222c0,0x4(%esp)
    483b:	00 
    483c:	c7 04 24 fd 22 02 00 	movl   $0x222fd,(%esp)
    4843:	e8 08 ae 01 00       	call   1f650 <assert_abort>
    4848:	90                   	nop
    4849:	8d b4 26 00 00 00 00 	lea    0x0(%esi,%eiz,1),%esi

00004850 <nic_wol_load_info>:
    4850:	55                   	push   %ebp
    4851:	89 e5                	mov    %esp,%ebp
    4853:	57                   	push   %edi
    4854:	56                   	push   %esi
    4855:	53                   	push   %ebx
    4856:	83 ec 5c             	sub    $0x5c,%esp
    4859:	8b 75 0c             	mov    0xc(%ebp),%esi
    485c:	8b 5d 10             	mov    0x10(%ebp),%ebx
    485f:	85 f6                	test   %esi,%esi
    4861:	0f 84 be 00 00 00    	je     4925 <nic_wol_load_info+0xd5>
    4867:	8b 4d 14             	mov    0x14(%ebp),%ecx
    486a:	85 c9                	test   %ecx,%ecx
    486c:	0f 95 c0             	setne  %al
    486f:	25 ff 00 00 00       	and    $0xff,%eax
    4874:	f7 d8                	neg    %eax
    4876:	21 c3                	and    %eax,%ebx
    4878:	8b 45 08             	mov    0x8(%ebp),%eax
    487b:	89 04 24             	mov    %eax,(%esp)
    487e:	e8 2d 3b 01 00       	call   183b0 <async_exchange_begin>
    4883:	c7 44 24 28 00 00 00 	movl   $0x0,0x28(%esp)
    488a:	00 
    488b:	89 c7                	mov    %eax,%edi
    488d:	8d 45 e4             	lea    -0x1c(%ebp),%eax
    4890:	89 44 24 1c          	mov    %eax,0x1c(%esp)
    4894:	8d 45 e0             	lea    -0x20(%ebp),%eax
    4897:	c7 44 24 24 00 00 00 	movl   $0x0,0x24(%esp)
    489e:	00 
    489f:	c7 44 24 20 00 00 00 	movl   $0x0,0x20(%esp)
    48a6:	00 
    48a7:	89 44 24 18          	mov    %eax,0x18(%esp)
    48ab:	c7 44 24 14 00 00 00 	movl   $0x0,0x14(%esp)
    48b2:	00 
    48b3:	c7 44 24 10 00 00 00 	movl   $0x0,0x10(%esp)
    48ba:	00 
    48bb:	89 5c 24 0c          	mov    %ebx,0xc(%esp)
    48bf:	c7 44 24 08 23 00 00 	movl   $0x23,0x8(%esp)
    48c6:	00 
    48c7:	c7 44 24 04 03 04 00 	movl   $0x403,0x4(%esp)
    48ce:	00 
    48cf:	89 3c 24             	mov    %edi,(%esp)
    48d2:	e8 89 2a 01 00       	call   17360 <async_req_fast>
    48d7:	85 c0                	test   %eax,%eax
    48d9:	75 1f                	jne    48fa <nic_wol_load_info+0xaa>
    48db:	8b 4d e0             	mov    -0x20(%ebp),%ecx
    48de:	8b 55 18             	mov    0x18(%ebp),%edx
    48e1:	89 0e                	mov    %ecx,(%esi)
    48e3:	85 d2                	test   %edx,%edx
    48e5:	74 08                	je     48ef <nic_wol_load_info+0x9f>
    48e7:	8b 55 18             	mov    0x18(%ebp),%edx
    48ea:	8b 4d e4             	mov    -0x1c(%ebp),%ecx
    48ed:	89 0a                	mov    %ecx,(%edx)
    48ef:	85 db                	test   %ebx,%ebx
    48f1:	74 07                	je     48fa <nic_wol_load_info+0xaa>
    48f3:	8b 75 e4             	mov    -0x1c(%ebp),%esi
    48f6:	85 f6                	test   %esi,%esi
    48f8:	75 16                	jne    4910 <nic_wol_load_info+0xc0>
    48fa:	89 3c 24             	mov    %edi,(%esp)
    48fd:	89 45 d4             	mov    %eax,-0x2c(%ebp)
    4900:	e8 1b 3e 01 00       	call   18720 <async_exchange_end>
    4905:	8b 45 d4             	mov    -0x2c(%ebp),%eax
    4908:	83 c4 5c             	add    $0x5c,%esp
    490b:	5b                   	pop    %ebx
    490c:	5e                   	pop    %esi
    490d:	5f                   	pop    %edi
    490e:	5d                   	pop    %ebp
    490f:	c3                   	ret    
    4910:	8b 55 14             	mov    0x14(%ebp),%edx
    4913:	89 5c 24 08          	mov    %ebx,0x8(%esp)
    4917:	89 54 24 04          	mov    %edx,0x4(%esp)
    491b:	89 3c 24             	mov    %edi,(%esp)
    491e:	e8 5d 44 01 00       	call   18d80 <async_data_read_start>
    4923:	eb d5                	jmp    48fa <nic_wol_load_info+0xaa>
    4925:	c7 44 24 08 6b 04 00 	movl   $0x46b,0x8(%esp)
    492c:	00 
    492d:	c7 44 24 04 c0 22 02 	movl   $0x222c0,0x4(%esp)
    4934:	00 
    4935:	c7 04 24 03 23 02 00 	movl   $0x22303,(%esp)
    493c:	e8 0f ad 01 00       	call   1f650 <assert_abort>
    4941:	eb 0d                	jmp    4950 <nic_offload_probe>
    4943:	90                   	nop
    4944:	90                   	nop
    4945:	90                   	nop
    4946:	90                   	nop
    4947:	90                   	nop
    4948:	90                   	nop
    4949:	90                   	nop
    494a:	90                   	nop
    494b:	90                   	nop
    494c:	90                   	nop
    494d:	90                   	nop
    494e:	90                   	nop
    494f:	90                   	nop

00004950 <nic_offload_probe>:
    4950:	55                   	push   %ebp
    4951:	89 e5                	mov    %esp,%ebp
    4953:	57                   	push   %edi
    4954:	56                   	push   %esi
    4955:	53                   	push   %ebx
    4956:	83 ec 5c             	sub    $0x5c,%esp
    4959:	8b 5d 0c             	mov    0xc(%ebp),%ebx
    495c:	8b 75 10             	mov    0x10(%ebp),%esi
    495f:	85 db                	test   %ebx,%ebx
    4961:	0f 84 8b 00 00 00    	je     49f2 <nic_offload_probe+0xa2>
    4967:	85 f6                	test   %esi,%esi
    4969:	0f 84 9f 00 00 00    	je     4a0e <nic_offload_probe+0xbe>
    496f:	8b 45 08             	mov    0x8(%ebp),%eax
    4972:	89 04 24             	mov    %eax,(%esp)
    4975:	e8 36 3a 01 00       	call   183b0 <async_exchange_begin>
    497a:	c7 44 24 28 00 00 00 	movl   $0x0,0x28(%esp)
    4981:	00 
    4982:	89 c7                	mov    %eax,%edi
    4984:	8d 45 e4             	lea    -0x1c(%ebp),%eax
    4987:	89 44 24 1c          	mov    %eax,0x1c(%esp)
    498b:	8d 45 e0             	lea    -0x20(%ebp),%eax
    498e:	89 3c 24             	mov    %edi,(%esp)
    4991:	c7 44 24 24 00 00 00 	movl   $0x0,0x24(%esp)
    4998:	00 
    4999:	c7 44 24 20 00 00 00 	movl   $0x0,0x20(%esp)
    49a0:	00 
    49a1:	89 44 24 18          	mov    %eax,0x18(%esp)
    49a5:	c7 44 24 14 00 00 00 	movl   $0x0,0x14(%esp)
    49ac:	00 
    49ad:	c7 44 24 10 00 00 00 	movl   $0x0,0x10(%esp)
    49b4:	00 
    49b5:	c7 44 24 0c 00 00 00 	movl   $0x0,0xc(%esp)
    49bc:	00 
    49bd:	c7 44 24 08 24 00 00 	movl   $0x24,0x8(%esp)
    49c4:	00 
    49c5:	c7 44 24 04 03 04 00 	movl   $0x403,0x4(%esp)
    49cc:	00 
    49cd:	e8 8e 29 01 00       	call   17360 <async_req_fast>
    49d2:	89 3c 24             	mov    %edi,(%esp)
    49d5:	89 45 d4             	mov    %eax,-0x2c(%ebp)
    49d8:	e8 43 3d 01 00       	call   18720 <async_exchange_end>
    49dd:	8b 55 e0             	mov    -0x20(%ebp),%edx
    49e0:	8b 45 d4             	mov    -0x2c(%ebp),%eax
    49e3:	89 13                	mov    %edx,(%ebx)
    49e5:	8b 55 e4             	mov    -0x1c(%ebp),%edx
    49e8:	89 16                	mov    %edx,(%esi)
    49ea:	83 c4 5c             	add    $0x5c,%esp
    49ed:	5b                   	pop    %ebx
    49ee:	5e                   	pop    %esi
    49ef:	5f                   	pop    %edi
    49f0:	5d                   	pop    %ebp
    49f1:	c3                   	ret    
    49f2:	c7 44 24 08 93 04 00 	movl   $0x493,0x8(%esp)
    49f9:	00 
    49fa:	c7 44 24 04 c0 22 02 	movl   $0x222c0,0x4(%esp)
    4a01:	00 
    4a02:	c7 04 24 10 23 02 00 	movl   $0x22310,(%esp)
    4a09:	e8 42 ac 01 00       	call   1f650 <assert_abort>
    4a0e:	c7 44 24 08 94 04 00 	movl   $0x494,0x8(%esp)
    4a15:	00 
    4a16:	c7 44 24 04 c0 22 02 	movl   $0x222c0,0x4(%esp)
    4a1d:	00 
    4a1e:	c7 04 24 c8 2e 02 00 	movl   $0x22ec8,(%esp)
    4a25:	e8 26 ac 01 00       	call   1f650 <assert_abort>
    4a2a:	8d b6 00 00 00 00    	lea    0x0(%esi),%esi

00004a30 <nic_offload_set>:
    4a30:	55                   	push   %ebp
    4a31:	89 e5                	mov    %esp,%ebp
    4a33:	53                   	push   %ebx
    4a34:	83 ec 44             	sub    $0x44,%esp
    4a37:	8b 45 08             	mov    0x8(%ebp),%eax
    4a3a:	89 04 24             	mov    %eax,(%esp)
    4a3d:	e8 6e 39 01 00       	call   183b0 <async_exchange_begin>
    4a42:	c7 44 24 28 00 00 00 	movl   $0x0,0x28(%esp)
    4a49:	00 
    4a4a:	89 c3                	mov    %eax,%ebx
    4a4c:	8b 45 10             	mov    0x10(%ebp),%eax
    4a4f:	89 44 24 10          	mov    %eax,0x10(%esp)
    4a53:	8b 45 0c             	mov    0xc(%ebp),%eax
    4a56:	89 1c 24             	mov    %ebx,(%esp)
    4a59:	c7 44 24 24 00 00 00 	movl   $0x0,0x24(%esp)
    4a60:	00 
    4a61:	c7 44 24 20 00 00 00 	movl   $0x0,0x20(%esp)
    4a68:	00 
    4a69:	c7 44 24 1c 00 00 00 	movl   $0x0,0x1c(%esp)
    4a70:	00 
    4a71:	c7 44 24 18 00 00 00 	movl   $0x0,0x18(%esp)
    4a78:	00 
    4a79:	c7 44 24 14 00 00 00 	movl   $0x0,0x14(%esp)
    4a80:	00 
    4a81:	89 44 24 0c          	mov    %eax,0xc(%esp)
    4a85:	c7 44 24 08 0e 00 00 	movl   $0xe,0x8(%esp)
    4a8c:	00 
    4a8d:	c7 44 24 04 03 04 00 	movl   $0x403,0x4(%esp)
    4a94:	00 
    4a95:	e8 c6 28 01 00       	call   17360 <async_req_fast>
    4a9a:	89 1c 24             	mov    %ebx,(%esp)
    4a9d:	89 45 f4             	mov    %eax,-0xc(%ebp)
    4aa0:	e8 7b 3c 01 00       	call   18720 <async_exchange_end>
    4aa5:	8b 45 f4             	mov    -0xc(%ebp),%eax
    4aa8:	83 c4 44             	add    $0x44,%esp
    4aab:	5b                   	pop    %ebx
    4aac:	5d                   	pop    %ebp
    4aad:	c3                   	ret    
    4aae:	66 90                	xchg   %ax,%ax

00004ab0 <nic_poll_get_mode>:
    4ab0:	55                   	push   %ebp
    4ab1:	89 e5                	mov    %esp,%ebp
    4ab3:	57                   	push   %edi
    4ab4:	56                   	push   %esi
    4ab5:	53                   	push   %ebx
    4ab6:	83 ec 5c             	sub    $0x5c,%esp
    4ab9:	8b 75 0c             	mov    0xc(%ebp),%esi
    4abc:	85 f6                	test   %esi,%esi
    4abe:	0f 84 a6 00 00 00    	je     4b6a <nic_poll_get_mode+0xba>
    4ac4:	8b 45 08             	mov    0x8(%ebp),%eax
    4ac7:	89 04 24             	mov    %eax,(%esp)
    4aca:	e8 e1 38 01 00       	call   183b0 <async_exchange_begin>
    4acf:	8b 5d 10             	mov    0x10(%ebp),%ebx
    4ad2:	89 c7                	mov    %eax,%edi
    4ad4:	8d 45 e4             	lea    -0x1c(%ebp),%eax
    4ad7:	85 db                	test   %ebx,%ebx
    4ad9:	89 44 24 18          	mov    %eax,0x18(%esp)
    4add:	0f 95 c3             	setne  %bl
    4ae0:	31 c0                	xor    %eax,%eax
    4ae2:	c7 44 24 28 00 00 00 	movl   $0x0,0x28(%esp)
    4ae9:	00 
    4aea:	88 d8                	mov    %bl,%al
    4aec:	c7 44 24 24 00 00 00 	movl   $0x0,0x24(%esp)
    4af3:	00 
    4af4:	c7 44 24 20 00 00 00 	movl   $0x0,0x20(%esp)
    4afb:	00 
    4afc:	c7 44 24 1c 00 00 00 	movl   $0x0,0x1c(%esp)
    4b03:	00 
    4b04:	c7 44 24 14 00 00 00 	movl   $0x0,0x14(%esp)
    4b0b:	00 
    4b0c:	c7 44 24 10 00 00 00 	movl   $0x0,0x10(%esp)
    4b13:	00 
    4b14:	89 44 24 0c          	mov    %eax,0xc(%esp)
    4b18:	c7 44 24 08 26 00 00 	movl   $0x26,0x8(%esp)
    4b1f:	00 
    4b20:	c7 44 24 04 03 04 00 	movl   $0x403,0x4(%esp)
    4b27:	00 
    4b28:	89 3c 24             	mov    %edi,(%esp)
    4b2b:	e8 30 28 01 00       	call   17360 <async_req_fast>
    4b30:	85 c0                	test   %eax,%eax
    4b32:	75 20                	jne    4b54 <nic_poll_get_mode+0xa4>
    4b34:	8b 55 e4             	mov    -0x1c(%ebp),%edx
    4b37:	84 db                	test   %bl,%bl
    4b39:	89 16                	mov    %edx,(%esi)
    4b3b:	74 17                	je     4b54 <nic_poll_get_mode+0xa4>
    4b3d:	8b 45 10             	mov    0x10(%ebp),%eax
    4b40:	c7 44 24 08 08 00 00 	movl   $0x8,0x8(%esp)
    4b47:	00 
    4b48:	89 44 24 04          	mov    %eax,0x4(%esp)
    4b4c:	89 3c 24             	mov    %edi,(%esp)
    4b4f:	e8 2c 42 01 00       	call   18d80 <async_data_read_start>
    4b54:	89 3c 24             	mov    %edi,(%esp)
    4b57:	89 45 d4             	mov    %eax,-0x2c(%ebp)
    4b5a:	e8 c1 3b 01 00       	call   18720 <async_exchange_end>
    4b5f:	8b 45 d4             	mov    -0x2c(%ebp),%eax
    4b62:	83 c4 5c             	add    $0x5c,%esp
    4b65:	5b                   	pop    %ebx
    4b66:	5e                   	pop    %esi
    4b67:	5f                   	pop    %edi
    4b68:	5d                   	pop    %ebp
    4b69:	c3                   	ret    
    4b6a:	c7 44 24 08 c3 04 00 	movl   $0x4c3,0x8(%esp)
    4b71:	00 
    4b72:	c7 44 24 04 c0 22 02 	movl   $0x222c0,0x4(%esp)
    4b79:	00 
    4b7a:	c7 04 24 f3 22 02 00 	movl   $0x222f3,(%esp)
    4b81:	e8 ca aa 01 00       	call   1f650 <assert_abort>
    4b86:	8d 76 00             	lea    0x0(%esi),%esi
    4b89:	8d bc 27 00 00 00 00 	lea    0x0(%edi,%eiz,1),%edi

00004b90 <nic_poll_set_mode>:
    4b90:	55                   	push   %ebp
    4b91:	89 e5                	mov    %esp,%ebp
    4b93:	57                   	push   %edi
    4b94:	56                   	push   %esi
    4b95:	53                   	push   %ebx
    4b96:	83 ec 4c             	sub    $0x4c,%esp
    4b99:	8b 45 08             	mov    0x8(%ebp),%eax
    4b9c:	89 04 24             	mov    %eax,(%esp)
    4b9f:	e8 0c 38 01 00       	call   183b0 <async_exchange_begin>
    4ba4:	8b 7d 10             	mov    0x10(%ebp),%edi
    4ba7:	85 ff                	test   %edi,%edi
    4ba9:	89 c6                	mov    %eax,%esi
    4bab:	0f 95 c3             	setne  %bl
    4bae:	31 c0                	xor    %eax,%eax
    4bb0:	c7 44 24 18 00 00 00 	movl   $0x0,0x18(%esp)
    4bb7:	00 
    4bb8:	88 d8                	mov    %bl,%al
    4bba:	c7 44 24 14 00 00 00 	movl   $0x0,0x14(%esp)
    4bc1:	00 
    4bc2:	89 44 24 10          	mov    %eax,0x10(%esp)
    4bc6:	8b 45 0c             	mov    0xc(%ebp),%eax
    4bc9:	89 44 24 0c          	mov    %eax,0xc(%esp)
    4bcd:	c7 44 24 08 27 00 00 	movl   $0x27,0x8(%esp)
    4bd4:	00 
    4bd5:	c7 44 24 04 03 04 00 	movl   $0x403,0x4(%esp)
    4bdc:	00 
    4bdd:	89 34 24             	mov    %esi,(%esp)
    4be0:	e8 6b 21 01 00       	call   16d50 <async_send_fast>
    4be5:	84 db                	test   %bl,%bl
    4be7:	89 c7                	mov    %eax,%edi
    4be9:	74 45                	je     4c30 <nic_poll_set_mode+0xa0>
    4beb:	8b 45 10             	mov    0x10(%ebp),%eax
    4bee:	c7 44 24 08 08 00 00 	movl   $0x8,0x8(%esp)
    4bf5:	00 
    4bf6:	89 44 24 04          	mov    %eax,0x4(%esp)
    4bfa:	89 34 24             	mov    %esi,(%esp)
    4bfd:	e8 9e 46 01 00       	call   192a0 <async_data_write_start>
    4c02:	89 34 24             	mov    %esi,(%esp)
    4c05:	89 45 d4             	mov    %eax,-0x2c(%ebp)
    4c08:	e8 13 3b 01 00       	call   18720 <async_exchange_end>
    4c0d:	8d 55 e4             	lea    -0x1c(%ebp),%edx
    4c10:	89 3c 24             	mov    %edi,(%esp)
    4c13:	89 54 24 04          	mov    %edx,0x4(%esp)
    4c17:	e8 04 23 01 00       	call   16f20 <async_wait_for>
    4c1c:	8b 45 d4             	mov    -0x2c(%ebp),%eax
    4c1f:	85 c0                	test   %eax,%eax
    4c21:	74 24                	je     4c47 <nic_poll_set_mode+0xb7>
    4c23:	83 c4 4c             	add    $0x4c,%esp
    4c26:	5b                   	pop    %ebx
    4c27:	5e                   	pop    %esi
    4c28:	5f                   	pop    %edi
    4c29:	5d                   	pop    %ebp
    4c2a:	c3                   	ret    
    4c2b:	90                   	nop
    4c2c:	8d 74 26 00          	lea    0x0(%esi,%eiz,1),%esi
    4c30:	89 34 24             	mov    %esi,(%esp)
    4c33:	e8 e8 3a 01 00       	call   18720 <async_exchange_end>
    4c38:	8d 45 e4             	lea    -0x1c(%ebp),%eax
    4c3b:	89 44 24 04          	mov    %eax,0x4(%esp)
    4c3f:	89 3c 24             	mov    %edi,(%esp)
    4c42:	e8 d9 22 01 00       	call   16f20 <async_wait_for>
    4c47:	8b 45 e4             	mov    -0x1c(%ebp),%eax
    4c4a:	83 c4 4c             	add    $0x4c,%esp
    4c4d:	5b                   	pop    %ebx
    4c4e:	5e                   	pop    %esi
    4c4f:	5f                   	pop    %edi
    4c50:	5d                   	pop    %ebp
    4c51:	c3                   	ret    
    4c52:	8d b4 26 00 00 00 00 	lea    0x0(%esi,%eiz,1),%esi
    4c59:	8d bc 27 00 00 00 00 	lea    0x0(%edi,%eiz,1),%edi

00004c60 <nic_poll_now>:
    4c60:	55                   	push   %ebp
    4c61:	89 e5                	mov    %esp,%ebp
    4c63:	53                   	push   %ebx
    4c64:	83 ec 44             	sub    $0x44,%esp
    4c67:	8b 45 08             	mov    0x8(%ebp),%eax
    4c6a:	89 04 24             	mov    %eax,(%esp)
    4c6d:	e8 3e 37 01 00       	call   183b0 <async_exchange_begin>
    4c72:	c7 44 24 28 00 00 00 	movl   $0x0,0x28(%esp)
    4c79:	00 
    4c7a:	c7 44 24 24 00 00 00 	movl   $0x0,0x24(%esp)
    4c81:	00 
    4c82:	c7 44 24 20 00 00 00 	movl   $0x0,0x20(%esp)
    4c89:	00 
    4c8a:	c7 44 24 1c 00 00 00 	movl   $0x0,0x1c(%esp)
    4c91:	00 
    4c92:	c7 44 24 18 00 00 00 	movl   $0x0,0x18(%esp)
    4c99:	00 
    4c9a:	c7 44 24 14 00 00 00 	movl   $0x0,0x14(%esp)
    4ca1:	00 
    4ca2:	c7 44 24 10 00 00 00 	movl   $0x0,0x10(%esp)
    4ca9:	00 
    4caa:	c7 44 24 0c 00 00 00 	movl   $0x0,0xc(%esp)
    4cb1:	00 
    4cb2:	c7 44 24 08 28 00 00 	movl   $0x28,0x8(%esp)
    4cb9:	00 
    4cba:	c7 44 24 04 03 04 00 	movl   $0x403,0x4(%esp)
    4cc1:	00 
    4cc2:	89 04 24             	mov    %eax,(%esp)
    4cc5:	89 c3                	mov    %eax,%ebx
    4cc7:	e8 94 26 01 00       	call   17360 <async_req_fast>
    4ccc:	89 1c 24             	mov    %ebx,(%esp)
    4ccf:	89 45 f4             	mov    %eax,-0xc(%ebp)
    4cd2:	e8 49 3a 01 00       	call   18720 <async_exchange_end>
    4cd7:	8b 45 f4             	mov    -0xc(%ebp),%eax
    4cda:	83 c4 44             	add    $0x44,%esp
    4cdd:	5b                   	pop    %ebx
    4cde:	5d                   	pop    %ebp
    4cdf:	c3                   	ret    

00004ce0 <loc_cb_conn>:
    4ce0:	55                   	push   %ebp
    4ce1:	89 e5                	mov    %esp,%ebp
    4ce3:	56                   	push   %esi
    4ce4:	53                   	push   %ebx
    4ce5:	83 ec 50             	sub    $0x50,%esp
    4ce8:	8d 5d d4             	lea    -0x2c(%ebp),%ebx
    4ceb:	90                   	nop
    4cec:	8d 74 26 00          	lea    0x0(%esi,%eiz,1),%esi
    4cf0:	c7 44 24 04 00 00 00 	movl   $0x0,0x4(%esp)
    4cf7:	00 
    4cf8:	89 1c 24             	mov    %ebx,(%esp)
    4cfb:	e8 80 16 01 00       	call   16380 <async_get_call_timeout>
    4d00:	8b 55 d4             	mov    -0x2c(%ebp),%edx
    4d03:	85 d2                	test   %edx,%edx
    4d05:	74 61                	je     4d68 <loc_cb_conn+0x88>
    4d07:	81 fa 00 04 00 00    	cmp    $0x400,%edx
    4d0d:	74 19                	je     4d28 <loc_cb_conn+0x48>
    4d0f:	c7 44 24 04 f5 ff ff 	movl   $0xfffffff5,0x4(%esp)
    4d16:	ff 
    4d17:	89 04 24             	mov    %eax,(%esp)
    4d1a:	e8 91 2c 01 00       	call   179b0 <async_answer_0>
    4d1f:	eb cf                	jmp    4cf0 <loc_cb_conn+0x10>
    4d21:	8d b4 26 00 00 00 00 	lea    0x0(%esi,%eiz,1),%esi
    4d28:	c7 04 24 30 4d 02 00 	movl   $0x24d30,(%esp)
    4d2f:	89 45 c4             	mov    %eax,-0x3c(%ebp)
    4d32:	e8 c9 6a 00 00       	call   b800 <fibril_mutex_lock>
    4d37:	c7 04 24 30 4d 02 00 	movl   $0x24d30,(%esp)
    4d3e:	8b 35 08 4f 02 00    	mov    0x24f08,%esi
    4d44:	e8 d7 6b 00 00       	call   b920 <fibril_mutex_unlock>
    4d49:	8b 45 c4             	mov    -0x3c(%ebp),%eax
    4d4c:	c7 44 24 04 00 00 00 	movl   $0x0,0x4(%esp)
    4d53:	00 
    4d54:	89 04 24             	mov    %eax,(%esp)
    4d57:	e8 54 2c 01 00       	call   179b0 <async_answer_0>
    4d5c:	85 f6                	test   %esi,%esi
    4d5e:	74 90                	je     4cf0 <loc_cb_conn+0x10>
    4d60:	ff d6                	call   *%esi
    4d62:	eb 8c                	jmp    4cf0 <loc_cb_conn+0x10>
    4d64:	8d 74 26 00          	lea    0x0(%esi,%eiz,1),%esi
    4d68:	83 c4 50             	add    $0x50,%esp
    4d6b:	5b                   	pop    %ebx
    4d6c:	5e                   	pop    %esi
    4d6d:	5d                   	pop    %ebp
    4d6e:	c3                   	ret    
    4d6f:	90                   	nop

00004d70 <loc_exchange_begin.part.0>:
    4d70:	55                   	push   %ebp
    4d71:	89 e5                	mov    %esp,%ebp
    4d73:	83 ec 18             	sub    $0x18,%esp
    4d76:	c7 04 24 00 4d 02 00 	movl   $0x24d00,(%esp)
    4d7d:	e8 7e 6a 00 00       	call   b800 <fibril_mutex_lock>
    4d82:	a1 f8 4e 02 00       	mov    0x24ef8,%eax
    4d87:	85 c0                	test   %eax,%eax
    4d89:	74 25                	je     4db0 <loc_exchange_begin.part.0+0x40>
    4d8b:	c7 04 24 00 4d 02 00 	movl   $0x24d00,(%esp)
    4d92:	e8 89 6b 00 00       	call   b920 <fibril_mutex_unlock>
    4d97:	a1 f8 4e 02 00       	mov    0x24ef8,%eax
    4d9c:	85 c0                	test   %eax,%eax
    4d9e:	74 40                	je     4de0 <loc_exchange_begin.part.0+0x70>
    4da0:	89 04 24             	mov    %eax,(%esp)
    4da3:	e8 08 36 01 00       	call   183b0 <async_exchange_begin>
    4da8:	c9                   	leave  
    4da9:	c3                   	ret    
    4daa:	8d b6 00 00 00 00    	lea    0x0(%esi),%esi
    4db0:	c7 44 24 0c 00 00 00 	movl   $0x0,0xc(%esp)
    4db7:	00 
    4db8:	c7 44 24 08 01 00 00 	movl   $0x1,0x8(%esp)
    4dbf:	00 
    4dc0:	c7 44 24 04 6c 6f 63 	movl   $0x20636f6c,0x4(%esp)
    4dc7:	20 
    4dc8:	c7 04 24 02 00 00 00 	movl   $0x2,(%esp)
    4dcf:	e8 ac 08 01 00       	call   15680 <service_connect>
    4dd4:	a3 f8 4e 02 00       	mov    %eax,0x24ef8
    4dd9:	eb b0                	jmp    4d8b <loc_exchange_begin.part.0+0x1b>
    4ddb:	90                   	nop
    4ddc:	8d 74 26 00          	lea    0x0(%esi,%eiz,1),%esi
    4de0:	31 c0                	xor    %eax,%eax
    4de2:	c9                   	leave  
    4de3:	c3                   	ret    
    4de4:	8d b6 00 00 00 00    	lea    0x0(%esi),%esi
    4dea:	8d bf 00 00 00 00    	lea    0x0(%edi),%edi

00004df0 <loc_get_name_internal>:
    4df0:	55                   	push   %ebp
    4df1:	89 e5                	mov    %esp,%ebp
    4df3:	57                   	push   %edi
    4df4:	56                   	push   %esi
    4df5:	53                   	push   %ebx
    4df6:	81 ec 8c 01 00 00    	sub    $0x18c,%esp
    4dfc:	c7 01 00 00 00 00    	movl   $0x0,(%ecx)
    4e02:	89 85 94 fe ff ff    	mov    %eax,-0x16c(%ebp)
    4e08:	89 d7                	mov    %edx,%edi
    4e0a:	c7 04 24 10 4d 02 00 	movl   $0x24d10,(%esp)
    4e11:	89 ce                	mov    %ecx,%esi
    4e13:	e8 e8 69 00 00       	call   b800 <fibril_mutex_lock>
    4e18:	a1 04 4f 02 00       	mov    0x24f04,%eax
    4e1d:	85 c0                	test   %eax,%eax
    4e1f:	75 39                	jne    4e5a <loc_get_name_internal+0x6a>
    4e21:	c7 04 24 20 4d 02 00 	movl   $0x24d20,(%esp)
    4e28:	8b 1d 00 4f 02 00    	mov    0x24f00,%ebx
    4e2e:	e8 cd 69 00 00       	call   b800 <fibril_mutex_lock>
    4e33:	a1 04 4f 02 00       	mov    0x24f04,%eax
    4e38:	85 c0                	test   %eax,%eax
    4e3a:	0f 84 40 01 00 00    	je     4f80 <loc_get_name_internal+0x190>
    4e40:	c7 04 24 20 4d 02 00 	movl   $0x24d20,(%esp)
    4e47:	e8 d4 6a 00 00       	call   b920 <fibril_mutex_unlock>
    4e4c:	8b 1d 04 4f 02 00    	mov    0x24f04,%ebx
    4e52:	85 db                	test   %ebx,%ebx
    4e54:	0f 84 3e 01 00 00    	je     4f98 <loc_get_name_internal+0x1a8>
    4e5a:	c7 04 24 10 4d 02 00 	movl   $0x24d10,(%esp)
    4e61:	e8 ba 6a 00 00       	call   b920 <fibril_mutex_unlock>
    4e66:	c7 04 24 20 4d 02 00 	movl   $0x24d20,(%esp)
    4e6d:	8b 1d 04 4f 02 00    	mov    0x24f04,%ebx
    4e73:	e8 88 69 00 00       	call   b800 <fibril_mutex_lock>
    4e78:	8b 0d 00 4f 02 00    	mov    0x24f00,%ecx
    4e7e:	85 c9                	test   %ecx,%ecx
    4e80:	0f 84 62 01 00 00    	je     4fe8 <loc_get_name_internal+0x1f8>
    4e86:	c7 04 24 20 4d 02 00 	movl   $0x24d20,(%esp)
    4e8d:	e8 8e 6a 00 00       	call   b920 <fibril_mutex_unlock>
    4e92:	a1 04 4f 02 00       	mov    0x24f04,%eax
    4e97:	89 04 24             	mov    %eax,(%esp)
    4e9a:	e8 11 35 01 00       	call   183b0 <async_exchange_begin>
    4e9f:	89 7c 24 08          	mov    %edi,0x8(%esp)
    4ea3:	89 c3                	mov    %eax,%ebx
    4ea5:	8d 85 c4 fe ff ff    	lea    -0x13c(%ebp),%eax
    4eab:	89 44 24 18          	mov    %eax,0x18(%esp)
    4eaf:	8b 85 94 fe ff ff    	mov    -0x16c(%ebp),%eax
    4eb5:	c7 44 24 14 00 00 00 	movl   $0x0,0x14(%esp)
    4ebc:	00 
    4ebd:	c7 44 24 10 00 00 00 	movl   $0x0,0x10(%esp)
    4ec4:	00 
    4ec5:	c7 44 24 0c 00 00 00 	movl   $0x0,0xc(%esp)
    4ecc:	00 
    4ecd:	89 44 24 04          	mov    %eax,0x4(%esp)
    4ed1:	89 1c 24             	mov    %ebx,(%esp)
    4ed4:	e8 77 1e 01 00       	call   16d50 <async_send_fast>
    4ed9:	c7 44 24 08 ff 00 00 	movl   $0xff,0x8(%esp)
    4ee0:	00 
    4ee1:	89 c7                	mov    %eax,%edi
    4ee3:	8d 85 a0 fe ff ff    	lea    -0x160(%ebp),%eax
    4ee9:	89 44 24 0c          	mov    %eax,0xc(%esp)
    4eed:	8d 85 e8 fe ff ff    	lea    -0x118(%ebp),%eax
    4ef3:	89 44 24 04          	mov    %eax,0x4(%esp)
    4ef7:	89 1c 24             	mov    %ebx,(%esp)
    4efa:	e8 a1 3d 01 00       	call   18ca0 <async_data_read>
    4eff:	8d 8d 98 fe ff ff    	lea    -0x168(%ebp),%ecx
    4f05:	89 4c 24 04          	mov    %ecx,0x4(%esp)
    4f09:	89 04 24             	mov    %eax,(%esp)
    4f0c:	e8 0f 20 01 00       	call   16f20 <async_wait_for>
    4f11:	89 1c 24             	mov    %ebx,(%esp)
    4f14:	e8 07 38 01 00       	call   18720 <async_exchange_end>
    4f19:	8b 95 98 fe ff ff    	mov    -0x168(%ebp),%edx
    4f1f:	85 d2                	test   %edx,%edx
    4f21:	0f 85 a1 00 00 00    	jne    4fc8 <loc_get_name_internal+0x1d8>
    4f27:	8d 85 9c fe ff ff    	lea    -0x164(%ebp),%eax
    4f2d:	89 3c 24             	mov    %edi,(%esp)
    4f30:	89 44 24 04          	mov    %eax,0x4(%esp)
    4f34:	e8 e7 1f 01 00       	call   16f20 <async_wait_for>
    4f39:	8b 85 9c fe ff ff    	mov    -0x164(%ebp),%eax
    4f3f:	85 c0                	test   %eax,%eax
    4f41:	75 31                	jne    4f74 <loc_get_name_internal+0x184>
    4f43:	8b 85 a8 fe ff ff    	mov    -0x158(%ebp),%eax
    4f49:	3d ff 00 00 00       	cmp    $0xff,%eax
    4f4e:	0f 87 a7 00 00 00    	ja     4ffb <loc_get_name_internal+0x20b>
    4f54:	c6 84 05 e8 fe ff ff 	movb   $0x0,-0x118(%ebp,%eax,1)
    4f5b:	00 
    4f5c:	8d 85 e8 fe ff ff    	lea    -0x118(%ebp),%eax
    4f62:	89 04 24             	mov    %eax,(%esp)
    4f65:	e8 16 56 00 00       	call   a580 <str_dup>
    4f6a:	83 f8 01             	cmp    $0x1,%eax
    4f6d:	89 06                	mov    %eax,(%esi)
    4f6f:	19 c0                	sbb    %eax,%eax
    4f71:	83 e0 fe             	and    $0xfffffffe,%eax
    4f74:	81 c4 8c 01 00 00    	add    $0x18c,%esp
    4f7a:	5b                   	pop    %ebx
    4f7b:	5e                   	pop    %esi
    4f7c:	5f                   	pop    %edi
    4f7d:	5d                   	pop    %ebp
    4f7e:	c3                   	ret    
    4f7f:	90                   	nop
    4f80:	85 db                	test   %ebx,%ebx
    4f82:	0f 84 b8 fe ff ff    	je     4e40 <loc_get_name_internal+0x50>
    4f88:	89 1d 04 4f 02 00    	mov    %ebx,0x24f04
    4f8e:	e9 ad fe ff ff       	jmp    4e40 <loc_get_name_internal+0x50>
    4f93:	90                   	nop
    4f94:	8d 74 26 00          	lea    0x0(%esi,%eiz,1),%esi
    4f98:	c7 44 24 0c 00 00 00 	movl   $0x0,0xc(%esp)
    4f9f:	00 
    4fa0:	c7 44 24 08 02 00 00 	movl   $0x2,0x8(%esp)
    4fa7:	00 
    4fa8:	c7 44 24 04 6c 6f 63 	movl   $0x20636f6c,0x4(%esp)
    4faf:	20 
    4fb0:	c7 04 24 02 00 00 00 	movl   $0x2,(%esp)
    4fb7:	e8 44 07 01 00       	call   15700 <service_connect_blocking>
    4fbc:	a3 04 4f 02 00       	mov    %eax,0x24f04
    4fc1:	e9 57 fe ff ff       	jmp    4e1d <loc_get_name_internal+0x2d>
    4fc6:	66 90                	xchg   %ax,%ax
    4fc8:	89 3c 24             	mov    %edi,(%esp)
    4fcb:	e8 a0 21 01 00       	call   17170 <async_forget>
    4fd0:	8b 85 98 fe ff ff    	mov    -0x168(%ebp),%eax
    4fd6:	81 c4 8c 01 00 00    	add    $0x18c,%esp
    4fdc:	5b                   	pop    %ebx
    4fdd:	5e                   	pop    %esi
    4fde:	5f                   	pop    %edi
    4fdf:	5d                   	pop    %ebp
    4fe0:	c3                   	ret    
    4fe1:	8d b4 26 00 00 00 00 	lea    0x0(%esi,%eiz,1),%esi
    4fe8:	85 db                	test   %ebx,%ebx
    4fea:	0f 84 96 fe ff ff    	je     4e86 <loc_get_name_internal+0x96>
    4ff0:	89 1d 00 4f 02 00    	mov    %ebx,0x24f00
    4ff6:	e9 8b fe ff ff       	jmp    4e86 <loc_get_name_internal+0x96>
    4ffb:	c7 44 24 08 9e 01 00 	movl   $0x19e,0x8(%esp)
    5002:	00 
    5003:	c7 44 24 04 1a 23 02 	movl   $0x2231a,0x4(%esp)
    500a:	00 
    500b:	c7 04 24 28 23 02 00 	movl   $0x22328,(%esp)
    5012:	e8 39 a6 01 00       	call   1f650 <assert_abort>
    5017:	89 f6                	mov    %esi,%esi
    5019:	8d bc 27 00 00 00 00 	lea    0x0(%edi,%eiz,1),%edi

00005020 <loc_get_ids_internal>:
    5020:	55                   	push   %ebp
    5021:	89 e5                	mov    %esp,%ebp
    5023:	57                   	push   %edi
    5024:	56                   	push   %esi
    5025:	53                   	push   %ebx
    5026:	83 ec 7c             	sub    $0x7c,%esp
    5029:	89 55 ac             	mov    %edx,-0x54(%ebp)
    502c:	8b 55 08             	mov    0x8(%ebp),%edx
    502f:	c7 01 00 00 00 00    	movl   $0x0,(%ecx)
    5035:	89 45 b0             	mov    %eax,-0x50(%ebp)
    5038:	89 4d a8             	mov    %ecx,-0x58(%ebp)
    503b:	c7 02 00 00 00 00    	movl   $0x0,(%edx)
    5041:	c7 04 24 10 4d 02 00 	movl   $0x24d10,(%esp)
    5048:	e8 b3 67 00 00       	call   b800 <fibril_mutex_lock>
    504d:	a1 04 4f 02 00       	mov    0x24f04,%eax
    5052:	85 c0                	test   %eax,%eax
    5054:	75 39                	jne    508f <loc_get_ids_internal+0x6f>
    5056:	c7 04 24 20 4d 02 00 	movl   $0x24d20,(%esp)
    505d:	8b 1d 00 4f 02 00    	mov    0x24f00,%ebx
    5063:	e8 98 67 00 00       	call   b800 <fibril_mutex_lock>
    5068:	8b 15 04 4f 02 00    	mov    0x24f04,%edx
    506e:	85 d2                	test   %edx,%edx
    5070:	0f 84 5a 02 00 00    	je     52d0 <loc_get_ids_internal+0x2b0>
    5076:	c7 04 24 20 4d 02 00 	movl   $0x24d20,(%esp)
    507d:	e8 9e 68 00 00       	call   b920 <fibril_mutex_unlock>
    5082:	a1 04 4f 02 00       	mov    0x24f04,%eax
    5087:	85 c0                	test   %eax,%eax
    5089:	0f 84 59 02 00 00    	je     52e8 <loc_get_ids_internal+0x2c8>
    508f:	c7 04 24 10 4d 02 00 	movl   $0x24d10,(%esp)
    5096:	e8 85 68 00 00       	call   b920 <fibril_mutex_unlock>
    509b:	c7 04 24 20 4d 02 00 	movl   $0x24d20,(%esp)
    50a2:	8b 1d 04 4f 02 00    	mov    0x24f04,%ebx
    50a8:	e8 53 67 00 00       	call   b800 <fibril_mutex_lock>
    50ad:	a1 00 4f 02 00       	mov    0x24f00,%eax
    50b2:	85 c0                	test   %eax,%eax
    50b4:	0f 84 d5 02 00 00    	je     538f <loc_get_ids_internal+0x36f>
    50ba:	c7 04 24 20 4d 02 00 	movl   $0x24d20,(%esp)
    50c1:	e8 5a 68 00 00       	call   b920 <fibril_mutex_unlock>
    50c6:	a1 04 4f 02 00       	mov    0x24f04,%eax
    50cb:	89 04 24             	mov    %eax,(%esp)
    50ce:	e8 dd 32 01 00       	call   183b0 <async_exchange_begin>
    50d3:	8b 55 ac             	mov    -0x54(%ebp),%edx
    50d6:	89 c6                	mov    %eax,%esi
    50d8:	8d 45 c4             	lea    -0x3c(%ebp),%eax
    50db:	89 44 24 18          	mov    %eax,0x18(%esp)
    50df:	8b 45 b0             	mov    -0x50(%ebp),%eax
    50e2:	89 54 24 08          	mov    %edx,0x8(%esp)
    50e6:	c7 44 24 14 00 00 00 	movl   $0x0,0x14(%esp)
    50ed:	00 
    50ee:	c7 44 24 10 00 00 00 	movl   $0x0,0x10(%esp)
    50f5:	00 
    50f6:	c7 44 24 0c 00 00 00 	movl   $0x0,0xc(%esp)
    50fd:	00 
    50fe:	89 44 24 04          	mov    %eax,0x4(%esp)
    5102:	89 34 24             	mov    %esi,(%esp)
    5105:	e8 46 1c 01 00       	call   16d50 <async_send_fast>
    510a:	c7 44 24 08 00 00 00 	movl   $0x0,0x8(%esp)
    5111:	00 
    5112:	c7 44 24 04 00 00 00 	movl   $0x0,0x4(%esp)
    5119:	00 
    511a:	89 34 24             	mov    %esi,(%esp)
    511d:	89 c3                	mov    %eax,%ebx
    511f:	e8 5c 3c 01 00       	call   18d80 <async_data_read_start>
    5124:	89 34 24             	mov    %esi,(%esp)
    5127:	89 c7                	mov    %eax,%edi
    5129:	e8 f2 35 01 00       	call   18720 <async_exchange_end>
    512e:	85 ff                	test   %edi,%edi
    5130:	0f 85 3d 02 00 00    	jne    5373 <loc_get_ids_internal+0x353>
    5136:	8d 55 c0             	lea    -0x40(%ebp),%edx
    5139:	89 1c 24             	mov    %ebx,(%esp)
    513c:	89 54 24 04          	mov    %edx,0x4(%esp)
    5140:	e8 db 1d 01 00       	call   16f20 <async_wait_for>
    5145:	8b 45 c0             	mov    -0x40(%ebp),%eax
    5148:	85 c0                	test   %eax,%eax
    514a:	0f 85 72 01 00 00    	jne    52c2 <loc_get_ids_internal+0x2a2>
    5150:	8b 7d c8             	mov    -0x38(%ebp),%edi
    5153:	89 3c 24             	mov    %edi,(%esp)
    5156:	e8 15 fd 00 00       	call   14e70 <malloc>
    515b:	89 c6                	mov    %eax,%esi
    515d:	85 c0                	test   %eax,%eax
    515f:	0f 85 0a 01 00 00    	jne    526f <loc_get_ids_internal+0x24f>
    5165:	e9 1b 02 00 00       	jmp    5385 <loc_get_ids_internal+0x365>
    516a:	8d b6 00 00 00 00    	lea    0x0(%esi),%esi
    5170:	c7 04 24 20 4d 02 00 	movl   $0x24d20,(%esp)
    5177:	e8 a4 67 00 00       	call   b920 <fibril_mutex_unlock>
    517c:	a1 04 4f 02 00       	mov    0x24f04,%eax
    5181:	85 c0                	test   %eax,%eax
    5183:	0f 84 8f 01 00 00    	je     5318 <loc_get_ids_internal+0x2f8>
    5189:	c7 04 24 10 4d 02 00 	movl   $0x24d10,(%esp)
    5190:	e8 8b 67 00 00       	call   b920 <fibril_mutex_unlock>
    5195:	c7 04 24 20 4d 02 00 	movl   $0x24d20,(%esp)
    519c:	8b 1d 04 4f 02 00    	mov    0x24f04,%ebx
    51a2:	e8 59 66 00 00       	call   b800 <fibril_mutex_lock>
    51a7:	a1 00 4f 02 00       	mov    0x24f00,%eax
    51ac:	85 c0                	test   %eax,%eax
    51ae:	0f 84 ac 01 00 00    	je     5360 <loc_get_ids_internal+0x340>
    51b4:	c7 04 24 20 4d 02 00 	movl   $0x24d20,(%esp)
    51bb:	e8 60 67 00 00       	call   b920 <fibril_mutex_unlock>
    51c0:	a1 04 4f 02 00       	mov    0x24f04,%eax
    51c5:	89 04 24             	mov    %eax,(%esp)
