
exfat:     file format elf32-i386


Disassembly of section .init:

00001094 <__entry>:
    1094:	66 8c d0             	mov    %ss,%ax
    1097:	8e d8                	mov    %eax,%ds
    1099:	8e c0                	mov    %eax,%es
    109b:	8e e0                	mov    %eax,%fs
    109d:	b8 01 00 00 00       	mov    $0x1,%eax
    10a2:	0f a2                	cpuid  
    10a4:	0f ba e2 0b          	bt     $0xb,%edx
    10a8:	73 0c                	jae    10b6 <__entry+0x22>
    10aa:	8d 05 d4 b2 02 00    	lea    0x2b2d4,%eax
    10b0:	c7 00 37 5d 02 00    	movl   $0x25d37,(%eax)
    10b6:	6a 00                	push   $0x0
    10b8:	89 e5                	mov    %esp,%ebp
    10ba:	57                   	push   %edi
    10bb:	e8 d0 a7 00 00       	call   b890 <__main>

Disassembly of section .text:

000010c0 <main>:
    10c0:	55                   	push   %ebp
    10c1:	89 e5                	mov    %esp,%ebp
    10c3:	53                   	push   %ebx
    10c4:	83 e4 f0             	and    $0xfffffff0,%esp
    10c7:	83 ec 10             	sub    $0x10,%esp
    10ca:	8b 5d 0c             	mov    0xc(%ebp),%ebx
    10cd:	c7 04 24 64 82 02 00 	movl   $0x28264,(%esp)
    10d4:	e8 77 57 01 00       	call   16850 <printf>
    10d9:	83 7d 08 03          	cmpl   $0x3,0x8(%ebp)
    10dd:	74 79                	je     1158 <main+0x98>
    10df:	e8 6c 5d 00 00       	call   6e50 <exfat_idx_init>
    10e4:	89 c3                	mov    %eax,%ebx
    10e6:	85 c0                	test   %eax,%eax
    10e8:	75 57                	jne    1141 <main+0x81>
    10ea:	c7 44 24 0c 00 00 00 	movl   $0x0,0xc(%esp)
    10f1:	00 
    10f2:	c7 44 24 08 00 00 00 	movl   $0x0,0x8(%esp)
    10f9:	00 
    10fa:	c7 44 24 04 76 66 73 	movl   $0x20736676,0x4(%esp)
    1101:	20 
    1102:	c7 04 24 02 00 00 00 	movl   $0x2,(%esp)
    1109:	e8 52 ac 01 00       	call   1bd60 <service_connect_blocking>
    110e:	85 c0                	test   %eax,%eax
    1110:	0f 84 b5 00 00 00    	je     11cb <main+0x10b>
    1116:	c7 44 24 0c 20 b0 02 	movl   $0x2b020,0xc(%esp)
    111d:	00 
    111e:	c7 44 24 08 00 b0 02 	movl   $0x2b000,0x8(%esp)
    1125:	00 
    1126:	c7 44 24 04 c0 af 02 	movl   $0x2afc0,0x4(%esp)
    112d:	00 
    112e:	89 04 24             	mov    %eax,(%esp)
    1131:	e8 ba a2 00 00       	call   b3f0 <fs_register>
    1136:	89 c3                	mov    %eax,%ebx
    1138:	85 c0                	test   %eax,%eax
    113a:	74 58                	je     1194 <main+0xd4>
    113c:	e8 8f 5d 00 00       	call   6ed0 <exfat_idx_fini>
    1141:	89 5c 24 04          	mov    %ebx,0x4(%esp)
    1145:	c7 04 24 b4 82 02 00 	movl   $0x282b4,(%esp)
    114c:	e8 ff 56 01 00       	call   16850 <printf>
    1151:	89 d8                	mov    %ebx,%eax
    1153:	8b 5d fc             	mov    -0x4(%ebp),%ebx
    1156:	c9                   	leave  
    1157:	c3                   	ret    
    1158:	c7 44 24 04 e0 82 02 	movl   $0x282e0,0x4(%esp)
    115f:	00 
    1160:	8b 43 04             	mov    0x4(%ebx),%eax
    1163:	89 04 24             	mov    %eax,(%esp)
    1166:	e8 65 ea 00 00       	call   fbd0 <str_cmp>
    116b:	85 c0                	test   %eax,%eax
    116d:	75 4b                	jne    11ba <main+0xfa>
    116f:	c7 44 24 08 0a 00 00 	movl   $0xa,0x8(%esp)
    1176:	00 
    1177:	c7 44 24 04 00 00 00 	movl   $0x0,0x4(%esp)
    117e:	00 
    117f:	8b 43 08             	mov    0x8(%ebx),%eax
    1182:	89 04 24             	mov    %eax,(%esp)
    1185:	e8 76 04 01 00       	call   11600 <strtol>
    118a:	a3 d8 af 02 00       	mov    %eax,0x2afd8
    118f:	e9 4b ff ff ff       	jmp    10df <main+0x1f>
    1194:	c7 04 24 09 83 02 00 	movl   $0x28309,(%esp)
    119b:	e8 b0 56 01 00       	call   16850 <printf>
    11a0:	c7 04 24 00 00 00 00 	movl   $0x0,(%esp)
    11a7:	e8 64 30 01 00       	call   14210 <task_retval>
    11ac:	c7 04 24 01 00 00 00 	movl   $0x1,(%esp)
    11b3:	e8 38 0f 01 00       	call   120f0 <fibril_switch>
    11b8:	eb 97                	jmp    1151 <main+0x91>
    11ba:	c7 04 24 eb 82 02 00 	movl   $0x282eb,(%esp)
    11c1:	83 cb ff             	or     $0xffffffff,%ebx
    11c4:	e8 87 56 01 00       	call   16850 <printf>
    11c9:	eb 86                	jmp    1151 <main+0x91>
    11cb:	c7 04 24 90 82 02 00 	movl   $0x28290,(%esp)
    11d2:	83 cb ff             	or     $0xffffffff,%ebx
    11d5:	e8 76 56 01 00       	call   16850 <printf>
    11da:	e9 72 ff ff ff       	jmp    1151 <main+0x91>
    11df:	90                   	nop

000011e0 <exfat_cluster_walk>:
    11e0:	55                   	push   %ebp
    11e1:	89 e5                	mov    %esp,%ebp
    11e3:	57                   	push   %edi
    11e4:	56                   	push   %esi
    11e5:	53                   	push   %ebx
    11e6:	83 ec 4c             	sub    $0x4c,%esp
    11e9:	8b 75 10             	mov    0x10(%ebp),%esi
    11ec:	8b 7d 08             	mov    0x8(%ebp),%edi
    11ef:	83 fe 01             	cmp    $0x1,%esi
    11f2:	0f 86 28 02 00 00    	jbe    1420 <exfat_cluster_walk+0x240>
    11f8:	8b 45 1c             	mov    0x1c(%ebp),%eax
    11fb:	85 c0                	test   %eax,%eax
    11fd:	0f 84 e9 01 00 00    	je     13ec <exfat_cluster_walk+0x20c>
    1203:	83 fe ff             	cmp    $0xffffffff,%esi
    1206:	0f 84 e0 01 00 00    	je     13ec <exfat_cluster_walk+0x20c>
    120c:	8b 4d 14             	mov    0x14(%ebp),%ecx
    120f:	8d 45 e4             	lea    -0x1c(%ebp),%eax
    1212:	85 c9                	test   %ecx,%ecx
    1214:	c7 45 d4 00 00 00 00 	movl   $0x0,-0x2c(%ebp)
    121b:	89 45 d0             	mov    %eax,-0x30(%ebp)
    121e:	0f 84 dd 00 00 00    	je     1301 <exfat_cluster_walk+0x121>
    1224:	8d 74 26 00          	lea    0x0(%esi,%eiz,1),%esi
    1228:	8b 55 14             	mov    0x14(%ebp),%edx
    122b:	31 c9                	xor    %ecx,%ecx
    122d:	b8 01 00 00 00       	mov    $0x1,%eax
    1232:	31 db                	xor    %ebx,%ebx
    1234:	89 32                	mov    %esi,(%edx)
    1236:	c7 44 24 10 00 00 00 	movl   $0x0,0x10(%esp)
    123d:	00 
    123e:	c1 e6 02             	shl    $0x2,%esi
    1241:	8a 4f 6c             	mov    0x6c(%edi),%cl
    1244:	d3 e0                	shl    %cl,%eax
    1246:	89 44 24 08          	mov    %eax,0x8(%esp)
    124a:	c7 44 24 0c 00 00 00 	movl   $0x0,0xc(%esp)
    1251:	00 
    1252:	89 34 24             	mov    %esi,(%esp)
    1255:	c7 44 24 04 00 00 00 	movl   $0x0,0x4(%esp)
    125c:	00 
    125d:	e8 3e 69 02 00       	call   27ba0 <__udivdi3>
    1262:	8b 4f 50             	mov    0x50(%edi),%ecx
    1265:	01 c8                	add    %ecx,%eax
    1267:	11 da                	adc    %ebx,%edx
    1269:	89 44 24 08          	mov    %eax,0x8(%esp)
    126d:	89 54 24 0c          	mov    %edx,0xc(%esp)
    1271:	8b 45 d0             	mov    -0x30(%ebp),%eax
    1274:	8b 55 0c             	mov    0xc(%ebp),%edx
    1277:	89 04 24             	mov    %eax,(%esp)
    127a:	89 54 24 04          	mov    %edx,0x4(%esp)
    127e:	e8 fd 81 00 00       	call   9480 <block_get>
    1283:	85 c0                	test   %eax,%eax
    1285:	0f 84 dd 00 00 00    	je     1368 <exfat_cluster_walk+0x188>
    128b:	83 c4 4c             	add    $0x4c,%esp
    128e:	5b                   	pop    %ebx
    128f:	5e                   	pop    %esi
    1290:	5f                   	pop    %edi
    1291:	5d                   	pop    %ebp
    1292:	c3                   	ret    
    1293:	90                   	nop
    1294:	8d 74 26 00          	lea    0x0(%esi,%eiz,1),%esi
    1298:	31 c9                	xor    %ecx,%ecx
    129a:	b0 01                	mov    $0x1,%al
    129c:	8a 4f 6c             	mov    0x6c(%edi),%cl
    129f:	89 34 24             	mov    %esi,(%esp)
    12a2:	d3 e0                	shl    %cl,%eax
    12a4:	89 44 24 08          	mov    %eax,0x8(%esp)
    12a8:	c7 44 24 0c 00 00 00 	movl   $0x0,0xc(%esp)
    12af:	00 
    12b0:	c7 44 24 04 00 00 00 	movl   $0x0,0x4(%esp)
    12b7:	00 
    12b8:	8b 5d e4             	mov    -0x1c(%ebp),%ebx
    12bb:	e8 60 6b 02 00       	call   27e20 <__umoddi3>
    12c0:	8b 53 54             	mov    0x54(%ebx),%edx
    12c3:	01 d0                	add    %edx,%eax
    12c5:	8b 30                	mov    (%eax),%esi
    12c7:	89 1c 24             	mov    %ebx,(%esp)
    12ca:	e8 01 7f 00 00       	call   91d0 <block_put>
    12cf:	85 c0                	test   %eax,%eax
    12d1:	75 b8                	jne    128b <exfat_cluster_walk+0xab>
    12d3:	83 fe f7             	cmp    $0xfffffff7,%esi
    12d6:	0f 84 67 01 00 00    	je     1443 <exfat_cluster_walk+0x263>
    12dc:	8b 45 d4             	mov    -0x2c(%ebp),%eax
    12df:	40                   	inc    %eax
    12e0:	83 fe ff             	cmp    $0xffffffff,%esi
    12e3:	89 45 d4             	mov    %eax,-0x2c(%ebp)
    12e6:	0f 84 1d 01 00 00    	je     1409 <exfat_cluster_walk+0x229>
    12ec:	8b 55 d4             	mov    -0x2c(%ebp),%edx
    12ef:	39 55 1c             	cmp    %edx,0x1c(%ebp)
    12f2:	0f 86 11 01 00 00    	jbe    1409 <exfat_cluster_walk+0x229>
    12f8:	83 fe 01             	cmp    $0x1,%esi
    12fb:	0f 86 cf 00 00 00    	jbe    13d0 <exfat_cluster_walk+0x1f0>
    1301:	c7 44 24 10 00 00 00 	movl   $0x0,0x10(%esp)
    1308:	00 
    1309:	31 c9                	xor    %ecx,%ecx
    130b:	8a 4f 6c             	mov    0x6c(%edi),%cl
    130e:	ba 01 00 00 00       	mov    $0x1,%edx
    1313:	d3 e2                	shl    %cl,%edx
    1315:	c1 e6 02             	shl    $0x2,%esi
    1318:	89 54 24 08          	mov    %edx,0x8(%esp)
    131c:	c7 44 24 0c 00 00 00 	movl   $0x0,0xc(%esp)
    1323:	00 
    1324:	89 34 24             	mov    %esi,(%esp)
    1327:	c7 44 24 04 00 00 00 	movl   $0x0,0x4(%esp)
    132e:	00 
    132f:	31 db                	xor    %ebx,%ebx
    1331:	e8 6a 68 02 00       	call   27ba0 <__udivdi3>
    1336:	8b 4f 50             	mov    0x50(%edi),%ecx
    1339:	01 c8                	add    %ecx,%eax
    133b:	11 da                	adc    %ebx,%edx
    133d:	89 44 24 08          	mov    %eax,0x8(%esp)
    1341:	89 54 24 0c          	mov    %edx,0xc(%esp)
    1345:	8b 45 0c             	mov    0xc(%ebp),%eax
    1348:	8b 55 d0             	mov    -0x30(%ebp),%edx
    134b:	89 44 24 04          	mov    %eax,0x4(%esp)
    134f:	89 14 24             	mov    %edx,(%esp)
    1352:	e8 29 81 00 00       	call   9480 <block_get>
    1357:	85 c0                	test   %eax,%eax
    1359:	0f 84 39 ff ff ff    	je     1298 <exfat_cluster_walk+0xb8>
    135f:	83 c4 4c             	add    $0x4c,%esp
    1362:	5b                   	pop    %ebx
    1363:	5e                   	pop    %esi
    1364:	5f                   	pop    %edi
    1365:	5d                   	pop    %ebp
    1366:	c3                   	ret    
    1367:	90                   	nop
    1368:	31 c9                	xor    %ecx,%ecx
    136a:	ba 01 00 00 00       	mov    $0x1,%edx
    136f:	8a 4f 6c             	mov    0x6c(%edi),%cl
    1372:	89 34 24             	mov    %esi,(%esp)
    1375:	d3 e2                	shl    %cl,%edx
    1377:	89 54 24 08          	mov    %edx,0x8(%esp)
    137b:	c7 44 24 0c 00 00 00 	movl   $0x0,0xc(%esp)
    1382:	00 
    1383:	c7 44 24 04 00 00 00 	movl   $0x0,0x4(%esp)
    138a:	00 
    138b:	8b 5d e4             	mov    -0x1c(%ebp),%ebx
    138e:	e8 8d 6a 02 00       	call   27e20 <__umoddi3>
    1393:	8b 73 54             	mov    0x54(%ebx),%esi
    1396:	01 f0                	add    %esi,%eax
    1398:	8b 30                	mov    (%eax),%esi
    139a:	89 1c 24             	mov    %ebx,(%esp)
    139d:	e8 2e 7e 00 00       	call   91d0 <block_put>
    13a2:	85 c0                	test   %eax,%eax
    13a4:	0f 85 e1 fe ff ff    	jne    128b <exfat_cluster_walk+0xab>
    13aa:	83 fe f7             	cmp    $0xfffffff7,%esi
    13ad:	0f 84 90 00 00 00    	je     1443 <exfat_cluster_walk+0x263>
    13b3:	8b 4d d4             	mov    -0x2c(%ebp),%ecx
    13b6:	41                   	inc    %ecx
    13b7:	83 fe ff             	cmp    $0xffffffff,%esi
    13ba:	89 4d d4             	mov    %ecx,-0x2c(%ebp)
    13bd:	74 39                	je     13f8 <exfat_cluster_walk+0x218>
    13bf:	8b 45 d4             	mov    -0x2c(%ebp),%eax
    13c2:	39 45 1c             	cmp    %eax,0x1c(%ebp)
    13c5:	76 31                	jbe    13f8 <exfat_cluster_walk+0x218>
    13c7:	83 fe 01             	cmp    $0x1,%esi
    13ca:	0f 87 58 fe ff ff    	ja     1228 <exfat_cluster_walk+0x48>
    13d0:	c7 44 24 08 5e 00 00 	movl   $0x5e,0x8(%esp)
    13d7:	00 
    13d8:	c7 44 24 04 27 83 02 	movl   $0x28327,0x4(%esp)
    13df:	00 
    13e0:	c7 04 24 33 83 02 00 	movl   $0x28333,(%esp)
    13e7:	e8 c4 48 02 00       	call   25cb0 <assert_abort>
    13ec:	c7 45 d4 00 00 00 00 	movl   $0x0,-0x2c(%ebp)
    13f3:	90                   	nop
    13f4:	8d 74 26 00          	lea    0x0(%esi,%eiz,1),%esi
    13f8:	8b 55 14             	mov    0x14(%ebp),%edx
    13fb:	85 d2                	test   %edx,%edx
    13fd:	74 0a                	je     1409 <exfat_cluster_walk+0x229>
    13ff:	83 fe ff             	cmp    $0xffffffff,%esi
    1402:	74 05                	je     1409 <exfat_cluster_walk+0x229>
    1404:	8b 55 14             	mov    0x14(%ebp),%edx
    1407:	89 32                	mov    %esi,(%edx)
    1409:	8b 45 18             	mov    0x18(%ebp),%eax
    140c:	85 c0                	test   %eax,%eax
    140e:	74 08                	je     1418 <exfat_cluster_walk+0x238>
    1410:	8b 45 18             	mov    0x18(%ebp),%eax
    1413:	8b 55 d4             	mov    -0x2c(%ebp),%edx
    1416:	89 10                	mov    %edx,(%eax)
    1418:	31 c0                	xor    %eax,%eax
    141a:	e9 6c fe ff ff       	jmp    128b <exfat_cluster_walk+0xab>
    141f:	90                   	nop
    1420:	8b 7d 14             	mov    0x14(%ebp),%edi
    1423:	85 ff                	test   %edi,%edi
    1425:	74 05                	je     142c <exfat_cluster_walk+0x24c>
    1427:	8b 45 14             	mov    0x14(%ebp),%eax
    142a:	89 30                	mov    %esi,(%eax)
    142c:	8b 5d 18             	mov    0x18(%ebp),%ebx
    142f:	85 db                	test   %ebx,%ebx
    1431:	74 e5                	je     1418 <exfat_cluster_walk+0x238>
    1433:	8b 55 18             	mov    0x18(%ebp),%edx
    1436:	31 c0                	xor    %eax,%eax
    1438:	c7 02 00 00 00 00    	movl   $0x0,(%edx)
    143e:	e9 48 fe ff ff       	jmp    128b <exfat_cluster_walk+0xab>
    1443:	c7 44 24 08 66 00 00 	movl   $0x66,0x8(%esp)
    144a:	00 
    144b:	c7 44 24 04 27 83 02 	movl   $0x28327,0x4(%esp)
    1452:	00 
    1453:	c7 04 24 4c 83 02 00 	movl   $0x2834c,(%esp)
    145a:	e8 51 48 02 00       	call   25cb0 <assert_abort>
    145f:	90                   	nop

00001460 <exfat_block_get_by_clst>:
    1460:	55                   	push   %ebp
    1461:	89 e5                	mov    %esp,%ebp
    1463:	57                   	push   %edi
    1464:	56                   	push   %esi
    1465:	53                   	push   %ebx
    1466:	83 ec 4c             	sub    $0x4c,%esp
    1469:	8b 5d 0c             	mov    0xc(%ebp),%ebx
    146c:	8b 75 20             	mov    0x20(%ebp),%esi
    146f:	8b 7d 24             	mov    0x24(%ebp),%edi
    1472:	8a 55 14             	mov    0x14(%ebp),%dl
    1475:	83 7d 18 01          	cmpl   $0x1,0x18(%ebp)
    1479:	0f 86 39 01 00 00    	jbe    15b8 <exfat_block_get_by_clst+0x158>
    147f:	8b 43 5c             	mov    0x5c(%ebx),%eax
    1482:	83 c0 02             	add    $0x2,%eax
    1485:	39 45 18             	cmp    %eax,0x18(%ebp)
    1488:	0f 87 2a 01 00 00    	ja     15b8 <exfat_block_get_by_clst+0x158>
    148e:	84 d2                	test   %dl,%dl
    1490:	0f 84 da 00 00 00    	je     1570 <exfat_block_get_by_clst+0x110>
    1496:	31 c9                	xor    %ecx,%ecx
    1498:	b8 01 00 00 00       	mov    $0x1,%eax
    149d:	8a 4b 6d             	mov    0x6d(%ebx),%cl
    14a0:	c7 44 24 0c 00 00 00 	movl   $0x0,0xc(%esp)
    14a7:	00 
    14a8:	d3 e0                	shl    %cl,%eax
    14aa:	89 44 24 08          	mov    %eax,0x8(%esp)
    14ae:	89 34 24             	mov    %esi,(%esp)
    14b1:	89 7c 24 04          	mov    %edi,0x4(%esp)
    14b5:	e8 e6 66 02 00       	call   27ba0 <__udivdi3>
    14ba:	8b 4d 18             	mov    0x18(%ebp),%ecx
    14bd:	89 c2                	mov    %eax,%edx
    14bf:	89 44 24 14          	mov    %eax,0x14(%esp)
    14c3:	8d 45 e0             	lea    -0x20(%ebp),%eax
    14c6:	89 4c 24 08          	mov    %ecx,0x8(%esp)
    14ca:	89 44 24 10          	mov    %eax,0x10(%esp)
    14ce:	8d 45 e4             	lea    -0x1c(%ebp),%eax
    14d1:	89 44 24 0c          	mov    %eax,0xc(%esp)
    14d5:	8b 45 10             	mov    0x10(%ebp),%eax
    14d8:	89 44 24 04          	mov    %eax,0x4(%esp)
    14dc:	89 1c 24             	mov    %ebx,(%esp)
    14df:	89 55 d4             	mov    %edx,-0x2c(%ebp)
    14e2:	e8 f9 fc ff ff       	call   11e0 <exfat_cluster_walk>
    14e7:	8b 55 d4             	mov    -0x2c(%ebp),%edx
    14ea:	85 c0                	test   %eax,%eax
    14ec:	75 76                	jne    1564 <exfat_block_get_by_clst+0x104>
    14ee:	39 55 e0             	cmp    %edx,-0x20(%ebp)
    14f1:	0f 85 c8 00 00 00    	jne    15bf <exfat_block_get_by_clst+0x15f>
    14f7:	8b 45 28             	mov    0x28(%ebp),%eax
    14fa:	31 c9                	xor    %ecx,%ecx
    14fc:	8a 4b 6d             	mov    0x6d(%ebx),%cl
    14ff:	89 44 24 10          	mov    %eax,0x10(%esp)
    1503:	b8 01 00 00 00       	mov    $0x1,%eax
    1508:	89 34 24             	mov    %esi,(%esp)
    150b:	d3 e0                	shl    %cl,%eax
    150d:	89 44 24 08          	mov    %eax,0x8(%esp)
    1511:	c7 44 24 0c 00 00 00 	movl   $0x0,0xc(%esp)
    1518:	00 
    1519:	89 7c 24 04          	mov    %edi,0x4(%esp)
    151d:	89 4d d4             	mov    %ecx,-0x2c(%ebp)
    1520:	e8 fb 68 02 00       	call   27e20 <__umoddi3>
    1525:	8b 75 e4             	mov    -0x1c(%ebp),%esi
    1528:	8b 4d d4             	mov    -0x2c(%ebp),%ecx
    152b:	83 ee 02             	sub    $0x2,%esi
    152e:	d3 e6                	shl    %cl,%esi
    1530:	8b 4b 58             	mov    0x58(%ebx),%ecx
    1533:	31 db                	xor    %ebx,%ebx
    1535:	01 ce                	add    %ecx,%esi
    1537:	01 f0                	add    %esi,%eax
    1539:	8b 75 10             	mov    0x10(%ebp),%esi
    153c:	11 da                	adc    %ebx,%edx
    153e:	89 44 24 08          	mov    %eax,0x8(%esp)
    1542:	8b 45 08             	mov    0x8(%ebp),%eax
    1545:	89 54 24 0c          	mov    %edx,0xc(%esp)
    1549:	89 74 24 04          	mov    %esi,0x4(%esp)
    154d:	89 04 24             	mov    %eax,(%esp)
    1550:	e8 2b 7f 00 00       	call   9480 <block_get>
    1555:	8b 5d 1c             	mov    0x1c(%ebp),%ebx
    1558:	85 db                	test   %ebx,%ebx
    155a:	74 08                	je     1564 <exfat_block_get_by_clst+0x104>
    155c:	8b 4d 1c             	mov    0x1c(%ebp),%ecx
    155f:	8b 55 e4             	mov    -0x1c(%ebp),%edx
    1562:	89 11                	mov    %edx,(%ecx)
    1564:	83 c4 4c             	add    $0x4c,%esp
    1567:	5b                   	pop    %ebx
    1568:	5e                   	pop    %esi
    1569:	5f                   	pop    %edi
    156a:	5d                   	pop    %ebp
    156b:	c3                   	ret    
    156c:	8d 74 26 00          	lea    0x0(%esi,%eiz,1),%esi
    1570:	8b 45 28             	mov    0x28(%ebp),%eax
    1573:	31 c9                	xor    %ecx,%ecx
    1575:	89 44 24 10          	mov    %eax,0x10(%esp)
    1579:	8b 45 18             	mov    0x18(%ebp),%eax
    157c:	8a 4b 6d             	mov    0x6d(%ebx),%cl
    157f:	83 e8 02             	sub    $0x2,%eax
    1582:	8b 53 58             	mov    0x58(%ebx),%edx
    1585:	d3 e0                	shl    %cl,%eax
    1587:	01 d0                	add    %edx,%eax
    1589:	31 d2                	xor    %edx,%edx
    158b:	01 f0                	add    %esi,%eax
    158d:	8b 75 10             	mov    0x10(%ebp),%esi
    1590:	11 fa                	adc    %edi,%edx
    1592:	89 44 24 08          	mov    %eax,0x8(%esp)
    1596:	8b 45 08             	mov    0x8(%ebp),%eax
    1599:	89 74 24 04          	mov    %esi,0x4(%esp)
    159d:	89 54 24 0c          	mov    %edx,0xc(%esp)
    15a1:	89 04 24             	mov    %eax,(%esp)
    15a4:	e8 d7 7e 00 00       	call   9480 <block_get>
    15a9:	83 c4 4c             	add    $0x4c,%esp
    15ac:	5b                   	pop    %ebx
    15ad:	5e                   	pop    %esi
    15ae:	5f                   	pop    %edi
    15af:	5d                   	pop    %ebp
    15b0:	c3                   	ret    
    15b1:	8d b4 26 00 00 00 00 	lea    0x0(%esi,%eiz,1),%esi
    15b8:	b8 fd ff ff ff       	mov    $0xfffffffd,%eax
    15bd:	eb a5                	jmp    1564 <exfat_block_get_by_clst+0x104>
    15bf:	c7 44 24 08 d1 00 00 	movl   $0xd1,0x8(%esp)
    15c6:	00 
    15c7:	c7 44 24 04 27 83 02 	movl   $0x28327,0x4(%esp)
    15ce:	00 
    15cf:	c7 04 24 63 83 02 00 	movl   $0x28363,(%esp)
    15d6:	e8 d5 46 02 00       	call   25cb0 <assert_abort>
    15db:	90                   	nop
    15dc:	8d 74 26 00          	lea    0x0(%esi,%eiz,1),%esi

000015e0 <exfat_block_get>:
    15e0:	55                   	push   %ebp
    15e1:	89 e5                	mov    %esp,%ebp
    15e3:	57                   	push   %edi
    15e4:	56                   	push   %esi
    15e5:	53                   	push   %ebx
    15e6:	83 ec 6c             	sub    $0x6c,%esp
    15e9:	c7 45 e4 00 00 00 00 	movl   $0x0,-0x1c(%ebp)
    15f0:	8b 75 10             	mov    0x10(%ebp),%esi
    15f3:	8b 55 18             	mov    0x18(%ebp),%edx
    15f6:	8b 45 14             	mov    0x14(%ebp),%eax
    15f9:	89 55 d4             	mov    %edx,-0x2c(%ebp)
    15fc:	8b 56 2c             	mov    0x2c(%esi),%edx
    15ff:	89 45 d0             	mov    %eax,-0x30(%ebp)
    1602:	89 d1                	mov    %edx,%ecx
    1604:	8b 46 28             	mov    0x28(%esi),%eax
    1607:	8b 7e 1c             	mov    0x1c(%esi),%edi
    160a:	09 c1                	or     %eax,%ecx
    160c:	0f 84 ee 01 00 00    	je     1800 <exfat_block_get+0x220>
    1612:	8a 5e 39             	mov    0x39(%esi),%bl
    1615:	88 5d cf             	mov    %bl,-0x31(%ebp)
    1618:	84 db                	test   %bl,%bl
    161a:	0f 84 20 01 00 00    	je     1740 <exfat_block_get+0x160>
    1620:	8b 5d 0c             	mov    0xc(%ebp),%ebx
    1623:	31 c9                	xor    %ecx,%ecx
    1625:	8a 4b 6d             	mov    0x6d(%ebx),%cl
    1628:	bb 01 00 00 00       	mov    $0x1,%ebx
    162d:	d3 e3                	shl    %cl,%ebx
    162f:	89 5d c8             	mov    %ebx,-0x38(%ebp)
    1632:	83 c0 ff             	add    $0xffffffff,%eax
    1635:	8b 5d 0c             	mov    0xc(%ebp),%ebx
    1638:	89 4d c4             	mov    %ecx,-0x3c(%ebp)
    163b:	83 d2 ff             	adc    $0xffffffff,%edx
    163e:	31 c9                	xor    %ecx,%ecx
    1640:	8a 4b 6c             	mov    0x6c(%ebx),%cl
    1643:	bb 01 00 00 00       	mov    $0x1,%ebx
    1648:	d3 e3                	shl    %cl,%ebx
    164a:	89 5c 24 08          	mov    %ebx,0x8(%esp)
    164e:	c7 44 24 0c 00 00 00 	movl   $0x0,0xc(%esp)
    1655:	00 
    1656:	89 04 24             	mov    %eax,(%esp)
    1659:	89 54 24 04          	mov    %edx,0x4(%esp)
    165d:	e8 3e 65 02 00       	call   27ba0 <__udivdi3>
    1662:	8b 5d c8             	mov    -0x38(%ebp),%ebx
    1665:	89 5c 24 08          	mov    %ebx,0x8(%esp)
    1669:	c7 44 24 0c 00 00 00 	movl   $0x0,0xc(%esp)
    1670:	00 
    1671:	89 04 24             	mov    %eax,(%esp)
    1674:	89 54 24 04          	mov    %edx,0x4(%esp)
    1678:	e8 23 65 02 00       	call   27ba0 <__udivdi3>
    167d:	8b 4d d4             	mov    -0x2c(%ebp),%ecx
    1680:	89 c3                	mov    %eax,%ebx
    1682:	89 55 c0             	mov    %edx,-0x40(%ebp)
    1685:	8b 45 c8             	mov    -0x38(%ebp),%eax
    1688:	8b 55 d0             	mov    -0x30(%ebp),%edx
    168b:	89 4c 24 04          	mov    %ecx,0x4(%esp)
    168f:	89 44 24 08          	mov    %eax,0x8(%esp)
    1693:	c7 44 24 0c 00 00 00 	movl   $0x0,0xc(%esp)
    169a:	00 
    169b:	89 14 24             	mov    %edx,(%esp)
    169e:	e8 fd 64 02 00       	call   27ba0 <__udivdi3>
    16a3:	8b 4d c0             	mov    -0x40(%ebp),%ecx
    16a6:	31 ca                	xor    %ecx,%edx
    16a8:	31 d8                	xor    %ebx,%eax
    16aa:	09 c2                	or     %eax,%edx
    16ac:	0f 84 9e 00 00 00    	je     1750 <exfat_block_get+0x170>
    16b2:	8b 45 d0             	mov    -0x30(%ebp),%eax
    16b5:	8b 55 d4             	mov    -0x2c(%ebp),%edx
    16b8:	80 7e 40 00          	cmpb   $0x0,0x40(%esi)
    16bc:	75 62                	jne    1720 <exfat_block_get+0x140>
    16be:	89 44 24 18          	mov    %eax,0x18(%esp)
    16c2:	8d 45 e4             	lea    -0x1c(%ebp),%eax
    16c5:	89 44 24 14          	mov    %eax,0x14(%esp)
    16c9:	31 c0                	xor    %eax,%eax
    16cb:	8b 5d 1c             	mov    0x1c(%ebp),%ebx
    16ce:	8a 45 cf             	mov    -0x31(%ebp),%al
    16d1:	89 5c 24 20          	mov    %ebx,0x20(%esp)
    16d5:	89 54 24 1c          	mov    %edx,0x1c(%esp)
    16d9:	89 7c 24 10          	mov    %edi,0x10(%esp)
    16dd:	89 44 24 0c          	mov    %eax,0xc(%esp)
    16e1:	8b 46 18             	mov    0x18(%esi),%eax
    16e4:	8b 5d 0c             	mov    0xc(%ebp),%ebx
    16e7:	8b 40 20             	mov    0x20(%eax),%eax
    16ea:	89 5c 24 04          	mov    %ebx,0x4(%esp)
    16ee:	89 44 24 08          	mov    %eax,0x8(%esp)
    16f2:	8b 45 08             	mov    0x8(%ebp),%eax
    16f5:	89 04 24             	mov    %eax,(%esp)
    16f8:	e8 63 fd ff ff       	call   1460 <exfat_block_get_by_clst>
    16fd:	85 c0                	test   %eax,%eax
    16ff:	75 16                	jne    1717 <exfat_block_get+0x137>
    1701:	8b 55 d0             	mov    -0x30(%ebp),%edx
    1704:	8b 4d d4             	mov    -0x2c(%ebp),%ecx
    1707:	89 56 44             	mov    %edx,0x44(%esi)
    170a:	8b 55 e4             	mov    -0x1c(%ebp),%edx
    170d:	c6 46 40 01          	movb   $0x1,0x40(%esi)
    1711:	89 4e 48             	mov    %ecx,0x48(%esi)
    1714:	89 56 4c             	mov    %edx,0x4c(%esi)
    1717:	83 c4 6c             	add    $0x6c,%esp
    171a:	5b                   	pop    %ebx
    171b:	5e                   	pop    %esi
    171c:	5f                   	pop    %edi
    171d:	5d                   	pop    %ebp
    171e:	c3                   	ret    
    171f:	90                   	nop
    1720:	8b 46 48             	mov    0x48(%esi),%eax
    1723:	8b 56 44             	mov    0x44(%esi),%edx
    1726:	39 45 d4             	cmp    %eax,-0x2c(%ebp)
    1729:	72 15                	jb     1740 <exfat_block_get+0x160>
    172b:	0f 87 8f 00 00 00    	ja     17c0 <exfat_block_get+0x1e0>
    1731:	39 55 d0             	cmp    %edx,-0x30(%ebp)
    1734:	0f 83 86 00 00 00    	jae    17c0 <exfat_block_get+0x1e0>
    173a:	8d b6 00 00 00 00    	lea    0x0(%esi),%esi
    1740:	8b 45 d0             	mov    -0x30(%ebp),%eax
    1743:	8b 55 d4             	mov    -0x2c(%ebp),%edx
    1746:	e9 73 ff ff ff       	jmp    16be <exfat_block_get+0xde>
    174b:	90                   	nop
    174c:	8d 74 26 00          	lea    0x0(%esi,%eiz,1),%esi
    1750:	80 7e 3a 00          	cmpb   $0x0,0x3a(%esi)
    1754:	0f 84 58 ff ff ff    	je     16b2 <exfat_block_get+0xd2>
    175a:	8b 5d c8             	mov    -0x38(%ebp),%ebx
    175d:	8b 45 d0             	mov    -0x30(%ebp),%eax
    1760:	8b 55 d4             	mov    -0x2c(%ebp),%edx
    1763:	8b 4d 1c             	mov    0x1c(%ebp),%ecx
    1766:	89 5c 24 08          	mov    %ebx,0x8(%esp)
    176a:	c7 44 24 0c 00 00 00 	movl   $0x0,0xc(%esp)
    1771:	00 
    1772:	89 04 24             	mov    %eax,(%esp)
    1775:	89 54 24 04          	mov    %edx,0x4(%esp)
    1779:	89 4c 24 10          	mov    %ecx,0x10(%esp)
    177d:	e8 9e 66 02 00       	call   27e20 <__umoddi3>
    1782:	8b 5e 3c             	mov    0x3c(%esi),%ebx
    1785:	8a 4d c4             	mov    -0x3c(%ebp),%cl
    1788:	83 eb 02             	sub    $0x2,%ebx
    178b:	d3 e3                	shl    %cl,%ebx
    178d:	8b 4d 0c             	mov    0xc(%ebp),%ecx
    1790:	8b 79 58             	mov    0x58(%ecx),%edi
    1793:	01 fb                	add    %edi,%ebx
    1795:	89 d9                	mov    %ebx,%ecx
    1797:	31 db                	xor    %ebx,%ebx
    1799:	01 c8                	add    %ecx,%eax
    179b:	11 da                	adc    %ebx,%edx
    179d:	89 44 24 08          	mov    %eax,0x8(%esp)
    17a1:	89 54 24 0c          	mov    %edx,0xc(%esp)
    17a5:	8b 5d 08             	mov    0x8(%ebp),%ebx
    17a8:	8b 46 18             	mov    0x18(%esi),%eax
    17ab:	8b 40 20             	mov    0x20(%eax),%eax
    17ae:	89 1c 24             	mov    %ebx,(%esp)
    17b1:	89 44 24 04          	mov    %eax,0x4(%esp)
    17b5:	e8 c6 7c 00 00       	call   9480 <block_get>
    17ba:	e9 58 ff ff ff       	jmp    1717 <exfat_block_get+0x137>
    17bf:	90                   	nop
    17c0:	8b 5d c8             	mov    -0x38(%ebp),%ebx
    17c3:	8b 7e 4c             	mov    0x4c(%esi),%edi
    17c6:	89 5c 24 08          	mov    %ebx,0x8(%esp)
    17ca:	c7 44 24 0c 00 00 00 	movl   $0x0,0xc(%esp)
    17d1:	00 
    17d2:	89 14 24             	mov    %edx,(%esp)
    17d5:	89 44 24 04          	mov    %eax,0x4(%esp)
    17d9:	e8 c2 63 02 00       	call   27ba0 <__udivdi3>
    17de:	89 d1                	mov    %edx,%ecx
    17e0:	0f af cb             	imul   %ebx,%ecx
    17e3:	f7 e3                	mul    %ebx
    17e5:	01 ca                	add    %ecx,%edx
    17e7:	8b 4d d0             	mov    -0x30(%ebp),%ecx
    17ea:	29 c1                	sub    %eax,%ecx
    17ec:	8b 5d d4             	mov    -0x2c(%ebp),%ebx
    17ef:	19 d3                	sbb    %edx,%ebx
    17f1:	89 c8                	mov    %ecx,%eax
    17f3:	89 da                	mov    %ebx,%edx
    17f5:	e9 c4 fe ff ff       	jmp    16be <exfat_block_get+0xde>
    17fa:	8d b6 00 00 00 00    	lea    0x0(%esi),%esi
    1800:	b8 fd ff ff ff       	mov    $0xfffffffd,%eax
    1805:	e9 0d ff ff ff       	jmp    1717 <exfat_block_get+0x137>
    180a:	8d b6 00 00 00 00    	lea    0x0(%esi),%esi

00001810 <exfat_get_cluster>:
    1810:	55                   	push   %ebp
    1811:	31 c9                	xor    %ecx,%ecx
    1813:	89 e5                	mov    %esp,%ebp
    1815:	57                   	push   %edi
    1816:	56                   	push   %esi
    1817:	53                   	push   %ebx
    1818:	83 ec 4c             	sub    $0x4c,%esp
    181b:	be 01 00 00 00       	mov    $0x1,%esi
    1820:	8b 7d 08             	mov    0x8(%ebp),%edi
    1823:	8b 45 10             	mov    0x10(%ebp),%eax
    1826:	c1 e0 02             	shl    $0x2,%eax
    1829:	c7 44 24 10 00 00 00 	movl   $0x0,0x10(%esp)
    1830:	00 
    1831:	8a 4f 6c             	mov    0x6c(%edi),%cl
    1834:	89 45 d4             	mov    %eax,-0x2c(%ebp)
    1837:	89 f0                	mov    %esi,%eax
    1839:	c7 44 24 0c 00 00 00 	movl   $0x0,0xc(%esp)
    1840:	00 
    1841:	d3 e0                	shl    %cl,%eax
    1843:	89 44 24 08          	mov    %eax,0x8(%esp)
    1847:	8b 45 d4             	mov    -0x2c(%ebp),%eax
    184a:	89 04 24             	mov    %eax,(%esp)
    184d:	c7 44 24 04 00 00 00 	movl   $0x0,0x4(%esp)
    1854:	00 
    1855:	e8 46 63 02 00       	call   27ba0 <__udivdi3>
    185a:	8b 4f 50             	mov    0x50(%edi),%ecx
    185d:	31 db                	xor    %ebx,%ebx
    185f:	01 c8                	add    %ecx,%eax
    1861:	11 da                	adc    %ebx,%edx
    1863:	89 44 24 08          	mov    %eax,0x8(%esp)
    1867:	8b 45 0c             	mov    0xc(%ebp),%eax
    186a:	89 54 24 0c          	mov    %edx,0xc(%esp)
    186e:	89 44 24 04          	mov    %eax,0x4(%esp)
    1872:	8d 45 e4             	lea    -0x1c(%ebp),%eax
    1875:	89 04 24             	mov    %eax,(%esp)
    1878:	e8 03 7c 00 00       	call   9480 <block_get>
    187d:	85 c0                	test   %eax,%eax
    187f:	75 3d                	jne    18be <exfat_get_cluster+0xae>
    1881:	31 c9                	xor    %ecx,%ecx
    1883:	8b 45 d4             	mov    -0x2c(%ebp),%eax
    1886:	8a 4f 6c             	mov    0x6c(%edi),%cl
    1889:	c7 44 24 0c 00 00 00 	movl   $0x0,0xc(%esp)
    1890:	00 
    1891:	d3 e6                	shl    %cl,%esi
    1893:	89 74 24 08          	mov    %esi,0x8(%esp)
    1897:	89 04 24             	mov    %eax,(%esp)
    189a:	c7 44 24 04 00 00 00 	movl   $0x0,0x4(%esp)
    18a1:	00 
    18a2:	8b 5d e4             	mov    -0x1c(%ebp),%ebx
    18a5:	e8 76 65 02 00       	call   27e20 <__umoddi3>
    18aa:	8b 73 54             	mov    0x54(%ebx),%esi
    18ad:	01 f0                	add    %esi,%eax
    18af:	8b 10                	mov    (%eax),%edx
    18b1:	8b 45 14             	mov    0x14(%ebp),%eax
    18b4:	89 10                	mov    %edx,(%eax)
    18b6:	89 1c 24             	mov    %ebx,(%esp)
    18b9:	e8 12 79 00 00       	call   91d0 <block_put>
    18be:	83 c4 4c             	add    $0x4c,%esp
    18c1:	5b                   	pop    %ebx
    18c2:	5e                   	pop    %esi
    18c3:	5f                   	pop    %edi
    18c4:	5d                   	pop    %ebp
    18c5:	c3                   	ret    
    18c6:	8d 76 00             	lea    0x0(%esi),%esi
    18c9:	8d bc 27 00 00 00 00 	lea    0x0(%edi,%eiz,1),%edi

000018d0 <exfat_set_cluster>:
    18d0:	55                   	push   %ebp
    18d1:	31 c9                	xor    %ecx,%ecx
    18d3:	89 e5                	mov    %esp,%ebp
    18d5:	57                   	push   %edi
    18d6:	56                   	push   %esi
    18d7:	53                   	push   %ebx
    18d8:	83 ec 3c             	sub    $0x3c,%esp
    18db:	31 ff                	xor    %edi,%edi
    18dd:	8b 45 08             	mov    0x8(%ebp),%eax
    18e0:	8b 5d 10             	mov    0x10(%ebp),%ebx
    18e3:	c1 e3 02             	shl    $0x2,%ebx
    18e6:	c7 44 24 10 00 00 00 	movl   $0x0,0x10(%esp)
    18ed:	00 
    18ee:	8a 48 6c             	mov    0x6c(%eax),%cl
    18f1:	b8 01 00 00 00       	mov    $0x1,%eax
    18f6:	d3 e0                	shl    %cl,%eax
    18f8:	89 44 24 08          	mov    %eax,0x8(%esp)
    18fc:	c7 44 24 0c 00 00 00 	movl   $0x0,0xc(%esp)
    1903:	00 
    1904:	89 1c 24             	mov    %ebx,(%esp)
    1907:	c7 44 24 04 00 00 00 	movl   $0x0,0x4(%esp)
    190e:	00 
    190f:	e8 8c 62 02 00       	call   27ba0 <__udivdi3>
    1914:	8b 4d 08             	mov    0x8(%ebp),%ecx
    1917:	8b 71 50             	mov    0x50(%ecx),%esi
    191a:	01 f0                	add    %esi,%eax
    191c:	11 fa                	adc    %edi,%edx
    191e:	89 44 24 08          	mov    %eax,0x8(%esp)
    1922:	8b 45 0c             	mov    0xc(%ebp),%eax
    1925:	89 54 24 0c          	mov    %edx,0xc(%esp)
    1929:	89 44 24 04          	mov    %eax,0x4(%esp)
    192d:	8d 45 e4             	lea    -0x1c(%ebp),%eax
    1930:	89 04 24             	mov    %eax,(%esp)
    1933:	e8 48 7b 00 00       	call   9480 <block_get>
    1938:	85 c0                	test   %eax,%eax
    193a:	75 44                	jne    1980 <exfat_set_cluster+0xb0>
    193c:	8b 45 08             	mov    0x8(%ebp),%eax
    193f:	31 c9                	xor    %ecx,%ecx
    1941:	be 01 00 00 00       	mov    $0x1,%esi
    1946:	8b 7d e4             	mov    -0x1c(%ebp),%edi
    1949:	8a 48 6c             	mov    0x6c(%eax),%cl
    194c:	c7 44 24 0c 00 00 00 	movl   $0x0,0xc(%esp)
    1953:	00 
    1954:	d3 e6                	shl    %cl,%esi
    1956:	89 74 24 08          	mov    %esi,0x8(%esp)
    195a:	89 1c 24             	mov    %ebx,(%esp)
    195d:	c7 44 24 04 00 00 00 	movl   $0x0,0x4(%esp)
    1964:	00 
    1965:	e8 b6 64 02 00       	call   27e20 <__umoddi3>
    196a:	8b 57 54             	mov    0x54(%edi),%edx
    196d:	01 d0                	add    %edx,%eax
    196f:	8b 55 14             	mov    0x14(%ebp),%edx
    1972:	89 10                	mov    %edx,(%eax)
    1974:	c6 47 14 01          	movb   $0x1,0x14(%edi)
    1978:	89 3c 24             	mov    %edi,(%esp)
    197b:	e8 50 78 00 00       	call   91d0 <block_put>
    1980:	83 c4 3c             	add    $0x3c,%esp
    1983:	5b                   	pop    %ebx
    1984:	5e                   	pop    %esi
    1985:	5f                   	pop    %edi
    1986:	5d                   	pop    %ebp
    1987:	c3                   	ret    
    1988:	90                   	nop
    1989:	8d b4 26 00 00 00 00 	lea    0x0(%esi,%eiz,1),%esi

00001990 <exfat_alloc_clusters>:
    1990:	55                   	push   %ebp
    1991:	89 e5                	mov    %esp,%ebp
    1993:	57                   	push   %edi
    1994:	56                   	push   %esi
    1995:	53                   	push   %ebx
    1996:	83 ec 5c             	sub    $0x5c,%esp
    1999:	8b 45 10             	mov    0x10(%ebp),%eax
    199c:	8b 75 08             	mov    0x8(%ebp),%esi
    199f:	c1 e0 02             	shl    $0x2,%eax
    19a2:	89 04 24             	mov    %eax,(%esp)
    19a5:	e8 26 9b 01 00       	call   1b4d0 <malloc>
    19aa:	89 45 c4             	mov    %eax,-0x3c(%ebp)
    19ad:	85 c0                	test   %eax,%eax
    19af:	0f 84 b8 02 00 00    	je     1c6d <exfat_alloc_clusters+0x2dd>
    19b5:	c7 04 24 e0 af 02 00 	movl   $0x2afe0,(%esp)
    19bc:	e8 ff 0e 01 00       	call   128c0 <fibril_mutex_lock>
    19c1:	8b 46 5c             	mov    0x5c(%esi),%eax
    19c4:	83 c0 02             	add    $0x2,%eax
    19c7:	83 f8 02             	cmp    $0x2,%eax
    19ca:	0f 86 92 02 00 00    	jbe    1c62 <exfat_alloc_clusters+0x2d2>
    19d0:	8b 4d 10             	mov    0x10(%ebp),%ecx
    19d3:	85 c9                	test   %ecx,%ecx
    19d5:	0f 84 8b 02 00 00    	je     1c66 <exfat_alloc_clusters+0x2d6>
    19db:	31 ff                	xor    %edi,%edi
    19dd:	bb 02 00 00 00       	mov    $0x2,%ebx
    19e2:	89 7d d0             	mov    %edi,-0x30(%ebp)
    19e5:	89 df                	mov    %ebx,%edi
    19e7:	90                   	nop
    19e8:	8b 5d 0c             	mov    0xc(%ebp),%ebx
    19eb:	89 7c 24 08          	mov    %edi,0x8(%esp)
    19ef:	89 5c 24 04          	mov    %ebx,0x4(%esp)
    19f3:	89 34 24             	mov    %esi,(%esp)
    19f6:	e8 c5 0d 00 00       	call   27c0 <exfat_bitmap_is_free>
    19fb:	85 c0                	test   %eax,%eax
    19fd:	0f 85 f3 01 00 00    	jne    1bf6 <exfat_alloc_clusters+0x266>
    1a03:	8b 5d d0             	mov    -0x30(%ebp),%ebx
    1a06:	8b 45 c4             	mov    -0x3c(%ebp),%eax
    1a09:	c7 45 c0 ff ff ff ff 	movl   $0xffffffff,-0x40(%ebp)
    1a10:	85 db                	test   %ebx,%ebx
    1a12:	89 3c 98             	mov    %edi,(%eax,%ebx,4)
    1a15:	74 07                	je     1a1e <exfat_alloc_clusters+0x8e>
    1a17:	8b 5c 98 fc          	mov    -0x4(%eax,%ebx,4),%ebx
    1a1b:	89 5d c0             	mov    %ebx,-0x40(%ebp)
    1a1e:	c7 44 24 10 00 00 00 	movl   $0x0,0x10(%esp)
    1a25:	00 
    1a26:	31 c9                	xor    %ecx,%ecx
    1a28:	8a 4e 6c             	mov    0x6c(%esi),%cl
    1a2b:	b8 01 00 00 00       	mov    $0x1,%eax
    1a30:	d3 e0                	shl    %cl,%eax
    1a32:	8d 1c bd 00 00 00 00 	lea    0x0(,%edi,4),%ebx
    1a39:	89 44 24 08          	mov    %eax,0x8(%esp)
    1a3d:	89 1c 24             	mov    %ebx,(%esp)
    1a40:	c7 44 24 0c 00 00 00 	movl   $0x0,0xc(%esp)
    1a47:	00 
    1a48:	c7 44 24 04 00 00 00 	movl   $0x0,0x4(%esp)
    1a4f:	00 
    1a50:	89 5d d4             	mov    %ebx,-0x2c(%ebp)
    1a53:	e8 48 61 02 00       	call   27ba0 <__udivdi3>
    1a58:	8b 4e 50             	mov    0x50(%esi),%ecx
    1a5b:	31 db                	xor    %ebx,%ebx
    1a5d:	01 c8                	add    %ecx,%eax
    1a5f:	11 da                	adc    %ebx,%edx
    1a61:	89 44 24 08          	mov    %eax,0x8(%esp)
    1a65:	8b 5d 0c             	mov    0xc(%ebp),%ebx
    1a68:	8d 45 e4             	lea    -0x1c(%ebp),%eax
    1a6b:	89 54 24 0c          	mov    %edx,0xc(%esp)
    1a6f:	89 5c 24 04          	mov    %ebx,0x4(%esp)
    1a73:	89 04 24             	mov    %eax,(%esp)
    1a76:	e8 05 7a 00 00       	call   9480 <block_get>
    1a7b:	85 c0                	test   %eax,%eax
    1a7d:	0f 84 05 01 00 00    	je     1b88 <exfat_alloc_clusters+0x1f8>
    1a83:	8b 7d d0             	mov    -0x30(%ebp),%edi
    1a86:	89 45 c8             	mov    %eax,-0x38(%ebp)
    1a89:	85 ff                	test   %edi,%edi
    1a8b:	0f 84 d1 00 00 00    	je     1b62 <exfat_alloc_clusters+0x1d2>
    1a91:	89 75 d4             	mov    %esi,-0x2c(%ebp)
    1a94:	8b 75 c4             	mov    -0x3c(%ebp),%esi
    1a97:	90                   	nop
    1a98:	8b 5d 0c             	mov    0xc(%ebp),%ebx
    1a9b:	8b 44 be fc          	mov    -0x4(%esi,%edi,4),%eax
    1a9f:	89 5c 24 04          	mov    %ebx,0x4(%esp)
    1aa3:	8b 5d d4             	mov    -0x2c(%ebp),%ebx
    1aa6:	89 1c 24             	mov    %ebx,(%esp)
    1aa9:	89 44 24 08          	mov    %eax,0x8(%esp)
    1aad:	e8 9e 0f 00 00       	call   2a50 <exfat_bitmap_clear_cluster>
    1ab2:	8b 44 be fc          	mov    -0x4(%esi,%edi,4),%eax
    1ab6:	31 c9                	xor    %ecx,%ecx
    1ab8:	c7 44 24 10 00 00 00 	movl   $0x0,0x10(%esp)
    1abf:	00 
    1ac0:	8a 4b 6c             	mov    0x6c(%ebx),%cl
    1ac3:	ba 01 00 00 00       	mov    $0x1,%edx
    1ac8:	c1 e0 02             	shl    $0x2,%eax
    1acb:	c7 44 24 0c 00 00 00 	movl   $0x0,0xc(%esp)
    1ad2:	00 
    1ad3:	d3 e2                	shl    %cl,%edx
    1ad5:	89 54 24 08          	mov    %edx,0x8(%esp)
    1ad9:	89 04 24             	mov    %eax,(%esp)
    1adc:	c7 44 24 04 00 00 00 	movl   $0x0,0x4(%esp)
    1ae3:	00 
    1ae4:	89 45 d0             	mov    %eax,-0x30(%ebp)
    1ae7:	e8 b4 60 02 00       	call   27ba0 <__udivdi3>
    1aec:	8b 5d d4             	mov    -0x2c(%ebp),%ebx
    1aef:	8b 4b 50             	mov    0x50(%ebx),%ecx
    1af2:	31 db                	xor    %ebx,%ebx
    1af4:	01 c8                	add    %ecx,%eax
    1af6:	11 da                	adc    %ebx,%edx
    1af8:	89 44 24 08          	mov    %eax,0x8(%esp)
    1afc:	8b 5d 0c             	mov    0xc(%ebp),%ebx
    1aff:	8d 45 e4             	lea    -0x1c(%ebp),%eax
    1b02:	89 54 24 0c          	mov    %edx,0xc(%esp)
    1b06:	89 5c 24 04          	mov    %ebx,0x4(%esp)
    1b0a:	89 04 24             	mov    %eax,(%esp)
    1b0d:	e8 6e 79 00 00       	call   9480 <block_get>
    1b12:	85 c0                	test   %eax,%eax
    1b14:	75 45                	jne    1b5b <exfat_alloc_clusters+0x1cb>
    1b16:	8b 55 d4             	mov    -0x2c(%ebp),%edx
    1b19:	31 c9                	xor    %ecx,%ecx
    1b1b:	b0 01                	mov    $0x1,%al
    1b1d:	8b 5d e4             	mov    -0x1c(%ebp),%ebx
    1b20:	8a 4a 6c             	mov    0x6c(%edx),%cl
    1b23:	8b 55 d0             	mov    -0x30(%ebp),%edx
    1b26:	d3 e0                	shl    %cl,%eax
    1b28:	89 44 24 08          	mov    %eax,0x8(%esp)
    1b2c:	c7 44 24 0c 00 00 00 	movl   $0x0,0xc(%esp)
    1b33:	00 
    1b34:	89 14 24             	mov    %edx,(%esp)
    1b37:	c7 44 24 04 00 00 00 	movl   $0x0,0x4(%esp)
    1b3e:	00 
    1b3f:	e8 dc 62 02 00       	call   27e20 <__umoddi3>
    1b44:	8b 4b 54             	mov    0x54(%ebx),%ecx
    1b47:	01 c8                	add    %ecx,%eax
    1b49:	c7 00 00 00 00 00    	movl   $0x0,(%eax)
    1b4f:	c6 43 14 01          	movb   $0x1,0x14(%ebx)
    1b53:	89 1c 24             	mov    %ebx,(%esp)
    1b56:	e8 75 76 00 00       	call   91d0 <block_put>
    1b5b:	4f                   	dec    %edi
    1b5c:	0f 85 36 ff ff ff    	jne    1a98 <exfat_alloc_clusters+0x108>
    1b62:	8b 45 c4             	mov    -0x3c(%ebp),%eax
    1b65:	89 04 24             	mov    %eax,(%esp)
    1b68:	e8 73 9a 01 00       	call   1b5e0 <free>
    1b6d:	c7 04 24 e0 af 02 00 	movl   $0x2afe0,(%esp)
    1b74:	e8 67 0e 01 00       	call   129e0 <fibril_mutex_unlock>
    1b79:	8b 45 c8             	mov    -0x38(%ebp),%eax
    1b7c:	83 c4 5c             	add    $0x5c,%esp
    1b7f:	5b                   	pop    %ebx
    1b80:	5e                   	pop    %esi
    1b81:	5f                   	pop    %edi
    1b82:	5d                   	pop    %ebp
    1b83:	c3                   	ret    
    1b84:	8d 74 26 00          	lea    0x0(%esi,%eiz,1),%esi
    1b88:	31 c9                	xor    %ecx,%ecx
    1b8a:	ba 01 00 00 00       	mov    $0x1,%edx
    1b8f:	8a 4e 6c             	mov    0x6c(%esi),%cl
    1b92:	c7 44 24 0c 00 00 00 	movl   $0x0,0xc(%esp)
    1b99:	00 
    1b9a:	d3 e2                	shl    %cl,%edx
    1b9c:	8b 4d d4             	mov    -0x2c(%ebp),%ecx
    1b9f:	89 54 24 08          	mov    %edx,0x8(%esp)
    1ba3:	89 0c 24             	mov    %ecx,(%esp)
    1ba6:	c7 44 24 04 00 00 00 	movl   $0x0,0x4(%esp)
    1bad:	00 
    1bae:	e8 6d 62 02 00       	call   27e20 <__umoddi3>
    1bb3:	8b 5d e4             	mov    -0x1c(%ebp),%ebx
    1bb6:	8b 53 54             	mov    0x54(%ebx),%edx
    1bb9:	01 d0                	add    %edx,%eax
    1bbb:	8b 55 c0             	mov    -0x40(%ebp),%edx
    1bbe:	89 10                	mov    %edx,(%eax)
    1bc0:	c6 43 14 01          	movb   $0x1,0x14(%ebx)
    1bc4:	89 1c 24             	mov    %ebx,(%esp)
    1bc7:	e8 04 76 00 00       	call   91d0 <block_put>
    1bcc:	85 c0                	test   %eax,%eax
    1bce:	0f 85 af fe ff ff    	jne    1a83 <exfat_alloc_clusters+0xf3>
    1bd4:	8b 5d d0             	mov    -0x30(%ebp),%ebx
    1bd7:	89 7c 24 08          	mov    %edi,0x8(%esp)
    1bdb:	43                   	inc    %ebx
    1bdc:	89 34 24             	mov    %esi,(%esp)
    1bdf:	89 5d d0             	mov    %ebx,-0x30(%ebp)
    1be2:	8b 5d 0c             	mov    0xc(%ebp),%ebx
    1be5:	89 5c 24 04          	mov    %ebx,0x4(%esp)
    1be9:	e8 22 0d 00 00       	call   2910 <exfat_bitmap_set_cluster>
    1bee:	85 c0                	test   %eax,%eax
    1bf0:	0f 85 8d fe ff ff    	jne    1a83 <exfat_alloc_clusters+0xf3>
    1bf6:	8b 46 5c             	mov    0x5c(%esi),%eax
    1bf9:	47                   	inc    %edi
    1bfa:	83 c0 02             	add    $0x2,%eax
    1bfd:	39 f8                	cmp    %edi,%eax
    1bff:	76 0c                	jbe    1c0d <exfat_alloc_clusters+0x27d>
    1c01:	8b 5d 10             	mov    0x10(%ebp),%ebx
    1c04:	39 5d d0             	cmp    %ebx,-0x30(%ebp)
    1c07:	0f 82 db fd ff ff    	jb     19e8 <exfat_alloc_clusters+0x58>
    1c0d:	8b 7d d0             	mov    -0x30(%ebp),%edi
    1c10:	c7 45 c8 fd fe ff ff 	movl   $0xfffffefd,-0x38(%ebp)
    1c17:	39 7d 10             	cmp    %edi,0x10(%ebp)
    1c1a:	0f 85 69 fe ff ff    	jne    1a89 <exfat_alloc_clusters+0xf9>
    1c20:	8b 5d 10             	mov    0x10(%ebp),%ebx
    1c23:	8d 04 9d fc ff ff ff 	lea    -0x4(,%ebx,4),%eax
    1c2a:	8b 4d c4             	mov    -0x3c(%ebp),%ecx
    1c2d:	8b 14 01             	mov    (%ecx,%eax,1),%edx
    1c30:	8b 45 14             	mov    0x14(%ebp),%eax
    1c33:	89 10                	mov    %edx,(%eax)
    1c35:	8b 45 18             	mov    0x18(%ebp),%eax
    1c38:	8b 11                	mov    (%ecx),%edx
    1c3a:	89 10                	mov    %edx,(%eax)
    1c3c:	89 0c 24             	mov    %ecx,(%esp)
    1c3f:	e8 9c 99 01 00       	call   1b5e0 <free>
    1c44:	c7 04 24 e0 af 02 00 	movl   $0x2afe0,(%esp)
    1c4b:	e8 90 0d 01 00       	call   129e0 <fibril_mutex_unlock>
    1c50:	c7 45 c8 00 00 00 00 	movl   $0x0,-0x38(%ebp)
    1c57:	8b 45 c8             	mov    -0x38(%ebp),%eax
    1c5a:	83 c4 5c             	add    $0x5c,%esp
    1c5d:	5b                   	pop    %ebx
    1c5e:	5e                   	pop    %esi
    1c5f:	5f                   	pop    %edi
    1c60:	5d                   	pop    %ebp
    1c61:	c3                   	ret    
    1c62:	31 ff                	xor    %edi,%edi
    1c64:	eb aa                	jmp    1c10 <exfat_alloc_clusters+0x280>
    1c66:	b8 fc ff ff ff       	mov    $0xfffffffc,%eax
    1c6b:	eb bd                	jmp    1c2a <exfat_alloc_clusters+0x29a>
    1c6d:	c7 45 c8 fe ff ff ff 	movl   $0xfffffffe,-0x38(%ebp)
    1c74:	e9 00 ff ff ff       	jmp    1b79 <exfat_alloc_clusters+0x1e9>
    1c79:	8d b4 26 00 00 00 00 	lea    0x0(%esi,%eiz,1),%esi

00001c80 <exfat_free_clusters>:
    1c80:	55                   	push   %ebp
    1c81:	89 e5                	mov    %esp,%ebp
    1c83:	57                   	push   %edi
    1c84:	56                   	push   %esi
    1c85:	53                   	push   %ebx
    1c86:	83 ec 4c             	sub    $0x4c,%esp
    1c89:	8b 5d 08             	mov    0x8(%ebp),%ebx
    1c8c:	83 7d 10 ff          	cmpl   $0xffffffff,0x10(%ebp)
    1c90:	0f 84 aa 01 00 00    	je     1e40 <exfat_free_clusters+0x1c0>
    1c96:	8b 45 10             	mov    0x10(%ebp),%eax
    1c99:	83 e8 02             	sub    $0x2,%eax
    1c9c:	83 f8 f4             	cmp    $0xfffffff4,%eax
    1c9f:	0f 87 7e 01 00 00    	ja     1e23 <exfat_free_clusters+0x1a3>
    1ca5:	89 de                	mov    %ebx,%esi
    1ca7:	90                   	nop
    1ca8:	c7 44 24 10 00 00 00 	movl   $0x0,0x10(%esp)
    1caf:	00 
    1cb0:	31 c9                	xor    %ecx,%ecx
    1cb2:	8a 4e 6c             	mov    0x6c(%esi),%cl
    1cb5:	8b 7d 10             	mov    0x10(%ebp),%edi
    1cb8:	b8 01 00 00 00       	mov    $0x1,%eax
    1cbd:	c7 44 24 0c 00 00 00 	movl   $0x0,0xc(%esp)
    1cc4:	00 
    1cc5:	d3 e0                	shl    %cl,%eax
    1cc7:	c1 e7 02             	shl    $0x2,%edi
    1cca:	89 44 24 08          	mov    %eax,0x8(%esp)
    1cce:	89 3c 24             	mov    %edi,(%esp)
    1cd1:	c7 44 24 04 00 00 00 	movl   $0x0,0x4(%esp)
    1cd8:	00 
    1cd9:	e8 c2 5e 02 00       	call   27ba0 <__udivdi3>
    1cde:	8b 4e 50             	mov    0x50(%esi),%ecx
    1ce1:	31 db                	xor    %ebx,%ebx
    1ce3:	01 c8                	add    %ecx,%eax
    1ce5:	11 da                	adc    %ebx,%edx
    1ce7:	89 44 24 08          	mov    %eax,0x8(%esp)
    1ceb:	8b 45 0c             	mov    0xc(%ebp),%eax
    1cee:	89 54 24 0c          	mov    %edx,0xc(%esp)
    1cf2:	89 44 24 04          	mov    %eax,0x4(%esp)
    1cf6:	8d 45 e4             	lea    -0x1c(%ebp),%eax
    1cf9:	89 04 24             	mov    %eax,(%esp)
    1cfc:	e8 7f 77 00 00       	call   9480 <block_get>
    1d01:	85 c0                	test   %eax,%eax
    1d03:	74 0b                	je     1d10 <exfat_free_clusters+0x90>
    1d05:	83 c4 4c             	add    $0x4c,%esp
    1d08:	5b                   	pop    %ebx
    1d09:	5e                   	pop    %esi
    1d0a:	5f                   	pop    %edi
    1d0b:	5d                   	pop    %ebp
    1d0c:	c3                   	ret    
    1d0d:	8d 76 00             	lea    0x0(%esi),%esi
    1d10:	31 c9                	xor    %ecx,%ecx
    1d12:	b0 01                	mov    $0x1,%al
    1d14:	8a 4e 6c             	mov    0x6c(%esi),%cl
    1d17:	c7 44 24 0c 00 00 00 	movl   $0x0,0xc(%esp)
    1d1e:	00 
    1d1f:	d3 e0                	shl    %cl,%eax
    1d21:	89 44 24 08          	mov    %eax,0x8(%esp)
    1d25:	89 3c 24             	mov    %edi,(%esp)
    1d28:	c7 44 24 04 00 00 00 	movl   $0x0,0x4(%esp)
    1d2f:	00 
    1d30:	8b 5d e4             	mov    -0x1c(%ebp),%ebx
    1d33:	e8 e8 60 02 00       	call   27e20 <__umoddi3>
    1d38:	8b 53 54             	mov    0x54(%ebx),%edx
    1d3b:	01 d0                	add    %edx,%eax
    1d3d:	8b 00                	mov    (%eax),%eax
    1d3f:	89 1c 24             	mov    %ebx,(%esp)
    1d42:	89 45 d4             	mov    %eax,-0x2c(%ebp)
    1d45:	e8 86 74 00 00       	call   91d0 <block_put>
    1d4a:	85 c0                	test   %eax,%eax
    1d4c:	75 b7                	jne    1d05 <exfat_free_clusters+0x85>
    1d4e:	c7 44 24 10 00 00 00 	movl   $0x0,0x10(%esp)
    1d55:	00 
    1d56:	31 c9                	xor    %ecx,%ecx
    1d58:	8a 4e 6c             	mov    0x6c(%esi),%cl
    1d5b:	b0 01                	mov    $0x1,%al
    1d5d:	d3 e0                	shl    %cl,%eax
    1d5f:	89 44 24 08          	mov    %eax,0x8(%esp)
    1d63:	c7 44 24 0c 00 00 00 	movl   $0x0,0xc(%esp)
    1d6a:	00 
    1d6b:	89 3c 24             	mov    %edi,(%esp)
    1d6e:	c7 44 24 04 00 00 00 	movl   $0x0,0x4(%esp)
    1d75:	00 
    1d76:	e8 25 5e 02 00       	call   27ba0 <__udivdi3>
    1d7b:	8b 4e 50             	mov    0x50(%esi),%ecx
    1d7e:	31 db                	xor    %ebx,%ebx
    1d80:	01 c8                	add    %ecx,%eax
    1d82:	11 da                	adc    %ebx,%edx
    1d84:	89 44 24 08          	mov    %eax,0x8(%esp)
    1d88:	8b 45 0c             	mov    0xc(%ebp),%eax
    1d8b:	89 54 24 0c          	mov    %edx,0xc(%esp)
    1d8f:	89 44 24 04          	mov    %eax,0x4(%esp)
    1d93:	8d 45 e4             	lea    -0x1c(%ebp),%eax
    1d96:	89 04 24             	mov    %eax,(%esp)
    1d99:	e8 e2 76 00 00       	call   9480 <block_get>
    1d9e:	85 c0                	test   %eax,%eax
    1da0:	0f 85 5f ff ff ff    	jne    1d05 <exfat_free_clusters+0x85>
    1da6:	31 c9                	xor    %ecx,%ecx
    1da8:	b0 01                	mov    $0x1,%al
    1daa:	8a 4e 6c             	mov    0x6c(%esi),%cl
    1dad:	89 3c 24             	mov    %edi,(%esp)
    1db0:	d3 e0                	shl    %cl,%eax
    1db2:	89 44 24 08          	mov    %eax,0x8(%esp)
    1db6:	c7 44 24 0c 00 00 00 	movl   $0x0,0xc(%esp)
    1dbd:	00 
    1dbe:	c7 44 24 04 00 00 00 	movl   $0x0,0x4(%esp)
    1dc5:	00 
    1dc6:	8b 5d e4             	mov    -0x1c(%ebp),%ebx
    1dc9:	e8 52 60 02 00       	call   27e20 <__umoddi3>
    1dce:	8b 7b 54             	mov    0x54(%ebx),%edi
    1dd1:	01 f8                	add    %edi,%eax
    1dd3:	c7 00 00 00 00 00    	movl   $0x0,(%eax)
    1dd9:	c6 43 14 01          	movb   $0x1,0x14(%ebx)
    1ddd:	89 1c 24             	mov    %ebx,(%esp)
    1de0:	e8 eb 73 00 00       	call   91d0 <block_put>
    1de5:	85 c0                	test   %eax,%eax
    1de7:	0f 85 18 ff ff ff    	jne    1d05 <exfat_free_clusters+0x85>
    1ded:	8b 45 10             	mov    0x10(%ebp),%eax
    1df0:	89 34 24             	mov    %esi,(%esp)
    1df3:	89 44 24 08          	mov    %eax,0x8(%esp)
    1df7:	8b 45 0c             	mov    0xc(%ebp),%eax
    1dfa:	89 44 24 04          	mov    %eax,0x4(%esp)
    1dfe:	e8 4d 0c 00 00       	call   2a50 <exfat_bitmap_clear_cluster>
    1e03:	85 c0                	test   %eax,%eax
    1e05:	0f 85 fa fe ff ff    	jne    1d05 <exfat_free_clusters+0x85>
    1e0b:	83 7d d4 ff          	cmpl   $0xffffffff,-0x2c(%ebp)
    1e0f:	74 2f                	je     1e40 <exfat_free_clusters+0x1c0>
    1e11:	8b 45 d4             	mov    -0x2c(%ebp),%eax
    1e14:	89 45 10             	mov    %eax,0x10(%ebp)
    1e17:	83 e8 02             	sub    $0x2,%eax
    1e1a:	83 f8 f4             	cmp    $0xfffffff4,%eax
    1e1d:	0f 86 85 fe ff ff    	jbe    1ca8 <exfat_free_clusters+0x28>
    1e23:	c7 44 24 08 75 01 00 	movl   $0x175,0x8(%esp)
    1e2a:	00 
    1e2b:	c7 44 24 04 27 83 02 	movl   $0x28327,0x4(%esp)
    1e32:	00 
    1e33:	c7 04 24 88 83 02 00 	movl   $0x28388,(%esp)
    1e3a:	e8 71 3e 02 00       	call   25cb0 <assert_abort>
    1e3f:	90                   	nop
    1e40:	83 c4 4c             	add    $0x4c,%esp
    1e43:	31 c0                	xor    %eax,%eax
    1e45:	5b                   	pop    %ebx
    1e46:	5e                   	pop    %esi
    1e47:	5f                   	pop    %edi
    1e48:	5d                   	pop    %ebp
    1e49:	c3                   	ret    
    1e4a:	8d b6 00 00 00 00    	lea    0x0(%esi),%esi

00001e50 <exfat_append_clusters>:
    1e50:	55                   	push   %ebp
    1e51:	89 e5                	mov    %esp,%ebp
    1e53:	57                   	push   %edi
    1e54:	56                   	push   %esi
    1e55:	53                   	push   %ebx
    1e56:	83 ec 4c             	sub    $0x4c,%esp
    1e59:	8b 5d 0c             	mov    0xc(%ebp),%ebx
    1e5c:	8b 43 18             	mov    0x18(%ebx),%eax
    1e5f:	8b 40 20             	mov    0x20(%eax),%eax
    1e62:	89 45 cc             	mov    %eax,-0x34(%ebp)
    1e65:	8b 43 1c             	mov    0x1c(%ebx),%eax
    1e68:	85 c0                	test   %eax,%eax
    1e6a:	75 24                	jne    1e90 <exfat_append_clusters+0x40>
    1e6c:	8b 45 10             	mov    0x10(%ebp),%eax
    1e6f:	c6 43 38 01          	movb   $0x1,0x38(%ebx)
    1e73:	89 43 1c             	mov    %eax,0x1c(%ebx)
    1e76:	8b 45 14             	mov    0x14(%ebp),%eax
    1e79:	c6 43 3a 01          	movb   $0x1,0x3a(%ebx)
    1e7d:	89 43 3c             	mov    %eax,0x3c(%ebx)
    1e80:	31 c0                	xor    %eax,%eax
    1e82:	83 c4 4c             	add    $0x4c,%esp
    1e85:	5b                   	pop    %ebx
    1e86:	5e                   	pop    %esi
    1e87:	5f                   	pop    %edi
    1e88:	5d                   	pop    %ebp
    1e89:	c3                   	ret    
    1e8a:	8d b6 00 00 00 00    	lea    0x0(%esi),%esi
    1e90:	80 7b 3a 00          	cmpb   $0x0,0x3a(%ebx)
    1e94:	0f 84 c6 00 00 00    	je     1f60 <exfat_append_clusters+0x110>
    1e9a:	8b 7b 3c             	mov    0x3c(%ebx),%edi
    1e9d:	c6 43 3a 00          	movb   $0x0,0x3a(%ebx)
    1ea1:	89 7d e0             	mov    %edi,-0x20(%ebp)
    1ea4:	8b 75 08             	mov    0x8(%ebp),%esi
    1ea7:	c7 44 24 10 00 00 00 	movl   $0x0,0x10(%esp)
    1eae:	00 
    1eaf:	c1 e7 02             	shl    $0x2,%edi
    1eb2:	31 c9                	xor    %ecx,%ecx
    1eb4:	8a 4e 6c             	mov    0x6c(%esi),%cl
    1eb7:	89 7d c8             	mov    %edi,-0x38(%ebp)
    1eba:	bf 01 00 00 00       	mov    $0x1,%edi
    1ebf:	8b 75 c8             	mov    -0x38(%ebp),%esi
    1ec2:	d3 e7                	shl    %cl,%edi
    1ec4:	89 7c 24 08          	mov    %edi,0x8(%esp)
    1ec8:	89 34 24             	mov    %esi,(%esp)
    1ecb:	c7 44 24 0c 00 00 00 	movl   $0x0,0xc(%esp)
    1ed2:	00 
    1ed3:	c7 44 24 04 00 00 00 	movl   $0x0,0x4(%esp)
    1eda:	00 
    1edb:	e8 c0 5c 02 00       	call   27ba0 <__udivdi3>
    1ee0:	8b 7d 08             	mov    0x8(%ebp),%edi
    1ee3:	8b 77 50             	mov    0x50(%edi),%esi
    1ee6:	31 ff                	xor    %edi,%edi
    1ee8:	01 f0                	add    %esi,%eax
    1eea:	8b 75 cc             	mov    -0x34(%ebp),%esi
    1eed:	11 fa                	adc    %edi,%edx
    1eef:	89 44 24 08          	mov    %eax,0x8(%esp)
    1ef3:	8d 45 e4             	lea    -0x1c(%ebp),%eax
    1ef6:	89 54 24 0c          	mov    %edx,0xc(%esp)
    1efa:	89 74 24 04          	mov    %esi,0x4(%esp)
    1efe:	89 04 24             	mov    %eax,(%esp)
    1f01:	e8 7a 75 00 00       	call   9480 <block_get>
    1f06:	85 c0                	test   %eax,%eax
    1f08:	0f 85 74 ff ff ff    	jne    1e82 <exfat_append_clusters+0x32>
    1f0e:	8b 7d 08             	mov    0x8(%ebp),%edi
    1f11:	31 c9                	xor    %ecx,%ecx
    1f13:	b0 01                	mov    $0x1,%al
    1f15:	8b 75 e4             	mov    -0x1c(%ebp),%esi
    1f18:	8a 4f 6c             	mov    0x6c(%edi),%cl
    1f1b:	8b 7d c8             	mov    -0x38(%ebp),%edi
    1f1e:	d3 e0                	shl    %cl,%eax
    1f20:	89 44 24 08          	mov    %eax,0x8(%esp)
    1f24:	c7 44 24 0c 00 00 00 	movl   $0x0,0xc(%esp)
    1f2b:	00 
    1f2c:	89 3c 24             	mov    %edi,(%esp)
    1f2f:	c7 44 24 04 00 00 00 	movl   $0x0,0x4(%esp)
    1f36:	00 
    1f37:	e8 e4 5e 02 00       	call   27e20 <__umoddi3>
    1f3c:	8b 4e 54             	mov    0x54(%esi),%ecx
    1f3f:	01 c8                	add    %ecx,%eax
    1f41:	8b 55 10             	mov    0x10(%ebp),%edx
    1f44:	89 10                	mov    %edx,(%eax)
    1f46:	c6 46 14 01          	movb   $0x1,0x14(%esi)
    1f4a:	89 34 24             	mov    %esi,(%esp)
    1f4d:	e8 7e 72 00 00       	call   91d0 <block_put>
    1f52:	85 c0                	test   %eax,%eax
    1f54:	0f 84 1c ff ff ff    	je     1e76 <exfat_append_clusters+0x26>
    1f5a:	e9 23 ff ff ff       	jmp    1e82 <exfat_append_clusters+0x32>
    1f5f:	90                   	nop
    1f60:	8d 55 e0             	lea    -0x20(%ebp),%edx
    1f63:	8b 75 cc             	mov    -0x34(%ebp),%esi
    1f66:	8b 7d 08             	mov    0x8(%ebp),%edi
    1f69:	c7 44 24 14 ff ff 00 	movl   $0xffff,0x14(%esp)
    1f70:	00 
    1f71:	c7 44 24 10 00 00 00 	movl   $0x0,0x10(%esp)
    1f78:	00 
    1f79:	89 54 24 0c          	mov    %edx,0xc(%esp)
    1f7d:	89 44 24 08          	mov    %eax,0x8(%esp)
    1f81:	89 74 24 04          	mov    %esi,0x4(%esp)
    1f85:	89 3c 24             	mov    %edi,(%esp)
    1f88:	e8 53 f2 ff ff       	call   11e0 <exfat_cluster_walk>
    1f8d:	85 c0                	test   %eax,%eax
    1f8f:	0f 85 ed fe ff ff    	jne    1e82 <exfat_append_clusters+0x32>
    1f95:	8b 43 18             	mov    0x18(%ebx),%eax
    1f98:	8b 7d e0             	mov    -0x20(%ebp),%edi
    1f9b:	8b 40 20             	mov    0x20(%eax),%eax
    1f9e:	89 45 cc             	mov    %eax,-0x34(%ebp)
    1fa1:	e9 fe fe ff ff       	jmp    1ea4 <exfat_append_clusters+0x54>
    1fa6:	8d 76 00             	lea    0x0(%esi),%esi
    1fa9:	8d bc 27 00 00 00 00 	lea    0x0(%edi,%eiz,1),%edi

00001fb0 <exfat_chop_clusters>:
    1fb0:	55                   	push   %ebp
    1fb1:	89 e5                	mov    %esp,%ebp
    1fb3:	57                   	push   %edi
    1fb4:	56                   	push   %esi
    1fb5:	53                   	push   %ebx
    1fb6:	83 ec 4c             	sub    $0x4c,%esp
    1fb9:	8b 75 0c             	mov    0xc(%ebp),%esi
    1fbc:	8b 5d 10             	mov    0x10(%ebp),%ebx
    1fbf:	8b 46 18             	mov    0x18(%esi),%eax
    1fc2:	39 5e 4c             	cmp    %ebx,0x4c(%esi)
    1fc5:	8b 78 20             	mov    0x20(%eax),%edi
    1fc8:	c6 46 3a 00          	movb   $0x0,0x3a(%esi)
    1fcc:	74 04                	je     1fd2 <exfat_chop_clusters+0x22>
    1fce:	c6 46 40 00          	movb   $0x0,0x40(%esi)
    1fd2:	8b 5d 10             	mov    0x10(%ebp),%ebx
    1fd5:	85 db                	test   %ebx,%ebx
    1fd7:	75 3f                	jne    2018 <exfat_chop_clusters+0x68>
    1fd9:	8b 46 1c             	mov    0x1c(%esi),%eax
    1fdc:	8b 5d 08             	mov    0x8(%ebp),%ebx
    1fdf:	89 44 24 08          	mov    %eax,0x8(%esp)
    1fe3:	89 7c 24 04          	mov    %edi,0x4(%esp)
    1fe7:	89 1c 24             	mov    %ebx,(%esp)
    1fea:	e8 91 fc ff ff       	call   1c80 <exfat_free_clusters>
    1fef:	85 c0                	test   %eax,%eax
    1ff1:	75 17                	jne    200a <exfat_chop_clusters+0x5a>
    1ff3:	c7 46 1c 00 00 00 00 	movl   $0x0,0x1c(%esi)
    1ffa:	c6 46 38 01          	movb   $0x1,0x38(%esi)
    1ffe:	8b 5d 10             	mov    0x10(%ebp),%ebx
    2001:	c6 46 3a 01          	movb   $0x1,0x3a(%esi)
    2005:	89 5e 3c             	mov    %ebx,0x3c(%esi)
    2008:	31 c0                	xor    %eax,%eax
    200a:	83 c4 4c             	add    $0x4c,%esp
    200d:	5b                   	pop    %ebx
    200e:	5e                   	pop    %esi
    200f:	5f                   	pop    %edi
    2010:	5d                   	pop    %ebp
    2011:	c3                   	ret    
    2012:	8d b6 00 00 00 00    	lea    0x0(%esi),%esi
    2018:	8b 5d 10             	mov    0x10(%ebp),%ebx
    201b:	c7 44 24 10 00 00 00 	movl   $0x0,0x10(%esp)
    2022:	00 
    2023:	c1 e3 02             	shl    $0x2,%ebx
    2026:	31 c9                	xor    %ecx,%ecx
    2028:	89 5d d4             	mov    %ebx,-0x2c(%ebp)
    202b:	8b 5d 08             	mov    0x8(%ebp),%ebx
    202e:	b8 01 00 00 00       	mov    $0x1,%eax
    2033:	8a 4b 6c             	mov    0x6c(%ebx),%cl
    2036:	8b 5d d4             	mov    -0x2c(%ebp),%ebx
    2039:	d3 e0                	shl    %cl,%eax
    203b:	89 1c 24             	mov    %ebx,(%esp)
    203e:	89 44 24 08          	mov    %eax,0x8(%esp)
    2042:	c7 44 24 0c 00 00 00 	movl   $0x0,0xc(%esp)
    2049:	00 
    204a:	c7 44 24 04 00 00 00 	movl   $0x0,0x4(%esp)
    2051:	00 
    2052:	e8 49 5b 02 00       	call   27ba0 <__udivdi3>
    2057:	8b 5d 08             	mov    0x8(%ebp),%ebx
    205a:	8b 4b 50             	mov    0x50(%ebx),%ecx
    205d:	31 db                	xor    %ebx,%ebx
    205f:	01 c8                	add    %ecx,%eax
    2061:	89 7c 24 04          	mov    %edi,0x4(%esp)
    2065:	11 da                	adc    %ebx,%edx
    2067:	89 44 24 08          	mov    %eax,0x8(%esp)
    206b:	8d 45 e4             	lea    -0x1c(%ebp),%eax
    206e:	89 54 24 0c          	mov    %edx,0xc(%esp)
    2072:	89 04 24             	mov    %eax,(%esp)
    2075:	e8 06 74 00 00       	call   9480 <block_get>
    207a:	85 c0                	test   %eax,%eax
    207c:	75 8c                	jne    200a <exfat_chop_clusters+0x5a>
    207e:	8b 45 08             	mov    0x8(%ebp),%eax
    2081:	31 c9                	xor    %ecx,%ecx
    2083:	8b 5d e4             	mov    -0x1c(%ebp),%ebx
    2086:	8a 48 6c             	mov    0x6c(%eax),%cl
    2089:	b8 01 00 00 00       	mov    $0x1,%eax
    208e:	d3 e0                	shl    %cl,%eax
    2090:	8b 4d d4             	mov    -0x2c(%ebp),%ecx
    2093:	89 44 24 08          	mov    %eax,0x8(%esp)
    2097:	89 0c 24             	mov    %ecx,(%esp)
    209a:	c7 44 24 0c 00 00 00 	movl   $0x0,0xc(%esp)
    20a1:	00 
    20a2:	c7 44 24 04 00 00 00 	movl   $0x0,0x4(%esp)
    20a9:	00 
    20aa:	e8 71 5d 02 00       	call   27e20 <__umoddi3>
    20af:	8b 4b 54             	mov    0x54(%ebx),%ecx
    20b2:	01 c8                	add    %ecx,%eax
    20b4:	8b 00                	mov    (%eax),%eax
    20b6:	89 1c 24             	mov    %ebx,(%esp)
    20b9:	89 45 d0             	mov    %eax,-0x30(%ebp)
    20bc:	e8 0f 71 00 00       	call   91d0 <block_put>
    20c1:	85 c0                	test   %eax,%eax
    20c3:	0f 85 41 ff ff ff    	jne    200a <exfat_chop_clusters+0x5a>
    20c9:	8b 5d 08             	mov    0x8(%ebp),%ebx
    20cc:	c7 44 24 10 00 00 00 	movl   $0x0,0x10(%esp)
    20d3:	00 
    20d4:	31 c9                	xor    %ecx,%ecx
    20d6:	b0 01                	mov    $0x1,%al
    20d8:	8a 4b 6c             	mov    0x6c(%ebx),%cl
    20db:	8b 5d d4             	mov    -0x2c(%ebp),%ebx
    20de:	d3 e0                	shl    %cl,%eax
    20e0:	89 1c 24             	mov    %ebx,(%esp)
    20e3:	89 44 24 08          	mov    %eax,0x8(%esp)
    20e7:	c7 44 24 0c 00 00 00 	movl   $0x0,0xc(%esp)
    20ee:	00 
    20ef:	c7 44 24 04 00 00 00 	movl   $0x0,0x4(%esp)
    20f6:	00 
    20f7:	e8 a4 5a 02 00       	call   27ba0 <__udivdi3>
    20fc:	8b 5d 08             	mov    0x8(%ebp),%ebx
    20ff:	8b 4b 50             	mov    0x50(%ebx),%ecx
    2102:	31 db                	xor    %ebx,%ebx
    2104:	01 c8                	add    %ecx,%eax
    2106:	89 7c 24 04          	mov    %edi,0x4(%esp)
    210a:	11 da                	adc    %ebx,%edx
    210c:	89 44 24 08          	mov    %eax,0x8(%esp)
    2110:	8d 45 e4             	lea    -0x1c(%ebp),%eax
    2113:	89 54 24 0c          	mov    %edx,0xc(%esp)
    2117:	89 04 24             	mov    %eax,(%esp)
    211a:	e8 61 73 00 00       	call   9480 <block_get>
    211f:	85 c0                	test   %eax,%eax
    2121:	0f 85 e3 fe ff ff    	jne    200a <exfat_chop_clusters+0x5a>
    2127:	8b 45 08             	mov    0x8(%ebp),%eax
    212a:	31 c9                	xor    %ecx,%ecx
    212c:	8b 5d e4             	mov    -0x1c(%ebp),%ebx
    212f:	8a 48 6c             	mov    0x6c(%eax),%cl
    2132:	b8 01 00 00 00       	mov    $0x1,%eax
    2137:	d3 e0                	shl    %cl,%eax
    2139:	8b 4d d4             	mov    -0x2c(%ebp),%ecx
    213c:	89 44 24 08          	mov    %eax,0x8(%esp)
    2140:	89 0c 24             	mov    %ecx,(%esp)
    2143:	c7 44 24 0c 00 00 00 	movl   $0x0,0xc(%esp)
    214a:	00 
    214b:	c7 44 24 04 00 00 00 	movl   $0x0,0x4(%esp)
    2152:	00 
    2153:	e8 c8 5c 02 00       	call   27e20 <__umoddi3>
    2158:	8b 53 54             	mov    0x54(%ebx),%edx
    215b:	01 d0                	add    %edx,%eax
    215d:	c7 00 ff ff ff ff    	movl   $0xffffffff,(%eax)
    2163:	c6 43 14 01          	movb   $0x1,0x14(%ebx)
    2167:	89 1c 24             	mov    %ebx,(%esp)
    216a:	e8 61 70 00 00       	call   91d0 <block_put>
    216f:	85 c0                	test   %eax,%eax
    2171:	0f 85 93 fe ff ff    	jne    200a <exfat_chop_clusters+0x5a>
    2177:	8b 5d d0             	mov    -0x30(%ebp),%ebx
    217a:	89 7c 24 04          	mov    %edi,0x4(%esp)
    217e:	89 5c 24 08          	mov    %ebx,0x8(%esp)
    2182:	8b 5d 08             	mov    0x8(%ebp),%ebx
    2185:	89 1c 24             	mov    %ebx,(%esp)
    2188:	e8 f3 fa ff ff       	call   1c80 <exfat_free_clusters>
    218d:	85 c0                	test   %eax,%eax
    218f:	0f 84 69 fe ff ff    	je     1ffe <exfat_chop_clusters+0x4e>
    2195:	e9 70 fe ff ff       	jmp    200a <exfat_chop_clusters+0x5a>
    219a:	8d b6 00 00 00 00    	lea    0x0(%esi),%esi

000021a0 <exfat_zero_cluster>:
    21a0:	55                   	push   %ebp
    21a1:	31 c9                	xor    %ecx,%ecx
    21a3:	89 e5                	mov    %esp,%ebp
    21a5:	57                   	push   %edi
    21a6:	56                   	push   %esi
    21a7:	53                   	push   %ebx
    21a8:	83 ec 4c             	sub    $0x4c,%esp
    21ab:	b8 01 00 00 00       	mov    $0x1,%eax
    21b0:	8b 75 08             	mov    0x8(%ebp),%esi
    21b3:	8a 4e 6d             	mov    0x6d(%esi),%cl
    21b6:	d3 e0                	shl    %cl,%eax
    21b8:	85 c0                	test   %eax,%eax
    21ba:	0f 84 c8 00 00 00    	je     2288 <exfat_zero_cluster+0xe8>
    21c0:	83 7d 10 01          	cmpl   $0x1,0x10(%ebp)
    21c4:	0f 86 ae 00 00 00    	jbe    2278 <exfat_zero_cluster+0xd8>
    21ca:	8b 46 5c             	mov    0x5c(%esi),%eax
    21cd:	83 c0 02             	add    $0x2,%eax
    21d0:	39 45 10             	cmp    %eax,0x10(%ebp)
    21d3:	0f 87 9f 00 00 00    	ja     2278 <exfat_zero_cluster+0xd8>
    21d9:	8b 5d 10             	mov    0x10(%ebp),%ebx
    21dc:	31 c0                	xor    %eax,%eax
    21de:	83 eb 02             	sub    $0x2,%ebx
    21e1:	31 d2                	xor    %edx,%edx
    21e3:	89 5d d4             	mov    %ebx,-0x2c(%ebp)
    21e6:	31 ff                	xor    %edi,%edi
    21e8:	c7 44 24 10 01 00 00 	movl   $0x1,0x10(%esp)
    21ef:	00 
    21f0:	8b 5d d4             	mov    -0x2c(%ebp),%ebx
    21f3:	d3 e3                	shl    %cl,%ebx
    21f5:	8b 4e 58             	mov    0x58(%esi),%ecx
    21f8:	01 d9                	add    %ebx,%ecx
    21fa:	31 db                	xor    %ebx,%ebx
    21fc:	01 c1                	add    %eax,%ecx
    21fe:	8d 45 e4             	lea    -0x1c(%ebp),%eax
    2201:	11 d3                	adc    %edx,%ebx
    2203:	89 4c 24 08          	mov    %ecx,0x8(%esp)
    2207:	89 5c 24 0c          	mov    %ebx,0xc(%esp)
    220b:	8b 5d 0c             	mov    0xc(%ebp),%ebx
    220e:	89 5c 24 04          	mov    %ebx,0x4(%esp)
    2212:	89 04 24             	mov    %eax,(%esp)
    2215:	e8 66 72 00 00       	call   9480 <block_get>
    221a:	85 c0                	test   %eax,%eax
    221c:	75 5f                	jne    227d <exfat_zero_cluster+0xdd>
    221e:	31 c9                	xor    %ecx,%ecx
    2220:	bb 01 00 00 00       	mov    $0x1,%ebx
    2225:	8a 4e 6c             	mov    0x6c(%esi),%cl
    2228:	89 d8                	mov    %ebx,%eax
    222a:	d3 e0                	shl    %cl,%eax
    222c:	89 44 24 08          	mov    %eax,0x8(%esp)
    2230:	8b 45 e4             	mov    -0x1c(%ebp),%eax
    2233:	c7 44 24 04 00 00 00 	movl   $0x0,0x4(%esp)
    223a:	00 
    223b:	8b 40 54             	mov    0x54(%eax),%eax
    223e:	89 04 24             	mov    %eax,(%esp)
    2241:	e8 ca c4 00 00       	call   e710 <memset>
    2246:	8b 45 e4             	mov    -0x1c(%ebp),%eax
    2249:	c6 40 14 01          	movb   $0x1,0x14(%eax)
    224d:	89 04 24             	mov    %eax,(%esp)
    2250:	e8 7b 6f 00 00       	call   91d0 <block_put>
    2255:	85 c0                	test   %eax,%eax
    2257:	75 24                	jne    227d <exfat_zero_cluster+0xdd>
    2259:	31 c9                	xor    %ecx,%ecx
    225b:	47                   	inc    %edi
    225c:	8a 4e 6d             	mov    0x6d(%esi),%cl
    225f:	d3 e3                	shl    %cl,%ebx
    2261:	39 fb                	cmp    %edi,%ebx
    2263:	76 23                	jbe    2288 <exfat_zero_cluster+0xe8>
    2265:	8b 5e 5c             	mov    0x5c(%esi),%ebx
    2268:	31 d2                	xor    %edx,%edx
    226a:	83 c3 02             	add    $0x2,%ebx
    226d:	89 f8                	mov    %edi,%eax
    226f:	39 5d 10             	cmp    %ebx,0x10(%ebp)
    2272:	0f 86 70 ff ff ff    	jbe    21e8 <exfat_zero_cluster+0x48>
    2278:	b8 fd ff ff ff       	mov    $0xfffffffd,%eax
    227d:	83 c4 4c             	add    $0x4c,%esp
    2280:	5b                   	pop    %ebx
    2281:	5e                   	pop    %esi
    2282:	5f                   	pop    %edi
    2283:	5d                   	pop    %ebp
    2284:	c3                   	ret    
    2285:	8d 76 00             	lea    0x0(%esi),%esi
    2288:	83 c4 4c             	add    $0x4c,%esp
    228b:	31 c0                	xor    %eax,%eax
    228d:	5b                   	pop    %ebx
    228e:	5e                   	pop    %esi
    228f:	5f                   	pop    %edi
    2290:	5d                   	pop    %ebp
    2291:	c3                   	ret    
    2292:	8d b4 26 00 00 00 00 	lea    0x0(%esi,%eiz,1),%esi
    2299:	8d bc 27 00 00 00 00 	lea    0x0(%edi,%eiz,1),%edi

000022a0 <exfat_read_uctable>:
    22a0:	55                   	push   %ebp
    22a1:	31 c9                	xor    %ecx,%ecx
    22a3:	89 e5                	mov    %esp,%ebp
    22a5:	57                   	push   %edi
    22a6:	56                   	push   %esi
    22a7:	53                   	push   %ebx
    22a8:	83 ec 7c             	sub    $0x7c,%esp
    22ab:	c7 45 bc 01 00 00 00 	movl   $0x1,-0x44(%ebp)
    22b2:	8b 45 08             	mov    0x8(%ebp),%eax
    22b5:	8b 5d 0c             	mov    0xc(%ebp),%ebx
    22b8:	8a 48 6c             	mov    0x6c(%eax),%cl
    22bb:	8b 73 28             	mov    0x28(%ebx),%esi
    22be:	d3 65 bc             	shll   %cl,-0x44(%ebp)
    22c1:	8b 7b 2c             	mov    0x2c(%ebx),%edi
    22c4:	8b 55 bc             	mov    -0x44(%ebp),%edx
    22c7:	89 54 24 08          	mov    %edx,0x8(%esp)
    22cb:	c7 44 24 0c 00 00 00 	movl   $0x0,0xc(%esp)
    22d2:	00 
    22d3:	89 34 24             	mov    %esi,(%esp)
    22d6:	89 7c 24 04          	mov    %edi,0x4(%esp)
    22da:	e8 41 5b 02 00       	call   27e20 <__umoddi3>
    22df:	8b 4d bc             	mov    -0x44(%ebp),%ecx
    22e2:	09 d0                	or     %edx,%eax
    22e4:	89 4c 24 08          	mov    %ecx,0x8(%esp)
    22e8:	0f 95 c0             	setne  %al
    22eb:	25 ff 00 00 00       	and    $0xff,%eax
    22f0:	c7 44 24 0c 00 00 00 	movl   $0x0,0xc(%esp)
    22f7:	00 
    22f8:	89 34 24             	mov    %esi,(%esp)
    22fb:	89 7c 24 04          	mov    %edi,0x4(%esp)
    22ff:	89 45 c8             	mov    %eax,-0x38(%ebp)
    2302:	c7 45 cc 00 00 00 00 	movl   $0x0,-0x34(%ebp)
    2309:	e8 92 58 02 00       	call   27ba0 <__udivdi3>
    230e:	8b 4d bc             	mov    -0x44(%ebp),%ecx
    2311:	03 45 c8             	add    -0x38(%ebp),%eax
    2314:	c7 44 24 0c 00 00 00 	movl   $0x0,0xc(%esp)
    231b:	00 
    231c:	13 55 cc             	adc    -0x34(%ebp),%edx
    231f:	0f af ca             	imul   %edx,%ecx
    2322:	f7 65 bc             	mull   -0x44(%ebp)
    2325:	01 ca                	add    %ecx,%edx
    2327:	8b 4d bc             	mov    -0x44(%ebp),%ecx
    232a:	89 4c 24 08          	mov    %ecx,0x8(%esp)
    232e:	89 04 24             	mov    %eax,(%esp)
    2331:	89 54 24 04          	mov    %edx,0x4(%esp)
    2335:	e8 66 58 02 00       	call   27ba0 <__udivdi3>
    233a:	89 45 b0             	mov    %eax,-0x50(%ebp)
    233d:	85 c0                	test   %eax,%eax
    233f:	0f 84 e3 03 00 00    	je     2728 <exfat_read_uctable+0x488>
    2345:	8b 43 1c             	mov    0x1c(%ebx),%eax
    2348:	89 fa                	mov    %edi,%edx
    234a:	89 45 d0             	mov    %eax,-0x30(%ebp)
    234d:	09 f2                	or     %esi,%edx
    234f:	0f 84 53 02 00 00    	je     25a8 <exfat_read_uctable+0x308>
    2355:	c7 45 a8 01 00 00 00 	movl   $0x1,-0x58(%ebp)
    235c:	c7 45 ac 00 00 00 00 	movl   $0x0,-0x54(%ebp)
    2363:	c7 45 c0 00 00 00 00 	movl   $0x0,-0x40(%ebp)
    236a:	c7 45 c4 00 00 00 00 	movl   $0x0,-0x3c(%ebp)
    2371:	c7 45 c8 00 00 00 00 	movl   $0x0,-0x38(%ebp)
    2378:	8a 53 39             	mov    0x39(%ebx),%dl
    237b:	88 55 b7             	mov    %dl,-0x49(%ebp)
    237e:	84 d2                	test   %dl,%dl
    2380:	0f 84 b2 00 00 00    	je     2438 <exfat_read_uctable+0x198>
    2386:	8b 45 08             	mov    0x8(%ebp),%eax
    2389:	31 c9                	xor    %ecx,%ecx
    238b:	8a 48 6d             	mov    0x6d(%eax),%cl
    238e:	b8 01 00 00 00       	mov    $0x1,%eax
    2393:	89 c2                	mov    %eax,%edx
    2395:	89 4d b8             	mov    %ecx,-0x48(%ebp)
    2398:	d3 e2                	shl    %cl,%edx
    239a:	89 55 d4             	mov    %edx,-0x2c(%ebp)
    239d:	83 c6 ff             	add    $0xffffffff,%esi
    23a0:	83 d7 ff             	adc    $0xffffffff,%edi
    23a3:	8b 55 08             	mov    0x8(%ebp),%edx
    23a6:	31 c9                	xor    %ecx,%ecx
    23a8:	8a 4a 6c             	mov    0x6c(%edx),%cl
    23ab:	89 34 24             	mov    %esi,(%esp)
    23ae:	d3 e0                	shl    %cl,%eax
    23b0:	89 7c 24 04          	mov    %edi,0x4(%esp)
    23b4:	89 44 24 08          	mov    %eax,0x8(%esp)
    23b8:	c7 44 24 0c 00 00 00 	movl   $0x0,0xc(%esp)
    23bf:	00 
    23c0:	e8 db 57 02 00       	call   27ba0 <__udivdi3>
    23c5:	8b 75 d4             	mov    -0x2c(%ebp),%esi
    23c8:	89 74 24 08          	mov    %esi,0x8(%esp)
    23cc:	c7 44 24 0c 00 00 00 	movl   $0x0,0xc(%esp)
    23d3:	00 
    23d4:	89 04 24             	mov    %eax,(%esp)
    23d7:	89 54 24 04          	mov    %edx,0x4(%esp)
    23db:	e8 c0 57 02 00       	call   27ba0 <__udivdi3>
    23e0:	8b 4d c4             	mov    -0x3c(%ebp),%ecx
    23e3:	89 c7                	mov    %eax,%edi
    23e5:	89 d6                	mov    %edx,%esi
    23e7:	8b 45 d4             	mov    -0x2c(%ebp),%eax
    23ea:	8b 55 c0             	mov    -0x40(%ebp),%edx
    23ed:	89 44 24 08          	mov    %eax,0x8(%esp)
    23f1:	c7 44 24 0c 00 00 00 	movl   $0x0,0xc(%esp)
    23f8:	00 
    23f9:	89 14 24             	mov    %edx,(%esp)
    23fc:	89 4c 24 04          	mov    %ecx,0x4(%esp)
    2400:	e8 9b 57 02 00       	call   27ba0 <__udivdi3>
    2405:	31 f2                	xor    %esi,%edx
    2407:	31 f8                	xor    %edi,%eax
    2409:	09 c2                	or     %eax,%edx
    240b:	0f 84 9f 02 00 00    	je     26b0 <exfat_read_uctable+0x410>
    2411:	8b 75 c0             	mov    -0x40(%ebp),%esi
    2414:	8b 7d c4             	mov    -0x3c(%ebp),%edi
    2417:	80 7b 40 00          	cmpb   $0x0,0x40(%ebx)
    241b:	74 21                	je     243e <exfat_read_uctable+0x19e>
    241d:	8b 43 48             	mov    0x48(%ebx),%eax
    2420:	8b 53 44             	mov    0x44(%ebx),%edx
    2423:	3b 45 c4             	cmp    -0x3c(%ebp),%eax
    2426:	77 10                	ja     2438 <exfat_read_uctable+0x198>
    2428:	0f 82 32 01 00 00    	jb     2560 <exfat_read_uctable+0x2c0>
    242e:	3b 55 c0             	cmp    -0x40(%ebp),%edx
    2431:	0f 86 29 01 00 00    	jbe    2560 <exfat_read_uctable+0x2c0>
    2437:	90                   	nop
    2438:	8b 75 c0             	mov    -0x40(%ebp),%esi
    243b:	8b 7d c4             	mov    -0x3c(%ebp),%edi
    243e:	8b 43 18             	mov    0x18(%ebx),%eax
    2441:	83 7d d0 01          	cmpl   $0x1,-0x30(%ebp)
    2445:	8b 40 20             	mov    0x20(%eax),%eax
    2448:	89 45 d4             	mov    %eax,-0x2c(%ebp)
    244b:	0f 86 57 01 00 00    	jbe    25a8 <exfat_read_uctable+0x308>
    2451:	8b 45 08             	mov    0x8(%ebp),%eax
    2454:	8b 40 5c             	mov    0x5c(%eax),%eax
    2457:	89 45 a4             	mov    %eax,-0x5c(%ebp)
    245a:	83 c0 02             	add    $0x2,%eax
    245d:	39 45 d0             	cmp    %eax,-0x30(%ebp)
    2460:	0f 87 42 01 00 00    	ja     25a8 <exfat_read_uctable+0x308>
    2466:	80 7d b7 00          	cmpb   $0x0,-0x49(%ebp)
    246a:	0f 85 48 01 00 00    	jne    25b8 <exfat_read_uctable+0x318>
    2470:	8b 55 08             	mov    0x8(%ebp),%edx
    2473:	c7 44 24 10 01 00 00 	movl   $0x1,0x10(%esp)
    247a:	00 
    247b:	8b 45 d0             	mov    -0x30(%ebp),%eax
    247e:	31 c9                	xor    %ecx,%ecx
    2480:	8a 4a 6d             	mov    0x6d(%edx),%cl
    2483:	83 e8 02             	sub    $0x2,%eax
    2486:	d3 e0                	shl    %cl,%eax
    2488:	8b 4a 58             	mov    0x58(%edx),%ecx
    248b:	31 d2                	xor    %edx,%edx
    248d:	01 c8                	add    %ecx,%eax
    248f:	01 f0                	add    %esi,%eax
    2491:	8b 75 d4             	mov    -0x2c(%ebp),%esi
    2494:	11 fa                	adc    %edi,%edx
    2496:	89 44 24 08          	mov    %eax,0x8(%esp)
    249a:	8d 45 dc             	lea    -0x24(%ebp),%eax
    249d:	89 54 24 0c          	mov    %edx,0xc(%esp)
    24a1:	89 74 24 04          	mov    %esi,0x4(%esp)
    24a5:	89 04 24             	mov    %eax,(%esp)
    24a8:	e8 d3 6f 00 00       	call   9480 <block_get>
    24ad:	31 d2                	xor    %edx,%edx
    24af:	85 c0                	test   %eax,%eax
    24b1:	0f 85 f6 00 00 00    	jne    25ad <exfat_read_uctable+0x30d>
    24b7:	8b 75 c0             	mov    -0x40(%ebp),%esi
    24ba:	8b 7d c4             	mov    -0x3c(%ebp),%edi
    24bd:	c6 43 40 01          	movb   $0x1,0x40(%ebx)
    24c1:	89 73 44             	mov    %esi,0x44(%ebx)
    24c4:	89 7b 48             	mov    %edi,0x48(%ebx)
    24c7:	89 53 4c             	mov    %edx,0x4c(%ebx)
    24ca:	8b 45 b0             	mov    -0x50(%ebp),%eax
    24cd:	48                   	dec    %eax
    24ce:	3b 45 c8             	cmp    -0x38(%ebp),%eax
    24d1:	0f 84 b9 01 00 00    	je     2690 <exfat_read_uctable+0x3f0>
    24d7:	8b 75 bc             	mov    -0x44(%ebp),%esi
    24da:	8b 45 dc             	mov    -0x24(%ebp),%eax
    24dd:	89 74 24 08          	mov    %esi,0x8(%esp)
    24e1:	8b 7d 10             	mov    0x10(%ebp),%edi
    24e4:	8b 40 54             	mov    0x54(%eax),%eax
    24e7:	89 3c 24             	mov    %edi,(%esp)
    24ea:	89 44 24 04          	mov    %eax,0x4(%esp)
    24ee:	01 f7                	add    %esi,%edi
    24f0:	e8 9b c3 00 00       	call   e890 <memcpy>
    24f5:	8b 45 dc             	mov    -0x24(%ebp),%eax
    24f8:	89 04 24             	mov    %eax,(%esp)
    24fb:	89 7d 10             	mov    %edi,0x10(%ebp)
    24fe:	e8 cd 6c 00 00       	call   91d0 <block_put>
    2503:	85 c0                	test   %eax,%eax
    2505:	0f 85 a2 00 00 00    	jne    25ad <exfat_read_uctable+0x30d>
    250b:	8b 75 c8             	mov    -0x38(%ebp),%esi
    250e:	46                   	inc    %esi
    250f:	89 75 c8             	mov    %esi,-0x38(%ebp)
    2512:	8b 75 c8             	mov    -0x38(%ebp),%esi
    2515:	39 75 b0             	cmp    %esi,-0x50(%ebp)
    2518:	0f 86 0a 02 00 00    	jbe    2728 <exfat_read_uctable+0x488>
    251e:	8b 45 a8             	mov    -0x58(%ebp),%eax
    2521:	8b 55 ac             	mov    -0x54(%ebp),%edx
    2524:	83 c0 01             	add    $0x1,%eax
    2527:	8b 73 1c             	mov    0x1c(%ebx),%esi
    252a:	83 d2 00             	adc    $0x0,%edx
    252d:	8b 4d ac             	mov    -0x54(%ebp),%ecx
    2530:	8b 7b 2c             	mov    0x2c(%ebx),%edi
    2533:	89 75 d0             	mov    %esi,-0x30(%ebp)
    2536:	89 55 9c             	mov    %edx,-0x64(%ebp)
    2539:	8b 73 28             	mov    0x28(%ebx),%esi
    253c:	8b 55 a8             	mov    -0x58(%ebp),%edx
    253f:	89 4d c4             	mov    %ecx,-0x3c(%ebp)
    2542:	89 f9                	mov    %edi,%ecx
    2544:	89 45 98             	mov    %eax,-0x68(%ebp)
    2547:	89 55 c0             	mov    %edx,-0x40(%ebp)
    254a:	09 f1                	or     %esi,%ecx
    254c:	74 5a                	je     25a8 <exfat_read_uctable+0x308>
    254e:	8b 45 98             	mov    -0x68(%ebp),%eax
    2551:	8b 55 9c             	mov    -0x64(%ebp),%edx
    2554:	89 45 a8             	mov    %eax,-0x58(%ebp)
    2557:	89 55 ac             	mov    %edx,-0x54(%ebp)
    255a:	e9 19 fe ff ff       	jmp    2378 <exfat_read_uctable+0xd8>
    255f:	90                   	nop
    2560:	8b 7d d4             	mov    -0x2c(%ebp),%edi
    2563:	8b 73 4c             	mov    0x4c(%ebx),%esi
    2566:	89 7c 24 08          	mov    %edi,0x8(%esp)
    256a:	c7 44 24 0c 00 00 00 	movl   $0x0,0xc(%esp)
    2571:	00 
    2572:	89 14 24             	mov    %edx,(%esp)
    2575:	89 44 24 04          	mov    %eax,0x4(%esp)
    2579:	89 75 d0             	mov    %esi,-0x30(%ebp)
    257c:	e8 1f 56 02 00       	call   27ba0 <__udivdi3>
    2581:	89 d1                	mov    %edx,%ecx
    2583:	8b 75 c0             	mov    -0x40(%ebp),%esi
    2586:	f7 e7                	mul    %edi
    2588:	0f af cf             	imul   %edi,%ecx
    258b:	01 ca                	add    %ecx,%edx
    258d:	29 c6                	sub    %eax,%esi
    258f:	8b 43 18             	mov    0x18(%ebx),%eax
    2592:	8b 7d c4             	mov    -0x3c(%ebp),%edi
    2595:	19 d7                	sbb    %edx,%edi
    2597:	8b 40 20             	mov    0x20(%eax),%eax
    259a:	89 45 d4             	mov    %eax,-0x2c(%ebp)
    259d:	83 7d d0 01          	cmpl   $0x1,-0x30(%ebp)
    25a1:	0f 87 aa fe ff ff    	ja     2451 <exfat_read_uctable+0x1b1>
    25a7:	90                   	nop
    25a8:	b8 fd ff ff ff       	mov    $0xfffffffd,%eax
    25ad:	83 c4 7c             	add    $0x7c,%esp
    25b0:	5b                   	pop    %ebx
    25b1:	5e                   	pop    %esi
    25b2:	5f                   	pop    %edi
    25b3:	5d                   	pop    %ebp
    25b4:	c3                   	ret    
    25b5:	8d 76 00             	lea    0x0(%esi),%esi
    25b8:	8b 45 08             	mov    0x8(%ebp),%eax
    25bb:	31 c9                	xor    %ecx,%ecx
    25bd:	ba 01 00 00 00       	mov    $0x1,%edx
    25c2:	8a 48 6d             	mov    0x6d(%eax),%cl
    25c5:	c7 44 24 0c 00 00 00 	movl   $0x0,0xc(%esp)
    25cc:	00 
    25cd:	d3 e2                	shl    %cl,%edx
    25cf:	89 54 24 08          	mov    %edx,0x8(%esp)
    25d3:	89 34 24             	mov    %esi,(%esp)
    25d6:	89 7c 24 04          	mov    %edi,0x4(%esp)
    25da:	e8 c1 55 02 00       	call   27ba0 <__udivdi3>
    25df:	8d 4d e0             	lea    -0x20(%ebp),%ecx
    25e2:	89 c2                	mov    %eax,%edx
    25e4:	89 44 24 14          	mov    %eax,0x14(%esp)
    25e8:	89 4c 24 10          	mov    %ecx,0x10(%esp)
    25ec:	8d 45 e4             	lea    -0x1c(%ebp),%eax
    25ef:	8b 4d d0             	mov    -0x30(%ebp),%ecx
    25f2:	89 44 24 0c          	mov    %eax,0xc(%esp)
    25f6:	89 4c 24 08          	mov    %ecx,0x8(%esp)
    25fa:	8b 45 d4             	mov    -0x2c(%ebp),%eax
    25fd:	8b 4d 08             	mov    0x8(%ebp),%ecx
    2600:	89 44 24 04          	mov    %eax,0x4(%esp)
    2604:	89 0c 24             	mov    %ecx,(%esp)
    2607:	89 55 a0             	mov    %edx,-0x60(%ebp)
    260a:	e8 d1 eb ff ff       	call   11e0 <exfat_cluster_walk>
    260f:	8b 55 a0             	mov    -0x60(%ebp),%edx
    2612:	85 c0                	test   %eax,%eax
    2614:	75 97                	jne    25ad <exfat_read_uctable+0x30d>
    2616:	3b 55 e0             	cmp    -0x20(%ebp),%edx
    2619:	0f 85 13 01 00 00    	jne    2732 <exfat_read_uctable+0x492>
    261f:	8b 45 08             	mov    0x8(%ebp),%eax
    2622:	31 c9                	xor    %ecx,%ecx
    2624:	8a 48 6d             	mov    0x6d(%eax),%cl
    2627:	b8 01 00 00 00       	mov    $0x1,%eax
    262c:	d3 e0                	shl    %cl,%eax
    262e:	89 34 24             	mov    %esi,(%esp)
    2631:	89 7c 24 04          	mov    %edi,0x4(%esp)
    2635:	89 44 24 08          	mov    %eax,0x8(%esp)
    2639:	c7 44 24 0c 00 00 00 	movl   $0x0,0xc(%esp)
    2640:	00 
    2641:	89 4d a0             	mov    %ecx,-0x60(%ebp)
    2644:	c7 44 24 10 01 00 00 	movl   $0x1,0x10(%esp)
    264b:	00 
    264c:	e8 cf 57 02 00       	call   27e20 <__umoddi3>
    2651:	8b 7d 08             	mov    0x8(%ebp),%edi
    2654:	8b 75 e4             	mov    -0x1c(%ebp),%esi
    2657:	8b 4d a0             	mov    -0x60(%ebp),%ecx
    265a:	83 ee 02             	sub    $0x2,%esi
    265d:	d3 e6                	shl    %cl,%esi
    265f:	8b 4f 58             	mov    0x58(%edi),%ecx
    2662:	31 ff                	xor    %edi,%edi
    2664:	01 ce                	add    %ecx,%esi
    2666:	01 f0                	add    %esi,%eax
    2668:	8b 75 d4             	mov    -0x2c(%ebp),%esi
    266b:	11 fa                	adc    %edi,%edx
    266d:	89 44 24 08          	mov    %eax,0x8(%esp)
    2671:	8d 45 dc             	lea    -0x24(%ebp),%eax
    2674:	89 54 24 0c          	mov    %edx,0xc(%esp)
    2678:	89 74 24 04          	mov    %esi,0x4(%esp)
    267c:	89 04 24             	mov    %eax,(%esp)
    267f:	e8 fc 6d 00 00       	call   9480 <block_get>
    2684:	8b 55 e4             	mov    -0x1c(%ebp),%edx
    2687:	e9 23 fe ff ff       	jmp    24af <exfat_read_uctable+0x20f>
    268c:	8d 74 26 00          	lea    0x0(%esi,%eiz,1),%esi
    2690:	8b 7d 08             	mov    0x8(%ebp),%edi
    2693:	31 c9                	xor    %ecx,%ecx
    2695:	8b 75 c8             	mov    -0x38(%ebp),%esi
    2698:	8a 4f 6c             	mov    0x6c(%edi),%cl
    269b:	8b 7b 28             	mov    0x28(%ebx),%edi
    269e:	d3 e6                	shl    %cl,%esi
    26a0:	29 f7                	sub    %esi,%edi
    26a2:	89 7d bc             	mov    %edi,-0x44(%ebp)
    26a5:	e9 2d fe ff ff       	jmp    24d7 <exfat_read_uctable+0x237>
    26aa:	8d b6 00 00 00 00    	lea    0x0(%esi),%esi
    26b0:	80 7b 3a 00          	cmpb   $0x0,0x3a(%ebx)
    26b4:	0f 84 57 fd ff ff    	je     2411 <exfat_read_uctable+0x171>
    26ba:	8b 75 d4             	mov    -0x2c(%ebp),%esi
    26bd:	8b 7d c4             	mov    -0x3c(%ebp),%edi
    26c0:	89 74 24 08          	mov    %esi,0x8(%esp)
    26c4:	8b 75 c0             	mov    -0x40(%ebp),%esi
    26c7:	89 34 24             	mov    %esi,(%esp)
    26ca:	89 7c 24 04          	mov    %edi,0x4(%esp)
    26ce:	c7 44 24 0c 00 00 00 	movl   $0x0,0xc(%esp)
    26d5:	00 
    26d6:	c7 44 24 10 01 00 00 	movl   $0x1,0x10(%esp)
    26dd:	00 
    26de:	e8 3d 57 02 00       	call   27e20 <__umoddi3>
    26e3:	8b 73 3c             	mov    0x3c(%ebx),%esi
    26e6:	8b 7d 08             	mov    0x8(%ebp),%edi
    26e9:	8a 4d b8             	mov    -0x48(%ebp),%cl
    26ec:	83 ee 02             	sub    $0x2,%esi
    26ef:	d3 e6                	shl    %cl,%esi
    26f1:	8b 4f 58             	mov    0x58(%edi),%ecx
    26f4:	31 ff                	xor    %edi,%edi
    26f6:	01 ce                	add    %ecx,%esi
    26f8:	01 f0                	add    %esi,%eax
    26fa:	11 fa                	adc    %edi,%edx
    26fc:	89 44 24 08          	mov    %eax,0x8(%esp)
    2700:	89 54 24 0c          	mov    %edx,0xc(%esp)
    2704:	8b 43 18             	mov    0x18(%ebx),%eax
    2707:	8b 40 20             	mov    0x20(%eax),%eax
    270a:	89 44 24 04          	mov    %eax,0x4(%esp)
    270e:	8d 45 dc             	lea    -0x24(%ebp),%eax
    2711:	89 04 24             	mov    %eax,(%esp)
    2714:	e8 67 6d 00 00       	call   9480 <block_get>
    2719:	85 c0                	test   %eax,%eax
    271b:	0f 84 a9 fd ff ff    	je     24ca <exfat_read_uctable+0x22a>
    2721:	e9 87 fe ff ff       	jmp    25ad <exfat_read_uctable+0x30d>
    2726:	66 90                	xchg   %ax,%ax
    2728:	83 c4 7c             	add    $0x7c,%esp
    272b:	31 c0                	xor    %eax,%eax
    272d:	5b                   	pop    %ebx
    272e:	5e                   	pop    %esi
    272f:	5f                   	pop    %edi
    2730:	5d                   	pop    %ebp
    2731:	c3                   	ret    
    2732:	c7 44 24 08 d1 00 00 	movl   $0xd1,0x8(%esp)
    2739:	00 
    273a:	c7 44 24 04 27 83 02 	movl   $0x28327,0x4(%esp)
    2741:	00 
    2742:	c7 04 24 63 83 02 00 	movl   $0x28363,(%esp)
    2749:	e8 62 35 02 00       	call   25cb0 <assert_abort>
    274e:	66 90                	xchg   %ax,%ax

00002750 <exfat_sanity_check>:
    2750:	55                   	push   %ebp
    2751:	89 e5                	mov    %esp,%ebp
    2753:	53                   	push   %ebx
    2754:	83 ec 14             	sub    $0x14,%esp
    2757:	8b 5d 08             	mov    0x8(%ebp),%ebx
    275a:	c7 44 24 04 7c 83 02 	movl   $0x2837c,0x4(%esp)
    2761:	00 
    2762:	8d 43 03             	lea    0x3(%ebx),%eax
    2765:	89 04 24             	mov    %eax,(%esp)
    2768:	e8 63 d4 00 00       	call   fbd0 <str_cmp>
    276d:	85 c0                	test   %eax,%eax
    276f:	75 3f                	jne    27b0 <exfat_sanity_check+0x60>
    2771:	66 81 bb fe 01 00 00 	cmpw   $0xaa55,0x1fe(%ebx)
    2778:	55 aa 
    277a:	75 34                	jne    27b0 <exfat_sanity_check+0x60>
    277c:	8b 43 54             	mov    0x54(%ebx),%eax
    277f:	85 c0                	test   %eax,%eax
    2781:	74 2d                	je     27b0 <exfat_sanity_check+0x60>
    2783:	8b 43 5c             	mov    0x5c(%ebx),%eax
    2786:	85 c0                	test   %eax,%eax
    2788:	74 26                	je     27b0 <exfat_sanity_check+0x60>
    278a:	80 7b 6e 01          	cmpb   $0x1,0x6e(%ebx)
    278e:	75 20                	jne    27b0 <exfat_sanity_check+0x60>
    2790:	31 d2                	xor    %edx,%edx
    2792:	31 c0                	xor    %eax,%eax
    2794:	8a 53 6c             	mov    0x6c(%ebx),%dl
    2797:	8a 43 6d             	mov    0x6d(%ebx),%al
    279a:	01 d0                	add    %edx,%eax
    279c:	83 f8 19             	cmp    $0x19,%eax
    279f:	7f 0f                	jg     27b0 <exfat_sanity_check+0x60>
    27a1:	83 c4 14             	add    $0x14,%esp
    27a4:	31 c0                	xor    %eax,%eax
    27a6:	5b                   	pop    %ebx
    27a7:	5d                   	pop    %ebp
    27a8:	c3                   	ret    
    27a9:	8d b4 26 00 00 00 00 	lea    0x0(%esi,%eiz,1),%esi
    27b0:	83 c4 14             	add    $0x14,%esp
    27b3:	b8 f5 ff ff ff       	mov    $0xfffffff5,%eax
    27b8:	5b                   	pop    %ebx
    27b9:	5d                   	pop    %ebp
    27ba:	c3                   	ret    
    27bb:	66 90                	xchg   %ax,%ax
    27bd:	66 90                	xchg   %ax,%ax
    27bf:	90                   	nop

000027c0 <exfat_bitmap_is_free>:
    27c0:	55                   	push   %ebp
    27c1:	89 e5                	mov    %esp,%ebp
    27c3:	57                   	push   %edi
    27c4:	56                   	push   %esi
    27c5:	53                   	push   %ebx
    27c6:	83 ec 4c             	sub    $0x4c,%esp
    27c9:	c7 45 e4 00 00 00 00 	movl   $0x0,-0x1c(%ebp)
    27d0:	8b 45 0c             	mov    0xc(%ebp),%eax
    27d3:	89 44 24 04          	mov    %eax,0x4(%esp)
    27d7:	8d 45 e0             	lea    -0x20(%ebp),%eax
    27da:	89 04 24             	mov    %eax,(%esp)
    27dd:	e8 6e 3d 00 00       	call   6550 <exfat_bitmap_get>
    27e2:	89 c7                	mov    %eax,%edi
    27e4:	85 c0                	test   %eax,%eax
    27e6:	0f 85 d9 00 00 00    	jne    28c5 <exfat_bitmap_is_free+0x105>
    27ec:	8b 45 e0             	mov    -0x20(%ebp),%eax
    27ef:	85 c0                	test   %eax,%eax
    27f1:	0f 84 01 01 00 00    	je     28f8 <exfat_bitmap_is_free+0x138>
    27f7:	8b 78 10             	mov    0x10(%eax),%edi
    27fa:	8b 45 10             	mov    0x10(%ebp),%eax
    27fd:	c7 44 24 14 00 00 00 	movl   $0x0,0x14(%esp)
    2804:	00 
    2805:	83 e8 02             	sub    $0x2,%eax
    2808:	31 c9                	xor    %ecx,%ecx
    280a:	89 45 d4             	mov    %eax,-0x2c(%ebp)
    280d:	89 c6                	mov    %eax,%esi
    280f:	8b 45 08             	mov    0x8(%ebp),%eax
    2812:	bb 01 00 00 00       	mov    $0x1,%ebx
    2817:	c1 ee 03             	shr    $0x3,%esi
    281a:	8a 48 6c             	mov    0x6c(%eax),%cl
    281d:	89 d8                	mov    %ebx,%eax
    281f:	d3 e0                	shl    %cl,%eax
    2821:	89 44 24 08          	mov    %eax,0x8(%esp)
    2825:	c7 44 24 0c 00 00 00 	movl   $0x0,0xc(%esp)
    282c:	00 
    282d:	89 34 24             	mov    %esi,(%esp)
    2830:	c7 44 24 04 00 00 00 	movl   $0x0,0x4(%esp)
    2837:	00 
    2838:	e8 63 53 02 00       	call   27ba0 <__udivdi3>
    283d:	89 7c 24 08          	mov    %edi,0x8(%esp)
    2841:	89 44 24 0c          	mov    %eax,0xc(%esp)
    2845:	8b 45 08             	mov    0x8(%ebp),%eax
    2848:	89 44 24 04          	mov    %eax,0x4(%esp)
    284c:	8d 45 e4             	lea    -0x1c(%ebp),%eax
    284f:	89 54 24 10          	mov    %edx,0x10(%esp)
    2853:	89 04 24             	mov    %eax,(%esp)
    2856:	e8 85 ed ff ff       	call   15e0 <exfat_block_get>
    285b:	89 c7                	mov    %eax,%edi
    285d:	85 c0                	test   %eax,%eax
    285f:	75 6f                	jne    28d0 <exfat_bitmap_is_free+0x110>
    2861:	8b 45 08             	mov    0x8(%ebp),%eax
    2864:	31 c9                	xor    %ecx,%ecx
    2866:	8b 7d e4             	mov    -0x1c(%ebp),%edi
    2869:	8a 48 6c             	mov    0x6c(%eax),%cl
    286c:	89 d8                	mov    %ebx,%eax
    286e:	d3 e0                	shl    %cl,%eax
    2870:	89 34 24             	mov    %esi,(%esp)
    2873:	89 44 24 08          	mov    %eax,0x8(%esp)
    2877:	c7 44 24 0c 00 00 00 	movl   $0x0,0xc(%esp)
    287e:	00 
    287f:	c7 44 24 04 00 00 00 	movl   $0x0,0x4(%esp)
    2886:	00 
    2887:	e8 94 55 02 00       	call   27e20 <__umoddi3>
    288c:	8b 57 54             	mov    0x54(%edi),%edx
    288f:	01 d0                	add    %edx,%eax
    2891:	0f b6 30             	movzbl (%eax),%esi
    2894:	89 3c 24             	mov    %edi,(%esp)
    2897:	e8 34 69 00 00       	call   91d0 <block_put>
    289c:	89 c7                	mov    %eax,%edi
    289e:	8b 45 e0             	mov    -0x20(%ebp),%eax
    28a1:	89 04 24             	mov    %eax,(%esp)
    28a4:	85 ff                	test   %edi,%edi
    28a6:	75 40                	jne    28e8 <exfat_bitmap_is_free+0x128>
    28a8:	e8 d3 0b 00 00       	call   3480 <exfat_node_put>
    28ad:	89 c7                	mov    %eax,%edi
    28af:	85 c0                	test   %eax,%eax
    28b1:	75 12                	jne    28c5 <exfat_bitmap_is_free+0x105>
    28b3:	8b 4d d4             	mov    -0x2c(%ebp),%ecx
    28b6:	81 e6 ff 00 00 00    	and    $0xff,%esi
    28bc:	83 e1 07             	and    $0x7,%ecx
    28bf:	d3 e3                	shl    %cl,%ebx
    28c1:	85 de                	test   %ebx,%esi
    28c3:	75 3a                	jne    28ff <exfat_bitmap_is_free+0x13f>
    28c5:	83 c4 4c             	add    $0x4c,%esp
    28c8:	89 f8                	mov    %edi,%eax
    28ca:	5b                   	pop    %ebx
    28cb:	5e                   	pop    %esi
    28cc:	5f                   	pop    %edi
    28cd:	5d                   	pop    %ebp
    28ce:	c3                   	ret    
    28cf:	90                   	nop
    28d0:	8b 45 e0             	mov    -0x20(%ebp),%eax
    28d3:	89 04 24             	mov    %eax,(%esp)
    28d6:	e8 a5 0b 00 00       	call   3480 <exfat_node_put>
    28db:	83 c4 4c             	add    $0x4c,%esp
    28de:	89 f8                	mov    %edi,%eax
    28e0:	5b                   	pop    %ebx
    28e1:	5e                   	pop    %esi
    28e2:	5f                   	pop    %edi
    28e3:	5d                   	pop    %ebp
    28e4:	c3                   	ret    
    28e5:	8d 76 00             	lea    0x0(%esi),%esi
    28e8:	e8 93 0b 00 00       	call   3480 <exfat_node_put>
    28ed:	83 c4 4c             	add    $0x4c,%esp
    28f0:	89 f8                	mov    %edi,%eax
    28f2:	5b                   	pop    %ebx
    28f3:	5e                   	pop    %esi
    28f4:	5f                   	pop    %edi
    28f5:	5d                   	pop    %ebp
    28f6:	c3                   	ret    
    28f7:	90                   	nop
    28f8:	31 ff                	xor    %edi,%edi
    28fa:	e9 fb fe ff ff       	jmp    27fa <exfat_bitmap_is_free+0x3a>
    28ff:	83 cf ff             	or     $0xffffffff,%edi
    2902:	eb c1                	jmp    28c5 <exfat_bitmap_is_free+0x105>
    2904:	8d b6 00 00 00 00    	lea    0x0(%esi),%esi
    290a:	8d bf 00 00 00 00    	lea    0x0(%edi),%edi

00002910 <exfat_bitmap_set_cluster>:
    2910:	55                   	push   %ebp
    2911:	89 e5                	mov    %esp,%ebp
    2913:	57                   	push   %edi
    2914:	56                   	push   %esi
    2915:	53                   	push   %ebx
    2916:	83 ec 4c             	sub    $0x4c,%esp
    2919:	c7 45 e4 00 00 00 00 	movl   $0x0,-0x1c(%ebp)
    2920:	8b 45 0c             	mov    0xc(%ebp),%eax
    2923:	89 44 24 04          	mov    %eax,0x4(%esp)
    2927:	8d 45 e0             	lea    -0x20(%ebp),%eax
    292a:	89 04 24             	mov    %eax,(%esp)
    292d:	e8 1e 3c 00 00       	call   6550 <exfat_bitmap_get>
    2932:	89 c7                	mov    %eax,%edi
    2934:	85 c0                	test   %eax,%eax
    2936:	0f 85 d1 00 00 00    	jne    2a0d <exfat_bitmap_set_cluster+0xfd>
    293c:	8b 45 e0             	mov    -0x20(%ebp),%eax
    293f:	85 c0                	test   %eax,%eax
    2941:	0f 84 f9 00 00 00    	je     2a40 <exfat_bitmap_set_cluster+0x130>
    2947:	8b 78 10             	mov    0x10(%eax),%edi
    294a:	8b 45 10             	mov    0x10(%ebp),%eax
    294d:	c7 44 24 14 00 00 00 	movl   $0x0,0x14(%esp)
    2954:	00 
    2955:	83 e8 02             	sub    $0x2,%eax
    2958:	31 c9                	xor    %ecx,%ecx
    295a:	89 45 d4             	mov    %eax,-0x2c(%ebp)
    295d:	89 c6                	mov    %eax,%esi
    295f:	8b 45 08             	mov    0x8(%ebp),%eax
    2962:	bb 01 00 00 00       	mov    $0x1,%ebx
    2967:	c1 ee 03             	shr    $0x3,%esi
    296a:	8a 48 6c             	mov    0x6c(%eax),%cl
    296d:	89 d8                	mov    %ebx,%eax
    296f:	d3 e0                	shl    %cl,%eax
    2971:	89 44 24 08          	mov    %eax,0x8(%esp)
    2975:	c7 44 24 0c 00 00 00 	movl   $0x0,0xc(%esp)
    297c:	00 
    297d:	89 34 24             	mov    %esi,(%esp)
    2980:	c7 44 24 04 00 00 00 	movl   $0x0,0x4(%esp)
    2987:	00 
    2988:	e8 13 52 02 00       	call   27ba0 <__udivdi3>
    298d:	89 7c 24 08          	mov    %edi,0x8(%esp)
    2991:	89 44 24 0c          	mov    %eax,0xc(%esp)
    2995:	8b 45 08             	mov    0x8(%ebp),%eax
    2998:	89 44 24 04          	mov    %eax,0x4(%esp)
    299c:	8d 45 e4             	lea    -0x1c(%ebp),%eax
    299f:	89 54 24 10          	mov    %edx,0x10(%esp)
    29a3:	89 04 24             	mov    %eax,(%esp)
    29a6:	e8 35 ec ff ff       	call   15e0 <exfat_block_get>
    29ab:	89 c7                	mov    %eax,%edi
    29ad:	85 c0                	test   %eax,%eax
    29af:	75 67                	jne    2a18 <exfat_bitmap_set_cluster+0x108>
    29b1:	8b 45 08             	mov    0x8(%ebp),%eax
    29b4:	31 c9                	xor    %ecx,%ecx
    29b6:	8b 7d e4             	mov    -0x1c(%ebp),%edi
    29b9:	8a 48 6c             	mov    0x6c(%eax),%cl
    29bc:	89 d8                	mov    %ebx,%eax
    29be:	d3 e0                	shl    %cl,%eax
    29c0:	89 44 24 08          	mov    %eax,0x8(%esp)
    29c4:	c7 44 24 0c 00 00 00 	movl   $0x0,0xc(%esp)
    29cb:	00 
    29cc:	89 34 24             	mov    %esi,(%esp)
    29cf:	c7 44 24 04 00 00 00 	movl   $0x0,0x4(%esp)
    29d6:	00 
    29d7:	e8 44 54 02 00       	call   27e20 <__umoddi3>
    29dc:	8b 4f 54             	mov    0x54(%edi),%ecx
    29df:	01 c8                	add    %ecx,%eax
    29e1:	8b 4d d4             	mov    -0x2c(%ebp),%ecx
    29e4:	83 e1 07             	and    $0x7,%ecx
    29e7:	d3 e3                	shl    %cl,%ebx
    29e9:	08 18                	or     %bl,(%eax)
    29eb:	8b 45 e4             	mov    -0x1c(%ebp),%eax
    29ee:	c6 40 14 01          	movb   $0x1,0x14(%eax)
    29f2:	89 04 24             	mov    %eax,(%esp)
    29f5:	e8 d6 67 00 00       	call   91d0 <block_put>
    29fa:	89 c7                	mov    %eax,%edi
    29fc:	8b 45 e0             	mov    -0x20(%ebp),%eax
    29ff:	89 04 24             	mov    %eax,(%esp)
    2a02:	85 ff                	test   %edi,%edi
    2a04:	75 2a                	jne    2a30 <exfat_bitmap_set_cluster+0x120>
    2a06:	e8 75 0a 00 00       	call   3480 <exfat_node_put>
    2a0b:	89 c7                	mov    %eax,%edi
    2a0d:	83 c4 4c             	add    $0x4c,%esp
    2a10:	89 f8                	mov    %edi,%eax
    2a12:	5b                   	pop    %ebx
    2a13:	5e                   	pop    %esi
    2a14:	5f                   	pop    %edi
    2a15:	5d                   	pop    %ebp
    2a16:	c3                   	ret    
    2a17:	90                   	nop
    2a18:	8b 45 e0             	mov    -0x20(%ebp),%eax
    2a1b:	89 04 24             	mov    %eax,(%esp)
    2a1e:	e8 5d 0a 00 00       	call   3480 <exfat_node_put>
    2a23:	83 c4 4c             	add    $0x4c,%esp
    2a26:	89 f8                	mov    %edi,%eax
    2a28:	5b                   	pop    %ebx
    2a29:	5e                   	pop    %esi
    2a2a:	5f                   	pop    %edi
    2a2b:	5d                   	pop    %ebp
    2a2c:	c3                   	ret    
    2a2d:	8d 76 00             	lea    0x0(%esi),%esi
    2a30:	e8 4b 0a 00 00       	call   3480 <exfat_node_put>
    2a35:	83 c4 4c             	add    $0x4c,%esp
    2a38:	89 f8                	mov    %edi,%eax
    2a3a:	5b                   	pop    %ebx
    2a3b:	5e                   	pop    %esi
    2a3c:	5f                   	pop    %edi
    2a3d:	5d                   	pop    %ebp
    2a3e:	c3                   	ret    
    2a3f:	90                   	nop
    2a40:	31 ff                	xor    %edi,%edi
    2a42:	e9 03 ff ff ff       	jmp    294a <exfat_bitmap_set_cluster+0x3a>
    2a47:	89 f6                	mov    %esi,%esi
    2a49:	8d bc 27 00 00 00 00 	lea    0x0(%edi,%eiz,1),%edi

00002a50 <exfat_bitmap_clear_cluster>:
    2a50:	55                   	push   %ebp
    2a51:	89 e5                	mov    %esp,%ebp
    2a53:	57                   	push   %edi
    2a54:	56                   	push   %esi
    2a55:	53                   	push   %ebx
    2a56:	83 ec 4c             	sub    $0x4c,%esp
    2a59:	c7 45 e4 00 00 00 00 	movl   $0x0,-0x1c(%ebp)
    2a60:	8b 45 0c             	mov    0xc(%ebp),%eax
    2a63:	89 44 24 04          	mov    %eax,0x4(%esp)
    2a67:	8d 45 e0             	lea    -0x20(%ebp),%eax
    2a6a:	89 04 24             	mov    %eax,(%esp)
    2a6d:	e8 de 3a 00 00       	call   6550 <exfat_bitmap_get>
    2a72:	89 c7                	mov    %eax,%edi
    2a74:	85 c0                	test   %eax,%eax
    2a76:	0f 85 d4 00 00 00    	jne    2b50 <exfat_bitmap_clear_cluster+0x100>
    2a7c:	8b 45 e0             	mov    -0x20(%ebp),%eax
    2a7f:	85 c0                	test   %eax,%eax
    2a81:	0f 84 01 01 00 00    	je     2b88 <exfat_bitmap_clear_cluster+0x138>
    2a87:	8b 78 10             	mov    0x10(%eax),%edi
    2a8a:	8b 45 10             	mov    0x10(%ebp),%eax
    2a8d:	c7 44 24 14 00 00 00 	movl   $0x0,0x14(%esp)
    2a94:	00 
    2a95:	83 e8 02             	sub    $0x2,%eax
    2a98:	31 c9                	xor    %ecx,%ecx
    2a9a:	89 45 d4             	mov    %eax,-0x2c(%ebp)
    2a9d:	89 c6                	mov    %eax,%esi
    2a9f:	8b 45 08             	mov    0x8(%ebp),%eax
    2aa2:	bb 01 00 00 00       	mov    $0x1,%ebx
    2aa7:	c1 ee 03             	shr    $0x3,%esi
    2aaa:	8a 48 6c             	mov    0x6c(%eax),%cl
    2aad:	89 d8                	mov    %ebx,%eax
    2aaf:	d3 e0                	shl    %cl,%eax
    2ab1:	89 44 24 08          	mov    %eax,0x8(%esp)
    2ab5:	c7 44 24 0c 00 00 00 	movl   $0x0,0xc(%esp)
    2abc:	00 
    2abd:	89 34 24             	mov    %esi,(%esp)
    2ac0:	c7 44 24 04 00 00 00 	movl   $0x0,0x4(%esp)
    2ac7:	00 
    2ac8:	e8 d3 50 02 00       	call   27ba0 <__udivdi3>
    2acd:	89 7c 24 08          	mov    %edi,0x8(%esp)
    2ad1:	89 44 24 0c          	mov    %eax,0xc(%esp)
    2ad5:	8b 45 08             	mov    0x8(%ebp),%eax
    2ad8:	89 44 24 04          	mov    %eax,0x4(%esp)
    2adc:	8d 45 e4             	lea    -0x1c(%ebp),%eax
    2adf:	89 54 24 10          	mov    %edx,0x10(%esp)
    2ae3:	89 04 24             	mov    %eax,(%esp)
    2ae6:	e8 f5 ea ff ff       	call   15e0 <exfat_block_get>
    2aeb:	89 c7                	mov    %eax,%edi
    2aed:	85 c0                	test   %eax,%eax
    2aef:	75 6f                	jne    2b60 <exfat_bitmap_clear_cluster+0x110>
    2af1:	8b 45 08             	mov    0x8(%ebp),%eax
    2af4:	31 c9                	xor    %ecx,%ecx
    2af6:	8b 7d e4             	mov    -0x1c(%ebp),%edi
    2af9:	8a 48 6c             	mov    0x6c(%eax),%cl
    2afc:	89 d8                	mov    %ebx,%eax
    2afe:	d3 e0                	shl    %cl,%eax
    2b00:	89 34 24             	mov    %esi,(%esp)
    2b03:	89 44 24 08          	mov    %eax,0x8(%esp)
    2b07:	c7 44 24 0c 00 00 00 	movl   $0x0,0xc(%esp)
    2b0e:	00 
    2b0f:	c7 44 24 04 00 00 00 	movl   $0x0,0x4(%esp)
    2b16:	00 
    2b17:	e8 04 53 02 00       	call   27e20 <__umoddi3>
    2b1c:	8b 4d d4             	mov    -0x2c(%ebp),%ecx
    2b1f:	8b 77 54             	mov    0x54(%edi),%esi
    2b22:	83 e1 07             	and    $0x7,%ecx
    2b25:	01 f0                	add    %esi,%eax
    2b27:	d3 e3                	shl    %cl,%ebx
    2b29:	83 f3 ff             	xor    $0xffffffff,%ebx
    2b2c:	20 18                	and    %bl,(%eax)
    2b2e:	8b 45 e4             	mov    -0x1c(%ebp),%eax
    2b31:	c6 40 14 01          	movb   $0x1,0x14(%eax)
    2b35:	89 04 24             	mov    %eax,(%esp)
    2b38:	e8 93 66 00 00       	call   91d0 <block_put>
    2b3d:	89 c7                	mov    %eax,%edi
    2b3f:	8b 45 e0             	mov    -0x20(%ebp),%eax
    2b42:	89 04 24             	mov    %eax,(%esp)
    2b45:	85 ff                	test   %edi,%edi
    2b47:	75 2f                	jne    2b78 <exfat_bitmap_clear_cluster+0x128>
    2b49:	e8 32 09 00 00       	call   3480 <exfat_node_put>
    2b4e:	89 c7                	mov    %eax,%edi
    2b50:	83 c4 4c             	add    $0x4c,%esp
    2b53:	89 f8                	mov    %edi,%eax
    2b55:	5b                   	pop    %ebx
    2b56:	5e                   	pop    %esi
    2b57:	5f                   	pop    %edi
    2b58:	5d                   	pop    %ebp
    2b59:	c3                   	ret    
    2b5a:	8d b6 00 00 00 00    	lea    0x0(%esi),%esi
    2b60:	8b 45 e0             	mov    -0x20(%ebp),%eax
    2b63:	89 04 24             	mov    %eax,(%esp)
    2b66:	e8 15 09 00 00       	call   3480 <exfat_node_put>
    2b6b:	83 c4 4c             	add    $0x4c,%esp
    2b6e:	89 f8                	mov    %edi,%eax
    2b70:	5b                   	pop    %ebx
    2b71:	5e                   	pop    %esi
    2b72:	5f                   	pop    %edi
    2b73:	5d                   	pop    %ebp
    2b74:	c3                   	ret    
    2b75:	8d 76 00             	lea    0x0(%esi),%esi
    2b78:	e8 03 09 00 00       	call   3480 <exfat_node_put>
    2b7d:	83 c4 4c             	add    $0x4c,%esp
    2b80:	89 f8                	mov    %edi,%eax
    2b82:	5b                   	pop    %ebx
    2b83:	5e                   	pop    %esi
    2b84:	5f                   	pop    %edi
    2b85:	5d                   	pop    %ebp
    2b86:	c3                   	ret    
    2b87:	90                   	nop
    2b88:	31 ff                	xor    %edi,%edi
    2b8a:	e9 fb fe ff ff       	jmp    2a8a <exfat_bitmap_clear_cluster+0x3a>
    2b8f:	90                   	nop

00002b90 <exfat_bitmap_set_clusters>:
    2b90:	55                   	push   %ebp
    2b91:	89 e5                	mov    %esp,%ebp
    2b93:	57                   	push   %edi
    2b94:	56                   	push   %esi
    2b95:	53                   	push   %ebx
    2b96:	83 ec 2c             	sub    $0x2c,%esp
    2b99:	8b 45 10             	mov    0x10(%ebp),%eax
    2b9c:	8b 55 14             	mov    0x14(%ebp),%edx
    2b9f:	01 d0                	add    %edx,%eax
    2ba1:	8b 5d 10             	mov    0x10(%ebp),%ebx
    2ba4:	8b 75 08             	mov    0x8(%ebp),%esi
    2ba7:	8b 7d 0c             	mov    0xc(%ebp),%edi
    2baa:	89 45 e4             	mov    %eax,-0x1c(%ebp)
    2bad:	39 c3                	cmp    %eax,%ebx
    2baf:	72 0d                	jb     2bbe <exfat_bitmap_set_clusters+0x2e>
    2bb1:	eb 65                	jmp    2c18 <exfat_bitmap_set_clusters+0x88>
    2bb3:	90                   	nop
    2bb4:	8d 74 26 00          	lea    0x0(%esi,%eiz,1),%esi
    2bb8:	43                   	inc    %ebx
    2bb9:	3b 5d e4             	cmp    -0x1c(%ebp),%ebx
    2bbc:	73 5a                	jae    2c18 <exfat_bitmap_set_clusters+0x88>
    2bbe:	89 5c 24 08          	mov    %ebx,0x8(%esp)
    2bc2:	89 7c 24 04          	mov    %edi,0x4(%esp)
    2bc6:	89 34 24             	mov    %esi,(%esp)
    2bc9:	e8 42 fd ff ff       	call   2910 <exfat_bitmap_set_cluster>
    2bce:	89 c1                	mov    %eax,%ecx
    2bd0:	85 c0                	test   %eax,%eax
    2bd2:	74 e4                	je     2bb8 <exfat_bitmap_set_clusters+0x28>
    2bd4:	39 5d 10             	cmp    %ebx,0x10(%ebp)
    2bd7:	74 41                	je     2c1a <exfat_bitmap_set_clusters+0x8a>
    2bd9:	72 11                	jb     2bec <exfat_bitmap_set_clusters+0x5c>
    2bdb:	eb 3d                	jmp    2c1a <exfat_bitmap_set_clusters+0x8a>
    2bdd:	8d 76 00             	lea    0x0(%esi),%esi
    2be0:	8b 45 10             	mov    0x10(%ebp),%eax
    2be3:	40                   	inc    %eax
    2be4:	89 45 10             	mov    %eax,0x10(%ebp)
    2be7:	39 5d 10             	cmp    %ebx,0x10(%ebp)
    2bea:	73 2e                	jae    2c1a <exfat_bitmap_set_clusters+0x8a>
    2bec:	8b 45 10             	mov    0x10(%ebp),%eax
    2bef:	89 7c 24 04          	mov    %edi,0x4(%esp)
    2bf3:	89 44 24 08          	mov    %eax,0x8(%esp)
    2bf7:	89 34 24             	mov    %esi,(%esp)
    2bfa:	89 4d e0             	mov    %ecx,-0x20(%ebp)
    2bfd:	e8 4e fe ff ff       	call   2a50 <exfat_bitmap_clear_cluster>
    2c02:	8b 4d e0             	mov    -0x20(%ebp),%ecx
    2c05:	85 c0                	test   %eax,%eax
    2c07:	74 d7                	je     2be0 <exfat_bitmap_set_clusters+0x50>
    2c09:	83 c4 2c             	add    $0x2c,%esp
    2c0c:	89 c8                	mov    %ecx,%eax
    2c0e:	5b                   	pop    %ebx
    2c0f:	5e                   	pop    %esi
    2c10:	5f                   	pop    %edi
    2c11:	5d                   	pop    %ebp
    2c12:	c3                   	ret    
    2c13:	90                   	nop
    2c14:	8d 74 26 00          	lea    0x0(%esi,%eiz,1),%esi
    2c18:	31 c9                	xor    %ecx,%ecx
    2c1a:	83 c4 2c             	add    $0x2c,%esp
    2c1d:	89 c8                	mov    %ecx,%eax
    2c1f:	5b                   	pop    %ebx
    2c20:	5e                   	pop    %esi
    2c21:	5f                   	pop    %edi
    2c22:	5d                   	pop    %ebp
    2c23:	c3                   	ret    
    2c24:	8d b6 00 00 00 00    	lea    0x0(%esi),%esi
    2c2a:	8d bf 00 00 00 00    	lea    0x0(%edi),%edi

00002c30 <exfat_bitmap_clear_clusters>:
    2c30:	55                   	push   %ebp
    2c31:	89 e5                	mov    %esp,%ebp
    2c33:	57                   	push   %edi
    2c34:	56                   	push   %esi
    2c35:	53                   	push   %ebx
    2c36:	83 ec 2c             	sub    $0x2c,%esp
    2c39:	8b 55 10             	mov    0x10(%ebp),%edx
    2c3c:	8b 45 14             	mov    0x14(%ebp),%eax
    2c3f:	01 d0                	add    %edx,%eax
    2c41:	8b 7d 08             	mov    0x8(%ebp),%edi
    2c44:	8b 75 0c             	mov    0xc(%ebp),%esi
    2c47:	89 45 e4             	mov    %eax,-0x1c(%ebp)
    2c4a:	89 d3                	mov    %edx,%ebx
    2c4c:	39 c2                	cmp    %eax,%edx
    2c4e:	72 0e                	jb     2c5e <exfat_bitmap_clear_clusters+0x2e>
    2c50:	eb 2e                	jmp    2c80 <exfat_bitmap_clear_clusters+0x50>
    2c52:	8d b6 00 00 00 00    	lea    0x0(%esi),%esi
    2c58:	43                   	inc    %ebx
    2c59:	3b 5d e4             	cmp    -0x1c(%ebp),%ebx
    2c5c:	73 22                	jae    2c80 <exfat_bitmap_clear_clusters+0x50>
    2c5e:	89 5c 24 08          	mov    %ebx,0x8(%esp)
    2c62:	89 74 24 04          	mov    %esi,0x4(%esp)
    2c66:	89 3c 24             	mov    %edi,(%esp)
    2c69:	e8 e2 fd ff ff       	call   2a50 <exfat_bitmap_clear_cluster>
    2c6e:	85 c0                	test   %eax,%eax
    2c70:	74 e6                	je     2c58 <exfat_bitmap_clear_clusters+0x28>
    2c72:	83 c4 2c             	add    $0x2c,%esp
    2c75:	5b                   	pop    %ebx
    2c76:	5e                   	pop    %esi
    2c77:	5f                   	pop    %edi
    2c78:	5d                   	pop    %ebp
    2c79:	c3                   	ret    
    2c7a:	8d b6 00 00 00 00    	lea    0x0(%esi),%esi
    2c80:	83 c4 2c             	add    $0x2c,%esp
    2c83:	31 c0                	xor    %eax,%eax
    2c85:	5b                   	pop    %ebx
    2c86:	5e                   	pop    %esi
    2c87:	5f                   	pop    %edi
    2c88:	5d                   	pop    %ebp
    2c89:	c3                   	ret    
    2c8a:	8d b6 00 00 00 00    	lea    0x0(%esi),%esi

00002c90 <exfat_bitmap_alloc_clusters>:
    2c90:	55                   	push   %ebp
    2c91:	89 e5                	mov    %esp,%ebp
    2c93:	57                   	push   %edi
    2c94:	56                   	push   %esi
    2c95:	53                   	push   %ebx
    2c96:	83 ec 2c             	sub    $0x2c,%esp
    2c99:	c7 45 e0 02 00 00 00 	movl   $0x2,-0x20(%ebp)
    2ca0:	8b 5d 08             	mov    0x8(%ebp),%ebx
    2ca3:	8b 55 14             	mov    0x14(%ebp),%edx
    2ca6:	4a                   	dec    %edx
    2ca7:	8b 75 0c             	mov    0xc(%ebp),%esi
    2caa:	8b 43 5c             	mov    0x5c(%ebx),%eax
    2cad:	89 55 dc             	mov    %edx,-0x24(%ebp)
    2cb0:	83 c0 02             	add    $0x2,%eax
    2cb3:	83 f8 02             	cmp    $0x2,%eax
    2cb6:	76 38                	jbe    2cf0 <exfat_bitmap_alloc_clusters+0x60>
    2cb8:	8b 55 dc             	mov    -0x24(%ebp),%edx
    2cbb:	8b 4d e0             	mov    -0x20(%ebp),%ecx
    2cbe:	01 ca                	add    %ecx,%edx
    2cc0:	8b 7d e0             	mov    -0x20(%ebp),%edi
    2cc3:	89 55 e4             	mov    %edx,-0x1c(%ebp)
    2cc6:	eb 06                	jmp    2cce <exfat_bitmap_alloc_clusters+0x3e>
    2cc8:	3b 7d e4             	cmp    -0x1c(%ebp),%edi
    2ccb:	74 2b                	je     2cf8 <exfat_bitmap_alloc_clusters+0x68>
    2ccd:	47                   	inc    %edi
    2cce:	89 7c 24 08          	mov    %edi,0x8(%esp)
    2cd2:	89 74 24 04          	mov    %esi,0x4(%esp)
    2cd6:	89 1c 24             	mov    %ebx,(%esp)
    2cd9:	e8 e2 fa ff ff       	call   27c0 <exfat_bitmap_is_free>
    2cde:	85 c0                	test   %eax,%eax
    2ce0:	74 e6                	je     2cc8 <exfat_bitmap_alloc_clusters+0x38>
    2ce2:	8b 43 5c             	mov    0x5c(%ebx),%eax
    2ce5:	47                   	inc    %edi
    2ce6:	83 c0 02             	add    $0x2,%eax
    2ce9:	89 7d e0             	mov    %edi,-0x20(%ebp)
    2cec:	39 f8                	cmp    %edi,%eax
    2cee:	77 c8                	ja     2cb8 <exfat_bitmap_alloc_clusters+0x28>
    2cf0:	b9 fd fe ff ff       	mov    $0xfffffefd,%ecx
    2cf5:	eb 76                	jmp    2d6d <exfat_bitmap_alloc_clusters+0xdd>
    2cf7:	90                   	nop
    2cf8:	8b 45 10             	mov    0x10(%ebp),%eax
    2cfb:	8b 55 e0             	mov    -0x20(%ebp),%edx
    2cfe:	8b 7d 14             	mov    0x14(%ebp),%edi
    2d01:	89 10                	mov    %edx,(%eax)
    2d03:	01 fa                	add    %edi,%edx
    2d05:	8b 7d e0             	mov    -0x20(%ebp),%edi
    2d08:	89 55 e4             	mov    %edx,-0x1c(%ebp)
    2d0b:	39 fa                	cmp    %edi,%edx
    2d0d:	77 0f                	ja     2d1e <exfat_bitmap_alloc_clusters+0x8e>
    2d0f:	eb 67                	jmp    2d78 <exfat_bitmap_alloc_clusters+0xe8>
    2d11:	8d b4 26 00 00 00 00 	lea    0x0(%esi,%eiz,1),%esi
    2d18:	47                   	inc    %edi
    2d19:	3b 7d e4             	cmp    -0x1c(%ebp),%edi
    2d1c:	73 5a                	jae    2d78 <exfat_bitmap_alloc_clusters+0xe8>
    2d1e:	89 7c 24 08          	mov    %edi,0x8(%esp)
    2d22:	89 74 24 04          	mov    %esi,0x4(%esp)
    2d26:	89 1c 24             	mov    %ebx,(%esp)
    2d29:	e8 e2 fb ff ff       	call   2910 <exfat_bitmap_set_cluster>
    2d2e:	85 c0                	test   %eax,%eax
    2d30:	74 e6                	je     2d18 <exfat_bitmap_alloc_clusters+0x88>
    2d32:	89 c1                	mov    %eax,%ecx
    2d34:	39 7d e0             	cmp    %edi,-0x20(%ebp)
    2d37:	74 34                	je     2d6d <exfat_bitmap_alloc_clusters+0xdd>
    2d39:	3b 7d e0             	cmp    -0x20(%ebp),%edi
    2d3c:	76 2f                	jbe    2d6d <exfat_bitmap_alloc_clusters+0xdd>
    2d3e:	8b 55 e0             	mov    -0x20(%ebp),%edx
    2d41:	89 7d e4             	mov    %edi,-0x1c(%ebp)
    2d44:	89 45 e0             	mov    %eax,-0x20(%ebp)
    2d47:	89 d7                	mov    %edx,%edi
    2d49:	eb 0b                	jmp    2d56 <exfat_bitmap_alloc_clusters+0xc6>
    2d4b:	90                   	nop
    2d4c:	8d 74 26 00          	lea    0x0(%esi,%eiz,1),%esi
    2d50:	47                   	inc    %edi
    2d51:	39 7d e4             	cmp    %edi,-0x1c(%ebp)
    2d54:	76 14                	jbe    2d6a <exfat_bitmap_alloc_clusters+0xda>
    2d56:	89 7c 24 08          	mov    %edi,0x8(%esp)
    2d5a:	89 74 24 04          	mov    %esi,0x4(%esp)
    2d5e:	89 1c 24             	mov    %ebx,(%esp)
    2d61:	e8 ea fc ff ff       	call   2a50 <exfat_bitmap_clear_cluster>
    2d66:	85 c0                	test   %eax,%eax
    2d68:	74 e6                	je     2d50 <exfat_bitmap_alloc_clusters+0xc0>
    2d6a:	8b 4d e0             	mov    -0x20(%ebp),%ecx
    2d6d:	83 c4 2c             	add    $0x2c,%esp
    2d70:	89 c8                	mov    %ecx,%eax
    2d72:	5b                   	pop    %ebx
    2d73:	5e                   	pop    %esi
    2d74:	5f                   	pop    %edi
    2d75:	5d                   	pop    %ebp
    2d76:	c3                   	ret    
    2d77:	90                   	nop
    2d78:	83 c4 2c             	add    $0x2c,%esp
    2d7b:	31 c9                	xor    %ecx,%ecx
    2d7d:	89 c8                	mov    %ecx,%eax
    2d7f:	5b                   	pop    %ebx
    2d80:	5e                   	pop    %esi
    2d81:	5f                   	pop    %edi
    2d82:	5d                   	pop    %ebp
    2d83:	c3                   	ret    
    2d84:	8d b6 00 00 00 00    	lea    0x0(%esi),%esi
    2d8a:	8d bf 00 00 00 00    	lea    0x0(%edi),%edi

00002d90 <exfat_bitmap_append_clusters>:
    2d90:	55                   	push   %ebp
    2d91:	89 e5                	mov    %esp,%ebp
    2d93:	57                   	push   %edi
    2d94:	56                   	push   %esi
    2d95:	53                   	push   %ebx
    2d96:	83 ec 3c             	sub    $0x3c,%esp
    2d99:	8b 7d 0c             	mov    0xc(%ebp),%edi
    2d9c:	8b 75 08             	mov    0x8(%ebp),%esi
    2d9f:	8b 47 1c             	mov    0x1c(%edi),%eax
    2da2:	89 45 e4             	mov    %eax,-0x1c(%ebp)
    2da5:	85 c0                	test   %eax,%eax
    2da7:	0f 84 6b 01 00 00    	je     2f18 <exfat_bitmap_append_clusters+0x188>
    2dad:	31 c9                	xor    %ecx,%ecx
    2daf:	bb 01 00 00 00       	mov    $0x1,%ebx
    2db4:	8a 4e 6c             	mov    0x6c(%esi),%cl
    2db7:	8b 47 28             	mov    0x28(%edi),%eax
    2dba:	d3 e3                	shl    %cl,%ebx
    2dbc:	31 c9                	xor    %ecx,%ecx
    2dbe:	8b 57 2c             	mov    0x2c(%edi),%edx
    2dc1:	8a 4e 6d             	mov    0x6d(%esi),%cl
    2dc4:	c7 44 24 0c 00 00 00 	movl   $0x0,0xc(%esp)
    2dcb:	00 
    2dcc:	d3 e3                	shl    %cl,%ebx
    2dce:	89 5c 24 08          	mov    %ebx,0x8(%esp)
    2dd2:	89 04 24             	mov    %eax,(%esp)
    2dd5:	89 54 24 04          	mov    %edx,0x4(%esp)
    2dd9:	89 45 d8             	mov    %eax,-0x28(%ebp)
    2ddc:	89 55 dc             	mov    %edx,-0x24(%ebp)
    2ddf:	e8 3c 50 02 00       	call   27e20 <__umoddi3>
    2de4:	09 d0                	or     %edx,%eax
    2de6:	8b 55 dc             	mov    -0x24(%ebp),%edx
    2de9:	0f 95 c0             	setne  %al
    2dec:	25 ff 00 00 00       	and    $0xff,%eax
    2df1:	89 5c 24 08          	mov    %ebx,0x8(%esp)
    2df5:	89 45 d0             	mov    %eax,-0x30(%ebp)
    2df8:	8b 45 d8             	mov    -0x28(%ebp),%eax
    2dfb:	c7 44 24 0c 00 00 00 	movl   $0x0,0xc(%esp)
    2e02:	00 
    2e03:	89 04 24             	mov    %eax,(%esp)
    2e06:	89 54 24 04          	mov    %edx,0x4(%esp)
    2e0a:	c7 45 d4 00 00 00 00 	movl   $0x0,-0x2c(%ebp)
    2e11:	e8 8a 4d 02 00       	call   27ba0 <__udivdi3>
    2e16:	89 5c 24 08          	mov    %ebx,0x8(%esp)
    2e1a:	03 45 d0             	add    -0x30(%ebp),%eax
    2e1d:	c7 44 24 0c 00 00 00 	movl   $0x0,0xc(%esp)
    2e24:	00 
    2e25:	13 55 d4             	adc    -0x2c(%ebp),%edx
    2e28:	89 d1                	mov    %edx,%ecx
    2e2a:	0f af cb             	imul   %ebx,%ecx
    2e2d:	f7 e3                	mul    %ebx
    2e2f:	01 ca                	add    %ecx,%edx
    2e31:	89 04 24             	mov    %eax,(%esp)
    2e34:	89 54 24 04          	mov    %edx,0x4(%esp)
    2e38:	e8 63 4d 02 00       	call   27ba0 <__udivdi3>
    2e3d:	8b 5d e4             	mov    -0x1c(%ebp),%ebx
    2e40:	01 d8                	add    %ebx,%eax
    2e42:	8b 55 10             	mov    0x10(%ebp),%edx
    2e45:	89 45 d8             	mov    %eax,-0x28(%ebp)
    2e48:	89 c3                	mov    %eax,%ebx
    2e4a:	8d 54 10 ff          	lea    -0x1(%eax,%edx,1),%edx
    2e4e:	89 55 e4             	mov    %edx,-0x1c(%ebp)
    2e51:	eb 0b                	jmp    2e5e <exfat_bitmap_append_clusters+0xce>
    2e53:	90                   	nop
    2e54:	8d 74 26 00          	lea    0x0(%esi,%eiz,1),%esi
    2e58:	3b 5d e4             	cmp    -0x1c(%ebp),%ebx
    2e5b:	74 2b                	je     2e88 <exfat_bitmap_append_clusters+0xf8>
    2e5d:	43                   	inc    %ebx
    2e5e:	89 5c 24 08          	mov    %ebx,0x8(%esp)
    2e62:	8b 47 18             	mov    0x18(%edi),%eax
    2e65:	8b 40 20             	mov    0x20(%eax),%eax
    2e68:	89 34 24             	mov    %esi,(%esp)
    2e6b:	89 44 24 04          	mov    %eax,0x4(%esp)
    2e6f:	e8 4c f9 ff ff       	call   27c0 <exfat_bitmap_is_free>
    2e74:	85 c0                	test   %eax,%eax
    2e76:	74 e0                	je     2e58 <exfat_bitmap_append_clusters+0xc8>
    2e78:	bf fd fe ff ff       	mov    $0xfffffefd,%edi
    2e7d:	83 c4 3c             	add    $0x3c,%esp
    2e80:	89 f8                	mov    %edi,%eax
    2e82:	5b                   	pop    %ebx
    2e83:	5e                   	pop    %esi
    2e84:	5f                   	pop    %edi
    2e85:	5d                   	pop    %ebp
    2e86:	c3                   	ret    
    2e87:	90                   	nop
    2e88:	8b 47 18             	mov    0x18(%edi),%eax
    2e8b:	8b 55 d8             	mov    -0x28(%ebp),%edx
    2e8e:	8b 4d 10             	mov    0x10(%ebp),%ecx
    2e91:	8b 5d d8             	mov    -0x28(%ebp),%ebx
    2e94:	8b 40 20             	mov    0x20(%eax),%eax
    2e97:	01 ca                	add    %ecx,%edx
    2e99:	89 45 d0             	mov    %eax,-0x30(%ebp)
    2e9c:	89 55 e4             	mov    %edx,-0x1c(%ebp)
    2e9f:	89 c7                	mov    %eax,%edi
    2ea1:	39 d3                	cmp    %edx,%ebx
    2ea3:	72 09                	jb     2eae <exfat_bitmap_append_clusters+0x11e>
    2ea5:	eb 61                	jmp    2f08 <exfat_bitmap_append_clusters+0x178>
    2ea7:	90                   	nop
    2ea8:	43                   	inc    %ebx
    2ea9:	3b 5d e4             	cmp    -0x1c(%ebp),%ebx
    2eac:	73 5a                	jae    2f08 <exfat_bitmap_append_clusters+0x178>
    2eae:	89 5c 24 08          	mov    %ebx,0x8(%esp)
    2eb2:	89 7c 24 04          	mov    %edi,0x4(%esp)
    2eb6:	89 34 24             	mov    %esi,(%esp)
    2eb9:	e8 52 fa ff ff       	call   2910 <exfat_bitmap_set_cluster>
    2ebe:	85 c0                	test   %eax,%eax
    2ec0:	74 e6                	je     2ea8 <exfat_bitmap_append_clusters+0x118>
    2ec2:	89 c7                	mov    %eax,%edi
    2ec4:	39 5d d8             	cmp    %ebx,-0x28(%ebp)
    2ec7:	74 b4                	je     2e7d <exfat_bitmap_append_clusters+0xed>
    2ec9:	73 b2                	jae    2e7d <exfat_bitmap_append_clusters+0xed>
    2ecb:	89 5d e4             	mov    %ebx,-0x1c(%ebp)
    2ece:	89 45 e0             	mov    %eax,-0x20(%ebp)
    2ed1:	8b 7d d0             	mov    -0x30(%ebp),%edi
    2ed4:	8b 5d d8             	mov    -0x28(%ebp),%ebx
    2ed7:	eb 0d                	jmp    2ee6 <exfat_bitmap_append_clusters+0x156>
    2ed9:	8d b4 26 00 00 00 00 	lea    0x0(%esi,%eiz,1),%esi
    2ee0:	43                   	inc    %ebx
    2ee1:	3b 5d e4             	cmp    -0x1c(%ebp),%ebx
    2ee4:	73 14                	jae    2efa <exfat_bitmap_append_clusters+0x16a>
    2ee6:	89 5c 24 08          	mov    %ebx,0x8(%esp)
    2eea:	89 7c 24 04          	mov    %edi,0x4(%esp)
    2eee:	89 34 24             	mov    %esi,(%esp)
    2ef1:	e8 5a fb ff ff       	call   2a50 <exfat_bitmap_clear_cluster>
    2ef6:	85 c0                	test   %eax,%eax
    2ef8:	74 e6                	je     2ee0 <exfat_bitmap_append_clusters+0x150>
    2efa:	8b 7d e0             	mov    -0x20(%ebp),%edi
    2efd:	83 c4 3c             	add    $0x3c,%esp
    2f00:	89 f8                	mov    %edi,%eax
    2f02:	5b                   	pop    %ebx
    2f03:	5e                   	pop    %esi
    2f04:	5f                   	pop    %edi
    2f05:	5d                   	pop    %ebp
    2f06:	c3                   	ret    
    2f07:	90                   	nop
    2f08:	83 c4 3c             	add    $0x3c,%esp
    2f0b:	31 ff                	xor    %edi,%edi
    2f0d:	89 f8                	mov    %edi,%eax
    2f0f:	5b                   	pop    %ebx
    2f10:	5e                   	pop    %esi
    2f11:	5f                   	pop    %edi
    2f12:	5d                   	pop    %ebp
    2f13:	c3                   	ret    
    2f14:	8d 74 26 00          	lea    0x0(%esi,%eiz,1),%esi
    2f18:	8b 47 18             	mov    0x18(%edi),%eax
    2f1b:	8b 55 10             	mov    0x10(%ebp),%edx
    2f1e:	4a                   	dec    %edx
    2f1f:	c7 45 d8 02 00 00 00 	movl   $0x2,-0x28(%ebp)
    2f26:	8b 40 20             	mov    0x20(%eax),%eax
    2f29:	89 55 cc             	mov    %edx,-0x34(%ebp)
    2f2c:	89 45 d0             	mov    %eax,-0x30(%ebp)
    2f2f:	8b 46 5c             	mov    0x5c(%esi),%eax
    2f32:	83 c0 02             	add    $0x2,%eax
    2f35:	83 f8 02             	cmp    $0x2,%eax
    2f38:	0f 86 3a ff ff ff    	jbe    2e78 <exfat_bitmap_append_clusters+0xe8>
    2f3e:	89 7d c8             	mov    %edi,-0x38(%ebp)
    2f41:	8b 7d d0             	mov    -0x30(%ebp),%edi
    2f44:	8b 55 cc             	mov    -0x34(%ebp),%edx
    2f47:	8b 45 d8             	mov    -0x28(%ebp),%eax
    2f4a:	01 c2                	add    %eax,%edx
    2f4c:	8b 5d d8             	mov    -0x28(%ebp),%ebx
    2f4f:	89 55 e4             	mov    %edx,-0x1c(%ebp)
    2f52:	eb 0a                	jmp    2f5e <exfat_bitmap_append_clusters+0x1ce>
    2f54:	8d 74 26 00          	lea    0x0(%esi,%eiz,1),%esi
    2f58:	3b 5d e4             	cmp    -0x1c(%ebp),%ebx
    2f5b:	74 2b                	je     2f88 <exfat_bitmap_append_clusters+0x1f8>
    2f5d:	43                   	inc    %ebx
    2f5e:	89 5c 24 08          	mov    %ebx,0x8(%esp)
    2f62:	89 7c 24 04          	mov    %edi,0x4(%esp)
    2f66:	89 34 24             	mov    %esi,(%esp)
    2f69:	e8 52 f8 ff ff       	call   27c0 <exfat_bitmap_is_free>
    2f6e:	85 c0                	test   %eax,%eax
    2f70:	74 e6                	je     2f58 <exfat_bitmap_append_clusters+0x1c8>
    2f72:	8b 46 5c             	mov    0x5c(%esi),%eax
    2f75:	43                   	inc    %ebx
    2f76:	83 c0 02             	add    $0x2,%eax
    2f79:	89 5d d8             	mov    %ebx,-0x28(%ebp)
    2f7c:	39 c3                	cmp    %eax,%ebx
    2f7e:	72 c4                	jb     2f44 <exfat_bitmap_append_clusters+0x1b4>
    2f80:	e9 f3 fe ff ff       	jmp    2e78 <exfat_bitmap_append_clusters+0xe8>
    2f85:	8d 76 00             	lea    0x0(%esi),%esi
    2f88:	8b 7d c8             	mov    -0x38(%ebp),%edi
    2f8b:	8b 55 d8             	mov    -0x28(%ebp),%edx
    2f8e:	8b 45 10             	mov    0x10(%ebp),%eax
    2f91:	8b 5d d8             	mov    -0x28(%ebp),%ebx
    2f94:	89 57 1c             	mov    %edx,0x1c(%edi)
    2f97:	01 c2                	add    %eax,%edx
    2f99:	89 55 e4             	mov    %edx,-0x1c(%ebp)
    2f9c:	8b 7d d0             	mov    -0x30(%ebp),%edi
    2f9f:	39 d3                	cmp    %edx,%ebx
    2fa1:	72 0f                	jb     2fb2 <exfat_bitmap_append_clusters+0x222>
    2fa3:	e9 60 ff ff ff       	jmp    2f08 <exfat_bitmap_append_clusters+0x178>
    2fa8:	43                   	inc    %ebx
    2fa9:	3b 5d e4             	cmp    -0x1c(%ebp),%ebx
    2fac:	0f 83 56 ff ff ff    	jae    2f08 <exfat_bitmap_append_clusters+0x178>
    2fb2:	89 5c 24 08          	mov    %ebx,0x8(%esp)
    2fb6:	89 7c 24 04          	mov    %edi,0x4(%esp)
    2fba:	89 34 24             	mov    %esi,(%esp)
    2fbd:	e8 4e f9 ff ff       	call   2910 <exfat_bitmap_set_cluster>
    2fc2:	85 c0                	test   %eax,%eax
    2fc4:	74 e2                	je     2fa8 <exfat_bitmap_append_clusters+0x218>
    2fc6:	89 c7                	mov    %eax,%edi
    2fc8:	39 5d d8             	cmp    %ebx,-0x28(%ebp)
    2fcb:	0f 84 ac fe ff ff    	je     2e7d <exfat_bitmap_append_clusters+0xed>
    2fd1:	0f 83 a6 fe ff ff    	jae    2e7d <exfat_bitmap_append_clusters+0xed>
    2fd7:	89 5d e4             	mov    %ebx,-0x1c(%ebp)
    2fda:	89 45 e0             	mov    %eax,-0x20(%ebp)
    2fdd:	8b 7d d0             	mov    -0x30(%ebp),%edi
    2fe0:	8b 5d d8             	mov    -0x28(%ebp),%ebx
    2fe3:	eb 0d                	jmp    2ff2 <exfat_bitmap_append_clusters+0x262>
    2fe5:	8d 76 00             	lea    0x0(%esi),%esi
    2fe8:	43                   	inc    %ebx
    2fe9:	3b 5d e4             	cmp    -0x1c(%ebp),%ebx
    2fec:	0f 83 08 ff ff ff    	jae    2efa <exfat_bitmap_append_clusters+0x16a>
    2ff2:	89 5c 24 08          	mov    %ebx,0x8(%esp)
    2ff6:	89 7c 24 04          	mov    %edi,0x4(%esp)
    2ffa:	89 34 24             	mov    %esi,(%esp)
    2ffd:	e8 4e fa ff ff       	call   2a50 <exfat_bitmap_clear_cluster>
    3002:	85 c0                	test   %eax,%eax
    3004:	74 e2                	je     2fe8 <exfat_bitmap_append_clusters+0x258>
    3006:	e9 ef fe ff ff       	jmp    2efa <exfat_bitmap_append_clusters+0x16a>
    300b:	90                   	nop
    300c:	8d 74 26 00          	lea    0x0(%esi,%eiz,1),%esi

00003010 <exfat_bitmap_free_clusters>:
    3010:	55                   	push   %ebp
    3011:	31 c9                	xor    %ecx,%ecx
    3013:	89 e5                	mov    %esp,%ebp
    3015:	57                   	push   %edi
    3016:	56                   	push   %esi
    3017:	53                   	push   %ebx
    3018:	83 ec 3c             	sub    $0x3c,%esp
    301b:	be 01 00 00 00       	mov    $0x1,%esi
    3020:	8b 55 0c             	mov    0xc(%ebp),%edx
    3023:	8b 5d 08             	mov    0x8(%ebp),%ebx
    3026:	8b 42 28             	mov    0x28(%edx),%eax
    3029:	8a 4b 6c             	mov    0x6c(%ebx),%cl
    302c:	89 45 d8             	mov    %eax,-0x28(%ebp)
    302f:	8b 45 0c             	mov    0xc(%ebp),%eax
    3032:	8b 52 2c             	mov    0x2c(%edx),%edx
    3035:	d3 e6                	shl    %cl,%esi
    3037:	31 c9                	xor    %ecx,%ecx
    3039:	8b 78 1c             	mov    0x1c(%eax),%edi
    303c:	8a 4b 6d             	mov    0x6d(%ebx),%cl
    303f:	89 55 dc             	mov    %edx,-0x24(%ebp)
    3042:	8b 45 10             	mov    0x10(%ebp),%eax
    3045:	8b 55 dc             	mov    -0x24(%ebp),%edx
    3048:	d3 e6                	shl    %cl,%esi
    304a:	29 c7                	sub    %eax,%edi
    304c:	8b 45 d8             	mov    -0x28(%ebp),%eax
    304f:	89 74 24 08          	mov    %esi,0x8(%esp)
    3053:	c7 44 24 0c 00 00 00 	movl   $0x0,0xc(%esp)
    305a:	00 
    305b:	89 04 24             	mov    %eax,(%esp)
    305e:	89 54 24 04          	mov    %edx,0x4(%esp)
    3062:	e8 b9 4d 02 00       	call   27e20 <__umoddi3>
    3067:	89 74 24 08          	mov    %esi,0x8(%esp)
    306b:	09 d0                	or     %edx,%eax
    306d:	8b 55 dc             	mov    -0x24(%ebp),%edx
    3070:	0f 95 c0             	setne  %al
    3073:	25 ff 00 00 00       	and    $0xff,%eax
    3078:	c7 44 24 0c 00 00 00 	movl   $0x0,0xc(%esp)
    307f:	00 
    3080:	89 45 d0             	mov    %eax,-0x30(%ebp)
    3083:	8b 45 d8             	mov    -0x28(%ebp),%eax
    3086:	89 04 24             	mov    %eax,(%esp)
    3089:	89 54 24 04          	mov    %edx,0x4(%esp)
    308d:	c7 45 d4 00 00 00 00 	movl   $0x0,-0x2c(%ebp)
    3094:	e8 07 4b 02 00       	call   27ba0 <__udivdi3>
    3099:	03 45 d0             	add    -0x30(%ebp),%eax
    309c:	89 74 24 08          	mov    %esi,0x8(%esp)
    30a0:	13 55 d4             	adc    -0x2c(%ebp),%edx
    30a3:	c7 44 24 0c 00 00 00 	movl   $0x0,0xc(%esp)
    30aa:	00 
    30ab:	89 d1                	mov    %edx,%ecx
    30ad:	0f af ce             	imul   %esi,%ecx
    30b0:	f7 e6                	mul    %esi
    30b2:	01 ca                	add    %ecx,%edx
    30b4:	89 04 24             	mov    %eax,(%esp)
    30b7:	89 54 24 04          	mov    %edx,0x4(%esp)
    30bb:	e8 e0 4a 02 00       	call   27ba0 <__udivdi3>
    30c0:	8b 55 0c             	mov    0xc(%ebp),%edx
    30c3:	01 c7                	add    %eax,%edi
    30c5:	8b 42 18             	mov    0x18(%edx),%eax
    30c8:	8b 70 20             	mov    0x20(%eax),%esi
    30cb:	8b 45 10             	mov    0x10(%ebp),%eax
    30ce:	01 f8                	add    %edi,%eax
    30d0:	89 45 e4             	mov    %eax,-0x1c(%ebp)
    30d3:	39 c7                	cmp    %eax,%edi
    30d5:	72 0f                	jb     30e6 <exfat_bitmap_free_clusters+0xd6>
    30d7:	eb 2f                	jmp    3108 <exfat_bitmap_free_clusters+0xf8>
    30d9:	8d b4 26 00 00 00 00 	lea    0x0(%esi,%eiz,1),%esi
    30e0:	47                   	inc    %edi
    30e1:	39 7d e4             	cmp    %edi,-0x1c(%ebp)
    30e4:	76 22                	jbe    3108 <exfat_bitmap_free_clusters+0xf8>
    30e6:	89 7c 24 08          	mov    %edi,0x8(%esp)
    30ea:	89 74 24 04          	mov    %esi,0x4(%esp)
    30ee:	89 1c 24             	mov    %ebx,(%esp)
    30f1:	e8 5a f9 ff ff       	call   2a50 <exfat_bitmap_clear_cluster>
    30f6:	85 c0                	test   %eax,%eax
    30f8:	74 e6                	je     30e0 <exfat_bitmap_free_clusters+0xd0>
    30fa:	83 c4 3c             	add    $0x3c,%esp
    30fd:	5b                   	pop    %ebx
    30fe:	5e                   	pop    %esi
    30ff:	5f                   	pop    %edi
    3100:	5d                   	pop    %ebp
    3101:	c3                   	ret    
    3102:	8d b6 00 00 00 00    	lea    0x0(%esi),%esi
    3108:	83 c4 3c             	add    $0x3c,%esp
    310b:	31 c0                	xor    %eax,%eax
    310d:	5b                   	pop    %ebx
    310e:	5e                   	pop    %esi
    310f:	5f                   	pop    %edi
    3110:	5d                   	pop    %ebp
    3111:	c3                   	ret    
    3112:	8d b4 26 00 00 00 00 	lea    0x0(%esi,%eiz,1),%esi
    3119:	8d bc 27 00 00 00 00 	lea    0x0(%edi,%eiz,1),%edi

00003120 <exfat_bitmap_replicate_clusters>:
    3120:	55                   	push   %ebp
    3121:	89 e5                	mov    %esp,%ebp
    3123:	57                   	push   %edi
    3124:	56                   	push   %esi
    3125:	53                   	push   %ebx
    3126:	83 ec 3c             	sub    $0x3c,%esp
    3129:	be 01 00 00 00       	mov    $0x1,%esi
    312e:	8b 45 0c             	mov    0xc(%ebp),%eax
    3131:	8b 7d 08             	mov    0x8(%ebp),%edi
    3134:	8b 48 2c             	mov    0x2c(%eax),%ecx
    3137:	8b 50 18             	mov    0x18(%eax),%edx
    313a:	89 4d e4             	mov    %ecx,-0x1c(%ebp)
    313d:	31 c9                	xor    %ecx,%ecx
    313f:	8b 52 20             	mov    0x20(%edx),%edx
    3142:	8a 4f 6c             	mov    0x6c(%edi),%cl
    3145:	d3 e6                	shl    %cl,%esi
    3147:	89 55 dc             	mov    %edx,-0x24(%ebp)
    314a:	31 c9                	xor    %ecx,%ecx
    314c:	8b 50 28             	mov    0x28(%eax),%edx
    314f:	8b 58 1c             	mov    0x1c(%eax),%ebx
    3152:	8a 4f 6d             	mov    0x6d(%edi),%cl
    3155:	89 55 e0             	mov    %edx,-0x20(%ebp)
    3158:	d3 e6                	shl    %cl,%esi
    315a:	8b 45 e0             	mov    -0x20(%ebp),%eax
    315d:	8b 55 e4             	mov    -0x1c(%ebp),%edx
    3160:	8d 4b ff             	lea    -0x1(%ebx),%ecx
    3163:	89 74 24 08          	mov    %esi,0x8(%esp)
    3167:	c7 44 24 0c 00 00 00 	movl   $0x0,0xc(%esp)
    316e:	00 
    316f:	89 04 24             	mov    %eax,(%esp)
    3172:	89 54 24 04          	mov    %edx,0x4(%esp)
    3176:	89 4d d8             	mov    %ecx,-0x28(%ebp)
    3179:	e8 a2 4c 02 00       	call   27e20 <__umoddi3>
    317e:	8b 4d e4             	mov    -0x1c(%ebp),%ecx
    3181:	09 d0                	or     %edx,%eax
    3183:	8b 55 e0             	mov    -0x20(%ebp),%edx
    3186:	0f 95 c0             	setne  %al
    3189:	25 ff 00 00 00       	and    $0xff,%eax
    318e:	89 4c 24 04          	mov    %ecx,0x4(%esp)
    3192:	89 74 24 08          	mov    %esi,0x8(%esp)
    3196:	c7 44 24 0c 00 00 00 	movl   $0x0,0xc(%esp)
    319d:	00 
    319e:	89 14 24             	mov    %edx,(%esp)
    31a1:	89 45 d0             	mov    %eax,-0x30(%ebp)
    31a4:	c7 45 d4 00 00 00 00 	movl   $0x0,-0x2c(%ebp)
    31ab:	e8 f0 49 02 00       	call   27ba0 <__udivdi3>
    31b0:	03 45 d0             	add    -0x30(%ebp),%eax
    31b3:	89 74 24 08          	mov    %esi,0x8(%esp)
    31b7:	13 55 d4             	adc    -0x2c(%ebp),%edx
    31ba:	c7 44 24 0c 00 00 00 	movl   $0x0,0xc(%esp)
    31c1:	00 
    31c2:	89 d1                	mov    %edx,%ecx
    31c4:	0f af ce             	imul   %esi,%ecx
    31c7:	f7 e6                	mul    %esi
    31c9:	01 ca                	add    %ecx,%edx
    31cb:	89 04 24             	mov    %eax,(%esp)
    31ce:	89 54 24 04          	mov    %edx,0x4(%esp)
    31d2:	e8 c9 49 02 00       	call   27ba0 <__udivdi3>
    31d7:	8b 55 d8             	mov    -0x28(%ebp),%edx
    31da:	01 d0                	add    %edx,%eax
    31dc:	89 45 e0             	mov    %eax,-0x20(%ebp)
    31df:	39 c3                	cmp    %eax,%ebx
    31e1:	73 3d                	jae    3220 <exfat_bitmap_replicate_clusters+0x100>
    31e3:	8b 75 dc             	mov    -0x24(%ebp),%esi
    31e6:	89 d8                	mov    %ebx,%eax
    31e8:	eb 0d                	jmp    31f7 <exfat_bitmap_replicate_clusters+0xd7>
    31ea:	8d b6 00 00 00 00    	lea    0x0(%esi),%esi
    31f0:	89 d8                	mov    %ebx,%eax
    31f2:	39 5d e0             	cmp    %ebx,-0x20(%ebp)
    31f5:	76 29                	jbe    3220 <exfat_bitmap_replicate_clusters+0x100>
    31f7:	8d 58 01             	lea    0x1(%eax),%ebx
    31fa:	89 44 24 08          	mov    %eax,0x8(%esp)
    31fe:	89 5c 24 0c          	mov    %ebx,0xc(%esp)
    3202:	89 74 24 04          	mov    %esi,0x4(%esp)
    3206:	89 3c 24             	mov    %edi,(%esp)
    3209:	e8 c2 e6 ff ff       	call   18d0 <exfat_set_cluster>
    320e:	85 c0                	test   %eax,%eax
    3210:	74 de                	je     31f0 <exfat_bitmap_replicate_clusters+0xd0>
    3212:	83 c4 3c             	add    $0x3c,%esp
    3215:	5b                   	pop    %ebx
    3216:	5e                   	pop    %esi
    3217:	5f                   	pop    %edi
    3218:	5d                   	pop    %ebp
    3219:	c3                   	ret    
    321a:	8d b6 00 00 00 00    	lea    0x0(%esi),%esi
    3220:	8b 4d e0             	mov    -0x20(%ebp),%ecx
    3223:	8b 45 dc             	mov    -0x24(%ebp),%eax
    3226:	89 3c 24             	mov    %edi,(%esp)
    3229:	c7 44 24 0c ff ff ff 	movl   $0xffffffff,0xc(%esp)
    3230:	ff 
    3231:	89 4c 24 08          	mov    %ecx,0x8(%esp)
    3235:	89 44 24 04          	mov    %eax,0x4(%esp)
    3239:	e8 92 e6 ff ff       	call   18d0 <exfat_set_cluster>
    323e:	83 c4 3c             	add    $0x3c,%esp
    3241:	5b                   	pop    %ebx
    3242:	5e                   	pop    %esi
    3243:	5f                   	pop    %edi
    3244:	5d                   	pop    %ebp
    3245:	c3                   	ret    
    3246:	66 90                	xchg   %ax,%ax
    3248:	66 90                	xchg   %ax,%ax
    324a:	66 90                	xchg   %ax,%ax
    324c:	66 90                	xchg   %ax,%ax
    324e:	66 90                	xchg   %ax,%ax

00003250 <exfat_node_open>:
    3250:	55                   	push   %ebp
    3251:	31 c0                	xor    %eax,%eax
    3253:	89 e5                	mov    %esp,%ebp
    3255:	5d                   	pop    %ebp
    3256:	c3                   	ret    
    3257:	89 f6                	mov    %esi,%esi
    3259:	8d bc 27 00 00 00 00 	lea    0x0(%edi,%eiz,1),%edi

00003260 <exfat_index_get>:
    3260:	55                   	push   %ebp
    3261:	89 e5                	mov    %esp,%ebp
    3263:	8b 45 08             	mov    0x8(%ebp),%eax
    3266:	85 c0                	test   %eax,%eax
    3268:	74 0e                	je     3278 <exfat_index_get+0x18>
    326a:	8b 40 10             	mov    0x10(%eax),%eax
    326d:	5d                   	pop    %ebp
    326e:	8b 40 18             	mov    0x18(%eax),%eax
    3271:	8b 40 24             	mov    0x24(%eax),%eax
    3274:	c3                   	ret    
    3275:	8d 76 00             	lea    0x0(%esi),%esi
    3278:	31 c0                	xor    %eax,%eax
    327a:	5d                   	pop    %ebp
    327b:	8b 40 18             	mov    0x18(%eax),%eax
    327e:	8b 40 24             	mov    0x24(%eax),%eax
    3281:	c3                   	ret    
    3282:	8d b4 26 00 00 00 00 	lea    0x0(%esi,%eiz,1),%esi
    3289:	8d bc 27 00 00 00 00 	lea    0x0(%edi,%eiz,1),%edi

00003290 <exfat_size_get>:
    3290:	55                   	push   %ebp
    3291:	89 e5                	mov    %esp,%ebp
    3293:	8b 45 08             	mov    0x8(%ebp),%eax
    3296:	85 c0                	test   %eax,%eax
    3298:	74 0e                	je     32a8 <exfat_size_get+0x18>
    329a:	8b 40 10             	mov    0x10(%eax),%eax
    329d:	5d                   	pop    %ebp
    329e:	8b 50 2c             	mov    0x2c(%eax),%edx
    32a1:	8b 40 28             	mov    0x28(%eax),%eax
    32a4:	c3                   	ret    
    32a5:	8d 76 00             	lea    0x0(%esi),%esi
    32a8:	31 c0                	xor    %eax,%eax
    32aa:	5d                   	pop    %ebp
    32ab:	8b 50 2c             	mov    0x2c(%eax),%edx
    32ae:	8b 40 28             	mov    0x28(%eax),%eax
    32b1:	c3                   	ret    
    32b2:	8d b4 26 00 00 00 00 	lea    0x0(%esi,%eiz,1),%esi
    32b9:	8d bc 27 00 00 00 00 	lea    0x0(%edi,%eiz,1),%edi

000032c0 <exfat_lnkcnt_get>:
    32c0:	55                   	push   %ebp
    32c1:	89 e5                	mov    %esp,%ebp
    32c3:	8b 45 08             	mov    0x8(%ebp),%eax
    32c6:	85 c0                	test   %eax,%eax
    32c8:	74 0e                	je     32d8 <exfat_lnkcnt_get+0x18>
    32ca:	8b 40 10             	mov    0x10(%eax),%eax
    32cd:	5d                   	pop    %ebp
    32ce:	8b 40 30             	mov    0x30(%eax),%eax
    32d1:	c3                   	ret    
    32d2:	8d b6 00 00 00 00    	lea    0x0(%esi),%esi
    32d8:	31 c0                	xor    %eax,%eax
    32da:	5d                   	pop    %ebp
    32db:	8b 40 30             	mov    0x30(%eax),%eax
    32de:	c3                   	ret    
    32df:	90                   	nop

000032e0 <exfat_is_directory>:
    32e0:	55                   	push   %ebp
    32e1:	89 e5                	mov    %esp,%ebp
    32e3:	8b 45 08             	mov    0x8(%ebp),%eax
    32e6:	85 c0                	test   %eax,%eax
    32e8:	74 0e                	je     32f8 <exfat_is_directory+0x18>
    32ea:	8b 40 10             	mov    0x10(%eax),%eax
    32ed:	5d                   	pop    %ebp
    32ee:	83 78 14 01          	cmpl   $0x1,0x14(%eax)
    32f2:	0f 94 c0             	sete   %al
    32f5:	c3                   	ret    
    32f6:	66 90                	xchg   %ax,%ax
    32f8:	31 c0                	xor    %eax,%eax
    32fa:	5d                   	pop    %ebp
    32fb:	83 78 14 01          	cmpl   $0x1,0x14(%eax)
    32ff:	0f 94 c0             	sete   %al
    3302:	c3                   	ret    
    3303:	8d b6 00 00 00 00    	lea    0x0(%esi),%esi
    3309:	8d bc 27 00 00 00 00 	lea    0x0(%edi,%eiz,1),%edi

00003310 <exfat_is_file>:
    3310:	55                   	push   %ebp
    3311:	89 e5                	mov    %esp,%ebp
    3313:	8b 45 08             	mov    0x8(%ebp),%eax
    3316:	85 c0                	test   %eax,%eax
    3318:	74 0e                	je     3328 <exfat_is_file+0x18>
    331a:	8b 40 10             	mov    0x10(%eax),%eax
    331d:	5d                   	pop    %ebp
    331e:	83 78 14 02          	cmpl   $0x2,0x14(%eax)
    3322:	0f 94 c0             	sete   %al
    3325:	c3                   	ret    
    3326:	66 90                	xchg   %ax,%ax
    3328:	31 c0                	xor    %eax,%eax
    332a:	5d                   	pop    %ebp
    332b:	83 78 14 02          	cmpl   $0x2,0x14(%eax)
    332f:	0f 94 c0             	sete   %al
    3332:	c3                   	ret    
    3333:	8d b6 00 00 00 00    	lea    0x0(%esi),%esi
    3339:	8d bc 27 00 00 00 00 	lea    0x0(%edi,%eiz,1),%edi

00003340 <exfat_service_get>:
    3340:	55                   	push   %ebp
    3341:	31 c0                	xor    %eax,%eax
    3343:	89 e5                	mov    %esp,%ebp
    3345:	5d                   	pop    %ebp
    3346:	c3                   	ret    
    3347:	89 f6                	mov    %esi,%esi
    3349:	8d bc 27 00 00 00 00 	lea    0x0(%edi,%eiz,1),%edi

00003350 <exfat_close>:
    3350:	55                   	push   %ebp
    3351:	31 c0                	xor    %eax,%eax
    3353:	89 e5                	mov    %esp,%ebp
    3355:	5d                   	pop    %ebp
    3356:	c3                   	ret    
    3357:	89 f6                	mov    %esi,%esi
    3359:	8d bc 27 00 00 00 00 	lea    0x0(%edi,%eiz,1),%edi

00003360 <exfat_node_sync>:
    3360:	55                   	push   %ebp
    3361:	89 e5                	mov    %esp,%ebp
    3363:	56                   	push   %esi
    3364:	53                   	push   %ebx
    3365:	89 c3                	mov    %eax,%ebx
    3367:	83 c4 80             	add    $0xffffff80,%esp
    336a:	8b 40 14             	mov    0x14(%eax),%eax
    336d:	8d 50 ff             	lea    -0x1(%eax),%edx
    3370:	83 fa 01             	cmp    $0x1,%edx
    3373:	76 0b                	jbe    3380 <exfat_node_sync+0x20>
    3375:	31 db                	xor    %ebx,%ebx
    3377:	83 ec 80             	sub    $0xffffff80,%esp
    337a:	89 d8                	mov    %ebx,%eax
    337c:	5b                   	pop    %ebx
    337d:	5e                   	pop    %esi
    337e:	5d                   	pop    %ebp
    337f:	c3                   	ret    
    3380:	48                   	dec    %eax
    3381:	8b 4b 1c             	mov    0x1c(%ebx),%ecx
    3384:	0f 94 c0             	sete   %al
    3387:	25 ff 00 00 00       	and    $0xff,%eax
    338c:	8b 53 28             	mov    0x28(%ebx),%edx
    338f:	c1 e0 04             	shl    $0x4,%eax
    3392:	89 4d c3             	mov    %ecx,-0x3d(%ebp)
    3395:	66 89 45 93          	mov    %ax,-0x6d(%ebp)
    3399:	8b 43 2c             	mov    0x2c(%ebx),%eax
    339c:	89 c6                	mov    %eax,%esi
    339e:	09 d6                	or     %edx,%esi
    33a0:	0f 84 9a 00 00 00    	je     3440 <exfat_node_sync+0xe0>
    33a6:	8a 4b 39             	mov    0x39(%ebx),%cl
    33a9:	83 f1 01             	xor    $0x1,%ecx
    33ac:	81 e1 ff 00 00 00    	and    $0xff,%ecx
    33b2:	8d 4c 09 01          	lea    0x1(%ecx,%ecx,1),%ecx
    33b6:	88 4d b0             	mov    %cl,-0x50(%ebp)
    33b9:	89 45 bb             	mov    %eax,-0x45(%ebp)
    33bc:	89 45 cb             	mov    %eax,-0x35(%ebp)
    33bf:	8b 43 18             	mov    0x18(%ebx),%eax
    33c2:	89 55 b7             	mov    %edx,-0x49(%ebp)
    33c5:	89 55 c7             	mov    %edx,-0x39(%ebp)
    33c8:	31 d2                	xor    %edx,%edx
    33ca:	8a 50 28             	mov    0x28(%eax),%dl
    33cd:	8d 75 d0             	lea    -0x30(%ebp),%esi
    33d0:	89 54 24 0c          	mov    %edx,0xc(%esp)
    33d4:	8b 50 2c             	mov    0x2c(%eax),%edx
    33d7:	89 54 24 08          	mov    %edx,0x8(%esp)
    33db:	8b 40 20             	mov    0x20(%eax),%eax
    33de:	89 34 24             	mov    %esi,(%esp)
    33e1:	89 44 24 04          	mov    %eax,0x4(%esp)
    33e5:	e8 86 43 00 00       	call   7770 <exfat_directory_open_parent>
    33ea:	8b 43 18             	mov    0x18(%ebx),%eax
    33ed:	8b 50 30             	mov    0x30(%eax),%edx
    33f0:	c7 44 24 08 00 00 00 	movl   $0x0,0x8(%esp)
    33f7:	00 
    33f8:	89 54 24 04          	mov    %edx,0x4(%esp)
    33fc:	89 34 24             	mov    %esi,(%esp)
    33ff:	e8 7c 44 00 00       	call   7880 <exfat_directory_seek>
    3404:	89 c3                	mov    %eax,%ebx
    3406:	85 c0                	test   %eax,%eax
    3408:	75 5e                	jne    3468 <exfat_node_sync+0x108>
    340a:	8d 45 b0             	lea    -0x50(%ebp),%eax
    340d:	89 34 24             	mov    %esi,(%esp)
    3410:	89 44 24 08          	mov    %eax,0x8(%esp)
    3414:	8d 45 90             	lea    -0x70(%ebp),%eax
    3417:	89 44 24 04          	mov    %eax,0x4(%esp)
    341b:	e8 70 4a 00 00       	call   7e90 <exfat_directory_sync_file>
    3420:	89 34 24             	mov    %esi,(%esp)
    3423:	89 c3                	mov    %eax,%ebx
    3425:	85 c0                	test   %eax,%eax
    3427:	75 2f                	jne    3458 <exfat_node_sync+0xf8>
    3429:	e8 b2 43 00 00       	call   77e0 <exfat_directory_close>
    342e:	83 ec 80             	sub    $0xffffff80,%esp
    3431:	89 c3                	mov    %eax,%ebx
    3433:	89 d8                	mov    %ebx,%eax
    3435:	5b                   	pop    %ebx
    3436:	5e                   	pop    %esi
    3437:	5d                   	pop    %ebp
    3438:	c3                   	ret    
    3439:	8d b4 26 00 00 00 00 	lea    0x0(%esi,%eiz,1),%esi
    3440:	85 c9                	test   %ecx,%ecx
    3442:	0f 85 5e ff ff ff    	jne    33a6 <exfat_node_sync+0x46>
    3448:	c6 45 b0 00          	movb   $0x0,-0x50(%ebp)
    344c:	e9 68 ff ff ff       	jmp    33b9 <exfat_node_sync+0x59>
    3451:	8d b4 26 00 00 00 00 	lea    0x0(%esi,%eiz,1),%esi
    3458:	e8 83 43 00 00       	call   77e0 <exfat_directory_close>
    345d:	e9 15 ff ff ff       	jmp    3377 <exfat_node_sync+0x17>
    3462:	8d b6 00 00 00 00    	lea    0x0(%esi),%esi
    3468:	89 34 24             	mov    %esi,(%esp)
    346b:	e8 70 43 00 00       	call   77e0 <exfat_directory_close>
    3470:	83 ec 80             	sub    $0xffffff80,%esp
    3473:	89 d8                	mov    %ebx,%eax
    3475:	5b                   	pop    %ebx
    3476:	5e                   	pop    %esi
    3477:	5d                   	pop    %ebp
    3478:	c3                   	ret    
    3479:	8d b4 26 00 00 00 00 	lea    0x0(%esi,%eiz,1),%esi

00003480 <exfat_node_put>:
    3480:	55                   	push   %ebp
    3481:	89 e5                	mov    %esp,%ebp
    3483:	56                   	push   %esi
    3484:	53                   	push   %ebx
    3485:	83 ec 10             	sub    $0x10,%esp
    3488:	8b 45 08             	mov    0x8(%ebp),%eax
    348b:	85 c0                	test   %eax,%eax
    348d:	0f 84 8d 00 00 00    	je     3520 <exfat_node_put+0xa0>
    3493:	8b 58 10             	mov    0x10(%eax),%ebx
    3496:	8d 73 04             	lea    0x4(%ebx),%esi
    3499:	89 34 24             	mov    %esi,(%esp)
    349c:	e8 1f f4 00 00       	call   128c0 <fibril_mutex_lock>
    34a1:	8b 43 34             	mov    0x34(%ebx),%eax
    34a4:	48                   	dec    %eax
    34a5:	89 43 34             	mov    %eax,0x34(%ebx)
    34a8:	85 c0                	test   %eax,%eax
    34aa:	75 3a                	jne    34e6 <exfat_node_put+0x66>
    34ac:	8b 43 18             	mov    0x18(%ebx),%eax
    34af:	85 c0                	test   %eax,%eax
    34b1:	74 45                	je     34f8 <exfat_node_put+0x78>
    34b3:	c7 04 24 60 b0 02 00 	movl   $0x2b060,(%esp)
    34ba:	e8 01 f4 00 00       	call   128c0 <fibril_mutex_lock>
    34bf:	8b 15 70 b0 02 00    	mov    0x2b070,%edx
    34c5:	8d 43 20             	lea    0x20(%ebx),%eax
    34c8:	c7 43 24 70 b0 02 00 	movl   $0x2b070,0x24(%ebx)
    34cf:	89 53 20             	mov    %edx,0x20(%ebx)
    34d2:	89 42 04             	mov    %eax,0x4(%edx)
    34d5:	c7 04 24 60 b0 02 00 	movl   $0x2b060,(%esp)
    34dc:	a3 70 b0 02 00       	mov    %eax,0x2b070
    34e1:	e8 fa f4 00 00       	call   129e0 <fibril_mutex_unlock>
    34e6:	89 34 24             	mov    %esi,(%esp)
    34e9:	e8 f2 f4 00 00       	call   129e0 <fibril_mutex_unlock>
    34ee:	83 c4 10             	add    $0x10,%esp
    34f1:	31 c0                	xor    %eax,%eax
    34f3:	5b                   	pop    %ebx
    34f4:	5e                   	pop    %esi
    34f5:	5d                   	pop    %ebp
    34f6:	c3                   	ret    
    34f7:	90                   	nop
    34f8:	89 34 24             	mov    %esi,(%esp)
    34fb:	e8 e0 f4 00 00       	call   129e0 <fibril_mutex_unlock>
    3500:	8b 03                	mov    (%ebx),%eax
    3502:	89 04 24             	mov    %eax,(%esp)
    3505:	e8 d6 80 01 00       	call   1b5e0 <free>
    350a:	89 1c 24             	mov    %ebx,(%esp)
    350d:	e8 ce 80 01 00       	call   1b5e0 <free>
    3512:	83 c4 10             	add    $0x10,%esp
    3515:	31 c0                	xor    %eax,%eax
    3517:	5b                   	pop    %ebx
    3518:	5e                   	pop    %esi
    3519:	5d                   	pop    %ebp
    351a:	c3                   	ret    
    351b:	90                   	nop
    351c:	8d 74 26 00          	lea    0x0(%esi,%eiz,1),%esi
    3520:	31 db                	xor    %ebx,%ebx
    3522:	e9 6f ff ff ff       	jmp    3496 <exfat_node_put+0x16>
    3527:	89 f6                	mov    %esi,%esi
    3529:	8d bc 27 00 00 00 00 	lea    0x0(%edi,%eiz,1),%edi

00003530 <exfat_node_get_new>:
    3530:	55                   	push   %ebp
    3531:	89 e5                	mov    %esp,%ebp
    3533:	57                   	push   %edi
    3534:	56                   	push   %esi
    3535:	53                   	push   %ebx
    3536:	83 ec 2c             	sub    $0x2c,%esp
    3539:	89 45 e4             	mov    %eax,-0x1c(%ebp)
    353c:	c7 04 24 60 b0 02 00 	movl   $0x2b060,(%esp)
    3543:	e8 78 f3 00 00       	call   128c0 <fibril_mutex_lock>
    3548:	8b 3d 74 b0 02 00    	mov    0x2b074,%edi
    354e:	81 ff 70 b0 02 00    	cmp    $0x2b070,%edi
    3554:	74 16                	je     356c <exfat_node_get_new+0x3c>
    3556:	8d 77 e4             	lea    -0x1c(%edi),%esi
    3559:	8d 5f e0             	lea    -0x20(%edi),%ebx
    355c:	89 34 24             	mov    %esi,(%esp)
    355f:	e8 2c f4 00 00       	call   12990 <fibril_mutex_trylock>
    3564:	84 c0                	test   %al,%al
    3566:	0f 85 d4 00 00 00    	jne    3640 <exfat_node_get_new+0x110>
    356c:	c7 04 24 60 b0 02 00 	movl   $0x2b060,(%esp)
    3573:	e8 68 f4 00 00       	call   129e0 <fibril_mutex_unlock>
    3578:	c7 04 24 14 00 00 00 	movl   $0x14,(%esp)
    357f:	e8 4c 7f 01 00       	call   1b4d0 <malloc>
    3584:	89 c6                	mov    %eax,%esi
    3586:	85 c0                	test   %eax,%eax
    3588:	0f 84 82 01 00 00    	je     3710 <exfat_node_get_new+0x1e0>
    358e:	c7 04 24 50 00 00 00 	movl   $0x50,(%esp)
    3595:	89 45 d8             	mov    %eax,-0x28(%ebp)
    3598:	e8 33 7f 01 00       	call   1b4d0 <malloc>
    359d:	8b 55 d8             	mov    -0x28(%ebp),%edx
    35a0:	89 c3                	mov    %eax,%ebx
    35a2:	85 c0                	test   %eax,%eax
    35a4:	0f 84 70 01 00 00    	je     371a <exfat_node_get_new+0x1ea>
    35aa:	8d 43 04             	lea    0x4(%ebx),%eax
    35ad:	89 04 24             	mov    %eax,(%esp)
    35b0:	e8 eb f2 00 00       	call   128a0 <fibril_mutex_initialize>
    35b5:	c7 03 00 00 00 00    	movl   $0x0,(%ebx)
    35bb:	c7 43 18 00 00 00 00 	movl   $0x0,0x18(%ebx)
    35c2:	c7 43 14 00 00 00 00 	movl   $0x0,0x14(%ebx)
    35c9:	c7 43 20 00 00 00 00 	movl   $0x0,0x20(%ebx)
    35d0:	c7 43 24 00 00 00 00 	movl   $0x0,0x24(%ebx)
    35d7:	c7 43 28 00 00 00 00 	movl   $0x0,0x28(%ebx)
    35de:	c7 43 2c 00 00 00 00 	movl   $0x0,0x2c(%ebx)
    35e5:	c7 43 30 00 00 00 00 	movl   $0x0,0x30(%ebx)
    35ec:	c7 43 34 00 00 00 00 	movl   $0x0,0x34(%ebx)
    35f3:	c6 43 38 00          	movb   $0x0,0x38(%ebx)
    35f7:	c6 43 39 00          	movb   $0x0,0x39(%ebx)
    35fb:	c6 43 3a 00          	movb   $0x0,0x3a(%ebx)
    35ff:	c7 43 3c 00 00 00 00 	movl   $0x0,0x3c(%ebx)
    3606:	c6 43 40 00          	movb   $0x0,0x40(%ebx)
    360a:	c7 43 44 00 00 00 00 	movl   $0x0,0x44(%ebx)
    3611:	c7 43 48 00 00 00 00 	movl   $0x0,0x48(%ebx)
    3618:	c7 43 4c 00 00 00 00 	movl   $0x0,0x4c(%ebx)
    361f:	89 34 24             	mov    %esi,(%esp)
    3622:	e8 39 7f 00 00       	call   b560 <fs_node_initialize>
    3627:	8b 45 e4             	mov    -0x1c(%ebp),%eax
    362a:	89 5e 10             	mov    %ebx,0x10(%esi)
    362d:	89 33                	mov    %esi,(%ebx)
    362f:	89 18                	mov    %ebx,(%eax)
    3631:	31 c0                	xor    %eax,%eax
    3633:	83 c4 2c             	add    $0x2c,%esp
    3636:	5b                   	pop    %ebx
    3637:	5e                   	pop    %esi
    3638:	5f                   	pop    %edi
    3639:	5d                   	pop    %ebp
    363a:	c3                   	ret    
    363b:	90                   	nop
    363c:	8d 74 26 00          	lea    0x0(%esi,%eiz,1),%esi
    3640:	8b 53 18             	mov    0x18(%ebx),%edx
    3643:	89 55 e0             	mov    %edx,-0x20(%ebp)
    3646:	83 c2 10             	add    $0x10,%edx
    3649:	89 14 24             	mov    %edx,(%esp)
    364c:	89 55 dc             	mov    %edx,-0x24(%ebp)
    364f:	e8 3c f3 00 00       	call   12990 <fibril_mutex_trylock>
    3654:	84 c0                	test   %al,%al
    3656:	74 68                	je     36c0 <exfat_node_get_new+0x190>
    3658:	8b 4b 20             	mov    0x20(%ebx),%ecx
    365b:	85 c9                	test   %ecx,%ecx
    365d:	74 0f                	je     366e <exfat_node_get_new+0x13e>
    365f:	8b 43 24             	mov    0x24(%ebx),%eax
    3662:	85 c0                	test   %eax,%eax
    3664:	74 08                	je     366e <exfat_node_get_new+0x13e>
    3666:	89 08                	mov    %ecx,(%eax)
    3668:	8b 4b 20             	mov    0x20(%ebx),%ecx
    366b:	89 41 04             	mov    %eax,0x4(%ecx)
    366e:	c7 43 20 00 00 00 00 	movl   $0x0,0x20(%ebx)
    3675:	c7 43 24 00 00 00 00 	movl   $0x0,0x24(%ebx)
    367c:	c7 04 24 60 b0 02 00 	movl   $0x2b060,(%esp)
    3683:	e8 58 f3 00 00       	call   129e0 <fibril_mutex_unlock>
    3688:	80 7b 38 00          	cmpb   $0x0,0x38(%ebx)
    368c:	74 0b                	je     3699 <exfat_node_get_new+0x169>
    368e:	89 d8                	mov    %ebx,%eax
    3690:	e8 cb fc ff ff       	call   3360 <exfat_node_sync>
    3695:	85 c0                	test   %eax,%eax
    3697:	75 37                	jne    36d0 <exfat_node_get_new+0x1a0>
    3699:	8b 55 e0             	mov    -0x20(%ebp),%edx
    369c:	c7 42 34 00 00 00 00 	movl   $0x0,0x34(%edx)
    36a3:	89 34 24             	mov    %esi,(%esp)
    36a6:	e8 35 f3 00 00       	call   129e0 <fibril_mutex_unlock>
    36ab:	8b 55 dc             	mov    -0x24(%ebp),%edx
    36ae:	89 14 24             	mov    %edx,(%esp)
    36b1:	e8 2a f3 00 00       	call   129e0 <fibril_mutex_unlock>
    36b6:	8b 77 e0             	mov    -0x20(%edi),%esi
    36b9:	e9 ec fe ff ff       	jmp    35aa <exfat_node_get_new+0x7a>
    36be:	66 90                	xchg   %ax,%ax
    36c0:	89 34 24             	mov    %esi,(%esp)
    36c3:	e8 18 f3 00 00       	call   129e0 <fibril_mutex_unlock>
    36c8:	e9 9f fe ff ff       	jmp    356c <exfat_node_get_new+0x3c>
    36cd:	8d 76 00             	lea    0x0(%esi),%esi
    36d0:	8b 55 e0             	mov    -0x20(%ebp),%edx
    36d3:	c7 42 34 00 00 00 00 	movl   $0x0,0x34(%edx)
    36da:	89 34 24             	mov    %esi,(%esp)
    36dd:	89 45 d8             	mov    %eax,-0x28(%ebp)
    36e0:	e8 fb f2 00 00       	call   129e0 <fibril_mutex_unlock>
    36e5:	8b 55 dc             	mov    -0x24(%ebp),%edx
    36e8:	89 14 24             	mov    %edx,(%esp)
    36eb:	e8 f0 f2 00 00       	call   129e0 <fibril_mutex_unlock>
    36f0:	8b 57 e0             	mov    -0x20(%edi),%edx
    36f3:	89 14 24             	mov    %edx,(%esp)
    36f6:	e8 e5 7e 01 00       	call   1b5e0 <free>
    36fb:	89 1c 24             	mov    %ebx,(%esp)
    36fe:	e8 dd 7e 01 00       	call   1b5e0 <free>
    3703:	8b 45 d8             	mov    -0x28(%ebp),%eax
    3706:	e9 28 ff ff ff       	jmp    3633 <exfat_node_get_new+0x103>
    370b:	90                   	nop
    370c:	8d 74 26 00          	lea    0x0(%esi,%eiz,1),%esi
    3710:	b8 fe ff ff ff       	mov    $0xfffffffe,%eax
    3715:	e9 19 ff ff ff       	jmp    3633 <exfat_node_get_new+0x103>
    371a:	89 14 24             	mov    %edx,(%esp)
    371d:	e8 be 7e 01 00       	call   1b5e0 <free>
    3722:	b8 fe ff ff ff       	mov    $0xfffffffe,%eax
    3727:	e9 07 ff ff ff       	jmp    3633 <exfat_node_get_new+0x103>
    372c:	8d 74 26 00          	lea    0x0(%esi,%eiz,1),%esi

00003730 <exfat_has_children>:
    3730:	55                   	push   %ebp
    3731:	89 e5                	mov    %esp,%ebp
    3733:	57                   	push   %edi
    3734:	56                   	push   %esi
    3735:	53                   	push   %ebx
    3736:	83 ec 4c             	sub    $0x4c,%esp
    3739:	8b 45 0c             	mov    0xc(%ebp),%eax
    373c:	85 c0                	test   %eax,%eax
    373e:	0f 84 94 00 00 00    	je     37d8 <exfat_has_children+0xa8>
    3744:	8b 78 10             	mov    0x10(%eax),%edi
    3747:	8b 45 08             	mov    0x8(%ebp),%eax
    374a:	31 db                	xor    %ebx,%ebx
    374c:	83 7f 14 01          	cmpl   $0x1,0x14(%edi)
    3750:	c6 00 00             	movb   $0x0,(%eax)
    3753:	74 0b                	je     3760 <exfat_has_children+0x30>
    3755:	83 c4 4c             	add    $0x4c,%esp
    3758:	89 d8                	mov    %ebx,%eax
    375a:	5b                   	pop    %ebx
    375b:	5e                   	pop    %esi
    375c:	5f                   	pop    %edi
    375d:	5d                   	pop    %ebp
    375e:	c3                   	ret    
    375f:	90                   	nop
    3760:	8b 47 18             	mov    0x18(%edi),%eax
    3763:	8d 75 c0             	lea    -0x40(%ebp),%esi
    3766:	83 c0 10             	add    $0x10,%eax
    3769:	89 04 24             	mov    %eax,(%esp)
    376c:	e8 4f f1 00 00       	call   128c0 <fibril_mutex_lock>
    3771:	89 74 24 04          	mov    %esi,0x4(%esp)
    3775:	89 3c 24             	mov    %edi,(%esp)
    3778:	e8 d3 3e 00 00       	call   7650 <exfat_directory_open>
    377d:	89 c3                	mov    %eax,%ebx
    377f:	85 c0                	test   %eax,%eax
    3781:	75 3c                	jne    37bf <exfat_has_children+0x8f>
    3783:	8d 45 bc             	lea    -0x44(%ebp),%eax
    3786:	89 34 24             	mov    %esi,(%esp)
    3789:	89 44 24 04          	mov    %eax,0x4(%esp)
    378d:	e8 2e 41 00 00       	call   78c0 <exfat_directory_get>
    3792:	89 c3                	mov    %eax,%ebx
    3794:	85 c0                	test   %eax,%eax
    3796:	75 60                	jne    37f8 <exfat_has_children+0xc8>
    3798:	8b 45 bc             	mov    -0x44(%ebp),%eax
    379b:	89 04 24             	mov    %eax,(%esp)
    379e:	e8 8d 39 00 00       	call   7130 <exfat_classify_dentry>
    37a3:	83 f8 01             	cmp    $0x1,%eax
    37a6:	74 48                	je     37f0 <exfat_has_children+0xc0>
    37a8:	72 36                	jb     37e0 <exfat_has_children+0xb0>
    37aa:	83 f8 02             	cmp    $0x2,%eax
    37ad:	74 31                	je     37e0 <exfat_has_children+0xb0>
    37af:	8b 45 08             	mov    0x8(%ebp),%eax
    37b2:	c6 00 01             	movb   $0x1,(%eax)
    37b5:	89 34 24             	mov    %esi,(%esp)
    37b8:	e8 23 40 00 00       	call   77e0 <exfat_directory_close>
    37bd:	89 c3                	mov    %eax,%ebx
    37bf:	8b 47 18             	mov    0x18(%edi),%eax
    37c2:	83 c0 10             	add    $0x10,%eax
    37c5:	89 04 24             	mov    %eax,(%esp)
    37c8:	e8 13 f2 00 00       	call   129e0 <fibril_mutex_unlock>
    37cd:	83 c4 4c             	add    $0x4c,%esp
    37d0:	89 d8                	mov    %ebx,%eax
    37d2:	5b                   	pop    %ebx
    37d3:	5e                   	pop    %esi
    37d4:	5f                   	pop    %edi
    37d5:	5d                   	pop    %ebp
    37d6:	c3                   	ret    
    37d7:	90                   	nop
    37d8:	31 ff                	xor    %edi,%edi
    37da:	e9 68 ff ff ff       	jmp    3747 <exfat_has_children+0x17>
    37df:	90                   	nop
    37e0:	89 34 24             	mov    %esi,(%esp)
    37e3:	e8 28 40 00 00       	call   7810 <exfat_directory_next>
    37e8:	85 c0                	test   %eax,%eax
    37ea:	74 97                	je     3783 <exfat_has_children+0x53>
    37ec:	eb c7                	jmp    37b5 <exfat_has_children+0x85>
    37ee:	66 90                	xchg   %ax,%ax
    37f0:	8b 45 08             	mov    0x8(%ebp),%eax
    37f3:	c6 00 00             	movb   $0x0,(%eax)
    37f6:	eb bd                	jmp    37b5 <exfat_has_children+0x85>
    37f8:	89 34 24             	mov    %esi,(%esp)
    37fb:	e8 e0 3f 00 00       	call   77e0 <exfat_directory_close>
    3800:	8b 47 18             	mov    0x18(%edi),%eax
    3803:	83 c0 10             	add    $0x10,%eax
    3806:	89 04 24             	mov    %eax,(%esp)
    3809:	e8 d2 f1 00 00       	call   129e0 <fibril_mutex_unlock>
    380e:	e9 42 ff ff ff       	jmp    3755 <exfat_has_children+0x25>
    3813:	8d b6 00 00 00 00    	lea    0x0(%esi),%esi
    3819:	8d bc 27 00 00 00 00 	lea    0x0(%edi,%eiz,1),%edi

00003820 <exfat_unlink>:
    3820:	55                   	push   %ebp
    3821:	89 e5                	mov    %esp,%ebp
    3823:	57                   	push   %edi
    3824:	56                   	push   %esi
    3825:	53                   	push   %ebx
    3826:	83 ec 5c             	sub    $0x5c,%esp
    3829:	8b 55 08             	mov    0x8(%ebp),%edx
    382c:	8b 45 0c             	mov    0xc(%ebp),%eax
    382f:	85 d2                	test   %edx,%edx
    3831:	0f 84 31 01 00 00    	je     3968 <exfat_unlink+0x148>
    3837:	8b 72 10             	mov    0x10(%edx),%esi
    383a:	85 c0                	test   %eax,%eax
    383c:	0f 84 36 01 00 00    	je     3978 <exfat_unlink+0x158>
    3842:	8b 58 10             	mov    0x10(%eax),%ebx
    3845:	85 f6                	test   %esi,%esi
    3847:	0f 84 43 01 00 00    	je     3990 <exfat_unlink+0x170>
    384d:	89 44 24 04          	mov    %eax,0x4(%esp)
    3851:	8d 45 bc             	lea    -0x44(%ebp),%eax
    3854:	89 04 24             	mov    %eax,(%esp)
    3857:	e8 d4 fe ff ff       	call   3730 <exfat_has_children>
    385c:	89 c2                	mov    %eax,%edx
    385e:	85 c0                	test   %eax,%eax
    3860:	0f 85 85 00 00 00    	jne    38eb <exfat_unlink+0xcb>
    3866:	80 7d bc 00          	cmpb   $0x0,-0x44(%ebp)
    386a:	0f 85 10 01 00 00    	jne    3980 <exfat_unlink+0x160>
    3870:	8d 56 04             	lea    0x4(%esi),%edx
    3873:	89 14 24             	mov    %edx,(%esp)
    3876:	89 55 b4             	mov    %edx,-0x4c(%ebp)
    3879:	e8 42 f0 00 00       	call   128c0 <fibril_mutex_lock>
    387e:	8d 53 04             	lea    0x4(%ebx),%edx
    3881:	89 14 24             	mov    %edx,(%esp)
    3884:	89 55 b0             	mov    %edx,-0x50(%ebp)
    3887:	e8 34 f0 00 00       	call   128c0 <fibril_mutex_lock>
    388c:	83 7b 30 01          	cmpl   $0x1,0x30(%ebx)
    3890:	0f 85 04 01 00 00    	jne    399a <exfat_unlink+0x17a>
    3896:	8b 43 18             	mov    0x18(%ebx),%eax
    3899:	8d 7d c0             	lea    -0x40(%ebp),%edi
    389c:	83 c0 10             	add    $0x10,%eax
    389f:	89 04 24             	mov    %eax,(%esp)
    38a2:	e8 19 f0 00 00       	call   128c0 <fibril_mutex_lock>
    38a7:	89 7c 24 04          	mov    %edi,0x4(%esp)
    38ab:	89 34 24             	mov    %esi,(%esp)
    38ae:	e8 9d 3d 00 00       	call   7650 <exfat_directory_open>
    38b3:	89 c2                	mov    %eax,%edx
    38b5:	85 c0                	test   %eax,%eax
    38b7:	74 3f                	je     38f8 <exfat_unlink+0xd8>
    38b9:	89 3c 24             	mov    %edi,(%esp)
    38bc:	89 55 ac             	mov    %edx,-0x54(%ebp)
    38bf:	e8 1c 3f 00 00       	call   77e0 <exfat_directory_close>
    38c4:	8b 43 18             	mov    0x18(%ebx),%eax
    38c7:	83 c0 10             	add    $0x10,%eax
    38ca:	89 04 24             	mov    %eax,(%esp)
    38cd:	e8 0e f1 00 00       	call   129e0 <fibril_mutex_unlock>
    38d2:	8b 45 b0             	mov    -0x50(%ebp),%eax
    38d5:	89 04 24             	mov    %eax,(%esp)
    38d8:	e8 03 f1 00 00       	call   129e0 <fibril_mutex_unlock>
    38dd:	8b 45 b4             	mov    -0x4c(%ebp),%eax
    38e0:	89 04 24             	mov    %eax,(%esp)
    38e3:	e8 f8 f0 00 00       	call   129e0 <fibril_mutex_unlock>
    38e8:	8b 55 ac             	mov    -0x54(%ebp),%edx
    38eb:	83 c4 5c             	add    $0x5c,%esp
    38ee:	89 d0                	mov    %edx,%eax
    38f0:	5b                   	pop    %ebx
    38f1:	5e                   	pop    %esi
    38f2:	5f                   	pop    %edi
    38f3:	5d                   	pop    %ebp
    38f4:	c3                   	ret    
    38f5:	8d 76 00             	lea    0x0(%esi),%esi
    38f8:	8b 43 18             	mov    0x18(%ebx),%eax
    38fb:	8b 50 30             	mov    0x30(%eax),%edx
    38fe:	c7 44 24 08 00 00 00 	movl   $0x0,0x8(%esp)
    3905:	00 
    3906:	89 54 24 04          	mov    %edx,0x4(%esp)
    390a:	89 3c 24             	mov    %edi,(%esp)
    390d:	e8 de 48 00 00       	call   81f0 <exfat_directory_erase_file>
    3912:	89 c2                	mov    %eax,%edx
    3914:	85 c0                	test   %eax,%eax
    3916:	75 a1                	jne    38b9 <exfat_unlink+0x99>
    3918:	89 3c 24             	mov    %edi,(%esp)
    391b:	e8 c0 3e 00 00       	call   77e0 <exfat_directory_close>
    3920:	89 c2                	mov    %eax,%edx
    3922:	85 c0                	test   %eax,%eax
    3924:	75 93                	jne    38b9 <exfat_unlink+0x99>
    3926:	8b 43 18             	mov    0x18(%ebx),%eax
    3929:	89 55 ac             	mov    %edx,-0x54(%ebp)
    392c:	89 04 24             	mov    %eax,(%esp)
    392f:	e8 9c 31 00 00       	call   6ad0 <exfat_idx_hashout>
    3934:	8b 43 18             	mov    0x18(%ebx),%eax
    3937:	c7 40 2c 00 00 00 00 	movl   $0x0,0x2c(%eax)
    393e:	c7 40 30 00 00 00 00 	movl   $0x0,0x30(%eax)
    3945:	83 c0 10             	add    $0x10,%eax
    3948:	89 04 24             	mov    %eax,(%esp)
    394b:	e8 90 f0 00 00       	call   129e0 <fibril_mutex_unlock>
    3950:	8b 53 34             	mov    0x34(%ebx),%edx
    3953:	42                   	inc    %edx
    3954:	c7 43 30 00 00 00 00 	movl   $0x0,0x30(%ebx)
    395b:	89 53 34             	mov    %edx,0x34(%ebx)
    395e:	c6 43 38 01          	movb   $0x1,0x38(%ebx)
    3962:	e9 6b ff ff ff       	jmp    38d2 <exfat_unlink+0xb2>
    3967:	90                   	nop
    3968:	31 f6                	xor    %esi,%esi
    396a:	85 c0                	test   %eax,%eax
    396c:	0f 85 d0 fe ff ff    	jne    3842 <exfat_unlink+0x22>
    3972:	8d b6 00 00 00 00    	lea    0x0(%esi),%esi
    3978:	31 db                	xor    %ebx,%ebx
    397a:	e9 c6 fe ff ff       	jmp    3845 <exfat_unlink+0x25>
    397f:	90                   	nop
    3980:	ba fb fe ff ff       	mov    $0xfffffefb,%edx
    3985:	e9 61 ff ff ff       	jmp    38eb <exfat_unlink+0xcb>
    398a:	8d b6 00 00 00 00    	lea    0x0(%esi),%esi
    3990:	ba f1 ff ff ff       	mov    $0xfffffff1,%edx
    3995:	e9 51 ff ff ff       	jmp    38eb <exfat_unlink+0xcb>
    399a:	c7 44 24 08 20 03 00 	movl   $0x320,0x8(%esp)
    39a1:	00 
    39a2:	c7 44 24 04 be 83 02 	movl   $0x283be,0x4(%esp)
    39a9:	00 
    39aa:	c7 04 24 ca 83 02 00 	movl   $0x283ca,(%esp)
    39b1:	e8 fa 22 02 00       	call   25cb0 <assert_abort>
    39b6:	8d 76 00             	lea    0x0(%esi),%esi
    39b9:	8d bc 27 00 00 00 00 	lea    0x0(%edi,%eiz,1),%edi

000039c0 <exfat_link>:
    39c0:	55                   	push   %ebp
    39c1:	89 e5                	mov    %esp,%ebp
    39c3:	57                   	push   %edi
    39c4:	56                   	push   %esi
    39c5:	53                   	push   %ebx
    39c6:	83 ec 5c             	sub    $0x5c,%esp
    39c9:	8b 55 08             	mov    0x8(%ebp),%edx
    39cc:	8b 45 0c             	mov    0xc(%ebp),%eax
    39cf:	85 d2                	test   %edx,%edx
    39d1:	0f 84 31 01 00 00    	je     3b08 <exfat_link+0x148>
    39d7:	8b 72 10             	mov    0x10(%edx),%esi
    39da:	85 c0                	test   %eax,%eax
    39dc:	0f 84 36 01 00 00    	je     3b18 <exfat_link+0x158>
    39e2:	8b 58 10             	mov    0x10(%eax),%ebx
    39e5:	8d 7b 04             	lea    0x4(%ebx),%edi
    39e8:	89 3c 24             	mov    %edi,(%esp)
    39eb:	e8 d0 ee 00 00       	call   128c0 <fibril_mutex_lock>
    39f0:	8b 43 30             	mov    0x30(%ebx),%eax
    39f3:	83 f8 01             	cmp    $0x1,%eax
    39f6:	0f 84 56 01 00 00    	je     3b52 <exfat_link+0x192>
    39fc:	85 c0                	test   %eax,%eax
    39fe:	0f 85 60 01 00 00    	jne    3b64 <exfat_link+0x1a4>
    3a04:	89 3c 24             	mov    %edi,(%esp)
    3a07:	e8 d4 ef 00 00       	call   129e0 <fibril_mutex_unlock>
    3a0c:	8b 4d 10             	mov    0x10(%ebp),%ecx
    3a0f:	89 0c 24             	mov    %ecx,(%esp)
    3a12:	e8 f9 39 00 00       	call   7410 <exfat_valid_name>
    3a17:	84 c0                	test   %al,%al
    3a19:	0f 84 29 01 00 00    	je     3b48 <exfat_link+0x188>
    3a1f:	8b 46 18             	mov    0x18(%esi),%eax
    3a22:	83 c0 10             	add    $0x10,%eax
    3a25:	89 04 24             	mov    %eax,(%esp)
    3a28:	e8 93 ee 00 00       	call   128c0 <fibril_mutex_lock>
    3a2d:	8d 4d c0             	lea    -0x40(%ebp),%ecx
    3a30:	89 4c 24 04          	mov    %ecx,0x4(%esp)
    3a34:	89 34 24             	mov    %esi,(%esp)
    3a37:	89 4d b4             	mov    %ecx,-0x4c(%ebp)
    3a3a:	e8 11 3c 00 00       	call   7650 <exfat_directory_open>
    3a3f:	8b 4d b4             	mov    -0x4c(%ebp),%ecx
    3a42:	89 c2                	mov    %eax,%edx
    3a44:	85 c0                	test   %eax,%eax
    3a46:	74 10                	je     3a58 <exfat_link+0x98>
    3a48:	83 c4 5c             	add    $0x5c,%esp
    3a4b:	89 d0                	mov    %edx,%eax
    3a4d:	5b                   	pop    %ebx
    3a4e:	5e                   	pop    %esi
    3a4f:	5f                   	pop    %edi
    3a50:	5d                   	pop    %ebp
    3a51:	c3                   	ret    
    3a52:	8d b6 00 00 00 00    	lea    0x0(%esi),%esi
    3a58:	8b 45 10             	mov    0x10(%ebp),%eax
    3a5b:	89 0c 24             	mov    %ecx,(%esp)
    3a5e:	89 44 24 04          	mov    %eax,0x4(%esp)
    3a62:	e8 29 4b 00 00       	call   8590 <exfat_directory_write_file>
    3a67:	8b 4d b4             	mov    -0x4c(%ebp),%ecx
    3a6a:	85 c0                	test   %eax,%eax
    3a6c:	89 0c 24             	mov    %ecx,(%esp)
    3a6f:	0f 85 ab 00 00 00    	jne    3b20 <exfat_link+0x160>
    3a75:	e8 66 3d 00 00       	call   77e0 <exfat_directory_close>
    3a7a:	89 c2                	mov    %eax,%edx
    3a7c:	8b 46 18             	mov    0x18(%esi),%eax
    3a7f:	83 c0 10             	add    $0x10,%eax
    3a82:	89 55 b4             	mov    %edx,-0x4c(%ebp)
    3a85:	89 04 24             	mov    %eax,(%esp)
    3a88:	85 d2                	test   %edx,%edx
    3a8a:	75 6c                	jne    3af8 <exfat_link+0x138>
    3a8c:	e8 4f ef 00 00       	call   129e0 <fibril_mutex_unlock>
    3a91:	8b 43 18             	mov    0x18(%ebx),%eax
    3a94:	83 c0 10             	add    $0x10,%eax
    3a97:	89 04 24             	mov    %eax,(%esp)
    3a9a:	e8 21 ee 00 00       	call   128c0 <fibril_mutex_lock>
    3a9f:	8b 43 18             	mov    0x18(%ebx),%eax
    3aa2:	8b 4e 1c             	mov    0x1c(%esi),%ecx
    3aa5:	89 48 2c             	mov    %ecx,0x2c(%eax)
    3aa8:	8a 4e 39             	mov    0x39(%esi),%cl
    3aab:	88 48 28             	mov    %cl,0x28(%eax)
    3aae:	8b 4d d4             	mov    -0x2c(%ebp),%ecx
    3ab1:	89 48 30             	mov    %ecx,0x30(%eax)
    3ab4:	83 c0 10             	add    $0x10,%eax
    3ab7:	89 04 24             	mov    %eax,(%esp)
    3aba:	e8 21 ef 00 00       	call   129e0 <fibril_mutex_unlock>
    3abf:	89 3c 24             	mov    %edi,(%esp)
    3ac2:	e8 f9 ed 00 00       	call   128c0 <fibril_mutex_lock>
    3ac7:	c7 43 30 01 00 00 00 	movl   $0x1,0x30(%ebx)
    3ace:	c6 43 38 01          	movb   $0x1,0x38(%ebx)
    3ad2:	89 3c 24             	mov    %edi,(%esp)
    3ad5:	e8 06 ef 00 00       	call   129e0 <fibril_mutex_unlock>
    3ada:	8b 43 18             	mov    0x18(%ebx),%eax
    3add:	89 04 24             	mov    %eax,(%esp)
    3ae0:	e8 ab 2f 00 00       	call   6a90 <exfat_idx_hashin>
    3ae5:	8b 55 b4             	mov    -0x4c(%ebp),%edx
    3ae8:	83 c4 5c             	add    $0x5c,%esp
    3aeb:	89 d0                	mov    %edx,%eax
    3aed:	5b                   	pop    %ebx
    3aee:	5e                   	pop    %esi
    3aef:	5f                   	pop    %edi
    3af0:	5d                   	pop    %ebp
    3af1:	c3                   	ret    
    3af2:	8d b6 00 00 00 00    	lea    0x0(%esi),%esi
    3af8:	e8 e3 ee 00 00       	call   129e0 <fibril_mutex_unlock>
    3afd:	8b 55 b4             	mov    -0x4c(%ebp),%edx
    3b00:	e9 43 ff ff ff       	jmp    3a48 <exfat_link+0x88>
    3b05:	8d 76 00             	lea    0x0(%esi),%esi
    3b08:	31 f6                	xor    %esi,%esi
    3b0a:	85 c0                	test   %eax,%eax
    3b0c:	0f 85 d0 fe ff ff    	jne    39e2 <exfat_link+0x22>
    3b12:	8d b6 00 00 00 00    	lea    0x0(%esi),%esi
    3b18:	31 db                	xor    %ebx,%ebx
    3b1a:	e9 c6 fe ff ff       	jmp    39e5 <exfat_link+0x25>
    3b1f:	90                   	nop
    3b20:	89 45 b4             	mov    %eax,-0x4c(%ebp)
    3b23:	e8 b8 3c 00 00       	call   77e0 <exfat_directory_close>
    3b28:	8b 46 18             	mov    0x18(%esi),%eax
    3b2b:	83 c0 10             	add    $0x10,%eax
    3b2e:	89 04 24             	mov    %eax,(%esp)
    3b31:	e8 aa ee 00 00       	call   129e0 <fibril_mutex_unlock>
    3b36:	8b 55 b4             	mov    -0x4c(%ebp),%edx
    3b39:	83 c4 5c             	add    $0x5c,%esp
    3b3c:	89 d0                	mov    %edx,%eax
    3b3e:	5b                   	pop    %ebx
    3b3f:	5e                   	pop    %esi
    3b40:	5f                   	pop    %edi
    3b41:	5d                   	pop    %ebp
    3b42:	c3                   	ret    
    3b43:	90                   	nop
    3b44:	8d 74 26 00          	lea    0x0(%esi,%eiz,1),%esi
    3b48:	ba f5 ff ff ff       	mov    $0xfffffff5,%edx
    3b4d:	e9 f6 fe ff ff       	jmp    3a48 <exfat_link+0x88>
    3b52:	89 3c 24             	mov    %edi,(%esp)
    3b55:	e8 86 ee 00 00       	call   129e0 <fibril_mutex_unlock>
    3b5a:	ba f6 fe ff ff       	mov    $0xfffffef6,%edx
    3b5f:	e9 e4 fe ff ff       	jmp    3a48 <exfat_link+0x88>
    3b64:	c7 44 24 08 dc 02 00 	movl   $0x2dc,0x8(%esp)
    3b6b:	00 
    3b6c:	c7 44 24 04 be 83 02 	movl   $0x283be,0x4(%esp)
    3b73:	00 
    3b74:	c7 04 24 de 83 02 00 	movl   $0x283de,(%esp)
    3b7b:	e8 30 21 02 00       	call   25cb0 <assert_abort>

00003b80 <exfat_destroy_node>:
    3b80:	55                   	push   %ebp
    3b81:	89 e5                	mov    %esp,%ebp
    3b83:	57                   	push   %edi
    3b84:	56                   	push   %esi
    3b85:	53                   	push   %ebx
    3b86:	83 ec 3c             	sub    $0x3c,%esp
    3b89:	8b 45 08             	mov    0x8(%ebp),%eax
    3b8c:	85 c0                	test   %eax,%eax
    3b8e:	0f 84 4c 01 00 00    	je     3ce0 <exfat_destroy_node+0x160>
    3b94:	8b 58 10             	mov    0x10(%eax),%ebx
    3b97:	8b 4b 30             	mov    0x30(%ebx),%ecx
    3b9a:	85 c9                	test   %ecx,%ecx
    3b9c:	0f 85 45 01 00 00    	jne    3ce7 <exfat_destroy_node+0x167>
    3ba2:	89 44 24 04          	mov    %eax,0x4(%esp)
    3ba6:	8d 45 e4             	lea    -0x1c(%ebp),%eax
    3ba9:	89 04 24             	mov    %eax,(%esp)
    3bac:	e8 7f fb ff ff       	call   3730 <exfat_has_children>
    3bb1:	89 c6                	mov    %eax,%esi
    3bb3:	85 c0                	test   %eax,%eax
    3bb5:	75 71                	jne    3c28 <exfat_destroy_node+0xa8>
    3bb7:	80 7d e4 00          	cmpb   $0x0,-0x1c(%ebp)
    3bbb:	0f 85 42 01 00 00    	jne    3d03 <exfat_destroy_node+0x183>
    3bc1:	8b 43 18             	mov    0x18(%ebx),%eax
    3bc4:	8b 40 20             	mov    0x20(%eax),%eax
    3bc7:	89 04 24             	mov    %eax,(%esp)
    3bca:	e8 91 51 00 00       	call   8d60 <block_bb_get>
    3bcf:	89 c7                	mov    %eax,%edi
    3bd1:	8b 43 1c             	mov    0x1c(%ebx),%eax
    3bd4:	85 c0                	test   %eax,%eax
    3bd6:	74 33                	je     3c0b <exfat_destroy_node+0x8b>
    3bd8:	8b 53 28             	mov    0x28(%ebx),%edx
    3bdb:	89 55 d4             	mov    %edx,-0x2c(%ebp)
    3bde:	8b 53 2c             	mov    0x2c(%ebx),%edx
    3be1:	89 55 d0             	mov    %edx,-0x30(%ebp)
    3be4:	0b 55 d4             	or     -0x2c(%ebp),%edx
    3be7:	0f 84 32 01 00 00    	je     3d1f <exfat_destroy_node+0x19f>
    3bed:	80 7b 39 00          	cmpb   $0x0,0x39(%ebx)
    3bf1:	74 45                	je     3c38 <exfat_destroy_node+0xb8>
    3bf3:	89 44 24 08          	mov    %eax,0x8(%esp)
    3bf7:	8b 43 18             	mov    0x18(%ebx),%eax
    3bfa:	8b 40 20             	mov    0x20(%eax),%eax
    3bfd:	89 3c 24             	mov    %edi,(%esp)
    3c00:	89 44 24 04          	mov    %eax,0x4(%esp)
    3c04:	e8 77 e0 ff ff       	call   1c80 <exfat_free_clusters>
    3c09:	89 c6                	mov    %eax,%esi
    3c0b:	8b 43 18             	mov    0x18(%ebx),%eax
    3c0e:	89 04 24             	mov    %eax,(%esp)
    3c11:	e8 5a 2f 00 00       	call   6b70 <exfat_idx_destroy>
    3c16:	8b 03                	mov    (%ebx),%eax
    3c18:	89 04 24             	mov    %eax,(%esp)
    3c1b:	e8 c0 79 01 00       	call   1b5e0 <free>
    3c20:	89 1c 24             	mov    %ebx,(%esp)
    3c23:	e8 b8 79 01 00       	call   1b5e0 <free>
    3c28:	83 c4 3c             	add    $0x3c,%esp
    3c2b:	89 f0                	mov    %esi,%eax
    3c2d:	5b                   	pop    %ebx
    3c2e:	5e                   	pop    %esi
    3c2f:	5f                   	pop    %edi
    3c30:	5d                   	pop    %ebp
    3c31:	c3                   	ret    
    3c32:	8d b6 00 00 00 00    	lea    0x0(%esi),%esi
    3c38:	31 c9                	xor    %ecx,%ecx
    3c3a:	be 01 00 00 00       	mov    $0x1,%esi
    3c3f:	8a 4f 6c             	mov    0x6c(%edi),%cl
    3c42:	8b 45 d4             	mov    -0x2c(%ebp),%eax
    3c45:	d3 e6                	shl    %cl,%esi
    3c47:	31 c9                	xor    %ecx,%ecx
    3c49:	8b 55 d0             	mov    -0x30(%ebp),%edx
    3c4c:	8a 4f 6d             	mov    0x6d(%edi),%cl
    3c4f:	c7 44 24 0c 00 00 00 	movl   $0x0,0xc(%esp)
    3c56:	00 
    3c57:	d3 e6                	shl    %cl,%esi
    3c59:	89 74 24 08          	mov    %esi,0x8(%esp)
    3c5d:	89 04 24             	mov    %eax,(%esp)
    3c60:	89 54 24 04          	mov    %edx,0x4(%esp)
    3c64:	e8 b7 41 02 00       	call   27e20 <__umoddi3>
    3c69:	89 74 24 08          	mov    %esi,0x8(%esp)
    3c6d:	09 d0                	or     %edx,%eax
    3c6f:	8b 55 d0             	mov    -0x30(%ebp),%edx
    3c72:	0f 95 c0             	setne  %al
    3c75:	25 ff 00 00 00       	and    $0xff,%eax
    3c7a:	c7 44 24 0c 00 00 00 	movl   $0x0,0xc(%esp)
    3c81:	00 
    3c82:	89 45 c8             	mov    %eax,-0x38(%ebp)
    3c85:	8b 45 d4             	mov    -0x2c(%ebp),%eax
    3c88:	89 04 24             	mov    %eax,(%esp)
    3c8b:	89 54 24 04          	mov    %edx,0x4(%esp)
    3c8f:	c7 45 cc 00 00 00 00 	movl   $0x0,-0x34(%ebp)
    3c96:	e8 05 3f 02 00       	call   27ba0 <__udivdi3>
    3c9b:	03 45 c8             	add    -0x38(%ebp),%eax
    3c9e:	89 74 24 08          	mov    %esi,0x8(%esp)
    3ca2:	13 55 cc             	adc    -0x34(%ebp),%edx
    3ca5:	c7 44 24 0c 00 00 00 	movl   $0x0,0xc(%esp)
    3cac:	00 
    3cad:	89 d1                	mov    %edx,%ecx
    3caf:	0f af ce             	imul   %esi,%ecx
    3cb2:	f7 e6                	mul    %esi
    3cb4:	01 ca                	add    %ecx,%edx
    3cb6:	89 04 24             	mov    %eax,(%esp)
    3cb9:	89 54 24 04          	mov    %edx,0x4(%esp)
    3cbd:	e8 de 3e 02 00       	call   27ba0 <__udivdi3>
    3cc2:	89 5c 24 04          	mov    %ebx,0x4(%esp)
    3cc6:	89 44 24 08          	mov    %eax,0x8(%esp)
    3cca:	89 3c 24             	mov    %edi,(%esp)
    3ccd:	e8 3e f3 ff ff       	call   3010 <exfat_bitmap_free_clusters>
    3cd2:	89 c6                	mov    %eax,%esi
    3cd4:	e9 32 ff ff ff       	jmp    3c0b <exfat_destroy_node+0x8b>
    3cd9:	8d b4 26 00 00 00 00 	lea    0x0(%esi,%eiz,1),%esi
    3ce0:	31 db                	xor    %ebx,%ebx
    3ce2:	e9 b0 fe ff ff       	jmp    3b97 <exfat_destroy_node+0x17>
    3ce7:	c7 44 24 08 b1 02 00 	movl   $0x2b1,0x8(%esp)
    3cee:	00 
    3cef:	c7 44 24 04 be 83 02 	movl   $0x283be,0x4(%esp)
    3cf6:	00 
    3cf7:	c7 04 24 f2 83 02 00 	movl   $0x283f2,(%esp)
    3cfe:	e8 ad 1f 02 00       	call   25cb0 <assert_abort>
    3d03:	c7 44 24 08 b9 02 00 	movl   $0x2b9,0x8(%esp)
    3d0a:	00 
    3d0b:	c7 44 24 04 be 83 02 	movl   $0x283be,0x4(%esp)
    3d12:	00 
    3d13:	c7 04 24 05 84 02 00 	movl   $0x28405,(%esp)
    3d1a:	e8 91 1f 02 00       	call   25cb0 <assert_abort>
    3d1f:	c7 44 24 08 bd 02 00 	movl   $0x2bd,0x8(%esp)
    3d26:	00 
    3d27:	c7 44 24 04 be 83 02 	movl   $0x283be,0x4(%esp)
    3d2e:	00 
    3d2f:	c7 04 24 13 84 02 00 	movl   $0x28413,(%esp)
    3d36:	e8 75 1f 02 00       	call   25cb0 <assert_abort>
    3d3b:	90                   	nop
    3d3c:	8d 74 26 00          	lea    0x0(%esi,%eiz,1),%esi

00003d40 <exfat_mounted>:
    3d40:	55                   	push   %ebp
    3d41:	89 e5                	mov    %esp,%ebp
    3d43:	57                   	push   %edi
    3d44:	56                   	push   %esi
    3d45:	53                   	push   %ebx
    3d46:	83 ec 7c             	sub    $0x7c,%esp
    3d49:	c7 45 ac 00 00 00 00 	movl   $0x0,-0x54(%ebp)
    3d50:	8b 45 0c             	mov    0xc(%ebp),%eax
    3d53:	8b 5d 08             	mov    0x8(%ebp),%ebx
    3d56:	c7 44 24 04 1f 84 02 	movl   $0x2841f,0x4(%esp)
    3d5d:	00 
    3d5e:	89 04 24             	mov    %eax,(%esp)
    3d61:	c7 45 b0 00 00 00 00 	movl   $0x0,-0x50(%ebp)
    3d68:	c7 45 b4 00 00 00 00 	movl   $0x0,-0x4c(%ebp)
    3d6f:	e8 5c be 00 00       	call   fbd0 <str_cmp>
    3d74:	c7 44 24 08 00 02 00 	movl   $0x200,0x8(%esp)
    3d7b:	00 
    3d7c:	89 5c 24 04          	mov    %ebx,0x4(%esp)
    3d80:	c7 04 24 02 00 00 00 	movl   $0x2,(%esp)
    3d87:	89 c6                	mov    %eax,%esi
    3d89:	e8 12 4d 00 00       	call   8aa0 <block_init>
    3d8e:	89 c2                	mov    %eax,%edx
    3d90:	85 c0                	test   %eax,%eax
    3d92:	74 0c                	je     3da0 <exfat_mounted+0x60>
    3d94:	83 c4 7c             	add    $0x7c,%esp
    3d97:	89 d0                	mov    %edx,%eax
    3d99:	5b                   	pop    %ebx
    3d9a:	5e                   	pop    %esi
    3d9b:	5f                   	pop    %edi
    3d9c:	5d                   	pop    %ebp
    3d9d:	c3                   	ret    
    3d9e:	66 90                	xchg   %ax,%ax
    3da0:	c7 44 24 04 00 00 00 	movl   $0x0,0x4(%esp)
    3da7:	00 
    3da8:	c7 44 24 08 00 00 00 	movl   $0x0,0x8(%esp)
    3daf:	00 
    3db0:	89 1c 24             	mov    %ebx,(%esp)
    3db3:	e8 58 4e 00 00       	call   8c10 <block_bb_read>
    3db8:	89 1c 24             	mov    %ebx,(%esp)
    3dbb:	89 c2                	mov    %eax,%edx
    3dbd:	85 c0                	test   %eax,%eax
    3dbf:	0f 85 fe 02 00 00    	jne    40c3 <exfat_mounted+0x383>
    3dc5:	e8 96 4f 00 00       	call   8d60 <block_bb_get>
    3dca:	85 f6                	test   %esi,%esi
    3dcc:	89 c7                	mov    %eax,%edi
    3dce:	c7 44 24 08 00 00 00 	movl   $0x0,0x8(%esp)
    3dd5:	00 
    3dd6:	0f 95 c0             	setne  %al
    3dd9:	25 ff 00 00 00       	and    $0xff,%eax
    3dde:	31 c9                	xor    %ecx,%ecx
    3de0:	89 44 24 0c          	mov    %eax,0xc(%esp)
    3de4:	be 01 00 00 00       	mov    $0x1,%esi
    3de9:	8a 4f 6c             	mov    0x6c(%edi),%cl
    3dec:	89 f0                	mov    %esi,%eax
    3dee:	d3 e0                	shl    %cl,%eax
    3df0:	89 44 24 04          	mov    %eax,0x4(%esp)
    3df4:	89 1c 24             	mov    %ebx,(%esp)
    3df7:	e8 e4 4f 00 00       	call   8de0 <block_cache_init>
    3dfc:	89 c2                	mov    %eax,%edx
    3dfe:	85 c0                	test   %eax,%eax
    3e00:	0f 85 ba 02 00 00    	jne    40c0 <exfat_mounted+0x380>
    3e06:	89 5c 24 04          	mov    %ebx,0x4(%esp)
    3e0a:	89 3c 24             	mov    %edi,(%esp)
    3e0d:	e8 3e e9 ff ff       	call   2750 <exfat_sanity_check>
    3e12:	89 1c 24             	mov    %ebx,(%esp)
    3e15:	89 c2                	mov    %eax,%edx
    3e17:	85 c0                	test   %eax,%eax
    3e19:	0f 85 bc 02 00 00    	jne    40db <exfat_mounted+0x39b>
    3e1f:	e8 0c 31 00 00       	call   6f30 <exfat_idx_init_by_service_id>
    3e24:	89 c2                	mov    %eax,%edx
    3e26:	85 c0                	test   %eax,%eax
    3e28:	0f 85 aa 02 00 00    	jne    40d8 <exfat_mounted+0x398>
    3e2e:	c7 44 24 08 00 00 00 	movl   $0x0,0x8(%esp)
    3e35:	00 
    3e36:	c7 44 24 04 00 00 00 	movl   $0x0,0x4(%esp)
    3e3d:	00 
    3e3e:	89 1c 24             	mov    %ebx,(%esp)
    3e41:	e8 5a 2b 00 00       	call   69a0 <exfat_idx_get_by_pos>
    3e46:	89 c1                	mov    %eax,%ecx
    3e48:	85 c0                	test   %eax,%eax
    3e4a:	0f 84 db 02 00 00    	je     412b <exfat_mounted+0x3eb>
    3e50:	8d 45 ac             	lea    -0x54(%ebp),%eax
    3e53:	89 4d a4             	mov    %ecx,-0x5c(%ebp)
    3e56:	e8 d5 f6 ff ff       	call   3530 <exfat_node_get_new>
    3e5b:	8b 4d a4             	mov    -0x5c(%ebp),%ecx
    3e5e:	85 c0                	test   %eax,%eax
    3e60:	0f 85 c5 02 00 00    	jne    412b <exfat_mounted+0x3eb>
    3e66:	8b 55 ac             	mov    -0x54(%ebp),%edx
    3e69:	8b 41 24             	mov    0x24(%ecx),%eax
    3e6c:	85 c0                	test   %eax,%eax
    3e6e:	89 4a 18             	mov    %ecx,0x18(%edx)
    3e71:	89 51 34             	mov    %edx,0x34(%ecx)
    3e74:	0f 85 43 03 00 00    	jne    41bd <exfat_mounted+0x47d>
    3e7a:	8b 47 60             	mov    0x60(%edi),%eax
    3e7d:	c7 42 14 01 00 00 00 	movl   $0x1,0x14(%edx)
    3e84:	89 42 1c             	mov    %eax,0x1c(%edx)
    3e87:	c6 42 39 01          	movb   $0x1,0x39(%edx)
    3e8b:	c7 42 34 01 00 00 00 	movl   $0x1,0x34(%edx)
    3e92:	c7 42 30 00 00 00 00 	movl   $0x0,0x30(%edx)
    3e99:	8d 55 b8             	lea    -0x48(%ebp),%edx
    3e9c:	c7 44 24 14 ff ff ff 	movl   $0xffffffff,0x14(%esp)
    3ea3:	ff 
    3ea4:	89 54 24 10          	mov    %edx,0x10(%esp)
    3ea8:	c7 44 24 0c 00 00 00 	movl   $0x0,0xc(%esp)
    3eaf:	00 
    3eb0:	89 44 24 08          	mov    %eax,0x8(%esp)
    3eb4:	89 5c 24 04          	mov    %ebx,0x4(%esp)
    3eb8:	89 3c 24             	mov    %edi,(%esp)
    3ebb:	e8 20 d3 ff ff       	call   11e0 <exfat_cluster_walk>
    3ec0:	85 c0                	test   %eax,%eax
    3ec2:	8b 45 ac             	mov    -0x54(%ebp),%eax
    3ec5:	0f 85 2b 02 00 00    	jne    40f6 <exfat_mounted+0x3b6>
    3ecb:	31 c9                	xor    %ecx,%ecx
    3ecd:	8a 4f 6c             	mov    0x6c(%edi),%cl
    3ed0:	d3 e6                	shl    %cl,%esi
    3ed2:	31 c9                	xor    %ecx,%ecx
    3ed4:	8a 4f 6d             	mov    0x6d(%edi),%cl
    3ed7:	8b 7d b8             	mov    -0x48(%ebp),%edi
    3eda:	d3 e6                	shl    %cl,%esi
    3edc:	0f af f7             	imul   %edi,%esi
    3edf:	c7 40 2c 00 00 00 00 	movl   $0x0,0x2c(%eax)
    3ee6:	89 70 28             	mov    %esi,0x28(%eax)
    3ee9:	8b 40 18             	mov    0x18(%eax),%eax
    3eec:	8d 75 c0             	lea    -0x40(%ebp),%esi
    3eef:	83 c0 10             	add    $0x10,%eax
    3ef2:	89 04 24             	mov    %eax,(%esp)
    3ef5:	e8 e6 ea 00 00       	call   129e0 <fibril_mutex_unlock>
    3efa:	8b 45 ac             	mov    -0x54(%ebp),%eax
    3efd:	89 74 24 04          	mov    %esi,0x4(%esp)
    3f01:	89 04 24             	mov    %eax,(%esp)
    3f04:	e8 47 37 00 00       	call   7650 <exfat_directory_open>
    3f09:	85 c0                	test   %eax,%eax
    3f0b:	0f 85 e2 01 00 00    	jne    40f3 <exfat_mounted+0x3b3>
    3f11:	8d 7d bc             	lea    -0x44(%ebp),%edi
    3f14:	c7 44 24 04 04 00 00 	movl   $0x4,0x4(%esp)
    3f1b:	00 
    3f1c:	89 7c 24 08          	mov    %edi,0x8(%esp)
    3f20:	89 34 24             	mov    %esi,(%esp)
    3f23:	e8 08 3a 00 00       	call   7930 <exfat_directory_find>
    3f28:	85 c0                	test   %eax,%eax
    3f2a:	0f 85 c3 01 00 00    	jne    40f3 <exfat_mounted+0x3b3>
    3f30:	8b 45 d4             	mov    -0x2c(%ebp),%eax
    3f33:	89 44 24 08          	mov    %eax,0x8(%esp)
    3f37:	8b 45 ac             	mov    -0x54(%ebp),%eax
    3f3a:	8b 40 1c             	mov    0x1c(%eax),%eax
    3f3d:	89 1c 24             	mov    %ebx,(%esp)
    3f40:	89 44 24 04          	mov    %eax,0x4(%esp)
    3f44:	e8 57 2a 00 00       	call   69a0 <exfat_idx_get_by_pos>
    3f49:	89 c2                	mov    %eax,%edx
    3f4b:	85 c0                	test   %eax,%eax
    3f4d:	0f 84 cd 01 00 00    	je     4120 <exfat_mounted+0x3e0>
    3f53:	8d 45 b0             	lea    -0x50(%ebp),%eax
    3f56:	89 55 a4             	mov    %edx,-0x5c(%ebp)
    3f59:	e8 d2 f5 ff ff       	call   3530 <exfat_node_get_new>
    3f5e:	8b 55 a4             	mov    -0x5c(%ebp),%edx
    3f61:	85 c0                	test   %eax,%eax
    3f63:	0f 85 b7 01 00 00    	jne    4120 <exfat_mounted+0x3e0>
    3f69:	8b 45 b0             	mov    -0x50(%ebp),%eax
    3f6c:	83 7a 24 01          	cmpl   $0x1,0x24(%edx)
    3f70:	89 50 18             	mov    %edx,0x18(%eax)
    3f73:	89 42 34             	mov    %eax,0x34(%edx)
    3f76:	0f 85 25 02 00 00    	jne    41a1 <exfat_mounted+0x461>
    3f7c:	83 c2 10             	add    $0x10,%edx
    3f7f:	89 14 24             	mov    %edx,(%esp)
    3f82:	e8 59 ea 00 00       	call   129e0 <fibril_mutex_unlock>
    3f87:	8b 4d b0             	mov    -0x50(%ebp),%ecx
    3f8a:	8b 45 bc             	mov    -0x44(%ebp),%eax
    3f8d:	c7 41 14 03 00 00 00 	movl   $0x3,0x14(%ecx)
    3f94:	8b 50 14             	mov    0x14(%eax),%edx
    3f97:	c6 41 39 01          	movb   $0x1,0x39(%ecx)
    3f9b:	89 51 1c             	mov    %edx,0x1c(%ecx)
    3f9e:	8b 51 18             	mov    0x18(%ecx),%edx
    3fa1:	c6 42 28 01          	movb   $0x1,0x28(%edx)
    3fa5:	c7 41 34 01 00 00 00 	movl   $0x1,0x34(%ecx)
    3fac:	c7 41 30 00 00 00 00 	movl   $0x0,0x30(%ecx)
    3fb3:	8b 50 1c             	mov    0x1c(%eax),%edx
    3fb6:	8b 40 18             	mov    0x18(%eax),%eax
    3fb9:	89 41 28             	mov    %eax,0x28(%ecx)
    3fbc:	89 51 2c             	mov    %edx,0x2c(%ecx)
    3fbf:	c7 44 24 04 00 00 00 	movl   $0x0,0x4(%esp)
    3fc6:	00 
    3fc7:	c7 44 24 08 00 00 00 	movl   $0x0,0x8(%esp)
    3fce:	00 
    3fcf:	89 34 24             	mov    %esi,(%esp)
    3fd2:	e8 a9 38 00 00       	call   7880 <exfat_directory_seek>
    3fd7:	85 c0                	test   %eax,%eax
    3fd9:	0f 85 6e 01 00 00    	jne    414d <exfat_mounted+0x40d>
    3fdf:	89 7c 24 08          	mov    %edi,0x8(%esp)
    3fe3:	c7 44 24 04 05 00 00 	movl   $0x5,0x4(%esp)
    3fea:	00 
    3feb:	89 34 24             	mov    %esi,(%esp)
    3fee:	e8 3d 39 00 00       	call   7930 <exfat_directory_find>
    3ff3:	85 c0                	test   %eax,%eax
    3ff5:	0f 85 52 01 00 00    	jne    414d <exfat_mounted+0x40d>
    3ffb:	8b 45 d4             	mov    -0x2c(%ebp),%eax
    3ffe:	89 44 24 08          	mov    %eax,0x8(%esp)
    4002:	8b 45 ac             	mov    -0x54(%ebp),%eax
    4005:	8b 40 1c             	mov    0x1c(%eax),%eax
    4008:	89 1c 24             	mov    %ebx,(%esp)
    400b:	89 44 24 04          	mov    %eax,0x4(%esp)
    400f:	e8 8c 29 00 00       	call   69a0 <exfat_idx_get_by_pos>
    4014:	89 c7                	mov    %eax,%edi
    4016:	85 c0                	test   %eax,%eax
    4018:	0f 84 3f 01 00 00    	je     415d <exfat_mounted+0x41d>
    401e:	8d 45 b4             	lea    -0x4c(%ebp),%eax
    4021:	e8 0a f5 ff ff       	call   3530 <exfat_node_get_new>
    4026:	85 c0                	test   %eax,%eax
    4028:	0f 85 2f 01 00 00    	jne    415d <exfat_mounted+0x41d>
    402e:	8b 45 b4             	mov    -0x4c(%ebp),%eax
    4031:	83 7f 24 02          	cmpl   $0x2,0x24(%edi)
    4035:	89 78 18             	mov    %edi,0x18(%eax)
    4038:	89 47 34             	mov    %eax,0x34(%edi)
    403b:	0f 85 44 01 00 00    	jne    4185 <exfat_mounted+0x445>
    4041:	83 c7 10             	add    $0x10,%edi
    4044:	89 3c 24             	mov    %edi,(%esp)
    4047:	e8 94 e9 00 00       	call   129e0 <fibril_mutex_unlock>
    404c:	8b 4d b4             	mov    -0x4c(%ebp),%ecx
    404f:	8b 45 bc             	mov    -0x44(%ebp),%eax
    4052:	c7 41 14 04 00 00 00 	movl   $0x4,0x14(%ecx)
    4059:	8b 50 14             	mov    0x14(%eax),%edx
    405c:	c6 41 39 01          	movb   $0x1,0x39(%ecx)
    4060:	89 51 1c             	mov    %edx,0x1c(%ecx)
    4063:	8b 51 18             	mov    0x18(%ecx),%edx
    4066:	c6 42 28 01          	movb   $0x1,0x28(%edx)
    406a:	c7 41 34 01 00 00 00 	movl   $0x1,0x34(%ecx)
    4071:	c7 41 30 00 00 00 00 	movl   $0x0,0x30(%ecx)
    4078:	8b 50 1c             	mov    0x1c(%eax),%edx
    407b:	8b 40 18             	mov    0x18(%eax),%eax
    407e:	89 41 28             	mov    %eax,0x28(%ecx)
    4081:	89 51 2c             	mov    %edx,0x2c(%ecx)
    4084:	89 34 24             	mov    %esi,(%esp)
    4087:	e8 54 37 00 00       	call   77e0 <exfat_directory_close>
    408c:	89 c2                	mov    %eax,%edx
    408e:	8b 45 ac             	mov    -0x54(%ebp),%eax
    4091:	85 d2                	test   %edx,%edx
    4093:	0f 85 d4 00 00 00    	jne    416d <exfat_mounted+0x42d>
    4099:	8b 48 18             	mov    0x18(%eax),%ecx
    409c:	8b 75 14             	mov    0x14(%ebp),%esi
    409f:	8b 59 24             	mov    0x24(%ecx),%ebx
    40a2:	8b 4d 10             	mov    0x10(%ebp),%ecx
    40a5:	89 19                	mov    %ebx,(%ecx)
    40a7:	8b 48 28             	mov    0x28(%eax),%ecx
    40aa:	8b 58 2c             	mov    0x2c(%eax),%ebx
    40ad:	89 0e                	mov    %ecx,(%esi)
    40af:	8b 48 30             	mov    0x30(%eax),%ecx
    40b2:	8b 45 18             	mov    0x18(%ebp),%eax
    40b5:	89 5e 04             	mov    %ebx,0x4(%esi)
    40b8:	89 08                	mov    %ecx,(%eax)
    40ba:	e9 d5 fc ff ff       	jmp    3d94 <exfat_mounted+0x54>
    40bf:	90                   	nop
    40c0:	89 1c 24             	mov    %ebx,(%esp)
    40c3:	89 55 a4             	mov    %edx,-0x5c(%ebp)
    40c6:	e8 05 50 00 00       	call   90d0 <block_fini>
    40cb:	8b 55 a4             	mov    -0x5c(%ebp),%edx
    40ce:	83 c4 7c             	add    $0x7c,%esp
    40d1:	89 d0                	mov    %edx,%eax
    40d3:	5b                   	pop    %ebx
    40d4:	5e                   	pop    %esi
    40d5:	5f                   	pop    %edi
    40d6:	5d                   	pop    %ebp
    40d7:	c3                   	ret    
    40d8:	89 1c 24             	mov    %ebx,(%esp)
    40db:	89 55 a4             	mov    %edx,-0x5c(%ebp)
    40de:	e8 2d 4e 00 00       	call   8f10 <block_cache_fini>
    40e3:	89 1c 24             	mov    %ebx,(%esp)
    40e6:	e8 e5 4f 00 00       	call   90d0 <block_fini>
    40eb:	8b 55 a4             	mov    -0x5c(%ebp),%edx
    40ee:	e9 a1 fc ff ff       	jmp    3d94 <exfat_mounted+0x54>
    40f3:	8b 45 ac             	mov    -0x54(%ebp),%eax
    40f6:	89 04 24             	mov    %eax,(%esp)
    40f9:	e8 e2 74 01 00       	call   1b5e0 <free>
    40fe:	89 1c 24             	mov    %ebx,(%esp)
    4101:	e8 0a 4e 00 00       	call   8f10 <block_cache_fini>
    4106:	89 1c 24             	mov    %ebx,(%esp)
    4109:	e8 c2 4f 00 00       	call   90d0 <block_fini>
    410e:	89 1c 24             	mov    %ebx,(%esp)
    4111:	e8 ea 2e 00 00       	call   7000 <exfat_idx_fini_by_service_id>
    4116:	ba f5 ff ff ff       	mov    $0xfffffff5,%edx
    411b:	e9 74 fc ff ff       	jmp    3d94 <exfat_mounted+0x54>
    4120:	8b 45 ac             	mov    -0x54(%ebp),%eax
    4123:	89 04 24             	mov    %eax,(%esp)
    4126:	e8 b5 74 01 00       	call   1b5e0 <free>
    412b:	89 1c 24             	mov    %ebx,(%esp)
    412e:	e8 dd 4d 00 00       	call   8f10 <block_cache_fini>
    4133:	89 1c 24             	mov    %ebx,(%esp)
    4136:	e8 95 4f 00 00       	call   90d0 <block_fini>
    413b:	89 1c 24             	mov    %ebx,(%esp)
    413e:	e8 bd 2e 00 00       	call   7000 <exfat_idx_fini_by_service_id>
    4143:	ba fe ff ff ff       	mov    $0xfffffffe,%edx
    4148:	e9 47 fc ff ff       	jmp    3d94 <exfat_mounted+0x54>
    414d:	8b 45 ac             	mov    -0x54(%ebp),%eax
    4150:	89 04 24             	mov    %eax,(%esp)
    4153:	e8 88 74 01 00       	call   1b5e0 <free>
    4158:	8b 45 b0             	mov    -0x50(%ebp),%eax
    415b:	eb 99                	jmp    40f6 <exfat_mounted+0x3b6>
    415d:	8b 45 ac             	mov    -0x54(%ebp),%eax
    4160:	89 04 24             	mov    %eax,(%esp)
    4163:	e8 78 74 01 00       	call   1b5e0 <free>
    4168:	8b 45 b0             	mov    -0x50(%ebp),%eax
    416b:	eb b6                	jmp    4123 <exfat_mounted+0x3e3>
    416d:	89 04 24             	mov    %eax,(%esp)
    4170:	e8 6b 74 01 00       	call   1b5e0 <free>
    4175:	8b 45 b0             	mov    -0x50(%ebp),%eax
    4178:	89 04 24             	mov    %eax,(%esp)
    417b:	e8 60 74 01 00       	call   1b5e0 <free>
    4180:	8b 45 b4             	mov    -0x4c(%ebp),%eax
    4183:	eb 9e                	jmp    4123 <exfat_mounted+0x3e3>
    4185:	c7 44 24 08 67 04 00 	movl   $0x467,0x8(%esp)
    418c:	00 
    418d:	c7 44 24 04 be 83 02 	movl   $0x283be,0x4(%esp)
    4194:	00 
    4195:	c7 04 24 c4 84 02 00 	movl   $0x284c4,(%esp)
    419c:	e8 0f 1b 02 00       	call   25cb0 <assert_abort>
    41a1:	c7 44 24 08 3d 04 00 	movl   $0x43d,0x8(%esp)
    41a8:	00 
    41a9:	c7 44 24 04 be 83 02 	movl   $0x283be,0x4(%esp)
    41b0:	00 
    41b1:	c7 04 24 9c 84 02 00 	movl   $0x2849c,(%esp)
    41b8:	e8 f3 1a 02 00       	call   25cb0 <assert_abort>
    41bd:	c7 44 24 08 0a 04 00 	movl   $0x40a,0x8(%esp)
    41c4:	00 
    41c5:	c7 44 24 04 be 83 02 	movl   $0x283be,0x4(%esp)
    41cc:	00 
    41cd:	c7 04 24 78 84 02 00 	movl   $0x28478,(%esp)
    41d4:	e8 d7 1a 02 00       	call   25cb0 <assert_abort>
    41d9:	8d b4 26 00 00 00 00 	lea    0x0(%esi,%eiz,1),%esi

000041e0 <exfat_node_get_core>:
    41e0:	55                   	push   %ebp
    41e1:	89 e5                	mov    %esp,%ebp
    41e3:	57                   	push   %edi
    41e4:	56                   	push   %esi
    41e5:	53                   	push   %ebx
    41e6:	83 ec 5c             	sub    $0x5c,%esp
    41e9:	89 45 b4             	mov    %eax,-0x4c(%ebp)
    41ec:	8b 42 34             	mov    0x34(%edx),%eax
    41ef:	89 d3                	mov    %edx,%ebx
    41f1:	c7 45 bc 00 00 00 00 	movl   $0x0,-0x44(%ebp)
    41f8:	85 c0                	test   %eax,%eax
    41fa:	0f 84 88 00 00 00    	je     4288 <exfat_node_get_core+0xa8>
    4200:	83 c0 04             	add    $0x4,%eax
    4203:	89 04 24             	mov    %eax,(%esp)
    4206:	e8 b5 e6 00 00       	call   128c0 <fibril_mutex_lock>
    420b:	8b 43 34             	mov    0x34(%ebx),%eax
    420e:	8b 48 34             	mov    0x34(%eax),%ecx
    4211:	85 c9                	test   %ecx,%ecx
    4213:	8d 71 01             	lea    0x1(%ecx),%esi
    4216:	89 70 34             	mov    %esi,0x34(%eax)
    4219:	74 25                	je     4240 <exfat_node_get_core+0x60>
    421b:	83 c0 04             	add    $0x4,%eax
    421e:	31 ff                	xor    %edi,%edi
    4220:	89 04 24             	mov    %eax,(%esp)
    4223:	e8 b8 e7 00 00       	call   129e0 <fibril_mutex_unlock>
    4228:	8b 55 b4             	mov    -0x4c(%ebp),%edx
    422b:	8b 43 34             	mov    0x34(%ebx),%eax
    422e:	89 02                	mov    %eax,(%edx)
    4230:	83 c4 5c             	add    $0x5c,%esp
    4233:	89 f8                	mov    %edi,%eax
    4235:	5b                   	pop    %ebx
    4236:	5e                   	pop    %esi
    4237:	5f                   	pop    %edi
    4238:	5d                   	pop    %ebp
    4239:	c3                   	ret    
    423a:	8d b6 00 00 00 00    	lea    0x0(%esi),%esi
    4240:	c7 04 24 60 b0 02 00 	movl   $0x2b060,(%esp)
    4247:	e8 74 e6 00 00       	call   128c0 <fibril_mutex_lock>
    424c:	8b 43 34             	mov    0x34(%ebx),%eax
    424f:	8b 70 20             	mov    0x20(%eax),%esi
    4252:	85 f6                	test   %esi,%esi
    4254:	74 0f                	je     4265 <exfat_node_get_core+0x85>
    4256:	8b 48 24             	mov    0x24(%eax),%ecx
    4259:	85 c9                	test   %ecx,%ecx
    425b:	74 08                	je     4265 <exfat_node_get_core+0x85>
    425d:	89 31                	mov    %esi,(%ecx)
    425f:	8b 70 20             	mov    0x20(%eax),%esi
    4262:	89 4e 04             	mov    %ecx,0x4(%esi)
    4265:	c7 40 20 00 00 00 00 	movl   $0x0,0x20(%eax)
    426c:	c7 40 24 00 00 00 00 	movl   $0x0,0x24(%eax)
    4273:	c7 04 24 60 b0 02 00 	movl   $0x2b060,(%esp)
    427a:	e8 61 e7 00 00       	call   129e0 <fibril_mutex_unlock>
    427f:	8b 43 34             	mov    0x34(%ebx),%eax
    4282:	eb 97                	jmp    421b <exfat_node_get_core+0x3b>
    4284:	8d 74 26 00          	lea    0x0(%esi,%eiz,1),%esi
    4288:	8b 42 2c             	mov    0x2c(%edx),%eax
    428b:	85 c0                	test   %eax,%eax
    428d:	0f 84 de 02 00 00    	je     4571 <exfat_node_get_core+0x391>
    4293:	8d 45 bc             	lea    -0x44(%ebp),%eax
    4296:	e8 95 f2 ff ff       	call   3530 <exfat_node_get_new>
    429b:	89 c7                	mov    %eax,%edi
    429d:	85 c0                	test   %eax,%eax
    429f:	75 8f                	jne    4230 <exfat_node_get_core+0x50>
    42a1:	31 c0                	xor    %eax,%eax
    42a3:	8d 75 c0             	lea    -0x40(%ebp),%esi
    42a6:	8a 43 28             	mov    0x28(%ebx),%al
    42a9:	89 44 24 0c          	mov    %eax,0xc(%esp)
    42ad:	8b 43 2c             	mov    0x2c(%ebx),%eax
    42b0:	89 44 24 08          	mov    %eax,0x8(%esp)
    42b4:	8b 43 20             	mov    0x20(%ebx),%eax
    42b7:	89 34 24             	mov    %esi,(%esp)
    42ba:	89 44 24 04          	mov    %eax,0x4(%esp)
    42be:	e8 ad 34 00 00       	call   7770 <exfat_directory_open_parent>
    42c3:	8b 4b 30             	mov    0x30(%ebx),%ecx
    42c6:	89 4c 24 04          	mov    %ecx,0x4(%esp)
    42ca:	c7 44 24 08 00 00 00 	movl   $0x0,0x8(%esp)
    42d1:	00 
    42d2:	89 34 24             	mov    %esi,(%esp)
    42d5:	e8 a6 35 00 00       	call   7880 <exfat_directory_seek>
    42da:	89 c7                	mov    %eax,%edi
    42dc:	85 c0                	test   %eax,%eax
    42de:	0f 85 c4 00 00 00    	jne    43a8 <exfat_node_get_core+0x1c8>
    42e4:	8d 45 b8             	lea    -0x48(%ebp),%eax
    42e7:	89 34 24             	mov    %esi,(%esp)
    42ea:	89 44 24 04          	mov    %eax,0x4(%esp)
    42ee:	e8 cd 35 00 00       	call   78c0 <exfat_directory_get>
    42f3:	89 c7                	mov    %eax,%edi
    42f5:	85 c0                	test   %eax,%eax
    42f7:	0f 85 ab 00 00 00    	jne    43a8 <exfat_node_get_core+0x1c8>
    42fd:	8b 45 b8             	mov    -0x48(%ebp),%eax
    4300:	89 04 24             	mov    %eax,(%esp)
    4303:	e8 28 2e 00 00       	call   7130 <exfat_classify_dentry>
    4308:	83 f8 05             	cmp    $0x5,%eax
    430b:	0f 84 ff 01 00 00    	je     4510 <exfat_node_get_core+0x330>
    4311:	83 f8 07             	cmp    $0x7,%eax
    4314:	0f 84 8b 01 00 00    	je     44a5 <exfat_node_get_core+0x2c5>
    431a:	83 f8 04             	cmp    $0x4,%eax
    431d:	0f 84 21 01 00 00    	je     4444 <exfat_node_get_core+0x264>
    4323:	89 34 24             	mov    %esi,(%esp)
    4326:	e8 b5 34 00 00       	call   77e0 <exfat_directory_close>
    432b:	8b 45 bc             	mov    -0x44(%ebp),%eax
    432e:	85 c0                	test   %eax,%eax
    4330:	0f 84 16 02 00 00    	je     454c <exfat_node_get_core+0x36c>
    4336:	8b 00                	mov    (%eax),%eax
    4338:	85 c0                	test   %eax,%eax
    433a:	0f 84 0c 02 00 00    	je     454c <exfat_node_get_core+0x36c>
    4340:	8b 58 10             	mov    0x10(%eax),%ebx
    4343:	8d 73 04             	lea    0x4(%ebx),%esi
    4346:	89 34 24             	mov    %esi,(%esp)
    4349:	e8 72 e5 00 00       	call   128c0 <fibril_mutex_lock>
    434e:	8b 43 34             	mov    0x34(%ebx),%eax
    4351:	48                   	dec    %eax
    4352:	89 43 34             	mov    %eax,0x34(%ebx)
    4355:	85 c0                	test   %eax,%eax
    4357:	75 3e                	jne    4397 <exfat_node_get_core+0x1b7>
    4359:	8b 43 18             	mov    0x18(%ebx),%eax
    435c:	85 c0                	test   %eax,%eax
    435e:	0f 84 c6 01 00 00    	je     452a <exfat_node_get_core+0x34a>
    4364:	c7 04 24 60 b0 02 00 	movl   $0x2b060,(%esp)
    436b:	e8 50 e5 00 00       	call   128c0 <fibril_mutex_lock>
    4370:	8b 15 70 b0 02 00    	mov    0x2b070,%edx
    4376:	8d 43 20             	lea    0x20(%ebx),%eax
    4379:	c7 43 24 70 b0 02 00 	movl   $0x2b070,0x24(%ebx)
    4380:	89 53 20             	mov    %edx,0x20(%ebx)
    4383:	89 42 04             	mov    %eax,0x4(%edx)
    4386:	c7 04 24 60 b0 02 00 	movl   $0x2b060,(%esp)
    438d:	a3 70 b0 02 00       	mov    %eax,0x2b070
    4392:	e8 49 e6 00 00       	call   129e0 <fibril_mutex_unlock>
    4397:	89 34 24             	mov    %esi,(%esp)
    439a:	83 cf ff             	or     $0xffffffff,%edi
    439d:	e8 3e e6 00 00       	call   129e0 <fibril_mutex_unlock>
    43a2:	e9 89 fe ff ff       	jmp    4230 <exfat_node_get_core+0x50>
    43a7:	90                   	nop
    43a8:	89 34 24             	mov    %esi,(%esp)
    43ab:	e8 30 34 00 00       	call   77e0 <exfat_directory_close>
    43b0:	8b 45 bc             	mov    -0x44(%ebp),%eax
    43b3:	85 c0                	test   %eax,%eax
    43b5:	0f 84 d3 00 00 00    	je     448e <exfat_node_get_core+0x2ae>
    43bb:	8b 00                	mov    (%eax),%eax
    43bd:	85 c0                	test   %eax,%eax
    43bf:	0f 84 c9 00 00 00    	je     448e <exfat_node_get_core+0x2ae>
    43c5:	8b 58 10             	mov    0x10(%eax),%ebx
    43c8:	8d 73 04             	lea    0x4(%ebx),%esi
    43cb:	89 34 24             	mov    %esi,(%esp)
    43ce:	e8 ed e4 00 00       	call   128c0 <fibril_mutex_lock>
    43d3:	8b 43 34             	mov    0x34(%ebx),%eax
    43d6:	48                   	dec    %eax
    43d7:	89 43 34             	mov    %eax,0x34(%ebx)
    43da:	85 c0                	test   %eax,%eax
    43dc:	75 3a                	jne    4418 <exfat_node_get_core+0x238>
    43de:	8b 43 18             	mov    0x18(%ebx),%eax
    43e1:	85 c0                	test   %eax,%eax
    43e3:	74 40                	je     4425 <exfat_node_get_core+0x245>
    43e5:	c7 04 24 60 b0 02 00 	movl   $0x2b060,(%esp)
    43ec:	e8 cf e4 00 00       	call   128c0 <fibril_mutex_lock>
    43f1:	c7 43 24 70 b0 02 00 	movl   $0x2b070,0x24(%ebx)
    43f8:	8b 15 70 b0 02 00    	mov    0x2b070,%edx
    43fe:	8d 43 20             	lea    0x20(%ebx),%eax
    4401:	89 53 20             	mov    %edx,0x20(%ebx)
    4404:	89 42 04             	mov    %eax,0x4(%edx)
    4407:	c7 04 24 60 b0 02 00 	movl   $0x2b060,(%esp)
    440e:	a3 70 b0 02 00       	mov    %eax,0x2b070
    4413:	e8 c8 e5 00 00       	call   129e0 <fibril_mutex_unlock>
    4418:	89 34 24             	mov    %esi,(%esp)
    441b:	e8 c0 e5 00 00       	call   129e0 <fibril_mutex_unlock>
    4420:	e9 0b fe ff ff       	jmp    4230 <exfat_node_get_core+0x50>
    4425:	89 34 24             	mov    %esi,(%esp)
    4428:	e8 b3 e5 00 00       	call   129e0 <fibril_mutex_unlock>
    442d:	8b 03                	mov    (%ebx),%eax
    442f:	89 04 24             	mov    %eax,(%esp)
    4432:	e8 a9 71 01 00       	call   1b5e0 <free>
    4437:	89 1c 24             	mov    %ebx,(%esp)
    443a:	e8 a1 71 01 00       	call   1b5e0 <free>
    443f:	e9 ec fd ff ff       	jmp    4230 <exfat_node_get_core+0x50>
    4444:	8b 45 bc             	mov    -0x44(%ebp),%eax
    4447:	8b 4d b8             	mov    -0x48(%ebp),%ecx
    444a:	c7 40 14 03 00 00 00 	movl   $0x3,0x14(%eax)
    4451:	8b 79 14             	mov    0x14(%ecx),%edi
    4454:	89 78 1c             	mov    %edi,0x1c(%eax)
    4457:	8b 51 18             	mov    0x18(%ecx),%edx
    445a:	8b 49 1c             	mov    0x1c(%ecx),%ecx
    445d:	89 48 2c             	mov    %ecx,0x2c(%eax)
    4460:	89 50 28             	mov    %edx,0x28(%eax)
    4463:	c6 40 39 01          	movb   $0x1,0x39(%eax)
    4467:	c7 40 30 01 00 00 00 	movl   $0x1,0x30(%eax)
    446e:	c7 40 34 01 00 00 00 	movl   $0x1,0x34(%eax)
    4475:	89 34 24             	mov    %esi,(%esp)
    4478:	e8 63 33 00 00       	call   77e0 <exfat_directory_close>
    447d:	89 c7                	mov    %eax,%edi
    447f:	8b 45 bc             	mov    -0x44(%ebp),%eax
    4482:	85 ff                	test   %edi,%edi
    4484:	74 0f                	je     4495 <exfat_node_get_core+0x2b5>
    4486:	85 c0                	test   %eax,%eax
    4488:	0f 85 2d ff ff ff    	jne    43bb <exfat_node_get_core+0x1db>
    448e:	31 db                	xor    %ebx,%ebx
    4490:	e9 33 ff ff ff       	jmp    43c8 <exfat_node_get_core+0x1e8>
    4495:	8b 55 b4             	mov    -0x4c(%ebp),%edx
    4498:	89 58 18             	mov    %ebx,0x18(%eax)
    449b:	89 43 34             	mov    %eax,0x34(%ebx)
    449e:	89 02                	mov    %eax,(%edx)
    44a0:	e9 8b fd ff ff       	jmp    4230 <exfat_node_get_core+0x50>
    44a5:	8b 45 b8             	mov    -0x48(%ebp),%eax
    44a8:	8b 4d bc             	mov    -0x44(%ebp),%ecx
    44ab:	66 8b 40 04          	mov    0x4(%eax),%ax
    44af:	c1 e0 1b             	shl    $0x1b,%eax
    44b2:	c1 f8 1f             	sar    $0x1f,%eax
    44b5:	83 c0 02             	add    $0x2,%eax
    44b8:	89 41 14             	mov    %eax,0x14(%ecx)
    44bb:	89 34 24             	mov    %esi,(%esp)
    44be:	e8 4d 33 00 00       	call   7810 <exfat_directory_next>
    44c3:	89 c7                	mov    %eax,%edi
    44c5:	85 c0                	test   %eax,%eax
    44c7:	0f 85 db fe ff ff    	jne    43a8 <exfat_node_get_core+0x1c8>
    44cd:	8d 55 b8             	lea    -0x48(%ebp),%edx
    44d0:	89 34 24             	mov    %esi,(%esp)
    44d3:	89 54 24 04          	mov    %edx,0x4(%esp)
    44d7:	e8 e4 33 00 00       	call   78c0 <exfat_directory_get>
    44dc:	89 c7                	mov    %eax,%edi
    44de:	85 c0                	test   %eax,%eax
    44e0:	75 71                	jne    4553 <exfat_node_get_core+0x373>
    44e2:	8b 4d b8             	mov    -0x48(%ebp),%ecx
    44e5:	8b 45 bc             	mov    -0x44(%ebp),%eax
    44e8:	8b 79 14             	mov    0x14(%ecx),%edi
    44eb:	89 78 1c             	mov    %edi,0x1c(%eax)
    44ee:	8b 51 18             	mov    0x18(%ecx),%edx
    44f1:	8b 49 1c             	mov    0x1c(%ecx),%ecx
    44f4:	89 50 28             	mov    %edx,0x28(%eax)
    44f7:	8b 55 b8             	mov    -0x48(%ebp),%edx
    44fa:	89 48 2c             	mov    %ecx,0x2c(%eax)
    44fd:	8a 4a 01             	mov    0x1(%edx),%cl
    4500:	d0 e9                	shr    %cl
    4502:	83 f1 01             	xor    $0x1,%ecx
    4505:	83 e1 01             	and    $0x1,%ecx
    4508:	88 48 39             	mov    %cl,0x39(%eax)
    450b:	e9 57 ff ff ff       	jmp    4467 <exfat_node_get_core+0x287>
    4510:	8b 45 bc             	mov    -0x44(%ebp),%eax
    4513:	8b 55 b8             	mov    -0x48(%ebp),%edx
    4516:	89 d1                	mov    %edx,%ecx
    4518:	c7 40 14 04 00 00 00 	movl   $0x4,0x14(%eax)
    451f:	8b 7a 14             	mov    0x14(%edx),%edi
    4522:	89 78 1c             	mov    %edi,0x1c(%eax)
    4525:	e9 2d ff ff ff       	jmp    4457 <exfat_node_get_core+0x277>
    452a:	89 34 24             	mov    %esi,(%esp)
    452d:	83 cf ff             	or     $0xffffffff,%edi
    4530:	e8 ab e4 00 00       	call   129e0 <fibril_mutex_unlock>
    4535:	8b 03                	mov    (%ebx),%eax
    4537:	89 04 24             	mov    %eax,(%esp)
    453a:	e8 a1 70 01 00       	call   1b5e0 <free>
    453f:	89 1c 24             	mov    %ebx,(%esp)
    4542:	e8 99 70 01 00       	call   1b5e0 <free>
    4547:	e9 e4 fc ff ff       	jmp    4230 <exfat_node_get_core+0x50>
    454c:	31 db                	xor    %ebx,%ebx
    454e:	e9 f0 fd ff ff       	jmp    4343 <exfat_node_get_core+0x163>
    4553:	89 34 24             	mov    %esi,(%esp)
    4556:	e8 85 32 00 00       	call   77e0 <exfat_directory_close>
    455b:	8b 45 bc             	mov    -0x44(%ebp),%eax
    455e:	85 c0                	test   %eax,%eax
    4560:	74 2b                	je     458d <exfat_node_get_core+0x3ad>
    4562:	8b 00                	mov    (%eax),%eax
    4564:	89 04 24             	mov    %eax,(%esp)
    4567:	e8 14 ef ff ff       	call   3480 <exfat_node_put>
    456c:	e9 bf fc ff ff       	jmp    4230 <exfat_node_get_core+0x50>
    4571:	c7 44 24 08 3c 01 00 	movl   $0x13c,0x8(%esp)
    4578:	00 
    4579:	c7 44 24 04 be 83 02 	movl   $0x283be,0x4(%esp)
    4580:	00 
    4581:	c7 04 24 27 84 02 00 	movl   $0x28427,(%esp)
    4588:	e8 23 17 02 00       	call   25cb0 <assert_abort>
    458d:	31 c0                	xor    %eax,%eax
    458f:	eb d3                	jmp    4564 <exfat_node_get_core+0x384>
    4591:	eb 0d                	jmp    45a0 <exfat_node_get>
    4593:	90                   	nop
    4594:	90                   	nop
    4595:	90                   	nop
    4596:	90                   	nop
    4597:	90                   	nop
    4598:	90                   	nop
    4599:	90                   	nop
    459a:	90                   	nop
    459b:	90                   	nop
    459c:	90                   	nop
    459d:	90                   	nop
    459e:	90                   	nop
    459f:	90                   	nop

000045a0 <exfat_node_get>:
    45a0:	55                   	push   %ebp
    45a1:	89 e5                	mov    %esp,%ebp
    45a3:	53                   	push   %ebx
    45a4:	83 ec 34             	sub    $0x34,%esp
    45a7:	8b 45 10             	mov    0x10(%ebp),%eax
    45aa:	89 44 24 04          	mov    %eax,0x4(%esp)
    45ae:	8b 45 0c             	mov    0xc(%ebp),%eax
    45b1:	89 04 24             	mov    %eax,(%esp)
    45b4:	e8 57 25 00 00       	call   6b10 <exfat_idx_get_by_index>
    45b9:	89 c3                	mov    %eax,%ebx
    45bb:	85 c0                	test   %eax,%eax
    45bd:	74 39                	je     45f8 <exfat_node_get+0x58>
    45bf:	89 c2                	mov    %eax,%edx
    45c1:	8d 45 f4             	lea    -0xc(%ebp),%eax
    45c4:	e8 17 fc ff ff       	call   41e0 <exfat_node_get_core>
    45c9:	83 c3 10             	add    $0x10,%ebx
    45cc:	89 1c 24             	mov    %ebx,(%esp)
    45cf:	89 45 e4             	mov    %eax,-0x1c(%ebp)
    45d2:	e8 09 e4 00 00       	call   129e0 <fibril_mutex_unlock>
    45d7:	8b 45 e4             	mov    -0x1c(%ebp),%eax
    45da:	85 c0                	test   %eax,%eax
    45dc:	75 0e                	jne    45ec <exfat_node_get+0x4c>
    45de:	8b 55 f4             	mov    -0xc(%ebp),%edx
    45e1:	85 d2                	test   %edx,%edx
    45e3:	74 2b                	je     4610 <exfat_node_get+0x70>
    45e5:	8b 12                	mov    (%edx),%edx
    45e7:	8b 4d 08             	mov    0x8(%ebp),%ecx
    45ea:	89 11                	mov    %edx,(%ecx)
    45ec:	83 c4 34             	add    $0x34,%esp
    45ef:	5b                   	pop    %ebx
    45f0:	5d                   	pop    %ebp
    45f1:	c3                   	ret    
    45f2:	8d b6 00 00 00 00    	lea    0x0(%esi),%esi
    45f8:	8b 45 08             	mov    0x8(%ebp),%eax
    45fb:	c7 00 00 00 00 00    	movl   $0x0,(%eax)
    4601:	83 c4 34             	add    $0x34,%esp
    4604:	31 c0                	xor    %eax,%eax
    4606:	5b                   	pop    %ebx
    4607:	5d                   	pop    %ebp
    4608:	c3                   	ret    
    4609:	8d b4 26 00 00 00 00 	lea    0x0(%esi,%eiz,1),%esi
    4610:	31 d2                	xor    %edx,%edx
    4612:	eb d3                	jmp    45e7 <exfat_node_get+0x47>
    4614:	8d b6 00 00 00 00    	lea    0x0(%esi),%esi
    461a:	8d bf 00 00 00 00    	lea    0x0(%edi),%edi

00004620 <exfat_sync>:
    4620:	55                   	push   %ebp
    4621:	89 e5                	mov    %esp,%ebp
    4623:	57                   	push   %edi
    4624:	56                   	push   %esi
    4625:	53                   	push   %ebx
    4626:	83 ec 2c             	sub    $0x2c,%esp
    4629:	8b 45 0c             	mov    0xc(%ebp),%eax
    462c:	89 44 24 04          	mov    %eax,0x4(%esp)
    4630:	8b 45 08             	mov    0x8(%ebp),%eax
    4633:	89 04 24             	mov    %eax,(%esp)
    4636:	e8 d5 24 00 00       	call   6b10 <exfat_idx_get_by_index>
    463b:	89 c6                	mov    %eax,%esi
    463d:	85 c0                	test   %eax,%eax
    463f:	0f 84 9b 00 00 00    	je     46e0 <exfat_sync+0xc0>
    4645:	89 c2                	mov    %eax,%edx
    4647:	8d 45 e4             	lea    -0x1c(%ebp),%eax
    464a:	e8 91 fb ff ff       	call   41e0 <exfat_node_get_core>
    464f:	83 c6 10             	add    $0x10,%esi
    4652:	89 c3                	mov    %eax,%ebx
    4654:	89 34 24             	mov    %esi,(%esp)
    4657:	e8 84 e3 00 00       	call   129e0 <fibril_mutex_unlock>
    465c:	85 db                	test   %ebx,%ebx
    465e:	75 76                	jne    46d6 <exfat_sync+0xb6>
    4660:	8b 45 e4             	mov    -0x1c(%ebp),%eax
    4663:	85 c0                	test   %eax,%eax
    4665:	74 79                	je     46e0 <exfat_sync+0xc0>
    4667:	8b 30                	mov    (%eax),%esi
    4669:	85 f6                	test   %esi,%esi
    466b:	74 73                	je     46e0 <exfat_sync+0xc0>
    466d:	8b 46 10             	mov    0x10(%esi),%eax
    4670:	c6 40 38 01          	movb   $0x1,0x38(%eax)
    4674:	e8 e7 ec ff ff       	call   3360 <exfat_node_sync>
    4679:	8b 76 10             	mov    0x10(%esi),%esi
    467c:	8d 7e 04             	lea    0x4(%esi),%edi
    467f:	89 c3                	mov    %eax,%ebx
    4681:	89 3c 24             	mov    %edi,(%esp)
    4684:	e8 37 e2 00 00       	call   128c0 <fibril_mutex_lock>
    4689:	8b 46 34             	mov    0x34(%esi),%eax
    468c:	48                   	dec    %eax
    468d:	89 46 34             	mov    %eax,0x34(%esi)
    4690:	85 c0                	test   %eax,%eax
    4692:	75 3a                	jne    46ce <exfat_sync+0xae>
    4694:	8b 46 18             	mov    0x18(%esi),%eax
    4697:	85 c0                	test   %eax,%eax
    4699:	74 55                	je     46f0 <exfat_sync+0xd0>
    469b:	c7 04 24 60 b0 02 00 	movl   $0x2b060,(%esp)
    46a2:	e8 19 e2 00 00       	call   128c0 <fibril_mutex_lock>
    46a7:	8b 15 70 b0 02 00    	mov    0x2b070,%edx
    46ad:	8d 46 20             	lea    0x20(%esi),%eax
    46b0:	c7 46 24 70 b0 02 00 	movl   $0x2b070,0x24(%esi)
    46b7:	89 56 20             	mov    %edx,0x20(%esi)
    46ba:	89 42 04             	mov    %eax,0x4(%edx)
    46bd:	c7 04 24 60 b0 02 00 	movl   $0x2b060,(%esp)
    46c4:	a3 70 b0 02 00       	mov    %eax,0x2b070
    46c9:	e8 12 e3 00 00       	call   129e0 <fibril_mutex_unlock>
    46ce:	89 3c 24             	mov    %edi,(%esp)
    46d1:	e8 0a e3 00 00       	call   129e0 <fibril_mutex_unlock>
    46d6:	83 c4 2c             	add    $0x2c,%esp
    46d9:	89 d8                	mov    %ebx,%eax
    46db:	5b                   	pop    %ebx
    46dc:	5e                   	pop    %esi
    46dd:	5f                   	pop    %edi
    46de:	5d                   	pop    %ebp
    46df:	c3                   	ret    
    46e0:	83 c4 2c             	add    $0x2c,%esp
    46e3:	83 cb ff             	or     $0xffffffff,%ebx
    46e6:	89 d8                	mov    %ebx,%eax
    46e8:	5b                   	pop    %ebx
    46e9:	5e                   	pop    %esi
    46ea:	5f                   	pop    %edi
    46eb:	5d                   	pop    %ebp
    46ec:	c3                   	ret    
    46ed:	8d 76 00             	lea    0x0(%esi),%esi
    46f0:	89 3c 24             	mov    %edi,(%esp)
    46f3:	e8 e8 e2 00 00       	call   129e0 <fibril_mutex_unlock>
    46f8:	8b 06                	mov    (%esi),%eax
    46fa:	89 04 24             	mov    %eax,(%esp)
    46fd:	e8 de 6e 01 00       	call   1b5e0 <free>
    4702:	89 34 24             	mov    %esi,(%esp)
    4705:	e8 d6 6e 01 00       	call   1b5e0 <free>
    470a:	eb ca                	jmp    46d6 <exfat_sync+0xb6>
    470c:	8d 74 26 00          	lea    0x0(%esi,%eiz,1),%esi

00004710 <exfat_destroy>:
    4710:	55                   	push   %ebp
    4711:	89 e5                	mov    %esp,%ebp
    4713:	53                   	push   %ebx
    4714:	83 ec 34             	sub    $0x34,%esp
    4717:	8b 45 0c             	mov    0xc(%ebp),%eax
    471a:	89 44 24 04          	mov    %eax,0x4(%esp)
    471e:	8b 45 08             	mov    0x8(%ebp),%eax
    4721:	89 04 24             	mov    %eax,(%esp)
    4724:	e8 e7 23 00 00       	call   6b10 <exfat_idx_get_by_index>
    4729:	89 c3                	mov    %eax,%ebx
    472b:	85 c0                	test   %eax,%eax
    472d:	74 49                	je     4778 <exfat_destroy+0x68>
    472f:	89 c2                	mov    %eax,%edx
    4731:	8d 45 f4             	lea    -0xc(%ebp),%eax
    4734:	e8 a7 fa ff ff       	call   41e0 <exfat_node_get_core>
    4739:	83 c3 10             	add    $0x10,%ebx
    473c:	89 1c 24             	mov    %ebx,(%esp)
    473f:	89 45 e4             	mov    %eax,-0x1c(%ebp)
    4742:	e8 99 e2 00 00       	call   129e0 <fibril_mutex_unlock>
    4747:	8b 45 e4             	mov    -0x1c(%ebp),%eax
    474a:	85 c0                	test   %eax,%eax
    474c:	75 1e                	jne    476c <exfat_destroy+0x5c>
    474e:	8b 45 f4             	mov    -0xc(%ebp),%eax
    4751:	85 c0                	test   %eax,%eax
    4753:	74 23                	je     4778 <exfat_destroy+0x68>
    4755:	8b 00                	mov    (%eax),%eax
    4757:	85 c0                	test   %eax,%eax
    4759:	74 1d                	je     4778 <exfat_destroy+0x68>
    475b:	8b 50 10             	mov    0x10(%eax),%edx
    475e:	83 7a 34 02          	cmpl   $0x2,0x34(%edx)
    4762:	75 1d                	jne    4781 <exfat_destroy+0x71>
    4764:	89 04 24             	mov    %eax,(%esp)
    4767:	e8 14 f4 ff ff       	call   3b80 <exfat_destroy_node>
    476c:	83 c4 34             	add    $0x34,%esp
    476f:	5b                   	pop    %ebx
    4770:	5d                   	pop    %ebp
    4771:	c3                   	ret    
    4772:	8d b6 00 00 00 00    	lea    0x0(%esi),%esi
    4778:	83 c4 34             	add    $0x34,%esp
    477b:	83 c8 ff             	or     $0xffffffff,%eax
    477e:	5b                   	pop    %ebx
    477f:	5d                   	pop    %ebp
    4780:	c3                   	ret    
    4781:	c7 44 24 08 ce 05 00 	movl   $0x5ce,0x8(%esp)
    4788:	00 
    4789:	c7 44 24 04 be 83 02 	movl   $0x283be,0x4(%esp)
    4790:	00 
    4791:	c7 04 24 31 84 02 00 	movl   $0x28431,(%esp)
    4798:	e8 13 15 02 00       	call   25cb0 <assert_abort>
    479d:	8d 76 00             	lea    0x0(%esi),%esi

000047a0 <exfat_root_get>:
    47a0:	55                   	push   %ebp
    47a1:	89 e5                	mov    %esp,%ebp
    47a3:	53                   	push   %ebx
    47a4:	83 ec 34             	sub    $0x34,%esp
    47a7:	8b 45 0c             	mov    0xc(%ebp),%eax
    47aa:	c7 44 24 04 00 00 00 	movl   $0x0,0x4(%esp)
    47b1:	00 
    47b2:	89 04 24             	mov    %eax,(%esp)
    47b5:	e8 56 23 00 00       	call   6b10 <exfat_idx_get_by_index>
    47ba:	89 c3                	mov    %eax,%ebx
    47bc:	85 c0                	test   %eax,%eax
    47be:	74 38                	je     47f8 <exfat_root_get+0x58>
    47c0:	89 c2                	mov    %eax,%edx
    47c2:	8d 45 f4             	lea    -0xc(%ebp),%eax
    47c5:	e8 16 fa ff ff       	call   41e0 <exfat_node_get_core>
    47ca:	83 c3 10             	add    $0x10,%ebx
    47cd:	89 1c 24             	mov    %ebx,(%esp)
    47d0:	89 45 e4             	mov    %eax,-0x1c(%ebp)
    47d3:	e8 08 e2 00 00       	call   129e0 <fibril_mutex_unlock>
    47d8:	8b 45 e4             	mov    -0x1c(%ebp),%eax
    47db:	85 c0                	test   %eax,%eax
    47dd:	75 0e                	jne    47ed <exfat_root_get+0x4d>
    47df:	8b 55 f4             	mov    -0xc(%ebp),%edx
    47e2:	85 d2                	test   %edx,%edx
    47e4:	74 2a                	je     4810 <exfat_root_get+0x70>
    47e6:	8b 12                	mov    (%edx),%edx
    47e8:	8b 4d 08             	mov    0x8(%ebp),%ecx
    47eb:	89 11                	mov    %edx,(%ecx)
    47ed:	83 c4 34             	add    $0x34,%esp
    47f0:	5b                   	pop    %ebx
    47f1:	5d                   	pop    %ebp
    47f2:	c3                   	ret    
    47f3:	90                   	nop
    47f4:	8d 74 26 00          	lea    0x0(%esi,%eiz,1),%esi
    47f8:	8b 45 08             	mov    0x8(%ebp),%eax
    47fb:	c7 00 00 00 00 00    	movl   $0x0,(%eax)
    4801:	83 c4 34             	add    $0x34,%esp
    4804:	31 c0                	xor    %eax,%eax
    4806:	5b                   	pop    %ebx
    4807:	5d                   	pop    %ebp
    4808:	c3                   	ret    
    4809:	8d b4 26 00 00 00 00 	lea    0x0(%esi,%eiz,1),%esi
    4810:	31 d2                	xor    %edx,%edx
    4812:	eb d4                	jmp    47e8 <exfat_root_get+0x48>
    4814:	8d b6 00 00 00 00    	lea    0x0(%esi),%esi
    481a:	8d bf 00 00 00 00    	lea    0x0(%edi),%edi

00004820 <exfat_truncate>:
    4820:	55                   	push   %ebp
    4821:	89 e5                	mov    %esp,%ebp
    4823:	57                   	push   %edi
    4824:	56                   	push   %esi
    4825:	53                   	push   %ebx
    4826:	83 ec 6c             	sub    $0x6c,%esp
    4829:	8b 45 10             	mov    0x10(%ebp),%eax
    482c:	8b 5d 08             	mov    0x8(%ebp),%ebx
    482f:	89 45 d0             	mov    %eax,-0x30(%ebp)
    4832:	8b 45 0c             	mov    0xc(%ebp),%eax
    4835:	8b 55 14             	mov    0x14(%ebp),%edx
    4838:	89 1c 24             	mov    %ebx,(%esp)
    483b:	89 44 24 04          	mov    %eax,0x4(%esp)
    483f:	89 55 d4             	mov    %edx,-0x2c(%ebp)
    4842:	e8 c9 22 00 00       	call   6b10 <exfat_idx_get_by_index>
    4847:	89 c3                	mov    %eax,%ebx
    4849:	85 c0                	test   %eax,%eax
    484b:	0f 84 47 03 00 00    	je     4b98 <exfat_truncate+0x378>
    4851:	89 c2                	mov    %eax,%edx
    4853:	8d 45 e0             	lea    -0x20(%ebp),%eax
    4856:	e8 85 f9 ff ff       	call   41e0 <exfat_node_get_core>
    485b:	83 c3 10             	add    $0x10,%ebx
    485e:	89 c7                	mov    %eax,%edi
    4860:	89 1c 24             	mov    %ebx,(%esp)
    4863:	e8 78 e1 00 00       	call   129e0 <fibril_mutex_unlock>
    4868:	85 ff                	test   %edi,%edi
    486a:	0f 85 1a 03 00 00    	jne    4b8a <exfat_truncate+0x36a>
    4870:	8b 45 e0             	mov    -0x20(%ebp),%eax
    4873:	85 c0                	test   %eax,%eax
    4875:	0f 84 1d 03 00 00    	je     4b98 <exfat_truncate+0x378>
    487b:	8b 00                	mov    (%eax),%eax
    487d:	89 45 b8             	mov    %eax,-0x48(%ebp)
    4880:	85 c0                	test   %eax,%eax
    4882:	0f 84 10 03 00 00    	je     4b98 <exfat_truncate+0x378>
    4888:	8b 70 10             	mov    0x10(%eax),%esi
    488b:	8b 5d 08             	mov    0x8(%ebp),%ebx
    488e:	89 1c 24             	mov    %ebx,(%esp)
    4891:	e8 ca 44 00 00       	call   8d60 <block_bb_get>
    4896:	8b 5e 28             	mov    0x28(%esi),%ebx
    4899:	89 5d c0             	mov    %ebx,-0x40(%ebp)
    489c:	8b 4d d4             	mov    -0x2c(%ebp),%ecx
    489f:	8b 55 c0             	mov    -0x40(%ebp),%edx
    48a2:	8b 5e 2c             	mov    0x2c(%esi),%ebx
    48a5:	33 55 d0             	xor    -0x30(%ebp),%edx
    48a8:	31 d9                	xor    %ebx,%ecx
    48aa:	09 d1                	or     %edx,%ecx
    48ac:	0f 84 76 02 00 00    	je     4b28 <exfat_truncate+0x308>
    48b2:	3b 5d d4             	cmp    -0x2c(%ebp),%ebx
    48b5:	0f 82 f9 02 00 00    	jb     4bb4 <exfat_truncate+0x394>
    48bb:	0f 86 e7 02 00 00    	jbe    4ba8 <exfat_truncate+0x388>
    48c1:	31 c9                	xor    %ecx,%ecx
    48c3:	ba 01 00 00 00       	mov    $0x1,%edx
    48c8:	8a 48 6c             	mov    0x6c(%eax),%cl
    48cb:	d3 e2                	shl    %cl,%edx
    48cd:	31 c9                	xor    %ecx,%ecx
    48cf:	8a 48 6d             	mov    0x6d(%eax),%cl
    48d2:	89 5c 24 04          	mov    %ebx,0x4(%esp)
    48d6:	d3 e2                	shl    %cl,%edx
    48d8:	8b 4d c0             	mov    -0x40(%ebp),%ecx
    48db:	89 54 24 08          	mov    %edx,0x8(%esp)
    48df:	89 0c 24             	mov    %ecx,(%esp)
    48e2:	c7 44 24 0c 00 00 00 	movl   $0x0,0xc(%esp)
    48e9:	00 
    48ea:	89 55 bc             	mov    %edx,-0x44(%ebp)
    48ed:	e8 2e 35 02 00       	call   27e20 <__umoddi3>
    48f2:	09 d0                	or     %edx,%eax
    48f4:	8b 55 c0             	mov    -0x40(%ebp),%edx
    48f7:	0f 95 c0             	setne  %al
    48fa:	25 ff 00 00 00       	and    $0xff,%eax
    48ff:	89 5c 24 04          	mov    %ebx,0x4(%esp)
    4903:	89 45 b0             	mov    %eax,-0x50(%ebp)
    4906:	8b 45 bc             	mov    -0x44(%ebp),%eax
    4909:	89 44 24 08          	mov    %eax,0x8(%esp)
    490d:	c7 44 24 0c 00 00 00 	movl   $0x0,0xc(%esp)
    4914:	00 
    4915:	89 14 24             	mov    %edx,(%esp)
    4918:	c7 45 b4 00 00 00 00 	movl   $0x0,-0x4c(%ebp)
    491f:	e8 7c 32 02 00       	call   27ba0 <__udivdi3>
    4924:	8b 4d b0             	mov    -0x50(%ebp),%ecx
    4927:	89 45 c8             	mov    %eax,-0x38(%ebp)
    492a:	8b 5d b4             	mov    -0x4c(%ebp),%ebx
    492d:	01 4d c8             	add    %ecx,-0x38(%ebp)
    4930:	89 55 cc             	mov    %edx,-0x34(%ebp)
    4933:	11 5d cc             	adc    %ebx,-0x34(%ebp)
    4936:	8b 4d bc             	mov    -0x44(%ebp),%ecx
    4939:	8b 55 cc             	mov    -0x34(%ebp),%edx
    493c:	8b 45 bc             	mov    -0x44(%ebp),%eax
    493f:	0f af ca             	imul   %edx,%ecx
    4942:	f7 65 c8             	mull   -0x38(%ebp)
    4945:	01 ca                	add    %ecx,%edx
    4947:	8b 5d bc             	mov    -0x44(%ebp),%ebx
    494a:	89 45 c0             	mov    %eax,-0x40(%ebp)
    494d:	89 55 c4             	mov    %edx,-0x3c(%ebp)
    4950:	8b 45 d0             	mov    -0x30(%ebp),%eax
    4953:	8b 55 d4             	mov    -0x2c(%ebp),%edx
    4956:	89 5c 24 08          	mov    %ebx,0x8(%esp)
    495a:	c7 44 24 0c 00 00 00 	movl   $0x0,0xc(%esp)
    4961:	00 
    4962:	89 04 24             	mov    %eax,(%esp)
    4965:	89 54 24 04          	mov    %edx,0x4(%esp)
    4969:	e8 b2 34 02 00       	call   27e20 <__umoddi3>
    496e:	8b 4d d4             	mov    -0x2c(%ebp),%ecx
    4971:	09 d0                	or     %edx,%eax
    4973:	8b 55 d0             	mov    -0x30(%ebp),%edx
    4976:	0f 95 c0             	setne  %al
    4979:	25 ff 00 00 00       	and    $0xff,%eax
    497e:	89 5c 24 08          	mov    %ebx,0x8(%esp)
    4982:	89 45 b0             	mov    %eax,-0x50(%ebp)
    4985:	89 14 24             	mov    %edx,(%esp)
    4988:	c7 45 b4 00 00 00 00 	movl   $0x0,-0x4c(%ebp)
    498f:	c7 44 24 0c 00 00 00 	movl   $0x0,0xc(%esp)
    4996:	00 
    4997:	89 4c 24 04          	mov    %ecx,0x4(%esp)
    499b:	e8 00 32 02 00       	call   27ba0 <__udivdi3>
    49a0:	03 45 b0             	add    -0x50(%ebp),%eax
    49a3:	8b 4d c4             	mov    -0x3c(%ebp),%ecx
    49a6:	13 55 b4             	adc    -0x4c(%ebp),%edx
    49a9:	0f af da             	imul   %edx,%ebx
    49ac:	f7 65 bc             	mull   -0x44(%ebp)
    49af:	01 da                	add    %ebx,%edx
    49b1:	31 d1                	xor    %edx,%ecx
    49b3:	8b 55 c0             	mov    -0x40(%ebp),%edx
    49b6:	31 c2                	xor    %eax,%edx
    49b8:	09 d1                	or     %edx,%ecx
    49ba:	0f 84 00 02 00 00    	je     4bc0 <exfat_truncate+0x3a0>
    49c0:	8b 5d 08             	mov    0x8(%ebp),%ebx
    49c3:	89 1c 24             	mov    %ebx,(%esp)
    49c6:	e8 95 43 00 00       	call   8d60 <block_bb_get>
    49cb:	80 7e 39 00          	cmpb   $0x0,0x39(%esi)
    49cf:	89 45 bc             	mov    %eax,-0x44(%ebp)
    49d2:	0f 85 00 02 00 00    	jne    4bd8 <exfat_truncate+0x3b8>
    49d8:	8b 46 28             	mov    0x28(%esi),%eax
    49db:	31 c9                	xor    %ecx,%ecx
    49dd:	89 45 c8             	mov    %eax,-0x38(%ebp)
    49e0:	8b 45 bc             	mov    -0x44(%ebp),%eax
    49e3:	bb 01 00 00 00       	mov    $0x1,%ebx
    49e8:	8b 56 2c             	mov    0x2c(%esi),%edx
    49eb:	8a 48 6c             	mov    0x6c(%eax),%cl
    49ee:	89 55 cc             	mov    %edx,-0x34(%ebp)
    49f1:	d3 e3                	shl    %cl,%ebx
    49f3:	31 c9                	xor    %ecx,%ecx
    49f5:	8b 55 c8             	mov    -0x38(%ebp),%edx
    49f8:	8a 48 6d             	mov    0x6d(%eax),%cl
    49fb:	c7 44 24 0c 00 00 00 	movl   $0x0,0xc(%esp)
    4a02:	00 
    4a03:	d3 e3                	shl    %cl,%ebx
    4a05:	8b 4d cc             	mov    -0x34(%ebp),%ecx
    4a08:	89 5c 24 08          	mov    %ebx,0x8(%esp)
    4a0c:	89 4c 24 04          	mov    %ecx,0x4(%esp)
    4a10:	89 14 24             	mov    %edx,(%esp)
    4a13:	e8 08 34 02 00       	call   27e20 <__umoddi3>
    4a18:	89 5c 24 08          	mov    %ebx,0x8(%esp)
    4a1c:	09 d0                	or     %edx,%eax
    4a1e:	8b 55 cc             	mov    -0x34(%ebp),%edx
    4a21:	0f 95 c0             	setne  %al
    4a24:	25 ff 00 00 00       	and    $0xff,%eax
    4a29:	c7 44 24 0c 00 00 00 	movl   $0x0,0xc(%esp)
    4a30:	00 
    4a31:	89 45 c0             	mov    %eax,-0x40(%ebp)
    4a34:	8b 45 c8             	mov    -0x38(%ebp),%eax
    4a37:	89 04 24             	mov    %eax,(%esp)
    4a3a:	89 54 24 04          	mov    %edx,0x4(%esp)
    4a3e:	c7 45 c4 00 00 00 00 	movl   $0x0,-0x3c(%ebp)
    4a45:	e8 56 31 02 00       	call   27ba0 <__udivdi3>
    4a4a:	03 45 c0             	add    -0x40(%ebp),%eax
    4a4d:	89 5c 24 08          	mov    %ebx,0x8(%esp)
    4a51:	13 55 c4             	adc    -0x3c(%ebp),%edx
    4a54:	c7 44 24 0c 00 00 00 	movl   $0x0,0xc(%esp)
    4a5b:	00 
    4a5c:	89 d1                	mov    %edx,%ecx
    4a5e:	0f af cb             	imul   %ebx,%ecx
    4a61:	f7 e3                	mul    %ebx
    4a63:	01 ca                	add    %ecx,%edx
    4a65:	89 04 24             	mov    %eax,(%esp)
    4a68:	89 54 24 04          	mov    %edx,0x4(%esp)
    4a6c:	e8 2f 31 02 00       	call   27ba0 <__udivdi3>
    4a71:	8b 4d d4             	mov    -0x2c(%ebp),%ecx
    4a74:	8b 55 d0             	mov    -0x30(%ebp),%edx
    4a77:	89 4c 24 04          	mov    %ecx,0x4(%esp)
    4a7b:	89 5c 24 08          	mov    %ebx,0x8(%esp)
    4a7f:	c7 44 24 0c 00 00 00 	movl   $0x0,0xc(%esp)
    4a86:	00 
    4a87:	89 14 24             	mov    %edx,(%esp)
    4a8a:	89 45 c8             	mov    %eax,-0x38(%ebp)
    4a8d:	e8 8e 33 02 00       	call   27e20 <__umoddi3>
    4a92:	c7 45 c4 00 00 00 00 	movl   $0x0,-0x3c(%ebp)
    4a99:	09 d0                	or     %edx,%eax
    4a9b:	8b 55 d4             	mov    -0x2c(%ebp),%edx
    4a9e:	0f 95 c0             	setne  %al
    4aa1:	25 ff 00 00 00       	and    $0xff,%eax
    4aa6:	89 5c 24 08          	mov    %ebx,0x8(%esp)
    4aaa:	89 45 c0             	mov    %eax,-0x40(%ebp)
    4aad:	8b 45 d0             	mov    -0x30(%ebp),%eax
    4ab0:	89 04 24             	mov    %eax,(%esp)
    4ab3:	c7 44 24 0c 00 00 00 	movl   $0x0,0xc(%esp)
    4aba:	00 
    4abb:	89 54 24 04          	mov    %edx,0x4(%esp)
    4abf:	e8 dc 30 02 00       	call   27ba0 <__udivdi3>
    4ac4:	03 45 c0             	add    -0x40(%ebp),%eax
    4ac7:	89 5c 24 08          	mov    %ebx,0x8(%esp)
    4acb:	13 55 c4             	adc    -0x3c(%ebp),%edx
    4ace:	c7 44 24 0c 00 00 00 	movl   $0x0,0xc(%esp)
    4ad5:	00 
    4ad6:	89 d1                	mov    %edx,%ecx
    4ad8:	0f af cb             	imul   %ebx,%ecx
    4adb:	f7 e3                	mul    %ebx
    4add:	01 ca                	add    %ecx,%edx
    4adf:	89 04 24             	mov    %eax,(%esp)
    4ae2:	89 54 24 04          	mov    %edx,0x4(%esp)
    4ae6:	e8 b5 30 02 00       	call   27ba0 <__udivdi3>
    4aeb:	39 45 c8             	cmp    %eax,-0x38(%ebp)
    4aee:	0f 86 b6 01 00 00    	jbe    4caa <exfat_truncate+0x48a>
    4af4:	8b 55 c8             	mov    -0x38(%ebp),%edx
    4af7:	89 74 24 04          	mov    %esi,0x4(%esp)
    4afb:	29 c2                	sub    %eax,%edx
    4afd:	8b 45 bc             	mov    -0x44(%ebp),%eax
    4b00:	89 54 24 08          	mov    %edx,0x8(%esp)
    4b04:	89 04 24             	mov    %eax,(%esp)
    4b07:	e8 04 e5 ff ff       	call   3010 <exfat_bitmap_free_clusters>
    4b0c:	85 c0                	test   %eax,%eax
    4b0e:	0f 85 62 01 00 00    	jne    4c76 <exfat_truncate+0x456>
    4b14:	8b 55 d0             	mov    -0x30(%ebp),%edx
    4b17:	8b 4d d4             	mov    -0x2c(%ebp),%ecx
    4b1a:	89 56 28             	mov    %edx,0x28(%esi)
    4b1d:	89 4e 2c             	mov    %ecx,0x2c(%esi)
    4b20:	c6 46 38 01          	movb   $0x1,0x38(%esi)
    4b24:	8d 74 26 00          	lea    0x0(%esi,%eiz,1),%esi
    4b28:	8b 4d b8             	mov    -0x48(%ebp),%ecx
    4b2b:	8b 59 10             	mov    0x10(%ecx),%ebx
    4b2e:	8d 73 04             	lea    0x4(%ebx),%esi
    4b31:	89 34 24             	mov    %esi,(%esp)
    4b34:	e8 87 dd 00 00       	call   128c0 <fibril_mutex_lock>
    4b39:	8b 43 34             	mov    0x34(%ebx),%eax
    4b3c:	48                   	dec    %eax
    4b3d:	89 43 34             	mov    %eax,0x34(%ebx)
    4b40:	85 c0                	test   %eax,%eax
    4b42:	75 3e                	jne    4b82 <exfat_truncate+0x362>
    4b44:	8b 43 18             	mov    0x18(%ebx),%eax
    4b47:	85 c0                	test   %eax,%eax
    4b49:	0f 84 31 01 00 00    	je     4c80 <exfat_truncate+0x460>
    4b4f:	c7 04 24 60 b0 02 00 	movl   $0x2b060,(%esp)
    4b56:	e8 65 dd 00 00       	call   128c0 <fibril_mutex_lock>
    4b5b:	8b 15 70 b0 02 00    	mov    0x2b070,%edx
    4b61:	8d 43 20             	lea    0x20(%ebx),%eax
