
fat:     file format elf32-i386


Disassembly of section .init:

00001094 <__entry>:
    1094:	66 8c d0             	mov    %ss,%ax
    1097:	8e d8                	mov    %eax,%ds
    1099:	8e c0                	mov    %eax,%es
    109b:	8e e0                	mov    %eax,%fs
    109d:	b8 01 00 00 00       	mov    $0x1,%eax
    10a2:	0f a2                	cpuid  
    10a4:	0f ba e2 0b          	bt     $0xb,%edx
    10a8:	73 0c                	jae    10b6 <__entry+0x22>
    10aa:	8d 05 54 d9 02 00    	lea    0x2d954,%eax
    10b0:	c7 00 a7 85 02 00    	movl   $0x285a7,(%eax)
    10b6:	6a 00                	push   $0x0
    10b8:	89 e5                	mov    %esp,%ebp
    10ba:	57                   	push   %edi
    10bb:	e8 40 ce 00 00       	call   df00 <__main>

Disassembly of section .text:

000010c0 <main>:
    10c0:	55                   	push   %ebp
    10c1:	89 e5                	mov    %esp,%ebp
    10c3:	53                   	push   %ebx
    10c4:	83 e4 f0             	and    $0xfffffff0,%esp
    10c7:	83 ec 10             	sub    $0x10,%esp
    10ca:	8b 5d 0c             	mov    0xc(%ebp),%ebx
    10cd:	c7 04 24 d4 a8 02 00 	movl   $0x2a8d4,(%esp)
    10d4:	e8 e7 7d 01 00       	call   18ec0 <printf>
    10d9:	83 7d 08 03          	cmpl   $0x3,0x8(%ebp)
    10dd:	74 79                	je     1158 <main+0x98>
    10df:	e8 ac 40 00 00       	call   5190 <fat_idx_init>
    10e4:	89 c3                	mov    %eax,%ebx
    10e6:	85 c0                	test   %eax,%eax
    10e8:	75 57                	jne    1141 <main+0x81>
    10ea:	c7 44 24 0c 00 00 00 	movl   $0x0,0xc(%esp)
    10f1:	00 
    10f2:	c7 44 24 08 00 00 00 	movl   $0x0,0x8(%esp)
    10f9:	00 
    10fa:	c7 44 24 04 76 66 73 	movl   $0x20736676,0x4(%esp)
    1101:	20 
    1102:	c7 04 24 02 00 00 00 	movl   $0x2,(%esp)
    1109:	e8 c2 d4 01 00       	call   1e5d0 <service_connect_blocking>
    110e:	85 c0                	test   %eax,%eax
    1110:	0f 84 b5 00 00 00    	je     11cb <main+0x10b>
    1116:	c7 44 24 0c 80 d6 02 	movl   $0x2d680,0xc(%esp)
    111d:	00 
    111e:	c7 44 24 08 60 d6 02 	movl   $0x2d660,0x8(%esp)
    1125:	00 
    1126:	c7 44 24 04 40 d6 02 	movl   $0x2d640,0x4(%esp)
    112d:	00 
    112e:	89 04 24             	mov    %eax,(%esp)
    1131:	e8 2a c9 00 00       	call   da60 <fs_register>
    1136:	89 c3                	mov    %eax,%ebx
    1138:	85 c0                	test   %eax,%eax
    113a:	74 58                	je     1194 <main+0xd4>
    113c:	e8 cf 40 00 00       	call   5210 <fat_idx_fini>
    1141:	89 5c 24 04          	mov    %ebx,0x4(%esp)
    1145:	c7 04 24 1c a9 02 00 	movl   $0x2a91c,(%esp)
    114c:	e8 6f 7d 01 00       	call   18ec0 <printf>
    1151:	89 d8                	mov    %ebx,%eax
    1153:	8b 5d fc             	mov    -0x4(%ebp),%ebx
    1156:	c9                   	leave  
    1157:	c3                   	ret    
    1158:	c7 44 24 04 46 a9 02 	movl   $0x2a946,0x4(%esp)
    115f:	00 
    1160:	8b 43 04             	mov    0x4(%ebx),%eax
    1163:	89 04 24             	mov    %eax,(%esp)
    1166:	e8 d5 10 01 00       	call   12240 <str_cmp>
    116b:	85 c0                	test   %eax,%eax
    116d:	75 4b                	jne    11ba <main+0xfa>
    116f:	c7 44 24 08 0a 00 00 	movl   $0xa,0x8(%esp)
    1176:	00 
    1177:	c7 44 24 04 00 00 00 	movl   $0x0,0x4(%esp)
    117e:	00 
    117f:	8b 43 08             	mov    0x8(%ebx),%eax
    1182:	89 04 24             	mov    %eax,(%esp)
    1185:	e8 e6 2a 01 00       	call   13c70 <strtol>
    118a:	a3 58 d6 02 00       	mov    %eax,0x2d658
    118f:	e9 4b ff ff ff       	jmp    10df <main+0x1f>
    1194:	c7 04 24 6d a9 02 00 	movl   $0x2a96d,(%esp)
    119b:	e8 20 7d 01 00       	call   18ec0 <printf>
    11a0:	c7 04 24 00 00 00 00 	movl   $0x0,(%esp)
    11a7:	e8 d4 56 01 00       	call   16880 <task_retval>
    11ac:	c7 04 24 01 00 00 00 	movl   $0x1,(%esp)
    11b3:	e8 a8 35 01 00       	call   14760 <fibril_switch>
    11b8:	eb 97                	jmp    1151 <main+0x91>
    11ba:	c7 04 24 51 a9 02 00 	movl   $0x2a951,(%esp)
    11c1:	83 cb ff             	or     $0xffffffff,%ebx
    11c4:	e8 f7 7c 01 00       	call   18ec0 <printf>
    11c9:	eb 86                	jmp    1151 <main+0x91>
    11cb:	c7 04 24 fc a8 02 00 	movl   $0x2a8fc,(%esp)
    11d2:	83 cb ff             	or     $0xffffffff,%ebx
    11d5:	e8 e6 7c 01 00       	call   18ec0 <printf>
    11da:	e9 72 ff ff ff       	jmp    1151 <main+0x91>
    11df:	90                   	nop

000011e0 <fat_node_open>:
    11e0:	55                   	push   %ebp
    11e1:	31 c0                	xor    %eax,%eax
    11e3:	89 e5                	mov    %esp,%ebp
    11e5:	5d                   	pop    %ebp
    11e6:	c3                   	ret    
    11e7:	89 f6                	mov    %esi,%esi
    11e9:	8d bc 27 00 00 00 00 	lea    0x0(%edi,%eiz,1),%edi

000011f0 <fat_index_get>:
    11f0:	55                   	push   %ebp
    11f1:	89 e5                	mov    %esp,%ebp
    11f3:	8b 45 08             	mov    0x8(%ebp),%eax
    11f6:	85 c0                	test   %eax,%eax
    11f8:	74 0e                	je     1208 <fat_index_get+0x18>
    11fa:	8b 40 10             	mov    0x10(%eax),%eax
    11fd:	5d                   	pop    %ebp
    11fe:	8b 40 18             	mov    0x18(%eax),%eax
    1201:	8b 40 24             	mov    0x24(%eax),%eax
    1204:	c3                   	ret    
    1205:	8d 76 00             	lea    0x0(%esi),%esi
    1208:	31 c0                	xor    %eax,%eax
    120a:	5d                   	pop    %ebp
    120b:	8b 40 18             	mov    0x18(%eax),%eax
    120e:	8b 40 24             	mov    0x24(%eax),%eax
    1211:	c3                   	ret    
    1212:	8d b4 26 00 00 00 00 	lea    0x0(%esi,%eiz,1),%esi
    1219:	8d bc 27 00 00 00 00 	lea    0x0(%edi,%eiz,1),%edi

00001220 <fat_size_get>:
    1220:	55                   	push   %ebp
    1221:	89 e5                	mov    %esp,%ebp
    1223:	8b 45 08             	mov    0x8(%ebp),%eax
    1226:	85 c0                	test   %eax,%eax
    1228:	74 0e                	je     1238 <fat_size_get+0x18>
    122a:	8b 40 10             	mov    0x10(%eax),%eax
    122d:	5d                   	pop    %ebp
    122e:	8b 50 2c             	mov    0x2c(%eax),%edx
    1231:	8b 40 28             	mov    0x28(%eax),%eax
    1234:	c3                   	ret    
    1235:	8d 76 00             	lea    0x0(%esi),%esi
    1238:	31 c0                	xor    %eax,%eax
    123a:	5d                   	pop    %ebp
    123b:	8b 50 2c             	mov    0x2c(%eax),%edx
    123e:	8b 40 28             	mov    0x28(%eax),%eax
    1241:	c3                   	ret    
    1242:	8d b4 26 00 00 00 00 	lea    0x0(%esi,%eiz,1),%esi
    1249:	8d bc 27 00 00 00 00 	lea    0x0(%edi,%eiz,1),%edi

00001250 <fat_lnkcnt_get>:
    1250:	55                   	push   %ebp
    1251:	89 e5                	mov    %esp,%ebp
    1253:	8b 45 08             	mov    0x8(%ebp),%eax
    1256:	85 c0                	test   %eax,%eax
    1258:	74 0e                	je     1268 <fat_lnkcnt_get+0x18>
    125a:	8b 40 10             	mov    0x10(%eax),%eax
    125d:	5d                   	pop    %ebp
    125e:	8b 40 30             	mov    0x30(%eax),%eax
    1261:	c3                   	ret    
    1262:	8d b6 00 00 00 00    	lea    0x0(%esi),%esi
    1268:	31 c0                	xor    %eax,%eax
    126a:	5d                   	pop    %ebp
    126b:	8b 40 30             	mov    0x30(%eax),%eax
    126e:	c3                   	ret    
    126f:	90                   	nop

00001270 <fat_is_directory>:
    1270:	55                   	push   %ebp
    1271:	89 e5                	mov    %esp,%ebp
    1273:	8b 45 08             	mov    0x8(%ebp),%eax
    1276:	85 c0                	test   %eax,%eax
    1278:	74 0e                	je     1288 <fat_is_directory+0x18>
    127a:	8b 40 10             	mov    0x10(%eax),%eax
    127d:	5d                   	pop    %ebp
    127e:	83 78 14 01          	cmpl   $0x1,0x14(%eax)
    1282:	0f 94 c0             	sete   %al
    1285:	c3                   	ret    
    1286:	66 90                	xchg   %ax,%ax
    1288:	31 c0                	xor    %eax,%eax
    128a:	5d                   	pop    %ebp
    128b:	83 78 14 01          	cmpl   $0x1,0x14(%eax)
    128f:	0f 94 c0             	sete   %al
    1292:	c3                   	ret    
    1293:	8d b6 00 00 00 00    	lea    0x0(%esi),%esi
    1299:	8d bc 27 00 00 00 00 	lea    0x0(%edi,%eiz,1),%edi

000012a0 <fat_is_file>:
    12a0:	55                   	push   %ebp
    12a1:	89 e5                	mov    %esp,%ebp
    12a3:	8b 45 08             	mov    0x8(%ebp),%eax
    12a6:	85 c0                	test   %eax,%eax
    12a8:	74 0e                	je     12b8 <fat_is_file+0x18>
    12aa:	8b 40 10             	mov    0x10(%eax),%eax
    12ad:	5d                   	pop    %ebp
    12ae:	83 78 14 02          	cmpl   $0x2,0x14(%eax)
    12b2:	0f 94 c0             	sete   %al
    12b5:	c3                   	ret    
    12b6:	66 90                	xchg   %ax,%ax
    12b8:	31 c0                	xor    %eax,%eax
    12ba:	5d                   	pop    %ebp
    12bb:	83 78 14 02          	cmpl   $0x2,0x14(%eax)
    12bf:	0f 94 c0             	sete   %al
    12c2:	c3                   	ret    
    12c3:	8d b6 00 00 00 00    	lea    0x0(%esi),%esi
    12c9:	8d bc 27 00 00 00 00 	lea    0x0(%edi,%eiz,1),%edi

000012d0 <fat_service_get>:
    12d0:	55                   	push   %ebp
    12d1:	31 c0                	xor    %eax,%eax
    12d3:	89 e5                	mov    %esp,%ebp
    12d5:	5d                   	pop    %ebp
    12d6:	c3                   	ret    
    12d7:	89 f6                	mov    %esi,%esi
    12d9:	8d bc 27 00 00 00 00 	lea    0x0(%edi,%eiz,1),%edi

000012e0 <fat_close>:
    12e0:	55                   	push   %ebp
    12e1:	31 c0                	xor    %eax,%eax
    12e3:	89 e5                	mov    %esp,%ebp
    12e5:	5d                   	pop    %ebp
    12e6:	c3                   	ret    
    12e7:	89 f6                	mov    %esi,%esi
    12e9:	8d bc 27 00 00 00 00 	lea    0x0(%edi,%eiz,1),%edi

000012f0 <fat_node_sync>:
    12f0:	55                   	push   %ebp
    12f1:	89 e5                	mov    %esp,%ebp
    12f3:	57                   	push   %edi
    12f4:	56                   	push   %esi
    12f5:	53                   	push   %ebx
    12f6:	83 ec 3c             	sub    $0x3c,%esp
    12f9:	89 c3                	mov    %eax,%ebx
    12fb:	80 78 38 00          	cmpb   $0x0,0x38(%eax)
    12ff:	0f 84 c1 00 00 00    	je     13c6 <fat_node_sync+0xd6>
    1305:	8b 40 18             	mov    0x18(%eax),%eax
    1308:	8b 40 20             	mov    0x20(%eax),%eax
    130b:	89 04 24             	mov    %eax,(%esp)
    130e:	e8 bd a0 00 00       	call   b3d0 <block_bb_get>
    1313:	8b 4b 18             	mov    0x18(%ebx),%ecx
    1316:	89 c6                	mov    %eax,%esi
    1318:	c7 44 24 1c 00 00 00 	movl   $0x0,0x1c(%esp)
    131f:	00 
    1320:	8b 41 2c             	mov    0x2c(%ecx),%eax
    1323:	31 d2                	xor    %edx,%edx
    1325:	c1 e0 05             	shl    $0x5,%eax
    1328:	66 8b 7e 0b          	mov    0xb(%esi),%di
    132c:	81 e7 ff ff 00 00    	and    $0xffff,%edi
    1332:	c7 44 24 18 00 00 00 	movl   $0x0,0x18(%esp)
    1339:	00 
    133a:	f7 f7                	div    %edi
    133c:	89 44 24 14          	mov    %eax,0x14(%esp)
    1340:	c7 44 24 10 00 00 00 	movl   $0x0,0x10(%esp)
    1347:	00 
    1348:	8b 41 28             	mov    0x28(%ecx),%eax
    134b:	89 44 24 0c          	mov    %eax,0xc(%esp)
    134f:	8b 41 20             	mov    0x20(%ecx),%eax
    1352:	89 74 24 04          	mov    %esi,0x4(%esp)
    1356:	89 44 24 08          	mov    %eax,0x8(%esp)
    135a:	8d 45 e4             	lea    -0x1c(%ebp),%eax
    135d:	89 04 24             	mov    %eax,(%esp)
    1360:	e8 1b 7e 00 00       	call   9180 <_fat_block_get>
    1365:	85 c0                	test   %eax,%eax
    1367:	75 43                	jne    13ac <fat_node_sync+0xbc>
    1369:	66 8b 46 0b          	mov    0xb(%esi),%ax
    136d:	8b 53 18             	mov    0x18(%ebx),%edx
    1370:	66 c1 e8 05          	shr    $0x5,%ax
    1374:	8b 4d e4             	mov    -0x1c(%ebp),%ecx
    1377:	89 c6                	mov    %eax,%esi
    1379:	8b 42 2c             	mov    0x2c(%edx),%eax
    137c:	81 e6 ff ff 00 00    	and    $0xffff,%esi
    1382:	31 d2                	xor    %edx,%edx
    1384:	f7 f6                	div    %esi
    1386:	c1 e2 05             	shl    $0x5,%edx
    1389:	8b 41 54             	mov    0x54(%ecx),%eax
    138c:	01 c2                	add    %eax,%edx
    138e:	8b 43 1c             	mov    0x1c(%ebx),%eax
    1391:	66 89 42 1a          	mov    %ax,0x1a(%edx)
    1395:	8b 43 14             	mov    0x14(%ebx),%eax
    1398:	83 f8 02             	cmp    $0x2,%eax
    139b:	74 1b                	je     13b8 <fat_node_sync+0xc8>
    139d:	48                   	dec    %eax
    139e:	74 20                	je     13c0 <fat_node_sync+0xd0>
    13a0:	c6 41 14 01          	movb   $0x1,0x14(%ecx)
    13a4:	89 0c 24             	mov    %ecx,(%esp)
    13a7:	e8 94 a4 00 00       	call   b840 <block_put>
    13ac:	83 c4 3c             	add    $0x3c,%esp
    13af:	5b                   	pop    %ebx
    13b0:	5e                   	pop    %esi
    13b1:	5f                   	pop    %edi
    13b2:	5d                   	pop    %ebp
    13b3:	c3                   	ret    
    13b4:	8d 74 26 00          	lea    0x0(%esi,%eiz,1),%esi
    13b8:	8b 43 28             	mov    0x28(%ebx),%eax
    13bb:	89 42 1c             	mov    %eax,0x1c(%edx)
    13be:	eb e0                	jmp    13a0 <fat_node_sync+0xb0>
    13c0:	c6 42 0b 10          	movb   $0x10,0xb(%edx)
    13c4:	eb da                	jmp    13a0 <fat_node_sync+0xb0>
    13c6:	c7 44 24 08 7a 00 00 	movl   $0x7a,0x8(%esp)
    13cd:	00 
    13ce:	c7 44 24 04 89 a9 02 	movl   $0x2a989,0x4(%esp)
    13d5:	00 
    13d6:	c7 04 24 93 a9 02 00 	movl   $0x2a993,(%esp)
    13dd:	e8 3e 71 02 00       	call   28520 <assert_abort>
    13e2:	8d b4 26 00 00 00 00 	lea    0x0(%esi,%eiz,1),%esi
    13e9:	8d bc 27 00 00 00 00 	lea    0x0(%edi,%eiz,1),%edi

000013f0 <fat_node_put>:
    13f0:	55                   	push   %ebp
    13f1:	89 e5                	mov    %esp,%ebp
    13f3:	56                   	push   %esi
    13f4:	53                   	push   %ebx
    13f5:	83 ec 10             	sub    $0x10,%esp
    13f8:	8b 45 08             	mov    0x8(%ebp),%eax
    13fb:	85 c0                	test   %eax,%eax
    13fd:	0f 84 8d 00 00 00    	je     1490 <fat_node_put+0xa0>
    1403:	8b 58 10             	mov    0x10(%eax),%ebx
    1406:	8d 73 04             	lea    0x4(%ebx),%esi
    1409:	89 34 24             	mov    %esi,(%esp)
    140c:	e8 1f 3b 01 00       	call   14f30 <fibril_mutex_lock>
    1411:	8b 43 34             	mov    0x34(%ebx),%eax
    1414:	48                   	dec    %eax
    1415:	89 43 34             	mov    %eax,0x34(%ebx)
    1418:	85 c0                	test   %eax,%eax
    141a:	75 3a                	jne    1456 <fat_node_put+0x66>
    141c:	8b 53 18             	mov    0x18(%ebx),%edx
    141f:	85 d2                	test   %edx,%edx
    1421:	74 45                	je     1468 <fat_node_put+0x78>
    1423:	c7 04 24 c0 d6 02 00 	movl   $0x2d6c0,(%esp)
    142a:	e8 01 3b 01 00       	call   14f30 <fibril_mutex_lock>
    142f:	8b 15 d0 d6 02 00    	mov    0x2d6d0,%edx
    1435:	8d 43 20             	lea    0x20(%ebx),%eax
    1438:	c7 43 24 d0 d6 02 00 	movl   $0x2d6d0,0x24(%ebx)
    143f:	89 53 20             	mov    %edx,0x20(%ebx)
    1442:	89 42 04             	mov    %eax,0x4(%edx)
    1445:	c7 04 24 c0 d6 02 00 	movl   $0x2d6c0,(%esp)
    144c:	a3 d0 d6 02 00       	mov    %eax,0x2d6d0
    1451:	e8 fa 3b 01 00       	call   15050 <fibril_mutex_unlock>
    1456:	89 34 24             	mov    %esi,(%esp)
    1459:	e8 f2 3b 01 00       	call   15050 <fibril_mutex_unlock>
    145e:	83 c4 10             	add    $0x10,%esp
    1461:	31 c0                	xor    %eax,%eax
    1463:	5b                   	pop    %ebx
    1464:	5e                   	pop    %esi
    1465:	5d                   	pop    %ebp
    1466:	c3                   	ret    
    1467:	90                   	nop
    1468:	89 34 24             	mov    %esi,(%esp)
    146b:	e8 e0 3b 01 00       	call   15050 <fibril_mutex_unlock>
    1470:	8b 03                	mov    (%ebx),%eax
    1472:	89 04 24             	mov    %eax,(%esp)
    1475:	e8 d6 c9 01 00       	call   1de50 <free>
    147a:	89 1c 24             	mov    %ebx,(%esp)
    147d:	e8 ce c9 01 00       	call   1de50 <free>
    1482:	83 c4 10             	add    $0x10,%esp
    1485:	31 c0                	xor    %eax,%eax
    1487:	5b                   	pop    %ebx
    1488:	5e                   	pop    %esi
    1489:	5d                   	pop    %ebp
    148a:	c3                   	ret    
    148b:	90                   	nop
    148c:	8d 74 26 00          	lea    0x0(%esi,%eiz,1),%esi
    1490:	31 db                	xor    %ebx,%ebx
    1492:	e9 6f ff ff ff       	jmp    1406 <fat_node_put+0x16>
    1497:	89 f6                	mov    %esi,%esi
    1499:	8d bc 27 00 00 00 00 	lea    0x0(%edi,%eiz,1),%edi

000014a0 <fat_mounted>:
    14a0:	55                   	push   %ebp
    14a1:	89 e5                	mov    %esp,%ebp
    14a3:	57                   	push   %edi
    14a4:	56                   	push   %esi
    14a5:	53                   	push   %ebx
    14a6:	83 ec 6c             	sub    $0x6c,%esp
    14a9:	c7 04 24 01 00 00 00 	movl   $0x1,(%esp)
    14b0:	e8 8b c8 01 00       	call   1dd40 <malloc>
    14b5:	89 45 d4             	mov    %eax,-0x2c(%ebp)
    14b8:	85 c0                	test   %eax,%eax
    14ba:	0f 84 e2 04 00 00    	je     19a2 <fat_mounted+0x502>
    14c0:	c6 00 01             	movb   $0x1,(%eax)
    14c3:	8b 4d 0c             	mov    0xc(%ebp),%ecx
    14c6:	be 01 00 00 00       	mov    $0x1,%esi
    14cb:	8d 5d e0             	lea    -0x20(%ebp),%ebx
    14ce:	eb 02                	jmp    14d2 <fat_mounted+0x32>
    14d0:	31 f6                	xor    %esi,%esi
    14d2:	89 5c 24 08          	mov    %ebx,0x8(%esp)
    14d6:	c7 44 24 04 ad a9 02 	movl   $0x2a9ad,0x4(%esp)
    14dd:	00 
    14de:	89 0c 24             	mov    %ecx,(%esp)
    14e1:	e8 ca 28 01 00       	call   13db0 <strtok_r>
    14e6:	89 c7                	mov    %eax,%edi
    14e8:	85 c0                	test   %eax,%eax
    14ea:	74 34                	je     1520 <fat_mounted+0x80>
    14ec:	c7 44 24 04 9f a9 02 	movl   $0x2a99f,0x4(%esp)
    14f3:	00 
    14f4:	89 3c 24             	mov    %edi,(%esp)
    14f7:	e8 44 0d 01 00       	call   12240 <str_cmp>
    14fc:	31 c9                	xor    %ecx,%ecx
    14fe:	85 c0                	test   %eax,%eax
    1500:	74 ce                	je     14d0 <fat_mounted+0x30>
    1502:	c7 44 24 04 a7 a9 02 	movl   $0x2a9a7,0x4(%esp)
    1509:	00 
    150a:	89 3c 24             	mov    %edi,(%esp)
    150d:	e8 2e 0d 01 00       	call   12240 <str_cmp>
    1512:	85 c0                	test   %eax,%eax
    1514:	75 06                	jne    151c <fat_mounted+0x7c>
    1516:	8b 45 d4             	mov    -0x2c(%ebp),%eax
    1519:	c6 00 00             	movb   $0x0,(%eax)
    151c:	31 c9                	xor    %ecx,%ecx
    151e:	eb b2                	jmp    14d2 <fat_mounted+0x32>
    1520:	8b 55 08             	mov    0x8(%ebp),%edx
    1523:	c7 44 24 08 00 02 00 	movl   $0x200,0x8(%esp)
    152a:	00 
    152b:	89 54 24 04          	mov    %edx,0x4(%esp)
    152f:	c7 04 24 02 00 00 00 	movl   $0x2,(%esp)
    1536:	e8 d5 9b 00 00       	call   b110 <block_init>
    153b:	89 c2                	mov    %eax,%edx
    153d:	85 c0                	test   %eax,%eax
    153f:	0f 85 1b 03 00 00    	jne    1860 <fat_mounted+0x3c0>
    1545:	8b 55 08             	mov    0x8(%ebp),%edx
    1548:	c7 44 24 04 00 00 00 	movl   $0x0,0x4(%esp)
    154f:	00 
    1550:	89 14 24             	mov    %edx,(%esp)
    1553:	c7 44 24 08 00 00 00 	movl   $0x0,0x8(%esp)
    155a:	00 
    155b:	e8 20 9d 00 00       	call   b280 <block_bb_read>
    1560:	89 c2                	mov    %eax,%edx
    1562:	85 c0                	test   %eax,%eax
    1564:	0f 85 ce 02 00 00    	jne    1838 <fat_mounted+0x398>
    156a:	8b 55 08             	mov    0x8(%ebp),%edx
    156d:	89 14 24             	mov    %edx,(%esp)
    1570:	e8 5b 9e 00 00       	call   b3d0 <block_bb_get>
    1575:	89 c3                	mov    %eax,%ebx
    1577:	66 81 78 0b 00 02    	cmpw   $0x200,0xb(%eax)
    157d:	0f 85 53 03 00 00    	jne    18d6 <fat_mounted+0x436>
    1583:	8b 45 08             	mov    0x8(%ebp),%eax
    1586:	89 74 24 0c          	mov    %esi,0xc(%esp)
    158a:	c7 44 24 08 00 00 00 	movl   $0x0,0x8(%esp)
    1591:	00 
    1592:	c7 44 24 04 00 02 00 	movl   $0x200,0x4(%esp)
    1599:	00 
    159a:	89 04 24             	mov    %eax,(%esp)
    159d:	e8 ae 9e 00 00       	call   b450 <block_cache_init>
    15a2:	89 c2                	mov    %eax,%edx
    15a4:	85 c0                	test   %eax,%eax
    15a6:	0f 85 8c 02 00 00    	jne    1838 <fat_mounted+0x398>
    15ac:	8b 55 08             	mov    0x8(%ebp),%edx
    15af:	89 1c 24             	mov    %ebx,(%esp)
    15b2:	89 54 24 04          	mov    %edx,0x4(%esp)
    15b6:	e8 55 97 00 00       	call   ad10 <fat_sanity_check>
    15bb:	89 c2                	mov    %eax,%edx
    15bd:	85 c0                	test   %eax,%eax
    15bf:	0f 85 b6 02 00 00    	jne    187b <fat_mounted+0x3db>
    15c5:	8b 55 08             	mov    0x8(%ebp),%edx
    15c8:	89 14 24             	mov    %edx,(%esp)
    15cb:	e8 a0 3c 00 00       	call   5270 <fat_idx_init_by_service_id>
    15d0:	89 c2                	mov    %eax,%edx
    15d2:	85 c0                	test   %eax,%eax
    15d4:	0f 85 a1 02 00 00    	jne    187b <fat_mounted+0x3db>
    15da:	c7 04 24 14 00 00 00 	movl   $0x14,(%esp)
    15e1:	e8 5a c7 01 00       	call   1dd40 <malloc>
    15e6:	89 45 cc             	mov    %eax,-0x34(%ebp)
    15e9:	85 c0                	test   %eax,%eax
    15eb:	0f 84 53 04 00 00    	je     1a44 <fat_mounted+0x5a4>
    15f1:	89 04 24             	mov    %eax,(%esp)
    15f4:	e8 d7 c5 00 00       	call   dbd0 <fs_node_initialize>
    15f9:	c7 04 24 50 00 00 00 	movl   $0x50,(%esp)
    1600:	e8 3b c7 01 00       	call   1dd40 <malloc>
    1605:	89 c6                	mov    %eax,%esi
    1607:	85 c0                	test   %eax,%eax
    1609:	0f 84 f4 03 00 00    	je     1a03 <fat_mounted+0x563>
    160f:	8d 40 04             	lea    0x4(%eax),%eax
    1612:	89 04 24             	mov    %eax,(%esp)
    1615:	e8 f6 38 01 00       	call   14f10 <fibril_mutex_initialize>
    161a:	8b 45 08             	mov    0x8(%ebp),%eax
    161d:	c7 06 00 00 00 00    	movl   $0x0,(%esi)
    1623:	c7 46 18 00 00 00 00 	movl   $0x0,0x18(%esi)
    162a:	c7 46 14 00 00 00 00 	movl   $0x0,0x14(%esi)
    1631:	c7 46 20 00 00 00 00 	movl   $0x0,0x20(%esi)
    1638:	c7 46 24 00 00 00 00 	movl   $0x0,0x24(%esi)
    163f:	c7 46 28 00 00 00 00 	movl   $0x0,0x28(%esi)
    1646:	c7 46 2c 00 00 00 00 	movl   $0x0,0x2c(%esi)
    164d:	c7 46 30 00 00 00 00 	movl   $0x0,0x30(%esi)
    1654:	c7 46 34 00 00 00 00 	movl   $0x0,0x34(%esi)
    165b:	c6 46 38 00          	movb   $0x0,0x38(%esi)
    165f:	c6 46 39 00          	movb   $0x0,0x39(%esi)
    1663:	c7 46 3c 00 00 00 00 	movl   $0x0,0x3c(%esi)
    166a:	c6 46 40 00          	movb   $0x0,0x40(%esi)
    166e:	c7 46 44 00 00 00 00 	movl   $0x0,0x44(%esi)
    1675:	c7 46 48 00 00 00 00 	movl   $0x0,0x48(%esi)
    167c:	c7 46 4c 00 00 00 00 	movl   $0x0,0x4c(%esi)
    1683:	c7 44 24 08 00 00 00 	movl   $0x0,0x8(%esp)
    168a:	00 
    168b:	c7 44 24 04 00 00 00 	movl   $0x0,0x4(%esp)
    1692:	00 
    1693:	89 04 24             	mov    %eax,(%esp)
    1696:	e8 45 36 00 00       	call   4ce0 <fat_idx_get_by_pos>
    169b:	89 45 d0             	mov    %eax,-0x30(%ebp)
    169e:	85 c0                	test   %eax,%eax
    16a0:	0f 84 bf 03 00 00    	je     1a65 <fat_mounted+0x5c5>
    16a6:	8b 40 24             	mov    0x24(%eax),%eax
    16a9:	85 c0                	test   %eax,%eax
    16ab:	0f 85 98 03 00 00    	jne    1a49 <fat_mounted+0x5a9>
    16b1:	66 8b 53 13          	mov    0x13(%ebx),%dx
    16b5:	c7 46 14 01 00 00 00 	movl   $0x1,0x14(%esi)
    16bc:	66 85 d2             	test   %dx,%dx
    16bf:	66 89 55 be          	mov    %dx,-0x42(%ebp)
    16c3:	0f 85 e3 01 00 00    	jne    18ac <fat_mounted+0x40c>
    16c9:	8b 53 20             	mov    0x20(%ebx),%edx
    16cc:	89 55 b8             	mov    %edx,-0x48(%ebp)
    16cf:	66 8b 43 0e          	mov    0xe(%ebx),%ax
    16d3:	66 8b 4b 16          	mov    0x16(%ebx),%cx
    16d7:	25 ff ff 00 00       	and    $0xffff,%eax
    16dc:	89 45 c4             	mov    %eax,-0x3c(%ebp)
    16df:	31 c0                	xor    %eax,%eax
    16e1:	66 85 c9             	test   %cx,%cx
    16e4:	8a 43 10             	mov    0x10(%ebx),%al
    16e7:	89 45 c0             	mov    %eax,-0x40(%ebp)
    16ea:	0f 84 cb 01 00 00    	je     18bb <fat_mounted+0x41b>
    16f0:	89 ca                	mov    %ecx,%edx
    16f2:	81 e2 ff ff 00 00    	and    $0xffff,%edx
    16f8:	89 55 b4             	mov    %edx,-0x4c(%ebp)
    16fb:	66 8b 53 0b          	mov    0xb(%ebx),%dx
    16ff:	66 8b 43 11          	mov    0x11(%ebx),%ax
    1703:	25 ff ff 00 00       	and    $0xffff,%eax
    1708:	89 d7                	mov    %edx,%edi
    170a:	c1 e0 05             	shl    $0x5,%eax
    170d:	81 e7 ff ff 00 00    	and    $0xffff,%edi
    1713:	31 d2                	xor    %edx,%edx
    1715:	89 45 c8             	mov    %eax,-0x38(%ebp)
    1718:	f7 f7                	div    %edi
    171a:	8b 7d c4             	mov    -0x3c(%ebp),%edi
    171d:	01 f8                	add    %edi,%eax
    171f:	85 d2                	test   %edx,%edx
    1721:	0f 95 c2             	setne  %dl
    1724:	81 e2 ff 00 00 00    	and    $0xff,%edx
    172a:	8b 7d c0             	mov    -0x40(%ebp),%edi
    172d:	01 c2                	add    %eax,%edx
    172f:	8b 45 b8             	mov    -0x48(%ebp),%eax
    1732:	29 d0                	sub    %edx,%eax
    1734:	89 55 c4             	mov    %edx,-0x3c(%ebp)
    1737:	8b 55 b4             	mov    -0x4c(%ebp),%edx
    173a:	0f af d7             	imul   %edi,%edx
    173d:	29 d0                	sub    %edx,%eax
    173f:	31 d2                	xor    %edx,%edx
    1741:	8a 53 0d             	mov    0xd(%ebx),%dl
    1744:	89 55 c0             	mov    %edx,-0x40(%ebp)
    1747:	31 d2                	xor    %edx,%edx
    1749:	f7 75 c0             	divl   -0x40(%ebp)
    174c:	3d f4 ff 00 00       	cmp    $0xfff4,%eax
    1751:	c7 45 c0 01 00 00 00 	movl   $0x1,-0x40(%ebp)
    1758:	76 06                	jbe    1760 <fat_mounted+0x2c0>
    175a:	8b 43 2c             	mov    0x2c(%ebx),%eax
    175d:	89 45 c0             	mov    %eax,-0x40(%ebp)
    1760:	8b 55 c0             	mov    -0x40(%ebp),%edx
    1763:	c7 46 34 01 00 00 00 	movl   $0x1,0x34(%esi)
    176a:	89 56 1c             	mov    %edx,0x1c(%esi)
    176d:	c7 46 30 00 00 00 00 	movl   $0x0,0x30(%esi)
    1774:	66 83 7d be 00       	cmpw   $0x0,-0x42(%ebp)
    1779:	0f 84 4f 01 00 00    	je     18ce <fat_mounted+0x42e>
    177f:	66 8b 45 be          	mov    -0x42(%ebp),%ax
    1783:	25 ff ff 00 00       	and    $0xffff,%eax
    1788:	8a 53 10             	mov    0x10(%ebx),%dl
    178b:	81 e2 ff 00 00 00    	and    $0xff,%edx
    1791:	66 85 c9             	test   %cx,%cx
    1794:	89 d7                	mov    %edx,%edi
    1796:	0f 84 2a 01 00 00    	je     18c6 <fat_mounted+0x426>
    179c:	89 ca                	mov    %ecx,%edx
    179e:	81 e2 ff ff 00 00    	and    $0xffff,%edx
    17a4:	0f af d7             	imul   %edi,%edx
    17a7:	8b 4d c4             	mov    -0x3c(%ebp),%ecx
    17aa:	29 c8                	sub    %ecx,%eax
    17ac:	31 c9                	xor    %ecx,%ecx
    17ae:	29 d0                	sub    %edx,%eax
    17b0:	8a 4b 0d             	mov    0xd(%ebx),%cl
    17b3:	31 d2                	xor    %edx,%edx
    17b5:	f7 f1                	div    %ecx
    17b7:	3d f4 ff 00 00       	cmp    $0xfff4,%eax
    17bc:	0f 87 89 01 00 00    	ja     194b <fat_mounted+0x4ab>
    17c2:	8b 45 c8             	mov    -0x38(%ebp),%eax
    17c5:	c7 46 2c 00 00 00 00 	movl   $0x0,0x2c(%esi)
    17cc:	89 46 28             	mov    %eax,0x28(%esi)
    17cf:	8b 55 08             	mov    0x8(%ebp),%edx
    17d2:	8b 45 d4             	mov    -0x2c(%ebp),%eax
    17d5:	89 14 24             	mov    %edx,(%esp)
    17d8:	89 44 24 04          	mov    %eax,0x4(%esp)
    17dc:	e8 1f c4 00 00       	call   dc00 <fs_instance_create>
    17e1:	89 c2                	mov    %eax,%edx
    17e3:	8b 45 d0             	mov    -0x30(%ebp),%eax
    17e6:	85 d2                	test   %edx,%edx
    17e8:	0f 85 08 01 00 00    	jne    18f6 <fat_mounted+0x456>
    17ee:	89 46 18             	mov    %eax,0x18(%esi)
    17f1:	89 70 30             	mov    %esi,0x30(%eax)
    17f4:	8b 45 cc             	mov    -0x34(%ebp),%eax
    17f7:	89 06                	mov    %eax,(%esi)
    17f9:	89 70 10             	mov    %esi,0x10(%eax)
    17fc:	8b 45 d0             	mov    -0x30(%ebp),%eax
    17ff:	83 c0 10             	add    $0x10,%eax
    1802:	89 55 b0             	mov    %edx,-0x50(%ebp)
    1805:	89 04 24             	mov    %eax,(%esp)
    1808:	e8 43 38 01 00       	call   15050 <fibril_mutex_unlock>
    180d:	8b 45 d0             	mov    -0x30(%ebp),%eax
    1810:	8b 48 24             	mov    0x24(%eax),%ecx
    1813:	8b 45 10             	mov    0x10(%ebp),%eax
    1816:	8b 5e 2c             	mov    0x2c(%esi),%ebx
    1819:	8b 55 b0             	mov    -0x50(%ebp),%edx
    181c:	89 08                	mov    %ecx,(%eax)
    181e:	8b 45 14             	mov    0x14(%ebp),%eax
    1821:	8b 4e 28             	mov    0x28(%esi),%ecx
    1824:	89 08                	mov    %ecx,(%eax)
    1826:	89 58 04             	mov    %ebx,0x4(%eax)
    1829:	8b 45 18             	mov    0x18(%ebp),%eax
    182c:	8b 4e 30             	mov    0x30(%esi),%ecx
    182f:	89 08                	mov    %ecx,(%eax)
    1831:	eb 21                	jmp    1854 <fat_mounted+0x3b4>
    1833:	90                   	nop
    1834:	8d 74 26 00          	lea    0x0(%esi,%eiz,1),%esi
    1838:	8b 45 d4             	mov    -0x2c(%ebp),%eax
    183b:	89 55 b0             	mov    %edx,-0x50(%ebp)
    183e:	89 04 24             	mov    %eax,(%esp)
    1841:	e8 0a c6 01 00       	call   1de50 <free>
    1846:	8b 45 08             	mov    0x8(%ebp),%eax
    1849:	89 04 24             	mov    %eax,(%esp)
    184c:	e8 ef 9e 00 00       	call   b740 <block_fini>
    1851:	8b 55 b0             	mov    -0x50(%ebp),%edx
    1854:	83 c4 6c             	add    $0x6c,%esp
    1857:	89 d0                	mov    %edx,%eax
    1859:	5b                   	pop    %ebx
    185a:	5e                   	pop    %esi
    185b:	5f                   	pop    %edi
    185c:	5d                   	pop    %ebp
    185d:	c3                   	ret    
    185e:	66 90                	xchg   %ax,%ax
    1860:	8b 45 d4             	mov    -0x2c(%ebp),%eax
    1863:	89 55 b0             	mov    %edx,-0x50(%ebp)
    1866:	89 04 24             	mov    %eax,(%esp)
    1869:	e8 e2 c5 01 00       	call   1de50 <free>
    186e:	8b 55 b0             	mov    -0x50(%ebp),%edx
    1871:	83 c4 6c             	add    $0x6c,%esp
    1874:	89 d0                	mov    %edx,%eax
    1876:	5b                   	pop    %ebx
    1877:	5e                   	pop    %esi
    1878:	5f                   	pop    %edi
    1879:	5d                   	pop    %ebp
    187a:	c3                   	ret    
    187b:	8b 45 d4             	mov    -0x2c(%ebp),%eax
    187e:	89 55 b0             	mov    %edx,-0x50(%ebp)
    1881:	89 04 24             	mov    %eax,(%esp)
    1884:	e8 c7 c5 01 00       	call   1de50 <free>
    1889:	8b 45 08             	mov    0x8(%ebp),%eax
    188c:	89 04 24             	mov    %eax,(%esp)
    188f:	e8 ec 9c 00 00       	call   b580 <block_cache_fini>
    1894:	8b 45 08             	mov    0x8(%ebp),%eax
    1897:	89 04 24             	mov    %eax,(%esp)
    189a:	e8 a1 9e 00 00       	call   b740 <block_fini>
    189f:	8b 55 b0             	mov    -0x50(%ebp),%edx
    18a2:	83 c4 6c             	add    $0x6c,%esp
    18a5:	89 d0                	mov    %edx,%eax
    18a7:	5b                   	pop    %ebx
    18a8:	5e                   	pop    %esi
    18a9:	5f                   	pop    %edi
    18aa:	5d                   	pop    %ebp
    18ab:	c3                   	ret    
    18ac:	89 d0                	mov    %edx,%eax
    18ae:	25 ff ff 00 00       	and    $0xffff,%eax
    18b3:	89 45 b8             	mov    %eax,-0x48(%ebp)
    18b6:	e9 14 fe ff ff       	jmp    16cf <fat_mounted+0x22f>
    18bb:	8b 43 24             	mov    0x24(%ebx),%eax
    18be:	89 45 b4             	mov    %eax,-0x4c(%ebp)
    18c1:	e9 35 fe ff ff       	jmp    16fb <fat_mounted+0x25b>
    18c6:	8b 53 24             	mov    0x24(%ebx),%edx
    18c9:	e9 d6 fe ff ff       	jmp    17a4 <fat_mounted+0x304>
    18ce:	8b 43 20             	mov    0x20(%ebx),%eax
    18d1:	e9 b2 fe ff ff       	jmp    1788 <fat_mounted+0x2e8>
    18d6:	8b 45 d4             	mov    -0x2c(%ebp),%eax
    18d9:	89 04 24             	mov    %eax,(%esp)
    18dc:	e8 6f c5 01 00       	call   1de50 <free>
    18e1:	8b 55 08             	mov    0x8(%ebp),%edx
    18e4:	89 14 24             	mov    %edx,(%esp)
    18e7:	e8 54 9e 00 00       	call   b740 <block_fini>
    18ec:	ba f5 ff ff ff       	mov    $0xfffffff5,%edx
    18f1:	e9 5e ff ff ff       	jmp    1854 <fat_mounted+0x3b4>
    18f6:	83 c0 10             	add    $0x10,%eax
    18f9:	89 55 b0             	mov    %edx,-0x50(%ebp)
    18fc:	89 04 24             	mov    %eax,(%esp)
    18ff:	e8 4c 37 01 00       	call   15050 <fibril_mutex_unlock>
    1904:	8b 45 d4             	mov    -0x2c(%ebp),%eax
    1907:	89 04 24             	mov    %eax,(%esp)
    190a:	e8 41 c5 01 00       	call   1de50 <free>
    190f:	8b 45 cc             	mov    -0x34(%ebp),%eax
    1912:	89 04 24             	mov    %eax,(%esp)
    1915:	e8 36 c5 01 00       	call   1de50 <free>
    191a:	89 34 24             	mov    %esi,(%esp)
    191d:	e8 2e c5 01 00       	call   1de50 <free>
    1922:	8b 45 08             	mov    0x8(%ebp),%eax
    1925:	89 04 24             	mov    %eax,(%esp)
    1928:	e8 53 9c 00 00       	call   b580 <block_cache_fini>
    192d:	8b 45 08             	mov    0x8(%ebp),%eax
    1930:	89 04 24             	mov    %eax,(%esp)
    1933:	e8 08 9e 00 00       	call   b740 <block_fini>
    1938:	8b 45 08             	mov    0x8(%ebp),%eax
    193b:	89 04 24             	mov    %eax,(%esp)
    193e:	e8 fd 39 00 00       	call   5340 <fat_idx_fini_by_service_id>
    1943:	8b 55 b0             	mov    -0x50(%ebp),%edx
    1946:	e9 09 ff ff ff       	jmp    1854 <fat_mounted+0x3b4>
    194b:	8d 45 e4             	lea    -0x1c(%ebp),%eax
    194e:	8b 55 08             	mov    0x8(%ebp),%edx
    1951:	89 44 24 10          	mov    %eax,0x10(%esp)
    1955:	8b 45 c0             	mov    -0x40(%ebp),%eax
    1958:	c7 44 24 14 ff ff ff 	movl   $0xffffffff,0x14(%esp)
    195f:	ff 
    1960:	c7 44 24 0c 00 00 00 	movl   $0x0,0xc(%esp)
    1967:	00 
    1968:	89 44 24 08          	mov    %eax,0x8(%esp)
    196c:	89 54 24 04          	mov    %edx,0x4(%esp)
    1970:	89 1c 24             	mov    %ebx,(%esp)
    1973:	e8 c8 74 00 00       	call   8e40 <fat_cluster_walk>
    1978:	85 c0                	test   %eax,%eax
    197a:	75 30                	jne    19ac <fat_mounted+0x50c>
    197c:	66 8b 43 0b          	mov    0xb(%ebx),%ax
    1980:	31 d2                	xor    %edx,%edx
    1982:	8a 53 0d             	mov    0xd(%ebx),%dl
    1985:	25 ff ff 00 00       	and    $0xffff,%eax
    198a:	0f af c2             	imul   %edx,%eax
    198d:	8b 4d e4             	mov    -0x1c(%ebp),%ecx
    1990:	c7 46 2c 00 00 00 00 	movl   $0x0,0x2c(%esi)
    1997:	0f af c1             	imul   %ecx,%eax
    199a:	89 46 28             	mov    %eax,0x28(%esi)
    199d:	e9 2d fe ff ff       	jmp    17cf <fat_mounted+0x32f>
    19a2:	ba fe ff ff ff       	mov    $0xfffffffe,%edx
    19a7:	e9 a8 fe ff ff       	jmp    1854 <fat_mounted+0x3b4>
    19ac:	8b 45 d0             	mov    -0x30(%ebp),%eax
    19af:	83 c0 10             	add    $0x10,%eax
    19b2:	89 04 24             	mov    %eax,(%esp)
    19b5:	e8 96 36 01 00       	call   15050 <fibril_mutex_unlock>
    19ba:	8b 45 d4             	mov    -0x2c(%ebp),%eax
    19bd:	89 04 24             	mov    %eax,(%esp)
    19c0:	e8 8b c4 01 00       	call   1de50 <free>
    19c5:	8b 45 cc             	mov    -0x34(%ebp),%eax
    19c8:	89 04 24             	mov    %eax,(%esp)
    19cb:	e8 80 c4 01 00       	call   1de50 <free>
    19d0:	89 34 24             	mov    %esi,(%esp)
    19d3:	e8 78 c4 01 00       	call   1de50 <free>
    19d8:	8b 55 08             	mov    0x8(%ebp),%edx
    19db:	89 14 24             	mov    %edx,(%esp)
    19de:	e8 9d 9b 00 00       	call   b580 <block_cache_fini>
    19e3:	8b 45 08             	mov    0x8(%ebp),%eax
    19e6:	89 04 24             	mov    %eax,(%esp)
    19e9:	e8 52 9d 00 00       	call   b740 <block_fini>
    19ee:	8b 55 08             	mov    0x8(%ebp),%edx
    19f1:	89 14 24             	mov    %edx,(%esp)
    19f4:	e8 47 39 00 00       	call   5340 <fat_idx_fini_by_service_id>
    19f9:	ba f5 ff ff ff       	mov    $0xfffffff5,%edx
    19fe:	e9 51 fe ff ff       	jmp    1854 <fat_mounted+0x3b4>
    1a03:	8b 45 d4             	mov    -0x2c(%ebp),%eax
    1a06:	89 04 24             	mov    %eax,(%esp)
    1a09:	e8 42 c4 01 00       	call   1de50 <free>
    1a0e:	8b 45 cc             	mov    -0x34(%ebp),%eax
    1a11:	89 04 24             	mov    %eax,(%esp)
    1a14:	e8 37 c4 01 00       	call   1de50 <free>
    1a19:	8b 55 08             	mov    0x8(%ebp),%edx
    1a1c:	89 14 24             	mov    %edx,(%esp)
    1a1f:	e8 5c 9b 00 00       	call   b580 <block_cache_fini>
    1a24:	8b 45 08             	mov    0x8(%ebp),%eax
    1a27:	89 04 24             	mov    %eax,(%esp)
    1a2a:	e8 11 9d 00 00       	call   b740 <block_fini>
    1a2f:	8b 55 08             	mov    0x8(%ebp),%edx
    1a32:	89 14 24             	mov    %edx,(%esp)
    1a35:	e8 06 39 00 00       	call   5340 <fat_idx_fini_by_service_id>
    1a3a:	ba fe ff ff ff       	mov    $0xfffffffe,%edx
    1a3f:	e9 10 fe ff ff       	jmp    1854 <fat_mounted+0x3b4>
    1a44:	8b 45 d4             	mov    -0x2c(%ebp),%eax
    1a47:	eb c8                	jmp    1a11 <fat_mounted+0x571>
    1a49:	c7 44 24 08 d0 03 00 	movl   $0x3d0,0x8(%esp)
    1a50:	00 
    1a51:	c7 44 24 04 89 a9 02 	movl   $0x2a989,0x4(%esp)
    1a58:	00 
    1a59:	c7 04 24 b0 a9 02 00 	movl   $0x2a9b0,(%esp)
    1a60:	e8 bb 6a 02 00       	call   28520 <assert_abort>
    1a65:	8b 45 d4             	mov    -0x2c(%ebp),%eax
    1a68:	89 04 24             	mov    %eax,(%esp)
    1a6b:	e8 e0 c3 01 00       	call   1de50 <free>
    1a70:	8b 45 cc             	mov    -0x34(%ebp),%eax
    1a73:	89 04 24             	mov    %eax,(%esp)
    1a76:	e8 d5 c3 01 00       	call   1de50 <free>
    1a7b:	89 34 24             	mov    %esi,(%esp)
    1a7e:	eb 94                	jmp    1a14 <fat_mounted+0x574>

00001a80 <fat_has_children>:
    1a80:	55                   	push   %ebp
    1a81:	89 e5                	mov    %esp,%ebp
    1a83:	57                   	push   %edi
    1a84:	56                   	push   %esi
    1a85:	53                   	push   %ebx
    1a86:	83 ec 5c             	sub    $0x5c,%esp
    1a89:	8b 45 0c             	mov    0xc(%ebp),%eax
    1a8c:	85 c0                	test   %eax,%eax
    1a8e:	0f 84 1c 01 00 00    	je     1bb0 <fat_has_children+0x130>
    1a94:	8b 78 10             	mov    0x10(%eax),%edi
    1a97:	83 7f 14 01          	cmpl   $0x1,0x14(%edi)
    1a9b:	74 13                	je     1ab0 <fat_has_children+0x30>
    1a9d:	8b 45 08             	mov    0x8(%ebp),%eax
    1aa0:	c6 00 00             	movb   $0x0,(%eax)
    1aa3:	31 c0                	xor    %eax,%eax
    1aa5:	83 c4 5c             	add    $0x5c,%esp
    1aa8:	5b                   	pop    %ebx
    1aa9:	5e                   	pop    %esi
    1aaa:	5f                   	pop    %edi
    1aab:	5d                   	pop    %ebp
    1aac:	c3                   	ret    
    1aad:	8d 76 00             	lea    0x0(%esi),%esi
    1ab0:	8b 47 18             	mov    0x18(%edi),%eax
    1ab3:	83 c0 10             	add    $0x10,%eax
    1ab6:	89 04 24             	mov    %eax,(%esp)
    1ab9:	e8 72 34 01 00       	call   14f30 <fibril_mutex_lock>
    1abe:	8b 47 18             	mov    0x18(%edi),%eax
    1ac1:	8b 40 20             	mov    0x20(%eax),%eax
    1ac4:	89 04 24             	mov    %eax,(%esp)
    1ac7:	e8 04 99 00 00       	call   b3d0 <block_bb_get>
    1acc:	89 c3                	mov    %eax,%ebx
    1ace:	66 8b 40 0b          	mov    0xb(%eax),%ax
    1ad2:	c7 44 24 0c 00 00 00 	movl   $0x0,0xc(%esp)
    1ad9:	00 
    1ada:	25 ff ff 00 00       	and    $0xffff,%eax
    1adf:	89 44 24 08          	mov    %eax,0x8(%esp)
    1ae3:	8b 47 28             	mov    0x28(%edi),%eax
    1ae6:	8b 57 2c             	mov    0x2c(%edi),%edx
    1ae9:	89 54 24 04          	mov    %edx,0x4(%esp)
    1aed:	89 04 24             	mov    %eax,(%esp)
    1af0:	e8 1b 87 02 00       	call   2a210 <__udivdi3>
    1af5:	85 c0                	test   %eax,%eax
    1af7:	0f 84 fc 00 00 00    	je     1bf9 <fat_has_children+0x179>
    1afd:	48                   	dec    %eax
    1afe:	c7 45 d4 00 00 00 00 	movl   $0x0,-0x2c(%ebp)
    1b05:	89 45 d0             	mov    %eax,-0x30(%ebp)
    1b08:	c7 45 c8 00 00 00 00 	movl   $0x0,-0x38(%ebp)
    1b0f:	83 45 d0 01          	addl   $0x1,-0x30(%ebp)
    1b13:	83 55 d4 00          	adcl   $0x0,-0x2c(%ebp)
    1b17:	c7 45 cc 00 00 00 00 	movl   $0x0,-0x34(%ebp)
    1b1e:	8b 55 cc             	mov    -0x34(%ebp),%edx
    1b21:	8b 45 c8             	mov    -0x38(%ebp),%eax
    1b24:	89 54 24 10          	mov    %edx,0x10(%esp)
    1b28:	8d 55 e4             	lea    -0x1c(%ebp),%edx
    1b2b:	c7 44 24 14 00 00 00 	movl   $0x0,0x14(%esp)
    1b32:	00 
    1b33:	89 44 24 0c          	mov    %eax,0xc(%esp)
    1b37:	89 7c 24 08          	mov    %edi,0x8(%esp)
    1b3b:	89 5c 24 04          	mov    %ebx,0x4(%esp)
    1b3f:	89 14 24             	mov    %edx,(%esp)
    1b42:	e8 f9 78 00 00       	call   9440 <fat_block_get>
    1b47:	85 c0                	test   %eax,%eax
    1b49:	0f 85 f3 00 00 00    	jne    1c42 <fat_has_children+0x1c2>
    1b4f:	66 8b 43 0b          	mov    0xb(%ebx),%ax
    1b53:	31 f6                	xor    %esi,%esi
    1b55:	66 c1 e8 05          	shr    $0x5,%ax
    1b59:	74 6f                	je     1bca <fat_has_children+0x14a>
    1b5b:	8b 55 e4             	mov    -0x1c(%ebp),%edx
    1b5e:	89 f0                	mov    %esi,%eax
    1b60:	c1 e0 05             	shl    $0x5,%eax
    1b63:	8b 4a 54             	mov    0x54(%edx),%ecx
    1b66:	01 c8                	add    %ecx,%eax
    1b68:	89 04 24             	mov    %eax,(%esp)
    1b6b:	e8 60 41 00 00       	call   5cd0 <fat_classify_dentry>
    1b70:	83 f8 01             	cmp    $0x1,%eax
    1b73:	0f 84 9f 00 00 00    	je     1c18 <fat_has_children+0x198>
    1b79:	72 3d                	jb     1bb8 <fat_has_children+0x138>
    1b7b:	83 f8 02             	cmp    $0x2,%eax
    1b7e:	74 38                	je     1bb8 <fat_has_children+0x138>
    1b80:	8b 45 e4             	mov    -0x1c(%ebp),%eax
    1b83:	89 04 24             	mov    %eax,(%esp)
    1b86:	e8 b5 9c 00 00       	call   b840 <block_put>
    1b8b:	8b 57 18             	mov    0x18(%edi),%edx
    1b8e:	83 c2 10             	add    $0x10,%edx
    1b91:	89 45 c4             	mov    %eax,-0x3c(%ebp)
    1b94:	89 14 24             	mov    %edx,(%esp)
    1b97:	e8 b4 34 01 00       	call   15050 <fibril_mutex_unlock>
    1b9c:	8b 55 08             	mov    0x8(%ebp),%edx
    1b9f:	8b 45 c4             	mov    -0x3c(%ebp),%eax
    1ba2:	c6 02 01             	movb   $0x1,(%edx)
    1ba5:	e9 fb fe ff ff       	jmp    1aa5 <fat_has_children+0x25>
    1baa:	8d b6 00 00 00 00    	lea    0x0(%esi),%esi
    1bb0:	31 ff                	xor    %edi,%edi
    1bb2:	e9 e0 fe ff ff       	jmp    1a97 <fat_has_children+0x17>
    1bb7:	90                   	nop
    1bb8:	66 8b 43 0b          	mov    0xb(%ebx),%ax
    1bbc:	46                   	inc    %esi
    1bbd:	66 c1 e8 05          	shr    $0x5,%ax
    1bc1:	25 ff ff 00 00       	and    $0xffff,%eax
    1bc6:	39 f0                	cmp    %esi,%eax
    1bc8:	77 91                	ja     1b5b <fat_has_children+0xdb>
    1bca:	8b 45 e4             	mov    -0x1c(%ebp),%eax
    1bcd:	89 04 24             	mov    %eax,(%esp)
    1bd0:	e8 6b 9c 00 00       	call   b840 <block_put>
    1bd5:	85 c0                	test   %eax,%eax
    1bd7:	75 69                	jne    1c42 <fat_has_children+0x1c2>
    1bd9:	83 45 c8 01          	addl   $0x1,-0x38(%ebp)
    1bdd:	83 55 cc 00          	adcl   $0x0,-0x34(%ebp)
    1be1:	8b 45 d4             	mov    -0x2c(%ebp),%eax
    1be4:	8b 55 cc             	mov    -0x34(%ebp),%edx
    1be7:	8b 4d d0             	mov    -0x30(%ebp),%ecx
    1bea:	31 c2                	xor    %eax,%edx
    1bec:	8b 45 c8             	mov    -0x38(%ebp),%eax
    1bef:	31 c8                	xor    %ecx,%eax
    1bf1:	09 c2                	or     %eax,%edx
    1bf3:	0f 85 25 ff ff ff    	jne    1b1e <fat_has_children+0x9e>
    1bf9:	8b 47 18             	mov    0x18(%edi),%eax
    1bfc:	83 c0 10             	add    $0x10,%eax
    1bff:	89 04 24             	mov    %eax,(%esp)
    1c02:	e8 49 34 01 00       	call   15050 <fibril_mutex_unlock>
    1c07:	8b 55 08             	mov    0x8(%ebp),%edx
    1c0a:	31 c0                	xor    %eax,%eax
    1c0c:	c6 02 00             	movb   $0x0,(%edx)
    1c0f:	e9 91 fe ff ff       	jmp    1aa5 <fat_has_children+0x25>
    1c14:	8d 74 26 00          	lea    0x0(%esi,%eiz,1),%esi
    1c18:	8b 45 e4             	mov    -0x1c(%ebp),%eax
    1c1b:	89 04 24             	mov    %eax,(%esp)
    1c1e:	e8 1d 9c 00 00       	call   b840 <block_put>
    1c23:	8b 57 18             	mov    0x18(%edi),%edx
    1c26:	83 c2 10             	add    $0x10,%edx
    1c29:	89 45 c4             	mov    %eax,-0x3c(%ebp)
    1c2c:	89 14 24             	mov    %edx,(%esp)
    1c2f:	e8 1c 34 01 00       	call   15050 <fibril_mutex_unlock>
    1c34:	8b 55 08             	mov    0x8(%ebp),%edx
    1c37:	8b 45 c4             	mov    -0x3c(%ebp),%eax
    1c3a:	c6 02 00             	movb   $0x0,(%edx)
    1c3d:	e9 63 fe ff ff       	jmp    1aa5 <fat_has_children+0x25>
    1c42:	8b 57 18             	mov    0x18(%edi),%edx
    1c45:	89 45 c4             	mov    %eax,-0x3c(%ebp)
    1c48:	83 c2 10             	add    $0x10,%edx
    1c4b:	89 14 24             	mov    %edx,(%esp)
    1c4e:	e8 fd 33 01 00       	call   15050 <fibril_mutex_unlock>
    1c53:	8b 45 c4             	mov    -0x3c(%ebp),%eax
    1c56:	e9 4a fe ff ff       	jmp    1aa5 <fat_has_children+0x25>
    1c5b:	90                   	nop
    1c5c:	8d 74 26 00          	lea    0x0(%esi,%eiz,1),%esi

00001c60 <fat_unlink>:
    1c60:	55                   	push   %ebp
    1c61:	89 e5                	mov    %esp,%ebp
    1c63:	57                   	push   %edi
    1c64:	56                   	push   %esi
    1c65:	53                   	push   %ebx
    1c66:	83 ec 5c             	sub    $0x5c,%esp
    1c69:	8b 55 08             	mov    0x8(%ebp),%edx
    1c6c:	8b 45 0c             	mov    0xc(%ebp),%eax
    1c6f:	85 d2                	test   %edx,%edx
    1c71:	0f 84 41 01 00 00    	je     1db8 <fat_unlink+0x158>
    1c77:	8b 72 10             	mov    0x10(%edx),%esi
    1c7a:	85 c0                	test   %eax,%eax
    1c7c:	0f 84 46 01 00 00    	je     1dc8 <fat_unlink+0x168>
    1c82:	8b 58 10             	mov    0x10(%eax),%ebx
    1c85:	85 f6                	test   %esi,%esi
    1c87:	0f 84 53 01 00 00    	je     1de0 <fat_unlink+0x180>
    1c8d:	89 44 24 04          	mov    %eax,0x4(%esp)
    1c91:	8d 45 c4             	lea    -0x3c(%ebp),%eax
    1c94:	89 04 24             	mov    %eax,(%esp)
    1c97:	e8 e4 fd ff ff       	call   1a80 <fat_has_children>
    1c9c:	89 c2                	mov    %eax,%edx
    1c9e:	85 c0                	test   %eax,%eax
    1ca0:	0f 85 85 00 00 00    	jne    1d2b <fat_unlink+0xcb>
    1ca6:	80 7d c4 00          	cmpb   $0x0,-0x3c(%ebp)
    1caa:	0f 85 20 01 00 00    	jne    1dd0 <fat_unlink+0x170>
    1cb0:	8d 56 04             	lea    0x4(%esi),%edx
    1cb3:	89 14 24             	mov    %edx,(%esp)
    1cb6:	89 55 b4             	mov    %edx,-0x4c(%ebp)
    1cb9:	e8 72 32 01 00       	call   14f30 <fibril_mutex_lock>
    1cbe:	8d 53 04             	lea    0x4(%ebx),%edx
    1cc1:	89 14 24             	mov    %edx,(%esp)
    1cc4:	89 55 b0             	mov    %edx,-0x50(%ebp)
    1cc7:	e8 64 32 01 00       	call   14f30 <fibril_mutex_lock>
    1ccc:	83 7b 30 01          	cmpl   $0x1,0x30(%ebx)
    1cd0:	0f 85 14 01 00 00    	jne    1dea <fat_unlink+0x18a>
    1cd6:	8b 43 18             	mov    0x18(%ebx),%eax
    1cd9:	8d 7d c8             	lea    -0x38(%ebp),%edi
    1cdc:	83 c0 10             	add    $0x10,%eax
    1cdf:	89 04 24             	mov    %eax,(%esp)
    1ce2:	e8 49 32 01 00       	call   14f30 <fibril_mutex_lock>
    1ce7:	89 7c 24 04          	mov    %edi,0x4(%esp)
    1ceb:	89 34 24             	mov    %esi,(%esp)
    1cee:	e8 ed 48 00 00       	call   65e0 <fat_directory_open>
    1cf3:	89 c2                	mov    %eax,%edx
    1cf5:	85 c0                	test   %eax,%eax
    1cf7:	74 3f                	je     1d38 <fat_unlink+0xd8>
    1cf9:	89 3c 24             	mov    %edi,(%esp)
    1cfc:	89 55 ac             	mov    %edx,-0x54(%ebp)
    1cff:	e8 cc 49 00 00       	call   66d0 <fat_directory_close>
    1d04:	8b 43 18             	mov    0x18(%ebx),%eax
    1d07:	83 c0 10             	add    $0x10,%eax
    1d0a:	89 04 24             	mov    %eax,(%esp)
    1d0d:	e8 3e 33 01 00       	call   15050 <fibril_mutex_unlock>
    1d12:	8b 45 b0             	mov    -0x50(%ebp),%eax
    1d15:	89 04 24             	mov    %eax,(%esp)
    1d18:	e8 33 33 01 00       	call   15050 <fibril_mutex_unlock>
    1d1d:	8b 45 b4             	mov    -0x4c(%ebp),%eax
    1d20:	89 04 24             	mov    %eax,(%esp)
    1d23:	e8 28 33 01 00       	call   15050 <fibril_mutex_unlock>
    1d28:	8b 55 ac             	mov    -0x54(%ebp),%edx
    1d2b:	83 c4 5c             	add    $0x5c,%esp
    1d2e:	89 d0                	mov    %edx,%eax
    1d30:	5b                   	pop    %ebx
    1d31:	5e                   	pop    %esi
    1d32:	5f                   	pop    %edi
    1d33:	5d                   	pop    %ebp
    1d34:	c3                   	ret    
    1d35:	8d 76 00             	lea    0x0(%esi),%esi
    1d38:	8b 43 18             	mov    0x18(%ebx),%eax
    1d3b:	8b 50 2c             	mov    0x2c(%eax),%edx
    1d3e:	c7 44 24 08 00 00 00 	movl   $0x0,0x8(%esp)
    1d45:	00 
    1d46:	89 54 24 04          	mov    %edx,0x4(%esp)
    1d4a:	89 3c 24             	mov    %edi,(%esp)
    1d4d:	e8 ae 4b 00 00       	call   6900 <fat_directory_seek>
    1d52:	89 c2                	mov    %eax,%edx
    1d54:	85 c0                	test   %eax,%eax
    1d56:	75 a1                	jne    1cf9 <fat_unlink+0x99>
    1d58:	89 3c 24             	mov    %edi,(%esp)
    1d5b:	e8 a0 52 00 00       	call   7000 <fat_directory_erase>
    1d60:	89 c2                	mov    %eax,%edx
    1d62:	85 c0                	test   %eax,%eax
    1d64:	75 93                	jne    1cf9 <fat_unlink+0x99>
    1d66:	89 3c 24             	mov    %edi,(%esp)
    1d69:	e8 62 49 00 00       	call   66d0 <fat_directory_close>
    1d6e:	89 c2                	mov    %eax,%edx
    1d70:	85 c0                	test   %eax,%eax
    1d72:	75 85                	jne    1cf9 <fat_unlink+0x99>
    1d74:	8b 43 18             	mov    0x18(%ebx),%eax
    1d77:	89 55 ac             	mov    %edx,-0x54(%ebp)
    1d7a:	89 04 24             	mov    %eax,(%esp)
    1d7d:	e8 8e 30 00 00       	call   4e10 <fat_idx_hashout>
    1d82:	8b 43 18             	mov    0x18(%ebx),%eax
    1d85:	c7 40 28 00 00 00 00 	movl   $0x0,0x28(%eax)
    1d8c:	c7 40 2c 00 00 00 00 	movl   $0x0,0x2c(%eax)
    1d93:	83 c0 10             	add    $0x10,%eax
    1d96:	89 04 24             	mov    %eax,(%esp)
    1d99:	e8 b2 32 01 00       	call   15050 <fibril_mutex_unlock>
    1d9e:	8b 73 34             	mov    0x34(%ebx),%esi
    1da1:	46                   	inc    %esi
    1da2:	c7 43 30 00 00 00 00 	movl   $0x0,0x30(%ebx)
    1da9:	89 73 34             	mov    %esi,0x34(%ebx)
    1dac:	c6 43 38 01          	movb   $0x1,0x38(%ebx)
    1db0:	e9 5d ff ff ff       	jmp    1d12 <fat_unlink+0xb2>
    1db5:	8d 76 00             	lea    0x0(%esi),%esi
    1db8:	31 f6                	xor    %esi,%esi
    1dba:	85 c0                	test   %eax,%eax
    1dbc:	0f 85 c0 fe ff ff    	jne    1c82 <fat_unlink+0x22>
    1dc2:	8d b6 00 00 00 00    	lea    0x0(%esi),%esi
    1dc8:	31 db                	xor    %ebx,%ebx
    1dca:	e9 b6 fe ff ff       	jmp    1c85 <fat_unlink+0x25>
    1dcf:	90                   	nop
    1dd0:	ba fb fe ff ff       	mov    $0xfffffefb,%edx
    1dd5:	e9 51 ff ff ff       	jmp    1d2b <fat_unlink+0xcb>
    1dda:	8d b6 00 00 00 00    	lea    0x0(%esi),%esi
    1de0:	ba f1 ff ff ff       	mov    $0xfffffff1,%edx
    1de5:	e9 41 ff ff ff       	jmp    1d2b <fat_unlink+0xcb>
    1dea:	c7 44 24 08 cd 02 00 	movl   $0x2cd,0x8(%esp)
    1df1:	00 
    1df2:	c7 44 24 04 89 a9 02 	movl   $0x2a989,0x4(%esp)
    1df9:	00 
    1dfa:	c7 04 24 c2 a9 02 00 	movl   $0x2a9c2,(%esp)
    1e01:	e8 1a 67 02 00       	call   28520 <assert_abort>
    1e06:	8d 76 00             	lea    0x0(%esi),%esi
    1e09:	8d bc 27 00 00 00 00 	lea    0x0(%edi,%eiz,1),%edi

00001e10 <fat_link>:
    1e10:	55                   	push   %ebp
    1e11:	89 e5                	mov    %esp,%ebp
    1e13:	57                   	push   %edi
    1e14:	56                   	push   %esi
    1e15:	53                   	push   %ebx
    1e16:	81 ec ac 00 00 00    	sub    $0xac,%esp
    1e1c:	8b 55 08             	mov    0x8(%ebp),%edx
    1e1f:	8b 45 0c             	mov    0xc(%ebp),%eax
    1e22:	85 d2                	test   %edx,%edx
    1e24:	0f 84 7e 01 00 00    	je     1fa8 <fat_link+0x198>
    1e2a:	8b 5a 10             	mov    0x10(%edx),%ebx
    1e2d:	85 c0                	test   %eax,%eax
    1e2f:	0f 84 83 01 00 00    	je     1fb8 <fat_link+0x1a8>
    1e35:	8b 70 10             	mov    0x10(%eax),%esi
    1e38:	8d 4e 04             	lea    0x4(%esi),%ecx
    1e3b:	89 0c 24             	mov    %ecx,(%esp)
    1e3e:	89 4d 90             	mov    %ecx,-0x70(%ebp)
    1e41:	e8 ea 30 01 00       	call   14f30 <fibril_mutex_lock>
    1e46:	8b 46 30             	mov    0x30(%esi),%eax
    1e49:	83 f8 01             	cmp    $0x1,%eax
    1e4c:	0f 84 bd 03 00 00    	je     220f <fat_link+0x3ff>
    1e52:	85 c0                	test   %eax,%eax
    1e54:	0f 85 dc 03 00 00    	jne    2236 <fat_link+0x426>
    1e5a:	8b 4d 90             	mov    -0x70(%ebp),%ecx
    1e5d:	89 0c 24             	mov    %ecx,(%esp)
    1e60:	e8 eb 31 01 00       	call   15050 <fibril_mutex_unlock>
    1e65:	8b 55 10             	mov    0x10(%ebp),%edx
    1e68:	89 14 24             	mov    %edx,(%esp)
    1e6b:	e8 60 46 00 00       	call   64d0 <fat_valid_name>
    1e70:	84 c0                	test   %al,%al
    1e72:	0f 84 48 01 00 00    	je     1fc0 <fat_link+0x1b0>
    1e78:	8b 43 18             	mov    0x18(%ebx),%eax
    1e7b:	83 c0 10             	add    $0x10,%eax
    1e7e:	89 04 24             	mov    %eax,(%esp)
    1e81:	e8 aa 30 01 00       	call   14f30 <fibril_mutex_lock>
    1e86:	8b 43 18             	mov    0x18(%ebx),%eax
    1e89:	8b 40 20             	mov    0x20(%eax),%eax
    1e8c:	89 04 24             	mov    %eax,(%esp)
    1e8f:	e8 3c 95 00 00       	call   b3d0 <block_bb_get>
    1e94:	8d 4d a8             	lea    -0x58(%ebp),%ecx
    1e97:	89 4c 24 04          	mov    %ecx,0x4(%esp)
    1e9b:	89 1c 24             	mov    %ebx,(%esp)
    1e9e:	89 45 8c             	mov    %eax,-0x74(%ebp)
    1ea1:	e8 3a 47 00 00       	call   65e0 <fat_directory_open>
    1ea6:	89 c7                	mov    %eax,%edi
    1ea8:	85 c0                	test   %eax,%eax
    1eaa:	0f 85 db 00 00 00    	jne    1f8b <fat_link+0x17b>
    1eb0:	8d 7d c8             	lea    -0x38(%ebp),%edi
    1eb3:	c7 44 24 08 20 00 00 	movl   $0x20,0x8(%esp)
    1eba:	00 
    1ebb:	89 3c 24             	mov    %edi,(%esp)
    1ebe:	c7 44 24 04 00 00 00 	movl   $0x0,0x4(%esp)
    1ec5:	00 
    1ec6:	e8 b5 ee 00 00       	call   10d80 <memset>
    1ecb:	8b 55 10             	mov    0x10(%ebp),%edx
    1ece:	8d 4d a8             	lea    -0x58(%ebp),%ecx
    1ed1:	89 7c 24 08          	mov    %edi,0x8(%esp)
    1ed5:	89 54 24 04          	mov    %edx,0x4(%esp)
    1ed9:	89 0c 24             	mov    %ecx,(%esp)
    1edc:	e8 1f 64 00 00       	call   8300 <fat_directory_write>
    1ee1:	89 c7                	mov    %eax,%edi
    1ee3:	85 c0                	test   %eax,%eax
    1ee5:	0f 85 95 00 00 00    	jne    1f80 <fat_link+0x170>
    1eeb:	8d 55 a8             	lea    -0x58(%ebp),%edx
    1eee:	89 14 24             	mov    %edx,(%esp)
    1ef1:	e8 da 47 00 00       	call   66d0 <fat_directory_close>
    1ef6:	89 c7                	mov    %eax,%edi
    1ef8:	8b 43 18             	mov    0x18(%ebx),%eax
    1efb:	83 c0 10             	add    $0x10,%eax
    1efe:	85 ff                	test   %edi,%edi
    1f00:	89 04 24             	mov    %eax,(%esp)
    1f03:	0f 85 8b 00 00 00    	jne    1f94 <fat_link+0x184>
    1f09:	e8 42 31 01 00       	call   15050 <fibril_mutex_unlock>
    1f0e:	8b 46 18             	mov    0x18(%esi),%eax
    1f11:	83 c0 10             	add    $0x10,%eax
    1f14:	89 04 24             	mov    %eax,(%esp)
    1f17:	e8 14 30 01 00       	call   14f30 <fibril_mutex_lock>
    1f1c:	83 7e 14 01          	cmpl   $0x1,0x14(%esi)
    1f20:	0f 84 a2 00 00 00    	je     1fc8 <fat_link+0x1b8>
    1f26:	8b 46 18             	mov    0x18(%esi),%eax
    1f29:	8b 53 1c             	mov    0x1c(%ebx),%edx
    1f2c:	89 50 28             	mov    %edx,0x28(%eax)
    1f2f:	8b 55 b8             	mov    -0x48(%ebp),%edx
    1f32:	89 50 2c             	mov    %edx,0x2c(%eax)
    1f35:	83 c0 10             	add    $0x10,%eax
    1f38:	89 04 24             	mov    %eax,(%esp)
    1f3b:	e8 10 31 01 00       	call   15050 <fibril_mutex_unlock>
    1f40:	8b 4d 90             	mov    -0x70(%ebp),%ecx
    1f43:	89 0c 24             	mov    %ecx,(%esp)
    1f46:	e8 e5 2f 01 00       	call   14f30 <fibril_mutex_lock>
    1f4b:	8b 4d 90             	mov    -0x70(%ebp),%ecx
    1f4e:	c7 46 30 01 00 00 00 	movl   $0x1,0x30(%esi)
    1f55:	c6 46 38 01          	movb   $0x1,0x38(%esi)
    1f59:	89 0c 24             	mov    %ecx,(%esp)
    1f5c:	e8 ef 30 01 00       	call   15050 <fibril_mutex_unlock>
    1f61:	8b 46 18             	mov    0x18(%esi),%eax
    1f64:	89 04 24             	mov    %eax,(%esp)
    1f67:	e8 64 2e 00 00       	call   4dd0 <fat_idx_hashin>
    1f6c:	81 c4 ac 00 00 00    	add    $0xac,%esp
    1f72:	89 f8                	mov    %edi,%eax
    1f74:	5b                   	pop    %ebx
    1f75:	5e                   	pop    %esi
    1f76:	5f                   	pop    %edi
    1f77:	5d                   	pop    %ebp
    1f78:	c3                   	ret    
    1f79:	8d b4 26 00 00 00 00 	lea    0x0(%esi,%eiz,1),%esi
    1f80:	8d 45 a8             	lea    -0x58(%ebp),%eax
    1f83:	89 04 24             	mov    %eax,(%esp)
    1f86:	e8 45 47 00 00       	call   66d0 <fat_directory_close>
    1f8b:	8b 43 18             	mov    0x18(%ebx),%eax
    1f8e:	83 c0 10             	add    $0x10,%eax
    1f91:	89 04 24             	mov    %eax,(%esp)
    1f94:	e8 b7 30 01 00       	call   15050 <fibril_mutex_unlock>
    1f99:	81 c4 ac 00 00 00    	add    $0xac,%esp
    1f9f:	89 f8                	mov    %edi,%eax
    1fa1:	5b                   	pop    %ebx
    1fa2:	5e                   	pop    %esi
    1fa3:	5f                   	pop    %edi
    1fa4:	5d                   	pop    %ebp
    1fa5:	c3                   	ret    
    1fa6:	66 90                	xchg   %ax,%ax
    1fa8:	31 db                	xor    %ebx,%ebx
    1faa:	85 c0                	test   %eax,%eax
    1fac:	0f 85 83 fe ff ff    	jne    1e35 <fat_link+0x25>
    1fb2:	8d b6 00 00 00 00    	lea    0x0(%esi),%esi
    1fb8:	31 f6                	xor    %esi,%esi
    1fba:	e9 79 fe ff ff       	jmp    1e38 <fat_link+0x28>
    1fbf:	90                   	nop
    1fc0:	bf f5 ff ff ff       	mov    $0xfffffff5,%edi
    1fc5:	eb d2                	jmp    1f99 <fat_link+0x189>
    1fc7:	90                   	nop
    1fc8:	8b 45 8c             	mov    -0x74(%ebp),%eax
    1fcb:	c7 44 24 14 00 00 00 	movl   $0x0,0x14(%esp)
    1fd2:	00 
    1fd3:	89 44 24 04          	mov    %eax,0x4(%esp)
    1fd7:	8d 45 a4             	lea    -0x5c(%ebp),%eax
    1fda:	c7 44 24 0c 00 00 00 	movl   $0x0,0xc(%esp)
    1fe1:	00 
    1fe2:	c7 44 24 10 00 00 00 	movl   $0x0,0x10(%esp)
    1fe9:	00 
    1fea:	89 74 24 08          	mov    %esi,0x8(%esp)
    1fee:	89 04 24             	mov    %eax,(%esp)
    1ff1:	e8 4a 74 00 00       	call   9440 <fat_block_get>
    1ff6:	85 c0                	test   %eax,%eax
    1ff8:	0f 85 28 ff ff ff    	jne    1f26 <fat_link+0x116>
    1ffe:	8b 45 a4             	mov    -0x5c(%ebp),%eax
    2001:	8b 40 54             	mov    0x54(%eax),%eax
    2004:	89 04 24             	mov    %eax,(%esp)
    2007:	89 45 94             	mov    %eax,-0x6c(%ebp)
    200a:	e8 c1 3c 00 00       	call   5cd0 <fat_classify_dentry>
    200f:	48                   	dec    %eax
    2010:	74 1f                	je     2031 <fat_link+0x221>
    2012:	8b 4d 94             	mov    -0x6c(%ebp),%ecx
    2015:	c7 44 24 08 08 00 00 	movl   $0x8,0x8(%esp)
    201c:	00 
    201d:	c7 44 24 04 ea a9 02 	movl   $0x2a9ea,0x4(%esp)
    2024:	00 
    2025:	89 0c 24             	mov    %ecx,(%esp)
    2028:	e8 f3 f3 00 00       	call   11420 <bcmp>
    202d:	85 c0                	test   %eax,%eax
    202f:	75 62                	jne    2093 <fat_link+0x283>
    2031:	8b 4d 94             	mov    -0x6c(%ebp),%ecx
    2034:	c7 44 24 08 20 00 00 	movl   $0x20,0x8(%esp)
    203b:	00 
    203c:	89 0c 24             	mov    %ecx,(%esp)
    203f:	c7 44 24 04 00 00 00 	movl   $0x0,0x4(%esp)
    2046:	00 
    2047:	e8 34 ed 00 00       	call   10d80 <memset>
    204c:	8b 4d 94             	mov    -0x6c(%ebp),%ecx
    204f:	89 0c 24             	mov    %ecx,(%esp)
    2052:	c7 44 24 08 08 00 00 	movl   $0x8,0x8(%esp)
    2059:	00 
    205a:	c7 44 24 04 ea a9 02 	movl   $0x2a9ea,0x4(%esp)
    2061:	00 
    2062:	e8 99 ee 00 00       	call   10f00 <memcpy>
    2067:	8b 45 94             	mov    -0x6c(%ebp),%eax
    206a:	83 c0 08             	add    $0x8,%eax
    206d:	c7 44 24 08 03 00 00 	movl   $0x3,0x8(%esp)
    2074:	00 
    2075:	c7 44 24 04 ef a9 02 	movl   $0x2a9ef,0x4(%esp)
    207c:	00 
    207d:	89 04 24             	mov    %eax,(%esp)
    2080:	e8 7b ee 00 00       	call   10f00 <memcpy>
    2085:	8b 4d 94             	mov    -0x6c(%ebp),%ecx
    2088:	c6 41 0b 10          	movb   $0x10,0xb(%ecx)
    208c:	8b 46 1c             	mov    0x1c(%esi),%eax
    208f:	66 89 41 1a          	mov    %ax,0x1a(%ecx)
    2093:	8b 4d 94             	mov    -0x6c(%ebp),%ecx
    2096:	83 c1 20             	add    $0x20,%ecx
    2099:	89 0c 24             	mov    %ecx,(%esp)
    209c:	89 4d 88             	mov    %ecx,-0x78(%ebp)
    209f:	e8 2c 3c 00 00       	call   5cd0 <fat_classify_dentry>
    20a4:	48                   	dec    %eax
    20a5:	74 23                	je     20ca <fat_link+0x2ba>
    20a7:	8b 55 88             	mov    -0x78(%ebp),%edx
    20aa:	c7 44 24 08 08 00 00 	movl   $0x8,0x8(%esp)
    20b1:	00 
    20b2:	c7 44 24 04 f3 a9 02 	movl   $0x2a9f3,0x4(%esp)
    20b9:	00 
    20ba:	89 14 24             	mov    %edx,(%esp)
    20bd:	e8 5e f3 00 00       	call   11420 <bcmp>
    20c2:	85 c0                	test   %eax,%eax
    20c4:	0f 85 31 01 00 00    	jne    21fb <fat_link+0x3eb>
    20ca:	8b 55 88             	mov    -0x78(%ebp),%edx
    20cd:	c7 44 24 08 20 00 00 	movl   $0x20,0x8(%esp)
    20d4:	00 
    20d5:	89 14 24             	mov    %edx,(%esp)
    20d8:	c7 44 24 04 00 00 00 	movl   $0x0,0x4(%esp)
    20df:	00 
    20e0:	e8 9b ec 00 00       	call   10d80 <memset>
    20e5:	8b 4d 88             	mov    -0x78(%ebp),%ecx
    20e8:	89 0c 24             	mov    %ecx,(%esp)
    20eb:	c7 44 24 08 08 00 00 	movl   $0x8,0x8(%esp)
    20f2:	00 
    20f3:	c7 44 24 04 f3 a9 02 	movl   $0x2a9f3,0x4(%esp)
    20fa:	00 
    20fb:	e8 00 ee 00 00       	call   10f00 <memcpy>
    2100:	8b 45 94             	mov    -0x6c(%ebp),%eax
    2103:	83 c0 28             	add    $0x28,%eax
    2106:	c7 44 24 08 03 00 00 	movl   $0x3,0x8(%esp)
    210d:	00 
    210e:	c7 44 24 04 ef a9 02 	movl   $0x2a9ef,0x4(%esp)
    2115:	00 
    2116:	89 04 24             	mov    %eax,(%esp)
    2119:	e8 e2 ed 00 00       	call   10f00 <memcpy>
    211e:	8b 4d 94             	mov    -0x6c(%ebp),%ecx
    2121:	8b 55 8c             	mov    -0x74(%ebp),%edx
    2124:	c6 41 2b 10          	movb   $0x10,0x2b(%ecx)
    2128:	8b 4b 1c             	mov    0x1c(%ebx),%ecx
    212b:	66 8b 42 13          	mov    0x13(%edx),%ax
    212f:	89 8d 70 ff ff ff    	mov    %ecx,-0x90(%ebp)
    2135:	89 c1                	mov    %eax,%ecx
    2137:	81 e1 ff ff 00 00    	and    $0xffff,%ecx
    213d:	66 85 c0             	test   %ax,%ax
    2140:	89 4d 84             	mov    %ecx,-0x7c(%ebp)
    2143:	75 0c                	jne    2151 <fat_link+0x341>
    2145:	8b 45 8c             	mov    -0x74(%ebp),%eax
    2148:	8b 55 8c             	mov    -0x74(%ebp),%edx
    214b:	8b 40 20             	mov    0x20(%eax),%eax
    214e:	89 45 84             	mov    %eax,-0x7c(%ebp)
    2151:	66 8b 42 0e          	mov    0xe(%edx),%ax
    2155:	31 c9                	xor    %ecx,%ecx
    2157:	25 ff ff 00 00       	and    $0xffff,%eax
    215c:	8a 4a 10             	mov    0x10(%edx),%cl
    215f:	89 45 80             	mov    %eax,-0x80(%ebp)
    2162:	66 8b 42 16          	mov    0x16(%edx),%ax
    2166:	66 85 c0             	test   %ax,%ax
    2169:	89 8d 7c ff ff ff    	mov    %ecx,-0x84(%ebp)
    216f:	0f 84 af 00 00 00    	je     2224 <fat_link+0x414>
    2175:	25 ff ff 00 00       	and    $0xffff,%eax
    217a:	89 85 78 ff ff ff    	mov    %eax,-0x88(%ebp)
    2180:	8b 55 8c             	mov    -0x74(%ebp),%edx
    2183:	66 8b 42 11          	mov    0x11(%edx),%ax
    2187:	66 8b 4a 0b          	mov    0xb(%edx),%cx
    218b:	25 ff ff 00 00       	and    $0xffff,%eax
    2190:	81 e1 ff ff 00 00    	and    $0xffff,%ecx
    2196:	c1 e0 05             	shl    $0x5,%eax
    2199:	31 d2                	xor    %edx,%edx
    219b:	f7 f1                	div    %ecx
    219d:	8b 4d 80             	mov    -0x80(%ebp),%ecx
    21a0:	01 c8                	add    %ecx,%eax
    21a2:	85 d2                	test   %edx,%edx
    21a4:	0f 95 c2             	setne  %dl
    21a7:	81 e2 ff 00 00 00    	and    $0xff,%edx
    21ad:	8b 4d 84             	mov    -0x7c(%ebp),%ecx
    21b0:	01 d0                	add    %edx,%eax
    21b2:	8b 95 78 ff ff ff    	mov    -0x88(%ebp),%edx
    21b8:	29 c1                	sub    %eax,%ecx
    21ba:	89 c8                	mov    %ecx,%eax
    21bc:	8b 8d 7c ff ff ff    	mov    -0x84(%ebp),%ecx
    21c2:	0f af d1             	imul   %ecx,%edx
    21c5:	8b 4d 8c             	mov    -0x74(%ebp),%ecx
    21c8:	29 d0                	sub    %edx,%eax
    21ca:	31 d2                	xor    %edx,%edx
    21cc:	8a 51 0d             	mov    0xd(%ecx),%dl
    21cf:	89 55 84             	mov    %edx,-0x7c(%ebp)
    21d2:	31 d2                	xor    %edx,%edx
    21d4:	f7 75 84             	divl   -0x7c(%ebp)
    21d7:	3d f4 ff 00 00       	cmp    $0xfff4,%eax
    21dc:	ba 01 00 00 00       	mov    $0x1,%edx
    21e1:	76 03                	jbe    21e6 <fat_link+0x3d6>
    21e3:	8b 51 2c             	mov    0x2c(%ecx),%edx
    21e6:	39 95 70 ff ff ff    	cmp    %edx,-0x90(%ebp)
    21ec:	74 44                	je     2232 <fat_link+0x422>
    21ee:	8b 85 70 ff ff ff    	mov    -0x90(%ebp),%eax
    21f4:	8b 4d 94             	mov    -0x6c(%ebp),%ecx
    21f7:	66 89 41 3a          	mov    %ax,0x3a(%ecx)
    21fb:	8b 45 a4             	mov    -0x5c(%ebp),%eax
    21fe:	c6 40 14 01          	movb   $0x1,0x14(%eax)
    2202:	89 04 24             	mov    %eax,(%esp)
    2205:	e8 36 96 00 00       	call   b840 <block_put>
    220a:	e9 17 fd ff ff       	jmp    1f26 <fat_link+0x116>
    220f:	8b 4d 90             	mov    -0x70(%ebp),%ecx
    2212:	bf f6 fe ff ff       	mov    $0xfffffef6,%edi
    2217:	89 0c 24             	mov    %ecx,(%esp)
    221a:	e8 31 2e 01 00       	call   15050 <fibril_mutex_unlock>
    221f:	e9 75 fd ff ff       	jmp    1f99 <fat_link+0x189>
    2224:	8b 42 24             	mov    0x24(%edx),%eax
    2227:	89 85 78 ff ff ff    	mov    %eax,-0x88(%ebp)
    222d:	e9 4e ff ff ff       	jmp    2180 <fat_link+0x370>
    2232:	31 c0                	xor    %eax,%eax
    2234:	eb be                	jmp    21f4 <fat_link+0x3e4>
    2236:	c7 44 24 08 55 02 00 	movl   $0x255,0x8(%esp)
    223d:	00 
    223e:	c7 44 24 04 89 a9 02 	movl   $0x2a989,0x4(%esp)
    2245:	00 
    2246:	c7 04 24 d6 a9 02 00 	movl   $0x2a9d6,(%esp)
    224d:	e8 ce 62 02 00       	call   28520 <assert_abort>
    2252:	8d b4 26 00 00 00 00 	lea    0x0(%esi,%eiz,1),%esi
    2259:	8d bc 27 00 00 00 00 	lea    0x0(%edi,%eiz,1),%edi

00002260 <fat_destroy_node>:
    2260:	55                   	push   %ebp
    2261:	89 e5                	mov    %esp,%ebp
    2263:	56                   	push   %esi
    2264:	53                   	push   %ebx
    2265:	83 ec 20             	sub    $0x20,%esp
    2268:	8b 45 08             	mov    0x8(%ebp),%eax
    226b:	85 c0                	test   %eax,%eax
    226d:	0f 84 85 00 00 00    	je     22f8 <fat_destroy_node+0x98>
    2273:	8b 58 10             	mov    0x10(%eax),%ebx
    2276:	8b 73 30             	mov    0x30(%ebx),%esi
    2279:	85 f6                	test   %esi,%esi
    227b:	0f 85 7e 00 00 00    	jne    22ff <fat_destroy_node+0x9f>
    2281:	89 44 24 04          	mov    %eax,0x4(%esp)
    2285:	8d 45 f4             	lea    -0xc(%ebp),%eax
    2288:	89 04 24             	mov    %eax,(%esp)
    228b:	e8 f0 f7 ff ff       	call   1a80 <fat_has_children>
    2290:	89 c6                	mov    %eax,%esi
    2292:	85 c0                	test   %eax,%eax
    2294:	75 58                	jne    22ee <fat_destroy_node+0x8e>
    2296:	80 7d f4 00          	cmpb   $0x0,-0xc(%ebp)
    229a:	75 7f                	jne    231b <fat_destroy_node+0xbb>
    229c:	8b 43 18             	mov    0x18(%ebx),%eax
    229f:	8b 40 20             	mov    0x20(%eax),%eax
    22a2:	89 04 24             	mov    %eax,(%esp)
    22a5:	e8 26 91 00 00       	call   b3d0 <block_bb_get>
    22aa:	8b 53 1c             	mov    0x1c(%ebx),%edx
    22ad:	85 d2                	test   %edx,%edx
    22af:	74 20                	je     22d1 <fat_destroy_node+0x71>
    22b1:	8b 4b 2c             	mov    0x2c(%ebx),%ecx
    22b4:	0b 4b 28             	or     0x28(%ebx),%ecx
    22b7:	74 7e                	je     2337 <fat_destroy_node+0xd7>
    22b9:	89 54 24 08          	mov    %edx,0x8(%esp)
    22bd:	8b 53 18             	mov    0x18(%ebx),%edx
    22c0:	8b 52 20             	mov    0x20(%edx),%edx
    22c3:	89 04 24             	mov    %eax,(%esp)
    22c6:	89 54 24 04          	mov    %edx,0x4(%esp)
    22ca:	e8 41 83 00 00       	call   a610 <fat_free_clusters>
    22cf:	89 c6                	mov    %eax,%esi
    22d1:	8b 43 18             	mov    0x18(%ebx),%eax
    22d4:	89 04 24             	mov    %eax,(%esp)
    22d7:	e8 d4 2b 00 00       	call   4eb0 <fat_idx_destroy>
    22dc:	8b 03                	mov    (%ebx),%eax
    22de:	89 04 24             	mov    %eax,(%esp)
    22e1:	e8 6a bb 01 00       	call   1de50 <free>
    22e6:	89 1c 24             	mov    %ebx,(%esp)
    22e9:	e8 62 bb 01 00       	call   1de50 <free>
    22ee:	83 c4 20             	add    $0x20,%esp
    22f1:	89 f0                	mov    %esi,%eax
    22f3:	5b                   	pop    %ebx
    22f4:	5e                   	pop    %esi
    22f5:	5d                   	pop    %ebp
    22f6:	c3                   	ret    
    22f7:	90                   	nop
    22f8:	31 db                	xor    %ebx,%ebx
    22fa:	e9 77 ff ff ff       	jmp    2276 <fat_destroy_node+0x16>
    22ff:	c7 44 24 08 2a 02 00 	movl   $0x22a,0x8(%esp)
    2306:	00 
    2307:	c7 44 24 04 89 a9 02 	movl   $0x2a989,0x4(%esp)
    230e:	00 
    230f:	c7 04 24 fc a9 02 00 	movl   $0x2a9fc,(%esp)
    2316:	e8 05 62 02 00       	call   28520 <assert_abort>
    231b:	c7 44 24 08 32 02 00 	movl   $0x232,0x8(%esp)
    2322:	00 
    2323:	c7 44 24 04 89 a9 02 	movl   $0x2a989,0x4(%esp)
    232a:	00 
    232b:	c7 04 24 0f aa 02 00 	movl   $0x2aa0f,(%esp)
    2332:	e8 e9 61 02 00       	call   28520 <assert_abort>
    2337:	c7 44 24 08 36 02 00 	movl   $0x236,0x8(%esp)
    233e:	00 
    233f:	c7 44 24 04 89 a9 02 	movl   $0x2a989,0x4(%esp)
    2346:	00 
    2347:	c7 04 24 1d aa 02 00 	movl   $0x2aa1d,(%esp)
    234e:	e8 cd 61 02 00       	call   28520 <assert_abort>
    2353:	8d b6 00 00 00 00    	lea    0x0(%esi),%esi
    2359:	8d bc 27 00 00 00 00 	lea    0x0(%edi,%eiz,1),%edi

00002360 <fat_node_get_new>:
    2360:	55                   	push   %ebp
    2361:	89 e5                	mov    %esp,%ebp
    2363:	57                   	push   %edi
    2364:	56                   	push   %esi
    2365:	53                   	push   %ebx
    2366:	83 ec 2c             	sub    $0x2c,%esp
    2369:	89 45 e4             	mov    %eax,-0x1c(%ebp)
    236c:	c7 04 24 c0 d6 02 00 	movl   $0x2d6c0,(%esp)
    2373:	e8 b8 2b 01 00       	call   14f30 <fibril_mutex_lock>
    2378:	8b 3d d4 d6 02 00    	mov    0x2d6d4,%edi
    237e:	81 ff d0 d6 02 00    	cmp    $0x2d6d0,%edi
    2384:	74 16                	je     239c <fat_node_get_new+0x3c>
    2386:	8d 77 e4             	lea    -0x1c(%edi),%esi
    2389:	8d 5f e0             	lea    -0x20(%edi),%ebx
    238c:	89 34 24             	mov    %esi,(%esp)
    238f:	e8 6c 2c 01 00       	call   15000 <fibril_mutex_trylock>
    2394:	84 c0                	test   %al,%al
    2396:	0f 85 cc 00 00 00    	jne    2468 <fat_node_get_new+0x108>
    239c:	c7 04 24 c0 d6 02 00 	movl   $0x2d6c0,(%esp)
    23a3:	e8 a8 2c 01 00       	call   15050 <fibril_mutex_unlock>
    23a8:	c7 04 24 14 00 00 00 	movl   $0x14,(%esp)
    23af:	e8 8c b9 01 00       	call   1dd40 <malloc>
    23b4:	89 c6                	mov    %eax,%esi
    23b6:	85 c0                	test   %eax,%eax
    23b8:	0f 84 7a 01 00 00    	je     2538 <fat_node_get_new+0x1d8>
    23be:	c7 04 24 50 00 00 00 	movl   $0x50,(%esp)
    23c5:	89 45 d8             	mov    %eax,-0x28(%ebp)
    23c8:	e8 73 b9 01 00       	call   1dd40 <malloc>
    23cd:	8b 55 d8             	mov    -0x28(%ebp),%edx
    23d0:	89 c3                	mov    %eax,%ebx
    23d2:	85 c0                	test   %eax,%eax
    23d4:	0f 84 68 01 00 00    	je     2542 <fat_node_get_new+0x1e2>
    23da:	8d 43 04             	lea    0x4(%ebx),%eax
    23dd:	89 04 24             	mov    %eax,(%esp)
    23e0:	e8 2b 2b 01 00       	call   14f10 <fibril_mutex_initialize>
    23e5:	c7 03 00 00 00 00    	movl   $0x0,(%ebx)
    23eb:	c7 43 18 00 00 00 00 	movl   $0x0,0x18(%ebx)
    23f2:	c7 43 14 00 00 00 00 	movl   $0x0,0x14(%ebx)
    23f9:	c7 43 20 00 00 00 00 	movl   $0x0,0x20(%ebx)
    2400:	c7 43 24 00 00 00 00 	movl   $0x0,0x24(%ebx)
    2407:	c7 43 28 00 00 00 00 	movl   $0x0,0x28(%ebx)
    240e:	c7 43 2c 00 00 00 00 	movl   $0x0,0x2c(%ebx)
    2415:	c7 43 30 00 00 00 00 	movl   $0x0,0x30(%ebx)
    241c:	c7 43 34 00 00 00 00 	movl   $0x0,0x34(%ebx)
    2423:	c6 43 38 00          	movb   $0x0,0x38(%ebx)
    2427:	c6 43 39 00          	movb   $0x0,0x39(%ebx)
    242b:	c7 43 3c 00 00 00 00 	movl   $0x0,0x3c(%ebx)
    2432:	c6 43 40 00          	movb   $0x0,0x40(%ebx)
    2436:	c7 43 44 00 00 00 00 	movl   $0x0,0x44(%ebx)
    243d:	c7 43 48 00 00 00 00 	movl   $0x0,0x48(%ebx)
    2444:	c7 43 4c 00 00 00 00 	movl   $0x0,0x4c(%ebx)
    244b:	89 34 24             	mov    %esi,(%esp)
    244e:	e8 7d b7 00 00       	call   dbd0 <fs_node_initialize>
    2453:	8b 45 e4             	mov    -0x1c(%ebp),%eax
    2456:	89 5e 10             	mov    %ebx,0x10(%esi)
    2459:	89 33                	mov    %esi,(%ebx)
    245b:	89 18                	mov    %ebx,(%eax)
    245d:	31 c0                	xor    %eax,%eax
    245f:	83 c4 2c             	add    $0x2c,%esp
    2462:	5b                   	pop    %ebx
    2463:	5e                   	pop    %esi
    2464:	5f                   	pop    %edi
    2465:	5d                   	pop    %ebp
    2466:	c3                   	ret    
    2467:	90                   	nop
    2468:	8b 53 18             	mov    0x18(%ebx),%edx
    246b:	89 55 e0             	mov    %edx,-0x20(%ebp)
    246e:	83 c2 10             	add    $0x10,%edx
    2471:	89 14 24             	mov    %edx,(%esp)
    2474:	89 55 dc             	mov    %edx,-0x24(%ebp)
    2477:	e8 84 2b 01 00       	call   15000 <fibril_mutex_trylock>
    247c:	84 c0                	test   %al,%al
    247e:	74 68                	je     24e8 <fat_node_get_new+0x188>
    2480:	8b 4b 20             	mov    0x20(%ebx),%ecx
    2483:	85 c9                	test   %ecx,%ecx
    2485:	74 0f                	je     2496 <fat_node_get_new+0x136>
    2487:	8b 43 24             	mov    0x24(%ebx),%eax
    248a:	85 c0                	test   %eax,%eax
    248c:	74 08                	je     2496 <fat_node_get_new+0x136>
    248e:	89 08                	mov    %ecx,(%eax)
    2490:	8b 4b 20             	mov    0x20(%ebx),%ecx
    2493:	89 41 04             	mov    %eax,0x4(%ecx)
    2496:	c7 43 20 00 00 00 00 	movl   $0x0,0x20(%ebx)
    249d:	c7 43 24 00 00 00 00 	movl   $0x0,0x24(%ebx)
    24a4:	c7 04 24 c0 d6 02 00 	movl   $0x2d6c0,(%esp)
    24ab:	e8 a0 2b 01 00       	call   15050 <fibril_mutex_unlock>
    24b0:	80 7b 38 00          	cmpb   $0x0,0x38(%ebx)
    24b4:	74 0b                	je     24c1 <fat_node_get_new+0x161>
    24b6:	89 d8                	mov    %ebx,%eax
    24b8:	e8 33 ee ff ff       	call   12f0 <fat_node_sync>
    24bd:	85 c0                	test   %eax,%eax
    24bf:	75 37                	jne    24f8 <fat_node_get_new+0x198>
    24c1:	8b 55 e0             	mov    -0x20(%ebp),%edx
    24c4:	c7 42 30 00 00 00 00 	movl   $0x0,0x30(%edx)
    24cb:	89 34 24             	mov    %esi,(%esp)
    24ce:	e8 7d 2b 01 00       	call   15050 <fibril_mutex_unlock>
    24d3:	8b 55 dc             	mov    -0x24(%ebp),%edx
    24d6:	89 14 24             	mov    %edx,(%esp)
    24d9:	e8 72 2b 01 00       	call   15050 <fibril_mutex_unlock>
    24de:	8b 77 e0             	mov    -0x20(%edi),%esi
    24e1:	e9 f4 fe ff ff       	jmp    23da <fat_node_get_new+0x7a>
    24e6:	66 90                	xchg   %ax,%ax
    24e8:	89 34 24             	mov    %esi,(%esp)
    24eb:	e8 60 2b 01 00       	call   15050 <fibril_mutex_unlock>
    24f0:	e9 a7 fe ff ff       	jmp    239c <fat_node_get_new+0x3c>
    24f5:	8d 76 00             	lea    0x0(%esi),%esi
    24f8:	8b 55 e0             	mov    -0x20(%ebp),%edx
    24fb:	c7 42 30 00 00 00 00 	movl   $0x0,0x30(%edx)
    2502:	89 34 24             	mov    %esi,(%esp)
    2505:	89 45 d8             	mov    %eax,-0x28(%ebp)
    2508:	e8 43 2b 01 00       	call   15050 <fibril_mutex_unlock>
    250d:	8b 55 dc             	mov    -0x24(%ebp),%edx
    2510:	89 14 24             	mov    %edx,(%esp)
    2513:	e8 38 2b 01 00       	call   15050 <fibril_mutex_unlock>
    2518:	8b 57 e0             	mov    -0x20(%edi),%edx
    251b:	89 14 24             	mov    %edx,(%esp)
    251e:	e8 2d b9 01 00       	call   1de50 <free>
    2523:	89 1c 24             	mov    %ebx,(%esp)
    2526:	e8 25 b9 01 00       	call   1de50 <free>
    252b:	8b 45 d8             	mov    -0x28(%ebp),%eax
    252e:	e9 2c ff ff ff       	jmp    245f <fat_node_get_new+0xff>
    2533:	90                   	nop
    2534:	8d 74 26 00          	lea    0x0(%esi,%eiz,1),%esi
    2538:	b8 fe ff ff ff       	mov    $0xfffffffe,%eax
    253d:	e9 1d ff ff ff       	jmp    245f <fat_node_get_new+0xff>
    2542:	89 14 24             	mov    %edx,(%esp)
    2545:	e8 06 b9 01 00       	call   1de50 <free>
    254a:	b8 fe ff ff ff       	mov    $0xfffffffe,%eax
    254f:	e9 0b ff ff ff       	jmp    245f <fat_node_get_new+0xff>
    2554:	8d b6 00 00 00 00    	lea    0x0(%esi),%esi
    255a:	8d bf 00 00 00 00    	lea    0x0(%edi),%edi

00002560 <fat_node_get_core>:
    2560:	55                   	push   %ebp
    2561:	89 e5                	mov    %esp,%ebp
    2563:	57                   	push   %edi
    2564:	56                   	push   %esi
    2565:	53                   	push   %ebx
    2566:	83 ec 7c             	sub    $0x7c,%esp
    2569:	89 c6                	mov    %eax,%esi
    256b:	8b 42 30             	mov    0x30(%edx),%eax
    256e:	89 d3                	mov    %edx,%ebx
    2570:	c7 45 e0 00 00 00 00 	movl   $0x0,-0x20(%ebp)
    2577:	85 c0                	test   %eax,%eax
    2579:	0f 84 81 00 00 00    	je     2600 <fat_node_get_core+0xa0>
    257f:	83 c0 04             	add    $0x4,%eax
    2582:	89 04 24             	mov    %eax,(%esp)
    2585:	e8 a6 29 01 00       	call   14f30 <fibril_mutex_lock>
    258a:	8b 43 30             	mov    0x30(%ebx),%eax
    258d:	8b 50 34             	mov    0x34(%eax),%edx
    2590:	85 d2                	test   %edx,%edx
    2592:	8d 4a 01             	lea    0x1(%edx),%ecx
    2595:	89 48 34             	mov    %ecx,0x34(%eax)
    2598:	74 1e                	je     25b8 <fat_node_get_core+0x58>
    259a:	83 c0 04             	add    $0x4,%eax
    259d:	89 04 24             	mov    %eax,(%esp)
    25a0:	e8 ab 2a 01 00       	call   15050 <fibril_mutex_unlock>
    25a5:	8b 43 30             	mov    0x30(%ebx),%eax
    25a8:	89 06                	mov    %eax,(%esi)
    25aa:	31 d2                	xor    %edx,%edx
    25ac:	83 c4 7c             	add    $0x7c,%esp
    25af:	89 d0                	mov    %edx,%eax
    25b1:	5b                   	pop    %ebx
    25b2:	5e                   	pop    %esi
    25b3:	5f                   	pop    %edi
    25b4:	5d                   	pop    %ebp
    25b5:	c3                   	ret    
    25b6:	66 90                	xchg   %ax,%ax
    25b8:	c7 04 24 c0 d6 02 00 	movl   $0x2d6c0,(%esp)
    25bf:	e8 6c 29 01 00       	call   14f30 <fibril_mutex_lock>
    25c4:	8b 43 30             	mov    0x30(%ebx),%eax
    25c7:	8b 48 20             	mov    0x20(%eax),%ecx
    25ca:	85 c9                	test   %ecx,%ecx
    25cc:	74 0f                	je     25dd <fat_node_get_core+0x7d>
    25ce:	8b 50 24             	mov    0x24(%eax),%edx
    25d1:	85 d2                	test   %edx,%edx
    25d3:	74 08                	je     25dd <fat_node_get_core+0x7d>
    25d5:	89 0a                	mov    %ecx,(%edx)
    25d7:	8b 48 20             	mov    0x20(%eax),%ecx
    25da:	89 51 04             	mov    %edx,0x4(%ecx)
    25dd:	c7 40 20 00 00 00 00 	movl   $0x0,0x20(%eax)
    25e4:	c7 40 24 00 00 00 00 	movl   $0x0,0x24(%eax)
    25eb:	c7 04 24 c0 d6 02 00 	movl   $0x2d6c0,(%esp)
    25f2:	e8 59 2a 01 00       	call   15050 <fibril_mutex_unlock>
    25f7:	8b 43 30             	mov    0x30(%ebx),%eax
    25fa:	eb 9e                	jmp    259a <fat_node_get_core+0x3a>
    25fc:	8d 74 26 00          	lea    0x0(%esi,%eiz,1),%esi
    2600:	8b 7a 28             	mov    0x28(%edx),%edi
    2603:	85 ff                	test   %edi,%edi
    2605:	0f 84 2c 03 00 00    	je     2937 <fat_node_get_core+0x3d7>
    260b:	8d 45 e0             	lea    -0x20(%ebp),%eax
    260e:	e8 4d fd ff ff       	call   2360 <fat_node_get_new>
    2613:	89 c2                	mov    %eax,%edx
    2615:	85 c0                	test   %eax,%eax
    2617:	75 93                	jne    25ac <fat_node_get_core+0x4c>
    2619:	8b 43 20             	mov    0x20(%ebx),%eax
    261c:	89 04 24             	mov    %eax,(%esp)
    261f:	e8 ac 8d 00 00       	call   b3d0 <block_bb_get>
    2624:	c7 44 24 1c 00 00 00 	movl   $0x0,0x1c(%esp)
    262b:	00 
    262c:	89 c7                	mov    %eax,%edi
    262e:	8b 43 2c             	mov    0x2c(%ebx),%eax
    2631:	c1 e0 05             	shl    $0x5,%eax
    2634:	31 d2                	xor    %edx,%edx
    2636:	66 8b 4f 0b          	mov    0xb(%edi),%cx
    263a:	c7 44 24 18 00 00 00 	movl   $0x0,0x18(%esp)
    2641:	00 
    2642:	81 e1 ff ff 00 00    	and    $0xffff,%ecx
    2648:	c7 44 24 10 00 00 00 	movl   $0x0,0x10(%esp)
    264f:	00 
    2650:	f7 f1                	div    %ecx
    2652:	89 44 24 14          	mov    %eax,0x14(%esp)
    2656:	8b 43 28             	mov    0x28(%ebx),%eax
    2659:	89 44 24 0c          	mov    %eax,0xc(%esp)
    265d:	8b 43 20             	mov    0x20(%ebx),%eax
    2660:	89 7c 24 04          	mov    %edi,0x4(%esp)
    2664:	89 44 24 08          	mov    %eax,0x8(%esp)
    2668:	8d 45 dc             	lea    -0x24(%ebp),%eax
    266b:	89 04 24             	mov    %eax,(%esp)
    266e:	e8 0d 6b 00 00       	call   9180 <_fat_block_get>
    2673:	89 c2                	mov    %eax,%edx
    2675:	85 c0                	test   %eax,%eax
    2677:	0f 84 8b 00 00 00    	je     2708 <fat_node_get_core+0x1a8>
    267d:	8b 45 e0             	mov    -0x20(%ebp),%eax
    2680:	85 c0                	test   %eax,%eax
    2682:	0f 84 ab 01 00 00    	je     2833 <fat_node_get_core+0x2d3>
    2688:	8b 00                	mov    (%eax),%eax
    268a:	85 c0                	test   %eax,%eax
    268c:	0f 84 a1 01 00 00    	je     2833 <fat_node_get_core+0x2d3>
    2692:	8b 58 10             	mov    0x10(%eax),%ebx
    2695:	8d 73 04             	lea    0x4(%ebx),%esi
    2698:	89 55 a4             	mov    %edx,-0x5c(%ebp)
    269b:	89 34 24             	mov    %esi,(%esp)
    269e:	e8 8d 28 01 00       	call   14f30 <fibril_mutex_lock>
    26a3:	8b 43 34             	mov    0x34(%ebx),%eax
    26a6:	48                   	dec    %eax
    26a7:	8b 55 a4             	mov    -0x5c(%ebp),%edx
    26aa:	89 43 34             	mov    %eax,0x34(%ebx)
    26ad:	85 c0                	test   %eax,%eax
    26af:	75 41                	jne    26f2 <fat_node_get_core+0x192>
    26b1:	8b 7b 18             	mov    0x18(%ebx),%edi
    26b4:	85 ff                	test   %edi,%edi
    26b6:	0f 84 33 02 00 00    	je     28ef <fat_node_get_core+0x38f>
    26bc:	c7 04 24 c0 d6 02 00 	movl   $0x2d6c0,(%esp)
    26c3:	e8 68 28 01 00       	call   14f30 <fibril_mutex_lock>
    26c8:	c7 43 24 d0 d6 02 00 	movl   $0x2d6d0,0x24(%ebx)
    26cf:	8b 0d d0 d6 02 00    	mov    0x2d6d0,%ecx
    26d5:	8d 43 20             	lea    0x20(%ebx),%eax
    26d8:	89 4b 20             	mov    %ecx,0x20(%ebx)
    26db:	89 41 04             	mov    %eax,0x4(%ecx)
    26de:	c7 04 24 c0 d6 02 00 	movl   $0x2d6c0,(%esp)
    26e5:	a3 d0 d6 02 00       	mov    %eax,0x2d6d0
    26ea:	e8 61 29 01 00       	call   15050 <fibril_mutex_unlock>
    26ef:	8b 55 a4             	mov    -0x5c(%ebp),%edx
    26f2:	89 34 24             	mov    %esi,(%esp)
    26f5:	89 55 a4             	mov    %edx,-0x5c(%ebp)
    26f8:	e8 53 29 01 00       	call   15050 <fibril_mutex_unlock>
    26fd:	8b 55 a4             	mov    -0x5c(%ebp),%edx
    2700:	e9 a7 fe ff ff       	jmp    25ac <fat_node_get_core+0x4c>
    2705:	8d 76 00             	lea    0x0(%esi),%esi
    2708:	8b 4d dc             	mov    -0x24(%ebp),%ecx
    270b:	8b 43 2c             	mov    0x2c(%ebx),%eax
    270e:	89 4d d0             	mov    %ecx,-0x30(%ebp)
    2711:	66 8b 4f 0b          	mov    0xb(%edi),%cx
    2715:	89 ca                	mov    %ecx,%edx
    2717:	66 c1 ea 05          	shr    $0x5,%dx
    271b:	81 e2 ff ff 00 00    	and    $0xffff,%edx
    2721:	89 55 cc             	mov    %edx,-0x34(%ebp)
    2724:	31 d2                	xor    %edx,%edx
    2726:	f7 75 cc             	divl   -0x34(%ebp)
    2729:	c1 e2 05             	shl    $0x5,%edx
    272c:	8b 45 d0             	mov    -0x30(%ebp),%eax
    272f:	8b 40 54             	mov    0x54(%eax),%eax
    2732:	01 c2                	add    %eax,%edx
    2734:	89 55 d4             	mov    %edx,-0x2c(%ebp)
    2737:	66 8b 57 13          	mov    0x13(%edi),%dx
    273b:	66 85 d2             	test   %dx,%dx
    273e:	0f 85 fc 00 00 00    	jne    2840 <fat_node_get_core+0x2e0>
    2744:	8b 57 20             	mov    0x20(%edi),%edx
    2747:	89 55 cc             	mov    %edx,-0x34(%ebp)
    274a:	66 8b 47 0e          	mov    0xe(%edi),%ax
    274e:	25 ff ff 00 00       	and    $0xffff,%eax
    2753:	89 45 c4             	mov    %eax,-0x3c(%ebp)
    2756:	31 c0                	xor    %eax,%eax
    2758:	8a 47 10             	mov    0x10(%edi),%al
    275b:	89 45 c0             	mov    %eax,-0x40(%ebp)
    275e:	66 8b 47 16          	mov    0x16(%edi),%ax
    2762:	66 85 c0             	test   %ax,%ax
    2765:	0f 84 fd 00 00 00    	je     2868 <fat_node_get_core+0x308>
    276b:	25 ff ff 00 00       	and    $0xffff,%eax
    2770:	89 45 c8             	mov    %eax,-0x38(%ebp)
    2773:	66 8b 47 11          	mov    0x11(%edi),%ax
    2777:	81 e1 ff ff 00 00    	and    $0xffff,%ecx
    277d:	25 ff ff 00 00       	and    $0xffff,%eax
    2782:	31 d2                	xor    %edx,%edx
    2784:	c1 e0 05             	shl    $0x5,%eax
    2787:	f7 f1                	div    %ecx
    2789:	8b 4d c4             	mov    -0x3c(%ebp),%ecx
    278c:	01 c8                	add    %ecx,%eax
    278e:	85 d2                	test   %edx,%edx
    2790:	0f 95 c2             	setne  %dl
    2793:	81 e2 ff 00 00 00    	and    $0xff,%edx
    2799:	8b 4d cc             	mov    -0x34(%ebp),%ecx
    279c:	01 d0                	add    %edx,%eax
    279e:	8b 55 c8             	mov    -0x38(%ebp),%edx
    27a1:	29 c1                	sub    %eax,%ecx
    27a3:	89 c8                	mov    %ecx,%eax
    27a5:	8b 4d c0             	mov    -0x40(%ebp),%ecx
    27a8:	0f af d1             	imul   %ecx,%edx
    27ab:	31 c9                	xor    %ecx,%ecx
    27ad:	29 d0                	sub    %edx,%eax
    27af:	8a 4f 0d             	mov    0xd(%edi),%cl
    27b2:	31 d2                	xor    %edx,%edx
    27b4:	f7 f1                	div    %ecx
    27b6:	3d f4 ff 00 00       	cmp    $0xfff4,%eax
    27bb:	8b 45 e0             	mov    -0x20(%ebp),%eax
    27be:	0f 86 8c 00 00 00    	jbe    2850 <fat_node_get_core+0x2f0>
    27c4:	8b 55 d4             	mov    -0x2c(%ebp),%edx
    27c7:	8b 4d d4             	mov    -0x2c(%ebp),%ecx
    27ca:	66 8b 52 14          	mov    0x14(%edx),%dx
    27ce:	66 8b 49 1a          	mov    0x1a(%ecx),%cx
    27d2:	66 89 55 a8          	mov    %dx,-0x58(%ebp)
    27d6:	66 89 4d a2          	mov    %cx,-0x5e(%ebp)
    27da:	c1 e2 10             	shl    $0x10,%edx
    27dd:	81 e1 ff ff 00 00    	and    $0xffff,%ecx
    27e3:	09 ca                	or     %ecx,%edx
    27e5:	89 50 1c             	mov    %edx,0x1c(%eax)
    27e8:	8b 55 d4             	mov    -0x2c(%ebp),%edx
    27eb:	f6 42 0b 10          	testb  $0x10,0xb(%edx)
    27ef:	0f 85 90 00 00 00    	jne    2885 <fat_node_get_core+0x325>
    27f5:	c7 40 14 02 00 00 00 	movl   $0x2,0x14(%eax)
    27fc:	8b 4d d0             	mov    -0x30(%ebp),%ecx
    27ff:	8b 52 1c             	mov    0x1c(%edx),%edx
    2802:	c7 40 2c 00 00 00 00 	movl   $0x0,0x2c(%eax)
    2809:	89 50 28             	mov    %edx,0x28(%eax)
    280c:	c7 40 30 01 00 00 00 	movl   $0x1,0x30(%eax)
    2813:	c7 40 34 01 00 00 00 	movl   $0x1,0x34(%eax)
    281a:	89 0c 24             	mov    %ecx,(%esp)
    281d:	e8 1e 90 00 00       	call   b840 <block_put>
    2822:	89 c2                	mov    %eax,%edx
    2824:	8b 45 e0             	mov    -0x20(%ebp),%eax
    2827:	85 d2                	test   %edx,%edx
    2829:	74 4d                	je     2878 <fat_node_get_core+0x318>
    282b:	85 c0                	test   %eax,%eax
    282d:	0f 85 55 fe ff ff    	jne    2688 <fat_node_get_core+0x128>
    2833:	31 db                	xor    %ebx,%ebx
    2835:	e9 5b fe ff ff       	jmp    2695 <fat_node_get_core+0x135>
    283a:	8d b6 00 00 00 00    	lea    0x0(%esi),%esi
    2840:	81 e2 ff ff 00 00    	and    $0xffff,%edx
    2846:	89 55 cc             	mov    %edx,-0x34(%ebp)
    2849:	e9 fc fe ff ff       	jmp    274a <fat_node_get_core+0x1ea>
    284e:	66 90                	xchg   %ax,%ax
    2850:	8b 4d d4             	mov    -0x2c(%ebp),%ecx
    2853:	66 8b 51 1a          	mov    0x1a(%ecx),%dx
    2857:	81 e2 ff ff 00 00    	and    $0xffff,%edx
    285d:	89 50 1c             	mov    %edx,0x1c(%eax)
    2860:	89 ca                	mov    %ecx,%edx
    2862:	eb 87                	jmp    27eb <fat_node_get_core+0x28b>
    2864:	8d 74 26 00          	lea    0x0(%esi,%eiz,1),%esi
    2868:	8b 57 24             	mov    0x24(%edi),%edx
    286b:	89 55 c8             	mov    %edx,-0x38(%ebp)
    286e:	e9 00 ff ff ff       	jmp    2773 <fat_node_get_core+0x213>
    2873:	90                   	nop
    2874:	8d 74 26 00          	lea    0x0(%esi,%eiz,1),%esi
    2878:	89 58 18             	mov    %ebx,0x18(%eax)
    287b:	89 43 30             	mov    %eax,0x30(%ebx)
    287e:	89 06                	mov    %eax,(%esi)
    2880:	e9 27 fd ff ff       	jmp    25ac <fat_node_get_core+0x4c>
    2885:	8d 55 e4             	lea    -0x1c(%ebp),%edx
    2888:	c7 40 14 01 00 00 00 	movl   $0x1,0x14(%eax)
    288f:	89 54 24 10          	mov    %edx,0x10(%esp)
    2893:	c7 44 24 14 ff ff ff 	movl   $0xffffffff,0x14(%esp)
    289a:	ff 
    289b:	c7 44 24 0c 00 00 00 	movl   $0x0,0xc(%esp)
    28a2:	00 
    28a3:	8b 40 1c             	mov    0x1c(%eax),%eax
    28a6:	89 44 24 08          	mov    %eax,0x8(%esp)
    28aa:	8b 43 20             	mov    0x20(%ebx),%eax
    28ad:	89 3c 24             	mov    %edi,(%esp)
    28b0:	89 44 24 04          	mov    %eax,0x4(%esp)
    28b4:	e8 87 65 00 00       	call   8e40 <fat_cluster_walk>
    28b9:	89 c2                	mov    %eax,%edx
    28bb:	85 c0                	test   %eax,%eax
    28bd:	75 55                	jne    2914 <fat_node_get_core+0x3b4>
    28bf:	66 8b 57 0b          	mov    0xb(%edi),%dx
    28c3:	31 c9                	xor    %ecx,%ecx
    28c5:	8a 4f 0d             	mov    0xd(%edi),%cl
    28c8:	81 e2 ff ff 00 00    	and    $0xffff,%edx
    28ce:	0f af d1             	imul   %ecx,%edx
    28d1:	8b 4d e4             	mov    -0x1c(%ebp),%ecx
    28d4:	8b 45 e0             	mov    -0x20(%ebp),%eax
    28d7:	0f af d1             	imul   %ecx,%edx
    28da:	8b 4d dc             	mov    -0x24(%ebp),%ecx
    28dd:	89 50 28             	mov    %edx,0x28(%eax)
    28e0:	c7 40 2c 00 00 00 00 	movl   $0x0,0x2c(%eax)
    28e7:	89 4d d0             	mov    %ecx,-0x30(%ebp)
    28ea:	e9 1d ff ff ff       	jmp    280c <fat_node_get_core+0x2ac>
    28ef:	89 34 24             	mov    %esi,(%esp)
    28f2:	89 55 a4             	mov    %edx,-0x5c(%ebp)
    28f5:	e8 56 27 01 00       	call   15050 <fibril_mutex_unlock>
    28fa:	8b 03                	mov    (%ebx),%eax
    28fc:	89 04 24             	mov    %eax,(%esp)
    28ff:	e8 4c b5 01 00       	call   1de50 <free>
    2904:	89 1c 24             	mov    %ebx,(%esp)
    2907:	e8 44 b5 01 00       	call   1de50 <free>
    290c:	8b 55 a4             	mov    -0x5c(%ebp),%edx
    290f:	e9 98 fc ff ff       	jmp    25ac <fat_node_get_core+0x4c>
    2914:	8b 45 dc             	mov    -0x24(%ebp),%eax
    2917:	89 55 a4             	mov    %edx,-0x5c(%ebp)
    291a:	89 04 24             	mov    %eax,(%esp)
    291d:	e8 1e 8f 00 00       	call   b840 <block_put>
    2922:	8b 45 e0             	mov    -0x20(%ebp),%eax
    2925:	85 c0                	test   %eax,%eax
    2927:	8b 55 a4             	mov    -0x5c(%ebp),%edx
    292a:	0f 85 58 fd ff ff    	jne    2688 <fat_node_get_core+0x128>
    2930:	31 db                	xor    %ebx,%ebx
    2932:	e9 5e fd ff ff       	jmp    2695 <fat_node_get_core+0x135>
    2937:	c7 44 24 08 29 01 00 	movl   $0x129,0x8(%esp)
    293e:	00 
    293f:	c7 44 24 04 89 a9 02 	movl   $0x2a989,0x4(%esp)
    2946:	00 
    2947:	c7 04 24 29 aa 02 00 	movl   $0x2aa29,(%esp)
    294e:	e8 cd 5b 02 00       	call   28520 <assert_abort>
    2953:	8d b6 00 00 00 00    	lea    0x0(%esi),%esi
    2959:	8d bc 27 00 00 00 00 	lea    0x0(%edi,%eiz,1),%edi

00002960 <fat_node_get>:
    2960:	55                   	push   %ebp
    2961:	89 e5                	mov    %esp,%ebp
    2963:	53                   	push   %ebx
    2964:	83 ec 34             	sub    $0x34,%esp
    2967:	8b 45 10             	mov    0x10(%ebp),%eax
    296a:	89 44 24 04          	mov    %eax,0x4(%esp)
    296e:	8b 45 0c             	mov    0xc(%ebp),%eax
    2971:	89 04 24             	mov    %eax,(%esp)
    2974:	e8 d7 24 00 00       	call   4e50 <fat_idx_get_by_index>
    2979:	89 c3                	mov    %eax,%ebx
    297b:	85 c0                	test   %eax,%eax
    297d:	74 39                	je     29b8 <fat_node_get+0x58>
    297f:	89 c2                	mov    %eax,%edx
    2981:	8d 45 f4             	lea    -0xc(%ebp),%eax
    2984:	e8 d7 fb ff ff       	call   2560 <fat_node_get_core>
    2989:	83 c3 10             	add    $0x10,%ebx
    298c:	89 1c 24             	mov    %ebx,(%esp)
    298f:	89 45 e4             	mov    %eax,-0x1c(%ebp)
    2992:	e8 b9 26 01 00       	call   15050 <fibril_mutex_unlock>
    2997:	8b 45 e4             	mov    -0x1c(%ebp),%eax
    299a:	85 c0                	test   %eax,%eax
    299c:	75 0e                	jne    29ac <fat_node_get+0x4c>
    299e:	8b 55 f4             	mov    -0xc(%ebp),%edx
    29a1:	85 d2                	test   %edx,%edx
    29a3:	74 2b                	je     29d0 <fat_node_get+0x70>
    29a5:	8b 12                	mov    (%edx),%edx
    29a7:	8b 4d 08             	mov    0x8(%ebp),%ecx
    29aa:	89 11                	mov    %edx,(%ecx)
    29ac:	83 c4 34             	add    $0x34,%esp
    29af:	5b                   	pop    %ebx
    29b0:	5d                   	pop    %ebp
    29b1:	c3                   	ret    
    29b2:	8d b6 00 00 00 00    	lea    0x0(%esi),%esi
    29b8:	8b 45 08             	mov    0x8(%ebp),%eax
    29bb:	c7 00 00 00 00 00    	movl   $0x0,(%eax)
    29c1:	83 c4 34             	add    $0x34,%esp
    29c4:	31 c0                	xor    %eax,%eax
    29c6:	5b                   	pop    %ebx
    29c7:	5d                   	pop    %ebp
    29c8:	c3                   	ret    
    29c9:	8d b4 26 00 00 00 00 	lea    0x0(%esi,%eiz,1),%esi
    29d0:	31 d2                	xor    %edx,%edx
    29d2:	eb d3                	jmp    29a7 <fat_node_get+0x47>
    29d4:	8d b6 00 00 00 00    	lea    0x0(%esi),%esi
    29da:	8d bf 00 00 00 00    	lea    0x0(%edi),%edi

000029e0 <fat_truncate>:
    29e0:	55                   	push   %ebp
    29e1:	89 e5                	mov    %esp,%ebp
    29e3:	57                   	push   %edi
    29e4:	56                   	push   %esi
    29e5:	53                   	push   %ebx
    29e6:	83 ec 7c             	sub    $0x7c,%esp
    29e9:	8b 7d 14             	mov    0x14(%ebp),%edi
    29ec:	8b 45 0c             	mov    0xc(%ebp),%eax
    29ef:	89 7d d4             	mov    %edi,-0x2c(%ebp)
    29f2:	8b 7d 08             	mov    0x8(%ebp),%edi
    29f5:	8b 75 10             	mov    0x10(%ebp),%esi
    29f8:	89 44 24 04          	mov    %eax,0x4(%esp)
    29fc:	89 3c 24             	mov    %edi,(%esp)
    29ff:	89 75 d0             	mov    %esi,-0x30(%ebp)
    2a02:	e8 49 24 00 00       	call   4e50 <fat_idx_get_by_index>
    2a07:	89 c6                	mov    %eax,%esi
    2a09:	85 c0                	test   %eax,%eax
    2a0b:	0f 84 37 02 00 00    	je     2c48 <fat_truncate+0x268>
    2a11:	89 c2                	mov    %eax,%edx
    2a13:	8d 45 e4             	lea    -0x1c(%ebp),%eax
    2a16:	e8 45 fb ff ff       	call   2560 <fat_node_get_core>
    2a1b:	83 c6 10             	add    $0x10,%esi
    2a1e:	89 c3                	mov    %eax,%ebx
    2a20:	89 34 24             	mov    %esi,(%esp)
    2a23:	e8 28 26 01 00       	call   15050 <fibril_mutex_unlock>
    2a28:	85 db                	test   %ebx,%ebx
    2a2a:	0f 85 0a 02 00 00    	jne    2c3a <fat_truncate+0x25a>
    2a30:	8b 45 e4             	mov    -0x1c(%ebp),%eax
    2a33:	85 c0                	test   %eax,%eax
    2a35:	0f 84 0d 02 00 00    	je     2c48 <fat_truncate+0x268>
    2a3b:	8b 00                	mov    (%eax),%eax
    2a3d:	89 45 c8             	mov    %eax,-0x38(%ebp)
    2a40:	85 c0                	test   %eax,%eax
    2a42:	0f 84 00 02 00 00    	je     2c48 <fat_truncate+0x268>
    2a48:	8b 48 10             	mov    0x10(%eax),%ecx
    2a4b:	89 3c 24             	mov    %edi,(%esp)
    2a4e:	89 4d cc             	mov    %ecx,-0x34(%ebp)
    2a51:	e8 7a 89 00 00       	call   b3d0 <block_bb_get>
    2a56:	8b 75 cc             	mov    -0x34(%ebp),%esi
    2a59:	89 c1                	mov    %eax,%ecx
    2a5b:	8b 55 d4             	mov    -0x2c(%ebp),%edx
    2a5e:	8b 45 d0             	mov    -0x30(%ebp),%eax
    2a61:	8b 7e 28             	mov    0x28(%esi),%edi
    2a64:	8b 76 2c             	mov    0x2c(%esi),%esi
    2a67:	31 f2                	xor    %esi,%edx
    2a69:	31 f8                	xor    %edi,%eax
    2a6b:	09 c2                	or     %eax,%edx
    2a6d:	0f 84 65 01 00 00    	je     2bd8 <fat_truncate+0x1f8>
    2a73:	3b 75 d4             	cmp    -0x2c(%ebp),%esi
    2a76:	0f 82 e5 01 00 00    	jb     2c61 <fat_truncate+0x281>
    2a7c:	0f 86 d6 01 00 00    	jbe    2c58 <fat_truncate+0x278>
    2a82:	66 8b 41 0b          	mov    0xb(%ecx),%ax
    2a86:	25 ff ff 00 00       	and    $0xffff,%eax
    2a8b:	89 45 c4             	mov    %eax,-0x3c(%ebp)
    2a8e:	31 c0                	xor    %eax,%eax
    2a90:	8a 41 0d             	mov    0xd(%ecx),%al
    2a93:	8b 55 c4             	mov    -0x3c(%ebp),%edx
    2a96:	0f af c2             	imul   %edx,%eax
    2a99:	89 c2                	mov    %eax,%edx
    2a9b:	89 3c 24             	mov    %edi,(%esp)
    2a9e:	c1 fa 1f             	sar    $0x1f,%edx
    2aa1:	89 74 24 04          	mov    %esi,0x4(%esp)
    2aa5:	89 44 24 08          	mov    %eax,0x8(%esp)
    2aa9:	89 54 24 0c          	mov    %edx,0xc(%esp)
    2aad:	89 4d ac             	mov    %ecx,-0x54(%ebp)
    2ab0:	89 45 c4             	mov    %eax,-0x3c(%ebp)
    2ab3:	89 45 b8             	mov    %eax,-0x48(%ebp)
    2ab6:	89 55 bc             	mov    %edx,-0x44(%ebp)
    2ab9:	e8 d2 79 02 00       	call   2a490 <__umoddi3>
    2abe:	89 3c 24             	mov    %edi,(%esp)
    2ac1:	09 d0                	or     %edx,%eax
    2ac3:	8b 55 bc             	mov    -0x44(%ebp),%edx
    2ac6:	0f 95 c0             	setne  %al
    2ac9:	25 ff 00 00 00       	and    $0xff,%eax
    2ace:	89 74 24 04          	mov    %esi,0x4(%esp)
    2ad2:	89 45 b0             	mov    %eax,-0x50(%ebp)
    2ad5:	8b 45 b8             	mov    -0x48(%ebp),%eax
    2ad8:	89 44 24 08          	mov    %eax,0x8(%esp)
    2adc:	89 54 24 0c          	mov    %edx,0xc(%esp)
    2ae0:	c7 45 b4 00 00 00 00 	movl   $0x0,-0x4c(%ebp)
    2ae7:	e8 24 77 02 00       	call   2a210 <__udivdi3>
    2aec:	8b 75 b0             	mov    -0x50(%ebp),%esi
    2aef:	89 45 a0             	mov    %eax,-0x60(%ebp)
    2af2:	01 75 a0             	add    %esi,-0x60(%ebp)
    2af5:	89 55 a4             	mov    %edx,-0x5c(%ebp)
    2af8:	8b 7d b4             	mov    -0x4c(%ebp),%edi
    2afb:	8b 75 c4             	mov    -0x3c(%ebp),%esi
    2afe:	11 7d a4             	adc    %edi,-0x5c(%ebp)
    2b01:	8b 55 bc             	mov    -0x44(%ebp),%edx
    2b04:	8b 4d a4             	mov    -0x5c(%ebp),%ecx
    2b07:	8b 7d a0             	mov    -0x60(%ebp),%edi
    2b0a:	0f af f1             	imul   %ecx,%esi
    2b0d:	0f af d7             	imul   %edi,%edx
    2b10:	8b 45 c4             	mov    -0x3c(%ebp),%eax
    2b13:	01 d6                	add    %edx,%esi
    2b15:	f7 65 a0             	mull   -0x60(%ebp)
    2b18:	8b 7d bc             	mov    -0x44(%ebp),%edi
    2b1b:	01 f2                	add    %esi,%edx
    2b1d:	8b 75 b8             	mov    -0x48(%ebp),%esi
    2b20:	89 7c 24 0c          	mov    %edi,0xc(%esp)
    2b24:	89 74 24 08          	mov    %esi,0x8(%esp)
    2b28:	8b 7d d4             	mov    -0x2c(%ebp),%edi
    2b2b:	8b 75 d0             	mov    -0x30(%ebp),%esi
    2b2e:	89 45 b0             	mov    %eax,-0x50(%ebp)
    2b31:	89 55 b4             	mov    %edx,-0x4c(%ebp)
    2b34:	89 34 24             	mov    %esi,(%esp)
    2b37:	89 7c 24 04          	mov    %edi,0x4(%esp)
    2b3b:	e8 50 79 02 00       	call   2a490 <__umoddi3>
    2b40:	09 d0                	or     %edx,%eax
    2b42:	8b 55 bc             	mov    -0x44(%ebp),%edx
    2b45:	0f 95 c0             	setne  %al
    2b48:	25 ff 00 00 00       	and    $0xff,%eax
    2b4d:	89 54 24 0c          	mov    %edx,0xc(%esp)
    2b51:	89 c6                	mov    %eax,%esi
    2b53:	8b 45 b8             	mov    -0x48(%ebp),%eax
    2b56:	89 44 24 08          	mov    %eax,0x8(%esp)
    2b5a:	8b 55 d4             	mov    -0x2c(%ebp),%edx
    2b5d:	8b 45 d0             	mov    -0x30(%ebp),%eax
    2b60:	89 54 24 04          	mov    %edx,0x4(%esp)
    2b64:	89 04 24             	mov    %eax,(%esp)
    2b67:	31 ff                	xor    %edi,%edi
    2b69:	e8 a2 76 02 00       	call   2a210 <__udivdi3>
    2b6e:	8b 4d b4             	mov    -0x4c(%ebp),%ecx
    2b71:	01 f0                	add    %esi,%eax
    2b73:	8b 75 c4             	mov    -0x3c(%ebp),%esi
    2b76:	11 fa                	adc    %edi,%edx
    2b78:	0f af f2             	imul   %edx,%esi
    2b7b:	8b 55 bc             	mov    -0x44(%ebp),%edx
    2b7e:	0f af d0             	imul   %eax,%edx
    2b81:	01 d6                	add    %edx,%esi
    2b83:	f7 65 c4             	mull   -0x3c(%ebp)
    2b86:	01 f2                	add    %esi,%edx
    2b88:	8b 75 b0             	mov    -0x50(%ebp),%esi
    2b8b:	31 ca                	xor    %ecx,%edx
    2b8d:	31 f0                	xor    %esi,%eax
    2b8f:	09 c2                	or     %eax,%edx
    2b91:	8b 4d ac             	mov    -0x54(%ebp),%ecx
    2b94:	74 2b                	je     2bc1 <fat_truncate+0x1e1>
    2b96:	8b 75 d4             	mov    -0x2c(%ebp),%esi
    2b99:	0b 75 d0             	or     -0x30(%ebp),%esi
    2b9c:	0f 85 ce 00 00 00    	jne    2c70 <fat_truncate+0x290>
    2ba2:	c7 44 24 08 00 00 00 	movl   $0x0,0x8(%esp)
    2ba9:	00 
    2baa:	8b 7d cc             	mov    -0x34(%ebp),%edi
    2bad:	89 7c 24 04          	mov    %edi,0x4(%esp)
    2bb1:	89 0c 24             	mov    %ecx,(%esp)
    2bb4:	e8 77 7e 00 00       	call   aa30 <fat_chop_clusters>
    2bb9:	85 c0                	test   %eax,%eax
    2bbb:	0f 85 0e 01 00 00    	jne    2ccf <fat_truncate+0x2ef>
    2bc1:	8b 4d cc             	mov    -0x34(%ebp),%ecx
    2bc4:	8b 75 d0             	mov    -0x30(%ebp),%esi
    2bc7:	8b 7d d4             	mov    -0x2c(%ebp),%edi
    2bca:	89 71 28             	mov    %esi,0x28(%ecx)
    2bcd:	89 79 2c             	mov    %edi,0x2c(%ecx)
    2bd0:	c6 41 38 01          	movb   $0x1,0x38(%ecx)
    2bd4:	8d 74 26 00          	lea    0x0(%esi,%eiz,1),%esi
    2bd8:	8b 7d c8             	mov    -0x38(%ebp),%edi
    2bdb:	8b 77 10             	mov    0x10(%edi),%esi
    2bde:	8d 7e 04             	lea    0x4(%esi),%edi
    2be1:	89 3c 24             	mov    %edi,(%esp)
    2be4:	e8 47 23 01 00       	call   14f30 <fibril_mutex_lock>
    2be9:	8b 46 34             	mov    0x34(%esi),%eax
    2bec:	48                   	dec    %eax
    2bed:	89 46 34             	mov    %eax,0x34(%esi)
    2bf0:	85 c0                	test   %eax,%eax
    2bf2:	75 3e                	jne    2c32 <fat_truncate+0x252>
    2bf4:	8b 46 18             	mov    0x18(%esi),%eax
    2bf7:	85 c0                	test   %eax,%eax
    2bf9:	0f 84 d9 00 00 00    	je     2cd8 <fat_truncate+0x2f8>
    2bff:	c7 04 24 c0 d6 02 00 	movl   $0x2d6c0,(%esp)
    2c06:	e8 25 23 01 00       	call   14f30 <fibril_mutex_lock>
    2c0b:	8b 15 d0 d6 02 00    	mov    0x2d6d0,%edx
    2c11:	8d 46 20             	lea    0x20(%esi),%eax
    2c14:	c7 46 24 d0 d6 02 00 	movl   $0x2d6d0,0x24(%esi)
    2c1b:	89 56 20             	mov    %edx,0x20(%esi)
    2c1e:	89 42 04             	mov    %eax,0x4(%edx)
    2c21:	c7 04 24 c0 d6 02 00 	movl   $0x2d6c0,(%esp)
    2c28:	a3 d0 d6 02 00       	mov    %eax,0x2d6d0
    2c2d:	e8 1e 24 01 00       	call   15050 <fibril_mutex_unlock>
    2c32:	89 3c 24             	mov    %edi,(%esp)
    2c35:	e8 16 24 01 00       	call   15050 <fibril_mutex_unlock>
    2c3a:	83 c4 7c             	add    $0x7c,%esp
    2c3d:	89 d8                	mov    %ebx,%eax
    2c3f:	5b                   	pop    %ebx
    2c40:	5e                   	pop    %esi
    2c41:	5f                   	pop    %edi
    2c42:	5d                   	pop    %ebp
    2c43:	c3                   	ret    
    2c44:	8d 74 26 00          	lea    0x0(%esi,%eiz,1),%esi
    2c48:	83 c4 7c             	add    $0x7c,%esp
    2c4b:	83 cb ff             	or     $0xffffffff,%ebx
    2c4e:	89 d8                	mov    %ebx,%eax
    2c50:	5b                   	pop    %ebx
    2c51:	5e                   	pop    %esi
    2c52:	5f                   	pop    %edi
    2c53:	5d                   	pop    %ebp
    2c54:	c3                   	ret    
    2c55:	8d 76 00             	lea    0x0(%esi),%esi
    2c58:	3b 7d d0             	cmp    -0x30(%ebp),%edi
    2c5b:	0f 83 21 fe ff ff    	jae    2a82 <fat_truncate+0xa2>
    2c61:	bb f2 ff ff ff       	mov    $0xfffffff2,%ebx
    2c66:	e9 6d ff ff ff       	jmp    2bd8 <fat_truncate+0x1f8>
    2c6b:	90                   	nop
    2c6c:	8d 74 26 00          	lea    0x0(%esi,%eiz,1),%esi
    2c70:	8b 45 d0             	mov    -0x30(%ebp),%eax
    2c73:	8b 55 d4             	mov    -0x2c(%ebp),%edx
    2c76:	83 c0 ff             	add    $0xffffffff,%eax
    2c79:	8b 75 b8             	mov    -0x48(%ebp),%esi
    2c7c:	83 d2 ff             	adc    $0xffffffff,%edx
    2c7f:	8b 7d bc             	mov    -0x44(%ebp),%edi
    2c82:	89 74 24 08          	mov    %esi,0x8(%esp)
    2c86:	89 7c 24 0c          	mov    %edi,0xc(%esp)
    2c8a:	89 04 24             	mov    %eax,(%esp)
    2c8d:	89 54 24 04          	mov    %edx,0x4(%esp)
    2c91:	89 4d ac             	mov    %ecx,-0x54(%ebp)
    2c94:	e8 77 75 02 00       	call   2a210 <__udivdi3>
    2c99:	8b 7d cc             	mov    -0x34(%ebp),%edi
    2c9c:	89 44 24 14          	mov    %eax,0x14(%esp)
    2ca0:	8d 45 e0             	lea    -0x20(%ebp),%eax
    2ca3:	c7 44 24 10 00 00 00 	movl   $0x0,0x10(%esp)
    2caa:	00 
    2cab:	89 44 24 0c          	mov    %eax,0xc(%esp)
    2caf:	8b 4d ac             	mov    -0x54(%ebp),%ecx
    2cb2:	8b 47 1c             	mov    0x1c(%edi),%eax
    2cb5:	8b 75 08             	mov    0x8(%ebp),%esi
    2cb8:	89 0c 24             	mov    %ecx,(%esp)
    2cbb:	89 44 24 08          	mov    %eax,0x8(%esp)
    2cbf:	89 74 24 04          	mov    %esi,0x4(%esp)
    2cc3:	e8 78 61 00 00       	call   8e40 <fat_cluster_walk>
    2cc8:	8b 4d ac             	mov    -0x54(%ebp),%ecx
    2ccb:	85 c0                	test   %eax,%eax
    2ccd:	74 29                	je     2cf8 <fat_truncate+0x318>
    2ccf:	89 c3                	mov    %eax,%ebx
    2cd1:	e9 02 ff ff ff       	jmp    2bd8 <fat_truncate+0x1f8>
    2cd6:	66 90                	xchg   %ax,%ax
    2cd8:	89 3c 24             	mov    %edi,(%esp)
    2cdb:	e8 70 23 01 00       	call   15050 <fibril_mutex_unlock>
    2ce0:	8b 06                	mov    (%esi),%eax
    2ce2:	89 04 24             	mov    %eax,(%esp)
    2ce5:	e8 66 b1 01 00       	call   1de50 <free>
    2cea:	89 34 24             	mov    %esi,(%esp)
    2ced:	e8 5e b1 01 00       	call   1de50 <free>
    2cf2:	e9 43 ff ff ff       	jmp    2c3a <fat_truncate+0x25a>
    2cf7:	90                   	nop
    2cf8:	8b 45 e0             	mov    -0x20(%ebp),%eax
    2cfb:	89 44 24 08          	mov    %eax,0x8(%esp)
    2cff:	e9 a9 fe ff ff       	jmp    2bad <fat_truncate+0x1cd>
    2d04:	8d b6 00 00 00 00    	lea    0x0(%esi),%esi
    2d0a:	8d bf 00 00 00 00    	lea    0x0(%edi),%edi

00002d10 <fat_root_get>:
    2d10:	55                   	push   %ebp
    2d11:	89 e5                	mov    %esp,%ebp
    2d13:	53                   	push   %ebx
    2d14:	83 ec 34             	sub    $0x34,%esp
    2d17:	8b 45 0c             	mov    0xc(%ebp),%eax
    2d1a:	c7 44 24 04 00 00 00 	movl   $0x0,0x4(%esp)
    2d21:	00 
    2d22:	89 04 24             	mov    %eax,(%esp)
    2d25:	e8 26 21 00 00       	call   4e50 <fat_idx_get_by_index>
    2d2a:	89 c3                	mov    %eax,%ebx
    2d2c:	85 c0                	test   %eax,%eax
    2d2e:	74 38                	je     2d68 <fat_root_get+0x58>
    2d30:	89 c2                	mov    %eax,%edx
    2d32:	8d 45 f4             	lea    -0xc(%ebp),%eax
    2d35:	e8 26 f8 ff ff       	call   2560 <fat_node_get_core>
    2d3a:	83 c3 10             	add    $0x10,%ebx
    2d3d:	89 1c 24             	mov    %ebx,(%esp)
    2d40:	89 45 e4             	mov    %eax,-0x1c(%ebp)
    2d43:	e8 08 23 01 00       	call   15050 <fibril_mutex_unlock>
    2d48:	8b 45 e4             	mov    -0x1c(%ebp),%eax
    2d4b:	85 c0                	test   %eax,%eax
    2d4d:	75 0e                	jne    2d5d <fat_root_get+0x4d>
    2d4f:	8b 55 f4             	mov    -0xc(%ebp),%edx
    2d52:	85 d2                	test   %edx,%edx
    2d54:	74 2a                	je     2d80 <fat_root_get+0x70>
    2d56:	8b 12                	mov    (%edx),%edx
    2d58:	8b 4d 08             	mov    0x8(%ebp),%ecx
    2d5b:	89 11                	mov    %edx,(%ecx)
    2d5d:	83 c4 34             	add    $0x34,%esp
    2d60:	5b                   	pop    %ebx
    2d61:	5d                   	pop    %ebp
    2d62:	c3                   	ret    
    2d63:	90                   	nop
    2d64:	8d 74 26 00          	lea    0x0(%esi,%eiz,1),%esi
    2d68:	8b 45 08             	mov    0x8(%ebp),%eax
    2d6b:	c7 00 00 00 00 00    	movl   $0x0,(%eax)
    2d71:	83 c4 34             	add    $0x34,%esp
    2d74:	31 c0                	xor    %eax,%eax
    2d76:	5b                   	pop    %ebx
    2d77:	5d                   	pop    %ebp
    2d78:	c3                   	ret    
    2d79:	8d b4 26 00 00 00 00 	lea    0x0(%esi,%eiz,1),%esi
    2d80:	31 d2                	xor    %edx,%edx
    2d82:	eb d4                	jmp    2d58 <fat_root_get+0x48>
    2d84:	8d b6 00 00 00 00    	lea    0x0(%esi),%esi
    2d8a:	8d bf 00 00 00 00    	lea    0x0(%edi),%edi

00002d90 <fat_unmounted>:
    2d90:	55                   	push   %ebp
    2d91:	89 e5                	mov    %esp,%ebp
    2d93:	57                   	push   %edi
    2d94:	56                   	push   %esi
    2d95:	53                   	push   %ebx
    2d96:	83 ec 4c             	sub    $0x4c,%esp
    2d99:	8b 45 08             	mov    0x8(%ebp),%eax
    2d9c:	89 04 24             	mov    %eax,(%esp)
    2d9f:	e8 2c 86 00 00       	call   b3d0 <block_bb_get>
    2da4:	8b 55 08             	mov    0x8(%ebp),%edx
    2da7:	c7 44 24 04 00 00 00 	movl   $0x0,0x4(%esp)
    2dae:	00 
    2daf:	89 14 24             	mov    %edx,(%esp)
    2db2:	89 c3                	mov    %eax,%ebx
    2db4:	e8 97 20 00 00       	call   4e50 <fat_idx_get_by_index>
    2db9:	89 c6                	mov    %eax,%esi
    2dbb:	85 c0                	test   %eax,%eax
    2dbd:	0f 84 bd 05 00 00    	je     3380 <fat_unmounted+0x5f0>
    2dc3:	89 f2                	mov    %esi,%edx
    2dc5:	8d 45 e4             	lea    -0x1c(%ebp),%eax
    2dc8:	89 45 d0             	mov    %eax,-0x30(%ebp)
    2dcb:	e8 90 f7 ff ff       	call   2560 <fat_node_get_core>
    2dd0:	83 c6 10             	add    $0x10,%esi
    2dd3:	89 c7                	mov    %eax,%edi
    2dd5:	89 34 24             	mov    %esi,(%esp)
    2dd8:	e8 73 22 01 00       	call   15050 <fibril_mutex_unlock>
    2ddd:	85 ff                	test   %edi,%edi
    2ddf:	0f 85 61 02 00 00    	jne    3046 <fat_unmounted+0x2b6>
    2de5:	8b 45 e4             	mov    -0x1c(%ebp),%eax
    2de8:	85 c0                	test   %eax,%eax
    2dea:	0f 84 90 05 00 00    	je     3380 <fat_unmounted+0x5f0>
    2df0:	8b 00                	mov    (%eax),%eax
    2df2:	89 45 d4             	mov    %eax,-0x2c(%ebp)
    2df5:	85 c0                	test   %eax,%eax
    2df7:	0f 84 83 05 00 00    	je     3380 <fat_unmounted+0x5f0>
    2dfd:	8b 70 10             	mov    0x10(%eax),%esi
    2e00:	83 7e 34 02          	cmpl   $0x2,0x34(%esi)
    2e04:	0f 85 be 04 00 00    	jne    32c8 <fat_unmounted+0x538>
    2e0a:	66 8b 43 13          	mov    0x13(%ebx),%ax
    2e0e:	66 85 c0             	test   %ax,%ax
    2e11:	0f 84 e1 02 00 00    	je     30f8 <fat_unmounted+0x368>
    2e17:	25 ff ff 00 00       	and    $0xffff,%eax
    2e1c:	89 45 d0             	mov    %eax,-0x30(%ebp)
    2e1f:	31 c0                	xor    %eax,%eax
    2e21:	66 8b 73 0e          	mov    0xe(%ebx),%si
    2e25:	8a 43 10             	mov    0x10(%ebx),%al
    2e28:	81 e6 ff ff 00 00    	and    $0xffff,%esi
    2e2e:	89 45 cc             	mov    %eax,-0x34(%ebp)
    2e31:	66 8b 43 16          	mov    0x16(%ebx),%ax
    2e35:	66 85 c0             	test   %ax,%ax
    2e38:	0f 84 b2 02 00 00    	je     30f0 <fat_unmounted+0x360>
    2e3e:	89 c7                	mov    %eax,%edi
    2e40:	81 e7 ff ff 00 00    	and    $0xffff,%edi
    2e46:	66 8b 43 11          	mov    0x11(%ebx),%ax
    2e4a:	66 8b 4b 0b          	mov    0xb(%ebx),%cx
    2e4e:	25 ff ff 00 00       	and    $0xffff,%eax
    2e53:	81 e1 ff ff 00 00    	and    $0xffff,%ecx
    2e59:	c1 e0 05             	shl    $0x5,%eax
    2e5c:	31 d2                	xor    %edx,%edx
    2e5e:	f7 f1                	div    %ecx
    2e60:	01 f0                	add    %esi,%eax
    2e62:	85 d2                	test   %edx,%edx
    2e64:	0f 95 c2             	setne  %dl
    2e67:	81 e2 ff 00 00 00    	and    $0xff,%edx
    2e6d:	31 c9                	xor    %ecx,%ecx
    2e6f:	01 d0                	add    %edx,%eax
    2e71:	8b 55 d0             	mov    -0x30(%ebp),%edx
    2e74:	29 c2                	sub    %eax,%edx
    2e76:	8a 4b 0d             	mov    0xd(%ebx),%cl
    2e79:	89 d0                	mov    %edx,%eax
    2e7b:	8b 55 cc             	mov    -0x34(%ebp),%edx
    2e7e:	0f af d7             	imul   %edi,%edx
    2e81:	29 d0                	sub    %edx,%eax
    2e83:	31 d2                	xor    %edx,%edx
    2e85:	f7 f1                	div    %ecx
    2e87:	8d 55 e4             	lea    -0x1c(%ebp),%edx
    2e8a:	3d f4 ff 00 00       	cmp    $0xfff4,%eax
    2e8f:	89 55 d0             	mov    %edx,-0x30(%ebp)
    2e92:	0f 87 6b 02 00 00    	ja     3103 <fat_unmounted+0x373>
    2e98:	8b 45 d4             	mov    -0x2c(%ebp),%eax
    2e9b:	85 c0                	test   %eax,%eax
    2e9d:	0f 84 06 04 00 00    	je     32a9 <fat_unmounted+0x519>
    2ea3:	8b 55 d4             	mov    -0x2c(%ebp),%edx
    2ea6:	8b 5a 10             	mov    0x10(%edx),%ebx
    2ea9:	8d 73 04             	lea    0x4(%ebx),%esi
    2eac:	89 34 24             	mov    %esi,(%esp)
    2eaf:	e8 7c 20 01 00       	call   14f30 <fibril_mutex_lock>
    2eb4:	8b 43 34             	mov    0x34(%ebx),%eax
    2eb7:	48                   	dec    %eax
    2eb8:	89 43 34             	mov    %eax,0x34(%ebx)
    2ebb:	85 c0                	test   %eax,%eax
    2ebd:	75 3e                	jne    2efd <fat_unmounted+0x16d>
    2ebf:	8b 43 18             	mov    0x18(%ebx),%eax
    2ec2:	85 c0                	test   %eax,%eax
    2ec4:	0f 84 c0 03 00 00    	je     328a <fat_unmounted+0x4fa>
    2eca:	c7 04 24 c0 d6 02 00 	movl   $0x2d6c0,(%esp)
    2ed1:	e8 5a 20 01 00       	call   14f30 <fibril_mutex_lock>
    2ed6:	8b 15 d0 d6 02 00    	mov    0x2d6d0,%edx
    2edc:	8d 43 20             	lea    0x20(%ebx),%eax
    2edf:	c7 43 24 d0 d6 02 00 	movl   $0x2d6d0,0x24(%ebx)
    2ee6:	89 53 20             	mov    %edx,0x20(%ebx)
    2ee9:	89 42 04             	mov    %eax,0x4(%edx)
    2eec:	c7 04 24 c0 d6 02 00 	movl   $0x2d6c0,(%esp)
    2ef3:	a3 d0 d6 02 00       	mov    %eax,0x2d6d0
    2ef8:	e8 53 21 01 00       	call   15050 <fibril_mutex_unlock>
    2efd:	89 34 24             	mov    %esi,(%esp)
    2f00:	e8 4b 21 01 00       	call   15050 <fibril_mutex_unlock>
    2f05:	8b 45 d4             	mov    -0x2c(%ebp),%eax
    2f08:	85 c0                	test   %eax,%eax
    2f0a:	0f 84 73 03 00 00    	je     3283 <fat_unmounted+0x4f3>
    2f10:	8b 45 d4             	mov    -0x2c(%ebp),%eax
    2f13:	8b 58 10             	mov    0x10(%eax),%ebx
    2f16:	8d 73 04             	lea    0x4(%ebx),%esi
    2f19:	89 34 24             	mov    %esi,(%esp)
    2f1c:	e8 0f 20 01 00       	call   14f30 <fibril_mutex_lock>
    2f21:	8b 43 34             	mov    0x34(%ebx),%eax
    2f24:	48                   	dec    %eax
    2f25:	89 43 34             	mov    %eax,0x34(%ebx)
    2f28:	85 c0                	test   %eax,%eax
    2f2a:	75 3e                	jne    2f6a <fat_unmounted+0x1da>
    2f2c:	8b 7b 18             	mov    0x18(%ebx),%edi
    2f2f:	85 ff                	test   %edi,%edi
    2f31:	0f 84 2d 03 00 00    	je     3264 <fat_unmounted+0x4d4>
    2f37:	c7 04 24 c0 d6 02 00 	movl   $0x2d6c0,(%esp)
    2f3e:	e8 ed 1f 01 00       	call   14f30 <fibril_mutex_lock>
    2f43:	8b 15 d0 d6 02 00    	mov    0x2d6d0,%edx
    2f49:	8d 43 20             	lea    0x20(%ebx),%eax
    2f4c:	c7 43 24 d0 d6 02 00 	movl   $0x2d6d0,0x24(%ebx)
    2f53:	89 53 20             	mov    %edx,0x20(%ebx)
    2f56:	89 42 04             	mov    %eax,0x4(%edx)
    2f59:	c7 04 24 c0 d6 02 00 	movl   $0x2d6c0,(%esp)
    2f60:	a3 d0 d6 02 00       	mov    %eax,0x2d6d0
    2f65:	e8 e6 20 01 00       	call   15050 <fibril_mutex_unlock>
    2f6a:	89 34 24             	mov    %esi,(%esp)
    2f6d:	e8 de 20 01 00       	call   15050 <fibril_mutex_unlock>
    2f72:	8d b6 00 00 00 00    	lea    0x0(%esi),%esi
    2f78:	c7 04 24 c0 d6 02 00 	movl   $0x2d6c0,(%esp)
    2f7f:	e8 ac 1f 01 00       	call   14f30 <fibril_mutex_lock>
    2f84:	8b 1d d4 d6 02 00    	mov    0x2d6d4,%ebx
    2f8a:	81 fb d0 d6 02 00    	cmp    $0x2d6d0,%ebx
    2f90:	74 59                	je     2feb <fat_unmounted+0x25b>
    2f92:	8d 73 e4             	lea    -0x1c(%ebx),%esi
    2f95:	8d 7b e0             	lea    -0x20(%ebx),%edi
    2f98:	89 34 24             	mov    %esi,(%esp)
    2f9b:	e8 60 20 01 00       	call   15000 <fibril_mutex_trylock>
    2fa0:	84 c0                	test   %al,%al
    2fa2:	0f 84 30 01 00 00    	je     30d8 <fat_unmounted+0x348>
    2fa8:	8b 47 18             	mov    0x18(%edi),%eax
    2fab:	83 c0 10             	add    $0x10,%eax
    2fae:	89 04 24             	mov    %eax,(%esp)
    2fb1:	e8 4a 20 01 00       	call   15000 <fibril_mutex_trylock>
    2fb6:	84 c0                	test   %al,%al
    2fb8:	0f 84 12 01 00 00    	je     30d0 <fat_unmounted+0x340>
    2fbe:	8b 47 18             	mov    0x18(%edi),%eax
    2fc1:	8b 55 08             	mov    0x8(%ebp),%edx
    2fc4:	3b 50 20             	cmp    0x20(%eax),%edx
    2fc7:	0f 84 83 00 00 00    	je     3050 <fat_unmounted+0x2c0>
    2fcd:	83 c0 10             	add    $0x10,%eax
    2fd0:	89 04 24             	mov    %eax,(%esp)
    2fd3:	e8 78 20 01 00       	call   15050 <fibril_mutex_unlock>
    2fd8:	89 34 24             	mov    %esi,(%esp)
    2fdb:	e8 70 20 01 00       	call   15050 <fibril_mutex_unlock>
    2fe0:	8b 5b 04             	mov    0x4(%ebx),%ebx
    2fe3:	81 fb d0 d6 02 00    	cmp    $0x2d6d0,%ebx
    2fe9:	75 a7                	jne    2f92 <fat_unmounted+0x202>
    2feb:	c7 04 24 c0 d6 02 00 	movl   $0x2d6c0,(%esp)
    2ff2:	e8 59 20 01 00       	call   15050 <fibril_mutex_unlock>
    2ff7:	8b 45 08             	mov    0x8(%ebp),%eax
    2ffa:	31 ff                	xor    %edi,%edi
    2ffc:	89 04 24             	mov    %eax,(%esp)
    2fff:	e8 3c 23 00 00       	call   5340 <fat_idx_fini_by_service_id>
    3004:	8b 55 08             	mov    0x8(%ebp),%edx
    3007:	89 14 24             	mov    %edx,(%esp)
    300a:	e8 71 85 00 00       	call   b580 <block_cache_fini>
    300f:	8b 45 08             	mov    0x8(%ebp),%eax
    3012:	89 04 24             	mov    %eax,(%esp)
    3015:	e8 26 87 00 00       	call   b740 <block_fini>
    301a:	8b 45 d0             	mov    -0x30(%ebp),%eax
    301d:	8b 55 08             	mov    0x8(%ebp),%edx
    3020:	89 44 24 04          	mov    %eax,0x4(%esp)
    3024:	89 14 24             	mov    %edx,(%esp)
    3027:	e8 f4 ac 00 00       	call   dd20 <fs_instance_get>
    302c:	85 c0                	test   %eax,%eax
    302e:	75 16                	jne    3046 <fat_unmounted+0x2b6>
    3030:	8b 45 08             	mov    0x8(%ebp),%eax
    3033:	89 04 24             	mov    %eax,(%esp)
    3036:	e8 55 ad 00 00       	call   dd90 <fs_instance_destroy>
    303b:	8b 45 e4             	mov    -0x1c(%ebp),%eax
    303e:	89 04 24             	mov    %eax,(%esp)
    3041:	e8 0a ae 01 00       	call   1de50 <free>
    3046:	83 c4 4c             	add    $0x4c,%esp
    3049:	89 f8                	mov    %edi,%eax
    304b:	5b                   	pop    %ebx
    304c:	5e                   	pop    %esi
    304d:	5f                   	pop    %edi
    304e:	5d                   	pop    %ebp
    304f:	c3                   	ret    
    3050:	8b 4f 20             	mov    0x20(%edi),%ecx
    3053:	85 c9                	test   %ecx,%ecx
    3055:	74 0f                	je     3066 <fat_unmounted+0x2d6>
    3057:	8b 47 24             	mov    0x24(%edi),%eax
    305a:	85 c0                	test   %eax,%eax
    305c:	74 08                	je     3066 <fat_unmounted+0x2d6>
    305e:	89 08                	mov    %ecx,(%eax)
    3060:	8b 4f 20             	mov    0x20(%edi),%ecx
    3063:	89 41 04             	mov    %eax,0x4(%ecx)
    3066:	c7 47 20 00 00 00 00 	movl   $0x0,0x20(%edi)
    306d:	c7 47 24 00 00 00 00 	movl   $0x0,0x24(%edi)
    3074:	c7 04 24 c0 d6 02 00 	movl   $0x2d6c0,(%esp)
    307b:	e8 d0 1f 01 00       	call   15050 <fibril_mutex_unlock>
    3080:	8b 47 18             	mov    0x18(%edi),%eax
    3083:	83 c0 10             	add    $0x10,%eax
    3086:	89 04 24             	mov    %eax,(%esp)
    3089:	e8 c2 1f 01 00       	call   15050 <fibril_mutex_unlock>
    308e:	89 34 24             	mov    %esi,(%esp)
    3091:	e8 ba 1f 01 00       	call   15050 <fibril_mutex_unlock>
    3096:	80 7f 38 00          	cmpb   $0x0,0x38(%edi)
    309a:	74 0f                	je     30ab <fat_unmounted+0x31b>
    309c:	89 f8                	mov    %edi,%eax
    309e:	e8 4d e2 ff ff       	call   12f0 <fat_node_sync>
    30a3:	85 c0                	test   %eax,%eax
    30a5:	0f 85 4c ff ff ff    	jne    2ff7 <fat_unmounted+0x267>
    30ab:	8b 47 18             	mov    0x18(%edi),%eax
    30ae:	c7 40 30 00 00 00 00 	movl   $0x0,0x30(%eax)
    30b5:	8b 07                	mov    (%edi),%eax
    30b7:	89 04 24             	mov    %eax,(%esp)
    30ba:	e8 91 ad 01 00       	call   1de50 <free>
    30bf:	89 3c 24             	mov    %edi,(%esp)
    30c2:	e8 89 ad 01 00       	call   1de50 <free>
    30c7:	e9 ac fe ff ff       	jmp    2f78 <fat_unmounted+0x1e8>
    30cc:	8d 74 26 00          	lea    0x0(%esi,%eiz,1),%esi
    30d0:	89 34 24             	mov    %esi,(%esp)
    30d3:	e8 78 1f 01 00       	call   15050 <fibril_mutex_unlock>
    30d8:	c7 04 24 c0 d6 02 00 	movl   $0x2d6c0,(%esp)
    30df:	e8 6c 1f 01 00       	call   15050 <fibril_mutex_unlock>
    30e4:	e9 8f fe ff ff       	jmp    2f78 <fat_unmounted+0x1e8>
    30e9:	8d b4 26 00 00 00 00 	lea    0x0(%esi,%eiz,1),%esi
    30f0:	8b 7b 24             	mov    0x24(%ebx),%edi
    30f3:	e9 4e fd ff ff       	jmp    2e46 <fat_unmounted+0xb6>
    30f8:	8b 53 20             	mov    0x20(%ebx),%edx
    30fb:	89 55 d0             	mov    %edx,-0x30(%ebp)
    30fe:	e9 1c fd ff ff       	jmp    2e1f <fat_unmounted+0x8f>
    3103:	8b 45 08             	mov    0x8(%ebp),%eax
    3106:	89 04 24             	mov    %eax,(%esp)
    3109:	e8 c2 82 00 00       	call   b3d0 <block_bb_get>
    310e:	89 c1                	mov    %eax,%ecx
    3110:	66 8b 40 13          	mov    0x13(%eax),%ax
    3114:	66 85 c0             	test   %ax,%ax
    3117:	0f 84 9e 01 00 00    	je     32bb <fat_unmounted+0x52b>
    311d:	25 ff ff 00 00       	and    $0xffff,%eax
    3122:	89 45 d0             	mov    %eax,-0x30(%ebp)
    3125:	8a 41 10             	mov    0x10(%ecx),%al
    3128:	66 8b 71 0e          	mov    0xe(%ecx),%si
    312c:	25 ff 00 00 00       	and    $0xff,%eax
    3131:	81 e6 ff ff 00 00    	and    $0xffff,%esi
    3137:	89 c7                	mov    %eax,%edi
    3139:	66 8b 41 16          	mov    0x16(%ecx),%ax
    313d:	66 85 c0             	test   %ax,%ax
    3140:	0f 84 6a 01 00 00    	je     32b0 <fat_unmounted+0x520>
    3146:	25 ff ff 00 00       	and    $0xffff,%eax
    314b:	89 45 cc             	mov    %eax,-0x34(%ebp)
    314e:	66 8b 41 11          	mov    0x11(%ecx),%ax
    3152:	66 8b 59 0b          	mov    0xb(%ecx),%bx
    3156:	25 ff ff 00 00       	and    $0xffff,%eax
    315b:	81 e3 ff ff 00 00    	and    $0xffff,%ebx
    3161:	c1 e0 05             	shl    $0x5,%eax
    3164:	31 d2                	xor    %edx,%edx
    3166:	f7 f3                	div    %ebx
    3168:	01 f0                	add    %esi,%eax
    316a:	85 d2                	test   %edx,%edx
    316c:	0f 95 c2             	setne  %dl
    316f:	81 e2 ff 00 00 00    	and    $0xff,%edx
    3175:	31 db                	xor    %ebx,%ebx
    3177:	01 d0                	add    %edx,%eax
    3179:	8b 55 d0             	mov    -0x30(%ebp),%edx
    317c:	29 c2                	sub    %eax,%edx
    317e:	8a 59 0d             	mov    0xd(%ecx),%bl
    3181:	89 d0                	mov    %edx,%eax
    3183:	8b 55 cc             	mov    -0x34(%ebp),%edx
    3186:	0f af d7             	imul   %edi,%edx
    3189:	29 d0                	sub    %edx,%eax
    318b:	31 d2                	xor    %edx,%edx
    318d:	f7 f3                	div    %ebx
    318f:	3d f4 ff 00 00       	cmp    $0xfff4,%eax
    3194:	0f 86 c4 01 00 00    	jbe    335e <fat_unmounted+0x5ce>
    319a:	c7 44 24 10 00 00 00 	movl   $0x0,0x10(%esp)
    31a1:	00 
    31a2:	66 8b 41 30          	mov    0x30(%ecx),%ax
    31a6:	c7 44 24 0c 00 00 00 	movl   $0x0,0xc(%esp)
    31ad:	00 
    31ae:	25 ff ff 00 00       	and    $0xffff,%eax
    31b3:	89 44 24 08          	mov    %eax,0x8(%esp)
    31b7:	8b 45 08             	mov    0x8(%ebp),%eax
    31ba:	89 44 24 04          	mov    %eax,0x4(%esp)
    31be:	8d 45 e4             	lea    -0x1c(%ebp),%eax
    31c1:	89 04 24             	mov    %eax,(%esp)
    31c4:	89 45 d0             	mov    %eax,-0x30(%ebp)
    31c7:	e8 24 89 00 00       	call   baf0 <block_get>
    31cc:	85 c0                	test   %eax,%eax
    31ce:	0f 85 c4 fc ff ff    	jne    2e98 <fat_unmounted+0x108>
    31d4:	8b 45 e4             	mov    -0x1c(%ebp),%eax
    31d7:	8b 58 54             	mov    0x54(%eax),%ebx
    31da:	c7 44 24 08 04 00 00 	movl   $0x4,0x8(%esp)
    31e1:	00 
    31e2:	c7 44 24 04 44 aa 02 	movl   $0x2aa44,0x4(%esp)
    31e9:	00 
    31ea:	89 1c 24             	mov    %ebx,(%esp)
    31ed:	e8 2e e2 00 00       	call   11420 <bcmp>
    31f2:	85 c0                	test   %eax,%eax
    31f4:	0f 85 30 01 00 00    	jne    332a <fat_unmounted+0x59a>
    31fa:	8d 83 e4 01 00 00    	lea    0x1e4(%ebx),%eax
    3200:	c7 44 24 08 04 00 00 	movl   $0x4,0x8(%esp)
    3207:	00 
    3208:	c7 44 24 04 49 aa 02 	movl   $0x2aa49,0x4(%esp)
    320f:	00 
    3210:	89 04 24             	mov    %eax,(%esp)
    3213:	e8 08 e2 00 00       	call   11420 <bcmp>
    3218:	85 c0                	test   %eax,%eax
    321a:	0f 85 0a 01 00 00    	jne    332a <fat_unmounted+0x59a>
    3220:	8d 83 fc 01 00 00    	lea    0x1fc(%ebx),%eax
    3226:	c7 44 24 08 04 00 00 	movl   $0x4,0x8(%esp)
    322d:	00 
    322e:	c7 44 24 04 99 aa 02 	movl   $0x2aa99,0x4(%esp)
    3235:	00 
    3236:	89 04 24             	mov    %eax,(%esp)
    3239:	e8 e2 e1 00 00       	call   11420 <bcmp>
    323e:	85 c0                	test   %eax,%eax
    3240:	0f 85 e4 00 00 00    	jne    332a <fat_unmounted+0x59a>
    3246:	8b 45 e4             	mov    -0x1c(%ebp),%eax
    3249:	c7 83 e8 01 00 00 ff 	movl   $0xffffffff,0x1e8(%ebx)
    3250:	ff ff ff 
    3253:	c6 40 14 01          	movb   $0x1,0x14(%eax)
    3257:	89 04 24             	mov    %eax,(%esp)
    325a:	e8 e1 85 00 00       	call   b840 <block_put>
    325f:	e9 34 fc ff ff       	jmp    2e98 <fat_unmounted+0x108>
    3264:	89 34 24             	mov    %esi,(%esp)
    3267:	e8 e4 1d 01 00       	call   15050 <fibril_mutex_unlock>
    326c:	8b 03                	mov    (%ebx),%eax
    326e:	89 04 24             	mov    %eax,(%esp)
    3271:	e8 da ab 01 00       	call   1de50 <free>
    3276:	89 1c 24             	mov    %ebx,(%esp)
    3279:	e8 d2 ab 01 00       	call   1de50 <free>
    327e:	e9 f5 fc ff ff       	jmp    2f78 <fat_unmounted+0x1e8>
    3283:	31 db                	xor    %ebx,%ebx
    3285:	e9 8c fc ff ff       	jmp    2f16 <fat_unmounted+0x186>
    328a:	89 34 24             	mov    %esi,(%esp)
    328d:	e8 be 1d 01 00       	call   15050 <fibril_mutex_unlock>
    3292:	8b 03                	mov    (%ebx),%eax
    3294:	89 04 24             	mov    %eax,(%esp)
    3297:	e8 b4 ab 01 00       	call   1de50 <free>
    329c:	89 1c 24             	mov    %ebx,(%esp)
    329f:	e8 ac ab 01 00       	call   1de50 <free>
    32a4:	e9 5c fc ff ff       	jmp    2f05 <fat_unmounted+0x175>
    32a9:	31 db                	xor    %ebx,%ebx
    32ab:	e9 f9 fb ff ff       	jmp    2ea9 <fat_unmounted+0x119>
    32b0:	8b 51 24             	mov    0x24(%ecx),%edx
    32b3:	89 55 cc             	mov    %edx,-0x34(%ebp)
    32b6:	e9 93 fe ff ff       	jmp    314e <fat_unmounted+0x3be>
    32bb:	8b 51 20             	mov    0x20(%ecx),%edx
    32be:	89 55 d0             	mov    %edx,-0x30(%ebp)
    32c1:	e9 5f fe ff ff       	jmp    3125 <fat_unmounted+0x395>
    32c6:	31 f6                	xor    %esi,%esi
    32c8:	8d 5e 04             	lea    0x4(%esi),%ebx
    32cb:	89 1c 24             	mov    %ebx,(%esp)
    32ce:	e8 5d 1c 01 00       	call   14f30 <fibril_mutex_lock>
    32d3:	8b 46 34             	mov    0x34(%esi),%eax
    32d6:	48                   	dec    %eax
    32d7:	89 46 34             	mov    %eax,0x34(%esi)
    32da:	85 c0                	test   %eax,%eax
    32dc:	75 3a                	jne    3318 <fat_unmounted+0x588>
    32de:	8b 46 18             	mov    0x18(%esi),%eax
    32e1:	85 c0                	test   %eax,%eax
    32e3:	74 55                	je     333a <fat_unmounted+0x5aa>
    32e5:	c7 04 24 c0 d6 02 00 	movl   $0x2d6c0,(%esp)
    32ec:	e8 3f 1c 01 00       	call   14f30 <fibril_mutex_lock>
    32f1:	8b 15 d0 d6 02 00    	mov    0x2d6d0,%edx
    32f7:	8d 46 20             	lea    0x20(%esi),%eax
    32fa:	c7 46 24 d0 d6 02 00 	movl   $0x2d6d0,0x24(%esi)
    3301:	89 56 20             	mov    %edx,0x20(%esi)
    3304:	89 42 04             	mov    %eax,0x4(%edx)
    3307:	c7 04 24 c0 d6 02 00 	movl   $0x2d6c0,(%esp)
    330e:	a3 d0 d6 02 00       	mov    %eax,0x2d6d0
    3313:	e8 38 1d 01 00       	call   15050 <fibril_mutex_unlock>
    3318:	89 1c 24             	mov    %ebx,(%esp)
    331b:	bf f1 ff ff ff       	mov    $0xfffffff1,%edi
    3320:	e8 2b 1d 01 00       	call   15050 <fibril_mutex_unlock>
    3325:	e9 1c fd ff ff       	jmp    3046 <fat_unmounted+0x2b6>
    332a:	8b 45 e4             	mov    -0x1c(%ebp),%eax
    332d:	89 04 24             	mov    %eax,(%esp)
    3330:	e8 0b 85 00 00       	call   b840 <block_put>
    3335:	e9 5e fb ff ff       	jmp    2e98 <fat_unmounted+0x108>
    333a:	89 1c 24             	mov    %ebx,(%esp)
    333d:	bf f1 ff ff ff       	mov    $0xfffffff1,%edi
    3342:	e8 09 1d 01 00       	call   15050 <fibril_mutex_unlock>
    3347:	8b 06                	mov    (%esi),%eax
    3349:	89 04 24             	mov    %eax,(%esp)
    334c:	e8 ff aa 01 00       	call   1de50 <free>
    3351:	89 34 24             	mov    %esi,(%esp)
    3354:	e8 f7 aa 01 00       	call   1de50 <free>
    3359:	e9 e8 fc ff ff       	jmp    3046 <fat_unmounted+0x2b6>
    335e:	c7 44 24 08 0b 04 00 	movl   $0x40b,0x8(%esp)
    3365:	00 
    3366:	c7 44 24 04 89 a9 02 	movl   $0x2a989,0x4(%esp)
    336d:	00 
    336e:	c7 04 24 33 aa 02 00 	movl   $0x2aa33,(%esp)
    3375:	e8 a6 51 02 00       	call   28520 <assert_abort>
    337a:	8d b6 00 00 00 00    	lea    0x0(%esi),%esi
    3380:	83 3d 34 00 00 00 02 	cmpl   $0x2,0x34
    3387:	0f 85 39 ff ff ff    	jne    32c6 <fat_unmounted+0x536>
    338d:	c7 45 d4 00 00 00 00 	movl   $0x0,-0x2c(%ebp)
    3394:	e9 71 fa ff ff       	jmp    2e0a <fat_unmounted+0x7a>
    3399:	8d b4 26 00 00 00 00 	lea    0x0(%esi,%eiz,1),%esi

000033a0 <fat_sync>:
    33a0:	55                   	push   %ebp
    33a1:	89 e5                	mov    %esp,%ebp
    33a3:	57                   	push   %edi
    33a4:	56                   	push   %esi
    33a5:	53                   	push   %ebx
    33a6:	83 ec 2c             	sub    $0x2c,%esp
    33a9:	8b 45 0c             	mov    0xc(%ebp),%eax
    33ac:	89 44 24 04          	mov    %eax,0x4(%esp)
    33b0:	8b 45 08             	mov    0x8(%ebp),%eax
    33b3:	89 04 24             	mov    %eax,(%esp)
    33b6:	e8 95 1a 00 00       	call   4e50 <fat_idx_get_by_index>
    33bb:	89 c6                	mov    %eax,%esi
    33bd:	85 c0                	test   %eax,%eax
    33bf:	0f 84 9b 00 00 00    	je     3460 <fat_sync+0xc0>
    33c5:	89 c2                	mov    %eax,%edx
    33c7:	8d 45 e4             	lea    -0x1c(%ebp),%eax
    33ca:	e8 91 f1 ff ff       	call   2560 <fat_node_get_core>
    33cf:	83 c6 10             	add    $0x10,%esi
    33d2:	89 c3                	mov    %eax,%ebx
    33d4:	89 34 24             	mov    %esi,(%esp)
    33d7:	e8 74 1c 01 00       	call   15050 <fibril_mutex_unlock>
    33dc:	85 db                	test   %ebx,%ebx
    33de:	75 76                	jne    3456 <fat_sync+0xb6>
    33e0:	8b 45 e4             	mov    -0x1c(%ebp),%eax
    33e3:	85 c0                	test   %eax,%eax
    33e5:	74 79                	je     3460 <fat_sync+0xc0>
    33e7:	8b 30                	mov    (%eax),%esi
    33e9:	85 f6                	test   %esi,%esi
    33eb:	74 73                	je     3460 <fat_sync+0xc0>
    33ed:	8b 46 10             	mov    0x10(%esi),%eax
    33f0:	c6 40 38 01          	movb   $0x1,0x38(%eax)
    33f4:	e8 f7 de ff ff       	call   12f0 <fat_node_sync>
    33f9:	8b 76 10             	mov    0x10(%esi),%esi
    33fc:	8d 7e 04             	lea    0x4(%esi),%edi
    33ff:	89 c3                	mov    %eax,%ebx
    3401:	89 3c 24             	mov    %edi,(%esp)
    3404:	e8 27 1b 01 00       	call   14f30 <fibril_mutex_lock>
    3409:	8b 46 34             	mov    0x34(%esi),%eax
    340c:	48                   	dec    %eax
    340d:	89 46 34             	mov    %eax,0x34(%esi)
    3410:	85 c0                	test   %eax,%eax
    3412:	75 3a                	jne    344e <fat_sync+0xae>
    3414:	8b 46 18             	mov    0x18(%esi),%eax
    3417:	85 c0                	test   %eax,%eax
    3419:	74 55                	je     3470 <fat_sync+0xd0>
    341b:	c7 04 24 c0 d6 02 00 	movl   $0x2d6c0,(%esp)
    3422:	e8 09 1b 01 00       	call   14f30 <fibril_mutex_lock>
    3427:	8b 15 d0 d6 02 00    	mov    0x2d6d0,%edx
    342d:	8d 46 20             	lea    0x20(%esi),%eax
    3430:	c7 46 24 d0 d6 02 00 	movl   $0x2d6d0,0x24(%esi)
    3437:	89 56 20             	mov    %edx,0x20(%esi)
    343a:	89 42 04             	mov    %eax,0x4(%edx)
    343d:	c7 04 24 c0 d6 02 00 	movl   $0x2d6c0,(%esp)
    3444:	a3 d0 d6 02 00       	mov    %eax,0x2d6d0
    3449:	e8 02 1c 01 00       	call   15050 <fibril_mutex_unlock>
    344e:	89 3c 24             	mov    %edi,(%esp)
    3451:	e8 fa 1b 01 00       	call   15050 <fibril_mutex_unlock>
    3456:	83 c4 2c             	add    $0x2c,%esp
    3459:	89 d8                	mov    %ebx,%eax
    345b:	5b                   	pop    %ebx
    345c:	5e                   	pop    %esi
    345d:	5f                   	pop    %edi
    345e:	5d                   	pop    %ebp
    345f:	c3                   	ret    
    3460:	83 c4 2c             	add    $0x2c,%esp
    3463:	83 cb ff             	or     $0xffffffff,%ebx
    3466:	89 d8                	mov    %ebx,%eax
    3468:	5b                   	pop    %ebx
    3469:	5e                   	pop    %esi
    346a:	5f                   	pop    %edi
    346b:	5d                   	pop    %ebp
    346c:	c3                   	ret    
    346d:	8d 76 00             	lea    0x0(%esi),%esi
    3470:	89 3c 24             	mov    %edi,(%esp)
    3473:	e8 d8 1b 01 00       	call   15050 <fibril_mutex_unlock>
    3478:	8b 06                	mov    (%esi),%eax
    347a:	89 04 24             	mov    %eax,(%esp)
    347d:	e8 ce a9 01 00       	call   1de50 <free>
    3482:	89 34 24             	mov    %esi,(%esp)
    3485:	e8 c6 a9 01 00       	call   1de50 <free>
    348a:	eb ca                	jmp    3456 <fat_sync+0xb6>
    348c:	8d 74 26 00          	lea    0x0(%esi,%eiz,1),%esi

00003490 <fat_destroy>:
    3490:	55                   	push   %ebp
    3491:	89 e5                	mov    %esp,%ebp
    3493:	53                   	push   %ebx
    3494:	83 ec 34             	sub    $0x34,%esp
    3497:	8b 45 0c             	mov    0xc(%ebp),%eax
    349a:	89 44 24 04          	mov    %eax,0x4(%esp)
    349e:	8b 45 08             	mov    0x8(%ebp),%eax
    34a1:	89 04 24             	mov    %eax,(%esp)
    34a4:	e8 a7 19 00 00       	call   4e50 <fat_idx_get_by_index>
    34a9:	89 c3                	mov    %eax,%ebx
    34ab:	85 c0                	test   %eax,%eax
    34ad:	74 49                	je     34f8 <fat_destroy+0x68>
    34af:	89 c2                	mov    %eax,%edx
    34b1:	8d 45 f4             	lea    -0xc(%ebp),%eax
    34b4:	e8 a7 f0 ff ff       	call   2560 <fat_node_get_core>
    34b9:	83 c3 10             	add    $0x10,%ebx
    34bc:	89 1c 24             	mov    %ebx,(%esp)
    34bf:	89 45 e4             	mov    %eax,-0x1c(%ebp)
    34c2:	e8 89 1b 01 00       	call   15050 <fibril_mutex_unlock>
    34c7:	8b 45 e4             	mov    -0x1c(%ebp),%eax
    34ca:	85 c0                	test   %eax,%eax
    34cc:	75 1e                	jne    34ec <fat_destroy+0x5c>
    34ce:	8b 45 f4             	mov    -0xc(%ebp),%eax
    34d1:	85 c0                	test   %eax,%eax
    34d3:	74 23                	je     34f8 <fat_destroy+0x68>
    34d5:	8b 00                	mov    (%eax),%eax
    34d7:	85 c0                	test   %eax,%eax
    34d9:	74 1d                	je     34f8 <fat_destroy+0x68>
    34db:	8b 50 10             	mov    0x10(%eax),%edx
    34de:	83 7a 34 02          	cmpl   $0x2,0x34(%edx)
    34e2:	75 1d                	jne    3501 <fat_destroy+0x71>
    34e4:	89 04 24             	mov    %eax,(%esp)
    34e7:	e8 74 ed ff ff       	call   2260 <fat_destroy_node>
    34ec:	83 c4 34             	add    $0x34,%esp
    34ef:	5b                   	pop    %ebx
    34f0:	5d                   	pop    %ebp
    34f1:	c3                   	ret    
    34f2:	8d b6 00 00 00 00    	lea    0x0(%esi),%esi
    34f8:	83 c4 34             	add    $0x34,%esp
    34fb:	83 c8 ff             	or     $0xffffffff,%eax
    34fe:	5b                   	pop    %ebx
    34ff:	5d                   	pop    %ebp
    3500:	c3                   	ret    
    3501:	c7 44 24 08 a1 05 00 	movl   $0x5a1,0x8(%esp)
    3508:	00 
    3509:	c7 44 24 04 89 a9 02 	movl   $0x2a989,0x4(%esp)
    3510:	00 
    3511:	c7 04 24 4e aa 02 00 	movl   $0x2aa4e,(%esp)
    3518:	e8 03 50 02 00       	call   28520 <assert_abort>
    351d:	8d 76 00             	lea    0x0(%esi),%esi

00003520 <fat_read>:
    3520:	55                   	push   %ebp
    3521:	89 e5                	mov    %esp,%ebp
    3523:	57                   	push   %edi
    3524:	56                   	push   %esi
    3525:	53                   	push   %ebx
    3526:	81 ec 8c 01 00 00    	sub    $0x18c,%esp
    352c:	8b 45 10             	mov    0x10(%ebp),%eax
    352f:	8b 7d 08             	mov    0x8(%ebp),%edi
    3532:	89 85 a8 fe ff ff    	mov    %eax,-0x158(%ebp)
    3538:	8b 45 0c             	mov    0xc(%ebp),%eax
    353b:	8b 55 14             	mov    0x14(%ebp),%edx
    353e:	89 44 24 04          	mov    %eax,0x4(%esp)
    3542:	89 3c 24             	mov    %edi,(%esp)
    3545:	89 95 ac fe ff ff    	mov    %edx,-0x154(%ebp)
    354b:	e8 00 19 00 00       	call   4e50 <fat_idx_get_by_index>
    3550:	89 c6                	mov    %eax,%esi
    3552:	85 c0                	test   %eax,%eax
    3554:	0f 84 b6 01 00 00    	je     3710 <fat_read+0x1f0>
    355a:	89 c2                	mov    %eax,%edx
    355c:	8d 85 c0 fe ff ff    	lea    -0x140(%ebp),%eax
    3562:	e8 f9 ef ff ff       	call   2560 <fat_node_get_core>
    3567:	83 c6 10             	add    $0x10,%esi
    356a:	89 c3                	mov    %eax,%ebx
    356c:	89 34 24             	mov    %esi,(%esp)
    356f:	e8 dc 1a 01 00       	call   15050 <fibril_mutex_unlock>
    3574:	85 db                	test   %ebx,%ebx
    3576:	0f 85 85 01 00 00    	jne    3701 <fat_read+0x1e1>
    357c:	8b 85 c0 fe ff ff    	mov    -0x140(%ebp),%eax
    3582:	85 c0                	test   %eax,%eax
    3584:	0f 84 86 01 00 00    	je     3710 <fat_read+0x1f0>
    358a:	8b 00                	mov    (%eax),%eax
    358c:	89 85 b4 fe ff ff    	mov    %eax,-0x14c(%ebp)
    3592:	85 c0                	test   %eax,%eax
    3594:	0f 84 76 01 00 00    	je     3710 <fat_read+0x1f0>
    359a:	8b 70 10             	mov    0x10(%eax),%esi
    359d:	8d 85 bc fe ff ff    	lea    -0x144(%ebp),%eax
    35a3:	89 44 24 04          	mov    %eax,0x4(%esp)
    35a7:	8d 85 b8 fe ff ff    	lea    -0x148(%ebp),%eax
    35ad:	89 04 24             	mov    %eax,(%esp)
    35b0:	e8 3b e8 01 00       	call   21df0 <async_data_read_receive>
    35b5:	84 c0                	test   %al,%al
    35b7:	0f 84 e3 05 00 00    	je     3ba0 <fat_read+0x680>
    35bd:	89 3c 24             	mov    %edi,(%esp)
    35c0:	e8 0b 7e 00 00       	call   b3d0 <block_bb_get>
    35c5:	89 c7                	mov    %eax,%edi
    35c7:	8b 46 14             	mov    0x14(%esi),%eax
    35ca:	83 f8 02             	cmp    $0x2,%eax
    35cd:	0f 84 7d 01 00 00    	je     3750 <fat_read+0x230>
    35d3:	48                   	dec    %eax
    35d4:	0f 85 af 06 00 00    	jne    3c89 <fat_read+0x769>
    35da:	66 8b 7f 0b          	mov    0xb(%edi),%di
    35de:	8b 46 28             	mov    0x28(%esi),%eax
    35e1:	89 f9                	mov    %edi,%ecx
    35e3:	8b 56 2c             	mov    0x2c(%esi),%edx
    35e6:	81 e1 ff ff 00 00    	and    $0xffff,%ecx
    35ec:	c7 44 24 0c 00 00 00 	movl   $0x0,0xc(%esp)
    35f3:	00 
    35f4:	89 4c 24 08          	mov    %ecx,0x8(%esp)
    35f8:	89 04 24             	mov    %eax,(%esp)
    35fb:	89 54 24 04          	mov    %edx,0x4(%esp)
    35ff:	e8 8c 6e 02 00       	call   2a490 <__umoddi3>
    3604:	09 c2                	or     %eax,%edx
    3606:	0f 85 99 06 00 00    	jne    3ca5 <fat_read+0x785>
    360c:	83 e7 1f             	and    $0x1f,%edi
    360f:	0f 85 ac 06 00 00    	jne    3cc1 <fat_read+0x7a1>
    3615:	8d bd c4 fe ff ff    	lea    -0x13c(%ebp),%edi
    361b:	89 34 24             	mov    %esi,(%esp)
    361e:	89 7c 24 04          	mov    %edi,0x4(%esp)
    3622:	e8 b9 2f 00 00       	call   65e0 <fat_directory_open>
    3627:	89 c6                	mov    %eax,%esi
    3629:	85 c0                	test   %eax,%eax
    362b:	75 5b                	jne    3688 <fat_read+0x168>
    362d:	8b 85 a8 fe ff ff    	mov    -0x158(%ebp),%eax
    3633:	8b 95 ac fe ff ff    	mov    -0x154(%ebp),%edx
    3639:	89 44 24 04          	mov    %eax,0x4(%esp)
    363d:	89 54 24 08          	mov    %edx,0x8(%esp)
    3641:	89 3c 24             	mov    %edi,(%esp)
    3644:	e8 b7 32 00 00       	call   6900 <fat_directory_seek>
    3649:	89 c6                	mov    %eax,%esi
    364b:	85 c0                	test   %eax,%eax
    364d:	0f 85 cd 00 00 00    	jne    3720 <fat_read+0x200>
    3653:	8d 95 c0 fe ff ff    	lea    -0x140(%ebp),%edx
    3659:	8d 8d e4 fe ff ff    	lea    -0x11c(%ebp),%ecx
    365f:	89 54 24 08          	mov    %edx,0x8(%esp)
    3663:	89 4c 24 04          	mov    %ecx,0x4(%esp)
    3667:	89 3c 24             	mov    %edi,(%esp)
    366a:	e8 91 34 00 00       	call   6b00 <fat_directory_read>
    366f:	89 c6                	mov    %eax,%esi
    3671:	85 c0                	test   %eax,%eax
    3673:	0f 84 bf 04 00 00    	je     3b38 <fat_read+0x618>
    3679:	83 f8 ff             	cmp    $0xffffffff,%eax
    367c:	0f 84 15 04 00 00    	je     3a97 <fat_read+0x577>
    3682:	8d b6 00 00 00 00    	lea    0x0(%esi),%esi
    3688:	8b 8d b4 fe ff ff    	mov    -0x14c(%ebp),%ecx
    368e:	8b 59 10             	mov    0x10(%ecx),%ebx
    3691:	8d 7b 04             	lea    0x4(%ebx),%edi
    3694:	89 3c 24             	mov    %edi,(%esp)
    3697:	e8 94 18 01 00       	call   14f30 <fibril_mutex_lock>
    369c:	8b 43 34             	mov    0x34(%ebx),%eax
    369f:	48                   	dec    %eax
    36a0:	89 43 34             	mov    %eax,0x34(%ebx)
    36a3:	85 c0                	test   %eax,%eax
    36a5:	75 3e                	jne    36e5 <fat_read+0x1c5>
    36a7:	8b 4b 18             	mov    0x18(%ebx),%ecx
    36aa:	85 c9                	test   %ecx,%ecx
    36ac:	0f 84 7e 00 00 00    	je     3730 <fat_read+0x210>
    36b2:	c7 04 24 c0 d6 02 00 	movl   $0x2d6c0,(%esp)
    36b9:	e8 72 18 01 00       	call   14f30 <fibril_mutex_lock>
    36be:	c7 43 24 d0 d6 02 00 	movl   $0x2d6d0,0x24(%ebx)
    36c5:	8b 15 d0 d6 02 00    	mov    0x2d6d0,%edx
    36cb:	8d 43 20             	lea    0x20(%ebx),%eax
    36ce:	89 53 20             	mov    %edx,0x20(%ebx)
    36d1:	89 42 04             	mov    %eax,0x4(%edx)
    36d4:	c7 04 24 c0 d6 02 00 	movl   $0x2d6c0,(%esp)
    36db:	a3 d0 d6 02 00       	mov    %eax,0x2d6d0
    36e0:	e8 6b 19 01 00       	call   15050 <fibril_mutex_unlock>
    36e5:	89 3c 24             	mov    %edi,(%esp)
    36e8:	e8 63 19 01 00       	call   15050 <fibril_mutex_unlock>
    36ed:	8b 85 b8 fe ff ff    	mov    -0x148(%ebp),%eax
    36f3:	89 74 24 04          	mov    %esi,0x4(%esp)
    36f7:	89 04 24             	mov    %eax,(%esp)
    36fa:	89 f3                	mov    %esi,%ebx
    36fc:	e8 7f d1 01 00       	call   20880 <async_answer_0>
    3701:	81 c4 8c 01 00 00    	add    $0x18c,%esp
    3707:	89 d8                	mov    %ebx,%eax
    3709:	5b                   	pop    %ebx
    370a:	5e                   	pop    %esi
    370b:	5f                   	pop    %edi
    370c:	5d                   	pop    %ebp
    370d:	c3                   	ret    
    370e:	66 90                	xchg   %ax,%ax
    3710:	81 c4 8c 01 00 00    	add    $0x18c,%esp
    3716:	83 cb ff             	or     $0xffffffff,%ebx
    3719:	89 d8                	mov    %ebx,%eax
    371b:	5b                   	pop    %ebx
    371c:	5e                   	pop    %esi
    371d:	5f                   	pop    %edi
    371e:	5d                   	pop    %ebp
    371f:	c3                   	ret    
    3720:	89 3c 24             	mov    %edi,(%esp)
    3723:	e8 a8 2f 00 00       	call   66d0 <fat_directory_close>
    3728:	e9 5b ff ff ff       	jmp    3688 <fat_read+0x168>
    372d:	8d 76 00             	lea    0x0(%esi),%esi
    3730:	89 3c 24             	mov    %edi,(%esp)
    3733:	e8 18 19 01 00       	call   15050 <fibril_mutex_unlock>
    3738:	8b 03                	mov    (%ebx),%eax
    373a:	89 04 24             	mov    %eax,(%esp)
    373d:	e8 0e a7 01 00       	call   1de50 <free>
    3742:	89 1c 24             	mov    %ebx,(%esp)
    3745:	e8 06 a7 01 00       	call   1de50 <free>
    374a:	eb a1                	jmp    36ed <fat_read+0x1cd>
    374c:	8d 74 26 00          	lea    0x0(%esi,%eiz,1),%esi
    3750:	8b 56 2c             	mov    0x2c(%esi),%edx
    3753:	8b 46 28             	mov    0x28(%esi),%eax
    3756:	8b 8d ac fe ff ff    	mov    -0x154(%ebp),%ecx
    375c:	89 85 a0 fe ff ff    	mov    %eax,-0x160(%ebp)
    3762:	89 95 a4 fe ff ff    	mov    %edx,-0x15c(%ebp)
    3768:	39 ca                	cmp    %ecx,%edx
    376a:	0f 87 be 00 00 00    	ja     382e <fat_read+0x30e>
    3770:	0f 83 aa 00 00 00    	jae    3820 <fat_read+0x300>
    3776:	8b 85 b8 fe ff ff    	mov    -0x148(%ebp),%eax
    377c:	c7 44 24 08 00 00 00 	movl   $0x0,0x8(%esp)
    3783:	00 
    3784:	c7 44 24 04 00 00 00 	movl   $0x0,0x4(%esp)
    378b:	00 
    378c:	89 04 24             	mov    %eax,(%esp)
    378f:	e8 bc e6 01 00       	call   21e50 <async_data_read_finalize>
    3794:	c7 85 a0 fe ff ff 00 	movl   $0x0,-0x160(%ebp)
    379b:	00 00 00 
    379e:	8b 8d b4 fe ff ff    	mov    -0x14c(%ebp),%ecx
    37a4:	8b 79 10             	mov    0x10(%ecx),%edi
    37a7:	8d 77 04             	lea    0x4(%edi),%esi
    37aa:	89 34 24             	mov    %esi,(%esp)
    37ad:	e8 7e 17 01 00       	call   14f30 <fibril_mutex_lock>
    37b2:	8b 57 34             	mov    0x34(%edi),%edx
    37b5:	4a                   	dec    %edx
    37b6:	89 57 34             	mov    %edx,0x34(%edi)
    37b9:	85 d2                	test   %edx,%edx
    37bb:	75 3f                	jne    37fc <fat_read+0x2dc>
    37bd:	8b 47 18             	mov    0x18(%edi),%eax
    37c0:	85 c0                	test   %eax,%eax
    37c2:	0f 84 b0 02 00 00    	je     3a78 <fat_read+0x558>
    37c8:	c7 04 24 c0 d6 02 00 	movl   $0x2d6c0,(%esp)
    37cf:	e8 5c 17 01 00       	call   14f30 <fibril_mutex_lock>
    37d4:	8b 0d d0 d6 02 00    	mov    0x2d6d0,%ecx
    37da:	8d 57 20             	lea    0x20(%edi),%edx
    37dd:	c7 47 24 d0 d6 02 00 	movl   $0x2d6d0,0x24(%edi)
    37e4:	89 4f 20             	mov    %ecx,0x20(%edi)
    37e7:	89 51 04             	mov    %edx,0x4(%ecx)
    37ea:	c7 04 24 c0 d6 02 00 	movl   $0x2d6c0,(%esp)
    37f1:	89 15 d0 d6 02 00    	mov    %edx,0x2d6d0
    37f7:	e8 54 18 01 00       	call   15050 <fibril_mutex_unlock>
    37fc:	89 34 24             	mov    %esi,(%esp)
    37ff:	e8 4c 18 01 00       	call   15050 <fibril_mutex_unlock>
    3804:	8b 45 18             	mov    0x18(%ebp),%eax
    3807:	8b 8d a0 fe ff ff    	mov    -0x160(%ebp),%ecx
    380d:	89 08                	mov    %ecx,(%eax)
    380f:	81 c4 8c 01 00 00    	add    $0x18c,%esp
    3815:	89 d8                	mov    %ebx,%eax
    3817:	5b                   	pop    %ebx
    3818:	5e                   	pop    %esi
    3819:	5f                   	pop    %edi
    381a:	5d                   	pop    %ebp
    381b:	c3                   	ret    
    381c:	8d 74 26 00          	lea    0x0(%esi,%eiz,1),%esi
    3820:	8b 95 a8 fe ff ff    	mov    -0x158(%ebp),%edx
    3826:	39 d0                	cmp    %edx,%eax
    3828:	0f 86 48 ff ff ff    	jbe    3776 <fat_read+0x256>
    382e:	66 8b 47 0b          	mov    0xb(%edi),%ax
    3832:	c7 85 9c fe ff ff 00 	movl   $0x0,-0x164(%ebp)
    3839:	00 00 00 
    383c:	25 ff ff 00 00       	and    $0xffff,%eax
    3841:	8b 8d bc fe ff ff    	mov    -0x144(%ebp),%ecx
    3847:	8b 95 9c fe ff ff    	mov    -0x164(%ebp),%edx
    384d:	89 85 98 fe ff ff    	mov    %eax,-0x168(%ebp)
    3853:	8b 85 98 fe ff ff    	mov    -0x168(%ebp),%eax
    3859:	89 8d b0 fe ff ff    	mov    %ecx,-0x150(%ebp)
    385f:	89 54 24 0c          	mov    %edx,0xc(%esp)
    3863:	8b 8d ac fe ff ff    	mov    -0x154(%ebp),%ecx
    3869:	8b 95 a8 fe ff ff    	mov    -0x158(%ebp),%edx
    386f:	89 4c 24 04          	mov    %ecx,0x4(%esp)
    3873:	89 44 24 08          	mov    %eax,0x8(%esp)
    3877:	89 14 24             	mov    %edx,(%esp)
    387a:	c7 44 24 14 00 00 00 	movl   $0x0,0x14(%esp)
    3881:	00 
    3882:	e8 89 69 02 00       	call   2a210 <__udivdi3>
    3887:	8d 8d c0 fe ff ff    	lea    -0x140(%ebp),%ecx
    388d:	89 74 24 08          	mov    %esi,0x8(%esp)
    3891:	89 44 24 0c          	mov    %eax,0xc(%esp)
    3895:	89 54 24 10          	mov    %edx,0x10(%esp)
    3899:	89 7c 24 04          	mov    %edi,0x4(%esp)
    389d:	89 0c 24             	mov    %ecx,(%esp)
    38a0:	e8 9b 5b 00 00       	call   9440 <fat_block_get>
    38a5:	89 c6                	mov    %eax,%esi
    38a7:	85 c0                	test   %eax,%eax
    38a9:	0f 85 d9 fd ff ff    	jne    3688 <fat_read+0x168>
    38af:	8b 85 a0 fe ff ff    	mov    -0x160(%ebp),%eax
    38b5:	8b 95 a4 fe ff ff    	mov    -0x15c(%ebp),%edx
    38bb:	2b 85 a8 fe ff ff    	sub    -0x158(%ebp),%eax
    38c1:	1b 95 ac fe ff ff    	sbb    -0x154(%ebp),%edx
    38c7:	89 85 a0 fe ff ff    	mov    %eax,-0x160(%ebp)
    38cd:	89 d6                	mov    %edx,%esi
    38cf:	83 fa 00             	cmp    $0x0,%edx
    38d2:	77 0a                	ja     38de <fat_read+0x3be>
    38d4:	8b 8d b0 fe ff ff    	mov    -0x150(%ebp),%ecx
    38da:	39 c8                	cmp    %ecx,%eax
    38dc:	76 0e                	jbe    38ec <fat_read+0x3cc>
    38de:	8b 8d b0 fe ff ff    	mov    -0x150(%ebp),%ecx
    38e4:	31 f6                	xor    %esi,%esi
    38e6:	89 8d a0 fe ff ff    	mov    %ecx,-0x160(%ebp)
    38ec:	8b 95 9c fe ff ff    	mov    -0x164(%ebp),%edx
    38f2:	8b 85 98 fe ff ff    	mov    -0x168(%ebp),%eax
    38f8:	89 54 24 0c          	mov    %edx,0xc(%esp)
    38fc:	8b 8d ac fe ff ff    	mov    -0x154(%ebp),%ecx
    3902:	8b 95 a8 fe ff ff    	mov    -0x158(%ebp),%edx
    3908:	89 44 24 08          	mov    %eax,0x8(%esp)
    390c:	89 14 24             	mov    %edx,(%esp)
    390f:	89 4c 24 04          	mov    %ecx,0x4(%esp)
    3913:	e8 78 6b 02 00       	call   2a490 <__umoddi3>
    3918:	89 85 88 fe ff ff    	mov    %eax,-0x178(%ebp)
    391e:	8b 85 98 fe ff ff    	mov    -0x168(%ebp),%eax
    3924:	2b 85 88 fe ff ff    	sub    -0x178(%ebp),%eax
    392a:	89 95 8c fe ff ff    	mov    %edx,-0x174(%ebp)
    3930:	8b 95 9c fe ff ff    	mov    -0x164(%ebp),%edx
    3936:	89 85 98 fe ff ff    	mov    %eax,-0x168(%ebp)
    393c:	1b 95 8c fe ff ff    	sbb    -0x174(%ebp),%edx
    3942:	8b 85 a0 fe ff ff    	mov    -0x160(%ebp),%eax
    3948:	89 95 9c fe ff ff    	mov    %edx,-0x164(%ebp)
    394e:	39 d6                	cmp    %edx,%esi
    3950:	72 10                	jb     3962 <fat_read+0x442>
    3952:	77 08                	ja     395c <fat_read+0x43c>
    3954:	3b 85 98 fe ff ff    	cmp    -0x168(%ebp),%eax
    395a:	76 06                	jbe    3962 <fat_read+0x442>
    395c:	8b 85 98 fe ff ff    	mov    -0x168(%ebp),%eax
    3962:	89 44 24 08          	mov    %eax,0x8(%esp)
    3966:	89 85 a0 fe ff ff    	mov    %eax,-0x160(%ebp)
    396c:	66 8b 47 0b          	mov    0xb(%edi),%ax
    3970:	8b 74 24 08          	mov    0x8(%esp),%esi
    3974:	25 ff ff 00 00       	and    $0xffff,%eax
    3979:	8b 95 ac fe ff ff    	mov    -0x154(%ebp),%edx
    397f:	89 44 24 08          	mov    %eax,0x8(%esp)
    3983:	8b 85 a8 fe ff ff    	mov    -0x158(%ebp),%eax
    3989:	8b 8d c0 fe ff ff    	mov    -0x140(%ebp),%ecx
    398f:	8b 7c 24 0c          	mov    0xc(%esp),%edi
    3993:	89 04 24             	mov    %eax,(%esp)
    3996:	c7 44 24 0c 00 00 00 	movl   $0x0,0xc(%esp)
    399d:	00 
    399e:	89 54 24 04          	mov    %edx,0x4(%esp)
    39a2:	89 8d 94 fe ff ff    	mov    %ecx,-0x16c(%ebp)
    39a8:	e8 e3 6a 02 00       	call   2a490 <__umoddi3>
    39ad:	8b 8d 94 fe ff ff    	mov    -0x16c(%ebp),%ecx
    39b3:	89 74 24 08          	mov    %esi,0x8(%esp)
    39b7:	89 7c 24 0c          	mov    %edi,0xc(%esp)
    39bb:	8b 51 54             	mov    0x54(%ecx),%edx
    39be:	01 d0                	add    %edx,%eax
    39c0:	89 44 24 04          	mov    %eax,0x4(%esp)
    39c4:	8b 85 b8 fe ff ff    	mov    -0x148(%ebp),%eax
    39ca:	89 04 24             	mov    %eax,(%esp)
    39cd:	e8 7e e4 01 00       	call   21e50 <async_data_read_finalize>
    39d2:	8b 85 c0 fe ff ff    	mov    -0x140(%ebp),%eax
    39d8:	89 04 24             	mov    %eax,(%esp)
    39db:	e8 60 7e 00 00       	call   b840 <block_put>
    39e0:	85 c0                	test   %eax,%eax
    39e2:	0f 84 b6 fd ff ff    	je     379e <fat_read+0x27e>
    39e8:	8b 8d b4 fe ff ff    	mov    -0x14c(%ebp),%ecx
    39ee:	8b 59 10             	mov    0x10(%ecx),%ebx
    39f1:	89 85 94 fe ff ff    	mov    %eax,-0x16c(%ebp)
    39f7:	8d 73 04             	lea    0x4(%ebx),%esi
    39fa:	89 34 24             	mov    %esi,(%esp)
    39fd:	e8 2e 15 01 00       	call   14f30 <fibril_mutex_lock>
    3a02:	8b 53 34             	mov    0x34(%ebx),%edx
    3a05:	4a                   	dec    %edx
    3a06:	8b 85 94 fe ff ff    	mov    -0x16c(%ebp),%eax
    3a0c:	89 53 34             	mov    %edx,0x34(%ebx)
    3a0f:	85 d2                	test   %edx,%edx
    3a11:	75 45                	jne    3a58 <fat_read+0x538>
    3a13:	8b 7b 18             	mov    0x18(%ebx),%edi
    3a16:	85 ff                	test   %edi,%edi
    3a18:	0f 84 1f 02 00 00    	je     3c3d <fat_read+0x71d>
    3a1e:	c7 04 24 c0 d6 02 00 	movl   $0x2d6c0,(%esp)
    3a25:	e8 06 15 01 00       	call   14f30 <fibril_mutex_lock>
    3a2a:	8b 0d d0 d6 02 00    	mov    0x2d6d0,%ecx
    3a30:	8d 53 20             	lea    0x20(%ebx),%edx
    3a33:	c7 43 24 d0 d6 02 00 	movl   $0x2d6d0,0x24(%ebx)
    3a3a:	89 4b 20             	mov    %ecx,0x20(%ebx)
    3a3d:	89 51 04             	mov    %edx,0x4(%ecx)
    3a40:	c7 04 24 c0 d6 02 00 	movl   $0x2d6c0,(%esp)
    3a47:	89 15 d0 d6 02 00    	mov    %edx,0x2d6d0
    3a4d:	e8 fe 15 01 00       	call   15050 <fibril_mutex_unlock>
    3a52:	8b 85 94 fe ff ff    	mov    -0x16c(%ebp),%eax
    3a58:	89 34 24             	mov    %esi,(%esp)
    3a5b:	89 85 94 fe ff ff    	mov    %eax,-0x16c(%ebp)
    3a61:	e8 ea 15 01 00       	call   15050 <fibril_mutex_unlock>
    3a66:	8b 85 94 fe ff ff    	mov    -0x16c(%ebp),%eax
    3a6c:	89 c3                	mov    %eax,%ebx
    3a6e:	e9 8e fc ff ff       	jmp    3701 <fat_read+0x1e1>
    3a73:	90                   	nop
    3a74:	8d 74 26 00          	lea    0x0(%esi,%eiz,1),%esi
    3a78:	89 34 24             	mov    %esi,(%esp)
    3a7b:	e8 d0 15 01 00       	call   15050 <fibril_mutex_unlock>
    3a80:	8b 07                	mov    (%edi),%eax
    3a82:	89 04 24             	mov    %eax,(%esp)
    3a85:	e8 c6 a3 01 00       	call   1de50 <free>
    3a8a:	89 3c 24             	mov    %edi,(%esp)
    3a8d:	e8 be a3 01 00       	call   1de50 <free>
    3a92:	e9 6d fd ff ff       	jmp    3804 <fat_read+0x2e4>
    3a97:	89 3c 24             	mov    %edi,(%esp)
    3a9a:	e8 31 2c 00 00       	call   66d0 <fat_directory_close>
    3a9f:	89 c6                	mov    %eax,%esi
    3aa1:	85 c0                	test   %eax,%eax
    3aa3:	0f 85 df fb ff ff    	jne    3688 <fat_read+0x168>
    3aa9:	8b 8d b4 fe ff ff    	mov    -0x14c(%ebp),%ecx
    3aaf:	8b 59 10             	mov    0x10(%ecx),%ebx
    3ab2:	8d 73 04             	lea    0x4(%ebx),%esi
    3ab5:	89 34 24             	mov    %esi,(%esp)
    3ab8:	e8 73 14 01 00       	call   14f30 <fibril_mutex_lock>
    3abd:	8b 43 34             	mov    0x34(%ebx),%eax
    3ac0:	48                   	dec    %eax
    3ac1:	89 43 34             	mov    %eax,0x34(%ebx)
    3ac4:	85 c0                	test   %eax,%eax
    3ac6:	75 3e                	jne    3b06 <fat_read+0x5e6>
    3ac8:	8b 53 18             	mov    0x18(%ebx),%edx
    3acb:	85 d2                	test   %edx,%edx
    3acd:	0f 84 97 01 00 00    	je     3c6a <fat_read+0x74a>
    3ad3:	c7 04 24 c0 d6 02 00 	movl   $0x2d6c0,(%esp)
    3ada:	e8 51 14 01 00       	call   14f30 <fibril_mutex_lock>
    3adf:	8b 15 d0 d6 02 00    	mov    0x2d6d0,%edx
    3ae5:	8d 43 20             	lea    0x20(%ebx),%eax
    3ae8:	c7 43 24 d0 d6 02 00 	movl   $0x2d6d0,0x24(%ebx)
    3aef:	89 53 20             	mov    %edx,0x20(%ebx)
    3af2:	89 42 04             	mov    %eax,0x4(%edx)
    3af5:	c7 04 24 c0 d6 02 00 	movl   $0x2d6c0,(%esp)
    3afc:	a3 d0 d6 02 00       	mov    %eax,0x2d6d0
    3b01:	e8 4a 15 01 00       	call   15050 <fibril_mutex_unlock>
    3b06:	89 34 24             	mov    %esi,(%esp)
    3b09:	e8 42 15 01 00       	call   15050 <fibril_mutex_unlock>
    3b0e:	8b 85 b8 fe ff ff    	mov    -0x148(%ebp),%eax
    3b14:	c7 44 24 04 ff ff ff 	movl   $0xffffffff,0x4(%esp)
    3b1b:	ff 
    3b1c:	89 04 24             	mov    %eax,(%esp)
    3b1f:	83 cb ff             	or     $0xffffffff,%ebx
    3b22:	e8 59 cd 01 00       	call   20880 <async_answer_0>
    3b27:	8b 45 18             	mov    0x18(%ebp),%eax
    3b2a:	c7 00 00 00 00 00    	movl   $0x0,(%eax)
    3b30:	e9 cc fb ff ff       	jmp    3701 <fat_read+0x1e1>
    3b35:	8d 76 00             	lea    0x0(%esi),%esi
    3b38:	8b 95 d4 fe ff ff    	mov    -0x12c(%ebp),%edx
    3b3e:	89 3c 24             	mov    %edi,(%esp)
    3b41:	89 95 a0 fe ff ff    	mov    %edx,-0x160(%ebp)
    3b47:	e8 84 2b 00 00       	call   66d0 <fat_directory_close>
    3b4c:	89 c6                	mov    %eax,%esi
    3b4e:	85 c0                	test   %eax,%eax
    3b50:	0f 85 32 fb ff ff    	jne    3688 <fat_read+0x168>
    3b56:	8d 8d e4 fe ff ff    	lea    -0x11c(%ebp),%ecx
    3b5c:	89 0c 24             	mov    %ecx,(%esp)
    3b5f:	e8 ac e1 00 00       	call   11d10 <str_size>
    3b64:	40                   	inc    %eax
    3b65:	89 44 24 08          	mov    %eax,0x8(%esp)
    3b69:	8d 85 e4 fe ff ff    	lea    -0x11c(%ebp),%eax
    3b6f:	89 44 24 04          	mov    %eax,0x4(%esp)
    3b73:	8b 85 b8 fe ff ff    	mov    -0x148(%ebp),%eax
    3b79:	89 04 24             	mov    %eax,(%esp)
    3b7c:	e8 cf e2 01 00       	call   21e50 <async_data_read_finalize>
    3b81:	8b 8d a0 fe ff ff    	mov    -0x160(%ebp),%ecx
    3b87:	41                   	inc    %ecx
    3b88:	8b 85 a8 fe ff ff    	mov    -0x158(%ebp),%eax
    3b8e:	29 c1                	sub    %eax,%ecx
    3b90:	89 8d a0 fe ff ff    	mov    %ecx,-0x160(%ebp)
    3b96:	e9 03 fc ff ff       	jmp    379e <fat_read+0x27e>
    3b9b:	90                   	nop
    3b9c:	8d 74 26 00          	lea    0x0(%esi,%eiz,1),%esi
    3ba0:	8b 8d b4 fe ff ff    	mov    -0x14c(%ebp),%ecx
    3ba6:	8b 59 10             	mov    0x10(%ecx),%ebx
    3ba9:	8d 73 04             	lea    0x4(%ebx),%esi
    3bac:	89 34 24             	mov    %esi,(%esp)
    3baf:	e8 7c 13 01 00       	call   14f30 <fibril_mutex_lock>
    3bb4:	8b 43 34             	mov    0x34(%ebx),%eax
    3bb7:	48                   	dec    %eax
    3bb8:	89 43 34             	mov    %eax,0x34(%ebx)
    3bbb:	85 c0                	test   %eax,%eax
    3bbd:	75 3a                	jne    3bf9 <fat_read+0x6d9>
    3bbf:	8b 4b 18             	mov    0x18(%ebx),%ecx
    3bc2:	85 c9                	test   %ecx,%ecx
    3bc4:	74 5b                	je     3c21 <fat_read+0x701>
    3bc6:	c7 04 24 c0 d6 02 00 	movl   $0x2d6c0,(%esp)
    3bcd:	e8 5e 13 01 00       	call   14f30 <fibril_mutex_lock>
    3bd2:	8b 15 d0 d6 02 00    	mov    0x2d6d0,%edx
    3bd8:	8d 43 20             	lea    0x20(%ebx),%eax
    3bdb:	c7 43 24 d0 d6 02 00 	movl   $0x2d6d0,0x24(%ebx)
    3be2:	89 53 20             	mov    %edx,0x20(%ebx)
    3be5:	89 42 04             	mov    %eax,0x4(%edx)
    3be8:	c7 04 24 c0 d6 02 00 	movl   $0x2d6c0,(%esp)
    3bef:	a3 d0 d6 02 00       	mov    %eax,0x2d6d0
    3bf4:	e8 57 14 01 00       	call   15050 <fibril_mutex_unlock>
    3bf9:	89 34 24             	mov    %esi,(%esp)
    3bfc:	e8 4f 14 01 00       	call   15050 <fibril_mutex_unlock>
    3c01:	8b 85 b8 fe ff ff    	mov    -0x148(%ebp),%eax
    3c07:	c7 44 24 04 f2 ff ff 	movl   $0xfffffff2,0x4(%esp)
    3c0e:	ff 
    3c0f:	89 04 24             	mov    %eax,(%esp)
    3c12:	bb f2 ff ff ff       	mov    $0xfffffff2,%ebx
    3c17:	e8 64 cc 01 00       	call   20880 <async_answer_0>
    3c1c:	e9 e0 fa ff ff       	jmp    3701 <fat_read+0x1e1>
    3c21:	89 34 24             	mov    %esi,(%esp)
    3c24:	e8 27 14 01 00       	call   15050 <fibril_mutex_unlock>
    3c29:	8b 03                	mov    (%ebx),%eax
    3c2b:	89 04 24             	mov    %eax,(%esp)
    3c2e:	e8 1d a2 01 00       	call   1de50 <free>
    3c33:	89 1c 24             	mov    %ebx,(%esp)
    3c36:	e8 15 a2 01 00       	call   1de50 <free>
    3c3b:	eb c4                	jmp    3c01 <fat_read+0x6e1>
    3c3d:	89 34 24             	mov    %esi,(%esp)
    3c40:	89 85 94 fe ff ff    	mov    %eax,-0x16c(%ebp)
    3c46:	e8 05 14 01 00       	call   15050 <fibril_mutex_unlock>
    3c4b:	8b 13                	mov    (%ebx),%edx
    3c4d:	89 14 24             	mov    %edx,(%esp)
    3c50:	e8 fb a1 01 00       	call   1de50 <free>
    3c55:	89 1c 24             	mov    %ebx,(%esp)
    3c58:	e8 f3 a1 01 00       	call   1de50 <free>
    3c5d:	8b 85 94 fe ff ff    	mov    -0x16c(%ebp),%eax
    3c63:	89 c3                	mov    %eax,%ebx
    3c65:	e9 97 fa ff ff       	jmp    3701 <fat_read+0x1e1>
    3c6a:	89 34 24             	mov    %esi,(%esp)
    3c6d:	e8 de 13 01 00       	call   15050 <fibril_mutex_unlock>
    3c72:	8b 03                	mov    (%ebx),%eax
    3c74:	89 04 24             	mov    %eax,(%esp)
    3c77:	e8 d4 a1 01 00       	call   1de50 <free>
    3c7c:	89 1c 24             	mov    %ebx,(%esp)
    3c7f:	e8 cc a1 01 00       	call   1de50 <free>
    3c84:	e9 85 fe ff ff       	jmp    3b0e <fat_read+0x5ee>
    3c89:	c7 44 24 08 96 04 00 	movl   $0x496,0x8(%esp)
    3c90:	00 
    3c91:	c7 44 24 04 89 a9 02 	movl   $0x2a989,0x4(%esp)
    3c98:	00 
    3c99:	c7 04 24 61 aa 02 00 	movl   $0x2aa61,(%esp)
    3ca0:	e8 7b 48 02 00       	call   28520 <assert_abort>
    3ca5:	c7 44 24 08 97 04 00 	movl   $0x497,0x8(%esp)
    3cac:	00 
    3cad:	c7 44 24 04 89 a9 02 	movl   $0x2a989,0x4(%esp)
    3cb4:	00 
    3cb5:	c7 04 24 7e aa 02 00 	movl   $0x2aa7e,(%esp)
    3cbc:	e8 5f 48 02 00       	call   28520 <assert_abort>
    3cc1:	c7 44 24 08 98 04 00 	movl   $0x498,0x8(%esp)
    3cc8:	00 
    3cc9:	c7 44 24 04 89 a9 02 	movl   $0x2a989,0x4(%esp)
    3cd0:	00 
    3cd1:	c7 04 24 a0 aa 02 00 	movl   $0x2aaa0,(%esp)
    3cd8:	e8 43 48 02 00       	call   28520 <assert_abort>
    3cdd:	8d 76 00             	lea    0x0(%esi),%esi

00003ce0 <fat_create_node>:
    3ce0:	55                   	push   %ebp
    3ce1:	89 e5                	mov    %esp,%ebp
    3ce3:	57                   	push   %edi
    3ce4:	56                   	push   %esi
    3ce5:	53                   	push   %ebx
    3ce6:	83 ec 4c             	sub    $0x4c,%esp
    3ce9:	8b 5d 0c             	mov    0xc(%ebp),%ebx
    3cec:	89 1c 24             	mov    %ebx,(%esp)
    3cef:	e8 dc 76 00 00       	call   b3d0 <block_bb_get>
    3cf4:	89 c6                	mov    %eax,%esi
    3cf6:	8b 45 10             	mov    0x10(%ebp),%eax
    3cf9:	83 e0 02             	and    $0x2,%eax
    3cfc:	89 45 d4             	mov    %eax,-0x2c(%ebp)
    3cff:	74 54                	je     3d55 <fat_create_node+0x75>
    3d01:	8d 45 e4             	lea    -0x1c(%ebp),%eax
    3d04:	c7 44 24 08 01 00 00 	movl   $0x1,0x8(%esp)
    3d0b:	00 
    3d0c:	89 44 24 10          	mov    %eax,0x10(%esp)
    3d10:	8d 45 e0             	lea    -0x20(%ebp),%eax
    3d13:	89 44 24 0c          	mov    %eax,0xc(%esp)
    3d17:	89 5c 24 04          	mov    %ebx,0x4(%esp)
    3d1b:	89 34 24             	mov    %esi,(%esp)
    3d1e:	e8 8d 65 00 00       	call   a2b0 <fat_alloc_clusters>
    3d23:	89 c7                	mov    %eax,%edi
    3d25:	85 c0                	test   %eax,%eax
    3d27:	74 0f                	je     3d38 <fat_create_node+0x58>
    3d29:	83 c4 4c             	add    $0x4c,%esp
    3d2c:	89 f8                	mov    %edi,%eax
    3d2e:	5b                   	pop    %ebx
    3d2f:	5e                   	pop    %esi
    3d30:	5f                   	pop    %edi
    3d31:	5d                   	pop    %ebp
    3d32:	c3                   	ret    
    3d33:	90                   	nop
    3d34:	8d 74 26 00          	lea    0x0(%esi,%eiz,1),%esi
    3d38:	8b 45 e0             	mov    -0x20(%ebp),%eax
    3d3b:	89 5c 24 04          	mov    %ebx,0x4(%esp)
    3d3f:	89 44 24 08          	mov    %eax,0x8(%esp)
    3d43:	89 34 24             	mov    %esi,(%esp)
    3d46:	e8 05 6f 00 00       	call   ac50 <fat_zero_cluster>
    3d4b:	89 c7                	mov    %eax,%edi
    3d4d:	85 c0                	test   %eax,%eax
    3d4f:	0f 85 93 00 00 00    	jne    3de8 <fat_create_node+0x108>
    3d55:	8d 45 dc             	lea    -0x24(%ebp),%eax
    3d58:	e8 03 e6 ff ff       	call   2360 <fat_node_get_new>
    3d5d:	89 c7                	mov    %eax,%edi
    3d5f:	85 c0                	test   %eax,%eax
    3d61:	0f 85 81 00 00 00    	jne    3de8 <fat_create_node+0x108>
    3d67:	8d 45 d8             	lea    -0x28(%ebp),%eax
    3d6a:	89 5c 24 04          	mov    %ebx,0x4(%esp)
    3d6e:	89 04 24             	mov    %eax,(%esp)
    3d71:	e8 aa 0e 00 00       	call   4c20 <fat_idx_get_new>
    3d76:	89 c7                	mov    %eax,%edi
    3d78:	85 c0                	test   %eax,%eax
    3d7a:	0f 85 b8 00 00 00    	jne    3e38 <fat_create_node+0x158>
    3d80:	8b 5d d4             	mov    -0x2c(%ebp),%ebx
    3d83:	8b 45 dc             	mov    -0x24(%ebp),%eax
    3d86:	85 db                	test   %ebx,%ebx
    3d88:	75 7e                	jne    3e08 <fat_create_node+0x128>
    3d8a:	c7 40 14 02 00 00 00 	movl   $0x2,0x14(%eax)
    3d91:	c7 40 1c 00 00 00 00 	movl   $0x0,0x1c(%eax)
    3d98:	c7 40 28 00 00 00 00 	movl   $0x0,0x28(%eax)
    3d9f:	c7 40 2c 00 00 00 00 	movl   $0x0,0x2c(%eax)
    3da6:	8b 4d d8             	mov    -0x28(%ebp),%ecx
    3da9:	c7 40 30 00 00 00 00 	movl   $0x0,0x30(%eax)
    3db0:	89 48 18             	mov    %ecx,0x18(%eax)
    3db3:	c7 40 34 01 00 00 00 	movl   $0x1,0x34(%eax)
    3dba:	c6 40 38 01          	movb   $0x1,0x38(%eax)
    3dbe:	89 41 30             	mov    %eax,0x30(%ecx)
    3dc1:	83 c1 10             	add    $0x10,%ecx
    3dc4:	89 0c 24             	mov    %ecx,(%esp)
    3dc7:	e8 84 12 01 00       	call   15050 <fibril_mutex_unlock>
    3dcc:	8b 45 dc             	mov    -0x24(%ebp),%eax
    3dcf:	85 c0                	test   %eax,%eax
    3dd1:	0f 84 09 01 00 00    	je     3ee0 <fat_create_node+0x200>
    3dd7:	8b 08                	mov    (%eax),%ecx
    3dd9:	8b 45 08             	mov    0x8(%ebp),%eax
    3ddc:	89 08                	mov    %ecx,(%eax)
    3dde:	83 c4 4c             	add    $0x4c,%esp
    3de1:	89 f8                	mov    %edi,%eax
    3de3:	5b                   	pop    %ebx
    3de4:	5e                   	pop    %esi
    3de5:	5f                   	pop    %edi
    3de6:	5d                   	pop    %ebp
    3de7:	c3                   	ret    
    3de8:	8b 45 e0             	mov    -0x20(%ebp),%eax
    3deb:	89 5c 24 04          	mov    %ebx,0x4(%esp)
    3def:	89 34 24             	mov    %esi,(%esp)
    3df2:	89 44 24 08          	mov    %eax,0x8(%esp)
    3df6:	e8 15 68 00 00       	call   a610 <fat_free_clusters>
    3dfb:	83 c4 4c             	add    $0x4c,%esp
    3dfe:	89 f8                	mov    %edi,%eax
    3e00:	5b                   	pop    %ebx
    3e01:	5e                   	pop    %esi
    3e02:	5f                   	pop    %edi
    3e03:	5d                   	pop    %ebp
    3e04:	c3                   	ret    
    3e05:	8d 76 00             	lea    0x0(%esi),%esi
    3e08:	8b 4d e0             	mov    -0x20(%ebp),%ecx
    3e0b:	c7 40 14 01 00 00 00 	movl   $0x1,0x14(%eax)
    3e12:	89 48 1c             	mov    %ecx,0x1c(%eax)
    3e15:	31 db                	xor    %ebx,%ebx
    3e17:	66 8b 4e 0b          	mov    0xb(%esi),%cx
    3e1b:	8a 5e 0d             	mov    0xd(%esi),%bl
    3e1e:	81 e1 ff ff 00 00    	and    $0xffff,%ecx
    3e24:	0f af cb             	imul   %ebx,%ecx
    3e27:	89 ca                	mov    %ecx,%edx
    3e29:	89 48 28             	mov    %ecx,0x28(%eax)
    3e2c:	c1 fa 1f             	sar    $0x1f,%edx
    3e2f:	89 50 2c             	mov    %edx,0x2c(%eax)
    3e32:	e9 6f ff ff ff       	jmp    3da6 <fat_create_node+0xc6>
    3e37:	90                   	nop
    3e38:	8b 45 e0             	mov    -0x20(%ebp),%eax
    3e3b:	89 5c 24 04          	mov    %ebx,0x4(%esp)
    3e3f:	89 44 24 08          	mov    %eax,0x8(%esp)
    3e43:	89 34 24             	mov    %esi,(%esp)
    3e46:	e8 c5 67 00 00       	call   a610 <fat_free_clusters>
    3e4b:	8b 45 dc             	mov    -0x24(%ebp),%eax
    3e4e:	85 c0                	test   %eax,%eax
    3e50:	0f 84 92 00 00 00    	je     3ee8 <fat_create_node+0x208>
    3e56:	8b 00                	mov    (%eax),%eax
    3e58:	85 c0                	test   %eax,%eax
    3e5a:	0f 84 88 00 00 00    	je     3ee8 <fat_create_node+0x208>
    3e60:	8b 58 10             	mov    0x10(%eax),%ebx
    3e63:	8d 73 04             	lea    0x4(%ebx),%esi
    3e66:	89 34 24             	mov    %esi,(%esp)
    3e69:	e8 c2 10 01 00       	call   14f30 <fibril_mutex_lock>
    3e6e:	8b 43 34             	mov    0x34(%ebx),%eax
    3e71:	48                   	dec    %eax
    3e72:	89 43 34             	mov    %eax,0x34(%ebx)
    3e75:	85 c0                	test   %eax,%eax
    3e77:	75 3a                	jne    3eb3 <fat_create_node+0x1d3>
    3e79:	8b 43 18             	mov    0x18(%ebx),%eax
    3e7c:	85 c0                	test   %eax,%eax
    3e7e:	74 40                	je     3ec0 <fat_create_node+0x1e0>
    3e80:	c7 04 24 c0 d6 02 00 	movl   $0x2d6c0,(%esp)
    3e87:	e8 a4 10 01 00       	call   14f30 <fibril_mutex_lock>
    3e8c:	8b 0d d0 d6 02 00    	mov    0x2d6d0,%ecx
    3e92:	8d 43 20             	lea    0x20(%ebx),%eax
    3e95:	c7 43 24 d0 d6 02 00 	movl   $0x2d6d0,0x24(%ebx)
    3e9c:	89 4b 20             	mov    %ecx,0x20(%ebx)
    3e9f:	89 41 04             	mov    %eax,0x4(%ecx)
    3ea2:	c7 04 24 c0 d6 02 00 	movl   $0x2d6c0,(%esp)
    3ea9:	a3 d0 d6 02 00       	mov    %eax,0x2d6d0
    3eae:	e8 9d 11 01 00       	call   15050 <fibril_mutex_unlock>
    3eb3:	89 34 24             	mov    %esi,(%esp)
    3eb6:	e8 95 11 01 00       	call   15050 <fibril_mutex_unlock>
    3ebb:	e9 69 fe ff ff       	jmp    3d29 <fat_create_node+0x49>
    3ec0:	89 34 24             	mov    %esi,(%esp)
    3ec3:	e8 88 11 01 00       	call   15050 <fibril_mutex_unlock>
    3ec8:	8b 03                	mov    (%ebx),%eax
    3eca:	89 04 24             	mov    %eax,(%esp)
    3ecd:	e8 7e 9f 01 00       	call   1de50 <free>
    3ed2:	89 1c 24             	mov    %ebx,(%esp)
    3ed5:	e8 76 9f 01 00       	call   1de50 <free>
    3eda:	e9 4a fe ff ff       	jmp    3d29 <fat_create_node+0x49>
    3edf:	90                   	nop
    3ee0:	31 c9                	xor    %ecx,%ecx
    3ee2:	e9 f2 fe ff ff       	jmp    3dd9 <fat_create_node+0xf9>
    3ee7:	90                   	nop
    3ee8:	31 db                	xor    %ebx,%ebx
    3eea:	e9 74 ff ff ff       	jmp    3e63 <fat_create_node+0x183>
    3eef:	90                   	nop

00003ef0 <fat_match>:
    3ef0:	55                   	push   %ebp
    3ef1:	89 e5                	mov    %esp,%ebp
    3ef3:	57                   	push   %edi
    3ef4:	56                   	push   %esi
    3ef5:	53                   	push   %ebx
    3ef6:	81 ec 5c 01 00 00    	sub    $0x15c,%esp
    3efc:	8b 45 0c             	mov    0xc(%ebp),%eax
    3eff:	85 c0                	test   %eax,%eax
    3f01:	0f 84 b1 00 00 00    	je     3fb8 <fat_match+0xc8>
    3f07:	8b 78 10             	mov    0x10(%eax),%edi
    3f0a:	8b 47 18             	mov    0x18(%edi),%eax
    3f0d:	8d 9d c4 fe ff ff    	lea    -0x13c(%ebp),%ebx
    3f13:	83 c0 10             	add    $0x10,%eax
    3f16:	89 04 24             	mov    %eax,(%esp)
    3f19:	e8 12 10 01 00       	call   14f30 <fibril_mutex_lock>
    3f1e:	8b 47 18             	mov    0x18(%edi),%eax
    3f21:	8b 50 20             	mov    0x20(%eax),%edx
    3f24:	83 c0 10             	add    $0x10,%eax
    3f27:	89 04 24             	mov    %eax,(%esp)
    3f2a:	89 95 b0 fe ff ff    	mov    %edx,-0x150(%ebp)
    3f30:	e8 1b 11 01 00       	call   15050 <fibril_mutex_unlock>
    3f35:	89 5c 24 04          	mov    %ebx,0x4(%esp)
    3f39:	89 3c 24             	mov    %edi,(%esp)
    3f3c:	e8 9f 26 00 00       	call   65e0 <fat_directory_open>
    3f41:	89 85 b4 fe ff ff    	mov    %eax,-0x14c(%ebp)
    3f47:	85 c0                	test   %eax,%eax
    3f49:	75 62                	jne    3fad <fat_match+0xbd>
    3f4b:	89 bd ac fe ff ff    	mov    %edi,-0x154(%ebp)
    3f51:	8d b5 e4 fe ff ff    	lea    -0x11c(%ebp),%esi
    3f57:	8b 7d 10             	mov    0x10(%ebp),%edi
    3f5a:	8d b6 00 00 00 00    	lea    0x0(%esi),%esi
    3f60:	8d 95 bc fe ff ff    	lea    -0x144(%ebp),%edx
    3f66:	89 74 24 04          	mov    %esi,0x4(%esp)
    3f6a:	89 54 24 08          	mov    %edx,0x8(%esp)
    3f6e:	89 1c 24             	mov    %ebx,(%esp)
    3f71:	e8 8a 2b 00 00       	call   6b00 <fat_directory_read>
    3f76:	85 c0                	test   %eax,%eax
    3f78:	75 1c                	jne    3f96 <fat_match+0xa6>
    3f7a:	89 7c 24 04          	mov    %edi,0x4(%esp)
    3f7e:	89 34 24             	mov    %esi,(%esp)
    3f81:	e8 ea 14 00 00       	call   5470 <fat_dentry_namecmp>
    3f86:	85 c0                	test   %eax,%eax
    3f88:	74 36                	je     3fc0 <fat_match+0xd0>
    3f8a:	89 1c 24             	mov    %ebx,(%esp)
    3f8d:	e8 5e 27 00 00       	call   66f0 <fat_directory_next>
    3f92:	85 c0                	test   %eax,%eax
    3f94:	74 ca                	je     3f60 <fat_match+0x70>
    3f96:	89 1c 24             	mov    %ebx,(%esp)
    3f99:	e8 32 27 00 00       	call   66d0 <fat_directory_close>
    3f9e:	8b 45 08             	mov    0x8(%ebp),%eax
    3fa1:	c7 00 00 00 00 00    	movl   $0x0,(%eax)
    3fa7:	8b 85 b4 fe ff ff    	mov    -0x14c(%ebp),%eax
    3fad:	81 c4 5c 01 00 00    	add    $0x15c,%esp
    3fb3:	5b                   	pop    %ebx
    3fb4:	5e                   	pop    %esi
    3fb5:	5f                   	pop    %edi
    3fb6:	5d                   	pop    %ebp
    3fb7:	c3                   	ret    
    3fb8:	31 ff                	xor    %edi,%edi
    3fba:	e9 4b ff ff ff       	jmp    3f0a <fat_match+0x1a>
    3fbf:	90                   	nop
    3fc0:	8b 85 c4 fe ff ff    	mov    -0x13c(%ebp),%eax
    3fc6:	8b 95 d8 fe ff ff    	mov    -0x128(%ebp),%edx
    3fcc:	8b bd ac fe ff ff    	mov    -0x154(%ebp),%edi
    3fd2:	66 8b 70 0b          	mov    0xb(%eax),%si
    3fd6:	8b 85 d4 fe ff ff    	mov    -0x12c(%ebp),%eax
    3fdc:	66 c1 ee 05          	shr    $0x5,%si
    3fe0:	c7 44 24 0c 00 00 00 	movl   $0x0,0xc(%esp)
    3fe7:	00 
    3fe8:	81 e6 ff ff 00 00    	and    $0xffff,%esi
    3fee:	89 04 24             	mov    %eax,(%esp)
    3ff1:	89 74 24 08          	mov    %esi,0x8(%esp)
    3ff5:	89 54 24 04          	mov    %edx,0x4(%esp)
    3ff9:	e8 92 64 02 00       	call   2a490 <__umoddi3>
    3ffe:	8b 95 d0 fe ff ff    	mov    -0x130(%ebp),%edx
    4004:	0f af f2             	imul   %edx,%esi
    4007:	01 f0                	add    %esi,%eax
    4009:	89 44 24 08          	mov    %eax,0x8(%esp)
    400d:	8b 47 1c             	mov    0x1c(%edi),%eax
    4010:	89 44 24 04          	mov    %eax,0x4(%esp)
    4014:	8b 85 b0 fe ff ff    	mov    -0x150(%ebp),%eax
    401a:	89 04 24             	mov    %eax,(%esp)
    401d:	e8 be 0c 00 00       	call   4ce0 <fat_idx_get_by_pos>
    4022:	89 c6                	mov    %eax,%esi
    4024:	85 c0                	test   %eax,%eax
    4026:	0f 84 e8 00 00 00    	je     4114 <fat_match+0x224>
    402c:	89 c2                	mov    %eax,%edx
    402e:	8d 85 c0 fe ff ff    	lea    -0x140(%ebp),%eax
    4034:	e8 27 e5 ff ff       	call   2560 <fat_node_get_core>
    4039:	83 c6 10             	add    $0x10,%esi
    403c:	89 34 24             	mov    %esi,(%esp)
    403f:	89 85 b4 fe ff ff    	mov    %eax,-0x14c(%ebp)
    4045:	e8 06 10 01 00       	call   15050 <fibril_mutex_unlock>
    404a:	8b 85 b4 fe ff ff    	mov    -0x14c(%ebp),%eax
    4050:	85 c0                	test   %eax,%eax
    4052:	0f 85 a9 00 00 00    	jne    4101 <fat_match+0x211>
    4058:	8b 85 c0 fe ff ff    	mov    -0x140(%ebp),%eax
    405e:	85 c0                	test   %eax,%eax
    4060:	0f 84 94 00 00 00    	je     40fa <fat_match+0x20a>
    4066:	8b 00                	mov    (%eax),%eax
    4068:	8b 55 08             	mov    0x8(%ebp),%edx
    406b:	89 02                	mov    %eax,(%edx)
    406d:	89 1c 24             	mov    %ebx,(%esp)
    4070:	e8 5b 26 00 00       	call   66d0 <fat_directory_close>
    4075:	89 85 b4 fe ff ff    	mov    %eax,-0x14c(%ebp)
    407b:	85 c0                	test   %eax,%eax
    407d:	0f 84 2a ff ff ff    	je     3fad <fat_match+0xbd>
    4083:	8b 55 08             	mov    0x8(%ebp),%edx
    4086:	8b 02                	mov    (%edx),%eax
    4088:	85 c0                	test   %eax,%eax
    408a:	0f 84 d4 00 00 00    	je     4164 <fat_match+0x274>
    4090:	8b 58 10             	mov    0x10(%eax),%ebx
    4093:	8d 73 04             	lea    0x4(%ebx),%esi
    4096:	89 34 24             	mov    %esi,(%esp)
    4099:	e8 92 0e 01 00       	call   14f30 <fibril_mutex_lock>
    409e:	8b 43 34             	mov    0x34(%ebx),%eax
    40a1:	48                   	dec    %eax
    40a2:	89 43 34             	mov    %eax,0x34(%ebx)
    40a5:	85 c0                	test   %eax,%eax
    40a7:	75 3e                	jne    40e7 <fat_match+0x1f7>
    40a9:	8b 43 18             	mov    0x18(%ebx),%eax
    40ac:	85 c0                	test   %eax,%eax
    40ae:	0f 84 8b 00 00 00    	je     413f <fat_match+0x24f>
    40b4:	c7 04 24 c0 d6 02 00 	movl   $0x2d6c0,(%esp)
    40bb:	e8 70 0e 01 00       	call   14f30 <fibril_mutex_lock>
    40c0:	8b 15 d0 d6 02 00    	mov    0x2d6d0,%edx
    40c6:	8d 43 20             	lea    0x20(%ebx),%eax
    40c9:	c7 43 24 d0 d6 02 00 	movl   $0x2d6d0,0x24(%ebx)
    40d0:	89 53 20             	mov    %edx,0x20(%ebx)
    40d3:	89 42 04             	mov    %eax,0x4(%edx)
    40d6:	c7 04 24 c0 d6 02 00 	movl   $0x2d6c0,(%esp)
    40dd:	a3 d0 d6 02 00       	mov    %eax,0x2d6d0
    40e2:	e8 69 0f 01 00       	call   15050 <fibril_mutex_unlock>
    40e7:	89 34 24             	mov    %esi,(%esp)
    40ea:	e8 61 0f 01 00       	call   15050 <fibril_mutex_unlock>
    40ef:	8b 85 b4 fe ff ff    	mov    -0x14c(%ebp),%eax
    40f5:	e9 b3 fe ff ff       	jmp    3fad <fat_match+0xbd>
    40fa:	31 c0                	xor    %eax,%eax
    40fc:	e9 67 ff ff ff       	jmp    4068 <fat_match+0x178>
    4101:	89 1c 24             	mov    %ebx,(%esp)
    4104:	e8 c7 25 00 00       	call   66d0 <fat_directory_close>
    4109:	8b 85 b4 fe ff ff    	mov    -0x14c(%ebp),%eax
    410f:	e9 99 fe ff ff       	jmp    3fad <fat_match+0xbd>
    4114:	89 1c 24             	mov    %ebx,(%esp)
    4117:	e8 b4 25 00 00       	call   66d0 <fat_directory_close>
    411c:	89 85 b4 fe ff ff    	mov    %eax,-0x14c(%ebp)
    4122:	85 c0                	test   %eax,%eax
    4124:	0f 85 83 fe ff ff    	jne    3fad <fat_match+0xbd>
    412a:	c7 85 b4 fe ff ff fe 	movl   $0xfffffffe,-0x14c(%ebp)
    4131:	ff ff ff 
    4134:	8b 85 b4 fe ff ff    	mov    -0x14c(%ebp),%eax
    413a:	e9 6e fe ff ff       	jmp    3fad <fat_match+0xbd>
    413f:	89 34 24             	mov    %esi,(%esp)
    4142:	e8 09 0f 01 00       	call   15050 <fibril_mutex_unlock>
    4147:	8b 03                	mov    (%ebx),%eax
    4149:	89 04 24             	mov    %eax,(%esp)
    414c:	e8 ff 9c 01 00       	call   1de50 <free>
    4151:	89 1c 24             	mov    %ebx,(%esp)
    4154:	e8 f7 9c 01 00       	call   1de50 <free>
    4159:	8b 85 b4 fe ff ff    	mov    -0x14c(%ebp),%eax
    415f:	e9 49 fe ff ff       	jmp    3fad <fat_match+0xbd>
    4164:	31 db                	xor    %ebx,%ebx
    4166:	e9 28 ff ff ff       	jmp    4093 <fat_match+0x1a3>
    416b:	90                   	nop
    416c:	8d 74 26 00          	lea    0x0(%esi,%eiz,1),%esi

00004170 <fat_write>:
    4170:	55                   	push   %ebp
    4171:	89 e5                	mov    %esp,%ebp
    4173:	57                   	push   %edi
    4174:	56                   	push   %esi
    4175:	53                   	push   %ebx
    4176:	81 ec 8c 00 00 00    	sub    $0x8c,%esp
    417c:	8b 5d 14             	mov    0x14(%ebp),%ebx
    417f:	8b 45 0c             	mov    0xc(%ebp),%eax
    4182:	89 5d bc             	mov    %ebx,-0x44(%ebp)
    4185:	8b 5d 08             	mov    0x8(%ebp),%ebx
    4188:	8b 4d 10             	mov    0x10(%ebp),%ecx
    418b:	89 44 24 04          	mov    %eax,0x4(%esp)
    418f:	89 1c 24             	mov    %ebx,(%esp)
    4192:	89 4d b8             	mov    %ecx,-0x48(%ebp)
    4195:	e8 b6 0c 00 00       	call   4e50 <fat_idx_get_by_index>
    419a:	89 c6                	mov    %eax,%esi
    419c:	85 c0                	test   %eax,%eax
    419e:	0f 84 d4 04 00 00    	je     4678 <fat_write+0x508>
    41a4:	89 c2                	mov    %eax,%edx
    41a6:	8d 45 e4             	lea    -0x1c(%ebp),%eax
    41a9:	e8 b2 e3 ff ff       	call   2560 <fat_node_get_core>
    41ae:	83 c6 10             	add    $0x10,%esi
    41b1:	89 c3                	mov    %eax,%ebx
    41b3:	89 34 24             	mov    %esi,(%esp)
    41b6:	e8 95 0e 01 00       	call   15050 <fibril_mutex_unlock>
    41bb:	85 db                	test   %ebx,%ebx
    41bd:	0f 85 eb 02 00 00    	jne    44ae <fat_write+0x33e>
    41c3:	8b 45 e4             	mov    -0x1c(%ebp),%eax
    41c6:	85 c0                	test   %eax,%eax
    41c8:	0f 84 aa 04 00 00    	je     4678 <fat_write+0x508>
    41ce:	8b 00                	mov    (%eax),%eax
    41d0:	89 45 a4             	mov    %eax,-0x5c(%ebp)
    41d3:	85 c0                	test   %eax,%eax
    41d5:	0f 84 9d 04 00 00    	je     4678 <fat_write+0x508>
    41db:	8b 70 10             	mov    0x10(%eax),%esi
    41de:	8d 45 d8             	lea    -0x28(%ebp),%eax
    41e1:	89 44 24 04          	mov    %eax,0x4(%esp)
    41e5:	8d 45 d4             	lea    -0x2c(%ebp),%eax
    41e8:	89 04 24             	mov    %eax,(%esp)
    41eb:	89 75 a8             	mov    %esi,-0x58(%ebp)
    41ee:	e8 1d e1 01 00       	call   22310 <async_data_write_receive>
    41f3:	84 c0                	test   %al,%al
    41f5:	0f 84 d5 06 00 00    	je     48d0 <fat_write+0x760>
    41fb:	8b 5d 08             	mov    0x8(%ebp),%ebx
    41fe:	31 ff                	xor    %edi,%edi
    4200:	89 1c 24             	mov    %ebx,(%esp)
    4203:	e8 c8 71 00 00       	call   b3d0 <block_bb_get>
    4208:	8b 4d b8             	mov    -0x48(%ebp),%ecx
    420b:	8b 5d bc             	mov    -0x44(%ebp),%ebx
    420e:	89 45 ac             	mov    %eax,-0x54(%ebp)
    4211:	66 8b 70 0b          	mov    0xb(%eax),%si
    4215:	89 0c 24             	mov    %ecx,(%esp)
    4218:	66 89 75 98          	mov    %si,-0x68(%ebp)
    421c:	81 e6 ff ff 00 00    	and    $0xffff,%esi
    4222:	89 5c 24 04          	mov    %ebx,0x4(%esp)
    4226:	89 74 24 08          	mov    %esi,0x8(%esp)
    422a:	89 7c 24 0c          	mov    %edi,0xc(%esp)
    422e:	31 db                	xor    %ebx,%ebx
    4230:	e8 5b 62 02 00       	call   2a490 <__umoddi3>
    4235:	8b 4d d8             	mov    -0x28(%ebp),%ecx
    4238:	89 4d c0             	mov    %ecx,-0x40(%ebp)
    423b:	89 f1                	mov    %esi,%ecx
    423d:	29 c1                	sub    %eax,%ecx
    423f:	89 5d c4             	mov    %ebx,-0x3c(%ebp)
    4242:	89 fb                	mov    %edi,%ebx
    4244:	89 4d b0             	mov    %ecx,-0x50(%ebp)
    4247:	19 d3                	sbb    %edx,%ebx
    4249:	89 5d b4             	mov    %ebx,-0x4c(%ebp)
    424c:	83 fb 00             	cmp    $0x0,%ebx
    424f:	0f 87 0b 04 00 00    	ja     4660 <fat_write+0x4f0>
    4255:	8b 5d c0             	mov    -0x40(%ebp),%ebx
    4258:	39 d9                	cmp    %ebx,%ecx
    425a:	0f 87 00 04 00 00    	ja     4660 <fat_write+0x4f0>
    4260:	8b 45 98             	mov    -0x68(%ebp),%eax
    4263:	8b 55 b0             	mov    -0x50(%ebp),%edx
    4266:	25 ff ff 00 00       	and    $0xffff,%eax
    426b:	8b 75 a8             	mov    -0x58(%ebp),%esi
    426e:	39 c2                	cmp    %eax,%edx
    4270:	89 55 a0             	mov    %edx,-0x60(%ebp)
    4273:	0f 94 c1             	sete   %cl
    4276:	81 e1 ff 00 00 00    	and    $0xff,%ecx
    427c:	8b 5e 28             	mov    0x28(%esi),%ebx
    427f:	89 4d 94             	mov    %ecx,-0x6c(%ebp)
    4282:	8b 4d ac             	mov    -0x54(%ebp),%ecx
    4285:	31 d2                	xor    %edx,%edx
    4287:	89 5d c0             	mov    %ebx,-0x40(%ebp)
    428a:	8a 51 0d             	mov    0xd(%ecx),%dl
    428d:	89 c3                	mov    %eax,%ebx
    428f:	0f af da             	imul   %edx,%ebx
    4292:	8b 76 2c             	mov    0x2c(%esi),%esi
    4295:	89 df                	mov    %ebx,%edi
    4297:	89 75 c4             	mov    %esi,-0x3c(%ebp)
    429a:	8b 45 c0             	mov    -0x40(%ebp),%eax
    429d:	8b 55 c4             	mov    -0x3c(%ebp),%edx
    42a0:	89 5c 24 08          	mov    %ebx,0x8(%esp)
    42a4:	c1 ff 1f             	sar    $0x1f,%edi
    42a7:	89 04 24             	mov    %eax,(%esp)
    42aa:	89 7c 24 0c          	mov    %edi,0xc(%esp)
    42ae:	89 54 24 04          	mov    %edx,0x4(%esp)
    42b2:	e8 d9 61 02 00       	call   2a490 <__umoddi3>
    42b7:	8b 4d c4             	mov    -0x3c(%ebp),%ecx
    42ba:	09 d0                	or     %edx,%eax
    42bc:	8b 55 c0             	mov    -0x40(%ebp),%edx
    42bf:	0f 95 c0             	setne  %al
    42c2:	25 ff 00 00 00       	and    $0xff,%eax
    42c7:	89 4c 24 04          	mov    %ecx,0x4(%esp)
    42cb:	89 5c 24 08          	mov    %ebx,0x8(%esp)
    42cf:	89 7c 24 0c          	mov    %edi,0xc(%esp)
    42d3:	89 14 24             	mov    %edx,(%esp)
    42d6:	89 45 98             	mov    %eax,-0x68(%ebp)
    42d9:	c7 45 9c 00 00 00 00 	movl   $0x0,-0x64(%ebp)
    42e0:	e8 2b 5f 02 00       	call   2a210 <__udivdi3>
    42e5:	89 45 c0             	mov    %eax,-0x40(%ebp)
    42e8:	8b 45 98             	mov    -0x68(%ebp),%eax
    42eb:	01 45 c0             	add    %eax,-0x40(%ebp)
    42ee:	89 55 c4             	mov    %edx,-0x3c(%ebp)
    42f1:	8b 55 9c             	mov    -0x64(%ebp),%edx
    42f4:	8b 45 c0             	mov    -0x40(%ebp),%eax
    42f7:	11 55 c4             	adc    %edx,-0x3c(%ebp)
    42fa:	8b 55 c0             	mov    -0x40(%ebp),%edx
    42fd:	8b 4d c4             	mov    -0x3c(%ebp),%ecx
    4300:	89 de                	mov    %ebx,%esi
    4302:	0f af d7             	imul   %edi,%edx
    4305:	0f af cb             	imul   %ebx,%ecx
    4308:	01 d1                	add    %edx,%ecx
    430a:	f7 e3                	mul    %ebx
    430c:	01 ca                	add    %ecx,%edx
    430e:	89 45 c0             	mov    %eax,-0x40(%ebp)
    4311:	89 55 c4             	mov    %edx,-0x3c(%ebp)
    4314:	39 55 bc             	cmp    %edx,-0x44(%ebp)
    4317:	0f 87 af 01 00 00    	ja     44cc <fat_write+0x35c>
    431d:	0f 83 9d 01 00 00    	jae    44c0 <fat_write+0x350>
    4323:	8b 75 bc             	mov    -0x44(%ebp),%esi
    4326:	8b 5d b8             	mov    -0x48(%ebp),%ebx
    4329:	89 74 24 10          	mov    %esi,0x10(%esp)
    432d:	8b 45 ac             	mov    -0x54(%ebp),%eax
    4330:	8b 75 a8             	mov    -0x58(%ebp),%esi
    4333:	89 5c 24 0c          	mov    %ebx,0xc(%esp)
    4337:	c7 44 24 08 00 00 00 	movl   $0x0,0x8(%esp)
    433e:	00 
    433f:	89 74 24 04          	mov    %esi,0x4(%esp)
    4343:	89 04 24             	mov    %eax,(%esp)
    4346:	e8 35 54 00 00       	call   9780 <fat_fill_gap>
    434b:	89 c3                	mov    %eax,%ebx
    434d:	85 c0                	test   %eax,%eax
    434f:	0f 85 8a 02 00 00    	jne    45df <fat_write+0x46f>
    4355:	8b 75 ac             	mov    -0x54(%ebp),%esi
    4358:	8b 5d 94             	mov    -0x6c(%ebp),%ebx
    435b:	89 5c 24 14          	mov    %ebx,0x14(%esp)
    435f:	8b 4d b8             	mov    -0x48(%ebp),%ecx
    4362:	66 8b 46 0b          	mov    0xb(%esi),%ax
    4366:	8b 5d bc             	mov    -0x44(%ebp),%ebx
    4369:	25 ff ff 00 00       	and    $0xffff,%eax
    436e:	89 0c 24             	mov    %ecx,(%esp)
    4371:	89 5c 24 04          	mov    %ebx,0x4(%esp)
    4375:	89 44 24 08          	mov    %eax,0x8(%esp)
    4379:	c7 44 24 0c 00 00 00 	movl   $0x0,0xc(%esp)
    4380:	00 
    4381:	e8 8a 5e 02 00       	call   2a210 <__udivdi3>
    4386:	8b 5d a8             	mov    -0x58(%ebp),%ebx
    4389:	89 74 24 04          	mov    %esi,0x4(%esp)
    438d:	8d 75 e4             	lea    -0x1c(%ebp),%esi
    4390:	89 5c 24 08          	mov    %ebx,0x8(%esp)
    4394:	89 44 24 0c          	mov    %eax,0xc(%esp)
    4398:	89 54 24 10          	mov    %edx,0x10(%esp)
    439c:	89 34 24             	mov    %esi,(%esp)
    439f:	e8 9c 50 00 00       	call   9440 <fat_block_get>
    43a4:	89 c3                	mov    %eax,%ebx
    43a6:	85 c0                	test   %eax,%eax
    43a8:	0f 85 31 02 00 00    	jne    45df <fat_write+0x46f>
    43ae:	8b 5d a0             	mov    -0x60(%ebp),%ebx
    43b1:	8b 75 ac             	mov    -0x54(%ebp),%esi
    43b4:	89 5c 24 08          	mov    %ebx,0x8(%esp)
    43b8:	8b 55 bc             	mov    -0x44(%ebp),%edx
    43bb:	66 8b 46 0b          	mov    0xb(%esi),%ax
    43bf:	8b 74 24 08          	mov    0x8(%esp),%esi
    43c3:	25 ff ff 00 00       	and    $0xffff,%eax
    43c8:	8b 7c 24 0c          	mov    0xc(%esp),%edi
    43cc:	89 44 24 08          	mov    %eax,0x8(%esp)
    43d0:	8b 45 b8             	mov    -0x48(%ebp),%eax
    43d3:	c7 44 24 0c 00 00 00 	movl   $0x0,0xc(%esp)
    43da:	00 
    43db:	89 04 24             	mov    %eax,(%esp)
    43de:	89 54 24 04          	mov    %edx,0x4(%esp)
    43e2:	8b 5d e4             	mov    -0x1c(%ebp),%ebx
    43e5:	e8 a6 60 02 00       	call   2a490 <__umoddi3>
    43ea:	89 74 24 08          	mov    %esi,0x8(%esp)
    43ee:	89 7c 24 0c          	mov    %edi,0xc(%esp)
    43f2:	8b 73 54             	mov    0x54(%ebx),%esi
    43f5:	01 f0                	add    %esi,%eax
    43f7:	89 44 24 04          	mov    %eax,0x4(%esp)
    43fb:	8b 45 d4             	mov    -0x2c(%ebp),%eax
    43fe:	89 04 24             	mov    %eax,(%esp)
    4401:	e8 5a df 01 00       	call   22360 <async_data_write_finalize>
    4406:	8b 45 e4             	mov    -0x1c(%ebp),%eax
    4409:	c6 40 14 01          	movb   $0x1,0x14(%eax)
    440d:	89 04 24             	mov    %eax,(%esp)
    4410:	e8 2b 74 00 00       	call   b840 <block_put>
    4415:	89 c3                	mov    %eax,%ebx
    4417:	85 c0                	test   %eax,%eax
    4419:	75 31                	jne    444c <fat_write+0x2dc>
    441b:	8b 75 b0             	mov    -0x50(%ebp),%esi
    441e:	8b 7d b4             	mov    -0x4c(%ebp),%edi
    4421:	03 75 b8             	add    -0x48(%ebp),%esi
    4424:	8b 4d a8             	mov    -0x58(%ebp),%ecx
    4427:	13 7d bc             	adc    -0x44(%ebp),%edi
    442a:	3b 79 2c             	cmp    0x2c(%ecx),%edi
    442d:	0f 83 25 04 00 00    	jae    4858 <fat_write+0x6e8>
    4433:	8b 75 18             	mov    0x18(%ebp),%esi
    4436:	8b 4d a0             	mov    -0x60(%ebp),%ecx
    4439:	89 0e                	mov    %ecx,(%esi)
    443b:	8b 75 a8             	mov    -0x58(%ebp),%esi
    443e:	8b 4d 1c             	mov    0x1c(%ebp),%ecx
    4441:	8b 46 28             	mov    0x28(%esi),%eax
    4444:	8b 56 2c             	mov    0x2c(%esi),%edx
    4447:	89 51 04             	mov    %edx,0x4(%ecx)
    444a:	89 01                	mov    %eax,(%ecx)
    444c:	8b 4d a4             	mov    -0x5c(%ebp),%ecx
    444f:	8b 71 10             	mov    0x10(%ecx),%esi
    4452:	8d 7e 04             	lea    0x4(%esi),%edi
    4455:	89 3c 24             	mov    %edi,(%esp)
    4458:	e8 d3 0a 01 00       	call   14f30 <fibril_mutex_lock>
    445d:	8b 46 34             	mov    0x34(%esi),%eax
    4460:	48                   	dec    %eax
    4461:	89 46 34             	mov    %eax,0x34(%esi)
    4464:	85 c0                	test   %eax,%eax
    4466:	75 3e                	jne    44a6 <fat_write+0x336>
    4468:	8b 46 18             	mov    0x18(%esi),%eax
    446b:	85 c0                	test   %eax,%eax
    446d:	0f 84 1d 04 00 00    	je     4890 <fat_write+0x720>
    4473:	c7 04 24 c0 d6 02 00 	movl   $0x2d6c0,(%esp)
    447a:	e8 b1 0a 01 00       	call   14f30 <fibril_mutex_lock>
    447f:	c7 46 24 d0 d6 02 00 	movl   $0x2d6d0,0x24(%esi)
    4486:	8b 15 d0 d6 02 00    	mov    0x2d6d0,%edx
    448c:	8d 46 20             	lea    0x20(%esi),%eax
    448f:	89 56 20             	mov    %edx,0x20(%esi)
    4492:	89 42 04             	mov    %eax,0x4(%edx)
    4495:	c7 04 24 c0 d6 02 00 	movl   $0x2d6c0,(%esp)
    449c:	a3 d0 d6 02 00       	mov    %eax,0x2d6d0
    44a1:	e8 aa 0b 01 00       	call   15050 <fibril_mutex_unlock>
    44a6:	89 3c 24             	mov    %edi,(%esp)
    44a9:	e8 a2 0b 01 00       	call   15050 <fibril_mutex_unlock>
    44ae:	81 c4 8c 00 00 00    	add    $0x8c,%esp
    44b4:	89 d8                	mov    %ebx,%eax
    44b6:	5b                   	pop    %ebx
    44b7:	5e                   	pop    %esi
    44b8:	5f                   	pop    %edi
    44b9:	5d                   	pop    %ebp
    44ba:	c3                   	ret    
    44bb:	90                   	nop
    44bc:	8d 74 26 00          	lea    0x0(%esi,%eiz,1),%esi
    44c0:	8b 4d c0             	mov    -0x40(%ebp),%ecx
    44c3:	39 4d b8             	cmp    %ecx,-0x48(%ebp)
    44c6:	0f 82 57 fe ff ff    	jb     4323 <fat_write+0x1b3>
    44cc:	8b 45 b0             	mov    -0x50(%ebp),%eax
    44cf:	8b 55 b4             	mov    -0x4c(%ebp),%edx
    44d2:	03 45 b8             	add    -0x48(%ebp),%eax
    44d5:	13 55 bc             	adc    -0x44(%ebp),%edx
    44d8:	89 45 b0             	mov    %eax,-0x50(%ebp)
    44db:	8d 45 e0             	lea    -0x20(%ebp),%eax
    44de:	89 55 b4             	mov    %edx,-0x4c(%ebp)
    44e1:	89 44 24 10          	mov    %eax,0x10(%esp)
    44e5:	8b 54 24 08          	mov    0x8(%esp),%edx
    44e9:	8d 45 dc             	lea    -0x24(%ebp),%eax
    44ec:	89 55 98             	mov    %edx,-0x68(%ebp)
    44ef:	89 44 24 0c          	mov    %eax,0xc(%esp)
    44f3:	8b 55 b4             	mov    -0x4c(%ebp),%edx
    44f6:	8b 45 b0             	mov    -0x50(%ebp),%eax
    44f9:	8b 4c 24 0c          	mov    0xc(%esp),%ecx
    44fd:	89 74 24 08          	mov    %esi,0x8(%esp)
    4501:	89 7c 24 0c          	mov    %edi,0xc(%esp)
    4505:	89 04 24             	mov    %eax,(%esp)
    4508:	89 54 24 04          	mov    %edx,0x4(%esp)
    450c:	89 4d 9c             	mov    %ecx,-0x64(%ebp)
    450f:	e8 7c 5f 02 00       	call   2a490 <__umoddi3>
    4514:	8b 4d b4             	mov    -0x4c(%ebp),%ecx
    4517:	09 d0                	or     %edx,%eax
    4519:	8b 55 b0             	mov    -0x50(%ebp),%edx
    451c:	89 4c 24 04          	mov    %ecx,0x4(%esp)
    4520:	0f 95 c0             	setne  %al
    4523:	25 ff 00 00 00       	and    $0xff,%eax
    4528:	89 74 24 08          	mov    %esi,0x8(%esp)
    452c:	89 7c 24 0c          	mov    %edi,0xc(%esp)
    4530:	89 14 24             	mov    %edx,(%esp)
    4533:	89 45 88             	mov    %eax,-0x78(%ebp)
    4536:	c7 45 8c 00 00 00 00 	movl   $0x0,-0x74(%ebp)
    453d:	e8 ce 5c 02 00       	call   2a210 <__udivdi3>
    4542:	89 74 24 08          	mov    %esi,0x8(%esp)
    4546:	03 45 88             	add    -0x78(%ebp),%eax
    4549:	89 7c 24 0c          	mov    %edi,0xc(%esp)
    454d:	13 55 8c             	adc    -0x74(%ebp),%edx
    4550:	89 d1                	mov    %edx,%ecx
    4552:	89 fa                	mov    %edi,%edx
    4554:	0f af cb             	imul   %ebx,%ecx
    4557:	0f af d0             	imul   %eax,%edx
    455a:	01 d1                	add    %edx,%ecx
    455c:	f7 e3                	mul    %ebx
    455e:	01 ca                	add    %ecx,%edx
    4560:	2b 45 c0             	sub    -0x40(%ebp),%eax
    4563:	1b 55 c4             	sbb    -0x3c(%ebp),%edx
    4566:	89 04 24             	mov    %eax,(%esp)
    4569:	89 54 24 04          	mov    %edx,0x4(%esp)
    456d:	e8 9e 5c 02 00       	call   2a210 <__udivdi3>
    4572:	8b 5d 9c             	mov    -0x64(%ebp),%ebx
    4575:	89 5c 24 0c          	mov    %ebx,0xc(%esp)
    4579:	89 44 24 08          	mov    %eax,0x8(%esp)
    457d:	8b 5d 08             	mov    0x8(%ebp),%ebx
    4580:	8b 45 ac             	mov    -0x54(%ebp),%eax
    4583:	89 5c 24 04          	mov    %ebx,0x4(%esp)
    4587:	89 04 24             	mov    %eax,(%esp)
    458a:	e8 21 5d 00 00       	call   a2b0 <fat_alloc_clusters>
    458f:	89 c3                	mov    %eax,%ebx
    4591:	85 c0                	test   %eax,%eax
    4593:	75 4a                	jne    45df <fat_write+0x46f>
    4595:	8b 75 bc             	mov    -0x44(%ebp),%esi
    4598:	8b 45 dc             	mov    -0x24(%ebp),%eax
    459b:	8b 5d b8             	mov    -0x48(%ebp),%ebx
    459e:	89 74 24 10          	mov    %esi,0x10(%esp)
    45a2:	89 44 24 08          	mov    %eax,0x8(%esp)
    45a6:	8b 75 a8             	mov    -0x58(%ebp),%esi
    45a9:	8b 45 ac             	mov    -0x54(%ebp),%eax
    45ac:	89 5c 24 0c          	mov    %ebx,0xc(%esp)
    45b0:	89 74 24 04          	mov    %esi,0x4(%esp)
    45b4:	89 04 24             	mov    %eax,(%esp)
    45b7:	e8 c4 51 00 00       	call   9780 <fat_fill_gap>
    45bc:	89 c3                	mov    %eax,%ebx
    45be:	85 c0                	test   %eax,%eax
    45c0:	0f 84 e2 00 00 00    	je     46a8 <fat_write+0x538>
    45c6:	8b 45 dc             	mov    -0x24(%ebp),%eax
    45c9:	8b 4d 08             	mov    0x8(%ebp),%ecx
    45cc:	89 44 24 08          	mov    %eax,0x8(%esp)
    45d0:	89 4c 24 04          	mov    %ecx,0x4(%esp)
    45d4:	8b 45 ac             	mov    -0x54(%ebp),%eax
    45d7:	89 04 24             	mov    %eax,(%esp)
    45da:	e8 31 60 00 00       	call   a610 <fat_free_clusters>
    45df:	8b 4d a4             	mov    -0x5c(%ebp),%ecx
    45e2:	8b 71 10             	mov    0x10(%ecx),%esi
    45e5:	8d 7e 04             	lea    0x4(%esi),%edi
    45e8:	89 3c 24             	mov    %edi,(%esp)
    45eb:	e8 40 09 01 00       	call   14f30 <fibril_mutex_lock>
    45f0:	8b 46 34             	mov    0x34(%esi),%eax
    45f3:	48                   	dec    %eax
    45f4:	89 46 34             	mov    %eax,0x34(%esi)
    45f7:	85 c0                	test   %eax,%eax
    45f9:	75 3e                	jne    4639 <fat_write+0x4c9>
    45fb:	8b 4e 18             	mov    0x18(%esi),%ecx
    45fe:	85 c9                	test   %ecx,%ecx
    4600:	0f 84 82 00 00 00    	je     4688 <fat_write+0x518>
    4606:	c7 04 24 c0 d6 02 00 	movl   $0x2d6c0,(%esp)
    460d:	e8 1e 09 01 00       	call   14f30 <fibril_mutex_lock>
    4612:	c7 46 24 d0 d6 02 00 	movl   $0x2d6d0,0x24(%esi)
    4619:	8b 15 d0 d6 02 00    	mov    0x2d6d0,%edx
    461f:	8d 46 20             	lea    0x20(%esi),%eax
    4622:	89 56 20             	mov    %edx,0x20(%esi)
    4625:	89 42 04             	mov    %eax,0x4(%edx)
    4628:	c7 04 24 c0 d6 02 00 	movl   $0x2d6c0,(%esp)
    462f:	a3 d0 d6 02 00       	mov    %eax,0x2d6d0
    4634:	e8 17 0a 01 00       	call   15050 <fibril_mutex_unlock>
    4639:	89 3c 24             	mov    %edi,(%esp)
    463c:	e8 0f 0a 01 00       	call   15050 <fibril_mutex_unlock>
    4641:	8b 45 d4             	mov    -0x2c(%ebp),%eax
    4644:	89 5c 24 04          	mov    %ebx,0x4(%esp)
    4648:	89 04 24             	mov    %eax,(%esp)
    464b:	e8 30 c2 01 00       	call   20880 <async_answer_0>
    4650:	81 c4 8c 00 00 00    	add    $0x8c,%esp
    4656:	89 d8                	mov    %ebx,%eax
    4658:	5b                   	pop    %ebx
    4659:	5e                   	pop    %esi
    465a:	5f                   	pop    %edi
    465b:	5d                   	pop    %ebp
    465c:	c3                   	ret    
    465d:	8d 76 00             	lea    0x0(%esi),%esi
    4660:	8b 45 c0             	mov    -0x40(%ebp),%eax
    4663:	8b 55 c4             	mov    -0x3c(%ebp),%edx
    4666:	89 45 b0             	mov    %eax,-0x50(%ebp)
    4669:	89 55 b4             	mov    %edx,-0x4c(%ebp)
    466c:	e9 ef fb ff ff       	jmp    4260 <fat_write+0xf0>
    4671:	8d b4 26 00 00 00 00 	lea    0x0(%esi,%eiz,1),%esi
    4678:	81 c4 8c 00 00 00    	add    $0x8c,%esp
    467e:	83 cb ff             	or     $0xffffffff,%ebx
    4681:	89 d8                	mov    %ebx,%eax
    4683:	5b                   	pop    %ebx
    4684:	5e                   	pop    %esi
    4685:	5f                   	pop    %edi
    4686:	5d                   	pop    %ebp
    4687:	c3                   	ret    
    4688:	89 3c 24             	mov    %edi,(%esp)
    468b:	e8 c0 09 01 00       	call   15050 <fibril_mutex_unlock>
    4690:	8b 06                	mov    (%esi),%eax
    4692:	89 04 24             	mov    %eax,(%esp)
    4695:	e8 b6 97 01 00       	call   1de50 <free>
    469a:	89 34 24             	mov    %esi,(%esp)
    469d:	e8 ae 97 01 00       	call   1de50 <free>
    46a2:	eb 9d                	jmp    4641 <fat_write+0x4d1>
    46a4:	8d 74 26 00          	lea    0x0(%esi,%eiz,1),%esi
    46a8:	8b 4d 94             	mov    -0x6c(%ebp),%ecx
    46ab:	8b 75 ac             	mov    -0x54(%ebp),%esi
    46ae:	89 4c 24 1c          	mov    %ecx,0x1c(%esp)
    46b2:	8b 55 bc             	mov    -0x44(%ebp),%edx
    46b5:	66 8b 46 0b          	mov    0xb(%esi),%ax
    46b9:	c7 44 24 0c 00 00 00 	movl   $0x0,0xc(%esp)
    46c0:	00 
    46c1:	25 ff ff 00 00       	and    $0xffff,%eax
    46c6:	89 54 24 04          	mov    %edx,0x4(%esp)
    46ca:	89 44 24 08          	mov    %eax,0x8(%esp)
    46ce:	8b 45 b8             	mov    -0x48(%ebp),%eax
    46d1:	89 04 24             	mov    %eax,(%esp)
    46d4:	e8 37 5b 02 00       	call   2a210 <__udivdi3>
    46d9:	31 c9                	xor    %ecx,%ecx
    46db:	8a 4e 0d             	mov    0xd(%esi),%cl
    46de:	89 5c 24 0c          	mov    %ebx,0xc(%esp)
    46e2:	89 4c 24 08          	mov    %ecx,0x8(%esp)
    46e6:	89 04 24             	mov    %eax,(%esp)
    46e9:	89 54 24 04          	mov    %edx,0x4(%esp)
    46ed:	8d 5d e4             	lea    -0x1c(%ebp),%ebx
    46f0:	e8 9b 5d 02 00       	call   2a490 <__umoddi3>
    46f5:	8b 4d 08             	mov    0x8(%ebp),%ecx
    46f8:	89 44 24 14          	mov    %eax,0x14(%esp)
    46fc:	8b 45 e0             	mov    -0x20(%ebp),%eax
    46ff:	89 1c 24             	mov    %ebx,(%esp)
    4702:	89 54 24 18          	mov    %edx,0x18(%esp)
    4706:	c7 44 24 10 00 00 00 	movl   $0x0,0x10(%esp)
    470d:	00 
    470e:	89 44 24 0c          	mov    %eax,0xc(%esp)
    4712:	89 4c 24 08          	mov    %ecx,0x8(%esp)
    4716:	89 74 24 04          	mov    %esi,0x4(%esp)
    471a:	e8 61 4a 00 00       	call   9180 <_fat_block_get>
    471f:	89 c3                	mov    %eax,%ebx
    4721:	85 c0                	test   %eax,%eax
    4723:	0f 85 4f 01 00 00    	jne    4878 <fat_write+0x708>
    4729:	8b 5d a0             	mov    -0x60(%ebp),%ebx
    472c:	8b 75 ac             	mov    -0x54(%ebp),%esi
    472f:	89 5c 24 08          	mov    %ebx,0x8(%esp)
    4733:	8b 55 bc             	mov    -0x44(%ebp),%edx
    4736:	66 8b 46 0b          	mov    0xb(%esi),%ax
    473a:	8b 74 24 08          	mov    0x8(%esp),%esi
    473e:	25 ff ff 00 00       	and    $0xffff,%eax
    4743:	8b 7c 24 0c          	mov    0xc(%esp),%edi
    4747:	89 44 24 08          	mov    %eax,0x8(%esp)
    474b:	8b 45 b8             	mov    -0x48(%ebp),%eax
    474e:	c7 44 24 0c 00 00 00 	movl   $0x0,0xc(%esp)
    4755:	00 
    4756:	89 04 24             	mov    %eax,(%esp)
    4759:	89 54 24 04          	mov    %edx,0x4(%esp)
    475d:	8b 5d e4             	mov    -0x1c(%ebp),%ebx
    4760:	e8 2b 5d 02 00       	call   2a490 <__umoddi3>
    4765:	89 74 24 08          	mov    %esi,0x8(%esp)
    4769:	89 7c 24 0c          	mov    %edi,0xc(%esp)
    476d:	8b 53 54             	mov    0x54(%ebx),%edx
    4770:	01 d0                	add    %edx,%eax
    4772:	89 44 24 04          	mov    %eax,0x4(%esp)
    4776:	8b 45 d4             	mov    -0x2c(%ebp),%eax
    4779:	89 04 24             	mov    %eax,(%esp)
    477c:	e8 df db 01 00       	call   22360 <async_data_write_finalize>
    4781:	8b 45 e4             	mov    -0x1c(%ebp),%eax
    4784:	c6 40 14 01          	movb   $0x1,0x14(%eax)
    4788:	89 04 24             	mov    %eax,(%esp)
    478b:	e8 b0 70 00 00       	call   b840 <block_put>
    4790:	89 c3                	mov    %eax,%ebx
    4792:	85 c0                	test   %eax,%eax
    4794:	0f 85 16 01 00 00    	jne    48b0 <fat_write+0x740>
    479a:	8b 45 e0             	mov    -0x20(%ebp),%eax
    479d:	8b 5d a8             	mov    -0x58(%ebp),%ebx
    47a0:	89 44 24 0c          	mov    %eax,0xc(%esp)
    47a4:	8b 45 dc             	mov    -0x24(%ebp),%eax
    47a7:	89 44 24 08          	mov    %eax,0x8(%esp)
    47ab:	8b 45 ac             	mov    -0x54(%ebp),%eax
    47ae:	89 5c 24 04          	mov    %ebx,0x4(%esp)
    47b2:	89 04 24             	mov    %eax,(%esp)
    47b5:	e8 a6 61 00 00       	call   a960 <fat_append_clusters>
    47ba:	89 c3                	mov    %eax,%ebx
    47bc:	85 c0                	test   %eax,%eax
    47be:	0f 85 ec 00 00 00    	jne    48b0 <fat_write+0x740>
    47c4:	8b 4d a8             	mov    -0x58(%ebp),%ecx
    47c7:	8b 45 b0             	mov    -0x50(%ebp),%eax
    47ca:	8b 55 b4             	mov    -0x4c(%ebp),%edx
    47cd:	8b 75 1c             	mov    0x1c(%ebp),%esi
    47d0:	89 41 28             	mov    %eax,0x28(%ecx)
    47d3:	89 51 2c             	mov    %edx,0x2c(%ecx)
    47d6:	8b 4d a4             	mov    -0x5c(%ebp),%ecx
    47d9:	89 06                	mov    %eax,(%esi)
    47db:	89 56 04             	mov    %edx,0x4(%esi)
    47de:	8b 71 10             	mov    0x10(%ecx),%esi
    47e1:	8d 7e 04             	lea    0x4(%esi),%edi
    47e4:	89 3c 24             	mov    %edi,(%esp)
    47e7:	e8 44 07 01 00       	call   14f30 <fibril_mutex_lock>
    47ec:	8b 46 34             	mov    0x34(%esi),%eax
    47ef:	48                   	dec    %eax
    47f0:	89 46 34             	mov    %eax,0x34(%esi)
    47f3:	85 c0                	test   %eax,%eax
    47f5:	75 3e                	jne    4835 <fat_write+0x6c5>
    47f7:	8b 4e 18             	mov    0x18(%esi),%ecx
    47fa:	85 c9                	test   %ecx,%ecx
    47fc:	0f 84 65 01 00 00    	je     4967 <fat_write+0x7f7>
    4802:	c7 04 24 c0 d6 02 00 	movl   $0x2d6c0,(%esp)
    4809:	e8 22 07 01 00       	call   14f30 <fibril_mutex_lock>
    480e:	8b 15 d0 d6 02 00    	mov    0x2d6d0,%edx
    4814:	8d 46 20             	lea    0x20(%esi),%eax
    4817:	c7 46 24 d0 d6 02 00 	movl   $0x2d6d0,0x24(%esi)
    481e:	89 56 20             	mov    %edx,0x20(%esi)
    4821:	89 42 04             	mov    %eax,0x4(%edx)
    4824:	c7 04 24 c0 d6 02 00 	movl   $0x2d6c0,(%esp)
    482b:	a3 d0 d6 02 00       	mov    %eax,0x2d6d0
    4830:	e8 1b 08 01 00       	call   15050 <fibril_mutex_unlock>
    4835:	89 3c 24             	mov    %edi,(%esp)
    4838:	e8 13 08 01 00       	call   15050 <fibril_mutex_unlock>
    483d:	8b 75 a8             	mov    -0x58(%ebp),%esi
    4840:	8b 45 18             	mov    0x18(%ebp),%eax
    4843:	8b 4d a0             	mov    -0x60(%ebp),%ecx
    4846:	c6 46 38 01          	movb   $0x1,0x38(%esi)
    484a:	89 08                	mov    %ecx,(%eax)
    484c:	e9 5d fc ff ff       	jmp    44ae <fat_write+0x33e>
    4851:	8d b4 26 00 00 00 00 	lea    0x0(%esi,%eiz,1),%esi
    4858:	77 09                	ja     4863 <fat_write+0x6f3>
    485a:	3b 71 28             	cmp    0x28(%ecx),%esi
    485d:	0f 86 d0 fb ff ff    	jbe    4433 <fat_write+0x2c3>
    4863:	8b 4d a8             	mov    -0x58(%ebp),%ecx
    4866:	89 71 28             	mov    %esi,0x28(%ecx)
    4869:	89 79 2c             	mov    %edi,0x2c(%ecx)
    486c:	c6 41 38 01          	movb   $0x1,0x38(%ecx)
    4870:	e9 be fb ff ff       	jmp    4433 <fat_write+0x2c3>
    4875:	8d 76 00             	lea    0x0(%esi),%esi
    4878:	8b 45 dc             	mov    -0x24(%ebp),%eax
    487b:	8b 75 08             	mov    0x8(%ebp),%esi
    487e:	89 44 24 08          	mov    %eax,0x8(%esp)
    4882:	89 74 24 04          	mov    %esi,0x4(%esp)
    4886:	e9 49 fd ff ff       	jmp    45d4 <fat_write+0x464>
    488b:	90                   	nop
    488c:	8d 74 26 00          	lea    0x0(%esi,%eiz,1),%esi
    4890:	89 3c 24             	mov    %edi,(%esp)
    4893:	e8 b8 07 01 00       	call   15050 <fibril_mutex_unlock>
    4898:	8b 06                	mov    (%esi),%eax
    489a:	89 04 24             	mov    %eax,(%esp)
    489d:	e8 ae 95 01 00       	call   1de50 <free>
    48a2:	89 34 24             	mov    %esi,(%esp)
    48a5:	e8 a6 95 01 00       	call   1de50 <free>
    48aa:	e9 ff fb ff ff       	jmp    44ae <fat_write+0x33e>
    48af:	90                   	nop
    48b0:	8b 45 dc             	mov    -0x24(%ebp),%eax
    48b3:	8b 4d 08             	mov    0x8(%ebp),%ecx
    48b6:	89 44 24 08          	mov    %eax,0x8(%esp)
    48ba:	8b 45 ac             	mov    -0x54(%ebp),%eax
    48bd:	89 4c 24 04          	mov    %ecx,0x4(%esp)
    48c1:	89 04 24             	mov    %eax,(%esp)
    48c4:	e8 47 5d 00 00       	call   a610 <fat_free_clusters>
    48c9:	e9 7e fb ff ff       	jmp    444c <fat_write+0x2dc>
    48ce:	66 90                	xchg   %ax,%ax
    48d0:	8b 4d a4             	mov    -0x5c(%ebp),%ecx
    48d3:	8b 59 10             	mov    0x10(%ecx),%ebx
    48d6:	8d 73 04             	lea    0x4(%ebx),%esi
    48d9:	89 34 24             	mov    %esi,(%esp)
    48dc:	e8 4f 06 01 00       	call   14f30 <fibril_mutex_lock>
    48e1:	8b 43 34             	mov    0x34(%ebx),%eax
    48e4:	48                   	dec    %eax
    48e5:	89 43 34             	mov    %eax,0x34(%ebx)
    48e8:	85 c0                	test   %eax,%eax
    48ea:	75 3a                	jne    4926 <fat_write+0x7b6>
    48ec:	8b 7b 18             	mov    0x18(%ebx),%edi
    48ef:	85 ff                	test   %edi,%edi
    48f1:	74 58                	je     494b <fat_write+0x7db>
    48f3:	c7 04 24 c0 d6 02 00 	movl   $0x2d6c0,(%esp)
    48fa:	e8 31 06 01 00       	call   14f30 <fibril_mutex_lock>
    48ff:	8b 15 d0 d6 02 00    	mov    0x2d6d0,%edx
    4905:	8d 43 20             	lea    0x20(%ebx),%eax
    4908:	c7 43 24 d0 d6 02 00 	movl   $0x2d6d0,0x24(%ebx)
    490f:	89 53 20             	mov    %edx,0x20(%ebx)
    4912:	89 42 04             	mov    %eax,0x4(%edx)
    4915:	c7 04 24 c0 d6 02 00 	movl   $0x2d6c0,(%esp)
    491c:	a3 d0 d6 02 00       	mov    %eax,0x2d6d0
    4921:	e8 2a 07 01 00       	call   15050 <fibril_mutex_unlock>
    4926:	89 34 24             	mov    %esi,(%esp)
    4929:	e8 22 07 01 00       	call   15050 <fibril_mutex_unlock>
    492e:	8b 45 d4             	mov    -0x2c(%ebp),%eax
    4931:	c7 44 24 04 f2 ff ff 	movl   $0xfffffff2,0x4(%esp)
    4938:	ff 
    4939:	89 04 24             	mov    %eax,(%esp)
    493c:	bb f2 ff ff ff       	mov    $0xfffffff2,%ebx
    4941:	e8 3a bf 01 00       	call   20880 <async_answer_0>
    4946:	e9 63 fb ff ff       	jmp    44ae <fat_write+0x33e>
    494b:	89 34 24             	mov    %esi,(%esp)
    494e:	e8 fd 06 01 00       	call   15050 <fibril_mutex_unlock>
    4953:	8b 03                	mov    (%ebx),%eax
    4955:	89 04 24             	mov    %eax,(%esp)
    4958:	e8 f3 94 01 00       	call   1de50 <free>
    495d:	89 1c 24             	mov    %ebx,(%esp)
    4960:	e8 eb 94 01 00       	call   1de50 <free>
    4965:	eb c7                	jmp    492e <fat_write+0x7be>
    4967:	89 3c 24             	mov    %edi,(%esp)
    496a:	e8 e1 06 01 00       	call   15050 <fibril_mutex_unlock>
    496f:	8b 06                	mov    (%esi),%eax
    4971:	89 04 24             	mov    %eax,(%esp)
    4974:	e8 d7 94 01 00       	call   1de50 <free>
    4979:	89 34 24             	mov    %esi,(%esp)
    497c:	e8 cf 94 01 00       	call   1de50 <free>
    4981:	e9 b7 fe ff ff       	jmp    483d <fat_write+0x6cd>
    4986:	66 90                	xchg   %ax,%ax
    4988:	66 90                	xchg   %ax,%ax
    498a:	66 90                	xchg   %ax,%ax
    498c:	66 90                	xchg   %ax,%ax
    498e:	66 90                	xchg   %ax,%ax

00004990 <pos_key_hash>:
    4990:	55                   	push   %ebp
    4991:	89 e5                	mov    %esp,%ebp
    4993:	53                   	push   %ebx
    4994:	8b 45 08             	mov    0x8(%ebp),%eax
    4997:	8b 48 04             	mov    0x4(%eax),%ecx
    499a:	8b 58 08             	mov    0x8(%eax),%ebx
    499d:	89 ca                	mov    %ecx,%edx
    499f:	c1 ca 1b             	ror    $0x1b,%edx
    49a2:	8d 94 13 b9 79 37 9e 	lea    -0x61c88647(%ebx,%edx,1),%edx
    49a9:	5b                   	pop    %ebx
    49aa:	31 ca                	xor    %ecx,%edx
    49ac:	8b 08                	mov    (%eax),%ecx
    49ae:	89 d0                	mov    %edx,%eax
    49b0:	5d                   	pop    %ebp
    49b1:	c1 c8 1b             	ror    $0x1b,%eax
    49b4:	8d 84 01 b9 79 37 9e 	lea    -0x61c88647(%ecx,%eax,1),%eax
    49bb:	31 d0                	xor    %edx,%eax
    49bd:	c3                   	ret    
    49be:	66 90                	xchg   %ax,%ax

000049c0 <pos_hash>:
    49c0:	55                   	push   %ebp
    49c1:	89 e5                	mov    %esp,%ebp
    49c3:	53                   	push   %ebx
    49c4:	8b 45 08             	mov    0x8(%ebp),%eax
    49c7:	8b 48 28             	mov    0x28(%eax),%ecx
    49ca:	8b 58 2c             	mov    0x2c(%eax),%ebx
    49cd:	89 ca                	mov    %ecx,%edx
    49cf:	c1 ca 1b             	ror    $0x1b,%edx
    49d2:	8d 94 13 b9 79 37 9e 	lea    -0x61c88647(%ebx,%edx,1),%edx
    49d9:	5b                   	pop    %ebx
    49da:	31 ca                	xor    %ecx,%edx
    49dc:	8b 48 20             	mov    0x20(%eax),%ecx
    49df:	89 d0                	mov    %edx,%eax
    49e1:	5d                   	pop    %ebp
    49e2:	c1 c8 1b             	ror    $0x1b,%eax
    49e5:	8d 84 01 b9 79 37 9e 	lea    -0x61c88647(%ecx,%eax,1),%eax
    49ec:	31 d0                	xor    %edx,%eax
    49ee:	c3                   	ret    
    49ef:	90                   	nop

000049f0 <pos_key_equal>:
    49f0:	55                   	push   %ebp
    49f1:	31 c0                	xor    %eax,%eax
    49f3:	89 e5                	mov    %esp,%ebp
    49f5:	53                   	push   %ebx
    49f6:	8b 55 0c             	mov    0xc(%ebp),%edx
    49f9:	8b 4d 08             	mov    0x8(%ebp),%ecx
    49fc:	8b 5a 20             	mov    0x20(%edx),%ebx
    49ff:	39 19                	cmp    %ebx,(%ecx)
    4a01:	74 05                	je     4a08 <pos_key_equal+0x18>
    4a03:	5b                   	pop    %ebx
    4a04:	5d                   	pop    %ebp
    4a05:	c3                   	ret    
    4a06:	66 90                	xchg   %ax,%ax
    4a08:	8b 5a 2c             	mov    0x2c(%edx),%ebx
    4a0b:	39 59 08             	cmp    %ebx,0x8(%ecx)
    4a0e:	75 f3                	jne    4a03 <pos_key_equal+0x13>
    4a10:	8b 42 28             	mov    0x28(%edx),%eax
    4a13:	39 41 04             	cmp    %eax,0x4(%ecx)
    4a16:	0f 94 c0             	sete   %al
    4a19:	eb e8                	jmp    4a03 <pos_key_equal+0x13>
    4a1b:	90                   	nop
    4a1c:	8d 74 26 00          	lea    0x0(%esi,%eiz,1),%esi

00004a20 <idx_key_hash>:
    4a20:	55                   	push   %ebp
    4a21:	89 e5                	mov    %esp,%ebp
    4a23:	8b 45 08             	mov    0x8(%ebp),%eax
    4a26:	5d                   	pop    %ebp
    4a27:	8b 10                	mov    (%eax),%edx
    4a29:	8b 48 04             	mov    0x4(%eax),%ecx
    4a2c:	89 d0                	mov    %edx,%eax
    4a2e:	c1 c8 1b             	ror    $0x1b,%eax
    4a31:	8d 84 01 b9 79 37 9e 	lea    -0x61c88647(%ecx,%eax,1),%eax
    4a38:	31 d0                	xor    %edx,%eax
    4a3a:	c3                   	ret    
    4a3b:	90                   	nop
    4a3c:	8d 74 26 00          	lea    0x0(%esi,%eiz,1),%esi

00004a40 <idx_hash>:
    4a40:	55                   	push   %ebp
    4a41:	89 e5                	mov    %esp,%ebp
    4a43:	8b 45 08             	mov    0x8(%ebp),%eax
    4a46:	5d                   	pop    %ebp
    4a47:	8b 50 18             	mov    0x18(%eax),%edx
    4a4a:	8b 48 1c             	mov    0x1c(%eax),%ecx
    4a4d:	89 d0                	mov    %edx,%eax
    4a4f:	c1 c8 1b             	ror    $0x1b,%eax
    4a52:	8d 84 01 b9 79 37 9e 	lea    -0x61c88647(%ecx,%eax,1),%eax
    4a59:	31 d0                	xor    %edx,%eax
    4a5b:	c3                   	ret    
    4a5c:	8d 74 26 00          	lea    0x0(%esi,%eiz,1),%esi

00004a60 <idx_key_equal>:
    4a60:	55                   	push   %ebp
    4a61:	31 c0                	xor    %eax,%eax
    4a63:	89 e5                	mov    %esp,%ebp
    4a65:	53                   	push   %ebx
    4a66:	8b 55 0c             	mov    0xc(%ebp),%edx
    4a69:	8b 4d 08             	mov    0x8(%ebp),%ecx
    4a6c:	8b 5a 1c             	mov    0x1c(%edx),%ebx
    4a6f:	83 ea 08             	sub    $0x8,%edx
    4a72:	39 59 04             	cmp    %ebx,0x4(%ecx)
    4a75:	74 09                	je     4a80 <idx_key_equal+0x20>
    4a77:	5b                   	pop    %ebx
    4a78:	5d                   	pop    %ebp
    4a79:	c3                   	ret    
    4a7a:	8d b6 00 00 00 00    	lea    0x0(%esi),%esi
    4a80:	8b 42 20             	mov    0x20(%edx),%eax
    4a83:	5b                   	pop    %ebx
    4a84:	39 01                	cmp    %eax,(%ecx)
    4a86:	5d                   	pop    %ebp
    4a87:	0f 94 c0             	sete   %al
    4a8a:	c3                   	ret    
    4a8b:	90                   	nop
    4a8c:	8d 74 26 00          	lea    0x0(%esi,%eiz,1),%esi

00004a90 <idx_remove_callback>:
    4a90:	55                   	push   %ebp
    4a91:	89 e5                	mov    %esp,%ebp
    4a93:	8b 45 08             	mov    0x8(%ebp),%eax
    4a96:	83 e8 08             	sub    $0x8,%eax
    4a99:	89 45 08             	mov    %eax,0x8(%ebp)
    4a9c:	5d                   	pop    %ebp
    4a9d:	e9 ae 93 01 00       	jmp    1de50 <free>
    4aa2:	8d b4 26 00 00 00 00 	lea    0x0(%esi,%eiz,1),%esi
    4aa9:	8d bc 27 00 00 00 00 	lea    0x0(%edi,%eiz,1),%edi

00004ab0 <rm_idx_service_id>:
    4ab0:	55                   	push   %ebp
    4ab1:	89 e5                	mov    %esp,%ebp
    4ab3:	83 ec 18             	sub    $0x18,%esp
    4ab6:	8b 55 0c             	mov    0xc(%ebp),%edx
    4ab9:	8b 45 08             	mov    0x8(%ebp),%eax
    4abc:	8b 0a                	mov    (%edx),%ecx
    4abe:	39 48 18             	cmp    %ecx,0x18(%eax)
    4ac1:	74 05                	je     4ac8 <rm_idx_service_id+0x18>
    4ac3:	b0 01                	mov    $0x1,%al
    4ac5:	c9                   	leave  
    4ac6:	c3                   	ret    
    4ac7:	90                   	nop
    4ac8:	89 44 24 04          	mov    %eax,0x4(%esp)
    4acc:	c7 04 24 90 d9 02 00 	movl   $0x2d990,(%esp)
    4ad3:	e8 98 f7 01 00       	call   24270 <hash_table_remove_item>
    4ad8:	b0 01                	mov    $0x1,%al
    4ada:	c9                   	leave  
    4adb:	c3                   	ret    
    4adc:	8d 74 26 00          	lea    0x0(%esi,%eiz,1),%esi

00004ae0 <rm_pos_service_id>:
    4ae0:	55                   	push   %ebp
    4ae1:	89 e5                	mov    %esp,%ebp
    4ae3:	83 ec 18             	sub    $0x18,%esp
    4ae6:	8b 55 0c             	mov    0xc(%ebp),%edx
    4ae9:	8b 45 08             	mov    0x8(%ebp),%eax
    4aec:	8b 0a                	mov    (%edx),%ecx
    4aee:	39 48 20             	cmp    %ecx,0x20(%eax)
    4af1:	74 05                	je     4af8 <rm_pos_service_id+0x18>
    4af3:	b0 01                	mov    $0x1,%al
    4af5:	c9                   	leave  
    4af6:	c3                   	ret    
    4af7:	90                   	nop
    4af8:	89 44 24 04          	mov    %eax,0x4(%esp)
    4afc:	c7 04 24 ac d9 02 00 	movl   $0x2d9ac,(%esp)
    4b03:	e8 68 f7 01 00       	call   24270 <hash_table_remove_item>
    4b08:	b0 01                	mov    $0x1,%al
    4b0a:	c9                   	leave  
    4b0b:	c3                   	ret    
    4b0c:	8d 74 26 00          	lea    0x0(%esi,%eiz,1),%esi

00004b10 <fat_index_alloc>:
    4b10:	55                   	push   %ebp
    4b11:	89 e5                	mov    %esp,%ebp
    4b13:	56                   	push   %esi
    4b14:	53                   	push   %ebx
    4b15:	89 d6                	mov    %edx,%esi
    4b17:	83 ec 10             	sub    $0x10,%esp
    4b1a:	85 d2                	test   %edx,%edx
    4b1c:	0f 84 df 00 00 00    	je     4c01 <fat_index_alloc+0xf1>
    4b22:	c7 04 24 e8 d6 02 00 	movl   $0x2d6e8,(%esp)
    4b29:	89 c3                	mov    %eax,%ebx
    4b2b:	e8 00 04 01 00       	call   14f30 <fibril_mutex_lock>
    4b30:	8b 0d fc d6 02 00    	mov    0x2d6fc,%ecx
    4b36:	81 f9 f8 d6 02 00    	cmp    $0x2d6f8,%ecx
    4b3c:	75 0d                	jne    4b4b <fat_index_alloc+0x3b>
    4b3e:	eb 78                	jmp    4bb8 <fat_index_alloc+0xa8>
    4b40:	8b 49 04             	mov    0x4(%ecx),%ecx
    4b43:	81 f9 f8 d6 02 00    	cmp    $0x2d6f8,%ecx
    4b49:	74 6d                	je     4bb8 <fat_index_alloc+0xa8>
    4b4b:	3b 59 08             	cmp    0x8(%ecx),%ebx
    4b4e:	75 f0                	jne    4b40 <fat_index_alloc+0x30>
    4b50:	8b 41 1c             	mov    0x1c(%ecx),%eax
    4b53:	8d 51 18             	lea    0x18(%ecx),%edx
    4b56:	39 d0                	cmp    %edx,%eax
    4b58:	74 73                	je     4bcd <fat_index_alloc+0xbd>
    4b5a:	8b 50 08             	mov    0x8(%eax),%edx
    4b5d:	89 16                	mov    %edx,(%esi)
    4b5f:	8b 50 08             	mov    0x8(%eax),%edx
    4b62:	3b 50 0c             	cmp    0xc(%eax),%edx
    4b65:	8d 4a 01             	lea    0x1(%edx),%ecx
    4b68:	89 48 08             	mov    %ecx,0x8(%eax)
    4b6b:	74 1b                	je     4b88 <fat_index_alloc+0x78>
    4b6d:	c7 04 24 e8 d6 02 00 	movl   $0x2d6e8,(%esp)
    4b74:	e8 d7 04 01 00       	call   15050 <fibril_mutex_unlock>
    4b79:	b0 01                	mov    $0x1,%al
    4b7b:	83 c4 10             	add    $0x10,%esp
    4b7e:	5b                   	pop    %ebx
    4b7f:	5e                   	pop    %esi
    4b80:	5d                   	pop    %ebp
    4b81:	c3                   	ret    
    4b82:	8d b6 00 00 00 00    	lea    0x0(%esi),%esi
    4b88:	8b 08                	mov    (%eax),%ecx
    4b8a:	85 c9                	test   %ecx,%ecx
    4b8c:	74 0e                	je     4b9c <fat_index_alloc+0x8c>
    4b8e:	8b 50 04             	mov    0x4(%eax),%edx
    4b91:	85 d2                	test   %edx,%edx
    4b93:	74 07                	je     4b9c <fat_index_alloc+0x8c>
    4b95:	89 0a                	mov    %ecx,(%edx)
    4b97:	8b 08                	mov    (%eax),%ecx
    4b99:	89 51 04             	mov    %edx,0x4(%ecx)
    4b9c:	c7 00 00 00 00 00    	movl   $0x0,(%eax)
    4ba2:	c7 40 04 00 00 00 00 	movl   $0x0,0x4(%eax)
    4ba9:	89 04 24             	mov    %eax,(%esp)
    4bac:	e8 9f 92 01 00       	call   1de50 <free>
    4bb1:	eb ba                	jmp    4b6d <fat_index_alloc+0x5d>
    4bb3:	90                   	nop
    4bb4:	8d 74 26 00          	lea    0x0(%esi,%eiz,1),%esi
    4bb8:	c7 04 24 e8 d6 02 00 	movl   $0x2d6e8,(%esp)
    4bbf:	e8 8c 04 01 00       	call   15050 <fibril_mutex_unlock>
    4bc4:	83 c4 10             	add    $0x10,%esp
    4bc7:	31 c0                	xor    %eax,%eax
    4bc9:	5b                   	pop    %ebx
    4bca:	5e                   	pop    %esi
    4bcb:	5d                   	pop    %ebp
    4bcc:	c3                   	ret    
    4bcd:	8b 51 14             	mov    0x14(%ecx),%edx
    4bd0:	8b 41 10             	mov    0x10(%ecx),%eax
    4bd3:	89 d3                	mov    %edx,%ebx
    4bd5:	09 c3                	or     %eax,%ebx
    4bd7:	74 df                	je     4bb8 <fat_index_alloc+0xa8>
    4bd9:	8b 59 0c             	mov    0xc(%ecx),%ebx
    4bdc:	89 1e                	mov    %ebx,(%esi)
    4bde:	43                   	inc    %ebx
    4bdf:	83 c0 ff             	add    $0xffffffff,%eax
    4be2:	89 59 0c             	mov    %ebx,0xc(%ecx)
    4be5:	83 d2 ff             	adc    $0xffffffff,%edx
    4be8:	89 41 10             	mov    %eax,0x10(%ecx)
    4beb:	89 51 14             	mov    %edx,0x14(%ecx)
    4bee:	c7 04 24 e8 d6 02 00 	movl   $0x2d6e8,(%esp)
    4bf5:	e8 56 04 01 00       	call   15050 <fibril_mutex_unlock>
    4bfa:	b0 01                	mov    $0x1,%al
    4bfc:	e9 7a ff ff ff       	jmp    4b7b <fat_index_alloc+0x6b>
    4c01:	c7 44 24 08 d5 00 00 	movl   $0xd5,0x8(%esp)
    4c08:	00 
    4c09:	c7 44 24 04 c4 aa 02 	movl   $0x2aac4,0x4(%esp)
    4c10:	00 
    4c11:	c7 04 24 ce aa 02 00 	movl   $0x2aace,(%esp)
    4c18:	e8 03 39 02 00       	call   28520 <assert_abort>
    4c1d:	8d 76 00             	lea    0x0(%esi),%esi

00004c20 <fat_idx_get_new>:
    4c20:	55                   	push   %ebp
    4c21:	89 e5                	mov    %esp,%ebp
    4c23:	57                   	push   %edi
    4c24:	56                   	push   %esi
    4c25:	53                   	push   %ebx
    4c26:	83 ec 2c             	sub    $0x2c,%esp
    4c29:	8b 75 0c             	mov    0xc(%ebp),%esi
    4c2c:	c7 04 24 d8 d6 02 00 	movl   $0x2d6d8,(%esp)
    4c33:	e8 f8 02 01 00       	call   14f30 <fibril_mutex_lock>
    4c38:	c7 04 24 34 00 00 00 	movl   $0x34,(%esp)
    4c3f:	e8 fc 90 01 00       	call   1dd40 <malloc>
    4c44:	89 c3                	mov    %eax,%ebx
    4c46:	85 c0                	test   %eax,%eax
    4c48:	0f 84 8b 00 00 00    	je     4cd9 <fat_idx_get_new+0xb9>
    4c4e:	8d 50 24             	lea    0x24(%eax),%edx
    4c51:	89 f0                	mov    %esi,%eax
    4c53:	e8 b8 fe ff ff       	call   4b10 <fat_index_alloc>
    4c58:	84 c0                	test   %al,%al
    4c5a:	74 5c                	je     4cb8 <fat_idx_get_new+0x98>
    4c5c:	8d 7b 10             	lea    0x10(%ebx),%edi
    4c5f:	89 3c 24             	mov    %edi,(%esp)
    4c62:	e8 a9 02 01 00       	call   14f10 <fibril_mutex_initialize>
    4c67:	8d 43 08             	lea    0x8(%ebx),%eax
    4c6a:	89 44 24 04          	mov    %eax,0x4(%esp)
    4c6e:	c7 04 24 90 d9 02 00 	movl   $0x2d990,(%esp)
    4c75:	89 73 20             	mov    %esi,0x20(%ebx)
    4c78:	c7 43 28 00 00 00 00 	movl   $0x0,0x28(%ebx)
    4c7f:	c7 43 2c 00 00 00 00 	movl   $0x0,0x2c(%ebx)
    4c86:	c7 43 30 00 00 00 00 	movl   $0x0,0x30(%ebx)
    4c8d:	e8 2e f1 01 00       	call   23dc0 <hash_table_insert>
    4c92:	89 3c 24             	mov    %edi,(%esp)
    4c95:	e8 96 02 01 00       	call   14f30 <fibril_mutex_lock>
    4c9a:	c7 04 24 d8 d6 02 00 	movl   $0x2d6d8,(%esp)
    4ca1:	e8 aa 03 01 00       	call   15050 <fibril_mutex_unlock>
    4ca6:	8b 45 08             	mov    0x8(%ebp),%eax
    4ca9:	89 18                	mov    %ebx,(%eax)
    4cab:	31 c0                	xor    %eax,%eax
    4cad:	83 c4 2c             	add    $0x2c,%esp
    4cb0:	5b                   	pop    %ebx
    4cb1:	5e                   	pop    %esi
    4cb2:	5f                   	pop    %edi
    4cb3:	5d                   	pop    %ebp
    4cb4:	c3                   	ret    
    4cb5:	8d 76 00             	lea    0x0(%esi),%esi
    4cb8:	89 1c 24             	mov    %ebx,(%esp)
    4cbb:	e8 90 91 01 00       	call   1de50 <free>
    4cc0:	b8 fd fe ff ff       	mov    $0xfffffefd,%eax
    4cc5:	c7 04 24 d8 d6 02 00 	movl   $0x2d6d8,(%esp)
    4ccc:	89 45 e4             	mov    %eax,-0x1c(%ebp)
    4ccf:	e8 7c 03 01 00       	call   15050 <fibril_mutex_unlock>
    4cd4:	8b 45 e4             	mov    -0x1c(%ebp),%eax
    4cd7:	eb d4                	jmp    4cad <fat_idx_get_new+0x8d>
    4cd9:	b8 fe ff ff ff       	mov    $0xfffffffe,%eax
    4cde:	eb e5                	jmp    4cc5 <fat_idx_get_new+0xa5>

00004ce0 <fat_idx_get_by_pos>:
    4ce0:	55                   	push   %ebp
    4ce1:	89 e5                	mov    %esp,%ebp
    4ce3:	57                   	push   %edi
    4ce4:	56                   	push   %esi
    4ce5:	53                   	push   %ebx
    4ce6:	83 ec 2c             	sub    $0x2c,%esp
    4ce9:	8b 45 0c             	mov    0xc(%ebp),%eax
    4cec:	8b 5d 08             	mov    0x8(%ebp),%ebx
    4cef:	89 45 e0             	mov    %eax,-0x20(%ebp)
    4cf2:	c7 04 24 d8 d6 02 00 	movl   $0x2d6d8,(%esp)
    4cf9:	8b 45 10             	mov    0x10(%ebp),%eax
    4cfc:	89 5d dc             	mov    %ebx,-0x24(%ebp)
    4cff:	89 45 e4             	mov    %eax,-0x1c(%ebp)
    4d02:	e8 29 02 01 00       	call   14f30 <fibril_mutex_lock>
    4d07:	8d 45 dc             	lea    -0x24(%ebp),%eax
    4d0a:	c7 04 24 ac d9 02 00 	movl   $0x2d9ac,(%esp)
    4d11:	89 44 24 04          	mov    %eax,0x4(%esp)
    4d15:	e8 d6 f2 01 00       	call   23ff0 <hash_table_find>
    4d1a:	89 c6                	mov    %eax,%esi
    4d1c:	85 c0                	test   %eax,%eax
    4d1e:	8d 78 10             	lea    0x10(%eax),%edi
    4d21:	74 25                	je     4d48 <fat_idx_get_by_pos+0x68>
    4d23:	89 3c 24             	mov    %edi,(%esp)
    4d26:	e8 05 02 01 00       	call   14f30 <fibril_mutex_lock>
    4d2b:	c7 04 24 d8 d6 02 00 	movl   $0x2d6d8,(%esp)
    4d32:	e8 19 03 01 00       	call   15050 <fibril_mutex_unlock>
    4d37:	83 c4 2c             	add    $0x2c,%esp
    4d3a:	89 f0                	mov    %esi,%eax
    4d3c:	5b                   	pop    %ebx
    4d3d:	5e                   	pop    %esi
    4d3e:	5f                   	pop    %edi
    4d3f:	5d                   	pop    %ebp
    4d40:	c3                   	ret    
    4d41:	8d b4 26 00 00 00 00 	lea    0x0(%esi,%eiz,1),%esi
    4d48:	c7 04 24 34 00 00 00 	movl   $0x34,(%esp)
    4d4f:	e8 ec 8f 01 00       	call   1dd40 <malloc>
    4d54:	89 c6                	mov    %eax,%esi
    4d56:	85 c0                	test   %eax,%eax
    4d58:	74 5f                	je     4db9 <fat_idx_get_by_pos+0xd9>
    4d5a:	8d 50 24             	lea    0x24(%eax),%edx
    4d5d:	89 d8                	mov    %ebx,%eax
    4d5f:	e8 ac fd ff ff       	call   4b10 <fat_index_alloc>
    4d64:	84 c0                	test   %al,%al
    4d66:	74 49                	je     4db1 <fat_idx_get_by_pos+0xd1>
    4d68:	8d 7e 10             	lea    0x10(%esi),%edi
    4d6b:	89 3c 24             	mov    %edi,(%esp)
    4d6e:	e8 9d 01 01 00       	call   14f10 <fibril_mutex_initialize>
    4d73:	8b 45 0c             	mov    0xc(%ebp),%eax
    4d76:	89 46 28             	mov    %eax,0x28(%esi)
    4d79:	8b 45 10             	mov    0x10(%ebp),%eax
    4d7c:	89 5e 20             	mov    %ebx,0x20(%esi)
    4d7f:	c7 46 30 00 00 00 00 	movl   $0x0,0x30(%esi)
    4d86:	89 46 2c             	mov    %eax,0x2c(%esi)
    4d89:	89 74 24 04          	mov    %esi,0x4(%esp)
    4d8d:	c7 04 24 ac d9 02 00 	movl   $0x2d9ac,(%esp)
    4d94:	e8 27 f0 01 00       	call   23dc0 <hash_table_insert>
    4d99:	8d 56 08             	lea    0x8(%esi),%edx
    4d9c:	89 54 24 04          	mov    %edx,0x4(%esp)
    4da0:	c7 04 24 90 d9 02 00 	movl   $0x2d990,(%esp)
    4da7:	e8 14 f0 01 00       	call   23dc0 <hash_table_insert>
    4dac:	e9 72 ff ff ff       	jmp    4d23 <fat_idx_get_by_pos+0x43>
    4db1:	89 34 24             	mov    %esi,(%esp)
    4db4:	e8 97 90 01 00       	call   1de50 <free>
    4db9:	c7 04 24 d8 d6 02 00 	movl   $0x2d6d8,(%esp)
    4dc0:	31 f6                	xor    %esi,%esi
    4dc2:	e8 89 02 01 00       	call   15050 <fibril_mutex_unlock>
    4dc7:	e9 6b ff ff ff       	jmp    4d37 <fat_idx_get_by_pos+0x57>
    4dcc:	8d 74 26 00          	lea    0x0(%esi,%eiz,1),%esi

00004dd0 <fat_idx_hashin>:
    4dd0:	55                   	push   %ebp
    4dd1:	89 e5                	mov    %esp,%ebp
    4dd3:	53                   	push   %ebx
    4dd4:	83 ec 14             	sub    $0x14,%esp
    4dd7:	8b 5d 08             	mov    0x8(%ebp),%ebx
    4dda:	c7 04 24 d8 d6 02 00 	movl   $0x2d6d8,(%esp)
    4de1:	e8 4a 01 01 00       	call   14f30 <fibril_mutex_lock>
    4de6:	89 5c 24 04          	mov    %ebx,0x4(%esp)
    4dea:	c7 04 24 ac d9 02 00 	movl   $0x2d9ac,(%esp)
    4df1:	e8 ca ef 01 00       	call   23dc0 <hash_table_insert>
    4df6:	c7 45 08 d8 d6 02 00 	movl   $0x2d6d8,0x8(%ebp)
    4dfd:	83 c4 14             	add    $0x14,%esp
    4e00:	5b                   	pop    %ebx
    4e01:	5d                   	pop    %ebp
    4e02:	e9 49 02 01 00       	jmp    15050 <fibril_mutex_unlock>
    4e07:	89 f6                	mov    %esi,%esi
    4e09:	8d bc 27 00 00 00 00 	lea    0x0(%edi,%eiz,1),%edi

00004e10 <fat_idx_hashout>:
    4e10:	55                   	push   %ebp
    4e11:	89 e5                	mov    %esp,%ebp
    4e13:	53                   	push   %ebx
    4e14:	83 ec 14             	sub    $0x14,%esp
    4e17:	8b 5d 08             	mov    0x8(%ebp),%ebx
    4e1a:	c7 04 24 d8 d6 02 00 	movl   $0x2d6d8,(%esp)
    4e21:	e8 0a 01 01 00       	call   14f30 <fibril_mutex_lock>
    4e26:	89 5c 24 04          	mov    %ebx,0x4(%esp)
    4e2a:	c7 04 24 ac d9 02 00 	movl   $0x2d9ac,(%esp)
    4e31:	e8 3a f4 01 00       	call   24270 <hash_table_remove_item>
    4e36:	c7 45 08 d8 d6 02 00 	movl   $0x2d6d8,0x8(%ebp)
    4e3d:	83 c4 14             	add    $0x14,%esp
    4e40:	5b                   	pop    %ebx
    4e41:	5d                   	pop    %ebp
    4e42:	e9 09 02 01 00       	jmp    15050 <fibril_mutex_unlock>
    4e47:	89 f6                	mov    %esi,%esi
    4e49:	8d bc 27 00 00 00 00 	lea    0x0(%edi,%eiz,1),%edi

00004e50 <fat_idx_get_by_index>:
    4e50:	55                   	push   %ebp
    4e51:	89 e5                	mov    %esp,%ebp
    4e53:	53                   	push   %ebx
    4e54:	83 ec 24             	sub    $0x24,%esp
    4e57:	8b 45 08             	mov    0x8(%ebp),%eax
    4e5a:	89 45 f0             	mov    %eax,-0x10(%ebp)
    4e5d:	c7 04 24 d8 d6 02 00 	movl   $0x2d6d8,(%esp)
    4e64:	8b 45 0c             	mov    0xc(%ebp),%eax
    4e67:	89 45 f4             	mov    %eax,-0xc(%ebp)
    4e6a:	e8 c1 00 01 00       	call   14f30 <fibril_mutex_lock>
    4e6f:	8d 45 f0             	lea    -0x10(%ebp),%eax
    4e72:	c7 04 24 90 d9 02 00 	movl   $0x2d990,(%esp)
    4e79:	89 44 24 04          	mov    %eax,0x4(%esp)
    4e7d:	e8 6e f1 01 00       	call   23ff0 <hash_table_find>
    4e82:	85 c0                	test   %eax,%eax
    4e84:	74 22                	je     4ea8 <fat_idx_get_by_index+0x58>
    4e86:	8d 50 08             	lea    0x8(%eax),%edx
    4e89:	8d 58 f8             	lea    -0x8(%eax),%ebx
    4e8c:	89 14 24             	mov    %edx,(%esp)
    4e8f:	e8 9c 00 01 00       	call   14f30 <fibril_mutex_lock>
    4e94:	c7 04 24 d8 d6 02 00 	movl   $0x2d6d8,(%esp)
    4e9b:	e8 b0 01 01 00       	call   15050 <fibril_mutex_unlock>
    4ea0:	83 c4 24             	add    $0x24,%esp
    4ea3:	89 d8                	mov    %ebx,%eax
    4ea5:	5b                   	pop    %ebx
    4ea6:	5d                   	pop    %ebp
    4ea7:	c3                   	ret    
    4ea8:	31 db                	xor    %ebx,%ebx
    4eaa:	eb e8                	jmp    4e94 <fat_idx_get_by_index+0x44>
    4eac:	8d 74 26 00          	lea    0x0(%esi,%eiz,1),%esi

00004eb0 <fat_idx_destroy>:
    4eb0:	55                   	push   %ebp
    4eb1:	89 e5                	mov    %esp,%ebp
    4eb3:	57                   	push   %edi
    4eb4:	56                   	push   %esi
    4eb5:	53                   	push   %ebx
    4eb6:	83 ec 3c             	sub    $0x3c,%esp
    4eb9:	8b 45 08             	mov    0x8(%ebp),%eax
    4ebc:	8b 50 20             	mov    0x20(%eax),%edx
    4ebf:	89 55 e0             	mov    %edx,-0x20(%ebp)
    4ec2:	8b 50 24             	mov    0x24(%eax),%edx
    4ec5:	89 55 e4             	mov    %edx,-0x1c(%ebp)
    4ec8:	8b 50 28             	mov    0x28(%eax),%edx
    4ecb:	85 d2                	test   %edx,%edx
    4ecd:	0f 85 81 02 00 00    	jne    5154 <fat_idx_destroy+0x2a4>
    4ed3:	c7 04 24 d8 d6 02 00 	movl   $0x2d6d8,(%esp)
    4eda:	e8 51 00 01 00       	call   14f30 <fibril_mutex_lock>
    4edf:	8d 45 e0             	lea    -0x20(%ebp),%eax
    4ee2:	89 44 24 04          	mov    %eax,0x4(%esp)
    4ee6:	c7 04 24 90 d9 02 00 	movl   $0x2d990,(%esp)
    4eed:	e8 4e f2 01 00       	call   24140 <hash_table_remove>
    4ef2:	c7 04 24 d8 d6 02 00 	movl   $0x2d6d8,(%esp)
    4ef9:	e8 52 01 01 00       	call   15050 <fibril_mutex_unlock>
    4efe:	c7 04 24 e8 d6 02 00 	movl   $0x2d6e8,(%esp)
    4f05:	8b 7d e4             	mov    -0x1c(%ebp),%edi
    4f08:	8b 75 e0             	mov    -0x20(%ebp),%esi
    4f0b:	e8 20 00 01 00       	call   14f30 <fibril_mutex_lock>
    4f10:	8b 1d fc d6 02 00    	mov    0x2d6fc,%ebx
    4f16:	81 fb f8 d6 02 00    	cmp    $0x2d6f8,%ebx
    4f1c:	75 19                	jne    4f37 <fat_idx_destroy+0x87>
    4f1e:	e9 c5 01 00 00       	jmp    50e8 <fat_idx_destroy+0x238>
    4f23:	90                   	nop
    4f24:	8d 74 26 00          	lea    0x0(%esi,%eiz,1),%esi
    4f28:	8b 5b 04             	mov    0x4(%ebx),%ebx
    4f2b:	81 fb f8 d6 02 00    	cmp    $0x2d6f8,%ebx
    4f31:	0f 84 b1 01 00 00    	je     50e8 <fat_idx_destroy+0x238>
    4f37:	3b 73 08             	cmp    0x8(%ebx),%esi
    4f3a:	75 ec                	jne    4f28 <fat_idx_destroy+0x78>
    4f3c:	8d 57 01             	lea    0x1(%edi),%edx
    4f3f:	39 53 0c             	cmp    %edx,0xc(%ebx)
    4f42:	0f 84 a0 00 00 00    	je     4fe8 <fat_idx_destroy+0x138>
    4f48:	8d 4b 18             	lea    0x18(%ebx),%ecx
    4f4b:	8b 73 1c             	mov    0x1c(%ebx),%esi
    4f4e:	89 4d d4             	mov    %ecx,-0x2c(%ebp)
    4f51:	39 ce                	cmp    %ecx,%esi
    4f53:	74 58                	je     4fad <fat_idx_destroy+0xfd>
    4f55:	8b 46 08             	mov    0x8(%esi),%eax
    4f58:	39 c2                	cmp    %eax,%edx
    4f5a:	0f 84 a8 00 00 00    	je     5008 <fat_idx_destroy+0x158>
    4f60:	8b 4e 0c             	mov    0xc(%esi),%ecx
    4f63:	89 4d cc             	mov    %ecx,-0x34(%ebp)
    4f66:	8d 4f ff             	lea    -0x1(%edi),%ecx
    4f69:	89 4d d0             	mov    %ecx,-0x30(%ebp)
    4f6c:	39 4d cc             	cmp    %ecx,-0x34(%ebp)
    4f6f:	0f 84 e6 00 00 00    	je     505b <fat_idx_destroy+0x1ab>
    4f75:	39 c7                	cmp    %eax,%edi
    4f77:	0f 87 33 01 00 00    	ja     50b0 <fat_idx_destroy+0x200>
    4f7d:	89 5d cc             	mov    %ebx,-0x34(%ebp)
    4f80:	8b 5d d0             	mov    -0x30(%ebp),%ebx
    4f83:	eb 1d                	jmp    4fa2 <fat_idx_destroy+0xf2>
    4f85:	8d 76 00             	lea    0x0(%esi),%esi
    4f88:	8b 46 08             	mov    0x8(%esi),%eax
    4f8b:	39 c2                	cmp    %eax,%edx
    4f8d:	74 79                	je     5008 <fat_idx_destroy+0x158>
    4f8f:	8b 4e 0c             	mov    0xc(%esi),%ecx
    4f92:	39 d9                	cmp    %ebx,%ecx
    4f94:	0f 84 be 00 00 00    	je     5058 <fat_idx_destroy+0x1a8>
    4f9a:	39 c7                	cmp    %eax,%edi
    4f9c:	0f 87 0e 01 00 00    	ja     50b0 <fat_idx_destroy+0x200>
    4fa2:	8b 76 04             	mov    0x4(%esi),%esi
    4fa5:	3b 75 d4             	cmp    -0x2c(%ebp),%esi
    4fa8:	75 de                	jne    4f88 <fat_idx_destroy+0xd8>
    4faa:	8b 5d cc             	mov    -0x34(%ebp),%ebx
    4fad:	c7 04 24 10 00 00 00 	movl   $0x10,(%esp)
    4fb4:	e8 87 8d 01 00       	call   1dd40 <malloc>
    4fb9:	85 c0                	test   %eax,%eax
    4fbb:	0f 84 77 01 00 00    	je     5138 <fat_idx_destroy+0x288>
    4fc1:	c7 00 00 00 00 00    	movl   $0x0,(%eax)
    4fc7:	8b 55 d4             	mov    -0x2c(%ebp),%edx
    4fca:	89 50 04             	mov    %edx,0x4(%eax)
    4fcd:	8b 53 18             	mov    0x18(%ebx),%edx
    4fd0:	89 10                	mov    %edx,(%eax)
    4fd2:	89 78 08             	mov    %edi,0x8(%eax)
    4fd5:	8b 53 18             	mov    0x18(%ebx),%edx
    4fd8:	89 78 0c             	mov    %edi,0xc(%eax)
    4fdb:	89 43 18             	mov    %eax,0x18(%ebx)
    4fde:	89 42 04             	mov    %eax,0x4(%edx)
    4fe1:	eb 10                	jmp    4ff3 <fat_idx_destroy+0x143>
    4fe3:	90                   	nop
    4fe4:	8d 74 26 00          	lea    0x0(%esi,%eiz,1),%esi
    4fe8:	83 43 10 01          	addl   $0x1,0x10(%ebx)
    4fec:	83 53 14 00          	adcl   $0x0,0x14(%ebx)
    4ff0:	89 7b 0c             	mov    %edi,0xc(%ebx)
    4ff3:	c7 04 24 e8 d6 02 00 	movl   $0x2d6e8,(%esp)
    4ffa:	e8 51 00 01 00       	call   15050 <fibril_mutex_unlock>
    4fff:	83 c4 3c             	add    $0x3c,%esp
    5002:	5b                   	pop    %ebx
    5003:	5e                   	pop    %esi
    5004:	5f                   	pop    %edi
    5005:	5d                   	pop    %ebp
    5006:	c3                   	ret    
    5007:	90                   	nop
    5008:	48                   	dec    %eax
    5009:	8b 0e                	mov    (%esi),%ecx
    500b:	89 46 08             	mov    %eax,0x8(%esi)
    500e:	3b 4d d4             	cmp    -0x2c(%ebp),%ecx
    5011:	74 e0                	je     4ff3 <fat_idx_destroy+0x143>
    5013:	8b 51 0c             	mov    0xc(%ecx),%edx
    5016:	42                   	inc    %edx
    5017:	39 d0                	cmp    %edx,%eax
    5019:	75 d8                	jne    4ff3 <fat_idx_destroy+0x143>
    501b:	39 ce                	cmp    %ecx,%esi
    501d:	0f 84 ed 00 00 00    	je     5110 <fat_idx_destroy+0x260>
    5023:	8b 41 08             	mov    0x8(%ecx),%eax
    5026:	8b 11                	mov    (%ecx),%edx
    5028:	89 46 08             	mov    %eax,0x8(%esi)
    502b:	85 d2                	test   %edx,%edx
    502d:	74 0e                	je     503d <fat_idx_destroy+0x18d>
    502f:	8b 41 04             	mov    0x4(%ecx),%eax
    5032:	85 c0                	test   %eax,%eax
    5034:	74 07                	je     503d <fat_idx_destroy+0x18d>
    5036:	89 10                	mov    %edx,(%eax)
